; ModuleID = '/usr/local/google/home/aeubanks/repos/test-suite/MultiSource/Applications/kimwitu++/k.cc'
source_filename = "/usr/local/google/home/aeubanks/repos/test-suite/MultiSource/Applications/kimwitu++/k.cc"
target datalayout = "e-m:e-p270:32:32-p271:32:32-p272:64:64-i64:64-f80:128-n8:16:32:64-S128"
target triple = "x86_64-unknown-linux-gnu"

%"struct.kc::KC_PHYLUM_INFO" = type { ptr, i32, i32, i32 }
%"struct.kc::KC_OPERATOR_INFO" = type { ptr, i64, i8, i32, ptr, i32, ptr, i64 }
%"class.kc::hashtable_struct_t" = type <{ %"struct.kc::hashtable_level", %"class.kc::hashtable_stack", i8, i8, [6 x i8] }>
%"struct.kc::hashtable_level" = type { i8, %"class.__gnu_cxx::hash_set", %"class.std::set", %"class.std::set.6", %"class.std::set.14", %"class.std::set.22", %"class.std::set.30" }
%"class.__gnu_cxx::hash_set" = type { %"class.__gnu_cxx::hashtable" }
%"class.__gnu_cxx::hashtable" = type { %"class.std::allocator", %"struct.kc::hash_hashitem", %"struct.kc::eq_hashitem", %"struct.std::_Identity", %"class.std::vector", i64 }
%"class.std::allocator" = type { i8 }
%"struct.kc::hash_hashitem" = type { i8 }
%"struct.kc::eq_hashitem" = type { i8 }
%"struct.std::_Identity" = type { i8 }
%"class.std::vector" = type { %"struct.std::_Vector_base" }
%"struct.std::_Vector_base" = type { %"struct.std::_Vector_base<__gnu_cxx::_Hashtable_node<kc::hashitem> *, std::allocator<__gnu_cxx::_Hashtable_node<kc::hashitem> *>>::_Vector_impl" }
%"struct.std::_Vector_base<__gnu_cxx::_Hashtable_node<kc::hashitem> *, std::allocator<__gnu_cxx::_Hashtable_node<kc::hashitem> *>>::_Vector_impl" = type { %"struct.std::_Vector_base<__gnu_cxx::_Hashtable_node<kc::hashitem> *, std::allocator<__gnu_cxx::_Hashtable_node<kc::hashitem> *>>::_Vector_impl_data" }
%"struct.std::_Vector_base<__gnu_cxx::_Hashtable_node<kc::hashitem> *, std::allocator<__gnu_cxx::_Hashtable_node<kc::hashitem> *>>::_Vector_impl_data" = type { ptr, ptr, ptr }
%"class.std::set" = type { %"class.std::_Rb_tree" }
%"class.std::_Rb_tree" = type { %"struct.std::_Rb_tree<kc::impl_nocasestring_NoCaseStr *, kc::impl_nocasestring_NoCaseStr *, std::_Identity<kc::impl_nocasestring_NoCaseStr *>, kc::phylum_less<kc::impl_nocasestring_NoCaseStr *>>::_Rb_tree_impl" }
%"struct.std::_Rb_tree<kc::impl_nocasestring_NoCaseStr *, kc::impl_nocasestring_NoCaseStr *, std::_Identity<kc::impl_nocasestring_NoCaseStr *>, kc::phylum_less<kc::impl_nocasestring_NoCaseStr *>>::_Rb_tree_impl" = type { %"struct.std::_Rb_tree_key_compare", %"struct.std::_Rb_tree_header" }
%"struct.std::_Rb_tree_key_compare" = type { %"class.kc::phylum_less" }
%"class.kc::phylum_less" = type { i8 }
%"struct.std::_Rb_tree_header" = type { %"struct.std::_Rb_tree_node_base", i64 }
%"struct.std::_Rb_tree_node_base" = type { i32, ptr, ptr, ptr }
%"class.std::set.6" = type { %"class.std::_Rb_tree.7" }
%"class.std::_Rb_tree.7" = type { %"struct.std::_Rb_tree<kc::impl_integer__Int *, kc::impl_integer__Int *, std::_Identity<kc::impl_integer__Int *>, kc::phylum_less<kc::impl_integer__Int *>>::_Rb_tree_impl" }
%"struct.std::_Rb_tree<kc::impl_integer__Int *, kc::impl_integer__Int *, std::_Identity<kc::impl_integer__Int *>, kc::phylum_less<kc::impl_integer__Int *>>::_Rb_tree_impl" = type { %"struct.std::_Rb_tree_key_compare.11", %"struct.std::_Rb_tree_header" }
%"struct.std::_Rb_tree_key_compare.11" = type { %"class.kc::phylum_less.12" }
%"class.kc::phylum_less.12" = type { i8 }
%"class.std::set.14" = type { %"class.std::_Rb_tree.15" }
%"class.std::_Rb_tree.15" = type { %"struct.std::_Rb_tree<kc::impl_real__Real *, kc::impl_real__Real *, std::_Identity<kc::impl_real__Real *>, kc::phylum_less<kc::impl_real__Real *>>::_Rb_tree_impl" }
%"struct.std::_Rb_tree<kc::impl_real__Real *, kc::impl_real__Real *, std::_Identity<kc::impl_real__Real *>, kc::phylum_less<kc::impl_real__Real *>>::_Rb_tree_impl" = type { %"struct.std::_Rb_tree_key_compare.19", %"struct.std::_Rb_tree_header" }
%"struct.std::_Rb_tree_key_compare.19" = type { %"class.kc::phylum_less.20" }
%"class.kc::phylum_less.20" = type { i8 }
%"class.std::set.22" = type { %"class.std::_Rb_tree.23" }
%"class.std::_Rb_tree.23" = type { %"struct.std::_Rb_tree<kc::impl_voidptr__VoidPtr *, kc::impl_voidptr__VoidPtr *, std::_Identity<kc::impl_voidptr__VoidPtr *>, kc::phylum_less<kc::impl_voidptr__VoidPtr *>>::_Rb_tree_impl" }
%"struct.std::_Rb_tree<kc::impl_voidptr__VoidPtr *, kc::impl_voidptr__VoidPtr *, std::_Identity<kc::impl_voidptr__VoidPtr *>, kc::phylum_less<kc::impl_voidptr__VoidPtr *>>::_Rb_tree_impl" = type { %"struct.std::_Rb_tree_key_compare.27", %"struct.std::_Rb_tree_header" }
%"struct.std::_Rb_tree_key_compare.27" = type { %"class.kc::phylum_less.28" }
%"class.kc::phylum_less.28" = type { i8 }
%"class.std::set.30" = type { %"class.std::_Rb_tree.31" }
%"class.std::_Rb_tree.31" = type { %"struct.std::_Rb_tree<kc::impl_abstract_phylum *, kc::impl_abstract_phylum *, std::_Identity<kc::impl_abstract_phylum *>, kc::phylum_less<kc::impl_abstract_phylum *>>::_Rb_tree_impl" }
%"struct.std::_Rb_tree<kc::impl_abstract_phylum *, kc::impl_abstract_phylum *, std::_Identity<kc::impl_abstract_phylum *>, kc::phylum_less<kc::impl_abstract_phylum *>>::_Rb_tree_impl" = type { %"struct.std::_Rb_tree_key_compare.35", %"struct.std::_Rb_tree_header" }
%"struct.std::_Rb_tree_key_compare.35" = type { %"class.kc::phylum_less.36" }
%"class.kc::phylum_less.36" = type { i8 }
%"class.kc::hashtable_stack" = type { %"class.std::__cxx11::list", %"struct.std::_List_iterator" }
%"class.std::__cxx11::list" = type { %"class.std::__cxx11::_List_base" }
%"class.std::__cxx11::_List_base" = type { %"struct.std::__cxx11::_List_base<kc::hashtable_level, std::allocator<kc::hashtable_level>>::_List_impl" }
%"struct.std::__cxx11::_List_base<kc::hashtable_level, std::allocator<kc::hashtable_level>>::_List_impl" = type { %"struct.std::__detail::_List_node_header" }
%"struct.std::__detail::_List_node_header" = type { %"struct.std::__detail::_List_node_base", i64 }
%"struct.std::__detail::_List_node_base" = type { ptr, ptr }
%"struct.std::_List_iterator" = type { ptr }
%"class.std::__cxx11::basic_string" = type { %"struct.std::__cxx11::basic_string<char>::_Alloc_hider", i64, %union.anon }
%"struct.std::__cxx11::basic_string<char>::_Alloc_hider" = type { ptr }
%union.anon = type { i64, [8 x i8] }
%"class.kc::impl_nocasestring_NoCaseStr" = type { %"class.kc::impl_abstract_phylum", ptr }
%"class.kc::impl_abstract_phylum" = type { ptr }
%"class.kc::impl_casestring__Str" = type { %"class.kc::impl_abstract_phylum", ptr }
%"class.kc::impl_real__Real" = type { %"class.kc::impl_abstract_phylum", double }
%"class.kc::impl_integer__Int" = type <{ %"class.kc::impl_abstract_phylum", i32, [4 x i8] }>
%"class.kc::impl_voidptr__VoidPtr" = type { %"class.kc::impl_abstract_phylum", ptr }
%"class.kc::impl_bindingidmark_BindingIdMark" = type { %"class.kc::impl_bindingidmark.base", ptr }
%"class.kc::impl_bindingidmark.base" = type <{ %"class.kc::impl_abstract_phylum", i8 }>
%"class.kc::impl_bindingidmarks" = type { %"class.kc::impl_abstract_list", ptr, ptr }
%"class.kc::impl_abstract_list" = type { %"class.kc::impl_abstract_phylum" }
%"class.kc::impl_countedphylumdeclaration_CountedPhylumdeclaration" = type { %"class.kc::impl_countedphylumdeclaration.base", ptr }
%"class.kc::impl_countedphylumdeclaration.base" = type <{ %"class.kc::impl_abstract_phylum", i32 }>
%"class.kc::impl_countedphylumdeclarations" = type { %"class.kc::impl_abstract_list", ptr, ptr }
%"class.kc::impl_addedphylumdeclaration_AddedPhylumdeclaration" = type { %"class.kc::impl_addedphylumdeclaration.base", ptr }
%"class.kc::impl_addedphylumdeclaration.base" = type <{ %"class.kc::impl_abstract_phylum", i8 }>
%"class.kc::impl_addedphylumdeclarations" = type { %"class.kc::impl_abstract_list", ptr, ptr }
%"class.kc::impl_problem_Problem6" = type { %"class.kc::impl_problem", ptr, ptr, ptr, ptr, ptr, ptr }
%"class.kc::impl_problem" = type { %"class.kc::impl_abstract_phylum" }
%"class.kc::impl_problem_Problem5" = type { %"class.kc::impl_problem", ptr, ptr, ptr, ptr, ptr }
%"class.kc::impl_problem_Problem4" = type { %"class.kc::impl_problem", ptr, ptr, ptr, ptr }
%"class.kc::impl_problem_Problem3int1" = type { %"class.kc::impl_problem", ptr, ptr, ptr, ptr, ptr }
%"class.kc::impl_problem_Problem3" = type { %"class.kc::impl_problem", ptr, ptr, ptr }
%"class.kc::impl_problem_Problem2" = type { %"class.kc::impl_problem", ptr, ptr }
%"class.kc::impl_problem_Problem1storageoption1ID" = type { %"class.kc::impl_problem", ptr, ptr, ptr, ptr }
%"class.kc::impl_problem_Problem1INT1ID1ID" = type { %"class.kc::impl_problem", ptr, ptr, ptr, ptr, ptr, ptr }
%"class.kc::impl_problem_Problem1ID1ID1ID" = type { %"class.kc::impl_problem", ptr, ptr, ptr, ptr, ptr, ptr }
%"class.kc::impl_problem_Problem1INT1ID" = type { %"class.kc::impl_problem", ptr, ptr, ptr, ptr }
%"class.kc::impl_problem_Problem1int1" = type { %"class.kc::impl_problem", ptr, ptr, ptr }
%"class.kc::impl_problem_Problem1INT" = type { %"class.kc::impl_problem", ptr, ptr }
%"class.kc::impl_problem_Problem1t1ID" = type { %"class.kc::impl_problem", ptr, ptr, ptr, ptr }
%"class.kc::impl_problem_Problem1ID1ID" = type { %"class.kc::impl_problem", ptr, ptr, ptr, ptr }
%"class.kc::impl_problem_Problem1we" = type { %"class.kc::impl_problem", ptr, ptr }
%"class.kc::impl_problem_Problem1tID" = type { %"class.kc::impl_problem", ptr, ptr }
%"class.kc::impl_problem_Problem1ID" = type { %"class.kc::impl_problem", ptr, ptr }
%"class.kc::impl_problem_Problem1" = type { %"class.kc::impl_problem", ptr }
%"class.kc::impl_error_Warning" = type { %"class.kc::impl_error", ptr, ptr }
%"class.kc::impl_error" = type { %"class.kc::impl_abstract_phylum" }
%"class.kc::impl_error_NonFatal" = type { %"class.kc::impl_error", ptr, ptr }
%"class.kc::impl_error_Fatal" = type { %"class.kc::impl_error", ptr, ptr }
%"class.kc::impl_baseclass_list" = type { %"class.kc::impl_abstract_list", ptr, ptr }
%"class.kc::impl_baseclass_decl_BaseClassDecl" = type { %"class.kc::impl_baseclass_decl", ptr, ptr }
%"class.kc::impl_baseclass_decl" = type { %"class.kc::impl_abstract_phylum" }
%"class.kc::impl_baseclass_declarations" = type { %"class.kc::impl_abstract_list", ptr, ptr }
%"class.kc::impl_ac_base_init_AcBaseInit" = type { %"class.kc::impl_ac_base_init", ptr, ptr }
%"class.kc::impl_ac_base_init" = type { %"class.kc::impl_abstract_phylum" }
%"class.kc::impl_ac_base_init_list" = type { %"class.kc::impl_abstract_list", ptr, ptr }
%"class.kc::impl_ac_opt_base_init_list_AcYesBaseInit" = type { %"class.kc::impl_ac_opt_base_init_list", ptr }
%"class.kc::impl_ac_opt_base_init_list" = type { %"class.kc::impl_abstract_phylum" }
%"class.kc::impl_ac_constant_expression_list" = type { %"class.kc::impl_abstract_list", ptr, ptr }
%"class.kc::impl_ac_constant_expression_AcConstExpr" = type { %"class.kc::impl_ac_constant_expression", ptr }
%"class.kc::impl_ac_constant_expression" = type { %"class.kc::impl_abstract_phylum" }
%"class.kc::impl_ac_constant_expression_option_Yesac_constant_expression" = type { %"class.kc::impl_ac_constant_expression_option", ptr }
%"class.kc::impl_ac_constant_expression_option" = type { %"class.kc::impl_abstract_phylum" }
%"class.kc::impl_ac_direct_abstract_declarator_AcDirAbsdeclFn" = type { %"class.kc::impl_ac_direct_abstract_declarator", ptr, ptr }
%"class.kc::impl_ac_direct_abstract_declarator" = type { %"class.kc::impl_abstract_phylum" }
%"class.kc::impl_ac_direct_abstract_declarator_AcDirAbsdeclArray" = type { %"class.kc::impl_ac_direct_abstract_declarator", ptr, ptr }
%"class.kc::impl_ac_direct_abstract_declarator_AcDirAbsdeclPack" = type { %"class.kc::impl_ac_direct_abstract_declarator", ptr }
%"class.kc::impl_ac_direct_abstract_declarator_option_Yesac_direct_abstract_declarator" = type { %"class.kc::impl_ac_direct_abstract_declarator_option", ptr }
%"class.kc::impl_ac_direct_abstract_declarator_option" = type { %"class.kc::impl_abstract_phylum" }
%"class.kc::impl_ac_abstract_declarator_AcAbsdeclDirdecl" = type { %"class.kc::impl_ac_abstract_declarator", ptr, ptr }
%"class.kc::impl_ac_abstract_declarator" = type { %"class.kc::impl_abstract_phylum" }
%"class.kc::impl_ac_abstract_declarator_AcAbsdeclPointer" = type { %"class.kc::impl_ac_abstract_declarator", ptr }
%"class.kc::impl_ac_identifier_list" = type { %"class.kc::impl_abstract_list", ptr, ptr }
%"class.kc::impl_ac_parameter_declaration_AcParDeclAbsdecl" = type { %"class.kc::impl_ac_parameter_declaration", ptr, ptr, ptr }
%"class.kc::impl_ac_parameter_declaration" = type { %"class.kc::impl_abstract_phylum" }
%"class.kc::impl_ac_parameter_declaration_AcParDeclDecl" = type { %"class.kc::impl_ac_parameter_declaration", ptr, ptr, ptr }
%"class.kc::impl_ac_parameter_list" = type { %"class.kc::impl_abstract_list", ptr, ptr }
%"class.kc::impl_ac_parameter_type_list_AcParList3Dot" = type { %"class.kc::impl_ac_parameter_type_list", ptr }
%"class.kc::impl_ac_parameter_type_list" = type { %"class.kc::impl_abstract_phylum" }
%"class.kc::impl_ac_parameter_type_list_AcParList" = type { %"class.kc::impl_ac_parameter_type_list", ptr }
%"class.kc::impl_ac_type_qualifier_list" = type { %"class.kc::impl_abstract_list", ptr, ptr }
%"class.kc::impl_ac_class_qualifier_list" = type { %"class.kc::impl_abstract_list", ptr, ptr }
%"class.kc::impl_ac_class_qualifier_help_list" = type { %"class.kc::impl_abstract_list", ptr, ptr }
%"class.kc::impl_ac_operator_name_AcOperatorName" = type { %"class.kc::impl_ac_operator_name", ptr }
%"class.kc::impl_ac_operator_name" = type { %"class.kc::impl_abstract_phylum", i32, ptr }
%"class.kc::impl_ac_pointer_AcPointerCons" = type { %"class.kc::impl_ac_pointer", ptr, ptr }
%"class.kc::impl_ac_pointer" = type { %"class.kc::impl_abstract_phylum" }
%"class.kc::impl_ac_pointer_AcPointerNil" = type { %"class.kc::impl_ac_pointer", ptr }
%"class.kc::impl_ac_pointer_option_Yespointer" = type { %"class.kc::impl_ac_pointer_option", ptr }
%"class.kc::impl_ac_pointer_option" = type { %"class.kc::impl_abstract_phylum" }
%"class.kc::impl_ac_direct_declarator_AcOperatorDeclId" = type { %"class.kc::impl_ac_direct_declarator", ptr }
%"class.kc::impl_ac_direct_declarator" = type { %"class.kc::impl_abstract_phylum" }
%"class.kc::impl_ac_direct_declarator_AcConvOperatorDecl" = type { %"class.kc::impl_ac_direct_declarator", ptr, ptr }
%"class.kc::impl_ac_direct_declarator_AcMemberDecl" = type { %"class.kc::impl_ac_direct_declarator", ptr, ptr, ptr }
%"class.kc::impl_ac_direct_declarator_AcQualifiedDeclProto" = type { %"class.kc::impl_ac_direct_declarator", ptr, ptr, ptr, ptr }
%"class.kc::impl_ac_direct_declarator_AcDirectDeclProto" = type { %"class.kc::impl_ac_direct_declarator", ptr, ptr }
%"class.kc::impl_ac_direct_declarator_AcDirectDeclArray" = type { %"class.kc::impl_ac_direct_declarator", ptr, ptr }
%"class.kc::impl_ac_direct_declarator_AcDirectDeclPack" = type { %"class.kc::impl_ac_direct_declarator", ptr }
%"class.kc::impl_ac_direct_declarator_AcDirectDeclId" = type { %"class.kc::impl_ac_direct_declarator", ptr }
%"class.kc::impl_ac_declarator_AcDeclarator" = type { %"class.kc::impl_ac_declarator", ptr, ptr, ptr }
%"class.kc::impl_ac_declarator" = type { %"class.kc::impl_abstract_phylum" }
%"class.kc::impl_ac_init_declarator_AcInitDecl" = type { %"class.kc::impl_ac_init_declarator", ptr }
%"class.kc::impl_ac_init_declarator" = type { %"class.kc::impl_abstract_phylum" }
%"class.kc::impl_ac_init_declarator_list" = type { %"class.kc::impl_abstract_list", ptr, ptr }
%"class.kc::impl_ac_type_specifier_AcTypeSpec" = type { %"class.kc::impl_ac_type_specifier", ptr }
%"class.kc::impl_ac_type_specifier" = type { %"class.kc::impl_abstract_phylum" }
%"class.kc::impl_ac_declaration_specifier_AcDeclSpecTypeQual" = type { %"class.kc::impl_ac_declaration_specifier", ptr }
%"class.kc::impl_ac_declaration_specifier" = type { %"class.kc::impl_abstract_phylum" }
%"class.kc::impl_ac_declaration_specifier_AcDeclSpecTypeSpec" = type { %"class.kc::impl_ac_declaration_specifier", ptr }
%"class.kc::impl_ac_declaration_specifier_AcDeclSpecStorageSpec" = type { %"class.kc::impl_ac_declaration_specifier", ptr }
%"class.kc::impl_ac_declaration_specifiers" = type { %"class.kc::impl_abstract_list", ptr, ptr }
%"class.kc::impl_ac_declaration_list" = type { %"class.kc::impl_abstract_list", ptr, ptr }
%"class.kc::impl_ac_declaration_AcDeclaration" = type { %"class.kc::impl_ac_declaration", ptr, ptr }
%"class.kc::impl_ac_declaration" = type { %"class.kc::impl_abstract_phylum" }
%"class.kc::impl_unparsedeclinfo_Unparsedeclinfo" = type { %"class.kc::impl_unparsedeclinfo", ptr, ptr, ptr }
%"class.kc::impl_unparsedeclinfo" = type { %"class.kc::impl_abstract_phylum" }
%"class.kc::impl_unparsedeclsinfo" = type { %"class.kc::impl_abstract_list", ptr, ptr }
%"class.kc::impl_unparseviewinfo_Unparseviewinfo" = type { %"class.kc::impl_unparseviewinfo", ptr, ptr }
%"class.kc::impl_unparseviewinfo" = type { %"class.kc::impl_abstract_phylum" }
%"class.kc::impl_unparseviewsinfo" = type { %"class.kc::impl_abstract_list", ptr, ptr }
%"class.kc::impl_rewriteviewinfo_Rewriteviewinfo" = type { %"class.kc::impl_rewriteviewinfo", ptr, ptr }
%"class.kc::impl_rewriteviewinfo" = type { %"class.kc::impl_abstract_phylum" }
%"class.kc::impl_rewriteviewsinfo" = type { %"class.kc::impl_abstract_list", ptr, ptr }
%"class.kc::impl_withcaseinfo_Withcaseinfo" = type { %"class.kc::impl_withcaseinfo", ptr, ptr, ptr }
%"class.kc::impl_withcaseinfo" = type { %"class.kc::impl_abstract_phylum" }
%"class.kc::impl_withcasesinfo" = type { %"class.kc::impl_abstract_list", ptr, ptr }
%"class.kc::impl_rewriteruleinfo_Rewriteruleinfo" = type { %"class.kc::impl_rewriteruleinfo", ptr, ptr, ptr }
%"class.kc::impl_rewriteruleinfo" = type { %"class.kc::impl_abstract_phylum" }
%"class.kc::impl_rewriterulesinfo" = type { %"class.kc::impl_abstract_list", ptr, ptr }
%"class.kc::impl_argsnumbers" = type { %"class.kc::impl_abstract_list", ptr, ptr }
%"class.kc::impl_paths" = type { %"class.kc::impl_abstract_list", ptr, ptr }
%"class.kc::impl_path" = type { %"class.kc::impl_abstract_list", ptr, ptr, ptr, ptr }
%"class.kc::impl_elem_patternrepresentation_PRIntLiteral" = type { %"class.kc::impl_elem_patternrepresentation", ptr, ptr }
%"class.kc::impl_elem_patternrepresentation" = type { %"class.kc::impl_abstract_phylum", i32, ptr, ptr }
%"class.kc::impl_elem_patternrepresentation_PRStringLiteral" = type { %"class.kc::impl_elem_patternrepresentation", ptr, ptr }
%"class.kc::impl_elem_patternrepresentation_PRWildcard" = type { %"class.kc::impl_elem_patternrepresentation", ptr }
%"class.kc::impl_elem_patternrepresentation_PRNonLeafBinding" = type { %"class.kc::impl_elem_patternrepresentation", ptr, ptr, ptr }
%"class.kc::impl_elem_patternrepresentation_PRUserPredicate" = type { %"class.kc::impl_elem_patternrepresentation", ptr }
%"class.kc::impl_elem_patternrepresentation_PROperPredicate" = type { %"class.kc::impl_elem_patternrepresentation", ptr, ptr }
%"class.kc::impl_elem_patternrepresentation_PRVarPredicate" = type { %"class.kc::impl_elem_patternrepresentation", ptr, ptr, ptr }
%"class.kc::impl_elem_patternrepresentation_PRBinding" = type { %"class.kc::impl_elem_patternrepresentation", ptr, ptr }
%"class.kc::impl_patternrepresentation" = type { %"class.kc::impl_abstract_list", ptr, ptr }
%"class.kc::impl_patternrepresentations" = type { %"class.kc::impl_abstract_list", ptr, ptr }
%"class.kc::impl_variables" = type { %"class.kc::impl_abstract_list", ptr, ptr }
%"class.kc::impl_phyla" = type { %"class.kc::impl_abstract_list", ptr, ptr }
%"class.kc::impl_operators" = type { %"class.kc::impl_abstract_list", ptr, ptr }
%"class.kc::impl_IDtype_ITLanguageName" = type { %"class.kc::impl_IDtype", ptr }
%"class.kc::impl_IDtype" = type { %"class.kc::impl_abstract_phylum" }
%"class.kc::impl_IDtype_ITPatternVariable" = type { %"class.kc::impl_IDtype", ptr, ptr }
%"class.kc::impl_IDtype_ITUserFunction" = type { %"class.kc::impl_IDtype", ptr }
%"class.kc::impl_IDtype_ITUserOperator" = type { %"class.kc::impl_IDtype", ptr, ptr }
%"class.kc::impl_IDtype_ITPredefinedOperator" = type { %"class.kc::impl_IDtype", ptr, ptr }
%"class.kc::impl_IDtype_ITUserPhylum" = type { %"class.kc::impl_IDtype", ptr }
%"class.kc::impl_IDtype_ITPredefinedPhylum" = type { %"class.kc::impl_IDtype", ptr }
%"class.kc::impl_scopetypefileline_ScopeTypeFileLine" = type { %"class.kc::impl_scopetypefileline", ptr, ptr, ptr, ptr }
%"class.kc::impl_scopetypefileline" = type { %"class.kc::impl_abstract_phylum" }
%"class.kc::impl_scopetypefilelinestack" = type { %"class.kc::impl_abstract_list", ptr, ptr }
%"class.kc::impl_languagenames" = type { %"class.kc::impl_abstract_list", ptr, ptr }
%"class.kc::impl_languageoption_LanguageList" = type { %"class.kc::impl_languageoption", ptr }
%"class.kc::impl_languageoption" = type { %"class.kc::impl_abstract_phylum" }
%"class.kc::impl_viewnameoption_YesViewname" = type { %"class.kc::impl_viewnameoption", ptr }
%"class.kc::impl_viewnameoption" = type { %"class.kc::impl_abstract_phylum" }
%"class.kc::impl_unpattributes" = type { %"class.kc::impl_abstract_list", ptr, ptr }
%"class.kc::impl_unpsubterm_UnpCastedVariable" = type { %"class.kc::impl_unpsubterm", ptr, ptr }
%"class.kc::impl_unpsubterm" = type { %"class.kc::impl_abstract_phylum" }
%"class.kc::impl_unpsubterm_UnpDollarvarAttr" = type { %"class.kc::impl_unpsubterm", ptr, ptr }
%"class.kc::impl_unpsubterm_UnpSubAttr" = type { %"class.kc::impl_unpsubterm", ptr, ptr }
%"class.kc::impl_unpsubterm_UnpDollarvarTerm" = type { %"class.kc::impl_unpsubterm", ptr }
%"class.kc::impl_unpsubterm_UnpSubTerm" = type { %"class.kc::impl_unpsubterm", ptr }
%"class.kc::impl_unparseitem_UViewVarDecl" = type { %"class.kc::impl_unparseitem.base", ptr, ptr, ptr }
%"class.kc::impl_unparseitem.base" = type <{ %"class.kc::impl_abstract_phylum", i32 }>
%"class.kc::impl_unparseitem_UnpBody" = type { %"class.kc::impl_unparseitem.base", ptr, ptr }
%"class.kc::impl_unparseitem_UnpCtext" = type { %"class.kc::impl_unparseitem.base", ptr, ptr }
%"class.kc::impl_unparseitem_UnpSubexpr" = type { %"class.kc::impl_unparseitem.base", ptr, ptr, ptr }
%"class.kc::impl_unparseitem_UnpStr" = type { %"class.kc::impl_unparseitem.base", ptr, ptr, ptr }
%"class.kc::impl_unparseitems" = type { %"class.kc::impl_abstract_list", ptr, ptr }
%"class.kc::impl_viewnames" = type { %"class.kc::impl_abstract_list", i8, ptr, ptr }
%"class.kc::impl_unparseclause_UnparseClause" = type { %"class.kc::impl_unparseclause", ptr, ptr }
%"class.kc::impl_unparseclause" = type { %"class.kc::impl_abstract_phylum" }
%"class.kc::impl_unparseclauses" = type { %"class.kc::impl_abstract_list", ptr, ptr }
%"class.kc::impl_unparsedeclaration_UnparseDeclaration" = type { %"class.kc::impl_unparsedeclaration", ptr, ptr }
%"class.kc::impl_unparsedeclaration" = type { %"class.kc::impl_abstract_phylum", ptr }
%"class.kc::impl_unparsedeclarations" = type { %"class.kc::impl_abstract_list", ptr, ptr }
%"class.kc::impl_withcase_Withcase" = type { %"class.kc::impl_withcase", ptr, ptr }
%"class.kc::impl_withcase" = type { %"class.kc::impl_abstract_phylum", ptr }
%"class.kc::impl_withcases" = type { %"class.kc::impl_abstract_list", ptr, ptr, ptr }
%"class.kc::impl_withexpression_WECexpression" = type { %"class.kc::impl_withexpression", ptr }
%"class.kc::impl_withexpression" = type { %"class.kc::impl_abstract_phylum", ptr, i32, ptr }
%"class.kc::impl_withexpression_WEVariable" = type { %"class.kc::impl_withexpression", ptr }
%"class.kc::impl_withexpressions" = type { %"class.kc::impl_abstract_list", ptr, i32, ptr, ptr, ptr }
%"class.kc::impl_contextinfo_InForeachContext" = type { %"class.kc::impl_contextinfo", ptr }
%"class.kc::impl_contextinfo" = type { %"class.kc::impl_abstract_phylum" }
%"class.kc::impl_foreach_after_ForeachAfter" = type { %"class.kc::impl_foreach_after", ptr, ptr, ptr, ptr }
%"class.kc::impl_foreach_after" = type { %"class.kc::impl_abstract_phylum", i32, ptr }
%"class.kc::impl_Ctext_elem_CTextWithexpression" = type { %"class.kc::impl_Ctext_elem", ptr, ptr, ptr }
%"class.kc::impl_Ctext_elem" = type { %"class.kc::impl_abstract_phylum", i32, ptr }
%"class.kc::impl_Ctext_elem_CTextForeachexpression" = type { %"class.kc::impl_Ctext_elem", ptr, ptr, ptr, ptr, ptr }
%"class.kc::impl_Ctext_elem_CTextCbody" = type { %"class.kc::impl_Ctext_elem", ptr }
%"class.kc::impl_Ctext_elem_CTextCexpressionSQ" = type { %"class.kc::impl_Ctext_elem", ptr }
%"class.kc::impl_Ctext_elem_CTextCexpressionDQ" = type { %"class.kc::impl_Ctext_elem", ptr }
%"class.kc::impl_Ctext_elem_CTextNl" = type { %"class.kc::impl_Ctext_elem", ptr }
%"class.kc::impl_Ctext_elem_CTextDollarVar" = type { %"class.kc::impl_Ctext_elem", ptr }
%"class.kc::impl_Ctext_elem_CTextLine" = type { %"class.kc::impl_Ctext_elem", ptr }
%"class.kc::impl_Ctext" = type { %"class.kc::impl_abstract_list", i32, ptr, ptr, ptr }
%"class.kc::impl_fnclass_StaticFn" = type { %"class.kc::impl_fnclass", ptr }
%"class.kc::impl_fnclass" = type { %"class.kc::impl_abstract_phylum" }
%"class.kc::impl_fndeclaration_AcMemberDeclaration" = type { %"class.kc::impl_fndeclaration.base", ptr, ptr, ptr, ptr }
%"class.kc::impl_fndeclaration.base" = type <{ %"class.kc::impl_abstract_phylum", ptr, i32, [4 x i8], ptr, i8 }>
%"class.kc::impl_fndeclaration_FnAcDeclaration" = type { %"class.kc::impl_fndeclaration.base", ptr, ptr, ptr, ptr, ptr, ptr, ptr }
%"class.kc::impl_fndeclarations" = type { %"class.kc::impl_abstract_list", ptr, ptr }
%"class.kc::impl_fnfile_FnFile" = type { %"class.kc::impl_fnfile", ptr }
%"class.kc::impl_fnfile" = type { %"class.kc::impl_abstract_phylum", ptr }
%"class.kc::impl_fnfiles" = type { %"class.kc::impl_abstract_list", ptr, ptr }
%"class.kc::impl_terms" = type { %"class.kc::impl_abstract_list", ptr, ptr }
%"class.kc::impl_term_TIntLiteral" = type { %"class.kc::impl_term", ptr }
%"class.kc::impl_term" = type { %"class.kc::impl_abstract_phylum", i32, ptr }
%"class.kc::impl_term_TStringLiteral" = type { %"class.kc::impl_term", ptr }
%"class.kc::impl_term_TCTerm" = type { %"class.kc::impl_term", ptr }
%"class.kc::impl_term_TMemberVarDot" = type { %"class.kc::impl_term", ptr, ptr }
%"class.kc::impl_term_TMemberVar" = type { %"class.kc::impl_term", ptr, ptr }
%"class.kc::impl_term_TMethodDot" = type { %"class.kc::impl_term", ptr, ptr, ptr }
%"class.kc::impl_term_TMethod" = type { %"class.kc::impl_term", ptr, ptr, ptr }
%"class.kc::impl_term_TOperator" = type { %"class.kc::impl_term", ptr, ptr }
%"class.kc::impl_term_TVariable" = type { %"class.kc::impl_term", ptr }
%"class.kc::impl_patterns" = type { %"class.kc::impl_abstract_list", ptr, ptr }
%"class.kc::impl_pattern_PIntLiteral" = type { %"class.kc::impl_pattern", ptr }
%"class.kc::impl_pattern" = type { %"class.kc::impl_abstract_phylum" }
%"class.kc::impl_pattern_PStringLiteral" = type { %"class.kc::impl_pattern", ptr }
%"class.kc::impl_pattern_PNonLeafVariable" = type { %"class.kc::impl_pattern", ptr, ptr }
%"class.kc::impl_pattern_POperator" = type { %"class.kc::impl_pattern", ptr, ptr }
%"class.kc::impl_pattern_PVariable" = type { %"class.kc::impl_pattern", ptr }
%"class.kc::impl_outmostpattern_OPDefault" = type { %"class.kc::impl_outmostpattern", ptr }
%"class.kc::impl_outmostpattern" = type { %"class.kc::impl_abstract_phylum", i32, ptr, ptr }
%"class.kc::impl_outmostpattern_OPWildcard" = type { %"class.kc::impl_outmostpattern", ptr }
%"class.kc::impl_outmostpattern_OPNonLeafVariable" = type { %"class.kc::impl_outmostpattern", ptr, ptr }
%"class.kc::impl_outmostpattern_OPOperator" = type { %"class.kc::impl_outmostpattern", ptr, ptr, ptr }
%"class.kc::impl_outmostpattern_OPOperatorWildcard" = type { %"class.kc::impl_outmostpattern", ptr, ptr }
%"class.kc::impl_patternchainitem_PatternchainitemDollarid" = type { %"class.kc::impl_patternchainitem", ptr }
%"class.kc::impl_patternchainitem" = type { %"class.kc::impl_abstract_phylum", i32, ptr, ptr }
%"class.kc::impl_patternchainitem_PatternchainitemGroup" = type { %"class.kc::impl_patternchainitem", ptr }
%"class.kc::impl_patternchainitem_PatternchainitemOutmost" = type { %"class.kc::impl_patternchainitem", ptr }
%"class.kc::impl_outmostpatterns" = type { %"class.kc::impl_abstract_list", ptr, ptr }
%"class.kc::impl_patternchain" = type { %"class.kc::impl_abstract_list", i32, ptr, ptr, ptr }
%"class.kc::impl_patternchains" = type { %"class.kc::impl_abstract_list", i32, ptr, ptr, ptr }
%"class.kc::impl_rewriteclause_RewriteClause" = type { %"class.kc::impl_rewriteclause", ptr, ptr }
%"class.kc::impl_rewriteclause" = type { %"class.kc::impl_abstract_phylum" }
%"class.kc::impl_rewriteclauses" = type { %"class.kc::impl_abstract_list", ptr, ptr }
%"class.kc::impl_rwdeclaration_RwDeclaration" = type { %"class.kc::impl_rwdeclaration", ptr, ptr }
%"class.kc::impl_rwdeclaration" = type { %"class.kc::impl_abstract_phylum" }
%"class.kc::impl_rwdeclarations" = type { %"class.kc::impl_abstract_list", ptr, ptr }
%"class.kc::impl_includedeclaration_IncludeDeclaration" = type { %"class.kc::impl_includedeclaration", ptr }
%"class.kc::impl_includedeclaration" = type { %"class.kc::impl_abstract_phylum", i32, ptr }
%"class.kc::impl_includedeclarations" = type { %"class.kc::impl_abstract_list", ptr, ptr }
%"class.kc::impl_includefile_IncludeFile" = type { %"class.kc::impl_includefile", ptr }
%"class.kc::impl_includefile" = type { %"class.kc::impl_abstract_phylum", i32, %class.twoIncludedeclarations }
%class.twoIncludedeclarations = type { ptr, ptr }
%"class.kc::impl_includefiles" = type { %"class.kc::impl_abstract_list", ptr, ptr }
%"class.kc::impl_Ctexts" = type { %"class.kc::impl_abstract_list", ptr, ptr }
%"class.kc::impl_idCexpression_IdCexpression" = type { %"class.kc::impl_idCexpression", ptr, ptr }
%"class.kc::impl_idCexpression" = type { %"class.kc::impl_abstract_phylum", ptr }
%"class.kc::impl_idCexpressions" = type { %"class.kc::impl_abstract_list", ptr, ptr }
%"class.kc::impl_CexpressionSQ_elem_CExpressionSQPart" = type { %"class.kc::impl_CexpressionSQ_elem", ptr }
%"class.kc::impl_CexpressionSQ_elem" = type { %"class.kc::impl_abstract_phylum" }
%"class.kc::impl_CexpressionSQ" = type { %"class.kc::impl_abstract_list", ptr, ptr }
%"class.kc::impl_CexpressionDQ_elem_CExpressionDQPart" = type { %"class.kc::impl_CexpressionDQ_elem", ptr }
%"class.kc::impl_CexpressionDQ_elem" = type { %"class.kc::impl_abstract_phylum" }
%"class.kc::impl_CexpressionDQ" = type { %"class.kc::impl_abstract_list", ptr, ptr }
%"class.kc::impl_Cexpression_elem_CExpressionArray" = type { %"class.kc::impl_Cexpression_elem", ptr }
%"class.kc::impl_Cexpression_elem" = type { %"class.kc::impl_abstract_phylum" }
%"class.kc::impl_Cexpression_elem_CExpressionPack" = type { %"class.kc::impl_Cexpression_elem", ptr }
%"class.kc::impl_Cexpression_elem_CExpressionSQ" = type { %"class.kc::impl_Cexpression_elem", ptr }
%"class.kc::impl_Cexpression_elem_CExpressionDQ" = type { %"class.kc::impl_Cexpression_elem", ptr }
%"class.kc::impl_Cexpression_elem_CExpressionDollarvar" = type { %"class.kc::impl_Cexpression_elem", ptr }
%"class.kc::impl_Cexpression_elem_CExpressionPart" = type { %"class.kc::impl_Cexpression_elem", ptr }
%"class.kc::impl_Cexpression" = type { %"class.kc::impl_abstract_list", i32, ptr, ptr, ptr }
%"class.kc::impl_attribute_initialisation_option_Yesattribute_initialisation" = type { %"class.kc::impl_attribute_initialisation_option", ptr }
%"class.kc::impl_attribute_initialisation_option" = type { %"class.kc::impl_abstract_phylum" }
%"class.kc::impl_attribute_Attribute" = type { %"class.kc::impl_attribute", ptr, ptr, ptr }
%"class.kc::impl_attribute" = type { %"class.kc::impl_abstract_phylum" }
%"class.kc::impl_attributes" = type { %"class.kc::impl_abstract_list", ptr, ptr }
%"class.kc::impl_Ccode_option_CcodeOption" = type { %"class.kc::impl_Ccode_option", ptr, ptr }
%"class.kc::impl_Ccode_option" = type { %"class.kc::impl_abstract_phylum" }
%"class.kc::impl_argument_Argument" = type { %"class.kc::impl_argument", ptr, ptr }
%"class.kc::impl_argument" = type { %"class.kc::impl_abstract_phylum" }
%"class.kc::impl_arguments" = type { %"class.kc::impl_abstract_list", i32, ptr, ptr }
%"class.kc::impl_alternative_Alternative" = type { %"class.kc::impl_alternative", ptr, ptr }
%"class.kc::impl_alternative" = type { %"class.kc::impl_abstract_phylum", ptr, ptr, ptr, ptr }
%"class.kc::impl_alternatives" = type { %"class.kc::impl_abstract_list", ptr, ptr }
%"class.kc::impl_productionblock_PredefinedAlternatives" = type { %"class.kc::impl_productionblock", ptr }
%"class.kc::impl_productionblock" = type { %"class.kc::impl_abstract_phylum" }
%"class.kc::impl_productionblock_NonlistAlternatives" = type { %"class.kc::impl_productionblock", ptr }
%"class.kc::impl_productionblock_ListAlternatives" = type { %"class.kc::impl_productionblock", ptr, ptr }
%"class.kc::impl_storageclasses" = type { %"class.kc::impl_abstract_list", ptr, ptr, ptr }
%"class.kc::impl_storageoption_PositiveStorageOption" = type { %"class.kc::impl_storageoption", ptr }
%"class.kc::impl_storageoption" = type { %"class.kc::impl_abstract_phylum" }
%"class.kc::impl_storageoption_NegativeStorageOption" = type { %"class.kc::impl_storageoption", ptr }
%"class.kc::impl_phylumdeclaration_PhylumDeclaration" = type { %"class.kc::impl_phylumdeclaration", ptr, ptr, ptr, ptr }
%"class.kc::impl_phylumdeclaration" = type { %"class.kc::impl_abstract_phylum", i32, ptr, ptr }
%"class.kc::impl_phylumnames" = type { %"class.kc::impl_abstract_list", ptr, ptr }
%"class.kc::impl_phylumdeclarations" = type { %"class.kc::impl_abstract_list", ptr, ptr }
%"class.kc::impl_phylumdeclarationsroot_PhylumDeclarations" = type { %"class.kc::impl_phylumdeclarationsroot", ptr }
%"class.kc::impl_phylumdeclarationsroot" = type { %"class.kc::impl_abstract_phylum" }
%"class.kc::impl_STRING_String" = type { %"class.kc::impl_STRING", ptr }
%"class.kc::impl_STRING" = type { %"class.kc::impl_abstract_phylum", i32, ptr }
%"class.kc::impl_INT_Int" = type { %"class.kc::impl_INT", ptr }
%"class.kc::impl_INT" = type { %"class.kc::impl_abstract_phylum", i32, ptr }
%"class.kc::impl_ID_Id" = type { %"class.kc::impl_ID", ptr }
%"class.kc::impl_ID" = type { %"class.kc::impl_abstract_phylum", ptr, ptr, i32, ptr }
%"class.kc::impl_uniqID_Str" = type { %"class.kc::impl_uniqID", ptr }
%"class.kc::impl_uniqID" = type { %"class.kc::impl_abstract_phylum", ptr, i32, ptr, ptr }
%"class.kc::impl_fndeclaration" = type <{ %"class.kc::impl_abstract_phylum", ptr, i32, [4 x i8], ptr, i8, [7 x i8] }>
%"class.kc::impl_unparseitem" = type <{ %"class.kc::impl_abstract_phylum", i32, [4 x i8] }>
%"class.kc::impl_fileline" = type <{ %"class.kc::impl_abstract_phylum", ptr, i32, [4 x i8] }>
%"class.kc::impl_addedphylumdeclaration" = type <{ %"class.kc::impl_abstract_phylum", i8, [7 x i8] }>
%"class.kc::impl_countedphylumdeclaration" = type <{ %"class.kc::impl_abstract_phylum", i32, [4 x i8] }>
%"class.kc::impl_charruns" = type <{ %"class.kc::impl_abstract_phylum", i32, [4 x i8] }>
%"class.kc::impl_bindingidmark" = type <{ %"class.kc::impl_abstract_phylum", i8, [7 x i8] }>
%"struct.std::_List_node" = type { %"struct.std::__detail::_List_node_base", %"struct.__gnu_cxx::__aligned_membuf.60" }
%"struct.__gnu_cxx::__aligned_membuf.60" = type { [288 x i8] }
%"struct.std::_Rb_tree_node" = type { %"struct.std::_Rb_tree_node_base", %"struct.__gnu_cxx::__aligned_membuf" }
%"struct.__gnu_cxx::__aligned_membuf" = type { [8 x i8] }
%"struct.std::_Rb_tree_node.52" = type { %"struct.std::_Rb_tree_node_base", %"struct.__gnu_cxx::__aligned_membuf.53" }
%"struct.__gnu_cxx::__aligned_membuf.53" = type { [8 x i8] }
%"struct.std::_Rb_tree_node.54" = type { %"struct.std::_Rb_tree_node_base", %"struct.__gnu_cxx::__aligned_membuf.55" }
%"struct.__gnu_cxx::__aligned_membuf.55" = type { [8 x i8] }
%"struct.std::_Rb_tree_node.56" = type { %"struct.std::_Rb_tree_node_base", %"struct.__gnu_cxx::__aligned_membuf.57" }
%"struct.__gnu_cxx::__aligned_membuf.57" = type { [8 x i8] }
%"struct.std::_Rb_tree_node.58" = type { %"struct.std::_Rb_tree_node_base", %"struct.__gnu_cxx::__aligned_membuf.59" }
%"struct.__gnu_cxx::__aligned_membuf.59" = type { [8 x i8] }
%"struct.__gnu_cxx::_Hashtable_node" = type { ptr, %"struct.kc::hashitem" }
%"struct.kc::hashitem" = type { i64, ptr }

$_ZN2kc18hashtable_struct_tD2Ev = comdat any

$_ZN2kc18hashtable_struct_t15ht_check_insertIPNS_17impl_integer__IntEEET_S4_ = comdat any

$_ZN2kc18hashtable_struct_t15ht_check_insertIPNS_15impl_real__RealEEET_S4_ = comdat any

$_ZN2kc18hashtable_struct_t15ht_check_insertIPNS_21impl_voidptr__VoidPtrEEET_S4_ = comdat any

$_ZN2kc20impl_abstract_phylum7rewriteERNS_11rview_classE = comdat any

$_ZN2kc20impl_abstract_phylum10do_rewriteERNS_11rview_classE = comdat any

$_ZN2kc20impl_abstract_phylum15rewrite_membersEPS0_ = comdat any

$_ZN2kc20impl_abstract_phylum11post_createEv = comdat any

$_ZN2kc20impl_abstract_phylumD0Ev = comdat any

$_ZNK2kc32impl_bindingidmark_BindingIdMark8prod_selEv = comdat any

$_ZN2kc32impl_bindingidmark_BindingIdMarkD0Ev = comdat any

$_ZNK2kc19impl_bindingidmarks8prod_selEv = comdat any

$_ZN2kc19impl_bindingidmarksD0Ev = comdat any

$_ZNK2kc54impl_countedphylumdeclaration_CountedPhylumdeclaration8prod_selEv = comdat any

$_ZN2kc54impl_countedphylumdeclaration_CountedPhylumdeclarationD0Ev = comdat any

$_ZNK2kc30impl_countedphylumdeclarations8prod_selEv = comdat any

$_ZN2kc30impl_countedphylumdeclarationsD0Ev = comdat any

$_ZNK2kc50impl_addedphylumdeclaration_AddedPhylumdeclaration8prod_selEv = comdat any

$_ZN2kc50impl_addedphylumdeclaration_AddedPhylumdeclarationD0Ev = comdat any

$_ZNK2kc28impl_addedphylumdeclarations8prod_selEv = comdat any

$_ZN2kc28impl_addedphylumdeclarationsD0Ev = comdat any

$_ZNK2kc21impl_problem_Problem68prod_selEv = comdat any

$_ZN2kc21impl_problem_Problem6D0Ev = comdat any

$_ZNK2kc21impl_problem_Problem58prod_selEv = comdat any

$_ZN2kc21impl_problem_Problem5D0Ev = comdat any

$_ZNK2kc21impl_problem_Problem48prod_selEv = comdat any

$_ZN2kc21impl_problem_Problem4D0Ev = comdat any

$_ZNK2kc25impl_problem_Problem3int18prod_selEv = comdat any

$_ZN2kc25impl_problem_Problem3int1D0Ev = comdat any

$_ZNK2kc21impl_problem_Problem38prod_selEv = comdat any

$_ZN2kc21impl_problem_Problem3D0Ev = comdat any

$_ZNK2kc21impl_problem_Problem28prod_selEv = comdat any

$_ZN2kc21impl_problem_Problem2D0Ev = comdat any

$_ZNK2kc37impl_problem_Problem1storageoption1ID8prod_selEv = comdat any

$_ZN2kc37impl_problem_Problem1storageoption1IDD0Ev = comdat any

$_ZNK2kc30impl_problem_Problem1INT1ID1ID8prod_selEv = comdat any

$_ZN2kc30impl_problem_Problem1INT1ID1IDD0Ev = comdat any

$_ZNK2kc29impl_problem_Problem1ID1ID1ID8prod_selEv = comdat any

$_ZN2kc29impl_problem_Problem1ID1ID1IDD0Ev = comdat any

$_ZNK2kc27impl_problem_Problem1INT1ID8prod_selEv = comdat any

$_ZN2kc27impl_problem_Problem1INT1IDD0Ev = comdat any

$_ZNK2kc25impl_problem_Problem1int18prod_selEv = comdat any

$_ZN2kc25impl_problem_Problem1int1D0Ev = comdat any

$_ZNK2kc24impl_problem_Problem1INT8prod_selEv = comdat any

$_ZN2kc24impl_problem_Problem1INTD0Ev = comdat any

$_ZNK2kc25impl_problem_Problem1t1ID8prod_selEv = comdat any

$_ZN2kc25impl_problem_Problem1t1IDD0Ev = comdat any

$_ZNK2kc26impl_problem_Problem1ID1ID8prod_selEv = comdat any

$_ZN2kc26impl_problem_Problem1ID1IDD0Ev = comdat any

$_ZNK2kc23impl_problem_Problem1we8prod_selEv = comdat any

$_ZN2kc23impl_problem_Problem1weD0Ev = comdat any

$_ZNK2kc24impl_problem_Problem1tID8prod_selEv = comdat any

$_ZN2kc24impl_problem_Problem1tIDD0Ev = comdat any

$_ZNK2kc23impl_problem_Problem1ID8prod_selEv = comdat any

$_ZN2kc23impl_problem_Problem1IDD0Ev = comdat any

$_ZNK2kc21impl_problem_Problem18prod_selEv = comdat any

$_ZN2kc21impl_problem_Problem1D0Ev = comdat any

$_ZNK2kc18impl_error_Warning8prod_selEv = comdat any

$_ZN2kc18impl_error_WarningD0Ev = comdat any

$_ZNK2kc19impl_error_NonFatal8prod_selEv = comdat any

$_ZN2kc19impl_error_NonFatalD0Ev = comdat any

$_ZNK2kc16impl_error_Fatal8prod_selEv = comdat any

$_ZN2kc16impl_error_FatalD0Ev = comdat any

$_ZNK2kc19impl_baseclass_list8prod_selEv = comdat any

$_ZN2kc19impl_baseclass_listD0Ev = comdat any

$_ZNK2kc33impl_baseclass_decl_BaseClassDecl8prod_selEv = comdat any

$_ZN2kc33impl_baseclass_decl_BaseClassDeclD0Ev = comdat any

$_ZNK2kc27impl_baseclass_declarations8prod_selEv = comdat any

$_ZN2kc27impl_baseclass_declarationsD0Ev = comdat any

$_ZNK2kc28impl_ac_base_init_AcBaseInit8prod_selEv = comdat any

$_ZN2kc28impl_ac_base_init_AcBaseInitD0Ev = comdat any

$_ZNK2kc22impl_ac_base_init_list8prod_selEv = comdat any

$_ZN2kc22impl_ac_base_init_listD0Ev = comdat any

$_ZNK2kc40impl_ac_opt_base_init_list_AcYesBaseInit8prod_selEv = comdat any

$_ZN2kc40impl_ac_opt_base_init_list_AcYesBaseInitD0Ev = comdat any

$_ZNK2kc32impl_ac_constant_expression_list8prod_selEv = comdat any

$_ZN2kc32impl_ac_constant_expression_listD0Ev = comdat any

$_ZNK2kc39impl_ac_constant_expression_AcConstExpr8prod_selEv = comdat any

$_ZN2kc39impl_ac_constant_expression_AcConstExprD0Ev = comdat any

$_ZNK2kc60impl_ac_constant_expression_option_Yesac_constant_expression8prod_selEv = comdat any

$_ZN2kc60impl_ac_constant_expression_option_Yesac_constant_expressionD0Ev = comdat any

$_ZNK2kc49impl_ac_direct_abstract_declarator_AcDirAbsdeclFn8prod_selEv = comdat any

$_ZN2kc49impl_ac_direct_abstract_declarator_AcDirAbsdeclFnD0Ev = comdat any

$_ZNK2kc52impl_ac_direct_abstract_declarator_AcDirAbsdeclArray8prod_selEv = comdat any

$_ZN2kc52impl_ac_direct_abstract_declarator_AcDirAbsdeclArrayD0Ev = comdat any

$_ZNK2kc51impl_ac_direct_abstract_declarator_AcDirAbsdeclPack8prod_selEv = comdat any

$_ZN2kc51impl_ac_direct_abstract_declarator_AcDirAbsdeclPackD0Ev = comdat any

$_ZNK2kc74impl_ac_direct_abstract_declarator_option_Yesac_direct_abstract_declarator8prod_selEv = comdat any

$_ZN2kc74impl_ac_direct_abstract_declarator_option_Yesac_direct_abstract_declaratorD0Ev = comdat any

$_ZNK2kc44impl_ac_abstract_declarator_AcAbsdeclDirdecl8prod_selEv = comdat any

$_ZN2kc44impl_ac_abstract_declarator_AcAbsdeclDirdeclD0Ev = comdat any

$_ZNK2kc44impl_ac_abstract_declarator_AcAbsdeclPointer8prod_selEv = comdat any

$_ZN2kc44impl_ac_abstract_declarator_AcAbsdeclPointerD0Ev = comdat any

$_ZNK2kc23impl_ac_identifier_list8prod_selEv = comdat any

$_ZN2kc23impl_ac_identifier_listD0Ev = comdat any

$_ZNK2kc46impl_ac_parameter_declaration_AcParDeclAbsdecl8prod_selEv = comdat any

$_ZN2kc46impl_ac_parameter_declaration_AcParDeclAbsdeclD0Ev = comdat any

$_ZNK2kc43impl_ac_parameter_declaration_AcParDeclDecl8prod_selEv = comdat any

$_ZN2kc43impl_ac_parameter_declaration_AcParDeclDeclD0Ev = comdat any

$_ZNK2kc22impl_ac_parameter_list8prod_selEv = comdat any

$_ZN2kc22impl_ac_parameter_listD0Ev = comdat any

$_ZNK2kc41impl_ac_parameter_type_list_AcParList3Dot8prod_selEv = comdat any

$_ZN2kc41impl_ac_parameter_type_list_AcParList3DotD0Ev = comdat any

$_ZNK2kc37impl_ac_parameter_type_list_AcParList8prod_selEv = comdat any

$_ZN2kc37impl_ac_parameter_type_list_AcParListD0Ev = comdat any

$_ZNK2kc27impl_ac_type_qualifier_list8prod_selEv = comdat any

$_ZN2kc27impl_ac_type_qualifier_listD0Ev = comdat any

$_ZNK2kc28impl_ac_class_qualifier_list8prod_selEv = comdat any

$_ZN2kc28impl_ac_class_qualifier_listD0Ev = comdat any

$_ZNK2kc33impl_ac_class_qualifier_help_list8prod_selEv = comdat any

$_ZN2kc33impl_ac_class_qualifier_help_listD0Ev = comdat any

$_ZNK2kc36impl_ac_operator_name_AcOperatorName8prod_selEv = comdat any

$_ZN2kc36impl_ac_operator_name_AcOperatorNameD0Ev = comdat any

$_ZNK2kc29impl_ac_pointer_AcPointerCons8prod_selEv = comdat any

$_ZN2kc29impl_ac_pointer_AcPointerConsD0Ev = comdat any

$_ZNK2kc28impl_ac_pointer_AcPointerNil8prod_selEv = comdat any

$_ZN2kc28impl_ac_pointer_AcPointerNilD0Ev = comdat any

$_ZNK2kc33impl_ac_pointer_option_Yespointer8prod_selEv = comdat any

$_ZN2kc33impl_ac_pointer_option_YespointerD0Ev = comdat any

$_ZNK2kc42impl_ac_direct_declarator_AcOperatorDeclId8prod_selEv = comdat any

$_ZN2kc42impl_ac_direct_declarator_AcOperatorDeclIdD0Ev = comdat any

$_ZNK2kc44impl_ac_direct_declarator_AcConvOperatorDecl8prod_selEv = comdat any

$_ZN2kc44impl_ac_direct_declarator_AcConvOperatorDeclD0Ev = comdat any

$_ZNK2kc38impl_ac_direct_declarator_AcMemberDecl8prod_selEv = comdat any

$_ZN2kc38impl_ac_direct_declarator_AcMemberDeclD0Ev = comdat any

$_ZNK2kc46impl_ac_direct_declarator_AcQualifiedDeclProto8prod_selEv = comdat any

$_ZN2kc46impl_ac_direct_declarator_AcQualifiedDeclProtoD0Ev = comdat any

$_ZNK2kc43impl_ac_direct_declarator_AcDirectDeclProto8prod_selEv = comdat any

$_ZN2kc43impl_ac_direct_declarator_AcDirectDeclProtoD0Ev = comdat any

$_ZNK2kc43impl_ac_direct_declarator_AcDirectDeclArray8prod_selEv = comdat any

$_ZN2kc43impl_ac_direct_declarator_AcDirectDeclArrayD0Ev = comdat any

$_ZNK2kc42impl_ac_direct_declarator_AcDirectDeclPack8prod_selEv = comdat any

$_ZN2kc42impl_ac_direct_declarator_AcDirectDeclPackD0Ev = comdat any

$_ZNK2kc40impl_ac_direct_declarator_AcDirectDeclId8prod_selEv = comdat any

$_ZN2kc40impl_ac_direct_declarator_AcDirectDeclIdD0Ev = comdat any

$_ZNK2kc31impl_ac_declarator_AcDeclarator8prod_selEv = comdat any

$_ZN2kc31impl_ac_declarator_AcDeclaratorD0Ev = comdat any

$_ZNK2kc34impl_ac_init_declarator_AcInitDecl8prod_selEv = comdat any

$_ZN2kc34impl_ac_init_declarator_AcInitDeclD0Ev = comdat any

$_ZNK2kc28impl_ac_init_declarator_list8prod_selEv = comdat any

$_ZN2kc28impl_ac_init_declarator_listD0Ev = comdat any

$_ZNK2kc33impl_ac_type_specifier_AcTypeSpec8prod_selEv = comdat any

$_ZN2kc33impl_ac_type_specifier_AcTypeSpecD0Ev = comdat any

$_ZNK2kc48impl_ac_declaration_specifier_AcDeclSpecTypeQual8prod_selEv = comdat any

$_ZN2kc48impl_ac_declaration_specifier_AcDeclSpecTypeQualD0Ev = comdat any

$_ZNK2kc48impl_ac_declaration_specifier_AcDeclSpecTypeSpec8prod_selEv = comdat any

$_ZN2kc48impl_ac_declaration_specifier_AcDeclSpecTypeSpecD0Ev = comdat any

$_ZNK2kc51impl_ac_declaration_specifier_AcDeclSpecStorageSpec8prod_selEv = comdat any

$_ZN2kc51impl_ac_declaration_specifier_AcDeclSpecStorageSpecD0Ev = comdat any

$_ZNK2kc30impl_ac_declaration_specifiers8prod_selEv = comdat any

$_ZN2kc30impl_ac_declaration_specifiersD0Ev = comdat any

$_ZNK2kc24impl_ac_declaration_list8prod_selEv = comdat any

$_ZN2kc24impl_ac_declaration_listD0Ev = comdat any

$_ZNK2kc33impl_ac_declaration_AcDeclaration8prod_selEv = comdat any

$_ZN2kc33impl_ac_declaration_AcDeclarationD0Ev = comdat any

$_ZNK2kc36impl_unparsedeclinfo_Unparsedeclinfo8prod_selEv = comdat any

$_ZN2kc36impl_unparsedeclinfo_UnparsedeclinfoD0Ev = comdat any

$_ZNK2kc21impl_unparsedeclsinfo8prod_selEv = comdat any

$_ZN2kc21impl_unparsedeclsinfoD0Ev = comdat any

$_ZNK2kc36impl_unparseviewinfo_Unparseviewinfo8prod_selEv = comdat any

$_ZN2kc36impl_unparseviewinfo_UnparseviewinfoD0Ev = comdat any

$_ZNK2kc21impl_unparseviewsinfo8prod_selEv = comdat any

$_ZN2kc21impl_unparseviewsinfoD0Ev = comdat any

$_ZNK2kc36impl_rewriteviewinfo_Rewriteviewinfo8prod_selEv = comdat any

$_ZN2kc36impl_rewriteviewinfo_RewriteviewinfoD0Ev = comdat any

$_ZNK2kc21impl_rewriteviewsinfo8prod_selEv = comdat any

$_ZN2kc21impl_rewriteviewsinfoD0Ev = comdat any

$_ZNK2kc30impl_withcaseinfo_Withcaseinfo8prod_selEv = comdat any

$_ZN2kc30impl_withcaseinfo_WithcaseinfoD0Ev = comdat any

$_ZNK2kc18impl_withcasesinfo8prod_selEv = comdat any

$_ZN2kc18impl_withcasesinfoD0Ev = comdat any

$_ZNK2kc36impl_rewriteruleinfo_Rewriteruleinfo8prod_selEv = comdat any

$_ZN2kc36impl_rewriteruleinfo_RewriteruleinfoD0Ev = comdat any

$_ZNK2kc21impl_rewriterulesinfo8prod_selEv = comdat any

$_ZN2kc21impl_rewriterulesinfoD0Ev = comdat any

$_ZNK2kc16impl_argsnumbers8prod_selEv = comdat any

$_ZN2kc16impl_argsnumbersD0Ev = comdat any

$_ZNK2kc10impl_paths8prod_selEv = comdat any

$_ZN2kc10impl_pathsD0Ev = comdat any

$_ZNK2kc9impl_path8prod_selEv = comdat any

$_ZN2kc9impl_pathD0Ev = comdat any

$_ZNK2kc44impl_elem_patternrepresentation_PRIntLiteral8prod_selEv = comdat any

$_ZN2kc44impl_elem_patternrepresentation_PRIntLiteralD0Ev = comdat any

$_ZNK2kc47impl_elem_patternrepresentation_PRStringLiteral8prod_selEv = comdat any

$_ZN2kc47impl_elem_patternrepresentation_PRStringLiteralD0Ev = comdat any

$_ZNK2kc42impl_elem_patternrepresentation_PRWildcard8prod_selEv = comdat any

$_ZN2kc42impl_elem_patternrepresentation_PRWildcardD0Ev = comdat any

$_ZNK2kc48impl_elem_patternrepresentation_PRNonLeafBinding8prod_selEv = comdat any

$_ZN2kc48impl_elem_patternrepresentation_PRNonLeafBindingD0Ev = comdat any

$_ZNK2kc47impl_elem_patternrepresentation_PRUserPredicate8prod_selEv = comdat any

$_ZN2kc47impl_elem_patternrepresentation_PRUserPredicateD0Ev = comdat any

$_ZNK2kc47impl_elem_patternrepresentation_PROperPredicate8prod_selEv = comdat any

$_ZN2kc47impl_elem_patternrepresentation_PROperPredicateD0Ev = comdat any

$_ZNK2kc46impl_elem_patternrepresentation_PRVarPredicate8prod_selEv = comdat any

$_ZN2kc46impl_elem_patternrepresentation_PRVarPredicateD0Ev = comdat any

$_ZNK2kc41impl_elem_patternrepresentation_PRBinding8prod_selEv = comdat any

$_ZN2kc41impl_elem_patternrepresentation_PRBindingD0Ev = comdat any

$_ZNK2kc26impl_patternrepresentation8prod_selEv = comdat any

$_ZN2kc26impl_patternrepresentationD0Ev = comdat any

$_ZNK2kc27impl_patternrepresentations8prod_selEv = comdat any

$_ZN2kc27impl_patternrepresentationsD0Ev = comdat any

$_ZNK2kc14impl_variables8prod_selEv = comdat any

$_ZN2kc14impl_variablesD0Ev = comdat any

$_ZNK2kc10impl_phyla8prod_selEv = comdat any

$_ZN2kc10impl_phylaD0Ev = comdat any

$_ZNK2kc14impl_operators8prod_selEv = comdat any

$_ZN2kc14impl_operatorsD0Ev = comdat any

$_ZNK2kc26impl_IDtype_ITLanguageName8prod_selEv = comdat any

$_ZN2kc26impl_IDtype_ITLanguageNameD0Ev = comdat any

$_ZNK2kc29impl_IDtype_ITPatternVariable8prod_selEv = comdat any

$_ZN2kc29impl_IDtype_ITPatternVariableD0Ev = comdat any

$_ZNK2kc26impl_IDtype_ITUserFunction8prod_selEv = comdat any

$_ZN2kc26impl_IDtype_ITUserFunctionD0Ev = comdat any

$_ZNK2kc26impl_IDtype_ITUserOperator8prod_selEv = comdat any

$_ZN2kc26impl_IDtype_ITUserOperatorD0Ev = comdat any

$_ZNK2kc32impl_IDtype_ITPredefinedOperator8prod_selEv = comdat any

$_ZN2kc32impl_IDtype_ITPredefinedOperatorD0Ev = comdat any

$_ZNK2kc24impl_IDtype_ITUserPhylum8prod_selEv = comdat any

$_ZN2kc24impl_IDtype_ITUserPhylumD0Ev = comdat any

$_ZNK2kc30impl_IDtype_ITPredefinedPhylum8prod_selEv = comdat any

$_ZN2kc30impl_IDtype_ITPredefinedPhylumD0Ev = comdat any

$_ZNK2kc40impl_scopetypefileline_ScopeTypeFileLine8prod_selEv = comdat any

$_ZN2kc40impl_scopetypefileline_ScopeTypeFileLineD0Ev = comdat any

$_ZNK2kc27impl_scopetypefilelinestack8prod_selEv = comdat any

$_ZN2kc27impl_scopetypefilelinestackD0Ev = comdat any

$_ZNK2kc18impl_languagenames8prod_selEv = comdat any

$_ZN2kc18impl_languagenamesD0Ev = comdat any

$_ZNK2kc32impl_languageoption_LanguageList8prod_selEv = comdat any

$_ZN2kc32impl_languageoption_LanguageListD0Ev = comdat any

$_ZNK2kc31impl_viewnameoption_YesViewname8prod_selEv = comdat any

$_ZN2kc31impl_viewnameoption_YesViewnameD0Ev = comdat any

$_ZNK2kc18impl_unpattributes8prod_selEv = comdat any

$_ZN2kc18impl_unpattributesD0Ev = comdat any

$_ZNK2kc33impl_unpsubterm_UnpCastedVariable8prod_selEv = comdat any

$_ZN2kc33impl_unpsubterm_UnpCastedVariableD0Ev = comdat any

$_ZNK2kc32impl_unpsubterm_UnpDollarvarAttr8prod_selEv = comdat any

$_ZN2kc32impl_unpsubterm_UnpDollarvarAttrD0Ev = comdat any

$_ZNK2kc26impl_unpsubterm_UnpSubAttr8prod_selEv = comdat any

$_ZN2kc26impl_unpsubterm_UnpSubAttrD0Ev = comdat any

$_ZNK2kc32impl_unpsubterm_UnpDollarvarTerm8prod_selEv = comdat any

$_ZN2kc32impl_unpsubterm_UnpDollarvarTermD0Ev = comdat any

$_ZNK2kc26impl_unpsubterm_UnpSubTerm8prod_selEv = comdat any

$_ZN2kc26impl_unpsubterm_UnpSubTermD0Ev = comdat any

$_ZNK2kc29impl_unparseitem_UViewVarDecl8prod_selEv = comdat any

$_ZN2kc29impl_unparseitem_UViewVarDeclD0Ev = comdat any

$_ZNK2kc24impl_unparseitem_UnpBody8prod_selEv = comdat any

$_ZN2kc24impl_unparseitem_UnpBodyD0Ev = comdat any

$_ZNK2kc25impl_unparseitem_UnpCtext8prod_selEv = comdat any

$_ZN2kc25impl_unparseitem_UnpCtextD0Ev = comdat any

$_ZNK2kc27impl_unparseitem_UnpSubexpr8prod_selEv = comdat any

$_ZN2kc27impl_unparseitem_UnpSubexprD0Ev = comdat any

$_ZNK2kc23impl_unparseitem_UnpStr8prod_selEv = comdat any

$_ZN2kc23impl_unparseitem_UnpStrD0Ev = comdat any

$_ZNK2kc17impl_unparseitems8prod_selEv = comdat any

$_ZN2kc17impl_unparseitemsD0Ev = comdat any

$_ZNK2kc14impl_viewnames8prod_selEv = comdat any

$_ZN2kc14impl_viewnamesD0Ev = comdat any

$_ZNK2kc32impl_unparseclause_UnparseClause8prod_selEv = comdat any

$_ZN2kc32impl_unparseclause_UnparseClauseD0Ev = comdat any

$_ZNK2kc19impl_unparseclauses8prod_selEv = comdat any

$_ZN2kc19impl_unparseclausesD0Ev = comdat any

$_ZNK2kc42impl_unparsedeclaration_UnparseDeclaration8prod_selEv = comdat any

$_ZN2kc42impl_unparsedeclaration_UnparseDeclarationD0Ev = comdat any

$_ZNK2kc24impl_unparsedeclarations8prod_selEv = comdat any

$_ZN2kc24impl_unparsedeclarationsD0Ev = comdat any

$_ZNK2kc22impl_withcase_Withcase8prod_selEv = comdat any

$_ZN2kc22impl_withcase_WithcaseD0Ev = comdat any

$_ZNK2kc14impl_withcases8prod_selEv = comdat any

$_ZN2kc14impl_withcasesD0Ev = comdat any

$_ZNK2kc33impl_withexpression_WECexpression8prod_selEv = comdat any

$_ZN2kc33impl_withexpression_WECexpressionD0Ev = comdat any

$_ZNK2kc30impl_withexpression_WEVariable8prod_selEv = comdat any

$_ZN2kc30impl_withexpression_WEVariableD0Ev = comdat any

$_ZNK2kc20impl_withexpressions8prod_selEv = comdat any

$_ZN2kc20impl_withexpressionsD0Ev = comdat any

$_ZNK2kc33impl_contextinfo_InForeachContext8prod_selEv = comdat any

$_ZN2kc33impl_contextinfo_InForeachContextD0Ev = comdat any

$_ZNK2kc31impl_foreach_after_ForeachAfter8prod_selEv = comdat any

$_ZN2kc31impl_foreach_after_ForeachAfterD0Ev = comdat any

$_ZNK2kc35impl_Ctext_elem_CTextWithexpression8prod_selEv = comdat any

$_ZN2kc35impl_Ctext_elem_CTextWithexpressionD0Ev = comdat any

$_ZNK2kc38impl_Ctext_elem_CTextForeachexpression8prod_selEv = comdat any

$_ZN2kc38impl_Ctext_elem_CTextForeachexpressionD0Ev = comdat any

$_ZNK2kc26impl_Ctext_elem_CTextCbody8prod_selEv = comdat any

$_ZN2kc26impl_Ctext_elem_CTextCbodyD0Ev = comdat any

$_ZNK2kc34impl_Ctext_elem_CTextCexpressionSQ8prod_selEv = comdat any

$_ZN2kc34impl_Ctext_elem_CTextCexpressionSQD0Ev = comdat any

$_ZNK2kc34impl_Ctext_elem_CTextCexpressionDQ8prod_selEv = comdat any

$_ZN2kc34impl_Ctext_elem_CTextCexpressionDQD0Ev = comdat any

$_ZNK2kc23impl_Ctext_elem_CTextNl8prod_selEv = comdat any

$_ZN2kc23impl_Ctext_elem_CTextNlD0Ev = comdat any

$_ZNK2kc30impl_Ctext_elem_CTextDollarVar8prod_selEv = comdat any

$_ZN2kc30impl_Ctext_elem_CTextDollarVarD0Ev = comdat any

$_ZNK2kc25impl_Ctext_elem_CTextLine8prod_selEv = comdat any

$_ZN2kc25impl_Ctext_elem_CTextLineD0Ev = comdat any

$_ZNK2kc10impl_Ctext8prod_selEv = comdat any

$_ZN2kc10impl_CtextD0Ev = comdat any

$_ZNK2kc21impl_fnclass_StaticFn8prod_selEv = comdat any

$_ZN2kc21impl_fnclass_StaticFnD0Ev = comdat any

$_ZNK2kc38impl_fndeclaration_AcMemberDeclaration8prod_selEv = comdat any

$_ZN2kc38impl_fndeclaration_AcMemberDeclarationD0Ev = comdat any

$_ZNK2kc34impl_fndeclaration_FnAcDeclaration8prod_selEv = comdat any

$_ZN2kc34impl_fndeclaration_FnAcDeclarationD0Ev = comdat any

$_ZNK2kc19impl_fndeclarations8prod_selEv = comdat any

$_ZN2kc19impl_fndeclarationsD0Ev = comdat any

$_ZNK2kc18impl_fnfile_FnFile8prod_selEv = comdat any

$_ZN2kc18impl_fnfile_FnFileD0Ev = comdat any

$_ZNK2kc12impl_fnfiles8prod_selEv = comdat any

$_ZN2kc12impl_fnfilesD0Ev = comdat any

$_ZNK2kc10impl_terms8prod_selEv = comdat any

$_ZN2kc10impl_termsD0Ev = comdat any

$_ZNK2kc21impl_term_TIntLiteral8prod_selEv = comdat any

$_ZN2kc21impl_term_TIntLiteralD0Ev = comdat any

$_ZNK2kc24impl_term_TStringLiteral8prod_selEv = comdat any

$_ZN2kc24impl_term_TStringLiteralD0Ev = comdat any

$_ZNK2kc16impl_term_TCTerm8prod_selEv = comdat any

$_ZN2kc16impl_term_TCTermD0Ev = comdat any

$_ZNK2kc23impl_term_TMemberVarDot8prod_selEv = comdat any

$_ZN2kc23impl_term_TMemberVarDotD0Ev = comdat any

$_ZNK2kc20impl_term_TMemberVar8prod_selEv = comdat any

$_ZN2kc20impl_term_TMemberVarD0Ev = comdat any

$_ZNK2kc20impl_term_TMethodDot8prod_selEv = comdat any

$_ZN2kc20impl_term_TMethodDotD0Ev = comdat any

$_ZNK2kc17impl_term_TMethod8prod_selEv = comdat any

$_ZN2kc17impl_term_TMethodD0Ev = comdat any

$_ZNK2kc19impl_term_TOperator8prod_selEv = comdat any

$_ZN2kc19impl_term_TOperatorD0Ev = comdat any

$_ZNK2kc19impl_term_TVariable8prod_selEv = comdat any

$_ZN2kc19impl_term_TVariableD0Ev = comdat any

$_ZNK2kc13impl_patterns8prod_selEv = comdat any

$_ZN2kc13impl_patternsD0Ev = comdat any

$_ZNK2kc24impl_pattern_PIntLiteral8prod_selEv = comdat any

$_ZN2kc24impl_pattern_PIntLiteralD0Ev = comdat any

$_ZNK2kc27impl_pattern_PStringLiteral8prod_selEv = comdat any

$_ZN2kc27impl_pattern_PStringLiteralD0Ev = comdat any

$_ZNK2kc29impl_pattern_PNonLeafVariable8prod_selEv = comdat any

$_ZN2kc29impl_pattern_PNonLeafVariableD0Ev = comdat any

$_ZNK2kc22impl_pattern_POperator8prod_selEv = comdat any

$_ZN2kc22impl_pattern_POperatorD0Ev = comdat any

$_ZNK2kc22impl_pattern_PVariable8prod_selEv = comdat any

$_ZN2kc22impl_pattern_PVariableD0Ev = comdat any

$_ZNK2kc29impl_outmostpattern_OPDefault8prod_selEv = comdat any

$_ZN2kc29impl_outmostpattern_OPDefaultD0Ev = comdat any

$_ZNK2kc30impl_outmostpattern_OPWildcard8prod_selEv = comdat any

$_ZN2kc30impl_outmostpattern_OPWildcardD0Ev = comdat any

$_ZNK2kc37impl_outmostpattern_OPNonLeafVariable8prod_selEv = comdat any

$_ZN2kc37impl_outmostpattern_OPNonLeafVariableD0Ev = comdat any

$_ZNK2kc30impl_outmostpattern_OPOperator8prod_selEv = comdat any

$_ZN2kc30impl_outmostpattern_OPOperatorD0Ev = comdat any

$_ZNK2kc38impl_outmostpattern_OPOperatorWildcard8prod_selEv = comdat any

$_ZN2kc38impl_outmostpattern_OPOperatorWildcardD0Ev = comdat any

$_ZNK2kc46impl_patternchainitem_PatternchainitemDollarid8prod_selEv = comdat any

$_ZN2kc46impl_patternchainitem_PatternchainitemDollaridD0Ev = comdat any

$_ZNK2kc43impl_patternchainitem_PatternchainitemGroup8prod_selEv = comdat any

$_ZN2kc43impl_patternchainitem_PatternchainitemGroupD0Ev = comdat any

$_ZNK2kc45impl_patternchainitem_PatternchainitemOutmost8prod_selEv = comdat any

$_ZN2kc45impl_patternchainitem_PatternchainitemOutmostD0Ev = comdat any

$_ZNK2kc20impl_outmostpatterns8prod_selEv = comdat any

$_ZN2kc20impl_outmostpatternsD0Ev = comdat any

$_ZNK2kc17impl_patternchain8prod_selEv = comdat any

$_ZN2kc17impl_patternchainD0Ev = comdat any

$_ZNK2kc18impl_patternchains8prod_selEv = comdat any

$_ZN2kc18impl_patternchainsD0Ev = comdat any

$_ZNK2kc32impl_rewriteclause_RewriteClause8prod_selEv = comdat any

$_ZN2kc32impl_rewriteclause_RewriteClauseD0Ev = comdat any

$_ZNK2kc19impl_rewriteclauses8prod_selEv = comdat any

$_ZN2kc19impl_rewriteclausesD0Ev = comdat any

$_ZNK2kc32impl_rwdeclaration_RwDeclaration8prod_selEv = comdat any

$_ZN2kc32impl_rwdeclaration_RwDeclarationD0Ev = comdat any

$_ZNK2kc19impl_rwdeclarations8prod_selEv = comdat any

$_ZN2kc19impl_rwdeclarationsD0Ev = comdat any

$_ZNK2kc42impl_includedeclaration_IncludeDeclaration8prod_selEv = comdat any

$_ZN2kc42impl_includedeclaration_IncludeDeclarationD0Ev = comdat any

$_ZNK2kc24impl_includedeclarations8prod_selEv = comdat any

$_ZN2kc24impl_includedeclarationsD0Ev = comdat any

$_ZNK2kc28impl_includefile_IncludeFile8prod_selEv = comdat any

$_ZN2kc28impl_includefile_IncludeFileD0Ev = comdat any

$_ZNK2kc17impl_includefiles8prod_selEv = comdat any

$_ZN2kc17impl_includefilesD0Ev = comdat any

$_ZNK2kc11impl_Ctexts8prod_selEv = comdat any

$_ZN2kc11impl_CtextsD0Ev = comdat any

$_ZNK2kc32impl_idCexpression_IdCexpression8prod_selEv = comdat any

$_ZN2kc32impl_idCexpression_IdCexpressionD0Ev = comdat any

$_ZNK2kc19impl_idCexpressions8prod_selEv = comdat any

$_ZN2kc19impl_idCexpressionsD0Ev = comdat any

$_ZNK2kc41impl_CexpressionSQ_elem_CExpressionSQPart8prod_selEv = comdat any

$_ZN2kc41impl_CexpressionSQ_elem_CExpressionSQPartD0Ev = comdat any

$_ZNK2kc18impl_CexpressionSQ8prod_selEv = comdat any

$_ZN2kc18impl_CexpressionSQD0Ev = comdat any

$_ZNK2kc41impl_CexpressionDQ_elem_CExpressionDQPart8prod_selEv = comdat any

$_ZN2kc41impl_CexpressionDQ_elem_CExpressionDQPartD0Ev = comdat any

$_ZNK2kc18impl_CexpressionDQ8prod_selEv = comdat any

$_ZN2kc18impl_CexpressionDQD0Ev = comdat any

$_ZNK2kc38impl_Cexpression_elem_CExpressionArray8prod_selEv = comdat any

$_ZN2kc38impl_Cexpression_elem_CExpressionArrayD0Ev = comdat any

$_ZNK2kc37impl_Cexpression_elem_CExpressionPack8prod_selEv = comdat any

$_ZN2kc37impl_Cexpression_elem_CExpressionPackD0Ev = comdat any

$_ZNK2kc35impl_Cexpression_elem_CExpressionSQ8prod_selEv = comdat any

$_ZN2kc35impl_Cexpression_elem_CExpressionSQD0Ev = comdat any

$_ZNK2kc35impl_Cexpression_elem_CExpressionDQ8prod_selEv = comdat any

$_ZN2kc35impl_Cexpression_elem_CExpressionDQD0Ev = comdat any

$_ZNK2kc42impl_Cexpression_elem_CExpressionDollarvar8prod_selEv = comdat any

$_ZN2kc42impl_Cexpression_elem_CExpressionDollarvarD0Ev = comdat any

$_ZNK2kc37impl_Cexpression_elem_CExpressionPart8prod_selEv = comdat any

$_ZN2kc37impl_Cexpression_elem_CExpressionPartD0Ev = comdat any

$_ZNK2kc16impl_Cexpression8prod_selEv = comdat any

$_ZN2kc16impl_CexpressionD0Ev = comdat any

$_ZNK2kc64impl_attribute_initialisation_option_Yesattribute_initialisation8prod_selEv = comdat any

$_ZN2kc64impl_attribute_initialisation_option_Yesattribute_initialisationD0Ev = comdat any

$_ZNK2kc24impl_attribute_Attribute8prod_selEv = comdat any

$_ZN2kc24impl_attribute_AttributeD0Ev = comdat any

$_ZNK2kc15impl_attributes8prod_selEv = comdat any

$_ZN2kc15impl_attributesD0Ev = comdat any

$_ZNK2kc29impl_Ccode_option_CcodeOption8prod_selEv = comdat any

$_ZN2kc29impl_Ccode_option_CcodeOptionD0Ev = comdat any

$_ZNK2kc22impl_argument_Argument8prod_selEv = comdat any

$_ZN2kc22impl_argument_ArgumentD0Ev = comdat any

$_ZNK2kc14impl_arguments8prod_selEv = comdat any

$_ZN2kc14impl_argumentsD0Ev = comdat any

$_ZNK2kc28impl_alternative_Alternative8prod_selEv = comdat any

$_ZN2kc28impl_alternative_AlternativeD0Ev = comdat any

$_ZNK2kc17impl_alternatives8prod_selEv = comdat any

$_ZN2kc17impl_alternativesD0Ev = comdat any

$_ZNK2kc43impl_productionblock_PredefinedAlternatives8prod_selEv = comdat any

$_ZN2kc43impl_productionblock_PredefinedAlternativesD0Ev = comdat any

$_ZNK2kc40impl_productionblock_NonlistAlternatives8prod_selEv = comdat any

$_ZN2kc40impl_productionblock_NonlistAlternativesD0Ev = comdat any

$_ZNK2kc37impl_productionblock_ListAlternatives8prod_selEv = comdat any

$_ZN2kc37impl_productionblock_ListAlternativesD0Ev = comdat any

$_ZNK2kc19impl_storageclasses8prod_selEv = comdat any

$_ZN2kc19impl_storageclassesD0Ev = comdat any

$_ZNK2kc40impl_storageoption_PositiveStorageOption8prod_selEv = comdat any

$_ZN2kc20impl_abstract_phylumD2Ev = comdat any

$_ZN2kc40impl_storageoption_PositiveStorageOptionD0Ev = comdat any

$_ZNK2kc40impl_storageoption_NegativeStorageOption8prod_selEv = comdat any

$_ZN2kc40impl_storageoption_NegativeStorageOptionD0Ev = comdat any

$_ZNK2kc40impl_phylumdeclaration_PhylumDeclaration8prod_selEv = comdat any

$_ZN2kc40impl_phylumdeclaration_PhylumDeclarationD0Ev = comdat any

$_ZNK2kc16impl_phylumnames8prod_selEv = comdat any

$_ZN2kc16impl_phylumnamesD0Ev = comdat any

$_ZNK2kc23impl_phylumdeclarations8prod_selEv = comdat any

$_ZN2kc23impl_phylumdeclarationsD0Ev = comdat any

$_ZNK2kc46impl_phylumdeclarationsroot_PhylumDeclarations8prod_selEv = comdat any

$_ZN2kc46impl_phylumdeclarationsroot_PhylumDeclarationsD0Ev = comdat any

$_ZNK2kc18impl_STRING_String8prod_selEv = comdat any

$_ZN2kc18impl_STRING_StringD0Ev = comdat any

$_ZNK2kc12impl_INT_Int8prod_selEv = comdat any

$_ZN2kc12impl_INT_IntD0Ev = comdat any

$_ZNK2kc10impl_ID_Id8prod_selEv = comdat any

$_ZN2kc10impl_ID_IdD0Ev = comdat any

$_ZNK2kc15impl_uniqID_Str8prod_selEv = comdat any

$_ZN2kc15impl_uniqID_StrD0Ev = comdat any

$_ZN2kc15hashtable_levelD2Ev = comdat any

$_ZN9__gnu_cxx9hashtableIN2kc8hashitemES2_NS1_13hash_hashitemESt9_IdentityIS2_ENS1_11eq_hashitemESaIS2_EE21_M_initialize_bucketsEm = comdat any

$__clang_call_terminate = comdat any

$_ZNSt6vectorIPN9__gnu_cxx15_Hashtable_nodeIN2kc8hashitemEEESaIS5_EE14_M_fill_insertENS0_17__normal_iteratorIPS5_S7_EEmRKS5_ = comdat any

$_ZN2kc15hashtable_level5clearEb = comdat any

$_ZN2kc15hashtable_level13clear_entriesEv = comdat any

$_ZNSt8_Rb_treeIPN2kc27impl_nocasestring_NoCaseStrES2_St9_IdentityIS2_ENS0_11phylum_lessIS2_EESaIS2_EE8_M_eraseEPSt13_Rb_tree_nodeIS2_E = comdat any

$_ZNSt8_Rb_treeIPN2kc17impl_integer__IntES2_St9_IdentityIS2_ENS0_11phylum_lessIS2_EESaIS2_EE8_M_eraseEPSt13_Rb_tree_nodeIS2_E = comdat any

$_ZNSt8_Rb_treeIPN2kc15impl_real__RealES2_St9_IdentityIS2_ENS0_11phylum_lessIS2_EESaIS2_EE8_M_eraseEPSt13_Rb_tree_nodeIS2_E = comdat any

$_ZNSt8_Rb_treeIPN2kc21impl_voidptr__VoidPtrES2_St9_IdentityIS2_ENS0_11phylum_lessIS2_EESaIS2_EE8_M_eraseEPSt13_Rb_tree_nodeIS2_E = comdat any

$_ZNSt8_Rb_treeIPN2kc20impl_abstract_phylumES2_St9_IdentityIS2_ENS0_11phylum_lessIS2_EESaIS2_EE8_M_eraseEPSt13_Rb_tree_nodeIS2_E = comdat any

$_ZN2kc15hashtable_level12check_insertEPNS_20impl_casestring__StrE = comdat any

$_ZN9__gnu_cxx9hashtableIN2kc8hashitemES2_NS1_13hash_hashitemESt9_IdentityIS2_ENS1_11eq_hashitemESaIS2_EE6resizeEm = comdat any

$_ZNSt8_Rb_treeIPN2kc27impl_nocasestring_NoCaseStrES2_St9_IdentityIS2_ENS0_11phylum_lessIS2_EESaIS2_EE16_M_insert_uniqueIRKS2_EESt4pairISt17_Rb_tree_iteratorIS2_EbEOT_ = comdat any

$_ZNSt8_Rb_treeIPN2kc20impl_abstract_phylumES2_St9_IdentityIS2_ENS0_11phylum_lessIS2_EESaIS2_EE16_M_insert_uniqueIRKS2_EESt4pairISt17_Rb_tree_iteratorIS2_EbEOT_ = comdat any

$_ZTSN2kc11impl_uniqIDE = comdat any

$_ZTIN2kc11impl_uniqIDE = comdat any

$_ZTSN2kc18impl_bindingidmarkE = comdat any

$_ZTIN2kc18impl_bindingidmarkE = comdat any

$_ZTSN2kc18impl_abstract_listE = comdat any

$_ZTIN2kc18impl_abstract_listE = comdat any

$_ZTSN2kc29impl_countedphylumdeclarationE = comdat any

$_ZTIN2kc29impl_countedphylumdeclarationE = comdat any

$_ZTSN2kc27impl_addedphylumdeclarationE = comdat any

$_ZTIN2kc27impl_addedphylumdeclarationE = comdat any

$_ZTSN2kc18impl_storageoptionE = comdat any

$_ZTIN2kc18impl_storageoptionE = comdat any

$_ZTSN2kc7impl_IDE = comdat any

$_ZTIN2kc7impl_IDE = comdat any

$_ZTSN2kc8impl_INTE = comdat any

$_ZTIN2kc8impl_INTE = comdat any

$_ZTSN2kc11impl_IDtypeE = comdat any

$_ZTIN2kc11impl_IDtypeE = comdat any

$_ZTSN2kc19impl_withexpressionE = comdat any

$_ZTIN2kc19impl_withexpressionE = comdat any

$_ZTSN2kc13impl_filelineE = comdat any

$_ZTIN2kc13impl_filelineE = comdat any

$_ZTSN2kc12impl_problemE = comdat any

$_ZTIN2kc12impl_problemE = comdat any

$_ZTSN2kc19impl_baseclass_declE = comdat any

$_ZTIN2kc19impl_baseclass_declE = comdat any

$_ZTSN2kc27impl_ac_constant_expressionE = comdat any

$_ZTIN2kc27impl_ac_constant_expressionE = comdat any

$_ZTSN2kc17impl_ac_base_initE = comdat any

$_ZTIN2kc17impl_ac_base_initE = comdat any

$_ZTSN2kc41impl_ac_direct_abstract_declarator_optionE = comdat any

$_ZTIN2kc41impl_ac_direct_abstract_declarator_optionE = comdat any

$_ZTSN2kc27impl_ac_parameter_type_listE = comdat any

$_ZTIN2kc27impl_ac_parameter_type_listE = comdat any

$_ZTSN2kc34impl_ac_constant_expression_optionE = comdat any

$_ZTIN2kc34impl_ac_constant_expression_optionE = comdat any

$_ZTSN2kc27impl_ac_abstract_declaratorE = comdat any

$_ZTIN2kc27impl_ac_abstract_declaratorE = comdat any

$_ZTSN2kc34impl_ac_direct_abstract_declaratorE = comdat any

$_ZTIN2kc34impl_ac_direct_abstract_declaratorE = comdat any

$_ZTSN2kc22impl_ac_pointer_optionE = comdat any

$_ZTIN2kc22impl_ac_pointer_optionE = comdat any

$_ZTSN2kc15impl_ac_pointerE = comdat any

$_ZTIN2kc15impl_ac_pointerE = comdat any

$_ZTSN2kc18impl_ac_declaratorE = comdat any

$_ZTIN2kc18impl_ac_declaratorE = comdat any

$_ZTSN2kc29impl_ac_parameter_declarationE = comdat any

$_ZTIN2kc29impl_ac_parameter_declarationE = comdat any

$_ZTSN2kc22impl_ac_type_qualifierE = comdat any

$_ZTIN2kc22impl_ac_type_qualifierE = comdat any

$_ZTSN2kc25impl_ac_direct_declaratorE = comdat any

$_ZTIN2kc25impl_ac_direct_declaratorE = comdat any

$_ZTSN2kc21impl_ac_operator_nameE = comdat any

$_ZTIN2kc21impl_ac_operator_nameE = comdat any

$_ZTSN2kc18impl_ac_ref_optionE = comdat any

$_ZTIN2kc18impl_ac_ref_optionE = comdat any

$_ZTSN2kc23impl_ac_init_declaratorE = comdat any

$_ZTIN2kc23impl_ac_init_declaratorE = comdat any

$_ZTSN2kc22impl_ac_type_specifierE = comdat any

$_ZTIN2kc22impl_ac_type_specifierE = comdat any

$_ZTSN2kc31impl_ac_storage_class_specifierE = comdat any

$_ZTIN2kc31impl_ac_storage_class_specifierE = comdat any

$_ZTSN2kc29impl_ac_declaration_specifierE = comdat any

$_ZTIN2kc29impl_ac_declaration_specifierE = comdat any

$_ZTSN2kc19impl_ac_declarationE = comdat any

$_ZTIN2kc19impl_ac_declarationE = comdat any

$_ZTSN2kc18impl_unparseclauseE = comdat any

$_ZTIN2kc18impl_unparseclauseE = comdat any

$_ZTSN2kc20impl_unparsedeclinfoE = comdat any

$_ZTIN2kc20impl_unparsedeclinfoE = comdat any

$_ZTSN2kc20impl_unparseviewinfoE = comdat any

$_ZTIN2kc20impl_unparseviewinfoE = comdat any

$_ZTSN2kc20impl_rewriteviewinfoE = comdat any

$_ZTIN2kc20impl_rewriteviewinfoE = comdat any

$_ZTSN2kc17impl_withcaseinfoE = comdat any

$_ZTIN2kc17impl_withcaseinfoE = comdat any

$_ZTSN2kc18impl_rewriteclauseE = comdat any

$_ZTIN2kc18impl_rewriteclauseE = comdat any

$_ZTSN2kc20impl_rewriteruleinfoE = comdat any

$_ZTIN2kc20impl_rewriteruleinfoE = comdat any

$_ZTSN2kc31impl_elem_patternrepresentationE = comdat any

$_ZTIN2kc31impl_elem_patternrepresentationE = comdat any

$_ZTSN2kc12impl_fnclassE = comdat any

$_ZTIN2kc12impl_fnclassE = comdat any

$_ZTSN2kc16impl_alternativeE = comdat any

$_ZTIN2kc16impl_alternativeE = comdat any

$_ZTSN2kc22impl_phylumdeclarationE = comdat any

$_ZTIN2kc22impl_phylumdeclarationE = comdat any

$_ZTSN2kc22impl_scopetypefilelineE = comdat any

$_ZTIN2kc22impl_scopetypefilelineE = comdat any

$_ZTSN2kc19impl_languageoptionE = comdat any

$_ZTIN2kc19impl_languageoptionE = comdat any

$_ZTSN2kc15impl_unpsubtermE = comdat any

$_ZTIN2kc15impl_unpsubtermE = comdat any

$_ZTSN2kc19impl_viewnameoptionE = comdat any

$_ZTIN2kc19impl_viewnameoptionE = comdat any

$_ZTSN2kc16impl_unparseitemE = comdat any

$_ZTIN2kc16impl_unparseitemE = comdat any

$_ZTSN2kc23impl_unparsedeclarationE = comdat any

$_ZTIN2kc23impl_unparsedeclarationE = comdat any

$_ZTSN2kc13impl_withcaseE = comdat any

$_ZTIN2kc13impl_withcaseE = comdat any

$_ZTSN2kc16impl_contextinfoE = comdat any

$_ZTIN2kc16impl_contextinfoE = comdat any

$_ZTSN2kc18impl_foreach_afterE = comdat any

$_ZTIN2kc18impl_foreach_afterE = comdat any

$_ZTSN2kc15impl_Ctext_elemE = comdat any

$_ZTIN2kc15impl_Ctext_elemE = comdat any

$_ZTSN2kc26impl_ac_opt_base_init_listE = comdat any

$_ZTIN2kc26impl_ac_opt_base_init_listE = comdat any

$_ZTSN2kc18impl_fndeclarationE = comdat any

$_ZTIN2kc18impl_fndeclarationE = comdat any

$_ZTSN2kc11impl_fnfileE = comdat any

$_ZTIN2kc11impl_fnfileE = comdat any

$_ZTSN2kc9impl_termE = comdat any

$_ZTIN2kc9impl_termE = comdat any

$_ZTSN2kc12impl_patternE = comdat any

$_ZTIN2kc12impl_patternE = comdat any

$_ZTSN2kc19impl_outmostpatternE = comdat any

$_ZTIN2kc19impl_outmostpatternE = comdat any

$_ZTSN2kc21impl_patternchainitemE = comdat any

$_ZTIN2kc21impl_patternchainitemE = comdat any

$_ZTSN2kc18impl_rwdeclarationE = comdat any

$_ZTIN2kc18impl_rwdeclarationE = comdat any

$_ZTSN2kc23impl_includedeclarationE = comdat any

$_ZTIN2kc23impl_includedeclarationE = comdat any

$_ZTSN2kc16impl_includefileE = comdat any

$_ZTIN2kc16impl_includefileE = comdat any

$_ZTSN2kc18impl_idCexpressionE = comdat any

$_ZTIN2kc18impl_idCexpressionE = comdat any

$_ZTSN2kc23impl_CexpressionSQ_elemE = comdat any

$_ZTIN2kc23impl_CexpressionSQ_elemE = comdat any

$_ZTSN2kc23impl_CexpressionDQ_elemE = comdat any

$_ZTIN2kc23impl_CexpressionDQ_elemE = comdat any

$_ZTSN2kc21impl_Cexpression_elemE = comdat any

$_ZTIN2kc21impl_Cexpression_elemE = comdat any

$_ZTSN2kc36impl_attribute_initialisation_optionE = comdat any

$_ZTIN2kc36impl_attribute_initialisation_optionE = comdat any

$_ZTSN2kc14impl_attributeE = comdat any

$_ZTIN2kc14impl_attributeE = comdat any

$_ZTSN2kc20impl_productionblockE = comdat any

$_ZTIN2kc20impl_productionblockE = comdat any

$_ZTSN2kc17impl_Ccode_optionE = comdat any

$_ZTIN2kc17impl_Ccode_optionE = comdat any

$_ZTSN2kc11impl_STRINGE = comdat any

$_ZTIN2kc11impl_STRINGE = comdat any

$_ZTSN2kc13impl_charrunsE = comdat any

$_ZTIN2kc13impl_charrunsE = comdat any

$_ZTSN2kc10impl_errorE = comdat any

$_ZTIN2kc10impl_errorE = comdat any

$_ZTSN2kc13impl_argumentE = comdat any

$_ZTIN2kc13impl_argumentE = comdat any

$_ZTSN2kc27impl_phylumdeclarationsrootE = comdat any

$_ZTIN2kc27impl_phylumdeclarationsrootE = comdat any

$_ZN9__gnu_cxx21_Hashtable_prime_listImE16__stl_prime_listE = comdat any

@_ZTVN2kc27impl_nocasestring_NoCaseStrE = external unnamed_addr constant { [13 x ptr] }, align 8
@_ZTVN2kc20impl_casestring__StrE = external unnamed_addr constant { [13 x ptr] }, align 8
@_ZTVN10__cxxabiv120__si_class_type_infoE = external global ptr
@_ZTSN2kc11impl_uniqIDE = linkonce_odr dso_local constant [19 x i8] c"N2kc11impl_uniqIDE\00", comdat, align 1
@_ZTIN2kc11impl_uniqIDE = linkonce_odr dso_local constant { ptr, ptr, ptr } { ptr getelementptr inbounds (ptr, ptr @_ZTVN10__cxxabiv120__si_class_type_infoE, i64 2), ptr @_ZTSN2kc11impl_uniqIDE, ptr @_ZTIN2kc20impl_abstract_phylumE }, comdat, align 8
@_ZTSN2kc18impl_bindingidmarkE = linkonce_odr dso_local constant [26 x i8] c"N2kc18impl_bindingidmarkE\00", comdat, align 1
@_ZTIN2kc18impl_bindingidmarkE = linkonce_odr dso_local constant { ptr, ptr, ptr } { ptr getelementptr inbounds (ptr, ptr @_ZTVN10__cxxabiv120__si_class_type_infoE, i64 2), ptr @_ZTSN2kc18impl_bindingidmarkE, ptr @_ZTIN2kc20impl_abstract_phylumE }, comdat, align 8
@_ZTSN2kc19impl_bindingidmarksE = dso_local constant [27 x i8] c"N2kc19impl_bindingidmarksE\00", align 1
@_ZTSN2kc18impl_abstract_listE = linkonce_odr dso_local constant [26 x i8] c"N2kc18impl_abstract_listE\00", comdat, align 1
@_ZTIN2kc18impl_abstract_listE = linkonce_odr dso_local constant { ptr, ptr, ptr } { ptr getelementptr inbounds (ptr, ptr @_ZTVN10__cxxabiv120__si_class_type_infoE, i64 2), ptr @_ZTSN2kc18impl_abstract_listE, ptr @_ZTIN2kc20impl_abstract_phylumE }, comdat, align 8
@_ZTIN2kc19impl_bindingidmarksE = dso_local constant { ptr, ptr, ptr } { ptr getelementptr inbounds (ptr, ptr @_ZTVN10__cxxabiv120__si_class_type_infoE, i64 2), ptr @_ZTSN2kc19impl_bindingidmarksE, ptr @_ZTIN2kc18impl_abstract_listE }, align 8
@_ZTSN2kc29impl_countedphylumdeclarationE = linkonce_odr dso_local constant [37 x i8] c"N2kc29impl_countedphylumdeclarationE\00", comdat, align 1
@_ZTIN2kc29impl_countedphylumdeclarationE = linkonce_odr dso_local constant { ptr, ptr, ptr } { ptr getelementptr inbounds (ptr, ptr @_ZTVN10__cxxabiv120__si_class_type_infoE, i64 2), ptr @_ZTSN2kc29impl_countedphylumdeclarationE, ptr @_ZTIN2kc20impl_abstract_phylumE }, comdat, align 8
@_ZTSN2kc30impl_countedphylumdeclarationsE = dso_local constant [38 x i8] c"N2kc30impl_countedphylumdeclarationsE\00", align 1
@_ZTIN2kc30impl_countedphylumdeclarationsE = dso_local constant { ptr, ptr, ptr } { ptr getelementptr inbounds (ptr, ptr @_ZTVN10__cxxabiv120__si_class_type_infoE, i64 2), ptr @_ZTSN2kc30impl_countedphylumdeclarationsE, ptr @_ZTIN2kc18impl_abstract_listE }, align 8
@_ZTSN2kc27impl_addedphylumdeclarationE = linkonce_odr dso_local constant [35 x i8] c"N2kc27impl_addedphylumdeclarationE\00", comdat, align 1
@_ZTIN2kc27impl_addedphylumdeclarationE = linkonce_odr dso_local constant { ptr, ptr, ptr } { ptr getelementptr inbounds (ptr, ptr @_ZTVN10__cxxabiv120__si_class_type_infoE, i64 2), ptr @_ZTSN2kc27impl_addedphylumdeclarationE, ptr @_ZTIN2kc20impl_abstract_phylumE }, comdat, align 8
@_ZTSN2kc28impl_addedphylumdeclarationsE = dso_local constant [36 x i8] c"N2kc28impl_addedphylumdeclarationsE\00", align 1
@_ZTIN2kc28impl_addedphylumdeclarationsE = dso_local constant { ptr, ptr, ptr } { ptr getelementptr inbounds (ptr, ptr @_ZTVN10__cxxabiv120__si_class_type_infoE, i64 2), ptr @_ZTSN2kc28impl_addedphylumdeclarationsE, ptr @_ZTIN2kc18impl_abstract_listE }, align 8
@_ZTIN2kc20impl_casestring__StrE = external constant ptr
@_ZTIN2kc17impl_integer__IntE = external constant ptr
@_ZTSN2kc18impl_storageoptionE = linkonce_odr dso_local constant [26 x i8] c"N2kc18impl_storageoptionE\00", comdat, align 1
@_ZTIN2kc18impl_storageoptionE = linkonce_odr dso_local constant { ptr, ptr, ptr } { ptr getelementptr inbounds (ptr, ptr @_ZTVN10__cxxabiv120__si_class_type_infoE, i64 2), ptr @_ZTSN2kc18impl_storageoptionE, ptr @_ZTIN2kc20impl_abstract_phylumE }, comdat, align 8
@_ZTSN2kc7impl_IDE = linkonce_odr dso_local constant [14 x i8] c"N2kc7impl_IDE\00", comdat, align 1
@_ZTIN2kc7impl_IDE = linkonce_odr dso_local constant { ptr, ptr, ptr } { ptr getelementptr inbounds (ptr, ptr @_ZTVN10__cxxabiv120__si_class_type_infoE, i64 2), ptr @_ZTSN2kc7impl_IDE, ptr @_ZTIN2kc20impl_abstract_phylumE }, comdat, align 8
@_ZTSN2kc8impl_INTE = linkonce_odr dso_local constant [15 x i8] c"N2kc8impl_INTE\00", comdat, align 1
@_ZTIN2kc8impl_INTE = linkonce_odr dso_local constant { ptr, ptr, ptr } { ptr getelementptr inbounds (ptr, ptr @_ZTVN10__cxxabiv120__si_class_type_infoE, i64 2), ptr @_ZTSN2kc8impl_INTE, ptr @_ZTIN2kc20impl_abstract_phylumE }, comdat, align 8
@_ZTSN2kc11impl_IDtypeE = linkonce_odr dso_local constant [19 x i8] c"N2kc11impl_IDtypeE\00", comdat, align 1
@_ZTIN2kc11impl_IDtypeE = linkonce_odr dso_local constant { ptr, ptr, ptr } { ptr getelementptr inbounds (ptr, ptr @_ZTVN10__cxxabiv120__si_class_type_infoE, i64 2), ptr @_ZTSN2kc11impl_IDtypeE, ptr @_ZTIN2kc20impl_abstract_phylumE }, comdat, align 8
@_ZTSN2kc19impl_withexpressionE = linkonce_odr dso_local constant [27 x i8] c"N2kc19impl_withexpressionE\00", comdat, align 1
@_ZTIN2kc19impl_withexpressionE = linkonce_odr dso_local constant { ptr, ptr, ptr } { ptr getelementptr inbounds (ptr, ptr @_ZTVN10__cxxabiv120__si_class_type_infoE, i64 2), ptr @_ZTSN2kc19impl_withexpressionE, ptr @_ZTIN2kc20impl_abstract_phylumE }, comdat, align 8
@_ZTSN2kc13impl_filelineE = linkonce_odr dso_local constant [21 x i8] c"N2kc13impl_filelineE\00", comdat, align 1
@_ZTIN2kc13impl_filelineE = linkonce_odr dso_local constant { ptr, ptr, ptr } { ptr getelementptr inbounds (ptr, ptr @_ZTVN10__cxxabiv120__si_class_type_infoE, i64 2), ptr @_ZTSN2kc13impl_filelineE, ptr @_ZTIN2kc20impl_abstract_phylumE }, comdat, align 8
@_ZTSN2kc12impl_problemE = linkonce_odr dso_local constant [20 x i8] c"N2kc12impl_problemE\00", comdat, align 1
@_ZTIN2kc12impl_problemE = linkonce_odr dso_local constant { ptr, ptr, ptr } { ptr getelementptr inbounds (ptr, ptr @_ZTVN10__cxxabiv120__si_class_type_infoE, i64 2), ptr @_ZTSN2kc12impl_problemE, ptr @_ZTIN2kc20impl_abstract_phylumE }, comdat, align 8
@_ZTSN2kc19impl_baseclass_listE = dso_local constant [27 x i8] c"N2kc19impl_baseclass_listE\00", align 1
@_ZTIN2kc19impl_baseclass_listE = dso_local constant { ptr, ptr, ptr } { ptr getelementptr inbounds (ptr, ptr @_ZTVN10__cxxabiv120__si_class_type_infoE, i64 2), ptr @_ZTSN2kc19impl_baseclass_listE, ptr @_ZTIN2kc18impl_abstract_listE }, align 8
@_ZTSN2kc19impl_baseclass_declE = linkonce_odr dso_local constant [27 x i8] c"N2kc19impl_baseclass_declE\00", comdat, align 1
@_ZTIN2kc19impl_baseclass_declE = linkonce_odr dso_local constant { ptr, ptr, ptr } { ptr getelementptr inbounds (ptr, ptr @_ZTVN10__cxxabiv120__si_class_type_infoE, i64 2), ptr @_ZTSN2kc19impl_baseclass_declE, ptr @_ZTIN2kc20impl_abstract_phylumE }, comdat, align 8
@_ZTSN2kc27impl_baseclass_declarationsE = dso_local constant [35 x i8] c"N2kc27impl_baseclass_declarationsE\00", align 1
@_ZTIN2kc27impl_baseclass_declarationsE = dso_local constant { ptr, ptr, ptr } { ptr getelementptr inbounds (ptr, ptr @_ZTVN10__cxxabiv120__si_class_type_infoE, i64 2), ptr @_ZTSN2kc27impl_baseclass_declarationsE, ptr @_ZTIN2kc18impl_abstract_listE }, align 8
@_ZTSN2kc27impl_ac_constant_expressionE = linkonce_odr dso_local constant [35 x i8] c"N2kc27impl_ac_constant_expressionE\00", comdat, align 1
@_ZTIN2kc27impl_ac_constant_expressionE = linkonce_odr dso_local constant { ptr, ptr, ptr } { ptr getelementptr inbounds (ptr, ptr @_ZTVN10__cxxabiv120__si_class_type_infoE, i64 2), ptr @_ZTSN2kc27impl_ac_constant_expressionE, ptr @_ZTIN2kc20impl_abstract_phylumE }, comdat, align 8
@_ZTSN2kc17impl_ac_base_initE = linkonce_odr dso_local constant [25 x i8] c"N2kc17impl_ac_base_initE\00", comdat, align 1
@_ZTIN2kc17impl_ac_base_initE = linkonce_odr dso_local constant { ptr, ptr, ptr } { ptr getelementptr inbounds (ptr, ptr @_ZTVN10__cxxabiv120__si_class_type_infoE, i64 2), ptr @_ZTSN2kc17impl_ac_base_initE, ptr @_ZTIN2kc20impl_abstract_phylumE }, comdat, align 8
@_ZTSN2kc22impl_ac_base_init_listE = dso_local constant [30 x i8] c"N2kc22impl_ac_base_init_listE\00", align 1
@_ZTIN2kc22impl_ac_base_init_listE = dso_local constant { ptr, ptr, ptr } { ptr getelementptr inbounds (ptr, ptr @_ZTVN10__cxxabiv120__si_class_type_infoE, i64 2), ptr @_ZTSN2kc22impl_ac_base_init_listE, ptr @_ZTIN2kc18impl_abstract_listE }, align 8
@_ZTSN2kc32impl_ac_constant_expression_listE = dso_local constant [40 x i8] c"N2kc32impl_ac_constant_expression_listE\00", align 1
@_ZTIN2kc32impl_ac_constant_expression_listE = dso_local constant { ptr, ptr, ptr } { ptr getelementptr inbounds (ptr, ptr @_ZTVN10__cxxabiv120__si_class_type_infoE, i64 2), ptr @_ZTSN2kc32impl_ac_constant_expression_listE, ptr @_ZTIN2kc18impl_abstract_listE }, align 8
@_ZTSN2kc16impl_CexpressionE = dso_local constant [24 x i8] c"N2kc16impl_CexpressionE\00", align 1
@_ZTIN2kc16impl_CexpressionE = dso_local constant { ptr, ptr, ptr } { ptr getelementptr inbounds (ptr, ptr @_ZTVN10__cxxabiv120__si_class_type_infoE, i64 2), ptr @_ZTSN2kc16impl_CexpressionE, ptr @_ZTIN2kc18impl_abstract_listE }, align 8
@_ZTSN2kc41impl_ac_direct_abstract_declarator_optionE = linkonce_odr dso_local constant [49 x i8] c"N2kc41impl_ac_direct_abstract_declarator_optionE\00", comdat, align 1
@_ZTIN2kc41impl_ac_direct_abstract_declarator_optionE = linkonce_odr dso_local constant { ptr, ptr, ptr } { ptr getelementptr inbounds (ptr, ptr @_ZTVN10__cxxabiv120__si_class_type_infoE, i64 2), ptr @_ZTSN2kc41impl_ac_direct_abstract_declarator_optionE, ptr @_ZTIN2kc20impl_abstract_phylumE }, comdat, align 8
@_ZTSN2kc27impl_ac_parameter_type_listE = linkonce_odr dso_local constant [35 x i8] c"N2kc27impl_ac_parameter_type_listE\00", comdat, align 1
@_ZTIN2kc27impl_ac_parameter_type_listE = linkonce_odr dso_local constant { ptr, ptr, ptr } { ptr getelementptr inbounds (ptr, ptr @_ZTVN10__cxxabiv120__si_class_type_infoE, i64 2), ptr @_ZTSN2kc27impl_ac_parameter_type_listE, ptr @_ZTIN2kc20impl_abstract_phylumE }, comdat, align 8
@_ZTSN2kc34impl_ac_constant_expression_optionE = linkonce_odr dso_local constant [42 x i8] c"N2kc34impl_ac_constant_expression_optionE\00", comdat, align 1
@_ZTIN2kc34impl_ac_constant_expression_optionE = linkonce_odr dso_local constant { ptr, ptr, ptr } { ptr getelementptr inbounds (ptr, ptr @_ZTVN10__cxxabiv120__si_class_type_infoE, i64 2), ptr @_ZTSN2kc34impl_ac_constant_expression_optionE, ptr @_ZTIN2kc20impl_abstract_phylumE }, comdat, align 8
@_ZTSN2kc27impl_ac_abstract_declaratorE = linkonce_odr dso_local constant [35 x i8] c"N2kc27impl_ac_abstract_declaratorE\00", comdat, align 1
@_ZTIN2kc27impl_ac_abstract_declaratorE = linkonce_odr dso_local constant { ptr, ptr, ptr } { ptr getelementptr inbounds (ptr, ptr @_ZTVN10__cxxabiv120__si_class_type_infoE, i64 2), ptr @_ZTSN2kc27impl_ac_abstract_declaratorE, ptr @_ZTIN2kc20impl_abstract_phylumE }, comdat, align 8
@_ZTSN2kc34impl_ac_direct_abstract_declaratorE = linkonce_odr dso_local constant [42 x i8] c"N2kc34impl_ac_direct_abstract_declaratorE\00", comdat, align 1
@_ZTIN2kc34impl_ac_direct_abstract_declaratorE = linkonce_odr dso_local constant { ptr, ptr, ptr } { ptr getelementptr inbounds (ptr, ptr @_ZTVN10__cxxabiv120__si_class_type_infoE, i64 2), ptr @_ZTSN2kc34impl_ac_direct_abstract_declaratorE, ptr @_ZTIN2kc20impl_abstract_phylumE }, comdat, align 8
@_ZTSN2kc22impl_ac_pointer_optionE = linkonce_odr dso_local constant [30 x i8] c"N2kc22impl_ac_pointer_optionE\00", comdat, align 1
@_ZTIN2kc22impl_ac_pointer_optionE = linkonce_odr dso_local constant { ptr, ptr, ptr } { ptr getelementptr inbounds (ptr, ptr @_ZTVN10__cxxabiv120__si_class_type_infoE, i64 2), ptr @_ZTSN2kc22impl_ac_pointer_optionE, ptr @_ZTIN2kc20impl_abstract_phylumE }, comdat, align 8
@_ZTSN2kc15impl_ac_pointerE = linkonce_odr dso_local constant [23 x i8] c"N2kc15impl_ac_pointerE\00", comdat, align 1
@_ZTIN2kc15impl_ac_pointerE = linkonce_odr dso_local constant { ptr, ptr, ptr } { ptr getelementptr inbounds (ptr, ptr @_ZTVN10__cxxabiv120__si_class_type_infoE, i64 2), ptr @_ZTSN2kc15impl_ac_pointerE, ptr @_ZTIN2kc20impl_abstract_phylumE }, comdat, align 8
@_ZTSN2kc23impl_ac_identifier_listE = dso_local constant [31 x i8] c"N2kc23impl_ac_identifier_listE\00", align 1
@_ZTIN2kc23impl_ac_identifier_listE = dso_local constant { ptr, ptr, ptr } { ptr getelementptr inbounds (ptr, ptr @_ZTVN10__cxxabiv120__si_class_type_infoE, i64 2), ptr @_ZTSN2kc23impl_ac_identifier_listE, ptr @_ZTIN2kc18impl_abstract_listE }, align 8
@_ZTSN2kc30impl_ac_declaration_specifiersE = dso_local constant [38 x i8] c"N2kc30impl_ac_declaration_specifiersE\00", align 1
@_ZTIN2kc30impl_ac_declaration_specifiersE = dso_local constant { ptr, ptr, ptr } { ptr getelementptr inbounds (ptr, ptr @_ZTVN10__cxxabiv120__si_class_type_infoE, i64 2), ptr @_ZTSN2kc30impl_ac_declaration_specifiersE, ptr @_ZTIN2kc18impl_abstract_listE }, align 8
@_ZTSN2kc18impl_ac_declaratorE = linkonce_odr dso_local constant [26 x i8] c"N2kc18impl_ac_declaratorE\00", comdat, align 1
@_ZTIN2kc18impl_ac_declaratorE = linkonce_odr dso_local constant { ptr, ptr, ptr } { ptr getelementptr inbounds (ptr, ptr @_ZTVN10__cxxabiv120__si_class_type_infoE, i64 2), ptr @_ZTSN2kc18impl_ac_declaratorE, ptr @_ZTIN2kc20impl_abstract_phylumE }, comdat, align 8
@_ZTSN2kc29impl_ac_parameter_declarationE = linkonce_odr dso_local constant [37 x i8] c"N2kc29impl_ac_parameter_declarationE\00", comdat, align 1
@_ZTIN2kc29impl_ac_parameter_declarationE = linkonce_odr dso_local constant { ptr, ptr, ptr } { ptr getelementptr inbounds (ptr, ptr @_ZTVN10__cxxabiv120__si_class_type_infoE, i64 2), ptr @_ZTSN2kc29impl_ac_parameter_declarationE, ptr @_ZTIN2kc20impl_abstract_phylumE }, comdat, align 8
@_ZTSN2kc22impl_ac_parameter_listE = dso_local constant [30 x i8] c"N2kc22impl_ac_parameter_listE\00", align 1
@_ZTIN2kc22impl_ac_parameter_listE = dso_local constant { ptr, ptr, ptr } { ptr getelementptr inbounds (ptr, ptr @_ZTVN10__cxxabiv120__si_class_type_infoE, i64 2), ptr @_ZTSN2kc22impl_ac_parameter_listE, ptr @_ZTIN2kc18impl_abstract_listE }, align 8
@_ZTSN2kc22impl_ac_type_qualifierE = linkonce_odr dso_local constant [30 x i8] c"N2kc22impl_ac_type_qualifierE\00", comdat, align 1
@_ZTIN2kc22impl_ac_type_qualifierE = linkonce_odr dso_local constant { ptr, ptr, ptr } { ptr getelementptr inbounds (ptr, ptr @_ZTVN10__cxxabiv120__si_class_type_infoE, i64 2), ptr @_ZTSN2kc22impl_ac_type_qualifierE, ptr @_ZTIN2kc20impl_abstract_phylumE }, comdat, align 8
@_ZTSN2kc27impl_ac_type_qualifier_listE = dso_local constant [35 x i8] c"N2kc27impl_ac_type_qualifier_listE\00", align 1
@_ZTIN2kc27impl_ac_type_qualifier_listE = dso_local constant { ptr, ptr, ptr } { ptr getelementptr inbounds (ptr, ptr @_ZTVN10__cxxabiv120__si_class_type_infoE, i64 2), ptr @_ZTSN2kc27impl_ac_type_qualifier_listE, ptr @_ZTIN2kc18impl_abstract_listE }, align 8
@_ZTSN2kc28impl_ac_class_qualifier_listE = dso_local constant [36 x i8] c"N2kc28impl_ac_class_qualifier_listE\00", align 1
@_ZTIN2kc28impl_ac_class_qualifier_listE = dso_local constant { ptr, ptr, ptr } { ptr getelementptr inbounds (ptr, ptr @_ZTVN10__cxxabiv120__si_class_type_infoE, i64 2), ptr @_ZTSN2kc28impl_ac_class_qualifier_listE, ptr @_ZTIN2kc18impl_abstract_listE }, align 8
@_ZTSN2kc25impl_ac_direct_declaratorE = linkonce_odr dso_local constant [33 x i8] c"N2kc25impl_ac_direct_declaratorE\00", comdat, align 1
@_ZTIN2kc25impl_ac_direct_declaratorE = linkonce_odr dso_local constant { ptr, ptr, ptr } { ptr getelementptr inbounds (ptr, ptr @_ZTVN10__cxxabiv120__si_class_type_infoE, i64 2), ptr @_ZTSN2kc25impl_ac_direct_declaratorE, ptr @_ZTIN2kc20impl_abstract_phylumE }, comdat, align 8
@_ZTSN2kc33impl_ac_class_qualifier_help_listE = dso_local constant [41 x i8] c"N2kc33impl_ac_class_qualifier_help_listE\00", align 1
@_ZTIN2kc33impl_ac_class_qualifier_help_listE = dso_local constant { ptr, ptr, ptr } { ptr getelementptr inbounds (ptr, ptr @_ZTVN10__cxxabiv120__si_class_type_infoE, i64 2), ptr @_ZTSN2kc33impl_ac_class_qualifier_help_listE, ptr @_ZTIN2kc18impl_abstract_listE }, align 8
@_ZTSN2kc21impl_ac_operator_nameE = linkonce_odr dso_local constant [29 x i8] c"N2kc21impl_ac_operator_nameE\00", comdat, align 1
@_ZTIN2kc21impl_ac_operator_nameE = linkonce_odr dso_local constant { ptr, ptr, ptr } { ptr getelementptr inbounds (ptr, ptr @_ZTVN10__cxxabiv120__si_class_type_infoE, i64 2), ptr @_ZTSN2kc21impl_ac_operator_nameE, ptr @_ZTIN2kc20impl_abstract_phylumE }, comdat, align 8
@_ZTSN2kc18impl_ac_ref_optionE = linkonce_odr dso_local constant [26 x i8] c"N2kc18impl_ac_ref_optionE\00", comdat, align 1
@_ZTIN2kc18impl_ac_ref_optionE = linkonce_odr dso_local constant { ptr, ptr, ptr } { ptr getelementptr inbounds (ptr, ptr @_ZTVN10__cxxabiv120__si_class_type_infoE, i64 2), ptr @_ZTSN2kc18impl_ac_ref_optionE, ptr @_ZTIN2kc20impl_abstract_phylumE }, comdat, align 8
@_ZTSN2kc23impl_ac_init_declaratorE = linkonce_odr dso_local constant [31 x i8] c"N2kc23impl_ac_init_declaratorE\00", comdat, align 1
@_ZTIN2kc23impl_ac_init_declaratorE = linkonce_odr dso_local constant { ptr, ptr, ptr } { ptr getelementptr inbounds (ptr, ptr @_ZTVN10__cxxabiv120__si_class_type_infoE, i64 2), ptr @_ZTSN2kc23impl_ac_init_declaratorE, ptr @_ZTIN2kc20impl_abstract_phylumE }, comdat, align 8
@_ZTSN2kc28impl_ac_init_declarator_listE = dso_local constant [36 x i8] c"N2kc28impl_ac_init_declarator_listE\00", align 1
@_ZTIN2kc28impl_ac_init_declarator_listE = dso_local constant { ptr, ptr, ptr } { ptr getelementptr inbounds (ptr, ptr @_ZTVN10__cxxabiv120__si_class_type_infoE, i64 2), ptr @_ZTSN2kc28impl_ac_init_declarator_listE, ptr @_ZTIN2kc18impl_abstract_listE }, align 8
@_ZTSN2kc22impl_ac_type_specifierE = linkonce_odr dso_local constant [30 x i8] c"N2kc22impl_ac_type_specifierE\00", comdat, align 1
@_ZTIN2kc22impl_ac_type_specifierE = linkonce_odr dso_local constant { ptr, ptr, ptr } { ptr getelementptr inbounds (ptr, ptr @_ZTVN10__cxxabiv120__si_class_type_infoE, i64 2), ptr @_ZTSN2kc22impl_ac_type_specifierE, ptr @_ZTIN2kc20impl_abstract_phylumE }, comdat, align 8
@_ZTSN2kc31impl_ac_storage_class_specifierE = linkonce_odr dso_local constant [39 x i8] c"N2kc31impl_ac_storage_class_specifierE\00", comdat, align 1
@_ZTIN2kc31impl_ac_storage_class_specifierE = linkonce_odr dso_local constant { ptr, ptr, ptr } { ptr getelementptr inbounds (ptr, ptr @_ZTVN10__cxxabiv120__si_class_type_infoE, i64 2), ptr @_ZTSN2kc31impl_ac_storage_class_specifierE, ptr @_ZTIN2kc20impl_abstract_phylumE }, comdat, align 8
@_ZTSN2kc29impl_ac_declaration_specifierE = linkonce_odr dso_local constant [37 x i8] c"N2kc29impl_ac_declaration_specifierE\00", comdat, align 1
@_ZTIN2kc29impl_ac_declaration_specifierE = linkonce_odr dso_local constant { ptr, ptr, ptr } { ptr getelementptr inbounds (ptr, ptr @_ZTVN10__cxxabiv120__si_class_type_infoE, i64 2), ptr @_ZTSN2kc29impl_ac_declaration_specifierE, ptr @_ZTIN2kc20impl_abstract_phylumE }, comdat, align 8
@_ZTSN2kc19impl_ac_declarationE = linkonce_odr dso_local constant [27 x i8] c"N2kc19impl_ac_declarationE\00", comdat, align 1
@_ZTIN2kc19impl_ac_declarationE = linkonce_odr dso_local constant { ptr, ptr, ptr } { ptr getelementptr inbounds (ptr, ptr @_ZTVN10__cxxabiv120__si_class_type_infoE, i64 2), ptr @_ZTSN2kc19impl_ac_declarationE, ptr @_ZTIN2kc20impl_abstract_phylumE }, comdat, align 8
@_ZTSN2kc24impl_ac_declaration_listE = dso_local constant [32 x i8] c"N2kc24impl_ac_declaration_listE\00", align 1
@_ZTIN2kc24impl_ac_declaration_listE = dso_local constant { ptr, ptr, ptr } { ptr getelementptr inbounds (ptr, ptr @_ZTVN10__cxxabiv120__si_class_type_infoE, i64 2), ptr @_ZTSN2kc24impl_ac_declaration_listE, ptr @_ZTIN2kc18impl_abstract_listE }, align 8
@_ZTSN2kc26impl_patternrepresentationE = dso_local constant [34 x i8] c"N2kc26impl_patternrepresentationE\00", align 1
@_ZTIN2kc26impl_patternrepresentationE = dso_local constant { ptr, ptr, ptr } { ptr getelementptr inbounds (ptr, ptr @_ZTVN10__cxxabiv120__si_class_type_infoE, i64 2), ptr @_ZTSN2kc26impl_patternrepresentationE, ptr @_ZTIN2kc18impl_abstract_listE }, align 8
@_ZTSN2kc18impl_unparseclauseE = linkonce_odr dso_local constant [26 x i8] c"N2kc18impl_unparseclauseE\00", comdat, align 1
@_ZTIN2kc18impl_unparseclauseE = linkonce_odr dso_local constant { ptr, ptr, ptr } { ptr getelementptr inbounds (ptr, ptr @_ZTVN10__cxxabiv120__si_class_type_infoE, i64 2), ptr @_ZTSN2kc18impl_unparseclauseE, ptr @_ZTIN2kc20impl_abstract_phylumE }, comdat, align 8
@_ZTSN2kc20impl_unparsedeclinfoE = linkonce_odr dso_local constant [28 x i8] c"N2kc20impl_unparsedeclinfoE\00", comdat, align 1
@_ZTIN2kc20impl_unparsedeclinfoE = linkonce_odr dso_local constant { ptr, ptr, ptr } { ptr getelementptr inbounds (ptr, ptr @_ZTVN10__cxxabiv120__si_class_type_infoE, i64 2), ptr @_ZTSN2kc20impl_unparsedeclinfoE, ptr @_ZTIN2kc20impl_abstract_phylumE }, comdat, align 8
@_ZTSN2kc21impl_unparsedeclsinfoE = dso_local constant [29 x i8] c"N2kc21impl_unparsedeclsinfoE\00", align 1
@_ZTIN2kc21impl_unparsedeclsinfoE = dso_local constant { ptr, ptr, ptr } { ptr getelementptr inbounds (ptr, ptr @_ZTVN10__cxxabiv120__si_class_type_infoE, i64 2), ptr @_ZTSN2kc21impl_unparsedeclsinfoE, ptr @_ZTIN2kc18impl_abstract_listE }, align 8
@_ZTSN2kc20impl_unparseviewinfoE = linkonce_odr dso_local constant [28 x i8] c"N2kc20impl_unparseviewinfoE\00", comdat, align 1
@_ZTIN2kc20impl_unparseviewinfoE = linkonce_odr dso_local constant { ptr, ptr, ptr } { ptr getelementptr inbounds (ptr, ptr @_ZTVN10__cxxabiv120__si_class_type_infoE, i64 2), ptr @_ZTSN2kc20impl_unparseviewinfoE, ptr @_ZTIN2kc20impl_abstract_phylumE }, comdat, align 8
@_ZTSN2kc21impl_unparseviewsinfoE = dso_local constant [29 x i8] c"N2kc21impl_unparseviewsinfoE\00", align 1
@_ZTIN2kc21impl_unparseviewsinfoE = dso_local constant { ptr, ptr, ptr } { ptr getelementptr inbounds (ptr, ptr @_ZTVN10__cxxabiv120__si_class_type_infoE, i64 2), ptr @_ZTSN2kc21impl_unparseviewsinfoE, ptr @_ZTIN2kc18impl_abstract_listE }, align 8
@_ZTSN2kc21impl_rewriterulesinfoE = dso_local constant [29 x i8] c"N2kc21impl_rewriterulesinfoE\00", align 1
@_ZTIN2kc21impl_rewriterulesinfoE = dso_local constant { ptr, ptr, ptr } { ptr getelementptr inbounds (ptr, ptr @_ZTVN10__cxxabiv120__si_class_type_infoE, i64 2), ptr @_ZTSN2kc21impl_rewriterulesinfoE, ptr @_ZTIN2kc18impl_abstract_listE }, align 8
@_ZTSN2kc20impl_rewriteviewinfoE = linkonce_odr dso_local constant [28 x i8] c"N2kc20impl_rewriteviewinfoE\00", comdat, align 1
@_ZTIN2kc20impl_rewriteviewinfoE = linkonce_odr dso_local constant { ptr, ptr, ptr } { ptr getelementptr inbounds (ptr, ptr @_ZTVN10__cxxabiv120__si_class_type_infoE, i64 2), ptr @_ZTSN2kc20impl_rewriteviewinfoE, ptr @_ZTIN2kc20impl_abstract_phylumE }, comdat, align 8
@_ZTSN2kc21impl_rewriteviewsinfoE = dso_local constant [29 x i8] c"N2kc21impl_rewriteviewsinfoE\00", align 1
@_ZTIN2kc21impl_rewriteviewsinfoE = dso_local constant { ptr, ptr, ptr } { ptr getelementptr inbounds (ptr, ptr @_ZTVN10__cxxabiv120__si_class_type_infoE, i64 2), ptr @_ZTSN2kc21impl_rewriteviewsinfoE, ptr @_ZTIN2kc18impl_abstract_listE }, align 8
@_ZTSN2kc10impl_CtextE = dso_local constant [18 x i8] c"N2kc10impl_CtextE\00", align 1
@_ZTIN2kc10impl_CtextE = dso_local constant { ptr, ptr, ptr } { ptr getelementptr inbounds (ptr, ptr @_ZTVN10__cxxabiv120__si_class_type_infoE, i64 2), ptr @_ZTSN2kc10impl_CtextE, ptr @_ZTIN2kc18impl_abstract_listE }, align 8
@_ZTSN2kc17impl_withcaseinfoE = linkonce_odr dso_local constant [25 x i8] c"N2kc17impl_withcaseinfoE\00", comdat, align 1
@_ZTIN2kc17impl_withcaseinfoE = linkonce_odr dso_local constant { ptr, ptr, ptr } { ptr getelementptr inbounds (ptr, ptr @_ZTVN10__cxxabiv120__si_class_type_infoE, i64 2), ptr @_ZTSN2kc17impl_withcaseinfoE, ptr @_ZTIN2kc20impl_abstract_phylumE }, comdat, align 8
@_ZTSN2kc18impl_withcasesinfoE = dso_local constant [26 x i8] c"N2kc18impl_withcasesinfoE\00", align 1
@_ZTIN2kc18impl_withcasesinfoE = dso_local constant { ptr, ptr, ptr } { ptr getelementptr inbounds (ptr, ptr @_ZTVN10__cxxabiv120__si_class_type_infoE, i64 2), ptr @_ZTSN2kc18impl_withcasesinfoE, ptr @_ZTIN2kc18impl_abstract_listE }, align 8
@_ZTSN2kc18impl_rewriteclauseE = linkonce_odr dso_local constant [26 x i8] c"N2kc18impl_rewriteclauseE\00", comdat, align 1
@_ZTIN2kc18impl_rewriteclauseE = linkonce_odr dso_local constant { ptr, ptr, ptr } { ptr getelementptr inbounds (ptr, ptr @_ZTVN10__cxxabiv120__si_class_type_infoE, i64 2), ptr @_ZTSN2kc18impl_rewriteclauseE, ptr @_ZTIN2kc20impl_abstract_phylumE }, comdat, align 8
@_ZTSN2kc20impl_rewriteruleinfoE = linkonce_odr dso_local constant [28 x i8] c"N2kc20impl_rewriteruleinfoE\00", comdat, align 1
@_ZTIN2kc20impl_rewriteruleinfoE = linkonce_odr dso_local constant { ptr, ptr, ptr } { ptr getelementptr inbounds (ptr, ptr @_ZTVN10__cxxabiv120__si_class_type_infoE, i64 2), ptr @_ZTSN2kc20impl_rewriteruleinfoE, ptr @_ZTIN2kc20impl_abstract_phylumE }, comdat, align 8
@_ZTSN2kc16impl_argsnumbersE = dso_local constant [24 x i8] c"N2kc16impl_argsnumbersE\00", align 1
@_ZTIN2kc16impl_argsnumbersE = dso_local constant { ptr, ptr, ptr } { ptr getelementptr inbounds (ptr, ptr @_ZTVN10__cxxabiv120__si_class_type_infoE, i64 2), ptr @_ZTSN2kc16impl_argsnumbersE, ptr @_ZTIN2kc18impl_abstract_listE }, align 8
@_ZTSN2kc9impl_pathE = dso_local constant [16 x i8] c"N2kc9impl_pathE\00", align 1
@_ZTIN2kc9impl_pathE = dso_local constant { ptr, ptr, ptr } { ptr getelementptr inbounds (ptr, ptr @_ZTVN10__cxxabiv120__si_class_type_infoE, i64 2), ptr @_ZTSN2kc9impl_pathE, ptr @_ZTIN2kc18impl_abstract_listE }, align 8
@_ZTSN2kc10impl_pathsE = dso_local constant [18 x i8] c"N2kc10impl_pathsE\00", align 1
@_ZTIN2kc10impl_pathsE = dso_local constant { ptr, ptr, ptr } { ptr getelementptr inbounds (ptr, ptr @_ZTVN10__cxxabiv120__si_class_type_infoE, i64 2), ptr @_ZTSN2kc10impl_pathsE, ptr @_ZTIN2kc18impl_abstract_listE }, align 8
@_ZTSN2kc18impl_CexpressionDQE = dso_local constant [26 x i8] c"N2kc18impl_CexpressionDQE\00", align 1
@_ZTIN2kc18impl_CexpressionDQE = dso_local constant { ptr, ptr, ptr } { ptr getelementptr inbounds (ptr, ptr @_ZTVN10__cxxabiv120__si_class_type_infoE, i64 2), ptr @_ZTSN2kc18impl_CexpressionDQE, ptr @_ZTIN2kc18impl_abstract_listE }, align 8
@_ZTSN2kc31impl_elem_patternrepresentationE = linkonce_odr dso_local constant [39 x i8] c"N2kc31impl_elem_patternrepresentationE\00", comdat, align 1
@_ZTIN2kc31impl_elem_patternrepresentationE = linkonce_odr dso_local constant { ptr, ptr, ptr } { ptr getelementptr inbounds (ptr, ptr @_ZTVN10__cxxabiv120__si_class_type_infoE, i64 2), ptr @_ZTSN2kc31impl_elem_patternrepresentationE, ptr @_ZTIN2kc20impl_abstract_phylumE }, comdat, align 8
@_ZTSN2kc27impl_patternrepresentationsE = dso_local constant [35 x i8] c"N2kc27impl_patternrepresentationsE\00", align 1
@_ZTIN2kc27impl_patternrepresentationsE = dso_local constant { ptr, ptr, ptr } { ptr getelementptr inbounds (ptr, ptr @_ZTVN10__cxxabiv120__si_class_type_infoE, i64 2), ptr @_ZTSN2kc27impl_patternrepresentationsE, ptr @_ZTIN2kc18impl_abstract_listE }, align 8
@_ZTSN2kc14impl_variablesE = dso_local constant [22 x i8] c"N2kc14impl_variablesE\00", align 1
@_ZTIN2kc14impl_variablesE = dso_local constant { ptr, ptr, ptr } { ptr getelementptr inbounds (ptr, ptr @_ZTVN10__cxxabiv120__si_class_type_infoE, i64 2), ptr @_ZTSN2kc14impl_variablesE, ptr @_ZTIN2kc18impl_abstract_listE }, align 8
@_ZTSN2kc10impl_phylaE = dso_local constant [18 x i8] c"N2kc10impl_phylaE\00", align 1
@_ZTIN2kc10impl_phylaE = dso_local constant { ptr, ptr, ptr } { ptr getelementptr inbounds (ptr, ptr @_ZTVN10__cxxabiv120__si_class_type_infoE, i64 2), ptr @_ZTSN2kc10impl_phylaE, ptr @_ZTIN2kc18impl_abstract_listE }, align 8
@_ZTSN2kc14impl_operatorsE = dso_local constant [22 x i8] c"N2kc14impl_operatorsE\00", align 1
@_ZTIN2kc14impl_operatorsE = dso_local constant { ptr, ptr, ptr } { ptr getelementptr inbounds (ptr, ptr @_ZTVN10__cxxabiv120__si_class_type_infoE, i64 2), ptr @_ZTSN2kc14impl_operatorsE, ptr @_ZTIN2kc18impl_abstract_listE }, align 8
@_ZTSN2kc12impl_fnclassE = linkonce_odr dso_local constant [20 x i8] c"N2kc12impl_fnclassE\00", comdat, align 1
@_ZTIN2kc12impl_fnclassE = linkonce_odr dso_local constant { ptr, ptr, ptr } { ptr getelementptr inbounds (ptr, ptr @_ZTVN10__cxxabiv120__si_class_type_infoE, i64 2), ptr @_ZTSN2kc12impl_fnclassE, ptr @_ZTIN2kc20impl_abstract_phylumE }, comdat, align 8
@_ZTSN2kc16impl_alternativeE = linkonce_odr dso_local constant [24 x i8] c"N2kc16impl_alternativeE\00", comdat, align 1
@_ZTIN2kc16impl_alternativeE = linkonce_odr dso_local constant { ptr, ptr, ptr } { ptr getelementptr inbounds (ptr, ptr @_ZTVN10__cxxabiv120__si_class_type_infoE, i64 2), ptr @_ZTSN2kc16impl_alternativeE, ptr @_ZTIN2kc20impl_abstract_phylumE }, comdat, align 8
@_ZTSN2kc22impl_phylumdeclarationE = linkonce_odr dso_local constant [30 x i8] c"N2kc22impl_phylumdeclarationE\00", comdat, align 1
@_ZTIN2kc22impl_phylumdeclarationE = linkonce_odr dso_local constant { ptr, ptr, ptr } { ptr getelementptr inbounds (ptr, ptr @_ZTVN10__cxxabiv120__si_class_type_infoE, i64 2), ptr @_ZTSN2kc22impl_phylumdeclarationE, ptr @_ZTIN2kc20impl_abstract_phylumE }, comdat, align 8
@_ZTSN2kc22impl_scopetypefilelineE = linkonce_odr dso_local constant [30 x i8] c"N2kc22impl_scopetypefilelineE\00", comdat, align 1
@_ZTIN2kc22impl_scopetypefilelineE = linkonce_odr dso_local constant { ptr, ptr, ptr } { ptr getelementptr inbounds (ptr, ptr @_ZTVN10__cxxabiv120__si_class_type_infoE, i64 2), ptr @_ZTSN2kc22impl_scopetypefilelineE, ptr @_ZTIN2kc20impl_abstract_phylumE }, comdat, align 8
@_ZTSN2kc27impl_scopetypefilelinestackE = dso_local constant [35 x i8] c"N2kc27impl_scopetypefilelinestackE\00", align 1
@_ZTIN2kc27impl_scopetypefilelinestackE = dso_local constant { ptr, ptr, ptr } { ptr getelementptr inbounds (ptr, ptr @_ZTVN10__cxxabiv120__si_class_type_infoE, i64 2), ptr @_ZTSN2kc27impl_scopetypefilelinestackE, ptr @_ZTIN2kc18impl_abstract_listE }, align 8
@_ZTSN2kc18impl_languagenamesE = dso_local constant [26 x i8] c"N2kc18impl_languagenamesE\00", align 1
@_ZTIN2kc18impl_languagenamesE = dso_local constant { ptr, ptr, ptr } { ptr getelementptr inbounds (ptr, ptr @_ZTVN10__cxxabiv120__si_class_type_infoE, i64 2), ptr @_ZTSN2kc18impl_languagenamesE, ptr @_ZTIN2kc18impl_abstract_listE }, align 8
@_ZTSN2kc18impl_unpattributesE = dso_local constant [26 x i8] c"N2kc18impl_unpattributesE\00", align 1
@_ZTIN2kc18impl_unpattributesE = dso_local constant { ptr, ptr, ptr } { ptr getelementptr inbounds (ptr, ptr @_ZTVN10__cxxabiv120__si_class_type_infoE, i64 2), ptr @_ZTSN2kc18impl_unpattributesE, ptr @_ZTIN2kc18impl_abstract_listE }, align 8
@_ZTSN2kc19impl_languageoptionE = linkonce_odr dso_local constant [27 x i8] c"N2kc19impl_languageoptionE\00", comdat, align 1
@_ZTIN2kc19impl_languageoptionE = linkonce_odr dso_local constant { ptr, ptr, ptr } { ptr getelementptr inbounds (ptr, ptr @_ZTVN10__cxxabiv120__si_class_type_infoE, i64 2), ptr @_ZTSN2kc19impl_languageoptionE, ptr @_ZTIN2kc20impl_abstract_phylumE }, comdat, align 8
@_ZTSN2kc17impl_unparseitemsE = dso_local constant [25 x i8] c"N2kc17impl_unparseitemsE\00", align 1
@_ZTIN2kc17impl_unparseitemsE = dso_local constant { ptr, ptr, ptr } { ptr getelementptr inbounds (ptr, ptr @_ZTVN10__cxxabiv120__si_class_type_infoE, i64 2), ptr @_ZTSN2kc17impl_unparseitemsE, ptr @_ZTIN2kc18impl_abstract_listE }, align 8
@_ZTSN2kc15impl_unpsubtermE = linkonce_odr dso_local constant [23 x i8] c"N2kc15impl_unpsubtermE\00", comdat, align 1
@_ZTIN2kc15impl_unpsubtermE = linkonce_odr dso_local constant { ptr, ptr, ptr } { ptr getelementptr inbounds (ptr, ptr @_ZTVN10__cxxabiv120__si_class_type_infoE, i64 2), ptr @_ZTSN2kc15impl_unpsubtermE, ptr @_ZTIN2kc20impl_abstract_phylumE }, comdat, align 8
@_ZTSN2kc19impl_viewnameoptionE = linkonce_odr dso_local constant [27 x i8] c"N2kc19impl_viewnameoptionE\00", comdat, align 1
@_ZTIN2kc19impl_viewnameoptionE = linkonce_odr dso_local constant { ptr, ptr, ptr } { ptr getelementptr inbounds (ptr, ptr @_ZTVN10__cxxabiv120__si_class_type_infoE, i64 2), ptr @_ZTSN2kc19impl_viewnameoptionE, ptr @_ZTIN2kc20impl_abstract_phylumE }, comdat, align 8
@_ZTSN2kc16impl_unparseitemE = linkonce_odr dso_local constant [24 x i8] c"N2kc16impl_unparseitemE\00", comdat, align 1
@_ZTIN2kc16impl_unparseitemE = linkonce_odr dso_local constant { ptr, ptr, ptr } { ptr getelementptr inbounds (ptr, ptr @_ZTVN10__cxxabiv120__si_class_type_infoE, i64 2), ptr @_ZTSN2kc16impl_unparseitemE, ptr @_ZTIN2kc20impl_abstract_phylumE }, comdat, align 8
@_ZTSN2kc14impl_viewnamesE = dso_local constant [22 x i8] c"N2kc14impl_viewnamesE\00", align 1
@_ZTIN2kc14impl_viewnamesE = dso_local constant { ptr, ptr, ptr } { ptr getelementptr inbounds (ptr, ptr @_ZTVN10__cxxabiv120__si_class_type_infoE, i64 2), ptr @_ZTSN2kc14impl_viewnamesE, ptr @_ZTIN2kc18impl_abstract_listE }, align 8
@_ZTSN2kc19impl_unparseclausesE = dso_local constant [27 x i8] c"N2kc19impl_unparseclausesE\00", align 1
@_ZTIN2kc19impl_unparseclausesE = dso_local constant { ptr, ptr, ptr } { ptr getelementptr inbounds (ptr, ptr @_ZTVN10__cxxabiv120__si_class_type_infoE, i64 2), ptr @_ZTSN2kc19impl_unparseclausesE, ptr @_ZTIN2kc18impl_abstract_listE }, align 8
@_ZTSN2kc20impl_outmostpatternsE = dso_local constant [28 x i8] c"N2kc20impl_outmostpatternsE\00", align 1
@_ZTIN2kc20impl_outmostpatternsE = dso_local constant { ptr, ptr, ptr } { ptr getelementptr inbounds (ptr, ptr @_ZTVN10__cxxabiv120__si_class_type_infoE, i64 2), ptr @_ZTSN2kc20impl_outmostpatternsE, ptr @_ZTIN2kc18impl_abstract_listE }, align 8
@_ZTSN2kc23impl_unparsedeclarationE = linkonce_odr dso_local constant [31 x i8] c"N2kc23impl_unparsedeclarationE\00", comdat, align 1
@_ZTIN2kc23impl_unparsedeclarationE = linkonce_odr dso_local constant { ptr, ptr, ptr } { ptr getelementptr inbounds (ptr, ptr @_ZTVN10__cxxabiv120__si_class_type_infoE, i64 2), ptr @_ZTSN2kc23impl_unparsedeclarationE, ptr @_ZTIN2kc20impl_abstract_phylumE }, comdat, align 8
@_ZTSN2kc24impl_unparsedeclarationsE = dso_local constant [32 x i8] c"N2kc24impl_unparsedeclarationsE\00", align 1
@_ZTIN2kc24impl_unparsedeclarationsE = dso_local constant { ptr, ptr, ptr } { ptr getelementptr inbounds (ptr, ptr @_ZTVN10__cxxabiv120__si_class_type_infoE, i64 2), ptr @_ZTSN2kc24impl_unparsedeclarationsE, ptr @_ZTIN2kc18impl_abstract_listE }, align 8
@_ZTSN2kc18impl_patternchainsE = dso_local constant [26 x i8] c"N2kc18impl_patternchainsE\00", align 1
@_ZTIN2kc18impl_patternchainsE = dso_local constant { ptr, ptr, ptr } { ptr getelementptr inbounds (ptr, ptr @_ZTVN10__cxxabiv120__si_class_type_infoE, i64 2), ptr @_ZTSN2kc18impl_patternchainsE, ptr @_ZTIN2kc18impl_abstract_listE }, align 8
@_ZTSN2kc13impl_withcaseE = linkonce_odr dso_local constant [21 x i8] c"N2kc13impl_withcaseE\00", comdat, align 1
@_ZTIN2kc13impl_withcaseE = linkonce_odr dso_local constant { ptr, ptr, ptr } { ptr getelementptr inbounds (ptr, ptr @_ZTVN10__cxxabiv120__si_class_type_infoE, i64 2), ptr @_ZTSN2kc13impl_withcaseE, ptr @_ZTIN2kc20impl_abstract_phylumE }, comdat, align 8
@_ZTSN2kc14impl_withcasesE = dso_local constant [22 x i8] c"N2kc14impl_withcasesE\00", align 1
@_ZTIN2kc14impl_withcasesE = dso_local constant { ptr, ptr, ptr } { ptr getelementptr inbounds (ptr, ptr @_ZTVN10__cxxabiv120__si_class_type_infoE, i64 2), ptr @_ZTSN2kc14impl_withcasesE, ptr @_ZTIN2kc18impl_abstract_listE }, align 8
@_ZTSN2kc20impl_withexpressionsE = dso_local constant [28 x i8] c"N2kc20impl_withexpressionsE\00", align 1
@_ZTIN2kc20impl_withexpressionsE = dso_local constant { ptr, ptr, ptr } { ptr getelementptr inbounds (ptr, ptr @_ZTVN10__cxxabiv120__si_class_type_infoE, i64 2), ptr @_ZTSN2kc20impl_withexpressionsE, ptr @_ZTIN2kc18impl_abstract_listE }, align 8
@_ZTSN2kc17impl_patternchainE = dso_local constant [25 x i8] c"N2kc17impl_patternchainE\00", align 1
@_ZTIN2kc17impl_patternchainE = dso_local constant { ptr, ptr, ptr } { ptr getelementptr inbounds (ptr, ptr @_ZTVN10__cxxabiv120__si_class_type_infoE, i64 2), ptr @_ZTSN2kc17impl_patternchainE, ptr @_ZTIN2kc18impl_abstract_listE }, align 8
@_ZTSN2kc19impl_idCexpressionsE = dso_local constant [27 x i8] c"N2kc19impl_idCexpressionsE\00", align 1
@_ZTIN2kc19impl_idCexpressionsE = dso_local constant { ptr, ptr, ptr } { ptr getelementptr inbounds (ptr, ptr @_ZTVN10__cxxabiv120__si_class_type_infoE, i64 2), ptr @_ZTSN2kc19impl_idCexpressionsE, ptr @_ZTIN2kc18impl_abstract_listE }, align 8
@_ZTSN2kc16impl_contextinfoE = linkonce_odr dso_local constant [24 x i8] c"N2kc16impl_contextinfoE\00", comdat, align 1
@_ZTIN2kc16impl_contextinfoE = linkonce_odr dso_local constant { ptr, ptr, ptr } { ptr getelementptr inbounds (ptr, ptr @_ZTVN10__cxxabiv120__si_class_type_infoE, i64 2), ptr @_ZTSN2kc16impl_contextinfoE, ptr @_ZTIN2kc20impl_abstract_phylumE }, comdat, align 8
@_ZTSN2kc18impl_foreach_afterE = linkonce_odr dso_local constant [26 x i8] c"N2kc18impl_foreach_afterE\00", comdat, align 1
@_ZTIN2kc18impl_foreach_afterE = linkonce_odr dso_local constant { ptr, ptr, ptr } { ptr getelementptr inbounds (ptr, ptr @_ZTVN10__cxxabiv120__si_class_type_infoE, i64 2), ptr @_ZTSN2kc18impl_foreach_afterE, ptr @_ZTIN2kc20impl_abstract_phylumE }, comdat, align 8
@_ZTSN2kc18impl_CexpressionSQE = dso_local constant [26 x i8] c"N2kc18impl_CexpressionSQE\00", align 1
@_ZTIN2kc18impl_CexpressionSQE = dso_local constant { ptr, ptr, ptr } { ptr getelementptr inbounds (ptr, ptr @_ZTVN10__cxxabiv120__si_class_type_infoE, i64 2), ptr @_ZTSN2kc18impl_CexpressionSQE, ptr @_ZTIN2kc18impl_abstract_listE }, align 8
@_ZTSN2kc15impl_Ctext_elemE = linkonce_odr dso_local constant [23 x i8] c"N2kc15impl_Ctext_elemE\00", comdat, align 1
@_ZTIN2kc15impl_Ctext_elemE = linkonce_odr dso_local constant { ptr, ptr, ptr } { ptr getelementptr inbounds (ptr, ptr @_ZTVN10__cxxabiv120__si_class_type_infoE, i64 2), ptr @_ZTSN2kc15impl_Ctext_elemE, ptr @_ZTIN2kc20impl_abstract_phylumE }, comdat, align 8
@_ZTSN2kc26impl_ac_opt_base_init_listE = linkonce_odr dso_local constant [34 x i8] c"N2kc26impl_ac_opt_base_init_listE\00", comdat, align 1
@_ZTIN2kc26impl_ac_opt_base_init_listE = linkonce_odr dso_local constant { ptr, ptr, ptr } { ptr getelementptr inbounds (ptr, ptr @_ZTVN10__cxxabiv120__si_class_type_infoE, i64 2), ptr @_ZTSN2kc26impl_ac_opt_base_init_listE, ptr @_ZTIN2kc20impl_abstract_phylumE }, comdat, align 8
@_ZTSN2kc18impl_fndeclarationE = linkonce_odr dso_local constant [26 x i8] c"N2kc18impl_fndeclarationE\00", comdat, align 1
@_ZTIN2kc18impl_fndeclarationE = linkonce_odr dso_local constant { ptr, ptr, ptr } { ptr getelementptr inbounds (ptr, ptr @_ZTVN10__cxxabiv120__si_class_type_infoE, i64 2), ptr @_ZTSN2kc18impl_fndeclarationE, ptr @_ZTIN2kc20impl_abstract_phylumE }, comdat, align 8
@_ZTSN2kc19impl_fndeclarationsE = dso_local constant [27 x i8] c"N2kc19impl_fndeclarationsE\00", align 1
@_ZTIN2kc19impl_fndeclarationsE = dso_local constant { ptr, ptr, ptr } { ptr getelementptr inbounds (ptr, ptr @_ZTVN10__cxxabiv120__si_class_type_infoE, i64 2), ptr @_ZTSN2kc19impl_fndeclarationsE, ptr @_ZTIN2kc18impl_abstract_listE }, align 8
@_ZTSN2kc11impl_fnfileE = linkonce_odr dso_local constant [19 x i8] c"N2kc11impl_fnfileE\00", comdat, align 1
@_ZTIN2kc11impl_fnfileE = linkonce_odr dso_local constant { ptr, ptr, ptr } { ptr getelementptr inbounds (ptr, ptr @_ZTVN10__cxxabiv120__si_class_type_infoE, i64 2), ptr @_ZTSN2kc11impl_fnfileE, ptr @_ZTIN2kc20impl_abstract_phylumE }, comdat, align 8
@_ZTSN2kc12impl_fnfilesE = dso_local constant [20 x i8] c"N2kc12impl_fnfilesE\00", align 1
@_ZTIN2kc12impl_fnfilesE = dso_local constant { ptr, ptr, ptr } { ptr getelementptr inbounds (ptr, ptr @_ZTVN10__cxxabiv120__si_class_type_infoE, i64 2), ptr @_ZTSN2kc12impl_fnfilesE, ptr @_ZTIN2kc18impl_abstract_listE }, align 8
@_ZTSN2kc9impl_termE = linkonce_odr dso_local constant [16 x i8] c"N2kc9impl_termE\00", comdat, align 1
@_ZTIN2kc9impl_termE = linkonce_odr dso_local constant { ptr, ptr, ptr } { ptr getelementptr inbounds (ptr, ptr @_ZTVN10__cxxabiv120__si_class_type_infoE, i64 2), ptr @_ZTSN2kc9impl_termE, ptr @_ZTIN2kc20impl_abstract_phylumE }, comdat, align 8
@_ZTSN2kc10impl_termsE = dso_local constant [18 x i8] c"N2kc10impl_termsE\00", align 1
@_ZTIN2kc10impl_termsE = dso_local constant { ptr, ptr, ptr } { ptr getelementptr inbounds (ptr, ptr @_ZTVN10__cxxabiv120__si_class_type_infoE, i64 2), ptr @_ZTSN2kc10impl_termsE, ptr @_ZTIN2kc18impl_abstract_listE }, align 8
@_ZTSN2kc12impl_patternE = linkonce_odr dso_local constant [20 x i8] c"N2kc12impl_patternE\00", comdat, align 1
@_ZTIN2kc12impl_patternE = linkonce_odr dso_local constant { ptr, ptr, ptr } { ptr getelementptr inbounds (ptr, ptr @_ZTVN10__cxxabiv120__si_class_type_infoE, i64 2), ptr @_ZTSN2kc12impl_patternE, ptr @_ZTIN2kc20impl_abstract_phylumE }, comdat, align 8
@_ZTSN2kc13impl_patternsE = dso_local constant [21 x i8] c"N2kc13impl_patternsE\00", align 1
@_ZTIN2kc13impl_patternsE = dso_local constant { ptr, ptr, ptr } { ptr getelementptr inbounds (ptr, ptr @_ZTVN10__cxxabiv120__si_class_type_infoE, i64 2), ptr @_ZTSN2kc13impl_patternsE, ptr @_ZTIN2kc18impl_abstract_listE }, align 8
@_ZTSN2kc19impl_outmostpatternE = linkonce_odr dso_local constant [27 x i8] c"N2kc19impl_outmostpatternE\00", comdat, align 1
@_ZTIN2kc19impl_outmostpatternE = linkonce_odr dso_local constant { ptr, ptr, ptr } { ptr getelementptr inbounds (ptr, ptr @_ZTVN10__cxxabiv120__si_class_type_infoE, i64 2), ptr @_ZTSN2kc19impl_outmostpatternE, ptr @_ZTIN2kc20impl_abstract_phylumE }, comdat, align 8
@_ZTSN2kc21impl_patternchainitemE = linkonce_odr dso_local constant [29 x i8] c"N2kc21impl_patternchainitemE\00", comdat, align 1
@_ZTIN2kc21impl_patternchainitemE = linkonce_odr dso_local constant { ptr, ptr, ptr } { ptr getelementptr inbounds (ptr, ptr @_ZTVN10__cxxabiv120__si_class_type_infoE, i64 2), ptr @_ZTSN2kc21impl_patternchainitemE, ptr @_ZTIN2kc20impl_abstract_phylumE }, comdat, align 8
@_ZTSN2kc19impl_rewriteclausesE = dso_local constant [27 x i8] c"N2kc19impl_rewriteclausesE\00", align 1
@_ZTIN2kc19impl_rewriteclausesE = dso_local constant { ptr, ptr, ptr } { ptr getelementptr inbounds (ptr, ptr @_ZTVN10__cxxabiv120__si_class_type_infoE, i64 2), ptr @_ZTSN2kc19impl_rewriteclausesE, ptr @_ZTIN2kc18impl_abstract_listE }, align 8
@_ZTSN2kc18impl_rwdeclarationE = linkonce_odr dso_local constant [26 x i8] c"N2kc18impl_rwdeclarationE\00", comdat, align 1
@_ZTIN2kc18impl_rwdeclarationE = linkonce_odr dso_local constant { ptr, ptr, ptr } { ptr getelementptr inbounds (ptr, ptr @_ZTVN10__cxxabiv120__si_class_type_infoE, i64 2), ptr @_ZTSN2kc18impl_rwdeclarationE, ptr @_ZTIN2kc20impl_abstract_phylumE }, comdat, align 8
@_ZTSN2kc19impl_rwdeclarationsE = dso_local constant [27 x i8] c"N2kc19impl_rwdeclarationsE\00", align 1
@_ZTIN2kc19impl_rwdeclarationsE = dso_local constant { ptr, ptr, ptr } { ptr getelementptr inbounds (ptr, ptr @_ZTVN10__cxxabiv120__si_class_type_infoE, i64 2), ptr @_ZTSN2kc19impl_rwdeclarationsE, ptr @_ZTIN2kc18impl_abstract_listE }, align 8
@_ZTSN2kc23impl_includedeclarationE = linkonce_odr dso_local constant [31 x i8] c"N2kc23impl_includedeclarationE\00", comdat, align 1
@_ZTIN2kc23impl_includedeclarationE = linkonce_odr dso_local constant { ptr, ptr, ptr } { ptr getelementptr inbounds (ptr, ptr @_ZTVN10__cxxabiv120__si_class_type_infoE, i64 2), ptr @_ZTSN2kc23impl_includedeclarationE, ptr @_ZTIN2kc20impl_abstract_phylumE }, comdat, align 8
@_ZTSN2kc24impl_includedeclarationsE = dso_local constant [32 x i8] c"N2kc24impl_includedeclarationsE\00", align 1
@_ZTIN2kc24impl_includedeclarationsE = dso_local constant { ptr, ptr, ptr } { ptr getelementptr inbounds (ptr, ptr @_ZTVN10__cxxabiv120__si_class_type_infoE, i64 2), ptr @_ZTSN2kc24impl_includedeclarationsE, ptr @_ZTIN2kc18impl_abstract_listE }, align 8
@_ZTSN2kc16impl_includefileE = linkonce_odr dso_local constant [24 x i8] c"N2kc16impl_includefileE\00", comdat, align 1
@_ZTIN2kc16impl_includefileE = linkonce_odr dso_local constant { ptr, ptr, ptr } { ptr getelementptr inbounds (ptr, ptr @_ZTVN10__cxxabiv120__si_class_type_infoE, i64 2), ptr @_ZTSN2kc16impl_includefileE, ptr @_ZTIN2kc20impl_abstract_phylumE }, comdat, align 8
@_ZTSN2kc17impl_includefilesE = dso_local constant [25 x i8] c"N2kc17impl_includefilesE\00", align 1
@_ZTIN2kc17impl_includefilesE = dso_local constant { ptr, ptr, ptr } { ptr getelementptr inbounds (ptr, ptr @_ZTVN10__cxxabiv120__si_class_type_infoE, i64 2), ptr @_ZTSN2kc17impl_includefilesE, ptr @_ZTIN2kc18impl_abstract_listE }, align 8
@_ZTSN2kc11impl_CtextsE = dso_local constant [19 x i8] c"N2kc11impl_CtextsE\00", align 1
@_ZTIN2kc11impl_CtextsE = dso_local constant { ptr, ptr, ptr } { ptr getelementptr inbounds (ptr, ptr @_ZTVN10__cxxabiv120__si_class_type_infoE, i64 2), ptr @_ZTSN2kc11impl_CtextsE, ptr @_ZTIN2kc18impl_abstract_listE }, align 8
@_ZTSN2kc18impl_idCexpressionE = linkonce_odr dso_local constant [26 x i8] c"N2kc18impl_idCexpressionE\00", comdat, align 1
@_ZTIN2kc18impl_idCexpressionE = linkonce_odr dso_local constant { ptr, ptr, ptr } { ptr getelementptr inbounds (ptr, ptr @_ZTVN10__cxxabiv120__si_class_type_infoE, i64 2), ptr @_ZTSN2kc18impl_idCexpressionE, ptr @_ZTIN2kc20impl_abstract_phylumE }, comdat, align 8
@_ZTSN2kc23impl_CexpressionSQ_elemE = linkonce_odr dso_local constant [31 x i8] c"N2kc23impl_CexpressionSQ_elemE\00", comdat, align 1
@_ZTIN2kc23impl_CexpressionSQ_elemE = linkonce_odr dso_local constant { ptr, ptr, ptr } { ptr getelementptr inbounds (ptr, ptr @_ZTVN10__cxxabiv120__si_class_type_infoE, i64 2), ptr @_ZTSN2kc23impl_CexpressionSQ_elemE, ptr @_ZTIN2kc20impl_abstract_phylumE }, comdat, align 8
@_ZTSN2kc23impl_CexpressionDQ_elemE = linkonce_odr dso_local constant [31 x i8] c"N2kc23impl_CexpressionDQ_elemE\00", comdat, align 1
@_ZTIN2kc23impl_CexpressionDQ_elemE = linkonce_odr dso_local constant { ptr, ptr, ptr } { ptr getelementptr inbounds (ptr, ptr @_ZTVN10__cxxabiv120__si_class_type_infoE, i64 2), ptr @_ZTSN2kc23impl_CexpressionDQ_elemE, ptr @_ZTIN2kc20impl_abstract_phylumE }, comdat, align 8
@_ZTSN2kc21impl_Cexpression_elemE = linkonce_odr dso_local constant [29 x i8] c"N2kc21impl_Cexpression_elemE\00", comdat, align 1
@_ZTIN2kc21impl_Cexpression_elemE = linkonce_odr dso_local constant { ptr, ptr, ptr } { ptr getelementptr inbounds (ptr, ptr @_ZTVN10__cxxabiv120__si_class_type_infoE, i64 2), ptr @_ZTSN2kc21impl_Cexpression_elemE, ptr @_ZTIN2kc20impl_abstract_phylumE }, comdat, align 8
@_ZTSN2kc36impl_attribute_initialisation_optionE = linkonce_odr dso_local constant [44 x i8] c"N2kc36impl_attribute_initialisation_optionE\00", comdat, align 1
@_ZTIN2kc36impl_attribute_initialisation_optionE = linkonce_odr dso_local constant { ptr, ptr, ptr } { ptr getelementptr inbounds (ptr, ptr @_ZTVN10__cxxabiv120__si_class_type_infoE, i64 2), ptr @_ZTSN2kc36impl_attribute_initialisation_optionE, ptr @_ZTIN2kc20impl_abstract_phylumE }, comdat, align 8
@_ZTSN2kc14impl_attributeE = linkonce_odr dso_local constant [22 x i8] c"N2kc14impl_attributeE\00", comdat, align 1
@_ZTIN2kc14impl_attributeE = linkonce_odr dso_local constant { ptr, ptr, ptr } { ptr getelementptr inbounds (ptr, ptr @_ZTVN10__cxxabiv120__si_class_type_infoE, i64 2), ptr @_ZTSN2kc14impl_attributeE, ptr @_ZTIN2kc20impl_abstract_phylumE }, comdat, align 8
@_ZTSN2kc15impl_attributesE = dso_local constant [23 x i8] c"N2kc15impl_attributesE\00", align 1
@_ZTIN2kc15impl_attributesE = dso_local constant { ptr, ptr, ptr } { ptr getelementptr inbounds (ptr, ptr @_ZTVN10__cxxabiv120__si_class_type_infoE, i64 2), ptr @_ZTSN2kc15impl_attributesE, ptr @_ZTIN2kc18impl_abstract_listE }, align 8
@_ZTSN2kc14impl_argumentsE = dso_local constant [22 x i8] c"N2kc14impl_argumentsE\00", align 1
@_ZTIN2kc14impl_argumentsE = dso_local constant { ptr, ptr, ptr } { ptr getelementptr inbounds (ptr, ptr @_ZTVN10__cxxabiv120__si_class_type_infoE, i64 2), ptr @_ZTSN2kc14impl_argumentsE, ptr @_ZTIN2kc18impl_abstract_listE }, align 8
@_ZTSN2kc17impl_alternativesE = dso_local constant [25 x i8] c"N2kc17impl_alternativesE\00", align 1
@_ZTIN2kc17impl_alternativesE = dso_local constant { ptr, ptr, ptr } { ptr getelementptr inbounds (ptr, ptr @_ZTVN10__cxxabiv120__si_class_type_infoE, i64 2), ptr @_ZTSN2kc17impl_alternativesE, ptr @_ZTIN2kc18impl_abstract_listE }, align 8
@_ZTSN2kc19impl_storageclassesE = dso_local constant [27 x i8] c"N2kc19impl_storageclassesE\00", align 1
@_ZTIN2kc19impl_storageclassesE = dso_local constant { ptr, ptr, ptr } { ptr getelementptr inbounds (ptr, ptr @_ZTVN10__cxxabiv120__si_class_type_infoE, i64 2), ptr @_ZTSN2kc19impl_storageclassesE, ptr @_ZTIN2kc18impl_abstract_listE }, align 8
@_ZTSN2kc20impl_productionblockE = linkonce_odr dso_local constant [28 x i8] c"N2kc20impl_productionblockE\00", comdat, align 1
@_ZTIN2kc20impl_productionblockE = linkonce_odr dso_local constant { ptr, ptr, ptr } { ptr getelementptr inbounds (ptr, ptr @_ZTVN10__cxxabiv120__si_class_type_infoE, i64 2), ptr @_ZTSN2kc20impl_productionblockE, ptr @_ZTIN2kc20impl_abstract_phylumE }, comdat, align 8
@_ZTSN2kc17impl_Ccode_optionE = linkonce_odr dso_local constant [25 x i8] c"N2kc17impl_Ccode_optionE\00", comdat, align 1
@_ZTIN2kc17impl_Ccode_optionE = linkonce_odr dso_local constant { ptr, ptr, ptr } { ptr getelementptr inbounds (ptr, ptr @_ZTVN10__cxxabiv120__si_class_type_infoE, i64 2), ptr @_ZTSN2kc17impl_Ccode_optionE, ptr @_ZTIN2kc20impl_abstract_phylumE }, comdat, align 8
@_ZTSN2kc16impl_phylumnamesE = dso_local constant [24 x i8] c"N2kc16impl_phylumnamesE\00", align 1
@_ZTIN2kc16impl_phylumnamesE = dso_local constant { ptr, ptr, ptr } { ptr getelementptr inbounds (ptr, ptr @_ZTVN10__cxxabiv120__si_class_type_infoE, i64 2), ptr @_ZTSN2kc16impl_phylumnamesE, ptr @_ZTIN2kc18impl_abstract_listE }, align 8
@_ZTSN2kc23impl_phylumdeclarationsE = dso_local constant [31 x i8] c"N2kc23impl_phylumdeclarationsE\00", align 1
@_ZTIN2kc23impl_phylumdeclarationsE = dso_local constant { ptr, ptr, ptr } { ptr getelementptr inbounds (ptr, ptr @_ZTVN10__cxxabiv120__si_class_type_infoE, i64 2), ptr @_ZTSN2kc23impl_phylumdeclarationsE, ptr @_ZTIN2kc18impl_abstract_listE }, align 8
@_ZTSN2kc11impl_STRINGE = linkonce_odr dso_local constant [19 x i8] c"N2kc11impl_STRINGE\00", comdat, align 1
@_ZTIN2kc11impl_STRINGE = linkonce_odr dso_local constant { ptr, ptr, ptr } { ptr getelementptr inbounds (ptr, ptr @_ZTVN10__cxxabiv120__si_class_type_infoE, i64 2), ptr @_ZTSN2kc11impl_STRINGE, ptr @_ZTIN2kc20impl_abstract_phylumE }, comdat, align 8
@_ZTSN2kc13impl_charrunsE = linkonce_odr dso_local constant [21 x i8] c"N2kc13impl_charrunsE\00", comdat, align 1
@_ZTIN2kc13impl_charrunsE = linkonce_odr dso_local constant { ptr, ptr, ptr } { ptr getelementptr inbounds (ptr, ptr @_ZTVN10__cxxabiv120__si_class_type_infoE, i64 2), ptr @_ZTSN2kc13impl_charrunsE, ptr @_ZTIN2kc20impl_abstract_phylumE }, comdat, align 8
@.str = private unnamed_addr constant [1 x i8] zeroinitializer, align 1
@.str.1 = private unnamed_addr constant [13 x i8] c"nocasestring\00", align 1
@.str.2 = private unnamed_addr constant [11 x i8] c"casestring\00", align 1
@.str.3 = private unnamed_addr constant [5 x i8] c"real\00", align 1
@.str.4 = private unnamed_addr constant [8 x i8] c"integer\00", align 1
@.str.5 = private unnamed_addr constant [8 x i8] c"voidptr\00", align 1
@.str.6 = private unnamed_addr constant [7 x i8] c"uniqID\00", align 1
@.str.7 = private unnamed_addr constant [3 x i8] c"ID\00", align 1
@.str.8 = private unnamed_addr constant [4 x i8] c"INT\00", align 1
@.str.9 = private unnamed_addr constant [7 x i8] c"STRING\00", align 1
@.str.10 = private unnamed_addr constant [23 x i8] c"phylumdeclarationsroot\00", align 1
@.str.11 = private unnamed_addr constant [19 x i8] c"phylumdeclarations\00", align 1
@.str.12 = private unnamed_addr constant [12 x i8] c"phylumnames\00", align 1
@.str.13 = private unnamed_addr constant [18 x i8] c"phylumdeclaration\00", align 1
@.str.14 = private unnamed_addr constant [14 x i8] c"storageoption\00", align 1
@.str.15 = private unnamed_addr constant [15 x i8] c"storageclasses\00", align 1
@.str.16 = private unnamed_addr constant [16 x i8] c"productionblock\00", align 1
@.str.17 = private unnamed_addr constant [13 x i8] c"alternatives\00", align 1
@.str.18 = private unnamed_addr constant [12 x i8] c"alternative\00", align 1
@.str.19 = private unnamed_addr constant [10 x i8] c"arguments\00", align 1
@.str.20 = private unnamed_addr constant [9 x i8] c"argument\00", align 1
@.str.21 = private unnamed_addr constant [13 x i8] c"Ccode_option\00", align 1
@.str.22 = private unnamed_addr constant [11 x i8] c"attributes\00", align 1
@.str.23 = private unnamed_addr constant [10 x i8] c"attribute\00", align 1
@.str.24 = private unnamed_addr constant [32 x i8] c"attribute_initialisation_option\00", align 1
@.str.25 = private unnamed_addr constant [12 x i8] c"Cexpression\00", align 1
@.str.26 = private unnamed_addr constant [17 x i8] c"Cexpression_elem\00", align 1
@.str.27 = private unnamed_addr constant [14 x i8] c"CexpressionDQ\00", align 1
@.str.28 = private unnamed_addr constant [19 x i8] c"CexpressionDQ_elem\00", align 1
@.str.29 = private unnamed_addr constant [14 x i8] c"CexpressionSQ\00", align 1
@.str.30 = private unnamed_addr constant [19 x i8] c"CexpressionSQ_elem\00", align 1
@.str.31 = private unnamed_addr constant [15 x i8] c"idCexpressions\00", align 1
@.str.32 = private unnamed_addr constant [14 x i8] c"idCexpression\00", align 1
@.str.33 = private unnamed_addr constant [7 x i8] c"Ctexts\00", align 1
@.str.34 = private unnamed_addr constant [13 x i8] c"includefiles\00", align 1
@.str.35 = private unnamed_addr constant [12 x i8] c"includefile\00", align 1
@.str.36 = private unnamed_addr constant [20 x i8] c"includedeclarations\00", align 1
@.str.37 = private unnamed_addr constant [19 x i8] c"includedeclaration\00", align 1
@.str.38 = private unnamed_addr constant [15 x i8] c"rwdeclarations\00", align 1
@.str.39 = private unnamed_addr constant [14 x i8] c"rwdeclaration\00", align 1
@.str.40 = private unnamed_addr constant [15 x i8] c"rewriteclauses\00", align 1
@.str.41 = private unnamed_addr constant [14 x i8] c"rewriteclause\00", align 1
@.str.42 = private unnamed_addr constant [14 x i8] c"patternchains\00", align 1
@.str.43 = private unnamed_addr constant [13 x i8] c"patternchain\00", align 1
@.str.44 = private unnamed_addr constant [16 x i8] c"outmostpatterns\00", align 1
@.str.45 = private unnamed_addr constant [17 x i8] c"patternchainitem\00", align 1
@.str.46 = private unnamed_addr constant [15 x i8] c"outmostpattern\00", align 1
@.str.47 = private unnamed_addr constant [8 x i8] c"pattern\00", align 1
@.str.48 = private unnamed_addr constant [9 x i8] c"patterns\00", align 1
@.str.49 = private unnamed_addr constant [5 x i8] c"term\00", align 1
@.str.50 = private unnamed_addr constant [6 x i8] c"terms\00", align 1
@.str.51 = private unnamed_addr constant [8 x i8] c"fnfiles\00", align 1
@.str.52 = private unnamed_addr constant [7 x i8] c"fnfile\00", align 1
@.str.53 = private unnamed_addr constant [15 x i8] c"fndeclarations\00", align 1
@.str.54 = private unnamed_addr constant [14 x i8] c"fndeclaration\00", align 1
@.str.55 = private unnamed_addr constant [8 x i8] c"fnclass\00", align 1
@.str.56 = private unnamed_addr constant [6 x i8] c"Ctext\00", align 1
@.str.57 = private unnamed_addr constant [11 x i8] c"Ctext_elem\00", align 1
@.str.58 = private unnamed_addr constant [14 x i8] c"foreach_after\00", align 1
@.str.59 = private unnamed_addr constant [12 x i8] c"contextinfo\00", align 1
@.str.60 = private unnamed_addr constant [16 x i8] c"withexpressions\00", align 1
@.str.61 = private unnamed_addr constant [15 x i8] c"withexpression\00", align 1
@.str.62 = private unnamed_addr constant [10 x i8] c"withcases\00", align 1
@.str.63 = private unnamed_addr constant [9 x i8] c"withcase\00", align 1
@.str.64 = private unnamed_addr constant [20 x i8] c"unparsedeclarations\00", align 1
@.str.65 = private unnamed_addr constant [19 x i8] c"unparsedeclaration\00", align 1
@.str.66 = private unnamed_addr constant [15 x i8] c"unparseclauses\00", align 1
@.str.67 = private unnamed_addr constant [14 x i8] c"unparseclause\00", align 1
@.str.68 = private unnamed_addr constant [10 x i8] c"viewnames\00", align 1
@.str.69 = private unnamed_addr constant [13 x i8] c"unparseitems\00", align 1
@.str.70 = private unnamed_addr constant [12 x i8] c"unparseitem\00", align 1
@.str.71 = private unnamed_addr constant [11 x i8] c"unpsubterm\00", align 1
@.str.72 = private unnamed_addr constant [14 x i8] c"unpattributes\00", align 1
@.str.73 = private unnamed_addr constant [15 x i8] c"viewnameoption\00", align 1
@.str.74 = private unnamed_addr constant [15 x i8] c"languageoption\00", align 1
@.str.75 = private unnamed_addr constant [14 x i8] c"languagenames\00", align 1
@.str.76 = private unnamed_addr constant [9 x i8] c"fileline\00", align 1
@.str.77 = private unnamed_addr constant [23 x i8] c"scopetypefilelinestack\00", align 1
@.str.78 = private unnamed_addr constant [18 x i8] c"scopetypefileline\00", align 1
@.str.79 = private unnamed_addr constant [7 x i8] c"IDtype\00", align 1
@.str.80 = private unnamed_addr constant [10 x i8] c"operators\00", align 1
@.str.81 = private unnamed_addr constant [6 x i8] c"phyla\00", align 1
@.str.82 = private unnamed_addr constant [10 x i8] c"variables\00", align 1
@.str.83 = private unnamed_addr constant [16 x i8] c"dollarvarstatus\00", align 1
@.str.84 = private unnamed_addr constant [8 x i8] c"tribool\00", align 1
@.str.85 = private unnamed_addr constant [23 x i8] c"patternrepresentations\00", align 1
@.str.86 = private unnamed_addr constant [22 x i8] c"patternrepresentation\00", align 1
@.str.87 = private unnamed_addr constant [27 x i8] c"elem_patternrepresentation\00", align 1
@.str.88 = private unnamed_addr constant [5 x i8] c"path\00", align 1
@.str.89 = private unnamed_addr constant [6 x i8] c"paths\00", align 1
@.str.90 = private unnamed_addr constant [12 x i8] c"argsnumbers\00", align 1
@.str.91 = private unnamed_addr constant [17 x i8] c"rewriterulesinfo\00", align 1
@.str.92 = private unnamed_addr constant [16 x i8] c"rewriteruleinfo\00", align 1
@.str.93 = private unnamed_addr constant [14 x i8] c"withcasesinfo\00", align 1
@.str.94 = private unnamed_addr constant [13 x i8] c"withcaseinfo\00", align 1
@.str.95 = private unnamed_addr constant [17 x i8] c"rewriteviewsinfo\00", align 1
@.str.96 = private unnamed_addr constant [16 x i8] c"rewriteviewinfo\00", align 1
@.str.97 = private unnamed_addr constant [17 x i8] c"unparseviewsinfo\00", align 1
@.str.98 = private unnamed_addr constant [16 x i8] c"unparseviewinfo\00", align 1
@.str.99 = private unnamed_addr constant [17 x i8] c"unparsedeclsinfo\00", align 1
@.str.100 = private unnamed_addr constant [16 x i8] c"unparsedeclinfo\00", align 1
@.str.101 = private unnamed_addr constant [15 x i8] c"ac_declaration\00", align 1
@.str.102 = private unnamed_addr constant [20 x i8] c"ac_declaration_list\00", align 1
@.str.103 = private unnamed_addr constant [26 x i8] c"ac_declaration_specifiers\00", align 1
@.str.104 = private unnamed_addr constant [25 x i8] c"ac_declaration_specifier\00", align 1
@.str.105 = private unnamed_addr constant [27 x i8] c"ac_storage_class_specifier\00", align 1
@.str.106 = private unnamed_addr constant [18 x i8] c"ac_type_specifier\00", align 1
@.str.107 = private unnamed_addr constant [18 x i8] c"ac_type_qualifier\00", align 1
@.str.108 = private unnamed_addr constant [24 x i8] c"ac_init_declarator_list\00", align 1
@.str.109 = private unnamed_addr constant [19 x i8] c"ac_init_declarator\00", align 1
@.str.110 = private unnamed_addr constant [14 x i8] c"ac_declarator\00", align 1
@.str.111 = private unnamed_addr constant [21 x i8] c"ac_direct_declarator\00", align 1
@.str.112 = private unnamed_addr constant [18 x i8] c"ac_pointer_option\00", align 1
@.str.113 = private unnamed_addr constant [11 x i8] c"ac_pointer\00", align 1
@.str.114 = private unnamed_addr constant [14 x i8] c"ac_ref_option\00", align 1
@.str.115 = private unnamed_addr constant [17 x i8] c"ac_operator_name\00", align 1
@.str.116 = private unnamed_addr constant [29 x i8] c"ac_class_qualifier_help_list\00", align 1
@.str.117 = private unnamed_addr constant [24 x i8] c"ac_class_qualifier_list\00", align 1
@.str.118 = private unnamed_addr constant [23 x i8] c"ac_type_qualifier_list\00", align 1
@.str.119 = private unnamed_addr constant [23 x i8] c"ac_parameter_type_list\00", align 1
@.str.120 = private unnamed_addr constant [18 x i8] c"ac_parameter_list\00", align 1
@.str.121 = private unnamed_addr constant [25 x i8] c"ac_parameter_declaration\00", align 1
@.str.122 = private unnamed_addr constant [19 x i8] c"ac_identifier_list\00", align 1
@.str.123 = private unnamed_addr constant [23 x i8] c"ac_abstract_declarator\00", align 1
@.str.124 = private unnamed_addr constant [37 x i8] c"ac_direct_abstract_declarator_option\00", align 1
@.str.125 = private unnamed_addr constant [30 x i8] c"ac_direct_abstract_declarator\00", align 1
@.str.126 = private unnamed_addr constant [30 x i8] c"ac_constant_expression_option\00", align 1
@.str.127 = private unnamed_addr constant [23 x i8] c"ac_constant_expression\00", align 1
@.str.128 = private unnamed_addr constant [28 x i8] c"ac_constant_expression_list\00", align 1
@.str.129 = private unnamed_addr constant [22 x i8] c"ac_opt_base_init_list\00", align 1
@.str.130 = private unnamed_addr constant [18 x i8] c"ac_base_init_list\00", align 1
@.str.131 = private unnamed_addr constant [13 x i8] c"ac_base_init\00", align 1
@.str.132 = private unnamed_addr constant [23 x i8] c"baseclass_declarations\00", align 1
@.str.133 = private unnamed_addr constant [15 x i8] c"baseclass_decl\00", align 1
@.str.134 = private unnamed_addr constant [15 x i8] c"baseclass_list\00", align 1
@.str.135 = private unnamed_addr constant [6 x i8] c"error\00", align 1
@.str.136 = private unnamed_addr constant [8 x i8] c"problem\00", align 1
@.str.137 = private unnamed_addr constant [24 x i8] c"addedphylumdeclarations\00", align 1
@.str.138 = private unnamed_addr constant [23 x i8] c"addedphylumdeclaration\00", align 1
@.str.139 = private unnamed_addr constant [26 x i8] c"countedphylumdeclarations\00", align 1
@.str.140 = private unnamed_addr constant [25 x i8] c"countedphylumdeclaration\00", align 1
@.str.141 = private unnamed_addr constant [9 x i8] c"charruns\00", align 1
@.str.142 = private unnamed_addr constant [15 x i8] c"bindingidmarks\00", align 1
@.str.143 = private unnamed_addr constant [14 x i8] c"bindingidmark\00", align 1
@_ZN2kc11phylum_infoE = dso_local local_unnamed_addr global [145 x %"struct.kc::KC_PHYLUM_INFO"] [%"struct.kc::KC_PHYLUM_INFO" { ptr @.str, i32 0, i32 0, i32 0 }, %"struct.kc::KC_PHYLUM_INFO" { ptr @.str.1, i32 1, i32 1, i32 1 }, %"struct.kc::KC_PHYLUM_INFO" { ptr @.str.2, i32 2, i32 2, i32 1 }, %"struct.kc::KC_PHYLUM_INFO" { ptr @.str.3, i32 3, i32 3, i32 1 }, %"struct.kc::KC_PHYLUM_INFO" { ptr @.str.4, i32 4, i32 4, i32 1 }, %"struct.kc::KC_PHYLUM_INFO" { ptr @.str.5, i32 5, i32 5, i32 1 }, %"struct.kc::KC_PHYLUM_INFO" { ptr @.str.6, i32 6, i32 6, i32 1 }, %"struct.kc::KC_PHYLUM_INFO" { ptr @.str.7, i32 7, i32 7, i32 0 }, %"struct.kc::KC_PHYLUM_INFO" { ptr @.str.8, i32 8, i32 8, i32 0 }, %"struct.kc::KC_PHYLUM_INFO" { ptr @.str.9, i32 9, i32 9, i32 0 }, %"struct.kc::KC_PHYLUM_INFO" { ptr @.str.10, i32 10, i32 10, i32 0 }, %"struct.kc::KC_PHYLUM_INFO" { ptr @.str.11, i32 11, i32 12, i32 0 }, %"struct.kc::KC_PHYLUM_INFO" { ptr @.str.12, i32 13, i32 14, i32 0 }, %"struct.kc::KC_PHYLUM_INFO" { ptr @.str.13, i32 15, i32 15, i32 0 }, %"struct.kc::KC_PHYLUM_INFO" { ptr @.str.14, i32 16, i32 18, i32 0 }, %"struct.kc::KC_PHYLUM_INFO" { ptr @.str.15, i32 19, i32 20, i32 0 }, %"struct.kc::KC_PHYLUM_INFO" { ptr @.str.16, i32 21, i32 24, i32 0 }, %"struct.kc::KC_PHYLUM_INFO" { ptr @.str.17, i32 25, i32 26, i32 0 }, %"struct.kc::KC_PHYLUM_INFO" { ptr @.str.18, i32 27, i32 27, i32 0 }, %"struct.kc::KC_PHYLUM_INFO" { ptr @.str.19, i32 28, i32 29, i32 0 }, %"struct.kc::KC_PHYLUM_INFO" { ptr @.str.20, i32 30, i32 30, i32 0 }, %"struct.kc::KC_PHYLUM_INFO" { ptr @.str.21, i32 31, i32 31, i32 0 }, %"struct.kc::KC_PHYLUM_INFO" { ptr @.str.22, i32 32, i32 33, i32 0 }, %"struct.kc::KC_PHYLUM_INFO" { ptr @.str.23, i32 34, i32 34, i32 0 }, %"struct.kc::KC_PHYLUM_INFO" { ptr @.str.24, i32 35, i32 36, i32 0 }, %"struct.kc::KC_PHYLUM_INFO" { ptr @.str.25, i32 37, i32 38, i32 0 }, %"struct.kc::KC_PHYLUM_INFO" { ptr @.str.26, i32 39, i32 45, i32 0 }, %"struct.kc::KC_PHYLUM_INFO" { ptr @.str.27, i32 46, i32 47, i32 0 }, %"struct.kc::KC_PHYLUM_INFO" { ptr @.str.28, i32 48, i32 49, i32 0 }, %"struct.kc::KC_PHYLUM_INFO" { ptr @.str.29, i32 50, i32 51, i32 0 }, %"struct.kc::KC_PHYLUM_INFO" { ptr @.str.30, i32 52, i32 53, i32 0 }, %"struct.kc::KC_PHYLUM_INFO" { ptr @.str.31, i32 54, i32 55, i32 0 }, %"struct.kc::KC_PHYLUM_INFO" { ptr @.str.32, i32 56, i32 56, i32 0 }, %"struct.kc::KC_PHYLUM_INFO" { ptr @.str.33, i32 57, i32 58, i32 0 }, %"struct.kc::KC_PHYLUM_INFO" { ptr @.str.34, i32 59, i32 60, i32 0 }, %"struct.kc::KC_PHYLUM_INFO" { ptr @.str.35, i32 61, i32 61, i32 1 }, %"struct.kc::KC_PHYLUM_INFO" { ptr @.str.36, i32 62, i32 63, i32 0 }, %"struct.kc::KC_PHYLUM_INFO" { ptr @.str.37, i32 64, i32 64, i32 0 }, %"struct.kc::KC_PHYLUM_INFO" { ptr @.str.38, i32 65, i32 66, i32 0 }, %"struct.kc::KC_PHYLUM_INFO" { ptr @.str.39, i32 67, i32 67, i32 0 }, %"struct.kc::KC_PHYLUM_INFO" { ptr @.str.40, i32 68, i32 69, i32 0 }, %"struct.kc::KC_PHYLUM_INFO" { ptr @.str.41, i32 70, i32 70, i32 0 }, %"struct.kc::KC_PHYLUM_INFO" { ptr @.str.42, i32 71, i32 72, i32 0 }, %"struct.kc::KC_PHYLUM_INFO" { ptr @.str.43, i32 73, i32 74, i32 0 }, %"struct.kc::KC_PHYLUM_INFO" { ptr @.str.44, i32 75, i32 76, i32 0 }, %"struct.kc::KC_PHYLUM_INFO" { ptr @.str.45, i32 77, i32 79, i32 0 }, %"struct.kc::KC_PHYLUM_INFO" { ptr @.str.46, i32 80, i32 84, i32 0 }, %"struct.kc::KC_PHYLUM_INFO" { ptr @.str.47, i32 85, i32 90, i32 0 }, %"struct.kc::KC_PHYLUM_INFO" { ptr @.str.48, i32 91, i32 92, i32 0 }, %"struct.kc::KC_PHYLUM_INFO" { ptr @.str.49, i32 93, i32 101, i32 0 }, %"struct.kc::KC_PHYLUM_INFO" { ptr @.str.50, i32 102, i32 103, i32 0 }, %"struct.kc::KC_PHYLUM_INFO" { ptr @.str.51, i32 104, i32 105, i32 0 }, %"struct.kc::KC_PHYLUM_INFO" { ptr @.str.52, i32 106, i32 106, i32 1 }, %"struct.kc::KC_PHYLUM_INFO" { ptr @.str.53, i32 107, i32 108, i32 0 }, %"struct.kc::KC_PHYLUM_INFO" { ptr @.str.54, i32 109, i32 110, i32 0 }, %"struct.kc::KC_PHYLUM_INFO" { ptr @.str.55, i32 111, i32 116, i32 0 }, %"struct.kc::KC_PHYLUM_INFO" { ptr @.str.56, i32 117, i32 118, i32 0 }, %"struct.kc::KC_PHYLUM_INFO" { ptr @.str.57, i32 119, i32 126, i32 0 }, %"struct.kc::KC_PHYLUM_INFO" { ptr @.str.58, i32 127, i32 128, i32 0 }, %"struct.kc::KC_PHYLUM_INFO" { ptr @.str.59, i32 129, i32 130, i32 0 }, %"struct.kc::KC_PHYLUM_INFO" { ptr @.str.60, i32 131, i32 132, i32 0 }, %"struct.kc::KC_PHYLUM_INFO" { ptr @.str.61, i32 133, i32 134, i32 0 }, %"struct.kc::KC_PHYLUM_INFO" { ptr @.str.62, i32 135, i32 136, i32 0 }, %"struct.kc::KC_PHYLUM_INFO" { ptr @.str.63, i32 137, i32 137, i32 0 }, %"struct.kc::KC_PHYLUM_INFO" { ptr @.str.64, i32 138, i32 139, i32 0 }, %"struct.kc::KC_PHYLUM_INFO" { ptr @.str.65, i32 140, i32 140, i32 0 }, %"struct.kc::KC_PHYLUM_INFO" { ptr @.str.66, i32 141, i32 142, i32 0 }, %"struct.kc::KC_PHYLUM_INFO" { ptr @.str.67, i32 143, i32 143, i32 0 }, %"struct.kc::KC_PHYLUM_INFO" { ptr @.str.68, i32 144, i32 145, i32 0 }, %"struct.kc::KC_PHYLUM_INFO" { ptr @.str.69, i32 146, i32 147, i32 0 }, %"struct.kc::KC_PHYLUM_INFO" { ptr @.str.70, i32 148, i32 152, i32 0 }, %"struct.kc::KC_PHYLUM_INFO" { ptr @.str.71, i32 153, i32 157, i32 0 }, %"struct.kc::KC_PHYLUM_INFO" { ptr @.str.72, i32 158, i32 159, i32 0 }, %"struct.kc::KC_PHYLUM_INFO" { ptr @.str.73, i32 160, i32 161, i32 0 }, %"struct.kc::KC_PHYLUM_INFO" { ptr @.str.74, i32 162, i32 163, i32 0 }, %"struct.kc::KC_PHYLUM_INFO" { ptr @.str.75, i32 164, i32 165, i32 0 }, %"struct.kc::KC_PHYLUM_INFO" { ptr @.str.76, i32 166, i32 168, i32 0 }, %"struct.kc::KC_PHYLUM_INFO" { ptr @.str.77, i32 169, i32 170, i32 0 }, %"struct.kc::KC_PHYLUM_INFO" { ptr @.str.78, i32 171, i32 171, i32 0 }, %"struct.kc::KC_PHYLUM_INFO" { ptr @.str.79, i32 172, i32 186, i32 0 }, %"struct.kc::KC_PHYLUM_INFO" { ptr @.str.80, i32 187, i32 188, i32 0 }, %"struct.kc::KC_PHYLUM_INFO" { ptr @.str.81, i32 189, i32 190, i32 0 }, %"struct.kc::KC_PHYLUM_INFO" { ptr @.str.82, i32 191, i32 192, i32 0 }, %"struct.kc::KC_PHYLUM_INFO" { ptr @.str.83, i32 193, i32 194, i32 0 }, %"struct.kc::KC_PHYLUM_INFO" { ptr @.str.84, i32 195, i32 197, i32 0 }, %"struct.kc::KC_PHYLUM_INFO" { ptr @.str.85, i32 198, i32 199, i32 0 }, %"struct.kc::KC_PHYLUM_INFO" { ptr @.str.86, i32 200, i32 201, i32 0 }, %"struct.kc::KC_PHYLUM_INFO" { ptr @.str.87, i32 202, i32 210, i32 0 }, %"struct.kc::KC_PHYLUM_INFO" { ptr @.str.88, i32 211, i32 212, i32 0 }, %"struct.kc::KC_PHYLUM_INFO" { ptr @.str.89, i32 213, i32 214, i32 0 }, %"struct.kc::KC_PHYLUM_INFO" { ptr @.str.90, i32 215, i32 216, i32 0 }, %"struct.kc::KC_PHYLUM_INFO" { ptr @.str.91, i32 217, i32 218, i32 0 }, %"struct.kc::KC_PHYLUM_INFO" { ptr @.str.92, i32 219, i32 219, i32 0 }, %"struct.kc::KC_PHYLUM_INFO" { ptr @.str.93, i32 220, i32 221, i32 0 }, %"struct.kc::KC_PHYLUM_INFO" { ptr @.str.94, i32 222, i32 222, i32 0 }, %"struct.kc::KC_PHYLUM_INFO" { ptr @.str.95, i32 223, i32 224, i32 0 }, %"struct.kc::KC_PHYLUM_INFO" { ptr @.str.96, i32 225, i32 225, i32 0 }, %"struct.kc::KC_PHYLUM_INFO" { ptr @.str.97, i32 226, i32 227, i32 0 }, %"struct.kc::KC_PHYLUM_INFO" { ptr @.str.98, i32 228, i32 228, i32 0 }, %"struct.kc::KC_PHYLUM_INFO" { ptr @.str.99, i32 229, i32 230, i32 0 }, %"struct.kc::KC_PHYLUM_INFO" { ptr @.str.100, i32 231, i32 231, i32 0 }, %"struct.kc::KC_PHYLUM_INFO" { ptr @.str.101, i32 232, i32 232, i32 0 }, %"struct.kc::KC_PHYLUM_INFO" { ptr @.str.102, i32 233, i32 234, i32 0 }, %"struct.kc::KC_PHYLUM_INFO" { ptr @.str.103, i32 235, i32 236, i32 0 }, %"struct.kc::KC_PHYLUM_INFO" { ptr @.str.104, i32 237, i32 239, i32 0 }, %"struct.kc::KC_PHYLUM_INFO" { ptr @.str.105, i32 240, i32 245, i32 0 }, %"struct.kc::KC_PHYLUM_INFO" { ptr @.str.106, i32 246, i32 246, i32 0 }, %"struct.kc::KC_PHYLUM_INFO" { ptr @.str.107, i32 247, i32 250, i32 0 }, %"struct.kc::KC_PHYLUM_INFO" { ptr @.str.108, i32 251, i32 252, i32 0 }, %"struct.kc::KC_PHYLUM_INFO" { ptr @.str.109, i32 253, i32 253, i32 0 }, %"struct.kc::KC_PHYLUM_INFO" { ptr @.str.110, i32 254, i32 254, i32 0 }, %"struct.kc::KC_PHYLUM_INFO" { ptr @.str.111, i32 255, i32 262, i32 0 }, %"struct.kc::KC_PHYLUM_INFO" { ptr @.str.112, i32 263, i32 264, i32 0 }, %"struct.kc::KC_PHYLUM_INFO" { ptr @.str.113, i32 265, i32 266, i32 0 }, %"struct.kc::KC_PHYLUM_INFO" { ptr @.str.114, i32 267, i32 268, i32 0 }, %"struct.kc::KC_PHYLUM_INFO" { ptr @.str.115, i32 269, i32 269, i32 0 }, %"struct.kc::KC_PHYLUM_INFO" { ptr @.str.116, i32 270, i32 271, i32 0 }, %"struct.kc::KC_PHYLUM_INFO" { ptr @.str.117, i32 272, i32 273, i32 0 }, %"struct.kc::KC_PHYLUM_INFO" { ptr @.str.118, i32 274, i32 275, i32 0 }, %"struct.kc::KC_PHYLUM_INFO" { ptr @.str.119, i32 276, i32 277, i32 0 }, %"struct.kc::KC_PHYLUM_INFO" { ptr @.str.120, i32 278, i32 279, i32 0 }, %"struct.kc::KC_PHYLUM_INFO" { ptr @.str.121, i32 280, i32 281, i32 0 }, %"struct.kc::KC_PHYLUM_INFO" { ptr @.str.122, i32 282, i32 283, i32 0 }, %"struct.kc::KC_PHYLUM_INFO" { ptr @.str.123, i32 284, i32 285, i32 0 }, %"struct.kc::KC_PHYLUM_INFO" { ptr @.str.124, i32 286, i32 287, i32 0 }, %"struct.kc::KC_PHYLUM_INFO" { ptr @.str.125, i32 288, i32 290, i32 0 }, %"struct.kc::KC_PHYLUM_INFO" { ptr @.str.126, i32 291, i32 292, i32 0 }, %"struct.kc::KC_PHYLUM_INFO" { ptr @.str.127, i32 293, i32 293, i32 0 }, %"struct.kc::KC_PHYLUM_INFO" { ptr @.str.128, i32 294, i32 295, i32 0 }, %"struct.kc::KC_PHYLUM_INFO" { ptr @.str.129, i32 296, i32 297, i32 0 }, %"struct.kc::KC_PHYLUM_INFO" { ptr @.str.130, i32 298, i32 299, i32 0 }, %"struct.kc::KC_PHYLUM_INFO" { ptr @.str.131, i32 300, i32 300, i32 0 }, %"struct.kc::KC_PHYLUM_INFO" { ptr @.str.132, i32 301, i32 302, i32 0 }, %"struct.kc::KC_PHYLUM_INFO" { ptr @.str.133, i32 303, i32 303, i32 0 }, %"struct.kc::KC_PHYLUM_INFO" { ptr @.str.134, i32 304, i32 305, i32 0 }, %"struct.kc::KC_PHYLUM_INFO" { ptr @.str.135, i32 306, i32 308, i32 0 }, %"struct.kc::KC_PHYLUM_INFO" { ptr @.str.136, i32 309, i32 326, i32 0 }, %"struct.kc::KC_PHYLUM_INFO" { ptr @.str.137, i32 327, i32 328, i32 0 }, %"struct.kc::KC_PHYLUM_INFO" { ptr @.str.138, i32 329, i32 329, i32 0 }, %"struct.kc::KC_PHYLUM_INFO" { ptr @.str.139, i32 330, i32 331, i32 0 }, %"struct.kc::KC_PHYLUM_INFO" { ptr @.str.140, i32 332, i32 332, i32 1 }, %"struct.kc::KC_PHYLUM_INFO" { ptr @.str.141, i32 333, i32 335, i32 1 }, %"struct.kc::KC_PHYLUM_INFO" { ptr @.str.142, i32 336, i32 337, i32 1 }, %"struct.kc::KC_PHYLUM_INFO" { ptr @.str.143, i32 338, i32 338, i32 1 }, %"struct.kc::KC_PHYLUM_INFO" { ptr @.str, i32 0, i32 0, i32 0 }], align 16
@.str.145 = private unnamed_addr constant [10 x i8] c"NoCaseStr\00", align 1
@.str.146 = private unnamed_addr constant [5 x i8] c"_Str\00", align 1
@.str.147 = private unnamed_addr constant [6 x i8] c"_Real\00", align 1
@.str.148 = private unnamed_addr constant [5 x i8] c"_Int\00", align 1
@.str.149 = private unnamed_addr constant [9 x i8] c"_VoidPtr\00", align 1
@.str.150 = private unnamed_addr constant [4 x i8] c"Str\00", align 1
@_ZN2kcL15kc_subphyla_StrE = internal global [1 x i32] [i32 2], align 4
@.str.151 = private unnamed_addr constant [3 x i8] c"Id\00", align 1
@_ZN2kcL14kc_subphyla_IdE = internal global [1 x i32] [i32 6], align 4
@.str.152 = private unnamed_addr constant [4 x i8] c"Int\00", align 1
@_ZN2kcL15kc_subphyla_IntE = internal global [1 x i32] [i32 4], align 4
@.str.153 = private unnamed_addr constant [7 x i8] c"String\00", align 1
@_ZN2kcL18kc_subphyla_StringE = internal global [1 x i32] [i32 2], align 4
@.str.154 = private unnamed_addr constant [19 x i8] c"PhylumDeclarations\00", align 1
@_ZN2kcL30kc_subphyla_PhylumDeclarationsE = internal global [1 x i32] [i32 11], align 4
@.str.155 = private unnamed_addr constant [22 x i8] c"Nilphylumdeclarations\00", align 1
@.str.156 = private unnamed_addr constant [23 x i8] c"Consphylumdeclarations\00", align 1
@_ZN2kcL34kc_subphyla_ConsphylumdeclarationsE = internal global [2 x i32] [i32 13, i32 11], align 4
@.str.157 = private unnamed_addr constant [15 x i8] c"Nilphylumnames\00", align 1
@.str.158 = private unnamed_addr constant [16 x i8] c"Consphylumnames\00", align 1
@_ZN2kcL27kc_subphyla_ConsphylumnamesE = internal global [2 x i32] [i32 7, i32 12], align 4
@.str.159 = private unnamed_addr constant [18 x i8] c"PhylumDeclaration\00", align 1
@_ZN2kcL29kc_subphyla_PhylumDeclarationE = internal global [4 x i32] [i32 7, i32 14, i32 16, i32 21], align 16
@.str.160 = private unnamed_addr constant [16 x i8] c"NoStorageOption\00", align 1
@.str.161 = private unnamed_addr constant [22 x i8] c"NegativeStorageOption\00", align 1
@_ZN2kcL33kc_subphyla_NegativeStorageOptionE = internal global [1 x i32] [i32 7], align 4
@.str.162 = private unnamed_addr constant [22 x i8] c"PositiveStorageOption\00", align 1
@_ZN2kcL33kc_subphyla_PositiveStorageOptionE = internal global [1 x i32] [i32 7], align 4
@.str.163 = private unnamed_addr constant [18 x i8] c"Nilstorageclasses\00", align 1
@.str.164 = private unnamed_addr constant [19 x i8] c"Consstorageclasses\00", align 1
@_ZN2kcL30kc_subphyla_ConsstorageclassesE = internal global [2 x i32] [i32 7, i32 15], align 4
@.str.165 = private unnamed_addr constant [21 x i8] c"Emptyproductionblock\00", align 1
@.str.166 = private unnamed_addr constant [17 x i8] c"ListAlternatives\00", align 1
@_ZN2kcL28kc_subphyla_ListAlternativesE = internal global [2 x i32] [i32 17, i32 7], align 4
@.str.167 = private unnamed_addr constant [20 x i8] c"NonlistAlternatives\00", align 1
@_ZN2kcL31kc_subphyla_NonlistAlternativesE = internal global [1 x i32] [i32 17], align 4
@.str.168 = private unnamed_addr constant [23 x i8] c"PredefinedAlternatives\00", align 1
@_ZN2kcL34kc_subphyla_PredefinedAlternativesE = internal global [1 x i32] [i32 17], align 4
@.str.169 = private unnamed_addr constant [16 x i8] c"Nilalternatives\00", align 1
@.str.170 = private unnamed_addr constant [17 x i8] c"Consalternatives\00", align 1
@_ZN2kcL28kc_subphyla_ConsalternativesE = internal global [2 x i32] [i32 18, i32 17], align 4
@.str.171 = private unnamed_addr constant [12 x i8] c"Alternative\00", align 1
@_ZN2kcL23kc_subphyla_AlternativeE = internal global [2 x i32] [i32 7, i32 19], align 4
@.str.172 = private unnamed_addr constant [13 x i8] c"Nilarguments\00", align 1
@.str.173 = private unnamed_addr constant [14 x i8] c"Consarguments\00", align 1
@_ZN2kcL25kc_subphyla_ConsargumentsE = internal global [2 x i32] [i32 7, i32 19], align 4
@.str.174 = private unnamed_addr constant [9 x i8] c"Argument\00", align 1
@_ZN2kcL20kc_subphyla_ArgumentE = internal global [2 x i32] [i32 7, i32 4], align 4
@.str.175 = private unnamed_addr constant [12 x i8] c"CcodeOption\00", align 1
@_ZN2kcL23kc_subphyla_CcodeOptionE = internal global [2 x i32] [i32 22, i32 33], align 4
@.str.176 = private unnamed_addr constant [14 x i8] c"Nilattributes\00", align 1
@.str.177 = private unnamed_addr constant [15 x i8] c"Consattributes\00", align 1
@_ZN2kcL26kc_subphyla_ConsattributesE = internal global [2 x i32] [i32 23, i32 22], align 4
@.str.178 = private unnamed_addr constant [10 x i8] c"Attribute\00", align 1
@_ZN2kcL21kc_subphyla_AttributeE = internal global [3 x i32] [i32 7, i32 7, i32 24], align 4
@.str.179 = private unnamed_addr constant [27 x i8] c"Noattribute_initialisation\00", align 1
@.str.180 = private unnamed_addr constant [28 x i8] c"Yesattribute_initialisation\00", align 1
@_ZN2kcL39kc_subphyla_Yesattribute_initialisationE = internal global [1 x i32] [i32 25], align 4
@.str.181 = private unnamed_addr constant [15 x i8] c"NilCexpression\00", align 1
@.str.182 = private unnamed_addr constant [16 x i8] c"ConsCexpression\00", align 1
@_ZN2kcL27kc_subphyla_ConsCexpressionE = internal global [2 x i32] [i32 26, i32 25], align 4
@.str.183 = private unnamed_addr constant [16 x i8] c"CExpressionPart\00", align 1
@_ZN2kcL27kc_subphyla_CExpressionPartE = internal global [1 x i32] [i32 2], align 4
@.str.184 = private unnamed_addr constant [21 x i8] c"CExpressionDollarvar\00", align 1
@_ZN2kcL32kc_subphyla_CExpressionDollarvarE = internal global [1 x i32] [i32 8], align 4
@.str.185 = private unnamed_addr constant [14 x i8] c"CExpressionNl\00", align 1
@.str.186 = private unnamed_addr constant [14 x i8] c"CExpressionDQ\00", align 1
@_ZN2kcL25kc_subphyla_CExpressionDQE = internal global [1 x i32] [i32 27], align 4
@.str.187 = private unnamed_addr constant [14 x i8] c"CExpressionSQ\00", align 1
@_ZN2kcL25kc_subphyla_CExpressionSQE = internal global [1 x i32] [i32 29], align 4
@.str.188 = private unnamed_addr constant [16 x i8] c"CExpressionPack\00", align 1
@_ZN2kcL27kc_subphyla_CExpressionPackE = internal global [1 x i32] [i32 25], align 4
@.str.189 = private unnamed_addr constant [17 x i8] c"CExpressionArray\00", align 1
@_ZN2kcL28kc_subphyla_CExpressionArrayE = internal global [1 x i32] [i32 25], align 4
@.str.190 = private unnamed_addr constant [17 x i8] c"NilCexpressionDQ\00", align 1
@.str.191 = private unnamed_addr constant [18 x i8] c"ConsCexpressionDQ\00", align 1
@_ZN2kcL29kc_subphyla_ConsCexpressionDQE = internal global [2 x i32] [i32 28, i32 27], align 4
@.str.192 = private unnamed_addr constant [18 x i8] c"CExpressionDQPart\00", align 1
@_ZN2kcL29kc_subphyla_CExpressionDQPartE = internal global [1 x i32] [i32 2], align 4
@.str.193 = private unnamed_addr constant [16 x i8] c"CExpressionDQNl\00", align 1
@.str.194 = private unnamed_addr constant [17 x i8] c"NilCexpressionSQ\00", align 1
@.str.195 = private unnamed_addr constant [18 x i8] c"ConsCexpressionSQ\00", align 1
@_ZN2kcL29kc_subphyla_ConsCexpressionSQE = internal global [2 x i32] [i32 30, i32 29], align 4
@.str.196 = private unnamed_addr constant [18 x i8] c"CExpressionSQPart\00", align 1
@_ZN2kcL29kc_subphyla_CExpressionSQPartE = internal global [1 x i32] [i32 2], align 4
@.str.197 = private unnamed_addr constant [16 x i8] c"CExpressionSQNl\00", align 1
@.str.198 = private unnamed_addr constant [18 x i8] c"NilidCexpressions\00", align 1
@.str.199 = private unnamed_addr constant [19 x i8] c"ConsidCexpressions\00", align 1
@_ZN2kcL30kc_subphyla_ConsidCexpressionsE = internal global [2 x i32] [i32 32, i32 31], align 4
@.str.200 = private unnamed_addr constant [14 x i8] c"IdCexpression\00", align 1
@_ZN2kcL25kc_subphyla_IdCexpressionE = internal global [2 x i32] [i32 7, i32 25], align 4
@.str.201 = private unnamed_addr constant [10 x i8] c"NilCtexts\00", align 1
@.str.202 = private unnamed_addr constant [11 x i8] c"ConsCtexts\00", align 1
@_ZN2kcL22kc_subphyla_ConsCtextsE = internal global [2 x i32] [i32 56, i32 33], align 4
@.str.203 = private unnamed_addr constant [16 x i8] c"Nilincludefiles\00", align 1
@.str.204 = private unnamed_addr constant [17 x i8] c"Consincludefiles\00", align 1
@_ZN2kcL28kc_subphyla_ConsincludefilesE = internal global [2 x i32] [i32 35, i32 34], align 4
@.str.205 = private unnamed_addr constant [12 x i8] c"IncludeFile\00", align 1
@_ZN2kcL23kc_subphyla_IncludeFileE = internal global [1 x i32] [i32 2], align 4
@.str.206 = private unnamed_addr constant [23 x i8] c"Nilincludedeclarations\00", align 1
@.str.207 = private unnamed_addr constant [24 x i8] c"Consincludedeclarations\00", align 1
@_ZN2kcL35kc_subphyla_ConsincludedeclarationsE = internal global [2 x i32] [i32 37, i32 36], align 4
@.str.208 = private unnamed_addr constant [19 x i8] c"IncludeDeclaration\00", align 1
@_ZN2kcL30kc_subphyla_IncludeDeclarationE = internal global [1 x i32] [i32 2], align 4
@.str.209 = private unnamed_addr constant [18 x i8] c"Nilrwdeclarations\00", align 1
@.str.210 = private unnamed_addr constant [19 x i8] c"Consrwdeclarations\00", align 1
@_ZN2kcL30kc_subphyla_ConsrwdeclarationsE = internal global [2 x i32] [i32 39, i32 38], align 4
@.str.211 = private unnamed_addr constant [14 x i8] c"RwDeclaration\00", align 1
@_ZN2kcL25kc_subphyla_RwDeclarationE = internal global [2 x i32] [i32 44, i32 40], align 4
@.str.212 = private unnamed_addr constant [18 x i8] c"Nilrewriteclauses\00", align 1
@.str.213 = private unnamed_addr constant [19 x i8] c"Consrewriteclauses\00", align 1
@_ZN2kcL30kc_subphyla_ConsrewriteclausesE = internal global [2 x i32] [i32 41, i32 40], align 4
@.str.214 = private unnamed_addr constant [14 x i8] c"RewriteClause\00", align 1
@_ZN2kcL25kc_subphyla_RewriteClauseE = internal global [2 x i32] [i32 68, i32 49], align 4
@.str.215 = private unnamed_addr constant [17 x i8] c"Nilpatternchains\00", align 1
@.str.216 = private unnamed_addr constant [18 x i8] c"Conspatternchains\00", align 1
@_ZN2kcL29kc_subphyla_ConspatternchainsE = internal global [2 x i32] [i32 43, i32 42], align 4
@.str.217 = private unnamed_addr constant [16 x i8] c"Nilpatternchain\00", align 1
@.str.218 = private unnamed_addr constant [17 x i8] c"Conspatternchain\00", align 1
@_ZN2kcL28kc_subphyla_ConspatternchainE = internal global [2 x i32] [i32 45, i32 43], align 4
@.str.219 = private unnamed_addr constant [19 x i8] c"Niloutmostpatterns\00", align 1
@.str.220 = private unnamed_addr constant [20 x i8] c"Consoutmostpatterns\00", align 1
@_ZN2kcL31kc_subphyla_ConsoutmostpatternsE = internal global [2 x i32] [i32 46, i32 44], align 4
@.str.221 = private unnamed_addr constant [24 x i8] c"PatternchainitemOutmost\00", align 1
@_ZN2kcL35kc_subphyla_PatternchainitemOutmostE = internal global [1 x i32] [i32 46], align 4
@.str.222 = private unnamed_addr constant [22 x i8] c"PatternchainitemGroup\00", align 1
@_ZN2kcL33kc_subphyla_PatternchainitemGroupE = internal global [1 x i32] [i32 42], align 4
@.str.223 = private unnamed_addr constant [25 x i8] c"PatternchainitemDollarid\00", align 1
@_ZN2kcL36kc_subphyla_PatternchainitemDollaridE = internal global [1 x i32] [i32 7], align 4
@.str.224 = private unnamed_addr constant [19 x i8] c"OPOperatorWildcard\00", align 1
@_ZN2kcL30kc_subphyla_OPOperatorWildcardE = internal global [2 x i32] [i32 7, i32 25], align 4
@.str.225 = private unnamed_addr constant [11 x i8] c"OPOperator\00", align 1
@_ZN2kcL22kc_subphyla_OPOperatorE = internal global [3 x i32] [i32 7, i32 48, i32 25], align 4
@.str.226 = private unnamed_addr constant [18 x i8] c"OPNonLeafVariable\00", align 1
@_ZN2kcL29kc_subphyla_OPNonLeafVariableE = internal global [2 x i32] [i32 7, i32 46], align 4
@.str.227 = private unnamed_addr constant [11 x i8] c"OPWildcard\00", align 1
@_ZN2kcL22kc_subphyla_OPWildcardE = internal global [1 x i32] [i32 25], align 4
@.str.228 = private unnamed_addr constant [10 x i8] c"OPDefault\00", align 1
@_ZN2kcL21kc_subphyla_OPDefaultE = internal global [1 x i32] [i32 25], align 4
@.str.229 = private unnamed_addr constant [10 x i8] c"PVariable\00", align 1
@_ZN2kcL21kc_subphyla_PVariableE = internal global [1 x i32] [i32 7], align 4
@.str.230 = private unnamed_addr constant [10 x i8] c"POperator\00", align 1
@_ZN2kcL21kc_subphyla_POperatorE = internal global [2 x i32] [i32 7, i32 48], align 4
@.str.231 = private unnamed_addr constant [17 x i8] c"PNonLeafVariable\00", align 1
@_ZN2kcL28kc_subphyla_PNonLeafVariableE = internal global [2 x i32] [i32 7, i32 47], align 4
@.str.232 = private unnamed_addr constant [10 x i8] c"PWildcard\00", align 1
@.str.233 = private unnamed_addr constant [15 x i8] c"PStringLiteral\00", align 1
@_ZN2kcL26kc_subphyla_PStringLiteralE = internal global [1 x i32] [i32 27], align 4
@.str.234 = private unnamed_addr constant [12 x i8] c"PIntLiteral\00", align 1
@_ZN2kcL23kc_subphyla_PIntLiteralE = internal global [1 x i32] [i32 8], align 4
@.str.235 = private unnamed_addr constant [12 x i8] c"Nilpatterns\00", align 1
@.str.236 = private unnamed_addr constant [13 x i8] c"Conspatterns\00", align 1
@_ZN2kcL24kc_subphyla_ConspatternsE = internal global [2 x i32] [i32 47, i32 48], align 4
@.str.237 = private unnamed_addr constant [10 x i8] c"TVariable\00", align 1
@_ZN2kcL21kc_subphyla_TVariableE = internal global [1 x i32] [i32 7], align 4
@.str.238 = private unnamed_addr constant [10 x i8] c"TOperator\00", align 1
@_ZN2kcL21kc_subphyla_TOperatorE = internal global [2 x i32] [i32 7, i32 50], align 4
@.str.239 = private unnamed_addr constant [8 x i8] c"TMethod\00", align 1
@_ZN2kcL19kc_subphyla_TMethodE = internal global [3 x i32] [i32 49, i32 7, i32 50], align 4
@.str.240 = private unnamed_addr constant [11 x i8] c"TMethodDot\00", align 1
@_ZN2kcL22kc_subphyla_TMethodDotE = internal global [3 x i32] [i32 49, i32 7, i32 50], align 4
@.str.241 = private unnamed_addr constant [11 x i8] c"TMemberVar\00", align 1
@_ZN2kcL22kc_subphyla_TMemberVarE = internal global [2 x i32] [i32 49, i32 7], align 4
@.str.242 = private unnamed_addr constant [14 x i8] c"TMemberVarDot\00", align 1
@_ZN2kcL25kc_subphyla_TMemberVarDotE = internal global [2 x i32] [i32 49, i32 7], align 4
@.str.243 = private unnamed_addr constant [7 x i8] c"TCTerm\00", align 1
@_ZN2kcL18kc_subphyla_TCTermE = internal global [1 x i32] [i32 29], align 4
@.str.244 = private unnamed_addr constant [15 x i8] c"TStringLiteral\00", align 1
@_ZN2kcL26kc_subphyla_TStringLiteralE = internal global [1 x i32] [i32 27], align 4
@.str.245 = private unnamed_addr constant [12 x i8] c"TIntLiteral\00", align 1
@_ZN2kcL23kc_subphyla_TIntLiteralE = internal global [1 x i32] [i32 8], align 4
@.str.246 = private unnamed_addr constant [9 x i8] c"Nilterms\00", align 1
@.str.247 = private unnamed_addr constant [10 x i8] c"Consterms\00", align 1
@_ZN2kcL21kc_subphyla_ConstermsE = internal global [2 x i32] [i32 49, i32 50], align 4
@.str.248 = private unnamed_addr constant [11 x i8] c"Nilfnfiles\00", align 1
@.str.249 = private unnamed_addr constant [12 x i8] c"Consfnfiles\00", align 1
@_ZN2kcL23kc_subphyla_ConsfnfilesE = internal global [2 x i32] [i32 52, i32 51], align 4
@.str.250 = private unnamed_addr constant [7 x i8] c"FnFile\00", align 1
@_ZN2kcL18kc_subphyla_FnFileE = internal global [1 x i32] [i32 2], align 4
@.str.251 = private unnamed_addr constant [18 x i8] c"Nilfndeclarations\00", align 1
@.str.252 = private unnamed_addr constant [19 x i8] c"Consfndeclarations\00", align 1
@_ZN2kcL30kc_subphyla_ConsfndeclarationsE = internal global [2 x i32] [i32 54, i32 53], align 4
@.str.253 = private unnamed_addr constant [16 x i8] c"FnAcDeclaration\00", align 1
@_ZN2kcL27kc_subphyla_FnAcDeclarationE = internal global [7 x i32] [i32 103, i32 110, i32 102, i32 129, i32 56, i32 7, i32 55], align 16
@.str.254 = private unnamed_addr constant [20 x i8] c"AcMemberDeclaration\00", align 1
@_ZN2kcL31kc_subphyla_AcMemberDeclarationE = internal global [4 x i32] [i32 103, i32 110, i32 126, i32 55], align 16
@.str.255 = private unnamed_addr constant [9 x i8] c"GlobalFn\00", align 1
@.str.256 = private unnamed_addr constant [9 x i8] c"StaticFn\00", align 1
@_ZN2kcL20kc_subphyla_StaticFnE = internal global [1 x i32] [i32 2], align 4
@.str.257 = private unnamed_addr constant [9 x i8] c"MemberFn\00", align 1
@.str.258 = private unnamed_addr constant [14 x i8] c"ConstructorFn\00", align 1
@.str.259 = private unnamed_addr constant [13 x i8] c"DestructorFn\00", align 1
@.str.260 = private unnamed_addr constant [15 x i8] c"ConvOperatorFn\00", align 1
@.str.261 = private unnamed_addr constant [9 x i8] c"NilCtext\00", align 1
@.str.262 = private unnamed_addr constant [10 x i8] c"ConsCtext\00", align 1
@_ZN2kcL21kc_subphyla_ConsCtextE = internal global [2 x i32] [i32 57, i32 56], align 4
@.str.263 = private unnamed_addr constant [10 x i8] c"CTextLine\00", align 1
@_ZN2kcL21kc_subphyla_CTextLineE = internal global [1 x i32] [i32 2], align 4
@.str.264 = private unnamed_addr constant [15 x i8] c"CTextDollarVar\00", align 1
@_ZN2kcL26kc_subphyla_CTextDollarVarE = internal global [1 x i32] [i32 8], align 4
@.str.265 = private unnamed_addr constant [8 x i8] c"CTextNl\00", align 1
@_ZN2kcL19kc_subphyla_CTextNlE = internal global [1 x i32] [i32 4], align 4
@.str.266 = private unnamed_addr constant [19 x i8] c"CTextCexpressionDQ\00", align 1
@_ZN2kcL30kc_subphyla_CTextCexpressionDQE = internal global [1 x i32] [i32 27], align 4
@.str.267 = private unnamed_addr constant [19 x i8] c"CTextCexpressionSQ\00", align 1
@_ZN2kcL30kc_subphyla_CTextCexpressionSQE = internal global [1 x i32] [i32 29], align 4
@.str.268 = private unnamed_addr constant [11 x i8] c"CTextCbody\00", align 1
@_ZN2kcL22kc_subphyla_CTextCbodyE = internal global [1 x i32] [i32 56], align 4
@.str.269 = private unnamed_addr constant [23 x i8] c"CTextForeachexpression\00", align 1
@_ZN2kcL34kc_subphyla_CTextForeachexpressionE = internal global [5 x i32] [i32 43, i32 31, i32 60, i32 56, i32 58], align 16
@.str.270 = private unnamed_addr constant [20 x i8] c"CTextWithexpression\00", align 1
@_ZN2kcL31kc_subphyla_CTextWithexpressionE = internal global [3 x i32] [i32 60, i32 62, i32 59], align 4
@.str.271 = private unnamed_addr constant [15 x i8] c"NoForeachAfter\00", align 1
@.str.272 = private unnamed_addr constant [13 x i8] c"ForeachAfter\00", align 1
@_ZN2kcL24kc_subphyla_ForeachAfterE = internal global [4 x i32] [i32 43, i32 31, i32 60, i32 56], align 16
@.str.273 = private unnamed_addr constant [17 x i8] c"InForeachContext\00", align 1
@_ZN2kcL28kc_subphyla_InForeachContextE = internal global [1 x i32] [i32 43], align 4
@.str.274 = private unnamed_addr constant [20 x i8] c"NotInForeachContext\00", align 1
@.str.275 = private unnamed_addr constant [19 x i8] c"Nilwithexpressions\00", align 1
@.str.276 = private unnamed_addr constant [20 x i8] c"Conswithexpressions\00", align 1
@_ZN2kcL31kc_subphyla_ConswithexpressionsE = internal global [2 x i32] [i32 61, i32 60], align 4
@.str.277 = private unnamed_addr constant [11 x i8] c"WEVariable\00", align 1
@_ZN2kcL22kc_subphyla_WEVariableE = internal global [1 x i32] [i32 7], align 4
@.str.278 = private unnamed_addr constant [14 x i8] c"WECexpression\00", align 1
@_ZN2kcL25kc_subphyla_WECexpressionE = internal global [1 x i32] [i32 25], align 4
@.str.279 = private unnamed_addr constant [13 x i8] c"Nilwithcases\00", align 1
@.str.280 = private unnamed_addr constant [14 x i8] c"Conswithcases\00", align 1
@_ZN2kcL25kc_subphyla_ConswithcasesE = internal global [2 x i32] [i32 63, i32 62], align 4
@.str.281 = private unnamed_addr constant [9 x i8] c"Withcase\00", align 1
@_ZN2kcL20kc_subphyla_WithcaseE = internal global [2 x i32] [i32 42, i32 56], align 4
@.str.282 = private unnamed_addr constant [23 x i8] c"Nilunparsedeclarations\00", align 1
@.str.283 = private unnamed_addr constant [24 x i8] c"Consunparsedeclarations\00", align 1
@_ZN2kcL35kc_subphyla_ConsunparsedeclarationsE = internal global [2 x i32] [i32 65, i32 64], align 4
@.str.284 = private unnamed_addr constant [19 x i8] c"UnparseDeclaration\00", align 1
@_ZN2kcL30kc_subphyla_UnparseDeclarationE = internal global [2 x i32] [i32 44, i32 66], align 4
@.str.285 = private unnamed_addr constant [18 x i8] c"Nilunparseclauses\00", align 1
@.str.286 = private unnamed_addr constant [19 x i8] c"Consunparseclauses\00", align 1
@_ZN2kcL30kc_subphyla_ConsunparseclausesE = internal global [2 x i32] [i32 67, i32 66], align 4
@.str.287 = private unnamed_addr constant [14 x i8] c"UnparseClause\00", align 1
@_ZN2kcL25kc_subphyla_UnparseClauseE = internal global [2 x i32] [i32 68, i32 69], align 4
@.str.288 = private unnamed_addr constant [13 x i8] c"Nilviewnames\00", align 1
@.str.289 = private unnamed_addr constant [14 x i8] c"Consviewnames\00", align 1
@_ZN2kcL25kc_subphyla_ConsviewnamesE = internal global [2 x i32] [i32 7, i32 68], align 4
@.str.290 = private unnamed_addr constant [16 x i8] c"Nilunparseitems\00", align 1
@.str.291 = private unnamed_addr constant [17 x i8] c"Consunparseitems\00", align 1
@_ZN2kcL28kc_subphyla_ConsunparseitemsE = internal global [2 x i32] [i32 70, i32 69], align 4
@.str.292 = private unnamed_addr constant [7 x i8] c"UnpStr\00", align 1
@_ZN2kcL18kc_subphyla_UnpStrE = internal global [3 x i32] [i32 74, i32 27, i32 73], align 4
@.str.293 = private unnamed_addr constant [11 x i8] c"UnpSubexpr\00", align 1
@_ZN2kcL22kc_subphyla_UnpSubexprE = internal global [3 x i32] [i32 74, i32 71, i32 73], align 4
@.str.294 = private unnamed_addr constant [9 x i8] c"UnpCtext\00", align 1
@_ZN2kcL20kc_subphyla_UnpCtextE = internal global [2 x i32] [i32 74, i32 56], align 4
@.str.295 = private unnamed_addr constant [8 x i8] c"UnpBody\00", align 1
@_ZN2kcL19kc_subphyla_UnpBodyE = internal global [2 x i32] [i32 74, i32 69], align 4
@.str.296 = private unnamed_addr constant [13 x i8] c"UViewVarDecl\00", align 1
@_ZN2kcL24kc_subphyla_UViewVarDeclE = internal global [3 x i32] [i32 7, i32 7, i32 25], align 4
@.str.297 = private unnamed_addr constant [11 x i8] c"UnpSubTerm\00", align 1
@_ZN2kcL22kc_subphyla_UnpSubTermE = internal global [1 x i32] [i32 7], align 4
@.str.298 = private unnamed_addr constant [17 x i8] c"UnpDollarvarTerm\00", align 1
@_ZN2kcL28kc_subphyla_UnpDollarvarTermE = internal global [1 x i32] [i32 8], align 4
@.str.299 = private unnamed_addr constant [11 x i8] c"UnpSubAttr\00", align 1
@_ZN2kcL22kc_subphyla_UnpSubAttrE = internal global [2 x i32] [i32 7, i32 72], align 4
@.str.300 = private unnamed_addr constant [17 x i8] c"UnpDollarvarAttr\00", align 1
@_ZN2kcL28kc_subphyla_UnpDollarvarAttrE = internal global [2 x i32] [i32 8, i32 72], align 4
@.str.301 = private unnamed_addr constant [18 x i8] c"UnpCastedVariable\00", align 1
@_ZN2kcL29kc_subphyla_UnpCastedVariableE = internal global [2 x i32] [i32 7, i32 7], align 4
@.str.302 = private unnamed_addr constant [17 x i8] c"Nilunpattributes\00", align 1
@.str.303 = private unnamed_addr constant [18 x i8] c"Consunpattributes\00", align 1
@_ZN2kcL29kc_subphyla_ConsunpattributesE = internal global [2 x i32] [i32 7, i32 72], align 4
@.str.304 = private unnamed_addr constant [11 x i8] c"NoViewname\00", align 1
@.str.305 = private unnamed_addr constant [12 x i8] c"YesViewname\00", align 1
@_ZN2kcL23kc_subphyla_YesViewnameE = internal global [1 x i32] [i32 7], align 4
@.str.306 = private unnamed_addr constant [15 x i8] c"NoLanguagename\00", align 1
@.str.307 = private unnamed_addr constant [13 x i8] c"LanguageList\00", align 1
@_ZN2kcL24kc_subphyla_LanguageListE = internal global [1 x i32] [i32 75], align 4
@.str.308 = private unnamed_addr constant [17 x i8] c"Nillanguagenames\00", align 1
@.str.309 = private unnamed_addr constant [18 x i8] c"Conslanguagenames\00", align 1
@_ZN2kcL29kc_subphyla_ConslanguagenamesE = internal global [2 x i32] [i32 7, i32 75], align 4
@.str.310 = private unnamed_addr constant [9 x i8] c"FileLine\00", align 1
@.str.311 = private unnamed_addr constant [11 x i8] c"NoFileLine\00", align 1
@.str.312 = private unnamed_addr constant [14 x i8] c"PosNoFileLine\00", align 1
@.str.313 = private unnamed_addr constant [26 x i8] c"Nilscopetypefilelinestack\00", align 1
@.str.314 = private unnamed_addr constant [27 x i8] c"Consscopetypefilelinestack\00", align 1
@_ZN2kcL38kc_subphyla_ConsscopetypefilelinestackE = internal global [2 x i32] [i32 78, i32 77], align 4
@.str.315 = private unnamed_addr constant [18 x i8] c"ScopeTypeFileLine\00", align 1
@_ZN2kcL29kc_subphyla_ScopeTypeFileLineE = internal global [4 x i32] [i32 4, i32 79, i32 2, i32 4], align 16
@.str.316 = private unnamed_addr constant [10 x i8] c"ITUnknown\00", align 1
@.str.317 = private unnamed_addr constant [19 x i8] c"ITPredefinedPhylum\00", align 1
@_ZN2kcL30kc_subphyla_ITPredefinedPhylumE = internal global [1 x i32] [i32 13], align 4
@.str.318 = private unnamed_addr constant [13 x i8] c"ITUserPhylum\00", align 1
@_ZN2kcL24kc_subphyla_ITUserPhylumE = internal global [1 x i32] [i32 13], align 4
@.str.319 = private unnamed_addr constant [21 x i8] c"ITPredefinedOperator\00", align 1
@_ZN2kcL32kc_subphyla_ITPredefinedOperatorE = internal global [2 x i32] [i32 18, i32 7], align 4
@.str.320 = private unnamed_addr constant [15 x i8] c"ITUserOperator\00", align 1
@_ZN2kcL26kc_subphyla_ITUserOperatorE = internal global [2 x i32] [i32 18, i32 7], align 4
@.str.321 = private unnamed_addr constant [25 x i8] c"ITPredefinedStorageClass\00", align 1
@.str.322 = private unnamed_addr constant [15 x i8] c"ITStorageClass\00", align 1
@.str.323 = private unnamed_addr constant [18 x i8] c"ITPredefinedUView\00", align 1
@.str.324 = private unnamed_addr constant [12 x i8] c"ITUserUView\00", align 1
@.str.325 = private unnamed_addr constant [11 x i8] c"ITUViewVar\00", align 1
@.str.326 = private unnamed_addr constant [18 x i8] c"ITPredefinedRView\00", align 1
@.str.327 = private unnamed_addr constant [12 x i8] c"ITUserRView\00", align 1
@.str.328 = private unnamed_addr constant [15 x i8] c"ITUserFunction\00", align 1
@_ZN2kcL26kc_subphyla_ITUserFunctionE = internal global [1 x i32] [i32 55], align 4
@.str.329 = private unnamed_addr constant [18 x i8] c"ITPatternVariable\00", align 1
@_ZN2kcL29kc_subphyla_ITPatternVariableE = internal global [2 x i32] [i32 7, i32 4], align 4
@.str.330 = private unnamed_addr constant [15 x i8] c"ITLanguageName\00", align 1
@_ZN2kcL26kc_subphyla_ITLanguageNameE = internal global [1 x i32] [i32 4], align 4
@.str.331 = private unnamed_addr constant [13 x i8] c"Niloperators\00", align 1
@.str.332 = private unnamed_addr constant [14 x i8] c"Consoperators\00", align 1
@_ZN2kcL25kc_subphyla_ConsoperatorsE = internal global [2 x i32] [i32 7, i32 80], align 4
@.str.333 = private unnamed_addr constant [9 x i8] c"Nilphyla\00", align 1
@.str.334 = private unnamed_addr constant [10 x i8] c"Consphyla\00", align 1
@_ZN2kcL21kc_subphyla_ConsphylaE = internal global [2 x i32] [i32 7, i32 81], align 4
@.str.335 = private unnamed_addr constant [13 x i8] c"Nilvariables\00", align 1
@.str.336 = private unnamed_addr constant [14 x i8] c"Consvariables\00", align 1
@_ZN2kcL25kc_subphyla_ConsvariablesE = internal global [2 x i32] [i32 7, i32 82], align 4
@.str.337 = private unnamed_addr constant [10 x i8] c"DVAllowed\00", align 1
@.str.338 = private unnamed_addr constant [13 x i8] c"DVDisallowed\00", align 1
@.str.339 = private unnamed_addr constant [6 x i8] c"Equal\00", align 1
@.str.340 = private unnamed_addr constant [8 x i8] c"Smaller\00", align 1
@.str.341 = private unnamed_addr constant [7 x i8] c"Bigger\00", align 1
@.str.342 = private unnamed_addr constant [26 x i8] c"Nilpatternrepresentations\00", align 1
@.str.343 = private unnamed_addr constant [27 x i8] c"Conspatternrepresentations\00", align 1
@_ZN2kcL38kc_subphyla_ConspatternrepresentationsE = internal global [2 x i32] [i32 86, i32 85], align 4
@.str.344 = private unnamed_addr constant [25 x i8] c"Nilpatternrepresentation\00", align 1
@.str.345 = private unnamed_addr constant [26 x i8] c"Conspatternrepresentation\00", align 1
@_ZN2kcL37kc_subphyla_ConspatternrepresentationE = internal global [2 x i32] [i32 87, i32 86], align 4
@.str.346 = private unnamed_addr constant [10 x i8] c"PRBinding\00", align 1
@_ZN2kcL21kc_subphyla_PRBindingE = internal global [2 x i32] [i32 88, i32 7], align 4
@.str.347 = private unnamed_addr constant [15 x i8] c"PRVarPredicate\00", align 1
@_ZN2kcL26kc_subphyla_PRVarPredicateE = internal global [3 x i32] [i32 89, i32 7, i32 86], align 4
@.str.348 = private unnamed_addr constant [16 x i8] c"PROperPredicate\00", align 1
@_ZN2kcL27kc_subphyla_PROperPredicateE = internal global [2 x i32] [i32 88, i32 7], align 4
@.str.349 = private unnamed_addr constant [16 x i8] c"PRUserPredicate\00", align 1
@_ZN2kcL27kc_subphyla_PRUserPredicateE = internal global [1 x i32] [i32 25], align 4
@.str.350 = private unnamed_addr constant [17 x i8] c"PRNonLeafBinding\00", align 1
@_ZN2kcL28kc_subphyla_PRNonLeafBindingE = internal global [3 x i32] [i32 88, i32 7, i32 86], align 4
@.str.351 = private unnamed_addr constant [11 x i8] c"PRWildcard\00", align 1
@_ZN2kcL22kc_subphyla_PRWildcardE = internal global [1 x i32] [i32 88], align 4
@.str.352 = private unnamed_addr constant [10 x i8] c"PRDefault\00", align 1
@.str.353 = private unnamed_addr constant [16 x i8] c"PRStringLiteral\00", align 1
@_ZN2kcL27kc_subphyla_PRStringLiteralE = internal global [2 x i32] [i32 88, i32 27], align 4
@.str.354 = private unnamed_addr constant [13 x i8] c"PRIntLiteral\00", align 1
@_ZN2kcL24kc_subphyla_PRIntLiteralE = internal global [2 x i32] [i32 88, i32 8], align 4
@.str.355 = private unnamed_addr constant [8 x i8] c"Nilpath\00", align 1
@.str.356 = private unnamed_addr constant [9 x i8] c"Conspath\00", align 1
@_ZN2kcL20kc_subphyla_ConspathE = internal global [2 x i32] [i32 4, i32 88], align 4
@.str.357 = private unnamed_addr constant [9 x i8] c"Nilpaths\00", align 1
@.str.358 = private unnamed_addr constant [10 x i8] c"Conspaths\00", align 1
@_ZN2kcL21kc_subphyla_ConspathsE = internal global [2 x i32] [i32 88, i32 89], align 4
@.str.359 = private unnamed_addr constant [15 x i8] c"Nilargsnumbers\00", align 1
@.str.360 = private unnamed_addr constant [16 x i8] c"Consargsnumbers\00", align 1
@_ZN2kcL27kc_subphyla_ConsargsnumbersE = internal global [2 x i32] [i32 4, i32 90], align 4
@.str.361 = private unnamed_addr constant [20 x i8] c"Nilrewriterulesinfo\00", align 1
@.str.362 = private unnamed_addr constant [21 x i8] c"Consrewriterulesinfo\00", align 1
@_ZN2kcL32kc_subphyla_ConsrewriterulesinfoE = internal global [2 x i32] [i32 92, i32 91], align 4
@.str.363 = private unnamed_addr constant [16 x i8] c"Rewriteruleinfo\00", align 1
@_ZN2kcL27kc_subphyla_RewriteruleinfoE = internal global [3 x i32] [i32 86, i32 86, i32 41], align 4
@.str.364 = private unnamed_addr constant [17 x i8] c"Nilwithcasesinfo\00", align 1
@.str.365 = private unnamed_addr constant [18 x i8] c"Conswithcasesinfo\00", align 1
@_ZN2kcL29kc_subphyla_ConswithcasesinfoE = internal global [2 x i32] [i32 94, i32 93], align 4
@.str.366 = private unnamed_addr constant [13 x i8] c"Withcaseinfo\00", align 1
@_ZN2kcL24kc_subphyla_WithcaseinfoE = internal global [3 x i32] [i32 86, i32 86, i32 56], align 4
@.str.367 = private unnamed_addr constant [20 x i8] c"Nilrewriteviewsinfo\00", align 1
@.str.368 = private unnamed_addr constant [21 x i8] c"Consrewriteviewsinfo\00", align 1
@_ZN2kcL32kc_subphyla_ConsrewriteviewsinfoE = internal global [2 x i32] [i32 96, i32 95], align 4
@.str.369 = private unnamed_addr constant [16 x i8] c"Rewriteviewinfo\00", align 1
@_ZN2kcL27kc_subphyla_RewriteviewinfoE = internal global [2 x i32] [i32 7, i32 91], align 4
@.str.370 = private unnamed_addr constant [20 x i8] c"Nilunparseviewsinfo\00", align 1
@.str.371 = private unnamed_addr constant [21 x i8] c"Consunparseviewsinfo\00", align 1
@_ZN2kcL32kc_subphyla_ConsunparseviewsinfoE = internal global [2 x i32] [i32 98, i32 97], align 4
@.str.372 = private unnamed_addr constant [16 x i8] c"Unparseviewinfo\00", align 1
@_ZN2kcL27kc_subphyla_UnparseviewinfoE = internal global [2 x i32] [i32 7, i32 99], align 4
@.str.373 = private unnamed_addr constant [20 x i8] c"Nilunparsedeclsinfo\00", align 1
@.str.374 = private unnamed_addr constant [21 x i8] c"Consunparsedeclsinfo\00", align 1
@_ZN2kcL32kc_subphyla_ConsunparsedeclsinfoE = internal global [2 x i32] [i32 100, i32 99], align 4
@.str.375 = private unnamed_addr constant [16 x i8] c"Unparsedeclinfo\00", align 1
@_ZN2kcL27kc_subphyla_UnparsedeclinfoE = internal global [3 x i32] [i32 86, i32 86, i32 67], align 4
@.str.376 = private unnamed_addr constant [14 x i8] c"AcDeclaration\00", align 1
@_ZN2kcL25kc_subphyla_AcDeclarationE = internal global [2 x i32] [i32 103, i32 108], align 4
@.str.377 = private unnamed_addr constant [23 x i8] c"Nilac_declaration_list\00", align 1
@.str.378 = private unnamed_addr constant [24 x i8] c"Consac_declaration_list\00", align 1
@_ZN2kcL35kc_subphyla_Consac_declaration_listE = internal global [2 x i32] [i32 101, i32 102], align 4
@.str.379 = private unnamed_addr constant [29 x i8] c"Nilac_declaration_specifiers\00", align 1
@.str.380 = private unnamed_addr constant [30 x i8] c"Consac_declaration_specifiers\00", align 1
@_ZN2kcL41kc_subphyla_Consac_declaration_specifiersE = internal global [2 x i32] [i32 104, i32 103], align 4
@.str.381 = private unnamed_addr constant [22 x i8] c"AcDeclSpecStorageSpec\00", align 1
@_ZN2kcL33kc_subphyla_AcDeclSpecStorageSpecE = internal global [1 x i32] [i32 105], align 4
@.str.382 = private unnamed_addr constant [19 x i8] c"AcDeclSpecTypeSpec\00", align 1
@_ZN2kcL30kc_subphyla_AcDeclSpecTypeSpecE = internal global [1 x i32] [i32 106], align 4
@.str.383 = private unnamed_addr constant [19 x i8] c"AcDeclSpecTypeQual\00", align 1
@_ZN2kcL30kc_subphyla_AcDeclSpecTypeQualE = internal global [1 x i32] [i32 107], align 4
@.str.384 = private unnamed_addr constant [7 x i8] c"AcAuto\00", align 1
@.str.385 = private unnamed_addr constant [11 x i8] c"AcRegister\00", align 1
@.str.386 = private unnamed_addr constant [9 x i8] c"AcStatic\00", align 1
@.str.387 = private unnamed_addr constant [9 x i8] c"AcExtern\00", align 1
@.str.388 = private unnamed_addr constant [10 x i8] c"AcTypedef\00", align 1
@.str.389 = private unnamed_addr constant [10 x i8] c"AcVirtual\00", align 1
@.str.390 = private unnamed_addr constant [11 x i8] c"AcTypeSpec\00", align 1
@_ZN2kcL22kc_subphyla_AcTypeSpecE = internal global [1 x i32] [i32 7], align 4
@.str.391 = private unnamed_addr constant [8 x i8] c"AcConst\00", align 1
@.str.392 = private unnamed_addr constant [11 x i8] c"AcVolatile\00", align 1
@.str.393 = private unnamed_addr constant [11 x i8] c"AcUnsigned\00", align 1
@.str.394 = private unnamed_addr constant [14 x i8] c"AcNoQualifier\00", align 1
@.str.395 = private unnamed_addr constant [27 x i8] c"Nilac_init_declarator_list\00", align 1
@.str.396 = private unnamed_addr constant [28 x i8] c"Consac_init_declarator_list\00", align 1
@_ZN2kcL39kc_subphyla_Consac_init_declarator_listE = internal global [2 x i32] [i32 109, i32 108], align 4
@.str.397 = private unnamed_addr constant [11 x i8] c"AcInitDecl\00", align 1
@_ZN2kcL22kc_subphyla_AcInitDeclE = internal global [1 x i32] [i32 110], align 4
@.str.398 = private unnamed_addr constant [13 x i8] c"AcDeclarator\00", align 1
@_ZN2kcL24kc_subphyla_AcDeclaratorE = internal global [3 x i32] [i32 112, i32 114, i32 111], align 4
@.str.399 = private unnamed_addr constant [15 x i8] c"AcDirectDeclId\00", align 1
@_ZN2kcL26kc_subphyla_AcDirectDeclIdE = internal global [1 x i32] [i32 7], align 4
@.str.400 = private unnamed_addr constant [17 x i8] c"AcDirectDeclPack\00", align 1
@_ZN2kcL28kc_subphyla_AcDirectDeclPackE = internal global [1 x i32] [i32 110], align 4
@.str.401 = private unnamed_addr constant [18 x i8] c"AcDirectDeclArray\00", align 1
@_ZN2kcL29kc_subphyla_AcDirectDeclArrayE = internal global [2 x i32] [i32 111, i32 126], align 4
@.str.402 = private unnamed_addr constant [18 x i8] c"AcDirectDeclProto\00", align 1
@_ZN2kcL29kc_subphyla_AcDirectDeclProtoE = internal global [2 x i32] [i32 111, i32 119], align 4
@.str.403 = private unnamed_addr constant [21 x i8] c"AcQualifiedDeclProto\00", align 1
@_ZN2kcL32kc_subphyla_AcQualifiedDeclProtoE = internal global [4 x i32] [i32 117, i32 111, i32 119, i32 107], align 16
@.str.404 = private unnamed_addr constant [13 x i8] c"AcMemberDecl\00", align 1
@_ZN2kcL24kc_subphyla_AcMemberDeclE = internal global [3 x i32] [i32 7, i32 7, i32 128], align 4
@.str.405 = private unnamed_addr constant [19 x i8] c"AcConvOperatorDecl\00", align 1
@_ZN2kcL30kc_subphyla_AcConvOperatorDeclE = internal global [2 x i32] [i32 7, i32 7], align 4
@.str.406 = private unnamed_addr constant [17 x i8] c"AcOperatorDeclId\00", align 1
@_ZN2kcL28kc_subphyla_AcOperatorDeclIdE = internal global [1 x i32] [i32 115], align 4
@.str.407 = private unnamed_addr constant [10 x i8] c"Nopointer\00", align 1
@.str.408 = private unnamed_addr constant [11 x i8] c"Yespointer\00", align 1
@_ZN2kcL22kc_subphyla_YespointerE = internal global [1 x i32] [i32 113], align 4
@.str.409 = private unnamed_addr constant [13 x i8] c"AcPointerNil\00", align 1
@_ZN2kcL24kc_subphyla_AcPointerNilE = internal global [1 x i32] [i32 118], align 4
@.str.410 = private unnamed_addr constant [14 x i8] c"AcPointerCons\00", align 1
@_ZN2kcL25kc_subphyla_AcPointerConsE = internal global [2 x i32] [i32 118, i32 113], align 4
@.str.411 = private unnamed_addr constant [8 x i8] c"AcNoRef\00", align 1
@.str.412 = private unnamed_addr constant [6 x i8] c"AcRef\00", align 1
@.str.413 = private unnamed_addr constant [15 x i8] c"AcOperatorName\00", align 1
@_ZN2kcL26kc_subphyla_AcOperatorNameE = internal global [1 x i32] [i32 2], align 4
@.str.414 = private unnamed_addr constant [32 x i8] c"Nilac_class_qualifier_help_list\00", align 1
@.str.415 = private unnamed_addr constant [33 x i8] c"Consac_class_qualifier_help_list\00", align 1
@_ZN2kcL44kc_subphyla_Consac_class_qualifier_help_listE = internal global [2 x i32] [i32 111, i32 116], align 4
@.str.416 = private unnamed_addr constant [27 x i8] c"Nilac_class_qualifier_list\00", align 1
@.str.417 = private unnamed_addr constant [28 x i8] c"Consac_class_qualifier_list\00", align 1
@_ZN2kcL39kc_subphyla_Consac_class_qualifier_listE = internal global [2 x i32] [i32 7, i32 117], align 4
@.str.418 = private unnamed_addr constant [26 x i8] c"Nilac_type_qualifier_list\00", align 1
@.str.419 = private unnamed_addr constant [27 x i8] c"Consac_type_qualifier_list\00", align 1
@_ZN2kcL38kc_subphyla_Consac_type_qualifier_listE = internal global [2 x i32] [i32 107, i32 118], align 4
@.str.420 = private unnamed_addr constant [10 x i8] c"AcParList\00", align 1
@_ZN2kcL21kc_subphyla_AcParListE = internal global [1 x i32] [i32 120], align 4
@.str.421 = private unnamed_addr constant [14 x i8] c"AcParList3Dot\00", align 1
@_ZN2kcL25kc_subphyla_AcParList3DotE = internal global [1 x i32] [i32 120], align 4
@.str.422 = private unnamed_addr constant [21 x i8] c"Nilac_parameter_list\00", align 1
@.str.423 = private unnamed_addr constant [22 x i8] c"Consac_parameter_list\00", align 1
@_ZN2kcL33kc_subphyla_Consac_parameter_listE = internal global [2 x i32] [i32 121, i32 120], align 4
@.str.424 = private unnamed_addr constant [14 x i8] c"AcParDeclDecl\00", align 1
@_ZN2kcL25kc_subphyla_AcParDeclDeclE = internal global [3 x i32] [i32 103, i32 110, i32 126], align 4
@.str.425 = private unnamed_addr constant [17 x i8] c"AcParDeclAbsdecl\00", align 1
@_ZN2kcL28kc_subphyla_AcParDeclAbsdeclE = internal global [3 x i32] [i32 103, i32 123, i32 126], align 4
@.str.426 = private unnamed_addr constant [22 x i8] c"Nilac_identifier_list\00", align 1
@.str.427 = private unnamed_addr constant [23 x i8] c"Consac_identifier_list\00", align 1
@_ZN2kcL34kc_subphyla_Consac_identifier_listE = internal global [2 x i32] [i32 7, i32 122], align 4
@.str.428 = private unnamed_addr constant [17 x i8] c"AcAbsdeclPointer\00", align 1
@_ZN2kcL28kc_subphyla_AcAbsdeclPointerE = internal global [1 x i32] [i32 113], align 4
@.str.429 = private unnamed_addr constant [17 x i8] c"AcAbsdeclDirdecl\00", align 1
@_ZN2kcL28kc_subphyla_AcAbsdeclDirdeclE = internal global [2 x i32] [i32 112, i32 125], align 4
@.str.430 = private unnamed_addr constant [32 x i8] c"Noac_direct_abstract_declarator\00", align 1
@.str.431 = private unnamed_addr constant [33 x i8] c"Yesac_direct_abstract_declarator\00", align 1
@_ZN2kcL44kc_subphyla_Yesac_direct_abstract_declaratorE = internal global [1 x i32] [i32 125], align 4
@.str.432 = private unnamed_addr constant [17 x i8] c"AcDirAbsdeclPack\00", align 1
@_ZN2kcL28kc_subphyla_AcDirAbsdeclPackE = internal global [1 x i32] [i32 123], align 4
@.str.433 = private unnamed_addr constant [18 x i8] c"AcDirAbsdeclArray\00", align 1
@_ZN2kcL29kc_subphyla_AcDirAbsdeclArrayE = internal global [2 x i32] [i32 124, i32 126], align 4
@.str.434 = private unnamed_addr constant [15 x i8] c"AcDirAbsdeclFn\00", align 1
@_ZN2kcL26kc_subphyla_AcDirAbsdeclFnE = internal global [2 x i32] [i32 124, i32 119], align 4
@.str.435 = private unnamed_addr constant [26 x i8] c"Yesac_constant_expression\00", align 1
@_ZN2kcL37kc_subphyla_Yesac_constant_expressionE = internal global [1 x i32] [i32 127], align 4
@.str.436 = private unnamed_addr constant [25 x i8] c"Noac_constant_expression\00", align 1
@.str.437 = private unnamed_addr constant [12 x i8] c"AcConstExpr\00", align 1
@_ZN2kcL23kc_subphyla_AcConstExprE = internal global [1 x i32] [i32 25], align 4
@.str.438 = private unnamed_addr constant [31 x i8] c"Nilac_constant_expression_list\00", align 1
@.str.439 = private unnamed_addr constant [32 x i8] c"Consac_constant_expression_list\00", align 1
@_ZN2kcL43kc_subphyla_Consac_constant_expression_listE = internal global [2 x i32] [i32 127, i32 128], align 4
@.str.440 = private unnamed_addr constant [13 x i8] c"AcNoBaseInit\00", align 1
@.str.441 = private unnamed_addr constant [14 x i8] c"AcYesBaseInit\00", align 1
@_ZN2kcL25kc_subphyla_AcYesBaseInitE = internal global [1 x i32] [i32 130], align 4
@.str.442 = private unnamed_addr constant [21 x i8] c"Nilac_base_init_list\00", align 1
@.str.443 = private unnamed_addr constant [22 x i8] c"Consac_base_init_list\00", align 1
@_ZN2kcL33kc_subphyla_Consac_base_init_listE = internal global [2 x i32] [i32 131, i32 130], align 4
@.str.444 = private unnamed_addr constant [11 x i8] c"AcBaseInit\00", align 1
@_ZN2kcL22kc_subphyla_AcBaseInitE = internal global [2 x i32] [i32 7, i32 127], align 4
@.str.445 = private unnamed_addr constant [26 x i8] c"Nilbaseclass_declarations\00", align 1
@.str.446 = private unnamed_addr constant [27 x i8] c"Consbaseclass_declarations\00", align 1
@_ZN2kcL38kc_subphyla_Consbaseclass_declarationsE = internal global [2 x i32] [i32 133, i32 132], align 4
@.str.447 = private unnamed_addr constant [14 x i8] c"BaseClassDecl\00", align 1
@_ZN2kcL25kc_subphyla_BaseClassDeclE = internal global [2 x i32] [i32 7, i32 134], align 4
@.str.448 = private unnamed_addr constant [18 x i8] c"Nilbaseclass_list\00", align 1
@.str.449 = private unnamed_addr constant [19 x i8] c"Consbaseclass_list\00", align 1
@_ZN2kcL30kc_subphyla_Consbaseclass_listE = internal global [2 x i32] [i32 7, i32 134], align 4
@.str.450 = private unnamed_addr constant [6 x i8] c"Fatal\00", align 1
@_ZN2kcL17kc_subphyla_FatalE = internal global [2 x i32] [i32 76, i32 136], align 4
@.str.451 = private unnamed_addr constant [9 x i8] c"NonFatal\00", align 1
@_ZN2kcL20kc_subphyla_NonFatalE = internal global [2 x i32] [i32 76, i32 136], align 4
@.str.452 = private unnamed_addr constant [8 x i8] c"Warning\00", align 1
@_ZN2kcL19kc_subphyla_WarningE = internal global [2 x i32] [i32 76, i32 136], align 4
@.str.453 = private unnamed_addr constant [9 x i8] c"Problem1\00", align 1
@_ZN2kcL20kc_subphyla_Problem1E = internal global [1 x i32] [i32 2], align 4
@.str.454 = private unnamed_addr constant [11 x i8] c"Problem1ID\00", align 1
@_ZN2kcL22kc_subphyla_Problem1IDE = internal global [2 x i32] [i32 2, i32 7], align 4
@.str.455 = private unnamed_addr constant [12 x i8] c"Problem1tID\00", align 1
@_ZN2kcL23kc_subphyla_Problem1tIDE = internal global [2 x i32] [i32 2, i32 7], align 4
@.str.456 = private unnamed_addr constant [11 x i8] c"Problem1we\00", align 1
@_ZN2kcL22kc_subphyla_Problem1weE = internal global [2 x i32] [i32 2, i32 61], align 4
@.str.457 = private unnamed_addr constant [14 x i8] c"Problem1ID1ID\00", align 1
@_ZN2kcL25kc_subphyla_Problem1ID1IDE = internal global [4 x i32] [i32 2, i32 7, i32 2, i32 7], align 16
@.str.458 = private unnamed_addr constant [13 x i8] c"Problem1t1ID\00", align 1
@_ZN2kcL24kc_subphyla_Problem1t1IDE = internal global [4 x i32] [i32 2, i32 79, i32 2, i32 7], align 16
@.str.459 = private unnamed_addr constant [12 x i8] c"Problem1INT\00", align 1
@_ZN2kcL23kc_subphyla_Problem1INTE = internal global [2 x i32] [i32 2, i32 8], align 4
@.str.460 = private unnamed_addr constant [13 x i8] c"Problem1int1\00", align 1
@_ZN2kcL24kc_subphyla_Problem1int1E = internal global [3 x i32] [i32 2, i32 4, i32 2], align 4
@.str.461 = private unnamed_addr constant [15 x i8] c"Problem1INT1ID\00", align 1
@_ZN2kcL26kc_subphyla_Problem1INT1IDE = internal global [4 x i32] [i32 2, i32 8, i32 2, i32 7], align 16
@.str.462 = private unnamed_addr constant [17 x i8] c"Problem1ID1ID1ID\00", align 1
@_ZN2kcL28kc_subphyla_Problem1ID1ID1IDE = internal global [6 x i32] [i32 2, i32 7, i32 2, i32 7, i32 2, i32 7], align 16
@.str.463 = private unnamed_addr constant [18 x i8] c"Problem1INT1ID1ID\00", align 1
@_ZN2kcL29kc_subphyla_Problem1INT1ID1IDE = internal global [6 x i32] [i32 2, i32 8, i32 2, i32 7, i32 2, i32 7], align 16
@.str.464 = private unnamed_addr constant [25 x i8] c"Problem1storageoption1ID\00", align 1
@_ZN2kcL36kc_subphyla_Problem1storageoption1IDE = internal global [4 x i32] [i32 2, i32 14, i32 2, i32 7], align 16
@.str.465 = private unnamed_addr constant [9 x i8] c"Problem2\00", align 1
@_ZN2kcL20kc_subphyla_Problem2E = internal global [2 x i32] [i32 2, i32 2], align 4
@.str.466 = private unnamed_addr constant [9 x i8] c"Problem3\00", align 1
@_ZN2kcL20kc_subphyla_Problem3E = internal global [3 x i32] [i32 2, i32 2, i32 2], align 4
@.str.467 = private unnamed_addr constant [13 x i8] c"Problem3int1\00", align 1
@_ZN2kcL24kc_subphyla_Problem3int1E = internal global [5 x i32] [i32 2, i32 2, i32 2, i32 4, i32 2], align 16
@.str.468 = private unnamed_addr constant [9 x i8] c"Problem4\00", align 1
@_ZN2kcL20kc_subphyla_Problem4E = internal global [4 x i32] [i32 2, i32 2, i32 2, i32 2], align 16
@.str.469 = private unnamed_addr constant [9 x i8] c"Problem5\00", align 1
@_ZN2kcL20kc_subphyla_Problem5E = internal global [5 x i32] [i32 2, i32 2, i32 2, i32 2, i32 2], align 16
@.str.470 = private unnamed_addr constant [9 x i8] c"Problem6\00", align 1
@_ZN2kcL20kc_subphyla_Problem6E = internal global [6 x i32] [i32 2, i32 2, i32 2, i32 2, i32 2, i32 2], align 16
@.str.471 = private unnamed_addr constant [27 x i8] c"Niladdedphylumdeclarations\00", align 1
@.str.472 = private unnamed_addr constant [28 x i8] c"Consaddedphylumdeclarations\00", align 1
@_ZN2kcL39kc_subphyla_ConsaddedphylumdeclarationsE = internal global [2 x i32] [i32 138, i32 137], align 4
@.str.473 = private unnamed_addr constant [23 x i8] c"AddedPhylumdeclaration\00", align 1
@_ZN2kcL34kc_subphyla_AddedPhylumdeclarationE = internal global [1 x i32] [i32 6], align 4
@.str.474 = private unnamed_addr constant [29 x i8] c"Nilcountedphylumdeclarations\00", align 1
@.str.475 = private unnamed_addr constant [30 x i8] c"Conscountedphylumdeclarations\00", align 1
@_ZN2kcL41kc_subphyla_ConscountedphylumdeclarationsE = internal global [2 x i32] [i32 140, i32 139], align 4
@.str.476 = private unnamed_addr constant [25 x i8] c"CountedPhylumdeclaration\00", align 1
@_ZN2kcL36kc_subphyla_CountedPhylumdeclarationE = internal global [1 x i32] [i32 6], align 4
@.str.477 = private unnamed_addr constant [9 x i8] c"Newlines\00", align 1
@.str.478 = private unnamed_addr constant [15 x i8] c"QuotedNewlines\00", align 1
@.str.479 = private unnamed_addr constant [6 x i8] c"Stars\00", align 1
@.str.480 = private unnamed_addr constant [18 x i8] c"Nilbindingidmarks\00", align 1
@.str.481 = private unnamed_addr constant [19 x i8] c"Consbindingidmarks\00", align 1
@_ZN2kcL30kc_subphyla_ConsbindingidmarksE = internal global [2 x i32] [i32 143, i32 142], align 4
@.str.482 = private unnamed_addr constant [14 x i8] c"BindingIdMark\00", align 1
@_ZN2kcL25kc_subphyla_BindingIdMarkE = internal global [1 x i32] [i32 6], align 4
@_ZN2kc13operator_infoE = dso_local local_unnamed_addr global [340 x %"struct.kc::KC_OPERATOR_INFO"] [%"struct.kc::KC_OPERATOR_INFO" { ptr @.str, i64 0, i8 0, i32 0, ptr null, i32 0, ptr null, i64 0 }, %"struct.kc::KC_OPERATOR_INFO" { ptr @.str.145, i64 0, i8 1, i32 1, ptr null, i32 0, ptr null, i64 16 }, %"struct.kc::KC_OPERATOR_INFO" { ptr @.str.146, i64 0, i8 1, i32 2, ptr null, i32 0, ptr null, i64 16 }, %"struct.kc::KC_OPERATOR_INFO" { ptr @.str.147, i64 0, i8 1, i32 3, ptr null, i32 0, ptr null, i64 16 }, %"struct.kc::KC_OPERATOR_INFO" { ptr @.str.148, i64 0, i8 1, i32 4, ptr null, i32 0, ptr null, i64 16 }, %"struct.kc::KC_OPERATOR_INFO" { ptr @.str.149, i64 0, i8 1, i32 5, ptr null, i32 0, ptr null, i64 16 }, %"struct.kc::KC_OPERATOR_INFO" { ptr @.str.150, i64 1, i8 0, i32 6, ptr @_ZN2kcL15kc_subphyla_StrE, i32 0, ptr null, i64 48 }, %"struct.kc::KC_OPERATOR_INFO" { ptr @.str.151, i64 1, i8 0, i32 7, ptr @_ZN2kcL14kc_subphyla_IdE, i32 0, ptr null, i64 48 }, %"struct.kc::KC_OPERATOR_INFO" { ptr @.str.152, i64 1, i8 0, i32 8, ptr @_ZN2kcL15kc_subphyla_IntE, i32 0, ptr null, i64 32 }, %"struct.kc::KC_OPERATOR_INFO" { ptr @.str.153, i64 1, i8 0, i32 9, ptr @_ZN2kcL18kc_subphyla_StringE, i32 0, ptr null, i64 32 }, %"struct.kc::KC_OPERATOR_INFO" { ptr @.str.154, i64 1, i8 0, i32 10, ptr @_ZN2kcL30kc_subphyla_PhylumDeclarationsE, i32 0, ptr null, i64 16 }, %"struct.kc::KC_OPERATOR_INFO" { ptr @.str.155, i64 0, i8 0, i32 11, ptr null, i32 0, ptr null, i64 24 }, %"struct.kc::KC_OPERATOR_INFO" { ptr @.str.156, i64 2, i8 0, i32 11, ptr @_ZN2kcL34kc_subphyla_ConsphylumdeclarationsE, i32 0, ptr null, i64 24 }, %"struct.kc::KC_OPERATOR_INFO" { ptr @.str.157, i64 0, i8 0, i32 12, ptr null, i32 0, ptr null, i64 24 }, %"struct.kc::KC_OPERATOR_INFO" { ptr @.str.158, i64 2, i8 0, i32 12, ptr @_ZN2kcL27kc_subphyla_ConsphylumnamesE, i32 0, ptr null, i64 24 }, %"struct.kc::KC_OPERATOR_INFO" { ptr @.str.159, i64 4, i8 0, i32 13, ptr @_ZN2kcL29kc_subphyla_PhylumDeclarationE, i32 0, ptr null, i64 64 }, %"struct.kc::KC_OPERATOR_INFO" { ptr @.str.160, i64 0, i8 0, i32 14, ptr null, i32 0, ptr null, i64 8 }, %"struct.kc::KC_OPERATOR_INFO" { ptr @.str.161, i64 1, i8 0, i32 14, ptr @_ZN2kcL33kc_subphyla_NegativeStorageOptionE, i32 0, ptr null, i64 16 }, %"struct.kc::KC_OPERATOR_INFO" { ptr @.str.162, i64 1, i8 0, i32 14, ptr @_ZN2kcL33kc_subphyla_PositiveStorageOptionE, i32 0, ptr null, i64 16 }, %"struct.kc::KC_OPERATOR_INFO" { ptr @.str.163, i64 0, i8 0, i32 15, ptr null, i32 0, ptr null, i64 32 }, %"struct.kc::KC_OPERATOR_INFO" { ptr @.str.164, i64 2, i8 0, i32 15, ptr @_ZN2kcL30kc_subphyla_ConsstorageclassesE, i32 0, ptr null, i64 32 }, %"struct.kc::KC_OPERATOR_INFO" { ptr @.str.165, i64 0, i8 0, i32 16, ptr null, i32 0, ptr null, i64 8 }, %"struct.kc::KC_OPERATOR_INFO" { ptr @.str.166, i64 2, i8 0, i32 16, ptr @_ZN2kcL28kc_subphyla_ListAlternativesE, i32 0, ptr null, i64 24 }, %"struct.kc::KC_OPERATOR_INFO" { ptr @.str.167, i64 1, i8 0, i32 16, ptr @_ZN2kcL31kc_subphyla_NonlistAlternativesE, i32 0, ptr null, i64 16 }, %"struct.kc::KC_OPERATOR_INFO" { ptr @.str.168, i64 1, i8 0, i32 16, ptr @_ZN2kcL34kc_subphyla_PredefinedAlternativesE, i32 0, ptr null, i64 16 }, %"struct.kc::KC_OPERATOR_INFO" { ptr @.str.169, i64 0, i8 0, i32 17, ptr null, i32 0, ptr null, i64 24 }, %"struct.kc::KC_OPERATOR_INFO" { ptr @.str.170, i64 2, i8 0, i32 17, ptr @_ZN2kcL28kc_subphyla_ConsalternativesE, i32 0, ptr null, i64 24 }, %"struct.kc::KC_OPERATOR_INFO" { ptr @.str.171, i64 2, i8 0, i32 18, ptr @_ZN2kcL23kc_subphyla_AlternativeE, i32 0, ptr null, i64 56 }, %"struct.kc::KC_OPERATOR_INFO" { ptr @.str.172, i64 0, i8 0, i32 19, ptr null, i32 0, ptr null, i64 32 }, %"struct.kc::KC_OPERATOR_INFO" { ptr @.str.173, i64 2, i8 0, i32 19, ptr @_ZN2kcL25kc_subphyla_ConsargumentsE, i32 0, ptr null, i64 32 }, %"struct.kc::KC_OPERATOR_INFO" { ptr @.str.174, i64 2, i8 0, i32 20, ptr @_ZN2kcL20kc_subphyla_ArgumentE, i32 0, ptr null, i64 24 }, %"struct.kc::KC_OPERATOR_INFO" { ptr @.str.175, i64 2, i8 0, i32 21, ptr @_ZN2kcL23kc_subphyla_CcodeOptionE, i32 0, ptr null, i64 24 }, %"struct.kc::KC_OPERATOR_INFO" { ptr @.str.176, i64 0, i8 0, i32 22, ptr null, i32 0, ptr null, i64 24 }, %"struct.kc::KC_OPERATOR_INFO" { ptr @.str.177, i64 2, i8 0, i32 22, ptr @_ZN2kcL26kc_subphyla_ConsattributesE, i32 0, ptr null, i64 24 }, %"struct.kc::KC_OPERATOR_INFO" { ptr @.str.178, i64 3, i8 0, i32 23, ptr @_ZN2kcL21kc_subphyla_AttributeE, i32 0, ptr null, i64 32 }, %"struct.kc::KC_OPERATOR_INFO" { ptr @.str.179, i64 0, i8 0, i32 24, ptr null, i32 0, ptr null, i64 8 }, %"struct.kc::KC_OPERATOR_INFO" { ptr @.str.180, i64 1, i8 0, i32 24, ptr @_ZN2kcL39kc_subphyla_Yesattribute_initialisationE, i32 0, ptr null, i64 16 }, %"struct.kc::KC_OPERATOR_INFO" { ptr @.str.181, i64 0, i8 0, i32 25, ptr null, i32 0, ptr null, i64 40 }, %"struct.kc::KC_OPERATOR_INFO" { ptr @.str.182, i64 2, i8 0, i32 25, ptr @_ZN2kcL27kc_subphyla_ConsCexpressionE, i32 0, ptr null, i64 40 }, %"struct.kc::KC_OPERATOR_INFO" { ptr @.str.183, i64 1, i8 0, i32 26, ptr @_ZN2kcL27kc_subphyla_CExpressionPartE, i32 0, ptr null, i64 16 }, %"struct.kc::KC_OPERATOR_INFO" { ptr @.str.184, i64 1, i8 0, i32 26, ptr @_ZN2kcL32kc_subphyla_CExpressionDollarvarE, i32 0, ptr null, i64 16 }, %"struct.kc::KC_OPERATOR_INFO" { ptr @.str.185, i64 0, i8 0, i32 26, ptr null, i32 0, ptr null, i64 8 }, %"struct.kc::KC_OPERATOR_INFO" { ptr @.str.186, i64 1, i8 0, i32 26, ptr @_ZN2kcL25kc_subphyla_CExpressionDQE, i32 0, ptr null, i64 16 }, %"struct.kc::KC_OPERATOR_INFO" { ptr @.str.187, i64 1, i8 0, i32 26, ptr @_ZN2kcL25kc_subphyla_CExpressionSQE, i32 0, ptr null, i64 16 }, %"struct.kc::KC_OPERATOR_INFO" { ptr @.str.188, i64 1, i8 0, i32 26, ptr @_ZN2kcL27kc_subphyla_CExpressionPackE, i32 0, ptr null, i64 16 }, %"struct.kc::KC_OPERATOR_INFO" { ptr @.str.189, i64 1, i8 0, i32 26, ptr @_ZN2kcL28kc_subphyla_CExpressionArrayE, i32 0, ptr null, i64 16 }, %"struct.kc::KC_OPERATOR_INFO" { ptr @.str.190, i64 0, i8 0, i32 27, ptr null, i32 0, ptr null, i64 24 }, %"struct.kc::KC_OPERATOR_INFO" { ptr @.str.191, i64 2, i8 0, i32 27, ptr @_ZN2kcL29kc_subphyla_ConsCexpressionDQE, i32 0, ptr null, i64 24 }, %"struct.kc::KC_OPERATOR_INFO" { ptr @.str.192, i64 1, i8 0, i32 28, ptr @_ZN2kcL29kc_subphyla_CExpressionDQPartE, i32 0, ptr null, i64 16 }, %"struct.kc::KC_OPERATOR_INFO" { ptr @.str.193, i64 0, i8 0, i32 28, ptr null, i32 0, ptr null, i64 8 }, %"struct.kc::KC_OPERATOR_INFO" { ptr @.str.194, i64 0, i8 0, i32 29, ptr null, i32 0, ptr null, i64 24 }, %"struct.kc::KC_OPERATOR_INFO" { ptr @.str.195, i64 2, i8 0, i32 29, ptr @_ZN2kcL29kc_subphyla_ConsCexpressionSQE, i32 0, ptr null, i64 24 }, %"struct.kc::KC_OPERATOR_INFO" { ptr @.str.196, i64 1, i8 0, i32 30, ptr @_ZN2kcL29kc_subphyla_CExpressionSQPartE, i32 0, ptr null, i64 16 }, %"struct.kc::KC_OPERATOR_INFO" { ptr @.str.197, i64 0, i8 0, i32 30, ptr null, i32 0, ptr null, i64 8 }, %"struct.kc::KC_OPERATOR_INFO" { ptr @.str.198, i64 0, i8 0, i32 31, ptr null, i32 0, ptr null, i64 24 }, %"struct.kc::KC_OPERATOR_INFO" { ptr @.str.199, i64 2, i8 0, i32 31, ptr @_ZN2kcL30kc_subphyla_ConsidCexpressionsE, i32 0, ptr null, i64 24 }, %"struct.kc::KC_OPERATOR_INFO" { ptr @.str.200, i64 2, i8 0, i32 32, ptr @_ZN2kcL25kc_subphyla_IdCexpressionE, i32 0, ptr null, i64 32 }, %"struct.kc::KC_OPERATOR_INFO" { ptr @.str.201, i64 0, i8 0, i32 33, ptr null, i32 0, ptr null, i64 24 }, %"struct.kc::KC_OPERATOR_INFO" { ptr @.str.202, i64 2, i8 0, i32 33, ptr @_ZN2kcL22kc_subphyla_ConsCtextsE, i32 0, ptr null, i64 24 }, %"struct.kc::KC_OPERATOR_INFO" { ptr @.str.203, i64 0, i8 0, i32 34, ptr null, i32 0, ptr null, i64 24 }, %"struct.kc::KC_OPERATOR_INFO" { ptr @.str.204, i64 2, i8 0, i32 34, ptr @_ZN2kcL28kc_subphyla_ConsincludefilesE, i32 0, ptr null, i64 24 }, %"struct.kc::KC_OPERATOR_INFO" { ptr @.str.205, i64 1, i8 0, i32 35, ptr @_ZN2kcL23kc_subphyla_IncludeFileE, i32 0, ptr null, i64 40 }, %"struct.kc::KC_OPERATOR_INFO" { ptr @.str.206, i64 0, i8 0, i32 36, ptr null, i32 0, ptr null, i64 24 }, %"struct.kc::KC_OPERATOR_INFO" { ptr @.str.207, i64 2, i8 0, i32 36, ptr @_ZN2kcL35kc_subphyla_ConsincludedeclarationsE, i32 0, ptr null, i64 24 }, %"struct.kc::KC_OPERATOR_INFO" { ptr @.str.208, i64 1, i8 0, i32 37, ptr @_ZN2kcL30kc_subphyla_IncludeDeclarationE, i32 0, ptr null, i64 32 }, %"struct.kc::KC_OPERATOR_INFO" { ptr @.str.209, i64 0, i8 0, i32 38, ptr null, i32 0, ptr null, i64 24 }, %"struct.kc::KC_OPERATOR_INFO" { ptr @.str.210, i64 2, i8 0, i32 38, ptr @_ZN2kcL30kc_subphyla_ConsrwdeclarationsE, i32 0, ptr null, i64 24 }, %"struct.kc::KC_OPERATOR_INFO" { ptr @.str.211, i64 2, i8 0, i32 39, ptr @_ZN2kcL25kc_subphyla_RwDeclarationE, i32 0, ptr null, i64 24 }, %"struct.kc::KC_OPERATOR_INFO" { ptr @.str.212, i64 0, i8 0, i32 40, ptr null, i32 0, ptr null, i64 24 }, %"struct.kc::KC_OPERATOR_INFO" { ptr @.str.213, i64 2, i8 0, i32 40, ptr @_ZN2kcL30kc_subphyla_ConsrewriteclausesE, i32 0, ptr null, i64 24 }, %"struct.kc::KC_OPERATOR_INFO" { ptr @.str.214, i64 2, i8 0, i32 41, ptr @_ZN2kcL25kc_subphyla_RewriteClauseE, i32 0, ptr null, i64 24 }, %"struct.kc::KC_OPERATOR_INFO" { ptr @.str.215, i64 0, i8 0, i32 42, ptr null, i32 0, ptr null, i64 40 }, %"struct.kc::KC_OPERATOR_INFO" { ptr @.str.216, i64 2, i8 0, i32 42, ptr @_ZN2kcL29kc_subphyla_ConspatternchainsE, i32 0, ptr null, i64 40 }, %"struct.kc::KC_OPERATOR_INFO" { ptr @.str.217, i64 0, i8 0, i32 43, ptr null, i32 0, ptr null, i64 40 }, %"struct.kc::KC_OPERATOR_INFO" { ptr @.str.218, i64 2, i8 0, i32 43, ptr @_ZN2kcL28kc_subphyla_ConspatternchainE, i32 0, ptr null, i64 40 }, %"struct.kc::KC_OPERATOR_INFO" { ptr @.str.219, i64 0, i8 0, i32 44, ptr null, i32 0, ptr null, i64 24 }, %"struct.kc::KC_OPERATOR_INFO" { ptr @.str.220, i64 2, i8 0, i32 44, ptr @_ZN2kcL31kc_subphyla_ConsoutmostpatternsE, i32 0, ptr null, i64 24 }, %"struct.kc::KC_OPERATOR_INFO" { ptr @.str.221, i64 1, i8 0, i32 45, ptr @_ZN2kcL35kc_subphyla_PatternchainitemOutmostE, i32 0, ptr null, i64 40 }, %"struct.kc::KC_OPERATOR_INFO" { ptr @.str.222, i64 1, i8 0, i32 45, ptr @_ZN2kcL33kc_subphyla_PatternchainitemGroupE, i32 0, ptr null, i64 40 }, %"struct.kc::KC_OPERATOR_INFO" { ptr @.str.223, i64 1, i8 0, i32 45, ptr @_ZN2kcL36kc_subphyla_PatternchainitemDollaridE, i32 0, ptr null, i64 40 }, %"struct.kc::KC_OPERATOR_INFO" { ptr @.str.224, i64 2, i8 0, i32 46, ptr @_ZN2kcL30kc_subphyla_OPOperatorWildcardE, i32 0, ptr null, i64 48 }, %"struct.kc::KC_OPERATOR_INFO" { ptr @.str.225, i64 3, i8 0, i32 46, ptr @_ZN2kcL22kc_subphyla_OPOperatorE, i32 0, ptr null, i64 56 }, %"struct.kc::KC_OPERATOR_INFO" { ptr @.str.226, i64 2, i8 0, i32 46, ptr @_ZN2kcL29kc_subphyla_OPNonLeafVariableE, i32 0, ptr null, i64 48 }, %"struct.kc::KC_OPERATOR_INFO" { ptr @.str.227, i64 1, i8 0, i32 46, ptr @_ZN2kcL22kc_subphyla_OPWildcardE, i32 0, ptr null, i64 40 }, %"struct.kc::KC_OPERATOR_INFO" { ptr @.str.228, i64 1, i8 0, i32 46, ptr @_ZN2kcL21kc_subphyla_OPDefaultE, i32 0, ptr null, i64 40 }, %"struct.kc::KC_OPERATOR_INFO" { ptr @.str.229, i64 1, i8 0, i32 47, ptr @_ZN2kcL21kc_subphyla_PVariableE, i32 0, ptr null, i64 16 }, %"struct.kc::KC_OPERATOR_INFO" { ptr @.str.230, i64 2, i8 0, i32 47, ptr @_ZN2kcL21kc_subphyla_POperatorE, i32 0, ptr null, i64 24 }, %"struct.kc::KC_OPERATOR_INFO" { ptr @.str.231, i64 2, i8 0, i32 47, ptr @_ZN2kcL28kc_subphyla_PNonLeafVariableE, i32 0, ptr null, i64 24 }, %"struct.kc::KC_OPERATOR_INFO" { ptr @.str.232, i64 0, i8 0, i32 47, ptr null, i32 0, ptr null, i64 8 }, %"struct.kc::KC_OPERATOR_INFO" { ptr @.str.233, i64 1, i8 0, i32 47, ptr @_ZN2kcL26kc_subphyla_PStringLiteralE, i32 0, ptr null, i64 16 }, %"struct.kc::KC_OPERATOR_INFO" { ptr @.str.234, i64 1, i8 0, i32 47, ptr @_ZN2kcL23kc_subphyla_PIntLiteralE, i32 0, ptr null, i64 16 }, %"struct.kc::KC_OPERATOR_INFO" { ptr @.str.235, i64 0, i8 0, i32 48, ptr null, i32 0, ptr null, i64 24 }, %"struct.kc::KC_OPERATOR_INFO" { ptr @.str.236, i64 2, i8 0, i32 48, ptr @_ZN2kcL24kc_subphyla_ConspatternsE, i32 0, ptr null, i64 24 }, %"struct.kc::KC_OPERATOR_INFO" { ptr @.str.237, i64 1, i8 0, i32 49, ptr @_ZN2kcL21kc_subphyla_TVariableE, i32 0, ptr null, i64 32 }, %"struct.kc::KC_OPERATOR_INFO" { ptr @.str.238, i64 2, i8 0, i32 49, ptr @_ZN2kcL21kc_subphyla_TOperatorE, i32 0, ptr null, i64 40 }, %"struct.kc::KC_OPERATOR_INFO" { ptr @.str.239, i64 3, i8 0, i32 49, ptr @_ZN2kcL19kc_subphyla_TMethodE, i32 0, ptr null, i64 48 }, %"struct.kc::KC_OPERATOR_INFO" { ptr @.str.240, i64 3, i8 0, i32 49, ptr @_ZN2kcL22kc_subphyla_TMethodDotE, i32 0, ptr null, i64 48 }, %"struct.kc::KC_OPERATOR_INFO" { ptr @.str.241, i64 2, i8 0, i32 49, ptr @_ZN2kcL22kc_subphyla_TMemberVarE, i32 0, ptr null, i64 40 }, %"struct.kc::KC_OPERATOR_INFO" { ptr @.str.242, i64 2, i8 0, i32 49, ptr @_ZN2kcL25kc_subphyla_TMemberVarDotE, i32 0, ptr null, i64 40 }, %"struct.kc::KC_OPERATOR_INFO" { ptr @.str.243, i64 1, i8 0, i32 49, ptr @_ZN2kcL18kc_subphyla_TCTermE, i32 0, ptr null, i64 32 }, %"struct.kc::KC_OPERATOR_INFO" { ptr @.str.244, i64 1, i8 0, i32 49, ptr @_ZN2kcL26kc_subphyla_TStringLiteralE, i32 0, ptr null, i64 32 }, %"struct.kc::KC_OPERATOR_INFO" { ptr @.str.245, i64 1, i8 0, i32 49, ptr @_ZN2kcL23kc_subphyla_TIntLiteralE, i32 0, ptr null, i64 32 }, %"struct.kc::KC_OPERATOR_INFO" { ptr @.str.246, i64 0, i8 0, i32 50, ptr null, i32 0, ptr null, i64 24 }, %"struct.kc::KC_OPERATOR_INFO" { ptr @.str.247, i64 2, i8 0, i32 50, ptr @_ZN2kcL21kc_subphyla_ConstermsE, i32 0, ptr null, i64 24 }, %"struct.kc::KC_OPERATOR_INFO" { ptr @.str.248, i64 0, i8 0, i32 51, ptr null, i32 0, ptr null, i64 24 }, %"struct.kc::KC_OPERATOR_INFO" { ptr @.str.249, i64 2, i8 0, i32 51, ptr @_ZN2kcL23kc_subphyla_ConsfnfilesE, i32 0, ptr null, i64 24 }, %"struct.kc::KC_OPERATOR_INFO" { ptr @.str.250, i64 1, i8 0, i32 52, ptr @_ZN2kcL18kc_subphyla_FnFileE, i32 0, ptr null, i64 24 }, %"struct.kc::KC_OPERATOR_INFO" { ptr @.str.251, i64 0, i8 0, i32 53, ptr null, i32 0, ptr null, i64 24 }, %"struct.kc::KC_OPERATOR_INFO" { ptr @.str.252, i64 2, i8 0, i32 53, ptr @_ZN2kcL30kc_subphyla_ConsfndeclarationsE, i32 0, ptr null, i64 24 }, %"struct.kc::KC_OPERATOR_INFO" { ptr @.str.253, i64 7, i8 0, i32 54, ptr @_ZN2kcL27kc_subphyla_FnAcDeclarationE, i32 0, ptr null, i64 96 }, %"struct.kc::KC_OPERATOR_INFO" { ptr @.str.254, i64 4, i8 0, i32 54, ptr @_ZN2kcL31kc_subphyla_AcMemberDeclarationE, i32 0, ptr null, i64 72 }, %"struct.kc::KC_OPERATOR_INFO" { ptr @.str.255, i64 0, i8 0, i32 55, ptr null, i32 0, ptr null, i64 8 }, %"struct.kc::KC_OPERATOR_INFO" { ptr @.str.256, i64 1, i8 0, i32 55, ptr @_ZN2kcL20kc_subphyla_StaticFnE, i32 0, ptr null, i64 16 }, %"struct.kc::KC_OPERATOR_INFO" { ptr @.str.257, i64 0, i8 0, i32 55, ptr null, i32 0, ptr null, i64 8 }, %"struct.kc::KC_OPERATOR_INFO" { ptr @.str.258, i64 0, i8 0, i32 55, ptr null, i32 0, ptr null, i64 8 }, %"struct.kc::KC_OPERATOR_INFO" { ptr @.str.259, i64 0, i8 0, i32 55, ptr null, i32 0, ptr null, i64 8 }, %"struct.kc::KC_OPERATOR_INFO" { ptr @.str.260, i64 0, i8 0, i32 55, ptr null, i32 0, ptr null, i64 8 }, %"struct.kc::KC_OPERATOR_INFO" { ptr @.str.261, i64 0, i8 0, i32 56, ptr null, i32 0, ptr null, i64 40 }, %"struct.kc::KC_OPERATOR_INFO" { ptr @.str.262, i64 2, i8 0, i32 56, ptr @_ZN2kcL21kc_subphyla_ConsCtextE, i32 0, ptr null, i64 40 }, %"struct.kc::KC_OPERATOR_INFO" { ptr @.str.263, i64 1, i8 0, i32 57, ptr @_ZN2kcL21kc_subphyla_CTextLineE, i32 0, ptr null, i64 32 }, %"struct.kc::KC_OPERATOR_INFO" { ptr @.str.264, i64 1, i8 0, i32 57, ptr @_ZN2kcL26kc_subphyla_CTextDollarVarE, i32 0, ptr null, i64 32 }, %"struct.kc::KC_OPERATOR_INFO" { ptr @.str.265, i64 1, i8 0, i32 57, ptr @_ZN2kcL19kc_subphyla_CTextNlE, i32 0, ptr null, i64 32 }, %"struct.kc::KC_OPERATOR_INFO" { ptr @.str.266, i64 1, i8 0, i32 57, ptr @_ZN2kcL30kc_subphyla_CTextCexpressionDQE, i32 0, ptr null, i64 32 }, %"struct.kc::KC_OPERATOR_INFO" { ptr @.str.267, i64 1, i8 0, i32 57, ptr @_ZN2kcL30kc_subphyla_CTextCexpressionSQE, i32 0, ptr null, i64 32 }, %"struct.kc::KC_OPERATOR_INFO" { ptr @.str.268, i64 1, i8 0, i32 57, ptr @_ZN2kcL22kc_subphyla_CTextCbodyE, i32 0, ptr null, i64 32 }, %"struct.kc::KC_OPERATOR_INFO" { ptr @.str.269, i64 5, i8 0, i32 57, ptr @_ZN2kcL34kc_subphyla_CTextForeachexpressionE, i32 0, ptr null, i64 64 }, %"struct.kc::KC_OPERATOR_INFO" { ptr @.str.270, i64 3, i8 0, i32 57, ptr @_ZN2kcL31kc_subphyla_CTextWithexpressionE, i32 0, ptr null, i64 48 }, %"struct.kc::KC_OPERATOR_INFO" { ptr @.str.271, i64 0, i8 0, i32 58, ptr null, i32 0, ptr null, i64 24 }, %"struct.kc::KC_OPERATOR_INFO" { ptr @.str.272, i64 4, i8 0, i32 58, ptr @_ZN2kcL24kc_subphyla_ForeachAfterE, i32 0, ptr null, i64 56 }, %"struct.kc::KC_OPERATOR_INFO" { ptr @.str.273, i64 1, i8 0, i32 59, ptr @_ZN2kcL28kc_subphyla_InForeachContextE, i32 0, ptr null, i64 16 }, %"struct.kc::KC_OPERATOR_INFO" { ptr @.str.274, i64 0, i8 0, i32 59, ptr null, i32 0, ptr null, i64 8 }, %"struct.kc::KC_OPERATOR_INFO" { ptr @.str.275, i64 0, i8 0, i32 60, ptr null, i32 0, ptr null, i64 48 }, %"struct.kc::KC_OPERATOR_INFO" { ptr @.str.276, i64 2, i8 0, i32 60, ptr @_ZN2kcL31kc_subphyla_ConswithexpressionsE, i32 0, ptr null, i64 48 }, %"struct.kc::KC_OPERATOR_INFO" { ptr @.str.277, i64 1, i8 0, i32 61, ptr @_ZN2kcL22kc_subphyla_WEVariableE, i32 0, ptr null, i64 40 }, %"struct.kc::KC_OPERATOR_INFO" { ptr @.str.278, i64 1, i8 0, i32 61, ptr @_ZN2kcL25kc_subphyla_WECexpressionE, i32 0, ptr null, i64 40 }, %"struct.kc::KC_OPERATOR_INFO" { ptr @.str.279, i64 0, i8 0, i32 62, ptr null, i32 0, ptr null, i64 32 }, %"struct.kc::KC_OPERATOR_INFO" { ptr @.str.280, i64 2, i8 0, i32 62, ptr @_ZN2kcL25kc_subphyla_ConswithcasesE, i32 0, ptr null, i64 32 }, %"struct.kc::KC_OPERATOR_INFO" { ptr @.str.281, i64 2, i8 0, i32 63, ptr @_ZN2kcL20kc_subphyla_WithcaseE, i32 0, ptr null, i64 32 }, %"struct.kc::KC_OPERATOR_INFO" { ptr @.str.282, i64 0, i8 0, i32 64, ptr null, i32 0, ptr null, i64 24 }, %"struct.kc::KC_OPERATOR_INFO" { ptr @.str.283, i64 2, i8 0, i32 64, ptr @_ZN2kcL35kc_subphyla_ConsunparsedeclarationsE, i32 0, ptr null, i64 24 }, %"struct.kc::KC_OPERATOR_INFO" { ptr @.str.284, i64 2, i8 0, i32 65, ptr @_ZN2kcL30kc_subphyla_UnparseDeclarationE, i32 0, ptr null, i64 32 }, %"struct.kc::KC_OPERATOR_INFO" { ptr @.str.285, i64 0, i8 0, i32 66, ptr null, i32 0, ptr null, i64 24 }, %"struct.kc::KC_OPERATOR_INFO" { ptr @.str.286, i64 2, i8 0, i32 66, ptr @_ZN2kcL30kc_subphyla_ConsunparseclausesE, i32 0, ptr null, i64 24 }, %"struct.kc::KC_OPERATOR_INFO" { ptr @.str.287, i64 2, i8 0, i32 67, ptr @_ZN2kcL25kc_subphyla_UnparseClauseE, i32 0, ptr null, i64 24 }, %"struct.kc::KC_OPERATOR_INFO" { ptr @.str.288, i64 0, i8 0, i32 68, ptr null, i32 0, ptr null, i64 32 }, %"struct.kc::KC_OPERATOR_INFO" { ptr @.str.289, i64 2, i8 0, i32 68, ptr @_ZN2kcL25kc_subphyla_ConsviewnamesE, i32 0, ptr null, i64 32 }, %"struct.kc::KC_OPERATOR_INFO" { ptr @.str.290, i64 0, i8 0, i32 69, ptr null, i32 0, ptr null, i64 24 }, %"struct.kc::KC_OPERATOR_INFO" { ptr @.str.291, i64 2, i8 0, i32 69, ptr @_ZN2kcL28kc_subphyla_ConsunparseitemsE, i32 0, ptr null, i64 24 }, %"struct.kc::KC_OPERATOR_INFO" { ptr @.str.292, i64 3, i8 0, i32 70, ptr @_ZN2kcL18kc_subphyla_UnpStrE, i32 0, ptr null, i64 40 }, %"struct.kc::KC_OPERATOR_INFO" { ptr @.str.293, i64 3, i8 0, i32 70, ptr @_ZN2kcL22kc_subphyla_UnpSubexprE, i32 0, ptr null, i64 40 }, %"struct.kc::KC_OPERATOR_INFO" { ptr @.str.294, i64 2, i8 0, i32 70, ptr @_ZN2kcL20kc_subphyla_UnpCtextE, i32 0, ptr null, i64 32 }, %"struct.kc::KC_OPERATOR_INFO" { ptr @.str.295, i64 2, i8 0, i32 70, ptr @_ZN2kcL19kc_subphyla_UnpBodyE, i32 0, ptr null, i64 32 }, %"struct.kc::KC_OPERATOR_INFO" { ptr @.str.296, i64 3, i8 0, i32 70, ptr @_ZN2kcL24kc_subphyla_UViewVarDeclE, i32 0, ptr null, i64 40 }, %"struct.kc::KC_OPERATOR_INFO" { ptr @.str.297, i64 1, i8 0, i32 71, ptr @_ZN2kcL22kc_subphyla_UnpSubTermE, i32 0, ptr null, i64 16 }, %"struct.kc::KC_OPERATOR_INFO" { ptr @.str.298, i64 1, i8 0, i32 71, ptr @_ZN2kcL28kc_subphyla_UnpDollarvarTermE, i32 0, ptr null, i64 16 }, %"struct.kc::KC_OPERATOR_INFO" { ptr @.str.299, i64 2, i8 0, i32 71, ptr @_ZN2kcL22kc_subphyla_UnpSubAttrE, i32 0, ptr null, i64 24 }, %"struct.kc::KC_OPERATOR_INFO" { ptr @.str.300, i64 2, i8 0, i32 71, ptr @_ZN2kcL28kc_subphyla_UnpDollarvarAttrE, i32 0, ptr null, i64 24 }, %"struct.kc::KC_OPERATOR_INFO" { ptr @.str.301, i64 2, i8 0, i32 71, ptr @_ZN2kcL29kc_subphyla_UnpCastedVariableE, i32 0, ptr null, i64 24 }, %"struct.kc::KC_OPERATOR_INFO" { ptr @.str.302, i64 0, i8 0, i32 72, ptr null, i32 0, ptr null, i64 24 }, %"struct.kc::KC_OPERATOR_INFO" { ptr @.str.303, i64 2, i8 0, i32 72, ptr @_ZN2kcL29kc_subphyla_ConsunpattributesE, i32 0, ptr null, i64 24 }, %"struct.kc::KC_OPERATOR_INFO" { ptr @.str.304, i64 0, i8 0, i32 73, ptr null, i32 0, ptr null, i64 8 }, %"struct.kc::KC_OPERATOR_INFO" { ptr @.str.305, i64 1, i8 0, i32 73, ptr @_ZN2kcL23kc_subphyla_YesViewnameE, i32 0, ptr null, i64 16 }, %"struct.kc::KC_OPERATOR_INFO" { ptr @.str.306, i64 0, i8 0, i32 74, ptr null, i32 0, ptr null, i64 8 }, %"struct.kc::KC_OPERATOR_INFO" { ptr @.str.307, i64 1, i8 0, i32 74, ptr @_ZN2kcL24kc_subphyla_LanguageListE, i32 0, ptr null, i64 16 }, %"struct.kc::KC_OPERATOR_INFO" { ptr @.str.308, i64 0, i8 0, i32 75, ptr null, i32 0, ptr null, i64 24 }, %"struct.kc::KC_OPERATOR_INFO" { ptr @.str.309, i64 2, i8 0, i32 75, ptr @_ZN2kcL29kc_subphyla_ConslanguagenamesE, i32 0, ptr null, i64 24 }, %"struct.kc::KC_OPERATOR_INFO" { ptr @.str.310, i64 0, i8 0, i32 76, ptr null, i32 0, ptr null, i64 24 }, %"struct.kc::KC_OPERATOR_INFO" { ptr @.str.311, i64 0, i8 0, i32 76, ptr null, i32 0, ptr null, i64 24 }, %"struct.kc::KC_OPERATOR_INFO" { ptr @.str.312, i64 0, i8 0, i32 76, ptr null, i32 0, ptr null, i64 24 }, %"struct.kc::KC_OPERATOR_INFO" { ptr @.str.313, i64 0, i8 0, i32 77, ptr null, i32 0, ptr null, i64 24 }, %"struct.kc::KC_OPERATOR_INFO" { ptr @.str.314, i64 2, i8 0, i32 77, ptr @_ZN2kcL38kc_subphyla_ConsscopetypefilelinestackE, i32 0, ptr null, i64 24 }, %"struct.kc::KC_OPERATOR_INFO" { ptr @.str.315, i64 4, i8 0, i32 78, ptr @_ZN2kcL29kc_subphyla_ScopeTypeFileLineE, i32 0, ptr null, i64 40 }, %"struct.kc::KC_OPERATOR_INFO" { ptr @.str.316, i64 0, i8 0, i32 79, ptr null, i32 0, ptr null, i64 8 }, %"struct.kc::KC_OPERATOR_INFO" { ptr @.str.317, i64 1, i8 0, i32 79, ptr @_ZN2kcL30kc_subphyla_ITPredefinedPhylumE, i32 0, ptr null, i64 16 }, %"struct.kc::KC_OPERATOR_INFO" { ptr @.str.318, i64 1, i8 0, i32 79, ptr @_ZN2kcL24kc_subphyla_ITUserPhylumE, i32 0, ptr null, i64 16 }, %"struct.kc::KC_OPERATOR_INFO" { ptr @.str.319, i64 2, i8 0, i32 79, ptr @_ZN2kcL32kc_subphyla_ITPredefinedOperatorE, i32 0, ptr null, i64 24 }, %"struct.kc::KC_OPERATOR_INFO" { ptr @.str.320, i64 2, i8 0, i32 79, ptr @_ZN2kcL26kc_subphyla_ITUserOperatorE, i32 0, ptr null, i64 24 }, %"struct.kc::KC_OPERATOR_INFO" { ptr @.str.321, i64 0, i8 0, i32 79, ptr null, i32 0, ptr null, i64 8 }, %"struct.kc::KC_OPERATOR_INFO" { ptr @.str.322, i64 0, i8 0, i32 79, ptr null, i32 0, ptr null, i64 8 }, %"struct.kc::KC_OPERATOR_INFO" { ptr @.str.323, i64 0, i8 0, i32 79, ptr null, i32 0, ptr null, i64 8 }, %"struct.kc::KC_OPERATOR_INFO" { ptr @.str.324, i64 0, i8 0, i32 79, ptr null, i32 0, ptr null, i64 8 }, %"struct.kc::KC_OPERATOR_INFO" { ptr @.str.325, i64 0, i8 0, i32 79, ptr null, i32 0, ptr null, i64 8 }, %"struct.kc::KC_OPERATOR_INFO" { ptr @.str.326, i64 0, i8 0, i32 79, ptr null, i32 0, ptr null, i64 8 }, %"struct.kc::KC_OPERATOR_INFO" { ptr @.str.327, i64 0, i8 0, i32 79, ptr null, i32 0, ptr null, i64 8 }, %"struct.kc::KC_OPERATOR_INFO" { ptr @.str.328, i64 1, i8 0, i32 79, ptr @_ZN2kcL26kc_subphyla_ITUserFunctionE, i32 0, ptr null, i64 16 }, %"struct.kc::KC_OPERATOR_INFO" { ptr @.str.329, i64 2, i8 0, i32 79, ptr @_ZN2kcL29kc_subphyla_ITPatternVariableE, i32 0, ptr null, i64 24 }, %"struct.kc::KC_OPERATOR_INFO" { ptr @.str.330, i64 1, i8 0, i32 79, ptr @_ZN2kcL26kc_subphyla_ITLanguageNameE, i32 0, ptr null, i64 16 }, %"struct.kc::KC_OPERATOR_INFO" { ptr @.str.331, i64 0, i8 0, i32 80, ptr null, i32 0, ptr null, i64 24 }, %"struct.kc::KC_OPERATOR_INFO" { ptr @.str.332, i64 2, i8 0, i32 80, ptr @_ZN2kcL25kc_subphyla_ConsoperatorsE, i32 0, ptr null, i64 24 }, %"struct.kc::KC_OPERATOR_INFO" { ptr @.str.333, i64 0, i8 0, i32 81, ptr null, i32 0, ptr null, i64 24 }, %"struct.kc::KC_OPERATOR_INFO" { ptr @.str.334, i64 2, i8 0, i32 81, ptr @_ZN2kcL21kc_subphyla_ConsphylaE, i32 0, ptr null, i64 24 }, %"struct.kc::KC_OPERATOR_INFO" { ptr @.str.335, i64 0, i8 0, i32 82, ptr null, i32 0, ptr null, i64 24 }, %"struct.kc::KC_OPERATOR_INFO" { ptr @.str.336, i64 2, i8 0, i32 82, ptr @_ZN2kcL25kc_subphyla_ConsvariablesE, i32 0, ptr null, i64 24 }, %"struct.kc::KC_OPERATOR_INFO" { ptr @.str.337, i64 0, i8 0, i32 83, ptr null, i32 0, ptr null, i64 8 }, %"struct.kc::KC_OPERATOR_INFO" { ptr @.str.338, i64 0, i8 0, i32 83, ptr null, i32 0, ptr null, i64 8 }, %"struct.kc::KC_OPERATOR_INFO" { ptr @.str.339, i64 0, i8 0, i32 84, ptr null, i32 0, ptr null, i64 8 }, %"struct.kc::KC_OPERATOR_INFO" { ptr @.str.340, i64 0, i8 0, i32 84, ptr null, i32 0, ptr null, i64 8 }, %"struct.kc::KC_OPERATOR_INFO" { ptr @.str.341, i64 0, i8 0, i32 84, ptr null, i32 0, ptr null, i64 8 }, %"struct.kc::KC_OPERATOR_INFO" { ptr @.str.342, i64 0, i8 0, i32 85, ptr null, i32 0, ptr null, i64 24 }, %"struct.kc::KC_OPERATOR_INFO" { ptr @.str.343, i64 2, i8 0, i32 85, ptr @_ZN2kcL38kc_subphyla_ConspatternrepresentationsE, i32 0, ptr null, i64 24 }, %"struct.kc::KC_OPERATOR_INFO" { ptr @.str.344, i64 0, i8 0, i32 86, ptr null, i32 0, ptr null, i64 24 }, %"struct.kc::KC_OPERATOR_INFO" { ptr @.str.345, i64 2, i8 0, i32 86, ptr @_ZN2kcL37kc_subphyla_ConspatternrepresentationE, i32 0, ptr null, i64 24 }, %"struct.kc::KC_OPERATOR_INFO" { ptr @.str.346, i64 2, i8 0, i32 87, ptr @_ZN2kcL21kc_subphyla_PRBindingE, i32 0, ptr null, i64 48 }, %"struct.kc::KC_OPERATOR_INFO" { ptr @.str.347, i64 3, i8 0, i32 87, ptr @_ZN2kcL26kc_subphyla_PRVarPredicateE, i32 0, ptr null, i64 56 }, %"struct.kc::KC_OPERATOR_INFO" { ptr @.str.348, i64 2, i8 0, i32 87, ptr @_ZN2kcL27kc_subphyla_PROperPredicateE, i32 0, ptr null, i64 48 }, %"struct.kc::KC_OPERATOR_INFO" { ptr @.str.349, i64 1, i8 0, i32 87, ptr @_ZN2kcL27kc_subphyla_PRUserPredicateE, i32 0, ptr null, i64 40 }, %"struct.kc::KC_OPERATOR_INFO" { ptr @.str.350, i64 3, i8 0, i32 87, ptr @_ZN2kcL28kc_subphyla_PRNonLeafBindingE, i32 0, ptr null, i64 56 }, %"struct.kc::KC_OPERATOR_INFO" { ptr @.str.351, i64 1, i8 0, i32 87, ptr @_ZN2kcL22kc_subphyla_PRWildcardE, i32 0, ptr null, i64 40 }, %"struct.kc::KC_OPERATOR_INFO" { ptr @.str.352, i64 0, i8 0, i32 87, ptr null, i32 0, ptr null, i64 32 }, %"struct.kc::KC_OPERATOR_INFO" { ptr @.str.353, i64 2, i8 0, i32 87, ptr @_ZN2kcL27kc_subphyla_PRStringLiteralE, i32 0, ptr null, i64 48 }, %"struct.kc::KC_OPERATOR_INFO" { ptr @.str.354, i64 2, i8 0, i32 87, ptr @_ZN2kcL24kc_subphyla_PRIntLiteralE, i32 0, ptr null, i64 48 }, %"struct.kc::KC_OPERATOR_INFO" { ptr @.str.355, i64 0, i8 0, i32 88, ptr null, i32 0, ptr null, i64 40 }, %"struct.kc::KC_OPERATOR_INFO" { ptr @.str.356, i64 2, i8 0, i32 88, ptr @_ZN2kcL20kc_subphyla_ConspathE, i32 0, ptr null, i64 40 }, %"struct.kc::KC_OPERATOR_INFO" { ptr @.str.357, i64 0, i8 0, i32 89, ptr null, i32 0, ptr null, i64 24 }, %"struct.kc::KC_OPERATOR_INFO" { ptr @.str.358, i64 2, i8 0, i32 89, ptr @_ZN2kcL21kc_subphyla_ConspathsE, i32 0, ptr null, i64 24 }, %"struct.kc::KC_OPERATOR_INFO" { ptr @.str.359, i64 0, i8 0, i32 90, ptr null, i32 0, ptr null, i64 24 }, %"struct.kc::KC_OPERATOR_INFO" { ptr @.str.360, i64 2, i8 0, i32 90, ptr @_ZN2kcL27kc_subphyla_ConsargsnumbersE, i32 0, ptr null, i64 24 }, %"struct.kc::KC_OPERATOR_INFO" { ptr @.str.361, i64 0, i8 0, i32 91, ptr null, i32 0, ptr null, i64 24 }, %"struct.kc::KC_OPERATOR_INFO" { ptr @.str.362, i64 2, i8 0, i32 91, ptr @_ZN2kcL32kc_subphyla_ConsrewriterulesinfoE, i32 0, ptr null, i64 24 }, %"struct.kc::KC_OPERATOR_INFO" { ptr @.str.363, i64 3, i8 0, i32 92, ptr @_ZN2kcL27kc_subphyla_RewriteruleinfoE, i32 0, ptr null, i64 32 }, %"struct.kc::KC_OPERATOR_INFO" { ptr @.str.364, i64 0, i8 0, i32 93, ptr null, i32 0, ptr null, i64 24 }, %"struct.kc::KC_OPERATOR_INFO" { ptr @.str.365, i64 2, i8 0, i32 93, ptr @_ZN2kcL29kc_subphyla_ConswithcasesinfoE, i32 0, ptr null, i64 24 }, %"struct.kc::KC_OPERATOR_INFO" { ptr @.str.366, i64 3, i8 0, i32 94, ptr @_ZN2kcL24kc_subphyla_WithcaseinfoE, i32 0, ptr null, i64 32 }, %"struct.kc::KC_OPERATOR_INFO" { ptr @.str.367, i64 0, i8 0, i32 95, ptr null, i32 0, ptr null, i64 24 }, %"struct.kc::KC_OPERATOR_INFO" { ptr @.str.368, i64 2, i8 0, i32 95, ptr @_ZN2kcL32kc_subphyla_ConsrewriteviewsinfoE, i32 0, ptr null, i64 24 }, %"struct.kc::KC_OPERATOR_INFO" { ptr @.str.369, i64 2, i8 0, i32 96, ptr @_ZN2kcL27kc_subphyla_RewriteviewinfoE, i32 0, ptr null, i64 24 }, %"struct.kc::KC_OPERATOR_INFO" { ptr @.str.370, i64 0, i8 0, i32 97, ptr null, i32 0, ptr null, i64 24 }, %"struct.kc::KC_OPERATOR_INFO" { ptr @.str.371, i64 2, i8 0, i32 97, ptr @_ZN2kcL32kc_subphyla_ConsunparseviewsinfoE, i32 0, ptr null, i64 24 }, %"struct.kc::KC_OPERATOR_INFO" { ptr @.str.372, i64 2, i8 0, i32 98, ptr @_ZN2kcL27kc_subphyla_UnparseviewinfoE, i32 0, ptr null, i64 24 }, %"struct.kc::KC_OPERATOR_INFO" { ptr @.str.373, i64 0, i8 0, i32 99, ptr null, i32 0, ptr null, i64 24 }, %"struct.kc::KC_OPERATOR_INFO" { ptr @.str.374, i64 2, i8 0, i32 99, ptr @_ZN2kcL32kc_subphyla_ConsunparsedeclsinfoE, i32 0, ptr null, i64 24 }, %"struct.kc::KC_OPERATOR_INFO" { ptr @.str.375, i64 3, i8 0, i32 100, ptr @_ZN2kcL27kc_subphyla_UnparsedeclinfoE, i32 0, ptr null, i64 32 }, %"struct.kc::KC_OPERATOR_INFO" { ptr @.str.376, i64 2, i8 0, i32 101, ptr @_ZN2kcL25kc_subphyla_AcDeclarationE, i32 0, ptr null, i64 24 }, %"struct.kc::KC_OPERATOR_INFO" { ptr @.str.377, i64 0, i8 0, i32 102, ptr null, i32 0, ptr null, i64 24 }, %"struct.kc::KC_OPERATOR_INFO" { ptr @.str.378, i64 2, i8 0, i32 102, ptr @_ZN2kcL35kc_subphyla_Consac_declaration_listE, i32 0, ptr null, i64 24 }, %"struct.kc::KC_OPERATOR_INFO" { ptr @.str.379, i64 0, i8 0, i32 103, ptr null, i32 0, ptr null, i64 24 }, %"struct.kc::KC_OPERATOR_INFO" { ptr @.str.380, i64 2, i8 0, i32 103, ptr @_ZN2kcL41kc_subphyla_Consac_declaration_specifiersE, i32 0, ptr null, i64 24 }, %"struct.kc::KC_OPERATOR_INFO" { ptr @.str.381, i64 1, i8 0, i32 104, ptr @_ZN2kcL33kc_subphyla_AcDeclSpecStorageSpecE, i32 0, ptr null, i64 16 }, %"struct.kc::KC_OPERATOR_INFO" { ptr @.str.382, i64 1, i8 0, i32 104, ptr @_ZN2kcL30kc_subphyla_AcDeclSpecTypeSpecE, i32 0, ptr null, i64 16 }, %"struct.kc::KC_OPERATOR_INFO" { ptr @.str.383, i64 1, i8 0, i32 104, ptr @_ZN2kcL30kc_subphyla_AcDeclSpecTypeQualE, i32 0, ptr null, i64 16 }, %"struct.kc::KC_OPERATOR_INFO" { ptr @.str.384, i64 0, i8 0, i32 105, ptr null, i32 0, ptr null, i64 8 }, %"struct.kc::KC_OPERATOR_INFO" { ptr @.str.385, i64 0, i8 0, i32 105, ptr null, i32 0, ptr null, i64 8 }, %"struct.kc::KC_OPERATOR_INFO" { ptr @.str.386, i64 0, i8 0, i32 105, ptr null, i32 0, ptr null, i64 8 }, %"struct.kc::KC_OPERATOR_INFO" { ptr @.str.387, i64 0, i8 0, i32 105, ptr null, i32 0, ptr null, i64 8 }, %"struct.kc::KC_OPERATOR_INFO" { ptr @.str.388, i64 0, i8 0, i32 105, ptr null, i32 0, ptr null, i64 8 }, %"struct.kc::KC_OPERATOR_INFO" { ptr @.str.389, i64 0, i8 0, i32 105, ptr null, i32 0, ptr null, i64 8 }, %"struct.kc::KC_OPERATOR_INFO" { ptr @.str.390, i64 1, i8 0, i32 106, ptr @_ZN2kcL22kc_subphyla_AcTypeSpecE, i32 0, ptr null, i64 16 }, %"struct.kc::KC_OPERATOR_INFO" { ptr @.str.391, i64 0, i8 0, i32 107, ptr null, i32 0, ptr null, i64 8 }, %"struct.kc::KC_OPERATOR_INFO" { ptr @.str.392, i64 0, i8 0, i32 107, ptr null, i32 0, ptr null, i64 8 }, %"struct.kc::KC_OPERATOR_INFO" { ptr @.str.393, i64 0, i8 0, i32 107, ptr null, i32 0, ptr null, i64 8 }, %"struct.kc::KC_OPERATOR_INFO" { ptr @.str.394, i64 0, i8 0, i32 107, ptr null, i32 0, ptr null, i64 8 }, %"struct.kc::KC_OPERATOR_INFO" { ptr @.str.395, i64 0, i8 0, i32 108, ptr null, i32 0, ptr null, i64 24 }, %"struct.kc::KC_OPERATOR_INFO" { ptr @.str.396, i64 2, i8 0, i32 108, ptr @_ZN2kcL39kc_subphyla_Consac_init_declarator_listE, i32 0, ptr null, i64 24 }, %"struct.kc::KC_OPERATOR_INFO" { ptr @.str.397, i64 1, i8 0, i32 109, ptr @_ZN2kcL22kc_subphyla_AcInitDeclE, i32 0, ptr null, i64 16 }, %"struct.kc::KC_OPERATOR_INFO" { ptr @.str.398, i64 3, i8 0, i32 110, ptr @_ZN2kcL24kc_subphyla_AcDeclaratorE, i32 0, ptr null, i64 32 }, %"struct.kc::KC_OPERATOR_INFO" { ptr @.str.399, i64 1, i8 0, i32 111, ptr @_ZN2kcL26kc_subphyla_AcDirectDeclIdE, i32 0, ptr null, i64 16 }, %"struct.kc::KC_OPERATOR_INFO" { ptr @.str.400, i64 1, i8 0, i32 111, ptr @_ZN2kcL28kc_subphyla_AcDirectDeclPackE, i32 0, ptr null, i64 16 }, %"struct.kc::KC_OPERATOR_INFO" { ptr @.str.401, i64 2, i8 0, i32 111, ptr @_ZN2kcL29kc_subphyla_AcDirectDeclArrayE, i32 0, ptr null, i64 24 }, %"struct.kc::KC_OPERATOR_INFO" { ptr @.str.402, i64 2, i8 0, i32 111, ptr @_ZN2kcL29kc_subphyla_AcDirectDeclProtoE, i32 0, ptr null, i64 24 }, %"struct.kc::KC_OPERATOR_INFO" { ptr @.str.403, i64 4, i8 0, i32 111, ptr @_ZN2kcL32kc_subphyla_AcQualifiedDeclProtoE, i32 0, ptr null, i64 40 }, %"struct.kc::KC_OPERATOR_INFO" { ptr @.str.404, i64 3, i8 0, i32 111, ptr @_ZN2kcL24kc_subphyla_AcMemberDeclE, i32 0, ptr null, i64 32 }, %"struct.kc::KC_OPERATOR_INFO" { ptr @.str.405, i64 2, i8 0, i32 111, ptr @_ZN2kcL30kc_subphyla_AcConvOperatorDeclE, i32 0, ptr null, i64 24 }, %"struct.kc::KC_OPERATOR_INFO" { ptr @.str.406, i64 1, i8 0, i32 111, ptr @_ZN2kcL28kc_subphyla_AcOperatorDeclIdE, i32 0, ptr null, i64 16 }, %"struct.kc::KC_OPERATOR_INFO" { ptr @.str.407, i64 0, i8 0, i32 112, ptr null, i32 0, ptr null, i64 8 }, %"struct.kc::KC_OPERATOR_INFO" { ptr @.str.408, i64 1, i8 0, i32 112, ptr @_ZN2kcL22kc_subphyla_YespointerE, i32 0, ptr null, i64 16 }, %"struct.kc::KC_OPERATOR_INFO" { ptr @.str.409, i64 1, i8 0, i32 113, ptr @_ZN2kcL24kc_subphyla_AcPointerNilE, i32 0, ptr null, i64 16 }, %"struct.kc::KC_OPERATOR_INFO" { ptr @.str.410, i64 2, i8 0, i32 113, ptr @_ZN2kcL25kc_subphyla_AcPointerConsE, i32 0, ptr null, i64 24 }, %"struct.kc::KC_OPERATOR_INFO" { ptr @.str.411, i64 0, i8 0, i32 114, ptr null, i32 0, ptr null, i64 8 }, %"struct.kc::KC_OPERATOR_INFO" { ptr @.str.412, i64 0, i8 0, i32 114, ptr null, i32 0, ptr null, i64 8 }, %"struct.kc::KC_OPERATOR_INFO" { ptr @.str.413, i64 1, i8 0, i32 115, ptr @_ZN2kcL26kc_subphyla_AcOperatorNameE, i32 0, ptr null, i64 32 }, %"struct.kc::KC_OPERATOR_INFO" { ptr @.str.414, i64 0, i8 0, i32 116, ptr null, i32 0, ptr null, i64 24 }, %"struct.kc::KC_OPERATOR_INFO" { ptr @.str.415, i64 2, i8 0, i32 116, ptr @_ZN2kcL44kc_subphyla_Consac_class_qualifier_help_listE, i32 0, ptr null, i64 24 }, %"struct.kc::KC_OPERATOR_INFO" { ptr @.str.416, i64 0, i8 0, i32 117, ptr null, i32 0, ptr null, i64 24 }, %"struct.kc::KC_OPERATOR_INFO" { ptr @.str.417, i64 2, i8 0, i32 117, ptr @_ZN2kcL39kc_subphyla_Consac_class_qualifier_listE, i32 0, ptr null, i64 24 }, %"struct.kc::KC_OPERATOR_INFO" { ptr @.str.418, i64 0, i8 0, i32 118, ptr null, i32 0, ptr null, i64 24 }, %"struct.kc::KC_OPERATOR_INFO" { ptr @.str.419, i64 2, i8 0, i32 118, ptr @_ZN2kcL38kc_subphyla_Consac_type_qualifier_listE, i32 0, ptr null, i64 24 }, %"struct.kc::KC_OPERATOR_INFO" { ptr @.str.420, i64 1, i8 0, i32 119, ptr @_ZN2kcL21kc_subphyla_AcParListE, i32 0, ptr null, i64 16 }, %"struct.kc::KC_OPERATOR_INFO" { ptr @.str.421, i64 1, i8 0, i32 119, ptr @_ZN2kcL25kc_subphyla_AcParList3DotE, i32 0, ptr null, i64 16 }, %"struct.kc::KC_OPERATOR_INFO" { ptr @.str.422, i64 0, i8 0, i32 120, ptr null, i32 0, ptr null, i64 24 }, %"struct.kc::KC_OPERATOR_INFO" { ptr @.str.423, i64 2, i8 0, i32 120, ptr @_ZN2kcL33kc_subphyla_Consac_parameter_listE, i32 0, ptr null, i64 24 }, %"struct.kc::KC_OPERATOR_INFO" { ptr @.str.424, i64 3, i8 0, i32 121, ptr @_ZN2kcL25kc_subphyla_AcParDeclDeclE, i32 0, ptr null, i64 32 }, %"struct.kc::KC_OPERATOR_INFO" { ptr @.str.425, i64 3, i8 0, i32 121, ptr @_ZN2kcL28kc_subphyla_AcParDeclAbsdeclE, i32 0, ptr null, i64 32 }, %"struct.kc::KC_OPERATOR_INFO" { ptr @.str.426, i64 0, i8 0, i32 122, ptr null, i32 0, ptr null, i64 24 }, %"struct.kc::KC_OPERATOR_INFO" { ptr @.str.427, i64 2, i8 0, i32 122, ptr @_ZN2kcL34kc_subphyla_Consac_identifier_listE, i32 0, ptr null, i64 24 }, %"struct.kc::KC_OPERATOR_INFO" { ptr @.str.428, i64 1, i8 0, i32 123, ptr @_ZN2kcL28kc_subphyla_AcAbsdeclPointerE, i32 0, ptr null, i64 16 }, %"struct.kc::KC_OPERATOR_INFO" { ptr @.str.429, i64 2, i8 0, i32 123, ptr @_ZN2kcL28kc_subphyla_AcAbsdeclDirdeclE, i32 0, ptr null, i64 24 }, %"struct.kc::KC_OPERATOR_INFO" { ptr @.str.430, i64 0, i8 0, i32 124, ptr null, i32 0, ptr null, i64 8 }, %"struct.kc::KC_OPERATOR_INFO" { ptr @.str.431, i64 1, i8 0, i32 124, ptr @_ZN2kcL44kc_subphyla_Yesac_direct_abstract_declaratorE, i32 0, ptr null, i64 16 }, %"struct.kc::KC_OPERATOR_INFO" { ptr @.str.432, i64 1, i8 0, i32 125, ptr @_ZN2kcL28kc_subphyla_AcDirAbsdeclPackE, i32 0, ptr null, i64 16 }, %"struct.kc::KC_OPERATOR_INFO" { ptr @.str.433, i64 2, i8 0, i32 125, ptr @_ZN2kcL29kc_subphyla_AcDirAbsdeclArrayE, i32 0, ptr null, i64 24 }, %"struct.kc::KC_OPERATOR_INFO" { ptr @.str.434, i64 2, i8 0, i32 125, ptr @_ZN2kcL26kc_subphyla_AcDirAbsdeclFnE, i32 0, ptr null, i64 24 }, %"struct.kc::KC_OPERATOR_INFO" { ptr @.str.435, i64 1, i8 0, i32 126, ptr @_ZN2kcL37kc_subphyla_Yesac_constant_expressionE, i32 0, ptr null, i64 16 }, %"struct.kc::KC_OPERATOR_INFO" { ptr @.str.436, i64 0, i8 0, i32 126, ptr null, i32 0, ptr null, i64 8 }, %"struct.kc::KC_OPERATOR_INFO" { ptr @.str.437, i64 1, i8 0, i32 127, ptr @_ZN2kcL23kc_subphyla_AcConstExprE, i32 0, ptr null, i64 16 }, %"struct.kc::KC_OPERATOR_INFO" { ptr @.str.438, i64 0, i8 0, i32 128, ptr null, i32 0, ptr null, i64 24 }, %"struct.kc::KC_OPERATOR_INFO" { ptr @.str.439, i64 2, i8 0, i32 128, ptr @_ZN2kcL43kc_subphyla_Consac_constant_expression_listE, i32 0, ptr null, i64 24 }, %"struct.kc::KC_OPERATOR_INFO" { ptr @.str.440, i64 0, i8 0, i32 129, ptr null, i32 0, ptr null, i64 8 }, %"struct.kc::KC_OPERATOR_INFO" { ptr @.str.441, i64 1, i8 0, i32 129, ptr @_ZN2kcL25kc_subphyla_AcYesBaseInitE, i32 0, ptr null, i64 16 }, %"struct.kc::KC_OPERATOR_INFO" { ptr @.str.442, i64 0, i8 0, i32 130, ptr null, i32 0, ptr null, i64 24 }, %"struct.kc::KC_OPERATOR_INFO" { ptr @.str.443, i64 2, i8 0, i32 130, ptr @_ZN2kcL33kc_subphyla_Consac_base_init_listE, i32 0, ptr null, i64 24 }, %"struct.kc::KC_OPERATOR_INFO" { ptr @.str.444, i64 2, i8 0, i32 131, ptr @_ZN2kcL22kc_subphyla_AcBaseInitE, i32 0, ptr null, i64 24 }, %"struct.kc::KC_OPERATOR_INFO" { ptr @.str.445, i64 0, i8 0, i32 132, ptr null, i32 0, ptr null, i64 24 }, %"struct.kc::KC_OPERATOR_INFO" { ptr @.str.446, i64 2, i8 0, i32 132, ptr @_ZN2kcL38kc_subphyla_Consbaseclass_declarationsE, i32 0, ptr null, i64 24 }, %"struct.kc::KC_OPERATOR_INFO" { ptr @.str.447, i64 2, i8 0, i32 133, ptr @_ZN2kcL25kc_subphyla_BaseClassDeclE, i32 0, ptr null, i64 24 }, %"struct.kc::KC_OPERATOR_INFO" { ptr @.str.448, i64 0, i8 0, i32 134, ptr null, i32 0, ptr null, i64 24 }, %"struct.kc::KC_OPERATOR_INFO" { ptr @.str.449, i64 2, i8 0, i32 134, ptr @_ZN2kcL30kc_subphyla_Consbaseclass_listE, i32 0, ptr null, i64 24 }, %"struct.kc::KC_OPERATOR_INFO" { ptr @.str.450, i64 2, i8 0, i32 135, ptr @_ZN2kcL17kc_subphyla_FatalE, i32 0, ptr null, i64 24 }, %"struct.kc::KC_OPERATOR_INFO" { ptr @.str.451, i64 2, i8 0, i32 135, ptr @_ZN2kcL20kc_subphyla_NonFatalE, i32 0, ptr null, i64 24 }, %"struct.kc::KC_OPERATOR_INFO" { ptr @.str.452, i64 2, i8 0, i32 135, ptr @_ZN2kcL19kc_subphyla_WarningE, i32 0, ptr null, i64 24 }, %"struct.kc::KC_OPERATOR_INFO" { ptr @.str.453, i64 1, i8 0, i32 136, ptr @_ZN2kcL20kc_subphyla_Problem1E, i32 0, ptr null, i64 16 }, %"struct.kc::KC_OPERATOR_INFO" { ptr @.str.454, i64 2, i8 0, i32 136, ptr @_ZN2kcL22kc_subphyla_Problem1IDE, i32 0, ptr null, i64 24 }, %"struct.kc::KC_OPERATOR_INFO" { ptr @.str.455, i64 2, i8 0, i32 136, ptr @_ZN2kcL23kc_subphyla_Problem1tIDE, i32 0, ptr null, i64 24 }, %"struct.kc::KC_OPERATOR_INFO" { ptr @.str.456, i64 2, i8 0, i32 136, ptr @_ZN2kcL22kc_subphyla_Problem1weE, i32 0, ptr null, i64 24 }, %"struct.kc::KC_OPERATOR_INFO" { ptr @.str.457, i64 4, i8 0, i32 136, ptr @_ZN2kcL25kc_subphyla_Problem1ID1IDE, i32 0, ptr null, i64 40 }, %"struct.kc::KC_OPERATOR_INFO" { ptr @.str.458, i64 4, i8 0, i32 136, ptr @_ZN2kcL24kc_subphyla_Problem1t1IDE, i32 0, ptr null, i64 40 }, %"struct.kc::KC_OPERATOR_INFO" { ptr @.str.459, i64 2, i8 0, i32 136, ptr @_ZN2kcL23kc_subphyla_Problem1INTE, i32 0, ptr null, i64 24 }, %"struct.kc::KC_OPERATOR_INFO" { ptr @.str.460, i64 3, i8 0, i32 136, ptr @_ZN2kcL24kc_subphyla_Problem1int1E, i32 0, ptr null, i64 32 }, %"struct.kc::KC_OPERATOR_INFO" { ptr @.str.461, i64 4, i8 0, i32 136, ptr @_ZN2kcL26kc_subphyla_Problem1INT1IDE, i32 0, ptr null, i64 40 }, %"struct.kc::KC_OPERATOR_INFO" { ptr @.str.462, i64 6, i8 0, i32 136, ptr @_ZN2kcL28kc_subphyla_Problem1ID1ID1IDE, i32 0, ptr null, i64 56 }, %"struct.kc::KC_OPERATOR_INFO" { ptr @.str.463, i64 6, i8 0, i32 136, ptr @_ZN2kcL29kc_subphyla_Problem1INT1ID1IDE, i32 0, ptr null, i64 56 }, %"struct.kc::KC_OPERATOR_INFO" { ptr @.str.464, i64 4, i8 0, i32 136, ptr @_ZN2kcL36kc_subphyla_Problem1storageoption1IDE, i32 0, ptr null, i64 40 }, %"struct.kc::KC_OPERATOR_INFO" { ptr @.str.465, i64 2, i8 0, i32 136, ptr @_ZN2kcL20kc_subphyla_Problem2E, i32 0, ptr null, i64 24 }, %"struct.kc::KC_OPERATOR_INFO" { ptr @.str.466, i64 3, i8 0, i32 136, ptr @_ZN2kcL20kc_subphyla_Problem3E, i32 0, ptr null, i64 32 }, %"struct.kc::KC_OPERATOR_INFO" { ptr @.str.467, i64 5, i8 0, i32 136, ptr @_ZN2kcL24kc_subphyla_Problem3int1E, i32 0, ptr null, i64 48 }, %"struct.kc::KC_OPERATOR_INFO" { ptr @.str.468, i64 4, i8 0, i32 136, ptr @_ZN2kcL20kc_subphyla_Problem4E, i32 0, ptr null, i64 40 }, %"struct.kc::KC_OPERATOR_INFO" { ptr @.str.469, i64 5, i8 0, i32 136, ptr @_ZN2kcL20kc_subphyla_Problem5E, i32 0, ptr null, i64 48 }, %"struct.kc::KC_OPERATOR_INFO" { ptr @.str.470, i64 6, i8 0, i32 136, ptr @_ZN2kcL20kc_subphyla_Problem6E, i32 0, ptr null, i64 56 }, %"struct.kc::KC_OPERATOR_INFO" { ptr @.str.471, i64 0, i8 0, i32 137, ptr null, i32 0, ptr null, i64 24 }, %"struct.kc::KC_OPERATOR_INFO" { ptr @.str.472, i64 2, i8 0, i32 137, ptr @_ZN2kcL39kc_subphyla_ConsaddedphylumdeclarationsE, i32 0, ptr null, i64 24 }, %"struct.kc::KC_OPERATOR_INFO" { ptr @.str.473, i64 1, i8 0, i32 138, ptr @_ZN2kcL34kc_subphyla_AddedPhylumdeclarationE, i32 0, ptr null, i64 24 }, %"struct.kc::KC_OPERATOR_INFO" { ptr @.str.474, i64 0, i8 0, i32 139, ptr null, i32 0, ptr null, i64 24 }, %"struct.kc::KC_OPERATOR_INFO" { ptr @.str.475, i64 2, i8 0, i32 139, ptr @_ZN2kcL41kc_subphyla_ConscountedphylumdeclarationsE, i32 0, ptr null, i64 24 }, %"struct.kc::KC_OPERATOR_INFO" { ptr @.str.476, i64 1, i8 0, i32 140, ptr @_ZN2kcL36kc_subphyla_CountedPhylumdeclarationE, i32 0, ptr null, i64 24 }, %"struct.kc::KC_OPERATOR_INFO" { ptr @.str.477, i64 0, i8 0, i32 141, ptr null, i32 0, ptr null, i64 16 }, %"struct.kc::KC_OPERATOR_INFO" { ptr @.str.478, i64 0, i8 0, i32 141, ptr null, i32 0, ptr null, i64 16 }, %"struct.kc::KC_OPERATOR_INFO" { ptr @.str.479, i64 0, i8 0, i32 141, ptr null, i32 0, ptr null, i64 16 }, %"struct.kc::KC_OPERATOR_INFO" { ptr @.str.480, i64 0, i8 0, i32 142, ptr null, i32 0, ptr null, i64 24 }, %"struct.kc::KC_OPERATOR_INFO" { ptr @.str.481, i64 2, i8 0, i32 142, ptr @_ZN2kcL30kc_subphyla_ConsbindingidmarksE, i32 0, ptr null, i64 24 }, %"struct.kc::KC_OPERATOR_INFO" { ptr @.str.482, i64 1, i8 0, i32 143, ptr @_ZN2kcL25kc_subphyla_BindingIdMarkE, i32 0, ptr null, i64 24 }, %"struct.kc::KC_OPERATOR_INFO" { ptr @.str, i64 0, i8 0, i32 0, ptr null, i32 0, ptr null, i64 0 }], align 16
@_ZN2kcL23phylumstorageclass_uniqE = internal global [14 x i32] [i32 0, i32 1, i32 2, i32 3, i32 4, i32 5, i32 6, i32 35, i32 52, i32 140, i32 141, i32 142, i32 143, i32 144], align 16
@_ZN2kc11kc_UniqInfoE = dso_local local_unnamed_addr global [2 x ptr] [ptr null, ptr @_ZN2kcL23phylumstorageclass_uniqE], align 16
@stdout = external local_unnamed_addr global ptr, align 8
@stderr = external local_unnamed_addr global ptr, align 8
@.str.484 = private unnamed_addr constant [67 x i8] c"Internal Error: no default action defined in function %s at %s:%d\0A\00", align 1
@.str.485 = private unnamed_addr constant [62 x i8] c"Internal Error: function %s does not return a value, at %s:%d\00", align 1
@.str.486 = private unnamed_addr constant [43 x i8] c"Internal Error: Assertion failed at %s:%d\0A\00", align 1
@.str.487 = private unnamed_addr constant [52 x i8] c"Internal Error: Assertion failed at file %s:%d: %s\0A\00", align 1
@.str.488 = private unnamed_addr constant [63 x i8] c"Internal Error: Assertion failed at %s:%d: pointer %s is NULL\0A\00", align 1
@.str.489 = private unnamed_addr constant [97 x i8] c"Internal Error: Assertion failed at %s:%d: illegal value for (%s) %s%s: %d not a valid operator\0A\00", align 1
@.str.490 = private unnamed_addr constant [98 x i8] c"Internal Error: Assertion failed at %s:%d: illegal value for (%s) %s%s: %s (%d) is a value of %s\0A\00", align 1
@.str.491 = private unnamed_addr constant [60 x i8] c"Internal Error: invalid operator code in %s%s at %s:%d: %s\0A\00", align 1
@_ZN2kc27impl_nocasestring_NoCaseStr11phylum_sel_E = dso_local local_unnamed_addr constant i32 1, align 4
@_ZN2kc20impl_casestring__Str11phylum_sel_E = dso_local local_unnamed_addr constant i32 2, align 4
@_ZN2kc15impl_real__Real11phylum_sel_E = dso_local local_unnamed_addr constant i32 3, align 4
@_ZTVN2kc15impl_real__RealE = external unnamed_addr constant { [13 x ptr] }, align 8
@_ZN2kc17impl_integer__Int11phylum_sel_E = dso_local local_unnamed_addr constant i32 4, align 4
@_ZTVN2kc17impl_integer__IntE = external unnamed_addr constant { [13 x ptr] }, align 8
@_ZN2kc21impl_voidptr__VoidPtr11phylum_sel_E = dso_local local_unnamed_addr constant i32 5, align 4
@_ZTVN2kc21impl_voidptr__VoidPtrE = external unnamed_addr constant { [13 x ptr] }, align 8
@_ZN2kc11impl_uniqID11phylum_sel_E = dso_local local_unnamed_addr constant i32 6, align 4
@_ZTVN2kc15impl_uniqID_StrE = dso_local unnamed_addr constant { [13 x ptr] } { [13 x ptr] [ptr null, ptr @_ZTIN2kc15impl_uniqID_StrE, ptr @_ZNK2kc15impl_uniqID_Str8prod_selEv, ptr @_ZNK2kc15impl_uniqID_Str9subphylumEi, ptr @_ZN2kc15impl_uniqID_Str13set_subphylumEiPNS_20impl_abstract_phylumE, ptr @_ZN2kc15impl_uniqID_Str7rewriteERNS_11rview_classE, ptr @_ZN2kc20impl_abstract_phylum10do_rewriteERNS_11rview_classE, ptr @_ZN2kc20impl_abstract_phylum15rewrite_membersEPS0_, ptr @_ZN2kc20impl_abstract_phylum11post_createEv, ptr @_ZN2kc20impl_abstract_phylumD2Ev, ptr @_ZN2kc15impl_uniqID_StrD0Ev, ptr @_ZN2kc15impl_uniqID_Str10do_unparseERNS_21printer_functor_classERNS_11uview_classE, ptr @_ZN2kc20impl_abstract_phylum15default_unparseERNS_21printer_functor_classERNS_11uview_classE] }, align 8
@_ZN2kc7impl_ID11phylum_sel_E = dso_local local_unnamed_addr constant i32 7, align 4
@_ZTVN2kc10impl_ID_IdE = dso_local unnamed_addr constant { [13 x ptr] } { [13 x ptr] [ptr null, ptr @_ZTIN2kc10impl_ID_IdE, ptr @_ZNK2kc10impl_ID_Id8prod_selEv, ptr @_ZNK2kc10impl_ID_Id9subphylumEi, ptr @_ZN2kc10impl_ID_Id13set_subphylumEiPNS_20impl_abstract_phylumE, ptr @_ZN2kc10impl_ID_Id7rewriteERNS_11rview_classE, ptr @_ZN2kc20impl_abstract_phylum10do_rewriteERNS_11rview_classE, ptr @_ZN2kc20impl_abstract_phylum15rewrite_membersEPS0_, ptr @_ZN2kc20impl_abstract_phylum11post_createEv, ptr @_ZN2kc20impl_abstract_phylumD2Ev, ptr @_ZN2kc10impl_ID_IdD0Ev, ptr @_ZN2kc10impl_ID_Id10do_unparseERNS_21printer_functor_classERNS_11uview_classE, ptr @_ZN2kc20impl_abstract_phylum15default_unparseERNS_21printer_functor_classERNS_11uview_classE] }, align 8
@_ZN2kc8impl_INT11phylum_sel_E = dso_local local_unnamed_addr constant i32 8, align 4
@_ZTVN2kc12impl_INT_IntE = dso_local unnamed_addr constant { [13 x ptr] } { [13 x ptr] [ptr null, ptr @_ZTIN2kc12impl_INT_IntE, ptr @_ZNK2kc12impl_INT_Int8prod_selEv, ptr @_ZNK2kc12impl_INT_Int9subphylumEi, ptr @_ZN2kc12impl_INT_Int13set_subphylumEiPNS_20impl_abstract_phylumE, ptr @_ZN2kc12impl_INT_Int7rewriteERNS_11rview_classE, ptr @_ZN2kc20impl_abstract_phylum10do_rewriteERNS_11rview_classE, ptr @_ZN2kc20impl_abstract_phylum15rewrite_membersEPS0_, ptr @_ZN2kc20impl_abstract_phylum11post_createEv, ptr @_ZN2kc20impl_abstract_phylumD2Ev, ptr @_ZN2kc12impl_INT_IntD0Ev, ptr @_ZN2kc12impl_INT_Int10do_unparseERNS_21printer_functor_classERNS_11uview_classE, ptr @_ZN2kc20impl_abstract_phylum15default_unparseERNS_21printer_functor_classERNS_11uview_classE] }, align 8
@_ZN2kc11impl_STRING11phylum_sel_E = dso_local local_unnamed_addr constant i32 9, align 4
@_ZTVN2kc18impl_STRING_StringE = dso_local unnamed_addr constant { [13 x ptr] } { [13 x ptr] [ptr null, ptr @_ZTIN2kc18impl_STRING_StringE, ptr @_ZNK2kc18impl_STRING_String8prod_selEv, ptr @_ZNK2kc18impl_STRING_String9subphylumEi, ptr @_ZN2kc18impl_STRING_String13set_subphylumEiPNS_20impl_abstract_phylumE, ptr @_ZN2kc18impl_STRING_String7rewriteERNS_11rview_classE, ptr @_ZN2kc20impl_abstract_phylum10do_rewriteERNS_11rview_classE, ptr @_ZN2kc20impl_abstract_phylum15rewrite_membersEPS0_, ptr @_ZN2kc20impl_abstract_phylum11post_createEv, ptr @_ZN2kc20impl_abstract_phylumD2Ev, ptr @_ZN2kc18impl_STRING_StringD0Ev, ptr @_ZN2kc18impl_STRING_String10do_unparseERNS_21printer_functor_classERNS_11uview_classE, ptr @_ZN2kc20impl_abstract_phylum15default_unparseERNS_21printer_functor_classERNS_11uview_classE] }, align 8
@_ZN2kc27impl_phylumdeclarationsroot11phylum_sel_E = dso_local local_unnamed_addr constant i32 10, align 4
@_ZTVN2kc46impl_phylumdeclarationsroot_PhylumDeclarationsE = dso_local unnamed_addr constant { [13 x ptr] } { [13 x ptr] [ptr null, ptr @_ZTIN2kc46impl_phylumdeclarationsroot_PhylumDeclarationsE, ptr @_ZNK2kc46impl_phylumdeclarationsroot_PhylumDeclarations8prod_selEv, ptr @_ZNK2kc46impl_phylumdeclarationsroot_PhylumDeclarations9subphylumEi, ptr @_ZN2kc46impl_phylumdeclarationsroot_PhylumDeclarations13set_subphylumEiPNS_20impl_abstract_phylumE, ptr @_ZN2kc46impl_phylumdeclarationsroot_PhylumDeclarations7rewriteERNS_11rview_classE, ptr @_ZN2kc20impl_abstract_phylum10do_rewriteERNS_11rview_classE, ptr @_ZN2kc20impl_abstract_phylum15rewrite_membersEPS0_, ptr @_ZN2kc20impl_abstract_phylum11post_createEv, ptr @_ZN2kc20impl_abstract_phylumD2Ev, ptr @_ZN2kc46impl_phylumdeclarationsroot_PhylumDeclarationsD0Ev, ptr @_ZN2kc46impl_phylumdeclarationsroot_PhylumDeclarations10do_unparseERNS_21printer_functor_classERNS_11uview_classE, ptr @_ZN2kc20impl_abstract_phylum15default_unparseERNS_21printer_functor_classERNS_11uview_classE] }, align 8
@_ZN2kc23impl_phylumdeclarations11phylum_sel_E = dso_local local_unnamed_addr constant i32 11, align 4
@_ZTVN2kc23impl_phylumdeclarationsE = dso_local unnamed_addr constant { [15 x ptr] } { [15 x ptr] [ptr null, ptr @_ZTIN2kc23impl_phylumdeclarationsE, ptr @_ZNK2kc23impl_phylumdeclarations8prod_selEv, ptr @_ZNK2kc23impl_phylumdeclarations9subphylumEi, ptr @_ZN2kc23impl_phylumdeclarations13set_subphylumEiPNS_20impl_abstract_phylumE, ptr @_ZN2kc23impl_phylumdeclarations7rewriteERNS_11rview_classE, ptr @_ZN2kc20impl_abstract_phylum10do_rewriteERNS_11rview_classE, ptr @_ZN2kc20impl_abstract_phylum15rewrite_membersEPS0_, ptr @_ZN2kc20impl_abstract_phylum11post_createEv, ptr @_ZN2kc20impl_abstract_phylumD2Ev, ptr @_ZN2kc23impl_phylumdeclarationsD0Ev, ptr @_ZN2kc23impl_phylumdeclarations10do_unparseERNS_21printer_functor_classERNS_11uview_classE, ptr @_ZN2kc20impl_abstract_phylum15default_unparseERNS_21printer_functor_classERNS_11uview_classE, ptr @_ZNK2kc23impl_phylumdeclarations6is_nilEv, ptr @_ZNK2kc23impl_phylumdeclarations7reverseEv] }, align 8
@_ZN2kc16impl_phylumnames11phylum_sel_E = dso_local local_unnamed_addr constant i32 12, align 4
@_ZTVN2kc16impl_phylumnamesE = dso_local unnamed_addr constant { [15 x ptr] } { [15 x ptr] [ptr null, ptr @_ZTIN2kc16impl_phylumnamesE, ptr @_ZNK2kc16impl_phylumnames8prod_selEv, ptr @_ZNK2kc16impl_phylumnames9subphylumEi, ptr @_ZN2kc16impl_phylumnames13set_subphylumEiPNS_20impl_abstract_phylumE, ptr @_ZN2kc16impl_phylumnames7rewriteERNS_11rview_classE, ptr @_ZN2kc20impl_abstract_phylum10do_rewriteERNS_11rview_classE, ptr @_ZN2kc20impl_abstract_phylum15rewrite_membersEPS0_, ptr @_ZN2kc20impl_abstract_phylum11post_createEv, ptr @_ZN2kc20impl_abstract_phylumD2Ev, ptr @_ZN2kc16impl_phylumnamesD0Ev, ptr @_ZN2kc16impl_phylumnames10do_unparseERNS_21printer_functor_classERNS_11uview_classE, ptr @_ZN2kc20impl_abstract_phylum15default_unparseERNS_21printer_functor_classERNS_11uview_classE, ptr @_ZNK2kc16impl_phylumnames6is_nilEv, ptr @_ZNK2kc16impl_phylumnames7reverseEv] }, align 8
@_ZN2kc22impl_phylumdeclaration11phylum_sel_E = dso_local local_unnamed_addr constant i32 13, align 4
@_ZTVN2kc40impl_phylumdeclaration_PhylumDeclarationE = dso_local unnamed_addr constant { [13 x ptr] } { [13 x ptr] [ptr null, ptr @_ZTIN2kc40impl_phylumdeclaration_PhylumDeclarationE, ptr @_ZNK2kc40impl_phylumdeclaration_PhylumDeclaration8prod_selEv, ptr @_ZNK2kc40impl_phylumdeclaration_PhylumDeclaration9subphylumEi, ptr @_ZN2kc40impl_phylumdeclaration_PhylumDeclaration13set_subphylumEiPNS_20impl_abstract_phylumE, ptr @_ZN2kc40impl_phylumdeclaration_PhylumDeclaration7rewriteERNS_11rview_classE, ptr @_ZN2kc20impl_abstract_phylum10do_rewriteERNS_11rview_classE, ptr @_ZN2kc20impl_abstract_phylum15rewrite_membersEPS0_, ptr @_ZN2kc20impl_abstract_phylum11post_createEv, ptr @_ZN2kc20impl_abstract_phylumD2Ev, ptr @_ZN2kc40impl_phylumdeclaration_PhylumDeclarationD0Ev, ptr @_ZN2kc40impl_phylumdeclaration_PhylumDeclaration10do_unparseERNS_21printer_functor_classERNS_11uview_classE, ptr @_ZN2kc20impl_abstract_phylum15default_unparseERNS_21printer_functor_classERNS_11uview_classE] }, align 8
@_ZN2kc18impl_storageoption11phylum_sel_E = dso_local local_unnamed_addr constant i32 14, align 4
@_ZTVN2kc40impl_storageoption_PositiveStorageOptionE = dso_local unnamed_addr constant { [13 x ptr] } { [13 x ptr] [ptr null, ptr @_ZTIN2kc40impl_storageoption_PositiveStorageOptionE, ptr @_ZNK2kc40impl_storageoption_PositiveStorageOption8prod_selEv, ptr @_ZNK2kc40impl_storageoption_PositiveStorageOption9subphylumEi, ptr @_ZN2kc40impl_storageoption_PositiveStorageOption13set_subphylumEiPNS_20impl_abstract_phylumE, ptr @_ZN2kc40impl_storageoption_PositiveStorageOption7rewriteERNS_11rview_classE, ptr @_ZN2kc20impl_abstract_phylum10do_rewriteERNS_11rview_classE, ptr @_ZN2kc20impl_abstract_phylum15rewrite_membersEPS0_, ptr @_ZN2kc20impl_abstract_phylum11post_createEv, ptr @_ZN2kc20impl_abstract_phylumD2Ev, ptr @_ZN2kc40impl_storageoption_PositiveStorageOptionD0Ev, ptr @_ZN2kc40impl_storageoption_PositiveStorageOption10do_unparseERNS_21printer_functor_classERNS_11uview_classE, ptr @_ZN2kc20impl_abstract_phylum15default_unparseERNS_21printer_functor_classERNS_11uview_classE] }, align 8
@_ZTVN2kc40impl_storageoption_NegativeStorageOptionE = dso_local unnamed_addr constant { [13 x ptr] } { [13 x ptr] [ptr null, ptr @_ZTIN2kc40impl_storageoption_NegativeStorageOptionE, ptr @_ZNK2kc40impl_storageoption_NegativeStorageOption8prod_selEv, ptr @_ZNK2kc40impl_storageoption_NegativeStorageOption9subphylumEi, ptr @_ZN2kc40impl_storageoption_NegativeStorageOption13set_subphylumEiPNS_20impl_abstract_phylumE, ptr @_ZN2kc40impl_storageoption_NegativeStorageOption7rewriteERNS_11rview_classE, ptr @_ZN2kc20impl_abstract_phylum10do_rewriteERNS_11rview_classE, ptr @_ZN2kc20impl_abstract_phylum15rewrite_membersEPS0_, ptr @_ZN2kc20impl_abstract_phylum11post_createEv, ptr @_ZN2kc20impl_abstract_phylumD2Ev, ptr @_ZN2kc40impl_storageoption_NegativeStorageOptionD0Ev, ptr @_ZN2kc40impl_storageoption_NegativeStorageOption10do_unparseERNS_21printer_functor_classERNS_11uview_classE, ptr @_ZN2kc20impl_abstract_phylum15default_unparseERNS_21printer_functor_classERNS_11uview_classE] }, align 8
@_ZTVN2kc34impl_storageoption_NoStorageOptionE = external unnamed_addr constant { [13 x ptr] }, align 8
@_ZN2kc19impl_storageclasses11phylum_sel_E = dso_local local_unnamed_addr constant i32 15, align 4
@_ZTVN2kc19impl_storageclassesE = dso_local unnamed_addr constant { [15 x ptr] } { [15 x ptr] [ptr null, ptr @_ZTIN2kc19impl_storageclassesE, ptr @_ZNK2kc19impl_storageclasses8prod_selEv, ptr @_ZNK2kc19impl_storageclasses9subphylumEi, ptr @_ZN2kc19impl_storageclasses13set_subphylumEiPNS_20impl_abstract_phylumE, ptr @_ZN2kc19impl_storageclasses7rewriteERNS_11rview_classE, ptr @_ZN2kc20impl_abstract_phylum10do_rewriteERNS_11rview_classE, ptr @_ZN2kc20impl_abstract_phylum15rewrite_membersEPS0_, ptr @_ZN2kc20impl_abstract_phylum11post_createEv, ptr @_ZN2kc20impl_abstract_phylumD2Ev, ptr @_ZN2kc19impl_storageclassesD0Ev, ptr @_ZN2kc19impl_storageclasses10do_unparseERNS_21printer_functor_classERNS_11uview_classE, ptr @_ZN2kc20impl_abstract_phylum15default_unparseERNS_21printer_functor_classERNS_11uview_classE, ptr @_ZNK2kc19impl_storageclasses6is_nilEv, ptr @_ZNK2kc19impl_storageclasses7reverseEv] }, align 8
@_ZN2kc20impl_productionblock11phylum_sel_E = dso_local local_unnamed_addr constant i32 16, align 4
@_ZTVN2kc43impl_productionblock_PredefinedAlternativesE = dso_local unnamed_addr constant { [13 x ptr] } { [13 x ptr] [ptr null, ptr @_ZTIN2kc43impl_productionblock_PredefinedAlternativesE, ptr @_ZNK2kc43impl_productionblock_PredefinedAlternatives8prod_selEv, ptr @_ZNK2kc43impl_productionblock_PredefinedAlternatives9subphylumEi, ptr @_ZN2kc43impl_productionblock_PredefinedAlternatives13set_subphylumEiPNS_20impl_abstract_phylumE, ptr @_ZN2kc43impl_productionblock_PredefinedAlternatives7rewriteERNS_11rview_classE, ptr @_ZN2kc20impl_abstract_phylum10do_rewriteERNS_11rview_classE, ptr @_ZN2kc20impl_abstract_phylum15rewrite_membersEPS0_, ptr @_ZN2kc20impl_abstract_phylum11post_createEv, ptr @_ZN2kc20impl_abstract_phylumD2Ev, ptr @_ZN2kc43impl_productionblock_PredefinedAlternativesD0Ev, ptr @_ZN2kc43impl_productionblock_PredefinedAlternatives10do_unparseERNS_21printer_functor_classERNS_11uview_classE, ptr @_ZN2kc20impl_abstract_phylum15default_unparseERNS_21printer_functor_classERNS_11uview_classE] }, align 8
@_ZTVN2kc40impl_productionblock_NonlistAlternativesE = dso_local unnamed_addr constant { [13 x ptr] } { [13 x ptr] [ptr null, ptr @_ZTIN2kc40impl_productionblock_NonlistAlternativesE, ptr @_ZNK2kc40impl_productionblock_NonlistAlternatives8prod_selEv, ptr @_ZNK2kc40impl_productionblock_NonlistAlternatives9subphylumEi, ptr @_ZN2kc40impl_productionblock_NonlistAlternatives13set_subphylumEiPNS_20impl_abstract_phylumE, ptr @_ZN2kc40impl_productionblock_NonlistAlternatives7rewriteERNS_11rview_classE, ptr @_ZN2kc20impl_abstract_phylum10do_rewriteERNS_11rview_classE, ptr @_ZN2kc20impl_abstract_phylum15rewrite_membersEPS0_, ptr @_ZN2kc20impl_abstract_phylum11post_createEv, ptr @_ZN2kc20impl_abstract_phylumD2Ev, ptr @_ZN2kc40impl_productionblock_NonlistAlternativesD0Ev, ptr @_ZN2kc40impl_productionblock_NonlistAlternatives10do_unparseERNS_21printer_functor_classERNS_11uview_classE, ptr @_ZN2kc20impl_abstract_phylum15default_unparseERNS_21printer_functor_classERNS_11uview_classE] }, align 8
@_ZTVN2kc37impl_productionblock_ListAlternativesE = dso_local unnamed_addr constant { [13 x ptr] } { [13 x ptr] [ptr null, ptr @_ZTIN2kc37impl_productionblock_ListAlternativesE, ptr @_ZNK2kc37impl_productionblock_ListAlternatives8prod_selEv, ptr @_ZNK2kc37impl_productionblock_ListAlternatives9subphylumEi, ptr @_ZN2kc37impl_productionblock_ListAlternatives13set_subphylumEiPNS_20impl_abstract_phylumE, ptr @_ZN2kc37impl_productionblock_ListAlternatives7rewriteERNS_11rview_classE, ptr @_ZN2kc20impl_abstract_phylum10do_rewriteERNS_11rview_classE, ptr @_ZN2kc20impl_abstract_phylum15rewrite_membersEPS0_, ptr @_ZN2kc20impl_abstract_phylum11post_createEv, ptr @_ZN2kc20impl_abstract_phylumD2Ev, ptr @_ZN2kc37impl_productionblock_ListAlternativesD0Ev, ptr @_ZN2kc37impl_productionblock_ListAlternatives10do_unparseERNS_21printer_functor_classERNS_11uview_classE, ptr @_ZN2kc20impl_abstract_phylum15default_unparseERNS_21printer_functor_classERNS_11uview_classE] }, align 8
@_ZTVN2kc41impl_productionblock_EmptyproductionblockE = external unnamed_addr constant { [13 x ptr] }, align 8
@_ZN2kc17impl_alternatives11phylum_sel_E = dso_local local_unnamed_addr constant i32 17, align 4
@_ZTVN2kc17impl_alternativesE = dso_local unnamed_addr constant { [15 x ptr] } { [15 x ptr] [ptr null, ptr @_ZTIN2kc17impl_alternativesE, ptr @_ZNK2kc17impl_alternatives8prod_selEv, ptr @_ZNK2kc17impl_alternatives9subphylumEi, ptr @_ZN2kc17impl_alternatives13set_subphylumEiPNS_20impl_abstract_phylumE, ptr @_ZN2kc17impl_alternatives7rewriteERNS_11rview_classE, ptr @_ZN2kc20impl_abstract_phylum10do_rewriteERNS_11rview_classE, ptr @_ZN2kc20impl_abstract_phylum15rewrite_membersEPS0_, ptr @_ZN2kc20impl_abstract_phylum11post_createEv, ptr @_ZN2kc20impl_abstract_phylumD2Ev, ptr @_ZN2kc17impl_alternativesD0Ev, ptr @_ZN2kc17impl_alternatives10do_unparseERNS_21printer_functor_classERNS_11uview_classE, ptr @_ZN2kc20impl_abstract_phylum15default_unparseERNS_21printer_functor_classERNS_11uview_classE, ptr @_ZNK2kc17impl_alternatives6is_nilEv, ptr @_ZNK2kc17impl_alternatives7reverseEv] }, align 8
@_ZN2kc16impl_alternative11phylum_sel_E = dso_local local_unnamed_addr constant i32 18, align 4
@_ZTVN2kc28impl_alternative_AlternativeE = dso_local unnamed_addr constant { [13 x ptr] } { [13 x ptr] [ptr null, ptr @_ZTIN2kc28impl_alternative_AlternativeE, ptr @_ZNK2kc28impl_alternative_Alternative8prod_selEv, ptr @_ZNK2kc28impl_alternative_Alternative9subphylumEi, ptr @_ZN2kc28impl_alternative_Alternative13set_subphylumEiPNS_20impl_abstract_phylumE, ptr @_ZN2kc28impl_alternative_Alternative7rewriteERNS_11rview_classE, ptr @_ZN2kc20impl_abstract_phylum10do_rewriteERNS_11rview_classE, ptr @_ZN2kc20impl_abstract_phylum15rewrite_membersEPS0_, ptr @_ZN2kc20impl_abstract_phylum11post_createEv, ptr @_ZN2kc20impl_abstract_phylumD2Ev, ptr @_ZN2kc28impl_alternative_AlternativeD0Ev, ptr @_ZN2kc28impl_alternative_Alternative10do_unparseERNS_21printer_functor_classERNS_11uview_classE, ptr @_ZN2kc20impl_abstract_phylum15default_unparseERNS_21printer_functor_classERNS_11uview_classE] }, align 8
@_ZN2kc14impl_arguments11phylum_sel_E = dso_local local_unnamed_addr constant i32 19, align 4
@_ZTVN2kc14impl_argumentsE = dso_local unnamed_addr constant { [15 x ptr] } { [15 x ptr] [ptr null, ptr @_ZTIN2kc14impl_argumentsE, ptr @_ZNK2kc14impl_arguments8prod_selEv, ptr @_ZNK2kc14impl_arguments9subphylumEi, ptr @_ZN2kc14impl_arguments13set_subphylumEiPNS_20impl_abstract_phylumE, ptr @_ZN2kc14impl_arguments7rewriteERNS_11rview_classE, ptr @_ZN2kc20impl_abstract_phylum10do_rewriteERNS_11rview_classE, ptr @_ZN2kc20impl_abstract_phylum15rewrite_membersEPS0_, ptr @_ZN2kc20impl_abstract_phylum11post_createEv, ptr @_ZN2kc20impl_abstract_phylumD2Ev, ptr @_ZN2kc14impl_argumentsD0Ev, ptr @_ZN2kc14impl_arguments10do_unparseERNS_21printer_functor_classERNS_11uview_classE, ptr @_ZN2kc20impl_abstract_phylum15default_unparseERNS_21printer_functor_classERNS_11uview_classE, ptr @_ZNK2kc14impl_arguments6is_nilEv, ptr @_ZNK2kc14impl_arguments7reverseEv] }, align 8
@_ZN2kc13impl_argument11phylum_sel_E = dso_local local_unnamed_addr constant i32 20, align 4
@_ZTVN2kc22impl_argument_ArgumentE = dso_local unnamed_addr constant { [13 x ptr] } { [13 x ptr] [ptr null, ptr @_ZTIN2kc22impl_argument_ArgumentE, ptr @_ZNK2kc22impl_argument_Argument8prod_selEv, ptr @_ZNK2kc22impl_argument_Argument9subphylumEi, ptr @_ZN2kc22impl_argument_Argument13set_subphylumEiPNS_20impl_abstract_phylumE, ptr @_ZN2kc22impl_argument_Argument7rewriteERNS_11rview_classE, ptr @_ZN2kc20impl_abstract_phylum10do_rewriteERNS_11rview_classE, ptr @_ZN2kc20impl_abstract_phylum15rewrite_membersEPS0_, ptr @_ZN2kc20impl_abstract_phylum11post_createEv, ptr @_ZN2kc20impl_abstract_phylumD2Ev, ptr @_ZN2kc22impl_argument_ArgumentD0Ev, ptr @_ZN2kc22impl_argument_Argument10do_unparseERNS_21printer_functor_classERNS_11uview_classE, ptr @_ZN2kc20impl_abstract_phylum15default_unparseERNS_21printer_functor_classERNS_11uview_classE] }, align 8
@_ZN2kc17impl_Ccode_option11phylum_sel_E = dso_local local_unnamed_addr constant i32 21, align 4
@_ZTVN2kc29impl_Ccode_option_CcodeOptionE = dso_local unnamed_addr constant { [13 x ptr] } { [13 x ptr] [ptr null, ptr @_ZTIN2kc29impl_Ccode_option_CcodeOptionE, ptr @_ZNK2kc29impl_Ccode_option_CcodeOption8prod_selEv, ptr @_ZNK2kc29impl_Ccode_option_CcodeOption9subphylumEi, ptr @_ZN2kc29impl_Ccode_option_CcodeOption13set_subphylumEiPNS_20impl_abstract_phylumE, ptr @_ZN2kc29impl_Ccode_option_CcodeOption7rewriteERNS_11rview_classE, ptr @_ZN2kc20impl_abstract_phylum10do_rewriteERNS_11rview_classE, ptr @_ZN2kc20impl_abstract_phylum15rewrite_membersEPS0_, ptr @_ZN2kc20impl_abstract_phylum11post_createEv, ptr @_ZN2kc20impl_abstract_phylumD2Ev, ptr @_ZN2kc29impl_Ccode_option_CcodeOptionD0Ev, ptr @_ZN2kc29impl_Ccode_option_CcodeOption10do_unparseERNS_21printer_functor_classERNS_11uview_classE, ptr @_ZN2kc20impl_abstract_phylum15default_unparseERNS_21printer_functor_classERNS_11uview_classE] }, align 8
@_ZN2kc15impl_attributes11phylum_sel_E = dso_local local_unnamed_addr constant i32 22, align 4
@_ZTVN2kc15impl_attributesE = dso_local unnamed_addr constant { [15 x ptr] } { [15 x ptr] [ptr null, ptr @_ZTIN2kc15impl_attributesE, ptr @_ZNK2kc15impl_attributes8prod_selEv, ptr @_ZNK2kc15impl_attributes9subphylumEi, ptr @_ZN2kc15impl_attributes13set_subphylumEiPNS_20impl_abstract_phylumE, ptr @_ZN2kc15impl_attributes7rewriteERNS_11rview_classE, ptr @_ZN2kc20impl_abstract_phylum10do_rewriteERNS_11rview_classE, ptr @_ZN2kc20impl_abstract_phylum15rewrite_membersEPS0_, ptr @_ZN2kc20impl_abstract_phylum11post_createEv, ptr @_ZN2kc20impl_abstract_phylumD2Ev, ptr @_ZN2kc15impl_attributesD0Ev, ptr @_ZN2kc15impl_attributes10do_unparseERNS_21printer_functor_classERNS_11uview_classE, ptr @_ZN2kc20impl_abstract_phylum15default_unparseERNS_21printer_functor_classERNS_11uview_classE, ptr @_ZNK2kc15impl_attributes6is_nilEv, ptr @_ZNK2kc15impl_attributes7reverseEv] }, align 8
@_ZN2kc14impl_attribute11phylum_sel_E = dso_local local_unnamed_addr constant i32 23, align 4
@_ZTVN2kc24impl_attribute_AttributeE = dso_local unnamed_addr constant { [13 x ptr] } { [13 x ptr] [ptr null, ptr @_ZTIN2kc24impl_attribute_AttributeE, ptr @_ZNK2kc24impl_attribute_Attribute8prod_selEv, ptr @_ZNK2kc24impl_attribute_Attribute9subphylumEi, ptr @_ZN2kc24impl_attribute_Attribute13set_subphylumEiPNS_20impl_abstract_phylumE, ptr @_ZN2kc24impl_attribute_Attribute7rewriteERNS_11rview_classE, ptr @_ZN2kc20impl_abstract_phylum10do_rewriteERNS_11rview_classE, ptr @_ZN2kc20impl_abstract_phylum15rewrite_membersEPS0_, ptr @_ZN2kc20impl_abstract_phylum11post_createEv, ptr @_ZN2kc20impl_abstract_phylumD2Ev, ptr @_ZN2kc24impl_attribute_AttributeD0Ev, ptr @_ZN2kc24impl_attribute_Attribute10do_unparseERNS_21printer_functor_classERNS_11uview_classE, ptr @_ZN2kc20impl_abstract_phylum15default_unparseERNS_21printer_functor_classERNS_11uview_classE] }, align 8
@_ZN2kc36impl_attribute_initialisation_option11phylum_sel_E = dso_local local_unnamed_addr constant i32 24, align 4
@_ZTVN2kc64impl_attribute_initialisation_option_Yesattribute_initialisationE = dso_local unnamed_addr constant { [13 x ptr] } { [13 x ptr] [ptr null, ptr @_ZTIN2kc64impl_attribute_initialisation_option_Yesattribute_initialisationE, ptr @_ZNK2kc64impl_attribute_initialisation_option_Yesattribute_initialisation8prod_selEv, ptr @_ZNK2kc64impl_attribute_initialisation_option_Yesattribute_initialisation9subphylumEi, ptr @_ZN2kc64impl_attribute_initialisation_option_Yesattribute_initialisation13set_subphylumEiPNS_20impl_abstract_phylumE, ptr @_ZN2kc64impl_attribute_initialisation_option_Yesattribute_initialisation7rewriteERNS_11rview_classE, ptr @_ZN2kc20impl_abstract_phylum10do_rewriteERNS_11rview_classE, ptr @_ZN2kc20impl_abstract_phylum15rewrite_membersEPS0_, ptr @_ZN2kc20impl_abstract_phylum11post_createEv, ptr @_ZN2kc20impl_abstract_phylumD2Ev, ptr @_ZN2kc64impl_attribute_initialisation_option_Yesattribute_initialisationD0Ev, ptr @_ZN2kc64impl_attribute_initialisation_option_Yesattribute_initialisation10do_unparseERNS_21printer_functor_classERNS_11uview_classE, ptr @_ZN2kc20impl_abstract_phylum15default_unparseERNS_21printer_functor_classERNS_11uview_classE] }, align 8
@_ZTVN2kc63impl_attribute_initialisation_option_Noattribute_initialisationE = external unnamed_addr constant { [13 x ptr] }, align 8
@_ZN2kc16impl_Cexpression11phylum_sel_E = dso_local local_unnamed_addr constant i32 25, align 4
@_ZTVN2kc16impl_CexpressionE = dso_local unnamed_addr constant { [15 x ptr] } { [15 x ptr] [ptr null, ptr @_ZTIN2kc16impl_CexpressionE, ptr @_ZNK2kc16impl_Cexpression8prod_selEv, ptr @_ZNK2kc16impl_Cexpression9subphylumEi, ptr @_ZN2kc16impl_Cexpression13set_subphylumEiPNS_20impl_abstract_phylumE, ptr @_ZN2kc16impl_Cexpression7rewriteERNS_11rview_classE, ptr @_ZN2kc20impl_abstract_phylum10do_rewriteERNS_11rview_classE, ptr @_ZN2kc20impl_abstract_phylum15rewrite_membersEPS0_, ptr @_ZN2kc20impl_abstract_phylum11post_createEv, ptr @_ZN2kc20impl_abstract_phylumD2Ev, ptr @_ZN2kc16impl_CexpressionD0Ev, ptr @_ZN2kc16impl_Cexpression10do_unparseERNS_21printer_functor_classERNS_11uview_classE, ptr @_ZN2kc20impl_abstract_phylum15default_unparseERNS_21printer_functor_classERNS_11uview_classE, ptr @_ZNK2kc16impl_Cexpression6is_nilEv, ptr @_ZNK2kc16impl_Cexpression7reverseEv] }, align 8
@_ZN2kc21impl_Cexpression_elem11phylum_sel_E = dso_local local_unnamed_addr constant i32 26, align 4
@_ZTVN2kc38impl_Cexpression_elem_CExpressionArrayE = dso_local unnamed_addr constant { [13 x ptr] } { [13 x ptr] [ptr null, ptr @_ZTIN2kc38impl_Cexpression_elem_CExpressionArrayE, ptr @_ZNK2kc38impl_Cexpression_elem_CExpressionArray8prod_selEv, ptr @_ZNK2kc38impl_Cexpression_elem_CExpressionArray9subphylumEi, ptr @_ZN2kc38impl_Cexpression_elem_CExpressionArray13set_subphylumEiPNS_20impl_abstract_phylumE, ptr @_ZN2kc38impl_Cexpression_elem_CExpressionArray7rewriteERNS_11rview_classE, ptr @_ZN2kc20impl_abstract_phylum10do_rewriteERNS_11rview_classE, ptr @_ZN2kc20impl_abstract_phylum15rewrite_membersEPS0_, ptr @_ZN2kc20impl_abstract_phylum11post_createEv, ptr @_ZN2kc20impl_abstract_phylumD2Ev, ptr @_ZN2kc38impl_Cexpression_elem_CExpressionArrayD0Ev, ptr @_ZN2kc38impl_Cexpression_elem_CExpressionArray10do_unparseERNS_21printer_functor_classERNS_11uview_classE, ptr @_ZN2kc20impl_abstract_phylum15default_unparseERNS_21printer_functor_classERNS_11uview_classE] }, align 8
@_ZTVN2kc37impl_Cexpression_elem_CExpressionPackE = dso_local unnamed_addr constant { [13 x ptr] } { [13 x ptr] [ptr null, ptr @_ZTIN2kc37impl_Cexpression_elem_CExpressionPackE, ptr @_ZNK2kc37impl_Cexpression_elem_CExpressionPack8prod_selEv, ptr @_ZNK2kc37impl_Cexpression_elem_CExpressionPack9subphylumEi, ptr @_ZN2kc37impl_Cexpression_elem_CExpressionPack13set_subphylumEiPNS_20impl_abstract_phylumE, ptr @_ZN2kc37impl_Cexpression_elem_CExpressionPack7rewriteERNS_11rview_classE, ptr @_ZN2kc20impl_abstract_phylum10do_rewriteERNS_11rview_classE, ptr @_ZN2kc20impl_abstract_phylum15rewrite_membersEPS0_, ptr @_ZN2kc20impl_abstract_phylum11post_createEv, ptr @_ZN2kc20impl_abstract_phylumD2Ev, ptr @_ZN2kc37impl_Cexpression_elem_CExpressionPackD0Ev, ptr @_ZN2kc37impl_Cexpression_elem_CExpressionPack10do_unparseERNS_21printer_functor_classERNS_11uview_classE, ptr @_ZN2kc20impl_abstract_phylum15default_unparseERNS_21printer_functor_classERNS_11uview_classE] }, align 8
@_ZTVN2kc35impl_Cexpression_elem_CExpressionSQE = dso_local unnamed_addr constant { [13 x ptr] } { [13 x ptr] [ptr null, ptr @_ZTIN2kc35impl_Cexpression_elem_CExpressionSQE, ptr @_ZNK2kc35impl_Cexpression_elem_CExpressionSQ8prod_selEv, ptr @_ZNK2kc35impl_Cexpression_elem_CExpressionSQ9subphylumEi, ptr @_ZN2kc35impl_Cexpression_elem_CExpressionSQ13set_subphylumEiPNS_20impl_abstract_phylumE, ptr @_ZN2kc35impl_Cexpression_elem_CExpressionSQ7rewriteERNS_11rview_classE, ptr @_ZN2kc20impl_abstract_phylum10do_rewriteERNS_11rview_classE, ptr @_ZN2kc20impl_abstract_phylum15rewrite_membersEPS0_, ptr @_ZN2kc20impl_abstract_phylum11post_createEv, ptr @_ZN2kc20impl_abstract_phylumD2Ev, ptr @_ZN2kc35impl_Cexpression_elem_CExpressionSQD0Ev, ptr @_ZN2kc35impl_Cexpression_elem_CExpressionSQ10do_unparseERNS_21printer_functor_classERNS_11uview_classE, ptr @_ZN2kc20impl_abstract_phylum15default_unparseERNS_21printer_functor_classERNS_11uview_classE] }, align 8
@_ZTVN2kc35impl_Cexpression_elem_CExpressionDQE = dso_local unnamed_addr constant { [13 x ptr] } { [13 x ptr] [ptr null, ptr @_ZTIN2kc35impl_Cexpression_elem_CExpressionDQE, ptr @_ZNK2kc35impl_Cexpression_elem_CExpressionDQ8prod_selEv, ptr @_ZNK2kc35impl_Cexpression_elem_CExpressionDQ9subphylumEi, ptr @_ZN2kc35impl_Cexpression_elem_CExpressionDQ13set_subphylumEiPNS_20impl_abstract_phylumE, ptr @_ZN2kc35impl_Cexpression_elem_CExpressionDQ7rewriteERNS_11rview_classE, ptr @_ZN2kc20impl_abstract_phylum10do_rewriteERNS_11rview_classE, ptr @_ZN2kc20impl_abstract_phylum15rewrite_membersEPS0_, ptr @_ZN2kc20impl_abstract_phylum11post_createEv, ptr @_ZN2kc20impl_abstract_phylumD2Ev, ptr @_ZN2kc35impl_Cexpression_elem_CExpressionDQD0Ev, ptr @_ZN2kc35impl_Cexpression_elem_CExpressionDQ10do_unparseERNS_21printer_functor_classERNS_11uview_classE, ptr @_ZN2kc20impl_abstract_phylum15default_unparseERNS_21printer_functor_classERNS_11uview_classE] }, align 8
@_ZTVN2kc35impl_Cexpression_elem_CExpressionNlE = external unnamed_addr constant { [13 x ptr] }, align 8
@_ZTVN2kc42impl_Cexpression_elem_CExpressionDollarvarE = dso_local unnamed_addr constant { [13 x ptr] } { [13 x ptr] [ptr null, ptr @_ZTIN2kc42impl_Cexpression_elem_CExpressionDollarvarE, ptr @_ZNK2kc42impl_Cexpression_elem_CExpressionDollarvar8prod_selEv, ptr @_ZNK2kc42impl_Cexpression_elem_CExpressionDollarvar9subphylumEi, ptr @_ZN2kc42impl_Cexpression_elem_CExpressionDollarvar13set_subphylumEiPNS_20impl_abstract_phylumE, ptr @_ZN2kc42impl_Cexpression_elem_CExpressionDollarvar7rewriteERNS_11rview_classE, ptr @_ZN2kc20impl_abstract_phylum10do_rewriteERNS_11rview_classE, ptr @_ZN2kc20impl_abstract_phylum15rewrite_membersEPS0_, ptr @_ZN2kc20impl_abstract_phylum11post_createEv, ptr @_ZN2kc20impl_abstract_phylumD2Ev, ptr @_ZN2kc42impl_Cexpression_elem_CExpressionDollarvarD0Ev, ptr @_ZN2kc42impl_Cexpression_elem_CExpressionDollarvar10do_unparseERNS_21printer_functor_classERNS_11uview_classE, ptr @_ZN2kc20impl_abstract_phylum15default_unparseERNS_21printer_functor_classERNS_11uview_classE] }, align 8
@_ZTVN2kc37impl_Cexpression_elem_CExpressionPartE = dso_local unnamed_addr constant { [13 x ptr] } { [13 x ptr] [ptr null, ptr @_ZTIN2kc37impl_Cexpression_elem_CExpressionPartE, ptr @_ZNK2kc37impl_Cexpression_elem_CExpressionPart8prod_selEv, ptr @_ZNK2kc37impl_Cexpression_elem_CExpressionPart9subphylumEi, ptr @_ZN2kc37impl_Cexpression_elem_CExpressionPart13set_subphylumEiPNS_20impl_abstract_phylumE, ptr @_ZN2kc37impl_Cexpression_elem_CExpressionPart7rewriteERNS_11rview_classE, ptr @_ZN2kc20impl_abstract_phylum10do_rewriteERNS_11rview_classE, ptr @_ZN2kc20impl_abstract_phylum15rewrite_membersEPS0_, ptr @_ZN2kc20impl_abstract_phylum11post_createEv, ptr @_ZN2kc20impl_abstract_phylumD2Ev, ptr @_ZN2kc37impl_Cexpression_elem_CExpressionPartD0Ev, ptr @_ZN2kc37impl_Cexpression_elem_CExpressionPart10do_unparseERNS_21printer_functor_classERNS_11uview_classE, ptr @_ZN2kc20impl_abstract_phylum15default_unparseERNS_21printer_functor_classERNS_11uview_classE] }, align 8
@_ZN2kc18impl_CexpressionDQ11phylum_sel_E = dso_local local_unnamed_addr constant i32 27, align 4
@_ZTVN2kc18impl_CexpressionDQE = dso_local unnamed_addr constant { [15 x ptr] } { [15 x ptr] [ptr null, ptr @_ZTIN2kc18impl_CexpressionDQE, ptr @_ZNK2kc18impl_CexpressionDQ8prod_selEv, ptr @_ZNK2kc18impl_CexpressionDQ9subphylumEi, ptr @_ZN2kc18impl_CexpressionDQ13set_subphylumEiPNS_20impl_abstract_phylumE, ptr @_ZN2kc18impl_CexpressionDQ7rewriteERNS_11rview_classE, ptr @_ZN2kc20impl_abstract_phylum10do_rewriteERNS_11rview_classE, ptr @_ZN2kc20impl_abstract_phylum15rewrite_membersEPS0_, ptr @_ZN2kc20impl_abstract_phylum11post_createEv, ptr @_ZN2kc20impl_abstract_phylumD2Ev, ptr @_ZN2kc18impl_CexpressionDQD0Ev, ptr @_ZN2kc18impl_CexpressionDQ10do_unparseERNS_21printer_functor_classERNS_11uview_classE, ptr @_ZN2kc20impl_abstract_phylum15default_unparseERNS_21printer_functor_classERNS_11uview_classE, ptr @_ZNK2kc18impl_CexpressionDQ6is_nilEv, ptr @_ZNK2kc18impl_CexpressionDQ7reverseEv] }, align 8
@_ZN2kc23impl_CexpressionDQ_elem11phylum_sel_E = dso_local local_unnamed_addr constant i32 28, align 4
@_ZTVN2kc39impl_CexpressionDQ_elem_CExpressionDQNlE = external unnamed_addr constant { [13 x ptr] }, align 8
@_ZTVN2kc41impl_CexpressionDQ_elem_CExpressionDQPartE = dso_local unnamed_addr constant { [13 x ptr] } { [13 x ptr] [ptr null, ptr @_ZTIN2kc41impl_CexpressionDQ_elem_CExpressionDQPartE, ptr @_ZNK2kc41impl_CexpressionDQ_elem_CExpressionDQPart8prod_selEv, ptr @_ZNK2kc41impl_CexpressionDQ_elem_CExpressionDQPart9subphylumEi, ptr @_ZN2kc41impl_CexpressionDQ_elem_CExpressionDQPart13set_subphylumEiPNS_20impl_abstract_phylumE, ptr @_ZN2kc41impl_CexpressionDQ_elem_CExpressionDQPart7rewriteERNS_11rview_classE, ptr @_ZN2kc20impl_abstract_phylum10do_rewriteERNS_11rview_classE, ptr @_ZN2kc20impl_abstract_phylum15rewrite_membersEPS0_, ptr @_ZN2kc20impl_abstract_phylum11post_createEv, ptr @_ZN2kc20impl_abstract_phylumD2Ev, ptr @_ZN2kc41impl_CexpressionDQ_elem_CExpressionDQPartD0Ev, ptr @_ZN2kc41impl_CexpressionDQ_elem_CExpressionDQPart10do_unparseERNS_21printer_functor_classERNS_11uview_classE, ptr @_ZN2kc20impl_abstract_phylum15default_unparseERNS_21printer_functor_classERNS_11uview_classE] }, align 8
@_ZN2kc18impl_CexpressionSQ11phylum_sel_E = dso_local local_unnamed_addr constant i32 29, align 4
@_ZTVN2kc18impl_CexpressionSQE = dso_local unnamed_addr constant { [15 x ptr] } { [15 x ptr] [ptr null, ptr @_ZTIN2kc18impl_CexpressionSQE, ptr @_ZNK2kc18impl_CexpressionSQ8prod_selEv, ptr @_ZNK2kc18impl_CexpressionSQ9subphylumEi, ptr @_ZN2kc18impl_CexpressionSQ13set_subphylumEiPNS_20impl_abstract_phylumE, ptr @_ZN2kc18impl_CexpressionSQ7rewriteERNS_11rview_classE, ptr @_ZN2kc20impl_abstract_phylum10do_rewriteERNS_11rview_classE, ptr @_ZN2kc20impl_abstract_phylum15rewrite_membersEPS0_, ptr @_ZN2kc20impl_abstract_phylum11post_createEv, ptr @_ZN2kc20impl_abstract_phylumD2Ev, ptr @_ZN2kc18impl_CexpressionSQD0Ev, ptr @_ZN2kc18impl_CexpressionSQ10do_unparseERNS_21printer_functor_classERNS_11uview_classE, ptr @_ZN2kc20impl_abstract_phylum15default_unparseERNS_21printer_functor_classERNS_11uview_classE, ptr @_ZNK2kc18impl_CexpressionSQ6is_nilEv, ptr @_ZNK2kc18impl_CexpressionSQ7reverseEv] }, align 8
@_ZN2kc23impl_CexpressionSQ_elem11phylum_sel_E = dso_local local_unnamed_addr constant i32 30, align 4
@_ZTVN2kc39impl_CexpressionSQ_elem_CExpressionSQNlE = external unnamed_addr constant { [13 x ptr] }, align 8
@_ZTVN2kc41impl_CexpressionSQ_elem_CExpressionSQPartE = dso_local unnamed_addr constant { [13 x ptr] } { [13 x ptr] [ptr null, ptr @_ZTIN2kc41impl_CexpressionSQ_elem_CExpressionSQPartE, ptr @_ZNK2kc41impl_CexpressionSQ_elem_CExpressionSQPart8prod_selEv, ptr @_ZNK2kc41impl_CexpressionSQ_elem_CExpressionSQPart9subphylumEi, ptr @_ZN2kc41impl_CexpressionSQ_elem_CExpressionSQPart13set_subphylumEiPNS_20impl_abstract_phylumE, ptr @_ZN2kc41impl_CexpressionSQ_elem_CExpressionSQPart7rewriteERNS_11rview_classE, ptr @_ZN2kc20impl_abstract_phylum10do_rewriteERNS_11rview_classE, ptr @_ZN2kc20impl_abstract_phylum15rewrite_membersEPS0_, ptr @_ZN2kc20impl_abstract_phylum11post_createEv, ptr @_ZN2kc20impl_abstract_phylumD2Ev, ptr @_ZN2kc41impl_CexpressionSQ_elem_CExpressionSQPartD0Ev, ptr @_ZN2kc41impl_CexpressionSQ_elem_CExpressionSQPart10do_unparseERNS_21printer_functor_classERNS_11uview_classE, ptr @_ZN2kc20impl_abstract_phylum15default_unparseERNS_21printer_functor_classERNS_11uview_classE] }, align 8
@_ZN2kc19impl_idCexpressions11phylum_sel_E = dso_local local_unnamed_addr constant i32 31, align 4
@_ZTVN2kc19impl_idCexpressionsE = dso_local unnamed_addr constant { [15 x ptr] } { [15 x ptr] [ptr null, ptr @_ZTIN2kc19impl_idCexpressionsE, ptr @_ZNK2kc19impl_idCexpressions8prod_selEv, ptr @_ZNK2kc19impl_idCexpressions9subphylumEi, ptr @_ZN2kc19impl_idCexpressions13set_subphylumEiPNS_20impl_abstract_phylumE, ptr @_ZN2kc19impl_idCexpressions7rewriteERNS_11rview_classE, ptr @_ZN2kc20impl_abstract_phylum10do_rewriteERNS_11rview_classE, ptr @_ZN2kc20impl_abstract_phylum15rewrite_membersEPS0_, ptr @_ZN2kc20impl_abstract_phylum11post_createEv, ptr @_ZN2kc20impl_abstract_phylumD2Ev, ptr @_ZN2kc19impl_idCexpressionsD0Ev, ptr @_ZN2kc19impl_idCexpressions10do_unparseERNS_21printer_functor_classERNS_11uview_classE, ptr @_ZN2kc20impl_abstract_phylum15default_unparseERNS_21printer_functor_classERNS_11uview_classE, ptr @_ZNK2kc19impl_idCexpressions6is_nilEv, ptr @_ZNK2kc19impl_idCexpressions7reverseEv] }, align 8
@_ZN2kc18impl_idCexpression11phylum_sel_E = dso_local local_unnamed_addr constant i32 32, align 4
@_ZTVN2kc32impl_idCexpression_IdCexpressionE = dso_local unnamed_addr constant { [13 x ptr] } { [13 x ptr] [ptr null, ptr @_ZTIN2kc32impl_idCexpression_IdCexpressionE, ptr @_ZNK2kc32impl_idCexpression_IdCexpression8prod_selEv, ptr @_ZNK2kc32impl_idCexpression_IdCexpression9subphylumEi, ptr @_ZN2kc32impl_idCexpression_IdCexpression13set_subphylumEiPNS_20impl_abstract_phylumE, ptr @_ZN2kc32impl_idCexpression_IdCexpression7rewriteERNS_11rview_classE, ptr @_ZN2kc20impl_abstract_phylum10do_rewriteERNS_11rview_classE, ptr @_ZN2kc20impl_abstract_phylum15rewrite_membersEPS0_, ptr @_ZN2kc20impl_abstract_phylum11post_createEv, ptr @_ZN2kc20impl_abstract_phylumD2Ev, ptr @_ZN2kc32impl_idCexpression_IdCexpressionD0Ev, ptr @_ZN2kc32impl_idCexpression_IdCexpression10do_unparseERNS_21printer_functor_classERNS_11uview_classE, ptr @_ZN2kc20impl_abstract_phylum15default_unparseERNS_21printer_functor_classERNS_11uview_classE] }, align 8
@_ZN2kc11impl_Ctexts11phylum_sel_E = dso_local local_unnamed_addr constant i32 33, align 4
@_ZTVN2kc11impl_CtextsE = dso_local unnamed_addr constant { [15 x ptr] } { [15 x ptr] [ptr null, ptr @_ZTIN2kc11impl_CtextsE, ptr @_ZNK2kc11impl_Ctexts8prod_selEv, ptr @_ZNK2kc11impl_Ctexts9subphylumEi, ptr @_ZN2kc11impl_Ctexts13set_subphylumEiPNS_20impl_abstract_phylumE, ptr @_ZN2kc11impl_Ctexts7rewriteERNS_11rview_classE, ptr @_ZN2kc20impl_abstract_phylum10do_rewriteERNS_11rview_classE, ptr @_ZN2kc20impl_abstract_phylum15rewrite_membersEPS0_, ptr @_ZN2kc20impl_abstract_phylum11post_createEv, ptr @_ZN2kc20impl_abstract_phylumD2Ev, ptr @_ZN2kc11impl_CtextsD0Ev, ptr @_ZN2kc11impl_Ctexts10do_unparseERNS_21printer_functor_classERNS_11uview_classE, ptr @_ZN2kc20impl_abstract_phylum15default_unparseERNS_21printer_functor_classERNS_11uview_classE, ptr @_ZNK2kc11impl_Ctexts6is_nilEv, ptr @_ZNK2kc11impl_Ctexts7reverseEv] }, align 8
@_ZN2kc17impl_includefiles11phylum_sel_E = dso_local local_unnamed_addr constant i32 34, align 4
@_ZTVN2kc17impl_includefilesE = dso_local unnamed_addr constant { [15 x ptr] } { [15 x ptr] [ptr null, ptr @_ZTIN2kc17impl_includefilesE, ptr @_ZNK2kc17impl_includefiles8prod_selEv, ptr @_ZNK2kc17impl_includefiles9subphylumEi, ptr @_ZN2kc17impl_includefiles13set_subphylumEiPNS_20impl_abstract_phylumE, ptr @_ZN2kc17impl_includefiles7rewriteERNS_11rview_classE, ptr @_ZN2kc20impl_abstract_phylum10do_rewriteERNS_11rview_classE, ptr @_ZN2kc20impl_abstract_phylum15rewrite_membersEPS0_, ptr @_ZN2kc20impl_abstract_phylum11post_createEv, ptr @_ZN2kc20impl_abstract_phylumD2Ev, ptr @_ZN2kc17impl_includefilesD0Ev, ptr @_ZN2kc17impl_includefiles10do_unparseERNS_21printer_functor_classERNS_11uview_classE, ptr @_ZN2kc20impl_abstract_phylum15default_unparseERNS_21printer_functor_classERNS_11uview_classE, ptr @_ZNK2kc17impl_includefiles6is_nilEv, ptr @_ZNK2kc17impl_includefiles7reverseEv] }, align 8
@_ZN2kc16impl_includefile11phylum_sel_E = dso_local local_unnamed_addr constant i32 35, align 4
@_ZTVN2kc28impl_includefile_IncludeFileE = dso_local unnamed_addr constant { [13 x ptr] } { [13 x ptr] [ptr null, ptr @_ZTIN2kc28impl_includefile_IncludeFileE, ptr @_ZNK2kc28impl_includefile_IncludeFile8prod_selEv, ptr @_ZNK2kc28impl_includefile_IncludeFile9subphylumEi, ptr @_ZN2kc28impl_includefile_IncludeFile13set_subphylumEiPNS_20impl_abstract_phylumE, ptr @_ZN2kc28impl_includefile_IncludeFile7rewriteERNS_11rview_classE, ptr @_ZN2kc20impl_abstract_phylum10do_rewriteERNS_11rview_classE, ptr @_ZN2kc20impl_abstract_phylum15rewrite_membersEPS0_, ptr @_ZN2kc20impl_abstract_phylum11post_createEv, ptr @_ZN2kc20impl_abstract_phylumD2Ev, ptr @_ZN2kc28impl_includefile_IncludeFileD0Ev, ptr @_ZN2kc28impl_includefile_IncludeFile10do_unparseERNS_21printer_functor_classERNS_11uview_classE, ptr @_ZN2kc20impl_abstract_phylum15default_unparseERNS_21printer_functor_classERNS_11uview_classE] }, align 8
@_ZN2kc24impl_includedeclarations11phylum_sel_E = dso_local local_unnamed_addr constant i32 36, align 4
@_ZTVN2kc24impl_includedeclarationsE = dso_local unnamed_addr constant { [15 x ptr] } { [15 x ptr] [ptr null, ptr @_ZTIN2kc24impl_includedeclarationsE, ptr @_ZNK2kc24impl_includedeclarations8prod_selEv, ptr @_ZNK2kc24impl_includedeclarations9subphylumEi, ptr @_ZN2kc24impl_includedeclarations13set_subphylumEiPNS_20impl_abstract_phylumE, ptr @_ZN2kc24impl_includedeclarations7rewriteERNS_11rview_classE, ptr @_ZN2kc20impl_abstract_phylum10do_rewriteERNS_11rview_classE, ptr @_ZN2kc20impl_abstract_phylum15rewrite_membersEPS0_, ptr @_ZN2kc20impl_abstract_phylum11post_createEv, ptr @_ZN2kc20impl_abstract_phylumD2Ev, ptr @_ZN2kc24impl_includedeclarationsD0Ev, ptr @_ZN2kc24impl_includedeclarations10do_unparseERNS_21printer_functor_classERNS_11uview_classE, ptr @_ZN2kc20impl_abstract_phylum15default_unparseERNS_21printer_functor_classERNS_11uview_classE, ptr @_ZNK2kc24impl_includedeclarations6is_nilEv, ptr @_ZNK2kc24impl_includedeclarations7reverseEv] }, align 8
@_ZN2kc23impl_includedeclaration11phylum_sel_E = dso_local local_unnamed_addr constant i32 37, align 4
@_ZTVN2kc42impl_includedeclaration_IncludeDeclarationE = dso_local unnamed_addr constant { [13 x ptr] } { [13 x ptr] [ptr null, ptr @_ZTIN2kc42impl_includedeclaration_IncludeDeclarationE, ptr @_ZNK2kc42impl_includedeclaration_IncludeDeclaration8prod_selEv, ptr @_ZNK2kc42impl_includedeclaration_IncludeDeclaration9subphylumEi, ptr @_ZN2kc42impl_includedeclaration_IncludeDeclaration13set_subphylumEiPNS_20impl_abstract_phylumE, ptr @_ZN2kc42impl_includedeclaration_IncludeDeclaration7rewriteERNS_11rview_classE, ptr @_ZN2kc20impl_abstract_phylum10do_rewriteERNS_11rview_classE, ptr @_ZN2kc20impl_abstract_phylum15rewrite_membersEPS0_, ptr @_ZN2kc20impl_abstract_phylum11post_createEv, ptr @_ZN2kc20impl_abstract_phylumD2Ev, ptr @_ZN2kc42impl_includedeclaration_IncludeDeclarationD0Ev, ptr @_ZN2kc42impl_includedeclaration_IncludeDeclaration10do_unparseERNS_21printer_functor_classERNS_11uview_classE, ptr @_ZN2kc20impl_abstract_phylum15default_unparseERNS_21printer_functor_classERNS_11uview_classE] }, align 8
@_ZN2kc19impl_rwdeclarations11phylum_sel_E = dso_local local_unnamed_addr constant i32 38, align 4
@_ZTVN2kc19impl_rwdeclarationsE = dso_local unnamed_addr constant { [15 x ptr] } { [15 x ptr] [ptr null, ptr @_ZTIN2kc19impl_rwdeclarationsE, ptr @_ZNK2kc19impl_rwdeclarations8prod_selEv, ptr @_ZNK2kc19impl_rwdeclarations9subphylumEi, ptr @_ZN2kc19impl_rwdeclarations13set_subphylumEiPNS_20impl_abstract_phylumE, ptr @_ZN2kc19impl_rwdeclarations7rewriteERNS_11rview_classE, ptr @_ZN2kc20impl_abstract_phylum10do_rewriteERNS_11rview_classE, ptr @_ZN2kc20impl_abstract_phylum15rewrite_membersEPS0_, ptr @_ZN2kc20impl_abstract_phylum11post_createEv, ptr @_ZN2kc20impl_abstract_phylumD2Ev, ptr @_ZN2kc19impl_rwdeclarationsD0Ev, ptr @_ZN2kc19impl_rwdeclarations10do_unparseERNS_21printer_functor_classERNS_11uview_classE, ptr @_ZN2kc20impl_abstract_phylum15default_unparseERNS_21printer_functor_classERNS_11uview_classE, ptr @_ZNK2kc19impl_rwdeclarations6is_nilEv, ptr @_ZNK2kc19impl_rwdeclarations7reverseEv] }, align 8
@_ZN2kc18impl_rwdeclaration11phylum_sel_E = dso_local local_unnamed_addr constant i32 39, align 4
@_ZTVN2kc32impl_rwdeclaration_RwDeclarationE = dso_local unnamed_addr constant { [13 x ptr] } { [13 x ptr] [ptr null, ptr @_ZTIN2kc32impl_rwdeclaration_RwDeclarationE, ptr @_ZNK2kc32impl_rwdeclaration_RwDeclaration8prod_selEv, ptr @_ZNK2kc32impl_rwdeclaration_RwDeclaration9subphylumEi, ptr @_ZN2kc32impl_rwdeclaration_RwDeclaration13set_subphylumEiPNS_20impl_abstract_phylumE, ptr @_ZN2kc32impl_rwdeclaration_RwDeclaration7rewriteERNS_11rview_classE, ptr @_ZN2kc20impl_abstract_phylum10do_rewriteERNS_11rview_classE, ptr @_ZN2kc20impl_abstract_phylum15rewrite_membersEPS0_, ptr @_ZN2kc20impl_abstract_phylum11post_createEv, ptr @_ZN2kc20impl_abstract_phylumD2Ev, ptr @_ZN2kc32impl_rwdeclaration_RwDeclarationD0Ev, ptr @_ZN2kc32impl_rwdeclaration_RwDeclaration10do_unparseERNS_21printer_functor_classERNS_11uview_classE, ptr @_ZN2kc20impl_abstract_phylum15default_unparseERNS_21printer_functor_classERNS_11uview_classE] }, align 8
@_ZN2kc19impl_rewriteclauses11phylum_sel_E = dso_local local_unnamed_addr constant i32 40, align 4
@_ZTVN2kc19impl_rewriteclausesE = dso_local unnamed_addr constant { [15 x ptr] } { [15 x ptr] [ptr null, ptr @_ZTIN2kc19impl_rewriteclausesE, ptr @_ZNK2kc19impl_rewriteclauses8prod_selEv, ptr @_ZNK2kc19impl_rewriteclauses9subphylumEi, ptr @_ZN2kc19impl_rewriteclauses13set_subphylumEiPNS_20impl_abstract_phylumE, ptr @_ZN2kc19impl_rewriteclauses7rewriteERNS_11rview_classE, ptr @_ZN2kc20impl_abstract_phylum10do_rewriteERNS_11rview_classE, ptr @_ZN2kc20impl_abstract_phylum15rewrite_membersEPS0_, ptr @_ZN2kc20impl_abstract_phylum11post_createEv, ptr @_ZN2kc20impl_abstract_phylumD2Ev, ptr @_ZN2kc19impl_rewriteclausesD0Ev, ptr @_ZN2kc19impl_rewriteclauses10do_unparseERNS_21printer_functor_classERNS_11uview_classE, ptr @_ZN2kc20impl_abstract_phylum15default_unparseERNS_21printer_functor_classERNS_11uview_classE, ptr @_ZNK2kc19impl_rewriteclauses6is_nilEv, ptr @_ZNK2kc19impl_rewriteclauses7reverseEv] }, align 8
@_ZN2kc18impl_rewriteclause11phylum_sel_E = dso_local local_unnamed_addr constant i32 41, align 4
@_ZTVN2kc32impl_rewriteclause_RewriteClauseE = dso_local unnamed_addr constant { [13 x ptr] } { [13 x ptr] [ptr null, ptr @_ZTIN2kc32impl_rewriteclause_RewriteClauseE, ptr @_ZNK2kc32impl_rewriteclause_RewriteClause8prod_selEv, ptr @_ZNK2kc32impl_rewriteclause_RewriteClause9subphylumEi, ptr @_ZN2kc32impl_rewriteclause_RewriteClause13set_subphylumEiPNS_20impl_abstract_phylumE, ptr @_ZN2kc32impl_rewriteclause_RewriteClause7rewriteERNS_11rview_classE, ptr @_ZN2kc20impl_abstract_phylum10do_rewriteERNS_11rview_classE, ptr @_ZN2kc20impl_abstract_phylum15rewrite_membersEPS0_, ptr @_ZN2kc20impl_abstract_phylum11post_createEv, ptr @_ZN2kc20impl_abstract_phylumD2Ev, ptr @_ZN2kc32impl_rewriteclause_RewriteClauseD0Ev, ptr @_ZN2kc32impl_rewriteclause_RewriteClause10do_unparseERNS_21printer_functor_classERNS_11uview_classE, ptr @_ZN2kc20impl_abstract_phylum15default_unparseERNS_21printer_functor_classERNS_11uview_classE] }, align 8
@_ZN2kc18impl_patternchains11phylum_sel_E = dso_local local_unnamed_addr constant i32 42, align 4
@_ZTVN2kc18impl_patternchainsE = dso_local unnamed_addr constant { [15 x ptr] } { [15 x ptr] [ptr null, ptr @_ZTIN2kc18impl_patternchainsE, ptr @_ZNK2kc18impl_patternchains8prod_selEv, ptr @_ZNK2kc18impl_patternchains9subphylumEi, ptr @_ZN2kc18impl_patternchains13set_subphylumEiPNS_20impl_abstract_phylumE, ptr @_ZN2kc18impl_patternchains7rewriteERNS_11rview_classE, ptr @_ZN2kc20impl_abstract_phylum10do_rewriteERNS_11rview_classE, ptr @_ZN2kc20impl_abstract_phylum15rewrite_membersEPS0_, ptr @_ZN2kc20impl_abstract_phylum11post_createEv, ptr @_ZN2kc20impl_abstract_phylumD2Ev, ptr @_ZN2kc18impl_patternchainsD0Ev, ptr @_ZN2kc18impl_patternchains10do_unparseERNS_21printer_functor_classERNS_11uview_classE, ptr @_ZN2kc20impl_abstract_phylum15default_unparseERNS_21printer_functor_classERNS_11uview_classE, ptr @_ZNK2kc18impl_patternchains6is_nilEv, ptr @_ZNK2kc18impl_patternchains7reverseEv] }, align 8
@_ZN2kc17impl_patternchain11phylum_sel_E = dso_local local_unnamed_addr constant i32 43, align 4
@_ZTVN2kc17impl_patternchainE = dso_local unnamed_addr constant { [15 x ptr] } { [15 x ptr] [ptr null, ptr @_ZTIN2kc17impl_patternchainE, ptr @_ZNK2kc17impl_patternchain8prod_selEv, ptr @_ZNK2kc17impl_patternchain9subphylumEi, ptr @_ZN2kc17impl_patternchain13set_subphylumEiPNS_20impl_abstract_phylumE, ptr @_ZN2kc17impl_patternchain7rewriteERNS_11rview_classE, ptr @_ZN2kc20impl_abstract_phylum10do_rewriteERNS_11rview_classE, ptr @_ZN2kc20impl_abstract_phylum15rewrite_membersEPS0_, ptr @_ZN2kc20impl_abstract_phylum11post_createEv, ptr @_ZN2kc20impl_abstract_phylumD2Ev, ptr @_ZN2kc17impl_patternchainD0Ev, ptr @_ZN2kc17impl_patternchain10do_unparseERNS_21printer_functor_classERNS_11uview_classE, ptr @_ZN2kc20impl_abstract_phylum15default_unparseERNS_21printer_functor_classERNS_11uview_classE, ptr @_ZNK2kc17impl_patternchain6is_nilEv, ptr @_ZNK2kc17impl_patternchain7reverseEv] }, align 8
@_ZN2kc20impl_outmostpatterns11phylum_sel_E = dso_local local_unnamed_addr constant i32 44, align 4
@_ZTVN2kc20impl_outmostpatternsE = dso_local unnamed_addr constant { [15 x ptr] } { [15 x ptr] [ptr null, ptr @_ZTIN2kc20impl_outmostpatternsE, ptr @_ZNK2kc20impl_outmostpatterns8prod_selEv, ptr @_ZNK2kc20impl_outmostpatterns9subphylumEi, ptr @_ZN2kc20impl_outmostpatterns13set_subphylumEiPNS_20impl_abstract_phylumE, ptr @_ZN2kc20impl_outmostpatterns7rewriteERNS_11rview_classE, ptr @_ZN2kc20impl_abstract_phylum10do_rewriteERNS_11rview_classE, ptr @_ZN2kc20impl_abstract_phylum15rewrite_membersEPS0_, ptr @_ZN2kc20impl_abstract_phylum11post_createEv, ptr @_ZN2kc20impl_abstract_phylumD2Ev, ptr @_ZN2kc20impl_outmostpatternsD0Ev, ptr @_ZN2kc20impl_outmostpatterns10do_unparseERNS_21printer_functor_classERNS_11uview_classE, ptr @_ZN2kc20impl_abstract_phylum15default_unparseERNS_21printer_functor_classERNS_11uview_classE, ptr @_ZNK2kc20impl_outmostpatterns6is_nilEv, ptr @_ZNK2kc20impl_outmostpatterns7reverseEv] }, align 8
@_ZN2kc21impl_patternchainitem11phylum_sel_E = dso_local local_unnamed_addr constant i32 45, align 4
@_ZTVN2kc46impl_patternchainitem_PatternchainitemDollaridE = dso_local unnamed_addr constant { [13 x ptr] } { [13 x ptr] [ptr null, ptr @_ZTIN2kc46impl_patternchainitem_PatternchainitemDollaridE, ptr @_ZNK2kc46impl_patternchainitem_PatternchainitemDollarid8prod_selEv, ptr @_ZNK2kc46impl_patternchainitem_PatternchainitemDollarid9subphylumEi, ptr @_ZN2kc46impl_patternchainitem_PatternchainitemDollarid13set_subphylumEiPNS_20impl_abstract_phylumE, ptr @_ZN2kc46impl_patternchainitem_PatternchainitemDollarid7rewriteERNS_11rview_classE, ptr @_ZN2kc20impl_abstract_phylum10do_rewriteERNS_11rview_classE, ptr @_ZN2kc20impl_abstract_phylum15rewrite_membersEPS0_, ptr @_ZN2kc20impl_abstract_phylum11post_createEv, ptr @_ZN2kc20impl_abstract_phylumD2Ev, ptr @_ZN2kc46impl_patternchainitem_PatternchainitemDollaridD0Ev, ptr @_ZN2kc46impl_patternchainitem_PatternchainitemDollarid10do_unparseERNS_21printer_functor_classERNS_11uview_classE, ptr @_ZN2kc20impl_abstract_phylum15default_unparseERNS_21printer_functor_classERNS_11uview_classE] }, align 8
@_ZTVN2kc43impl_patternchainitem_PatternchainitemGroupE = dso_local unnamed_addr constant { [13 x ptr] } { [13 x ptr] [ptr null, ptr @_ZTIN2kc43impl_patternchainitem_PatternchainitemGroupE, ptr @_ZNK2kc43impl_patternchainitem_PatternchainitemGroup8prod_selEv, ptr @_ZNK2kc43impl_patternchainitem_PatternchainitemGroup9subphylumEi, ptr @_ZN2kc43impl_patternchainitem_PatternchainitemGroup13set_subphylumEiPNS_20impl_abstract_phylumE, ptr @_ZN2kc43impl_patternchainitem_PatternchainitemGroup7rewriteERNS_11rview_classE, ptr @_ZN2kc20impl_abstract_phylum10do_rewriteERNS_11rview_classE, ptr @_ZN2kc20impl_abstract_phylum15rewrite_membersEPS0_, ptr @_ZN2kc20impl_abstract_phylum11post_createEv, ptr @_ZN2kc20impl_abstract_phylumD2Ev, ptr @_ZN2kc43impl_patternchainitem_PatternchainitemGroupD0Ev, ptr @_ZN2kc43impl_patternchainitem_PatternchainitemGroup10do_unparseERNS_21printer_functor_classERNS_11uview_classE, ptr @_ZN2kc20impl_abstract_phylum15default_unparseERNS_21printer_functor_classERNS_11uview_classE] }, align 8
@_ZTVN2kc45impl_patternchainitem_PatternchainitemOutmostE = dso_local unnamed_addr constant { [13 x ptr] } { [13 x ptr] [ptr null, ptr @_ZTIN2kc45impl_patternchainitem_PatternchainitemOutmostE, ptr @_ZNK2kc45impl_patternchainitem_PatternchainitemOutmost8prod_selEv, ptr @_ZNK2kc45impl_patternchainitem_PatternchainitemOutmost9subphylumEi, ptr @_ZN2kc45impl_patternchainitem_PatternchainitemOutmost13set_subphylumEiPNS_20impl_abstract_phylumE, ptr @_ZN2kc45impl_patternchainitem_PatternchainitemOutmost7rewriteERNS_11rview_classE, ptr @_ZN2kc20impl_abstract_phylum10do_rewriteERNS_11rview_classE, ptr @_ZN2kc20impl_abstract_phylum15rewrite_membersEPS0_, ptr @_ZN2kc20impl_abstract_phylum11post_createEv, ptr @_ZN2kc20impl_abstract_phylumD2Ev, ptr @_ZN2kc45impl_patternchainitem_PatternchainitemOutmostD0Ev, ptr @_ZN2kc45impl_patternchainitem_PatternchainitemOutmost10do_unparseERNS_21printer_functor_classERNS_11uview_classE, ptr @_ZN2kc20impl_abstract_phylum15default_unparseERNS_21printer_functor_classERNS_11uview_classE] }, align 8
@_ZN2kc19impl_outmostpattern11phylum_sel_E = dso_local local_unnamed_addr constant i32 46, align 4
@_ZTVN2kc29impl_outmostpattern_OPDefaultE = dso_local unnamed_addr constant { [13 x ptr] } { [13 x ptr] [ptr null, ptr @_ZTIN2kc29impl_outmostpattern_OPDefaultE, ptr @_ZNK2kc29impl_outmostpattern_OPDefault8prod_selEv, ptr @_ZNK2kc29impl_outmostpattern_OPDefault9subphylumEi, ptr @_ZN2kc29impl_outmostpattern_OPDefault13set_subphylumEiPNS_20impl_abstract_phylumE, ptr @_ZN2kc29impl_outmostpattern_OPDefault7rewriteERNS_11rview_classE, ptr @_ZN2kc20impl_abstract_phylum10do_rewriteERNS_11rview_classE, ptr @_ZN2kc20impl_abstract_phylum15rewrite_membersEPS0_, ptr @_ZN2kc20impl_abstract_phylum11post_createEv, ptr @_ZN2kc20impl_abstract_phylumD2Ev, ptr @_ZN2kc29impl_outmostpattern_OPDefaultD0Ev, ptr @_ZN2kc29impl_outmostpattern_OPDefault10do_unparseERNS_21printer_functor_classERNS_11uview_classE, ptr @_ZN2kc20impl_abstract_phylum15default_unparseERNS_21printer_functor_classERNS_11uview_classE] }, align 8
@_ZTVN2kc30impl_outmostpattern_OPWildcardE = dso_local unnamed_addr constant { [13 x ptr] } { [13 x ptr] [ptr null, ptr @_ZTIN2kc30impl_outmostpattern_OPWildcardE, ptr @_ZNK2kc30impl_outmostpattern_OPWildcard8prod_selEv, ptr @_ZNK2kc30impl_outmostpattern_OPWildcard9subphylumEi, ptr @_ZN2kc30impl_outmostpattern_OPWildcard13set_subphylumEiPNS_20impl_abstract_phylumE, ptr @_ZN2kc30impl_outmostpattern_OPWildcard7rewriteERNS_11rview_classE, ptr @_ZN2kc20impl_abstract_phylum10do_rewriteERNS_11rview_classE, ptr @_ZN2kc20impl_abstract_phylum15rewrite_membersEPS0_, ptr @_ZN2kc20impl_abstract_phylum11post_createEv, ptr @_ZN2kc20impl_abstract_phylumD2Ev, ptr @_ZN2kc30impl_outmostpattern_OPWildcardD0Ev, ptr @_ZN2kc30impl_outmostpattern_OPWildcard10do_unparseERNS_21printer_functor_classERNS_11uview_classE, ptr @_ZN2kc20impl_abstract_phylum15default_unparseERNS_21printer_functor_classERNS_11uview_classE] }, align 8
@_ZTVN2kc37impl_outmostpattern_OPNonLeafVariableE = dso_local unnamed_addr constant { [13 x ptr] } { [13 x ptr] [ptr null, ptr @_ZTIN2kc37impl_outmostpattern_OPNonLeafVariableE, ptr @_ZNK2kc37impl_outmostpattern_OPNonLeafVariable8prod_selEv, ptr @_ZNK2kc37impl_outmostpattern_OPNonLeafVariable9subphylumEi, ptr @_ZN2kc37impl_outmostpattern_OPNonLeafVariable13set_subphylumEiPNS_20impl_abstract_phylumE, ptr @_ZN2kc37impl_outmostpattern_OPNonLeafVariable7rewriteERNS_11rview_classE, ptr @_ZN2kc20impl_abstract_phylum10do_rewriteERNS_11rview_classE, ptr @_ZN2kc20impl_abstract_phylum15rewrite_membersEPS0_, ptr @_ZN2kc20impl_abstract_phylum11post_createEv, ptr @_ZN2kc20impl_abstract_phylumD2Ev, ptr @_ZN2kc37impl_outmostpattern_OPNonLeafVariableD0Ev, ptr @_ZN2kc37impl_outmostpattern_OPNonLeafVariable10do_unparseERNS_21printer_functor_classERNS_11uview_classE, ptr @_ZN2kc20impl_abstract_phylum15default_unparseERNS_21printer_functor_classERNS_11uview_classE] }, align 8
@_ZTVN2kc30impl_outmostpattern_OPOperatorE = dso_local unnamed_addr constant { [13 x ptr] } { [13 x ptr] [ptr null, ptr @_ZTIN2kc30impl_outmostpattern_OPOperatorE, ptr @_ZNK2kc30impl_outmostpattern_OPOperator8prod_selEv, ptr @_ZNK2kc30impl_outmostpattern_OPOperator9subphylumEi, ptr @_ZN2kc30impl_outmostpattern_OPOperator13set_subphylumEiPNS_20impl_abstract_phylumE, ptr @_ZN2kc30impl_outmostpattern_OPOperator7rewriteERNS_11rview_classE, ptr @_ZN2kc20impl_abstract_phylum10do_rewriteERNS_11rview_classE, ptr @_ZN2kc20impl_abstract_phylum15rewrite_membersEPS0_, ptr @_ZN2kc20impl_abstract_phylum11post_createEv, ptr @_ZN2kc20impl_abstract_phylumD2Ev, ptr @_ZN2kc30impl_outmostpattern_OPOperatorD0Ev, ptr @_ZN2kc30impl_outmostpattern_OPOperator10do_unparseERNS_21printer_functor_classERNS_11uview_classE, ptr @_ZN2kc20impl_abstract_phylum15default_unparseERNS_21printer_functor_classERNS_11uview_classE] }, align 8
@_ZTVN2kc38impl_outmostpattern_OPOperatorWildcardE = dso_local unnamed_addr constant { [13 x ptr] } { [13 x ptr] [ptr null, ptr @_ZTIN2kc38impl_outmostpattern_OPOperatorWildcardE, ptr @_ZNK2kc38impl_outmostpattern_OPOperatorWildcard8prod_selEv, ptr @_ZNK2kc38impl_outmostpattern_OPOperatorWildcard9subphylumEi, ptr @_ZN2kc38impl_outmostpattern_OPOperatorWildcard13set_subphylumEiPNS_20impl_abstract_phylumE, ptr @_ZN2kc38impl_outmostpattern_OPOperatorWildcard7rewriteERNS_11rview_classE, ptr @_ZN2kc20impl_abstract_phylum10do_rewriteERNS_11rview_classE, ptr @_ZN2kc20impl_abstract_phylum15rewrite_membersEPS0_, ptr @_ZN2kc20impl_abstract_phylum11post_createEv, ptr @_ZN2kc20impl_abstract_phylumD2Ev, ptr @_ZN2kc38impl_outmostpattern_OPOperatorWildcardD0Ev, ptr @_ZN2kc38impl_outmostpattern_OPOperatorWildcard10do_unparseERNS_21printer_functor_classERNS_11uview_classE, ptr @_ZN2kc20impl_abstract_phylum15default_unparseERNS_21printer_functor_classERNS_11uview_classE] }, align 8
@_ZN2kc12impl_pattern11phylum_sel_E = dso_local local_unnamed_addr constant i32 47, align 4
@_ZTVN2kc24impl_pattern_PIntLiteralE = dso_local unnamed_addr constant { [13 x ptr] } { [13 x ptr] [ptr null, ptr @_ZTIN2kc24impl_pattern_PIntLiteralE, ptr @_ZNK2kc24impl_pattern_PIntLiteral8prod_selEv, ptr @_ZNK2kc24impl_pattern_PIntLiteral9subphylumEi, ptr @_ZN2kc24impl_pattern_PIntLiteral13set_subphylumEiPNS_20impl_abstract_phylumE, ptr @_ZN2kc24impl_pattern_PIntLiteral7rewriteERNS_11rview_classE, ptr @_ZN2kc20impl_abstract_phylum10do_rewriteERNS_11rview_classE, ptr @_ZN2kc20impl_abstract_phylum15rewrite_membersEPS0_, ptr @_ZN2kc20impl_abstract_phylum11post_createEv, ptr @_ZN2kc20impl_abstract_phylumD2Ev, ptr @_ZN2kc24impl_pattern_PIntLiteralD0Ev, ptr @_ZN2kc24impl_pattern_PIntLiteral10do_unparseERNS_21printer_functor_classERNS_11uview_classE, ptr @_ZN2kc20impl_abstract_phylum15default_unparseERNS_21printer_functor_classERNS_11uview_classE] }, align 8
@_ZTVN2kc27impl_pattern_PStringLiteralE = dso_local unnamed_addr constant { [13 x ptr] } { [13 x ptr] [ptr null, ptr @_ZTIN2kc27impl_pattern_PStringLiteralE, ptr @_ZNK2kc27impl_pattern_PStringLiteral8prod_selEv, ptr @_ZNK2kc27impl_pattern_PStringLiteral9subphylumEi, ptr @_ZN2kc27impl_pattern_PStringLiteral13set_subphylumEiPNS_20impl_abstract_phylumE, ptr @_ZN2kc27impl_pattern_PStringLiteral7rewriteERNS_11rview_classE, ptr @_ZN2kc20impl_abstract_phylum10do_rewriteERNS_11rview_classE, ptr @_ZN2kc20impl_abstract_phylum15rewrite_membersEPS0_, ptr @_ZN2kc20impl_abstract_phylum11post_createEv, ptr @_ZN2kc20impl_abstract_phylumD2Ev, ptr @_ZN2kc27impl_pattern_PStringLiteralD0Ev, ptr @_ZN2kc27impl_pattern_PStringLiteral10do_unparseERNS_21printer_functor_classERNS_11uview_classE, ptr @_ZN2kc20impl_abstract_phylum15default_unparseERNS_21printer_functor_classERNS_11uview_classE] }, align 8
@_ZTVN2kc22impl_pattern_PWildcardE = external unnamed_addr constant { [13 x ptr] }, align 8
@_ZTVN2kc29impl_pattern_PNonLeafVariableE = dso_local unnamed_addr constant { [13 x ptr] } { [13 x ptr] [ptr null, ptr @_ZTIN2kc29impl_pattern_PNonLeafVariableE, ptr @_ZNK2kc29impl_pattern_PNonLeafVariable8prod_selEv, ptr @_ZNK2kc29impl_pattern_PNonLeafVariable9subphylumEi, ptr @_ZN2kc29impl_pattern_PNonLeafVariable13set_subphylumEiPNS_20impl_abstract_phylumE, ptr @_ZN2kc29impl_pattern_PNonLeafVariable7rewriteERNS_11rview_classE, ptr @_ZN2kc20impl_abstract_phylum10do_rewriteERNS_11rview_classE, ptr @_ZN2kc20impl_abstract_phylum15rewrite_membersEPS0_, ptr @_ZN2kc20impl_abstract_phylum11post_createEv, ptr @_ZN2kc20impl_abstract_phylumD2Ev, ptr @_ZN2kc29impl_pattern_PNonLeafVariableD0Ev, ptr @_ZN2kc29impl_pattern_PNonLeafVariable10do_unparseERNS_21printer_functor_classERNS_11uview_classE, ptr @_ZN2kc20impl_abstract_phylum15default_unparseERNS_21printer_functor_classERNS_11uview_classE] }, align 8
@_ZTVN2kc22impl_pattern_POperatorE = dso_local unnamed_addr constant { [13 x ptr] } { [13 x ptr] [ptr null, ptr @_ZTIN2kc22impl_pattern_POperatorE, ptr @_ZNK2kc22impl_pattern_POperator8prod_selEv, ptr @_ZNK2kc22impl_pattern_POperator9subphylumEi, ptr @_ZN2kc22impl_pattern_POperator13set_subphylumEiPNS_20impl_abstract_phylumE, ptr @_ZN2kc22impl_pattern_POperator7rewriteERNS_11rview_classE, ptr @_ZN2kc20impl_abstract_phylum10do_rewriteERNS_11rview_classE, ptr @_ZN2kc20impl_abstract_phylum15rewrite_membersEPS0_, ptr @_ZN2kc20impl_abstract_phylum11post_createEv, ptr @_ZN2kc20impl_abstract_phylumD2Ev, ptr @_ZN2kc22impl_pattern_POperatorD0Ev, ptr @_ZN2kc22impl_pattern_POperator10do_unparseERNS_21printer_functor_classERNS_11uview_classE, ptr @_ZN2kc20impl_abstract_phylum15default_unparseERNS_21printer_functor_classERNS_11uview_classE] }, align 8
@_ZTVN2kc22impl_pattern_PVariableE = dso_local unnamed_addr constant { [13 x ptr] } { [13 x ptr] [ptr null, ptr @_ZTIN2kc22impl_pattern_PVariableE, ptr @_ZNK2kc22impl_pattern_PVariable8prod_selEv, ptr @_ZNK2kc22impl_pattern_PVariable9subphylumEi, ptr @_ZN2kc22impl_pattern_PVariable13set_subphylumEiPNS_20impl_abstract_phylumE, ptr @_ZN2kc22impl_pattern_PVariable7rewriteERNS_11rview_classE, ptr @_ZN2kc20impl_abstract_phylum10do_rewriteERNS_11rview_classE, ptr @_ZN2kc20impl_abstract_phylum15rewrite_membersEPS0_, ptr @_ZN2kc20impl_abstract_phylum11post_createEv, ptr @_ZN2kc20impl_abstract_phylumD2Ev, ptr @_ZN2kc22impl_pattern_PVariableD0Ev, ptr @_ZN2kc22impl_pattern_PVariable10do_unparseERNS_21printer_functor_classERNS_11uview_classE, ptr @_ZN2kc20impl_abstract_phylum15default_unparseERNS_21printer_functor_classERNS_11uview_classE] }, align 8
@_ZN2kc13impl_patterns11phylum_sel_E = dso_local local_unnamed_addr constant i32 48, align 4
@_ZTVN2kc13impl_patternsE = dso_local unnamed_addr constant { [15 x ptr] } { [15 x ptr] [ptr null, ptr @_ZTIN2kc13impl_patternsE, ptr @_ZNK2kc13impl_patterns8prod_selEv, ptr @_ZNK2kc13impl_patterns9subphylumEi, ptr @_ZN2kc13impl_patterns13set_subphylumEiPNS_20impl_abstract_phylumE, ptr @_ZN2kc13impl_patterns7rewriteERNS_11rview_classE, ptr @_ZN2kc20impl_abstract_phylum10do_rewriteERNS_11rview_classE, ptr @_ZN2kc20impl_abstract_phylum15rewrite_membersEPS0_, ptr @_ZN2kc20impl_abstract_phylum11post_createEv, ptr @_ZN2kc20impl_abstract_phylumD2Ev, ptr @_ZN2kc13impl_patternsD0Ev, ptr @_ZN2kc13impl_patterns10do_unparseERNS_21printer_functor_classERNS_11uview_classE, ptr @_ZN2kc20impl_abstract_phylum15default_unparseERNS_21printer_functor_classERNS_11uview_classE, ptr @_ZNK2kc13impl_patterns6is_nilEv, ptr @_ZNK2kc13impl_patterns7reverseEv] }, align 8
@_ZN2kc9impl_term11phylum_sel_E = dso_local local_unnamed_addr constant i32 49, align 4
@_ZTVN2kc21impl_term_TIntLiteralE = dso_local unnamed_addr constant { [13 x ptr] } { [13 x ptr] [ptr null, ptr @_ZTIN2kc21impl_term_TIntLiteralE, ptr @_ZNK2kc21impl_term_TIntLiteral8prod_selEv, ptr @_ZNK2kc21impl_term_TIntLiteral9subphylumEi, ptr @_ZN2kc21impl_term_TIntLiteral13set_subphylumEiPNS_20impl_abstract_phylumE, ptr @_ZN2kc21impl_term_TIntLiteral7rewriteERNS_11rview_classE, ptr @_ZN2kc20impl_abstract_phylum10do_rewriteERNS_11rview_classE, ptr @_ZN2kc20impl_abstract_phylum15rewrite_membersEPS0_, ptr @_ZN2kc20impl_abstract_phylum11post_createEv, ptr @_ZN2kc20impl_abstract_phylumD2Ev, ptr @_ZN2kc21impl_term_TIntLiteralD0Ev, ptr @_ZN2kc21impl_term_TIntLiteral10do_unparseERNS_21printer_functor_classERNS_11uview_classE, ptr @_ZN2kc20impl_abstract_phylum15default_unparseERNS_21printer_functor_classERNS_11uview_classE] }, align 8
@_ZTVN2kc24impl_term_TStringLiteralE = dso_local unnamed_addr constant { [13 x ptr] } { [13 x ptr] [ptr null, ptr @_ZTIN2kc24impl_term_TStringLiteralE, ptr @_ZNK2kc24impl_term_TStringLiteral8prod_selEv, ptr @_ZNK2kc24impl_term_TStringLiteral9subphylumEi, ptr @_ZN2kc24impl_term_TStringLiteral13set_subphylumEiPNS_20impl_abstract_phylumE, ptr @_ZN2kc24impl_term_TStringLiteral7rewriteERNS_11rview_classE, ptr @_ZN2kc20impl_abstract_phylum10do_rewriteERNS_11rview_classE, ptr @_ZN2kc20impl_abstract_phylum15rewrite_membersEPS0_, ptr @_ZN2kc20impl_abstract_phylum11post_createEv, ptr @_ZN2kc20impl_abstract_phylumD2Ev, ptr @_ZN2kc24impl_term_TStringLiteralD0Ev, ptr @_ZN2kc24impl_term_TStringLiteral10do_unparseERNS_21printer_functor_classERNS_11uview_classE, ptr @_ZN2kc20impl_abstract_phylum15default_unparseERNS_21printer_functor_classERNS_11uview_classE] }, align 8
@_ZTVN2kc16impl_term_TCTermE = dso_local unnamed_addr constant { [13 x ptr] } { [13 x ptr] [ptr null, ptr @_ZTIN2kc16impl_term_TCTermE, ptr @_ZNK2kc16impl_term_TCTerm8prod_selEv, ptr @_ZNK2kc16impl_term_TCTerm9subphylumEi, ptr @_ZN2kc16impl_term_TCTerm13set_subphylumEiPNS_20impl_abstract_phylumE, ptr @_ZN2kc16impl_term_TCTerm7rewriteERNS_11rview_classE, ptr @_ZN2kc20impl_abstract_phylum10do_rewriteERNS_11rview_classE, ptr @_ZN2kc20impl_abstract_phylum15rewrite_membersEPS0_, ptr @_ZN2kc20impl_abstract_phylum11post_createEv, ptr @_ZN2kc20impl_abstract_phylumD2Ev, ptr @_ZN2kc16impl_term_TCTermD0Ev, ptr @_ZN2kc16impl_term_TCTerm10do_unparseERNS_21printer_functor_classERNS_11uview_classE, ptr @_ZN2kc20impl_abstract_phylum15default_unparseERNS_21printer_functor_classERNS_11uview_classE] }, align 8
@_ZTVN2kc23impl_term_TMemberVarDotE = dso_local unnamed_addr constant { [13 x ptr] } { [13 x ptr] [ptr null, ptr @_ZTIN2kc23impl_term_TMemberVarDotE, ptr @_ZNK2kc23impl_term_TMemberVarDot8prod_selEv, ptr @_ZNK2kc23impl_term_TMemberVarDot9subphylumEi, ptr @_ZN2kc23impl_term_TMemberVarDot13set_subphylumEiPNS_20impl_abstract_phylumE, ptr @_ZN2kc23impl_term_TMemberVarDot7rewriteERNS_11rview_classE, ptr @_ZN2kc20impl_abstract_phylum10do_rewriteERNS_11rview_classE, ptr @_ZN2kc20impl_abstract_phylum15rewrite_membersEPS0_, ptr @_ZN2kc20impl_abstract_phylum11post_createEv, ptr @_ZN2kc20impl_abstract_phylumD2Ev, ptr @_ZN2kc23impl_term_TMemberVarDotD0Ev, ptr @_ZN2kc23impl_term_TMemberVarDot10do_unparseERNS_21printer_functor_classERNS_11uview_classE, ptr @_ZN2kc20impl_abstract_phylum15default_unparseERNS_21printer_functor_classERNS_11uview_classE] }, align 8
@_ZTVN2kc20impl_term_TMemberVarE = dso_local unnamed_addr constant { [13 x ptr] } { [13 x ptr] [ptr null, ptr @_ZTIN2kc20impl_term_TMemberVarE, ptr @_ZNK2kc20impl_term_TMemberVar8prod_selEv, ptr @_ZNK2kc20impl_term_TMemberVar9subphylumEi, ptr @_ZN2kc20impl_term_TMemberVar13set_subphylumEiPNS_20impl_abstract_phylumE, ptr @_ZN2kc20impl_term_TMemberVar7rewriteERNS_11rview_classE, ptr @_ZN2kc20impl_abstract_phylum10do_rewriteERNS_11rview_classE, ptr @_ZN2kc20impl_abstract_phylum15rewrite_membersEPS0_, ptr @_ZN2kc20impl_abstract_phylum11post_createEv, ptr @_ZN2kc20impl_abstract_phylumD2Ev, ptr @_ZN2kc20impl_term_TMemberVarD0Ev, ptr @_ZN2kc20impl_term_TMemberVar10do_unparseERNS_21printer_functor_classERNS_11uview_classE, ptr @_ZN2kc20impl_abstract_phylum15default_unparseERNS_21printer_functor_classERNS_11uview_classE] }, align 8
@_ZTVN2kc20impl_term_TMethodDotE = dso_local unnamed_addr constant { [13 x ptr] } { [13 x ptr] [ptr null, ptr @_ZTIN2kc20impl_term_TMethodDotE, ptr @_ZNK2kc20impl_term_TMethodDot8prod_selEv, ptr @_ZNK2kc20impl_term_TMethodDot9subphylumEi, ptr @_ZN2kc20impl_term_TMethodDot13set_subphylumEiPNS_20impl_abstract_phylumE, ptr @_ZN2kc20impl_term_TMethodDot7rewriteERNS_11rview_classE, ptr @_ZN2kc20impl_abstract_phylum10do_rewriteERNS_11rview_classE, ptr @_ZN2kc20impl_abstract_phylum15rewrite_membersEPS0_, ptr @_ZN2kc20impl_abstract_phylum11post_createEv, ptr @_ZN2kc20impl_abstract_phylumD2Ev, ptr @_ZN2kc20impl_term_TMethodDotD0Ev, ptr @_ZN2kc20impl_term_TMethodDot10do_unparseERNS_21printer_functor_classERNS_11uview_classE, ptr @_ZN2kc20impl_abstract_phylum15default_unparseERNS_21printer_functor_classERNS_11uview_classE] }, align 8
@_ZTVN2kc17impl_term_TMethodE = dso_local unnamed_addr constant { [13 x ptr] } { [13 x ptr] [ptr null, ptr @_ZTIN2kc17impl_term_TMethodE, ptr @_ZNK2kc17impl_term_TMethod8prod_selEv, ptr @_ZNK2kc17impl_term_TMethod9subphylumEi, ptr @_ZN2kc17impl_term_TMethod13set_subphylumEiPNS_20impl_abstract_phylumE, ptr @_ZN2kc17impl_term_TMethod7rewriteERNS_11rview_classE, ptr @_ZN2kc20impl_abstract_phylum10do_rewriteERNS_11rview_classE, ptr @_ZN2kc20impl_abstract_phylum15rewrite_membersEPS0_, ptr @_ZN2kc20impl_abstract_phylum11post_createEv, ptr @_ZN2kc20impl_abstract_phylumD2Ev, ptr @_ZN2kc17impl_term_TMethodD0Ev, ptr @_ZN2kc17impl_term_TMethod10do_unparseERNS_21printer_functor_classERNS_11uview_classE, ptr @_ZN2kc20impl_abstract_phylum15default_unparseERNS_21printer_functor_classERNS_11uview_classE] }, align 8
@_ZTVN2kc19impl_term_TOperatorE = dso_local unnamed_addr constant { [13 x ptr] } { [13 x ptr] [ptr null, ptr @_ZTIN2kc19impl_term_TOperatorE, ptr @_ZNK2kc19impl_term_TOperator8prod_selEv, ptr @_ZNK2kc19impl_term_TOperator9subphylumEi, ptr @_ZN2kc19impl_term_TOperator13set_subphylumEiPNS_20impl_abstract_phylumE, ptr @_ZN2kc19impl_term_TOperator7rewriteERNS_11rview_classE, ptr @_ZN2kc20impl_abstract_phylum10do_rewriteERNS_11rview_classE, ptr @_ZN2kc20impl_abstract_phylum15rewrite_membersEPS0_, ptr @_ZN2kc20impl_abstract_phylum11post_createEv, ptr @_ZN2kc20impl_abstract_phylumD2Ev, ptr @_ZN2kc19impl_term_TOperatorD0Ev, ptr @_ZN2kc19impl_term_TOperator10do_unparseERNS_21printer_functor_classERNS_11uview_classE, ptr @_ZN2kc20impl_abstract_phylum15default_unparseERNS_21printer_functor_classERNS_11uview_classE] }, align 8
@_ZTVN2kc19impl_term_TVariableE = dso_local unnamed_addr constant { [13 x ptr] } { [13 x ptr] [ptr null, ptr @_ZTIN2kc19impl_term_TVariableE, ptr @_ZNK2kc19impl_term_TVariable8prod_selEv, ptr @_ZNK2kc19impl_term_TVariable9subphylumEi, ptr @_ZN2kc19impl_term_TVariable13set_subphylumEiPNS_20impl_abstract_phylumE, ptr @_ZN2kc19impl_term_TVariable7rewriteERNS_11rview_classE, ptr @_ZN2kc20impl_abstract_phylum10do_rewriteERNS_11rview_classE, ptr @_ZN2kc20impl_abstract_phylum15rewrite_membersEPS0_, ptr @_ZN2kc20impl_abstract_phylum11post_createEv, ptr @_ZN2kc20impl_abstract_phylumD2Ev, ptr @_ZN2kc19impl_term_TVariableD0Ev, ptr @_ZN2kc19impl_term_TVariable10do_unparseERNS_21printer_functor_classERNS_11uview_classE, ptr @_ZN2kc20impl_abstract_phylum15default_unparseERNS_21printer_functor_classERNS_11uview_classE] }, align 8
@_ZN2kc10impl_terms11phylum_sel_E = dso_local local_unnamed_addr constant i32 50, align 4
@_ZTVN2kc10impl_termsE = dso_local unnamed_addr constant { [15 x ptr] } { [15 x ptr] [ptr null, ptr @_ZTIN2kc10impl_termsE, ptr @_ZNK2kc10impl_terms8prod_selEv, ptr @_ZNK2kc10impl_terms9subphylumEi, ptr @_ZN2kc10impl_terms13set_subphylumEiPNS_20impl_abstract_phylumE, ptr @_ZN2kc10impl_terms7rewriteERNS_11rview_classE, ptr @_ZN2kc20impl_abstract_phylum10do_rewriteERNS_11rview_classE, ptr @_ZN2kc20impl_abstract_phylum15rewrite_membersEPS0_, ptr @_ZN2kc20impl_abstract_phylum11post_createEv, ptr @_ZN2kc20impl_abstract_phylumD2Ev, ptr @_ZN2kc10impl_termsD0Ev, ptr @_ZN2kc10impl_terms10do_unparseERNS_21printer_functor_classERNS_11uview_classE, ptr @_ZN2kc20impl_abstract_phylum15default_unparseERNS_21printer_functor_classERNS_11uview_classE, ptr @_ZNK2kc10impl_terms6is_nilEv, ptr @_ZNK2kc10impl_terms7reverseEv] }, align 8
@_ZN2kc12impl_fnfiles11phylum_sel_E = dso_local local_unnamed_addr constant i32 51, align 4
@_ZTVN2kc12impl_fnfilesE = dso_local unnamed_addr constant { [15 x ptr] } { [15 x ptr] [ptr null, ptr @_ZTIN2kc12impl_fnfilesE, ptr @_ZNK2kc12impl_fnfiles8prod_selEv, ptr @_ZNK2kc12impl_fnfiles9subphylumEi, ptr @_ZN2kc12impl_fnfiles13set_subphylumEiPNS_20impl_abstract_phylumE, ptr @_ZN2kc12impl_fnfiles7rewriteERNS_11rview_classE, ptr @_ZN2kc20impl_abstract_phylum10do_rewriteERNS_11rview_classE, ptr @_ZN2kc20impl_abstract_phylum15rewrite_membersEPS0_, ptr @_ZN2kc20impl_abstract_phylum11post_createEv, ptr @_ZN2kc20impl_abstract_phylumD2Ev, ptr @_ZN2kc12impl_fnfilesD0Ev, ptr @_ZN2kc12impl_fnfiles10do_unparseERNS_21printer_functor_classERNS_11uview_classE, ptr @_ZN2kc20impl_abstract_phylum15default_unparseERNS_21printer_functor_classERNS_11uview_classE, ptr @_ZNK2kc12impl_fnfiles6is_nilEv, ptr @_ZNK2kc12impl_fnfiles7reverseEv] }, align 8
@_ZN2kc11impl_fnfile11phylum_sel_E = dso_local local_unnamed_addr constant i32 52, align 4
@_ZTVN2kc18impl_fnfile_FnFileE = dso_local unnamed_addr constant { [13 x ptr] } { [13 x ptr] [ptr null, ptr @_ZTIN2kc18impl_fnfile_FnFileE, ptr @_ZNK2kc18impl_fnfile_FnFile8prod_selEv, ptr @_ZNK2kc18impl_fnfile_FnFile9subphylumEi, ptr @_ZN2kc18impl_fnfile_FnFile13set_subphylumEiPNS_20impl_abstract_phylumE, ptr @_ZN2kc18impl_fnfile_FnFile7rewriteERNS_11rview_classE, ptr @_ZN2kc20impl_abstract_phylum10do_rewriteERNS_11rview_classE, ptr @_ZN2kc20impl_abstract_phylum15rewrite_membersEPS0_, ptr @_ZN2kc20impl_abstract_phylum11post_createEv, ptr @_ZN2kc20impl_abstract_phylumD2Ev, ptr @_ZN2kc18impl_fnfile_FnFileD0Ev, ptr @_ZN2kc18impl_fnfile_FnFile10do_unparseERNS_21printer_functor_classERNS_11uview_classE, ptr @_ZN2kc20impl_abstract_phylum15default_unparseERNS_21printer_functor_classERNS_11uview_classE] }, align 8
@_ZN2kc19impl_fndeclarations11phylum_sel_E = dso_local local_unnamed_addr constant i32 53, align 4
@_ZTVN2kc19impl_fndeclarationsE = dso_local unnamed_addr constant { [15 x ptr] } { [15 x ptr] [ptr null, ptr @_ZTIN2kc19impl_fndeclarationsE, ptr @_ZNK2kc19impl_fndeclarations8prod_selEv, ptr @_ZNK2kc19impl_fndeclarations9subphylumEi, ptr @_ZN2kc19impl_fndeclarations13set_subphylumEiPNS_20impl_abstract_phylumE, ptr @_ZN2kc19impl_fndeclarations7rewriteERNS_11rview_classE, ptr @_ZN2kc20impl_abstract_phylum10do_rewriteERNS_11rview_classE, ptr @_ZN2kc20impl_abstract_phylum15rewrite_membersEPS0_, ptr @_ZN2kc20impl_abstract_phylum11post_createEv, ptr @_ZN2kc20impl_abstract_phylumD2Ev, ptr @_ZN2kc19impl_fndeclarationsD0Ev, ptr @_ZN2kc19impl_fndeclarations10do_unparseERNS_21printer_functor_classERNS_11uview_classE, ptr @_ZN2kc20impl_abstract_phylum15default_unparseERNS_21printer_functor_classERNS_11uview_classE, ptr @_ZNK2kc19impl_fndeclarations6is_nilEv, ptr @_ZNK2kc19impl_fndeclarations7reverseEv] }, align 8
@_ZN2kc18impl_fndeclaration11phylum_sel_E = dso_local local_unnamed_addr constant i32 54, align 4
@_ZTVN2kc38impl_fndeclaration_AcMemberDeclarationE = dso_local unnamed_addr constant { [13 x ptr] } { [13 x ptr] [ptr null, ptr @_ZTIN2kc38impl_fndeclaration_AcMemberDeclarationE, ptr @_ZNK2kc38impl_fndeclaration_AcMemberDeclaration8prod_selEv, ptr @_ZNK2kc38impl_fndeclaration_AcMemberDeclaration9subphylumEi, ptr @_ZN2kc38impl_fndeclaration_AcMemberDeclaration13set_subphylumEiPNS_20impl_abstract_phylumE, ptr @_ZN2kc38impl_fndeclaration_AcMemberDeclaration7rewriteERNS_11rview_classE, ptr @_ZN2kc20impl_abstract_phylum10do_rewriteERNS_11rview_classE, ptr @_ZN2kc20impl_abstract_phylum15rewrite_membersEPS0_, ptr @_ZN2kc20impl_abstract_phylum11post_createEv, ptr @_ZN2kc20impl_abstract_phylumD2Ev, ptr @_ZN2kc38impl_fndeclaration_AcMemberDeclarationD0Ev, ptr @_ZN2kc38impl_fndeclaration_AcMemberDeclaration10do_unparseERNS_21printer_functor_classERNS_11uview_classE, ptr @_ZN2kc20impl_abstract_phylum15default_unparseERNS_21printer_functor_classERNS_11uview_classE] }, align 8
@_ZTVN2kc34impl_fndeclaration_FnAcDeclarationE = dso_local unnamed_addr constant { [13 x ptr] } { [13 x ptr] [ptr null, ptr @_ZTIN2kc34impl_fndeclaration_FnAcDeclarationE, ptr @_ZNK2kc34impl_fndeclaration_FnAcDeclaration8prod_selEv, ptr @_ZNK2kc34impl_fndeclaration_FnAcDeclaration9subphylumEi, ptr @_ZN2kc34impl_fndeclaration_FnAcDeclaration13set_subphylumEiPNS_20impl_abstract_phylumE, ptr @_ZN2kc34impl_fndeclaration_FnAcDeclaration7rewriteERNS_11rview_classE, ptr @_ZN2kc20impl_abstract_phylum10do_rewriteERNS_11rview_classE, ptr @_ZN2kc20impl_abstract_phylum15rewrite_membersEPS0_, ptr @_ZN2kc20impl_abstract_phylum11post_createEv, ptr @_ZN2kc20impl_abstract_phylumD2Ev, ptr @_ZN2kc34impl_fndeclaration_FnAcDeclarationD0Ev, ptr @_ZN2kc34impl_fndeclaration_FnAcDeclaration10do_unparseERNS_21printer_functor_classERNS_11uview_classE, ptr @_ZN2kc20impl_abstract_phylum15default_unparseERNS_21printer_functor_classERNS_11uview_classE] }, align 8
@_ZN2kc12impl_fnclass11phylum_sel_E = dso_local local_unnamed_addr constant i32 55, align 4
@_ZTVN2kc27impl_fnclass_ConvOperatorFnE = external unnamed_addr constant { [13 x ptr] }, align 8
@_ZTVN2kc25impl_fnclass_DestructorFnE = external unnamed_addr constant { [13 x ptr] }, align 8
@_ZTVN2kc26impl_fnclass_ConstructorFnE = external unnamed_addr constant { [13 x ptr] }, align 8
@_ZTVN2kc21impl_fnclass_MemberFnE = external unnamed_addr constant { [13 x ptr] }, align 8
@_ZTVN2kc21impl_fnclass_StaticFnE = dso_local unnamed_addr constant { [13 x ptr] } { [13 x ptr] [ptr null, ptr @_ZTIN2kc21impl_fnclass_StaticFnE, ptr @_ZNK2kc21impl_fnclass_StaticFn8prod_selEv, ptr @_ZNK2kc21impl_fnclass_StaticFn9subphylumEi, ptr @_ZN2kc21impl_fnclass_StaticFn13set_subphylumEiPNS_20impl_abstract_phylumE, ptr @_ZN2kc21impl_fnclass_StaticFn7rewriteERNS_11rview_classE, ptr @_ZN2kc20impl_abstract_phylum10do_rewriteERNS_11rview_classE, ptr @_ZN2kc20impl_abstract_phylum15rewrite_membersEPS0_, ptr @_ZN2kc20impl_abstract_phylum11post_createEv, ptr @_ZN2kc20impl_abstract_phylumD2Ev, ptr @_ZN2kc21impl_fnclass_StaticFnD0Ev, ptr @_ZN2kc21impl_fnclass_StaticFn10do_unparseERNS_21printer_functor_classERNS_11uview_classE, ptr @_ZN2kc20impl_abstract_phylum15default_unparseERNS_21printer_functor_classERNS_11uview_classE] }, align 8
@_ZTVN2kc21impl_fnclass_GlobalFnE = external unnamed_addr constant { [13 x ptr] }, align 8
@_ZN2kc10impl_Ctext11phylum_sel_E = dso_local local_unnamed_addr constant i32 56, align 4
@_ZTVN2kc10impl_CtextE = dso_local unnamed_addr constant { [15 x ptr] } { [15 x ptr] [ptr null, ptr @_ZTIN2kc10impl_CtextE, ptr @_ZNK2kc10impl_Ctext8prod_selEv, ptr @_ZNK2kc10impl_Ctext9subphylumEi, ptr @_ZN2kc10impl_Ctext13set_subphylumEiPNS_20impl_abstract_phylumE, ptr @_ZN2kc10impl_Ctext7rewriteERNS_11rview_classE, ptr @_ZN2kc20impl_abstract_phylum10do_rewriteERNS_11rview_classE, ptr @_ZN2kc20impl_abstract_phylum15rewrite_membersEPS0_, ptr @_ZN2kc20impl_abstract_phylum11post_createEv, ptr @_ZN2kc20impl_abstract_phylumD2Ev, ptr @_ZN2kc10impl_CtextD0Ev, ptr @_ZN2kc10impl_Ctext10do_unparseERNS_21printer_functor_classERNS_11uview_classE, ptr @_ZN2kc20impl_abstract_phylum15default_unparseERNS_21printer_functor_classERNS_11uview_classE, ptr @_ZNK2kc10impl_Ctext6is_nilEv, ptr @_ZNK2kc10impl_Ctext7reverseEv] }, align 8
@_ZN2kc15impl_Ctext_elem11phylum_sel_E = dso_local local_unnamed_addr constant i32 57, align 4
@_ZTVN2kc35impl_Ctext_elem_CTextWithexpressionE = dso_local unnamed_addr constant { [13 x ptr] } { [13 x ptr] [ptr null, ptr @_ZTIN2kc35impl_Ctext_elem_CTextWithexpressionE, ptr @_ZNK2kc35impl_Ctext_elem_CTextWithexpression8prod_selEv, ptr @_ZNK2kc35impl_Ctext_elem_CTextWithexpression9subphylumEi, ptr @_ZN2kc35impl_Ctext_elem_CTextWithexpression13set_subphylumEiPNS_20impl_abstract_phylumE, ptr @_ZN2kc35impl_Ctext_elem_CTextWithexpression7rewriteERNS_11rview_classE, ptr @_ZN2kc20impl_abstract_phylum10do_rewriteERNS_11rview_classE, ptr @_ZN2kc20impl_abstract_phylum15rewrite_membersEPS0_, ptr @_ZN2kc20impl_abstract_phylum11post_createEv, ptr @_ZN2kc20impl_abstract_phylumD2Ev, ptr @_ZN2kc35impl_Ctext_elem_CTextWithexpressionD0Ev, ptr @_ZN2kc35impl_Ctext_elem_CTextWithexpression10do_unparseERNS_21printer_functor_classERNS_11uview_classE, ptr @_ZN2kc20impl_abstract_phylum15default_unparseERNS_21printer_functor_classERNS_11uview_classE] }, align 8
@_ZTVN2kc38impl_Ctext_elem_CTextForeachexpressionE = dso_local unnamed_addr constant { [13 x ptr] } { [13 x ptr] [ptr null, ptr @_ZTIN2kc38impl_Ctext_elem_CTextForeachexpressionE, ptr @_ZNK2kc38impl_Ctext_elem_CTextForeachexpression8prod_selEv, ptr @_ZNK2kc38impl_Ctext_elem_CTextForeachexpression9subphylumEi, ptr @_ZN2kc38impl_Ctext_elem_CTextForeachexpression13set_subphylumEiPNS_20impl_abstract_phylumE, ptr @_ZN2kc38impl_Ctext_elem_CTextForeachexpression7rewriteERNS_11rview_classE, ptr @_ZN2kc20impl_abstract_phylum10do_rewriteERNS_11rview_classE, ptr @_ZN2kc20impl_abstract_phylum15rewrite_membersEPS0_, ptr @_ZN2kc20impl_abstract_phylum11post_createEv, ptr @_ZN2kc20impl_abstract_phylumD2Ev, ptr @_ZN2kc38impl_Ctext_elem_CTextForeachexpressionD0Ev, ptr @_ZN2kc38impl_Ctext_elem_CTextForeachexpression10do_unparseERNS_21printer_functor_classERNS_11uview_classE, ptr @_ZN2kc20impl_abstract_phylum15default_unparseERNS_21printer_functor_classERNS_11uview_classE] }, align 8
@_ZTVN2kc26impl_Ctext_elem_CTextCbodyE = dso_local unnamed_addr constant { [13 x ptr] } { [13 x ptr] [ptr null, ptr @_ZTIN2kc26impl_Ctext_elem_CTextCbodyE, ptr @_ZNK2kc26impl_Ctext_elem_CTextCbody8prod_selEv, ptr @_ZNK2kc26impl_Ctext_elem_CTextCbody9subphylumEi, ptr @_ZN2kc26impl_Ctext_elem_CTextCbody13set_subphylumEiPNS_20impl_abstract_phylumE, ptr @_ZN2kc26impl_Ctext_elem_CTextCbody7rewriteERNS_11rview_classE, ptr @_ZN2kc20impl_abstract_phylum10do_rewriteERNS_11rview_classE, ptr @_ZN2kc20impl_abstract_phylum15rewrite_membersEPS0_, ptr @_ZN2kc20impl_abstract_phylum11post_createEv, ptr @_ZN2kc20impl_abstract_phylumD2Ev, ptr @_ZN2kc26impl_Ctext_elem_CTextCbodyD0Ev, ptr @_ZN2kc26impl_Ctext_elem_CTextCbody10do_unparseERNS_21printer_functor_classERNS_11uview_classE, ptr @_ZN2kc20impl_abstract_phylum15default_unparseERNS_21printer_functor_classERNS_11uview_classE] }, align 8
@_ZTVN2kc34impl_Ctext_elem_CTextCexpressionSQE = dso_local unnamed_addr constant { [13 x ptr] } { [13 x ptr] [ptr null, ptr @_ZTIN2kc34impl_Ctext_elem_CTextCexpressionSQE, ptr @_ZNK2kc34impl_Ctext_elem_CTextCexpressionSQ8prod_selEv, ptr @_ZNK2kc34impl_Ctext_elem_CTextCexpressionSQ9subphylumEi, ptr @_ZN2kc34impl_Ctext_elem_CTextCexpressionSQ13set_subphylumEiPNS_20impl_abstract_phylumE, ptr @_ZN2kc34impl_Ctext_elem_CTextCexpressionSQ7rewriteERNS_11rview_classE, ptr @_ZN2kc20impl_abstract_phylum10do_rewriteERNS_11rview_classE, ptr @_ZN2kc20impl_abstract_phylum15rewrite_membersEPS0_, ptr @_ZN2kc20impl_abstract_phylum11post_createEv, ptr @_ZN2kc20impl_abstract_phylumD2Ev, ptr @_ZN2kc34impl_Ctext_elem_CTextCexpressionSQD0Ev, ptr @_ZN2kc34impl_Ctext_elem_CTextCexpressionSQ10do_unparseERNS_21printer_functor_classERNS_11uview_classE, ptr @_ZN2kc20impl_abstract_phylum15default_unparseERNS_21printer_functor_classERNS_11uview_classE] }, align 8
@_ZTVN2kc34impl_Ctext_elem_CTextCexpressionDQE = dso_local unnamed_addr constant { [13 x ptr] } { [13 x ptr] [ptr null, ptr @_ZTIN2kc34impl_Ctext_elem_CTextCexpressionDQE, ptr @_ZNK2kc34impl_Ctext_elem_CTextCexpressionDQ8prod_selEv, ptr @_ZNK2kc34impl_Ctext_elem_CTextCexpressionDQ9subphylumEi, ptr @_ZN2kc34impl_Ctext_elem_CTextCexpressionDQ13set_subphylumEiPNS_20impl_abstract_phylumE, ptr @_ZN2kc34impl_Ctext_elem_CTextCexpressionDQ7rewriteERNS_11rview_classE, ptr @_ZN2kc20impl_abstract_phylum10do_rewriteERNS_11rview_classE, ptr @_ZN2kc20impl_abstract_phylum15rewrite_membersEPS0_, ptr @_ZN2kc20impl_abstract_phylum11post_createEv, ptr @_ZN2kc20impl_abstract_phylumD2Ev, ptr @_ZN2kc34impl_Ctext_elem_CTextCexpressionDQD0Ev, ptr @_ZN2kc34impl_Ctext_elem_CTextCexpressionDQ10do_unparseERNS_21printer_functor_classERNS_11uview_classE, ptr @_ZN2kc20impl_abstract_phylum15default_unparseERNS_21printer_functor_classERNS_11uview_classE] }, align 8
@_ZTVN2kc23impl_Ctext_elem_CTextNlE = dso_local unnamed_addr constant { [13 x ptr] } { [13 x ptr] [ptr null, ptr @_ZTIN2kc23impl_Ctext_elem_CTextNlE, ptr @_ZNK2kc23impl_Ctext_elem_CTextNl8prod_selEv, ptr @_ZNK2kc23impl_Ctext_elem_CTextNl9subphylumEi, ptr @_ZN2kc23impl_Ctext_elem_CTextNl13set_subphylumEiPNS_20impl_abstract_phylumE, ptr @_ZN2kc23impl_Ctext_elem_CTextNl7rewriteERNS_11rview_classE, ptr @_ZN2kc20impl_abstract_phylum10do_rewriteERNS_11rview_classE, ptr @_ZN2kc20impl_abstract_phylum15rewrite_membersEPS0_, ptr @_ZN2kc20impl_abstract_phylum11post_createEv, ptr @_ZN2kc20impl_abstract_phylumD2Ev, ptr @_ZN2kc23impl_Ctext_elem_CTextNlD0Ev, ptr @_ZN2kc23impl_Ctext_elem_CTextNl10do_unparseERNS_21printer_functor_classERNS_11uview_classE, ptr @_ZN2kc20impl_abstract_phylum15default_unparseERNS_21printer_functor_classERNS_11uview_classE] }, align 8
@_ZTVN2kc30impl_Ctext_elem_CTextDollarVarE = dso_local unnamed_addr constant { [13 x ptr] } { [13 x ptr] [ptr null, ptr @_ZTIN2kc30impl_Ctext_elem_CTextDollarVarE, ptr @_ZNK2kc30impl_Ctext_elem_CTextDollarVar8prod_selEv, ptr @_ZNK2kc30impl_Ctext_elem_CTextDollarVar9subphylumEi, ptr @_ZN2kc30impl_Ctext_elem_CTextDollarVar13set_subphylumEiPNS_20impl_abstract_phylumE, ptr @_ZN2kc30impl_Ctext_elem_CTextDollarVar7rewriteERNS_11rview_classE, ptr @_ZN2kc20impl_abstract_phylum10do_rewriteERNS_11rview_classE, ptr @_ZN2kc20impl_abstract_phylum15rewrite_membersEPS0_, ptr @_ZN2kc20impl_abstract_phylum11post_createEv, ptr @_ZN2kc20impl_abstract_phylumD2Ev, ptr @_ZN2kc30impl_Ctext_elem_CTextDollarVarD0Ev, ptr @_ZN2kc30impl_Ctext_elem_CTextDollarVar10do_unparseERNS_21printer_functor_classERNS_11uview_classE, ptr @_ZN2kc20impl_abstract_phylum15default_unparseERNS_21printer_functor_classERNS_11uview_classE] }, align 8
@_ZTVN2kc25impl_Ctext_elem_CTextLineE = dso_local unnamed_addr constant { [13 x ptr] } { [13 x ptr] [ptr null, ptr @_ZTIN2kc25impl_Ctext_elem_CTextLineE, ptr @_ZNK2kc25impl_Ctext_elem_CTextLine8prod_selEv, ptr @_ZNK2kc25impl_Ctext_elem_CTextLine9subphylumEi, ptr @_ZN2kc25impl_Ctext_elem_CTextLine13set_subphylumEiPNS_20impl_abstract_phylumE, ptr @_ZN2kc25impl_Ctext_elem_CTextLine7rewriteERNS_11rview_classE, ptr @_ZN2kc20impl_abstract_phylum10do_rewriteERNS_11rview_classE, ptr @_ZN2kc20impl_abstract_phylum15rewrite_membersEPS0_, ptr @_ZN2kc20impl_abstract_phylum11post_createEv, ptr @_ZN2kc20impl_abstract_phylumD2Ev, ptr @_ZN2kc25impl_Ctext_elem_CTextLineD0Ev, ptr @_ZN2kc25impl_Ctext_elem_CTextLine10do_unparseERNS_21printer_functor_classERNS_11uview_classE, ptr @_ZN2kc20impl_abstract_phylum15default_unparseERNS_21printer_functor_classERNS_11uview_classE] }, align 8
@_ZN2kc18impl_foreach_after11phylum_sel_E = dso_local local_unnamed_addr constant i32 58, align 4
@_ZTVN2kc31impl_foreach_after_ForeachAfterE = dso_local unnamed_addr constant { [13 x ptr] } { [13 x ptr] [ptr null, ptr @_ZTIN2kc31impl_foreach_after_ForeachAfterE, ptr @_ZNK2kc31impl_foreach_after_ForeachAfter8prod_selEv, ptr @_ZNK2kc31impl_foreach_after_ForeachAfter9subphylumEi, ptr @_ZN2kc31impl_foreach_after_ForeachAfter13set_subphylumEiPNS_20impl_abstract_phylumE, ptr @_ZN2kc31impl_foreach_after_ForeachAfter7rewriteERNS_11rview_classE, ptr @_ZN2kc20impl_abstract_phylum10do_rewriteERNS_11rview_classE, ptr @_ZN2kc20impl_abstract_phylum15rewrite_membersEPS0_, ptr @_ZN2kc20impl_abstract_phylum11post_createEv, ptr @_ZN2kc20impl_abstract_phylumD2Ev, ptr @_ZN2kc31impl_foreach_after_ForeachAfterD0Ev, ptr @_ZN2kc31impl_foreach_after_ForeachAfter10do_unparseERNS_21printer_functor_classERNS_11uview_classE, ptr @_ZN2kc20impl_abstract_phylum15default_unparseERNS_21printer_functor_classERNS_11uview_classE] }, align 8
@_ZTVN2kc33impl_foreach_after_NoForeachAfterE = external unnamed_addr constant { [13 x ptr] }, align 8
@_ZN2kc16impl_contextinfo11phylum_sel_E = dso_local local_unnamed_addr constant i32 59, align 4
@_ZTVN2kc36impl_contextinfo_NotInForeachContextE = external unnamed_addr constant { [13 x ptr] }, align 8
@_ZTVN2kc33impl_contextinfo_InForeachContextE = dso_local unnamed_addr constant { [13 x ptr] } { [13 x ptr] [ptr null, ptr @_ZTIN2kc33impl_contextinfo_InForeachContextE, ptr @_ZNK2kc33impl_contextinfo_InForeachContext8prod_selEv, ptr @_ZNK2kc33impl_contextinfo_InForeachContext9subphylumEi, ptr @_ZN2kc33impl_contextinfo_InForeachContext13set_subphylumEiPNS_20impl_abstract_phylumE, ptr @_ZN2kc33impl_contextinfo_InForeachContext7rewriteERNS_11rview_classE, ptr @_ZN2kc20impl_abstract_phylum10do_rewriteERNS_11rview_classE, ptr @_ZN2kc20impl_abstract_phylum15rewrite_membersEPS0_, ptr @_ZN2kc20impl_abstract_phylum11post_createEv, ptr @_ZN2kc20impl_abstract_phylumD2Ev, ptr @_ZN2kc33impl_contextinfo_InForeachContextD0Ev, ptr @_ZN2kc33impl_contextinfo_InForeachContext10do_unparseERNS_21printer_functor_classERNS_11uview_classE, ptr @_ZN2kc20impl_abstract_phylum15default_unparseERNS_21printer_functor_classERNS_11uview_classE] }, align 8
@_ZN2kc20impl_withexpressions11phylum_sel_E = dso_local local_unnamed_addr constant i32 60, align 4
@_ZTVN2kc20impl_withexpressionsE = dso_local unnamed_addr constant { [15 x ptr] } { [15 x ptr] [ptr null, ptr @_ZTIN2kc20impl_withexpressionsE, ptr @_ZNK2kc20impl_withexpressions8prod_selEv, ptr @_ZNK2kc20impl_withexpressions9subphylumEi, ptr @_ZN2kc20impl_withexpressions13set_subphylumEiPNS_20impl_abstract_phylumE, ptr @_ZN2kc20impl_withexpressions7rewriteERNS_11rview_classE, ptr @_ZN2kc20impl_abstract_phylum10do_rewriteERNS_11rview_classE, ptr @_ZN2kc20impl_abstract_phylum15rewrite_membersEPS0_, ptr @_ZN2kc20impl_abstract_phylum11post_createEv, ptr @_ZN2kc20impl_abstract_phylumD2Ev, ptr @_ZN2kc20impl_withexpressionsD0Ev, ptr @_ZN2kc20impl_withexpressions10do_unparseERNS_21printer_functor_classERNS_11uview_classE, ptr @_ZN2kc20impl_abstract_phylum15default_unparseERNS_21printer_functor_classERNS_11uview_classE, ptr @_ZNK2kc20impl_withexpressions6is_nilEv, ptr @_ZNK2kc20impl_withexpressions7reverseEv] }, align 8
@_ZN2kc19impl_withexpression11phylum_sel_E = dso_local local_unnamed_addr constant i32 61, align 4
@_ZTVN2kc33impl_withexpression_WECexpressionE = dso_local unnamed_addr constant { [13 x ptr] } { [13 x ptr] [ptr null, ptr @_ZTIN2kc33impl_withexpression_WECexpressionE, ptr @_ZNK2kc33impl_withexpression_WECexpression8prod_selEv, ptr @_ZNK2kc33impl_withexpression_WECexpression9subphylumEi, ptr @_ZN2kc33impl_withexpression_WECexpression13set_subphylumEiPNS_20impl_abstract_phylumE, ptr @_ZN2kc33impl_withexpression_WECexpression7rewriteERNS_11rview_classE, ptr @_ZN2kc20impl_abstract_phylum10do_rewriteERNS_11rview_classE, ptr @_ZN2kc20impl_abstract_phylum15rewrite_membersEPS0_, ptr @_ZN2kc20impl_abstract_phylum11post_createEv, ptr @_ZN2kc20impl_abstract_phylumD2Ev, ptr @_ZN2kc33impl_withexpression_WECexpressionD0Ev, ptr @_ZN2kc33impl_withexpression_WECexpression10do_unparseERNS_21printer_functor_classERNS_11uview_classE, ptr @_ZN2kc20impl_abstract_phylum15default_unparseERNS_21printer_functor_classERNS_11uview_classE] }, align 8
@_ZTVN2kc30impl_withexpression_WEVariableE = dso_local unnamed_addr constant { [13 x ptr] } { [13 x ptr] [ptr null, ptr @_ZTIN2kc30impl_withexpression_WEVariableE, ptr @_ZNK2kc30impl_withexpression_WEVariable8prod_selEv, ptr @_ZNK2kc30impl_withexpression_WEVariable9subphylumEi, ptr @_ZN2kc30impl_withexpression_WEVariable13set_subphylumEiPNS_20impl_abstract_phylumE, ptr @_ZN2kc30impl_withexpression_WEVariable7rewriteERNS_11rview_classE, ptr @_ZN2kc20impl_abstract_phylum10do_rewriteERNS_11rview_classE, ptr @_ZN2kc20impl_abstract_phylum15rewrite_membersEPS0_, ptr @_ZN2kc20impl_abstract_phylum11post_createEv, ptr @_ZN2kc20impl_abstract_phylumD2Ev, ptr @_ZN2kc30impl_withexpression_WEVariableD0Ev, ptr @_ZN2kc30impl_withexpression_WEVariable10do_unparseERNS_21printer_functor_classERNS_11uview_classE, ptr @_ZN2kc20impl_abstract_phylum15default_unparseERNS_21printer_functor_classERNS_11uview_classE] }, align 8
@_ZN2kc14impl_withcases11phylum_sel_E = dso_local local_unnamed_addr constant i32 62, align 4
@_ZTVN2kc14impl_withcasesE = dso_local unnamed_addr constant { [15 x ptr] } { [15 x ptr] [ptr null, ptr @_ZTIN2kc14impl_withcasesE, ptr @_ZNK2kc14impl_withcases8prod_selEv, ptr @_ZNK2kc14impl_withcases9subphylumEi, ptr @_ZN2kc14impl_withcases13set_subphylumEiPNS_20impl_abstract_phylumE, ptr @_ZN2kc14impl_withcases7rewriteERNS_11rview_classE, ptr @_ZN2kc20impl_abstract_phylum10do_rewriteERNS_11rview_classE, ptr @_ZN2kc20impl_abstract_phylum15rewrite_membersEPS0_, ptr @_ZN2kc20impl_abstract_phylum11post_createEv, ptr @_ZN2kc20impl_abstract_phylumD2Ev, ptr @_ZN2kc14impl_withcasesD0Ev, ptr @_ZN2kc14impl_withcases10do_unparseERNS_21printer_functor_classERNS_11uview_classE, ptr @_ZN2kc20impl_abstract_phylum15default_unparseERNS_21printer_functor_classERNS_11uview_classE, ptr @_ZNK2kc14impl_withcases6is_nilEv, ptr @_ZNK2kc14impl_withcases7reverseEv] }, align 8
@_ZN2kc13impl_withcase11phylum_sel_E = dso_local local_unnamed_addr constant i32 63, align 4
@_ZTVN2kc22impl_withcase_WithcaseE = dso_local unnamed_addr constant { [13 x ptr] } { [13 x ptr] [ptr null, ptr @_ZTIN2kc22impl_withcase_WithcaseE, ptr @_ZNK2kc22impl_withcase_Withcase8prod_selEv, ptr @_ZNK2kc22impl_withcase_Withcase9subphylumEi, ptr @_ZN2kc22impl_withcase_Withcase13set_subphylumEiPNS_20impl_abstract_phylumE, ptr @_ZN2kc22impl_withcase_Withcase7rewriteERNS_11rview_classE, ptr @_ZN2kc20impl_abstract_phylum10do_rewriteERNS_11rview_classE, ptr @_ZN2kc20impl_abstract_phylum15rewrite_membersEPS0_, ptr @_ZN2kc20impl_abstract_phylum11post_createEv, ptr @_ZN2kc20impl_abstract_phylumD2Ev, ptr @_ZN2kc22impl_withcase_WithcaseD0Ev, ptr @_ZN2kc22impl_withcase_Withcase10do_unparseERNS_21printer_functor_classERNS_11uview_classE, ptr @_ZN2kc20impl_abstract_phylum15default_unparseERNS_21printer_functor_classERNS_11uview_classE] }, align 8
@_ZN2kc24impl_unparsedeclarations11phylum_sel_E = dso_local local_unnamed_addr constant i32 64, align 4
@_ZTVN2kc24impl_unparsedeclarationsE = dso_local unnamed_addr constant { [15 x ptr] } { [15 x ptr] [ptr null, ptr @_ZTIN2kc24impl_unparsedeclarationsE, ptr @_ZNK2kc24impl_unparsedeclarations8prod_selEv, ptr @_ZNK2kc24impl_unparsedeclarations9subphylumEi, ptr @_ZN2kc24impl_unparsedeclarations13set_subphylumEiPNS_20impl_abstract_phylumE, ptr @_ZN2kc24impl_unparsedeclarations7rewriteERNS_11rview_classE, ptr @_ZN2kc20impl_abstract_phylum10do_rewriteERNS_11rview_classE, ptr @_ZN2kc20impl_abstract_phylum15rewrite_membersEPS0_, ptr @_ZN2kc20impl_abstract_phylum11post_createEv, ptr @_ZN2kc20impl_abstract_phylumD2Ev, ptr @_ZN2kc24impl_unparsedeclarationsD0Ev, ptr @_ZN2kc24impl_unparsedeclarations10do_unparseERNS_21printer_functor_classERNS_11uview_classE, ptr @_ZN2kc20impl_abstract_phylum15default_unparseERNS_21printer_functor_classERNS_11uview_classE, ptr @_ZNK2kc24impl_unparsedeclarations6is_nilEv, ptr @_ZNK2kc24impl_unparsedeclarations7reverseEv] }, align 8
@_ZN2kc23impl_unparsedeclaration11phylum_sel_E = dso_local local_unnamed_addr constant i32 65, align 4
@_ZTVN2kc42impl_unparsedeclaration_UnparseDeclarationE = dso_local unnamed_addr constant { [13 x ptr] } { [13 x ptr] [ptr null, ptr @_ZTIN2kc42impl_unparsedeclaration_UnparseDeclarationE, ptr @_ZNK2kc42impl_unparsedeclaration_UnparseDeclaration8prod_selEv, ptr @_ZNK2kc42impl_unparsedeclaration_UnparseDeclaration9subphylumEi, ptr @_ZN2kc42impl_unparsedeclaration_UnparseDeclaration13set_subphylumEiPNS_20impl_abstract_phylumE, ptr @_ZN2kc42impl_unparsedeclaration_UnparseDeclaration7rewriteERNS_11rview_classE, ptr @_ZN2kc20impl_abstract_phylum10do_rewriteERNS_11rview_classE, ptr @_ZN2kc20impl_abstract_phylum15rewrite_membersEPS0_, ptr @_ZN2kc20impl_abstract_phylum11post_createEv, ptr @_ZN2kc20impl_abstract_phylumD2Ev, ptr @_ZN2kc42impl_unparsedeclaration_UnparseDeclarationD0Ev, ptr @_ZN2kc42impl_unparsedeclaration_UnparseDeclaration10do_unparseERNS_21printer_functor_classERNS_11uview_classE, ptr @_ZN2kc20impl_abstract_phylum15default_unparseERNS_21printer_functor_classERNS_11uview_classE] }, align 8
@_ZN2kc19impl_unparseclauses11phylum_sel_E = dso_local local_unnamed_addr constant i32 66, align 4
@_ZTVN2kc19impl_unparseclausesE = dso_local unnamed_addr constant { [15 x ptr] } { [15 x ptr] [ptr null, ptr @_ZTIN2kc19impl_unparseclausesE, ptr @_ZNK2kc19impl_unparseclauses8prod_selEv, ptr @_ZNK2kc19impl_unparseclauses9subphylumEi, ptr @_ZN2kc19impl_unparseclauses13set_subphylumEiPNS_20impl_abstract_phylumE, ptr @_ZN2kc19impl_unparseclauses7rewriteERNS_11rview_classE, ptr @_ZN2kc20impl_abstract_phylum10do_rewriteERNS_11rview_classE, ptr @_ZN2kc20impl_abstract_phylum15rewrite_membersEPS0_, ptr @_ZN2kc20impl_abstract_phylum11post_createEv, ptr @_ZN2kc20impl_abstract_phylumD2Ev, ptr @_ZN2kc19impl_unparseclausesD0Ev, ptr @_ZN2kc19impl_unparseclauses10do_unparseERNS_21printer_functor_classERNS_11uview_classE, ptr @_ZN2kc20impl_abstract_phylum15default_unparseERNS_21printer_functor_classERNS_11uview_classE, ptr @_ZNK2kc19impl_unparseclauses6is_nilEv, ptr @_ZNK2kc19impl_unparseclauses7reverseEv] }, align 8
@_ZN2kc18impl_unparseclause11phylum_sel_E = dso_local local_unnamed_addr constant i32 67, align 4
@_ZTVN2kc32impl_unparseclause_UnparseClauseE = dso_local unnamed_addr constant { [13 x ptr] } { [13 x ptr] [ptr null, ptr @_ZTIN2kc32impl_unparseclause_UnparseClauseE, ptr @_ZNK2kc32impl_unparseclause_UnparseClause8prod_selEv, ptr @_ZNK2kc32impl_unparseclause_UnparseClause9subphylumEi, ptr @_ZN2kc32impl_unparseclause_UnparseClause13set_subphylumEiPNS_20impl_abstract_phylumE, ptr @_ZN2kc32impl_unparseclause_UnparseClause7rewriteERNS_11rview_classE, ptr @_ZN2kc20impl_abstract_phylum10do_rewriteERNS_11rview_classE, ptr @_ZN2kc20impl_abstract_phylum15rewrite_membersEPS0_, ptr @_ZN2kc20impl_abstract_phylum11post_createEv, ptr @_ZN2kc20impl_abstract_phylumD2Ev, ptr @_ZN2kc32impl_unparseclause_UnparseClauseD0Ev, ptr @_ZN2kc32impl_unparseclause_UnparseClause10do_unparseERNS_21printer_functor_classERNS_11uview_classE, ptr @_ZN2kc20impl_abstract_phylum15default_unparseERNS_21printer_functor_classERNS_11uview_classE] }, align 8
@_ZN2kc14impl_viewnames11phylum_sel_E = dso_local local_unnamed_addr constant i32 68, align 4
@_ZTVN2kc14impl_viewnamesE = dso_local unnamed_addr constant { [15 x ptr] } { [15 x ptr] [ptr null, ptr @_ZTIN2kc14impl_viewnamesE, ptr @_ZNK2kc14impl_viewnames8prod_selEv, ptr @_ZNK2kc14impl_viewnames9subphylumEi, ptr @_ZN2kc14impl_viewnames13set_subphylumEiPNS_20impl_abstract_phylumE, ptr @_ZN2kc14impl_viewnames7rewriteERNS_11rview_classE, ptr @_ZN2kc20impl_abstract_phylum10do_rewriteERNS_11rview_classE, ptr @_ZN2kc20impl_abstract_phylum15rewrite_membersEPS0_, ptr @_ZN2kc20impl_abstract_phylum11post_createEv, ptr @_ZN2kc20impl_abstract_phylumD2Ev, ptr @_ZN2kc14impl_viewnamesD0Ev, ptr @_ZN2kc14impl_viewnames10do_unparseERNS_21printer_functor_classERNS_11uview_classE, ptr @_ZN2kc20impl_abstract_phylum15default_unparseERNS_21printer_functor_classERNS_11uview_classE, ptr @_ZNK2kc14impl_viewnames6is_nilEv, ptr @_ZNK2kc14impl_viewnames7reverseEv] }, align 8
@_ZN2kc17impl_unparseitems11phylum_sel_E = dso_local local_unnamed_addr constant i32 69, align 4
@_ZTVN2kc17impl_unparseitemsE = dso_local unnamed_addr constant { [15 x ptr] } { [15 x ptr] [ptr null, ptr @_ZTIN2kc17impl_unparseitemsE, ptr @_ZNK2kc17impl_unparseitems8prod_selEv, ptr @_ZNK2kc17impl_unparseitems9subphylumEi, ptr @_ZN2kc17impl_unparseitems13set_subphylumEiPNS_20impl_abstract_phylumE, ptr @_ZN2kc17impl_unparseitems7rewriteERNS_11rview_classE, ptr @_ZN2kc20impl_abstract_phylum10do_rewriteERNS_11rview_classE, ptr @_ZN2kc20impl_abstract_phylum15rewrite_membersEPS0_, ptr @_ZN2kc20impl_abstract_phylum11post_createEv, ptr @_ZN2kc20impl_abstract_phylumD2Ev, ptr @_ZN2kc17impl_unparseitemsD0Ev, ptr @_ZN2kc17impl_unparseitems10do_unparseERNS_21printer_functor_classERNS_11uview_classE, ptr @_ZN2kc20impl_abstract_phylum15default_unparseERNS_21printer_functor_classERNS_11uview_classE, ptr @_ZNK2kc17impl_unparseitems6is_nilEv, ptr @_ZNK2kc17impl_unparseitems7reverseEv] }, align 8
@_ZN2kc16impl_unparseitem11phylum_sel_E = dso_local local_unnamed_addr constant i32 70, align 4
@_ZTVN2kc29impl_unparseitem_UViewVarDeclE = dso_local unnamed_addr constant { [13 x ptr] } { [13 x ptr] [ptr null, ptr @_ZTIN2kc29impl_unparseitem_UViewVarDeclE, ptr @_ZNK2kc29impl_unparseitem_UViewVarDecl8prod_selEv, ptr @_ZNK2kc29impl_unparseitem_UViewVarDecl9subphylumEi, ptr @_ZN2kc29impl_unparseitem_UViewVarDecl13set_subphylumEiPNS_20impl_abstract_phylumE, ptr @_ZN2kc29impl_unparseitem_UViewVarDecl7rewriteERNS_11rview_classE, ptr @_ZN2kc20impl_abstract_phylum10do_rewriteERNS_11rview_classE, ptr @_ZN2kc20impl_abstract_phylum15rewrite_membersEPS0_, ptr @_ZN2kc20impl_abstract_phylum11post_createEv, ptr @_ZN2kc20impl_abstract_phylumD2Ev, ptr @_ZN2kc29impl_unparseitem_UViewVarDeclD0Ev, ptr @_ZN2kc29impl_unparseitem_UViewVarDecl10do_unparseERNS_21printer_functor_classERNS_11uview_classE, ptr @_ZN2kc20impl_abstract_phylum15default_unparseERNS_21printer_functor_classERNS_11uview_classE] }, align 8
@_ZTVN2kc24impl_unparseitem_UnpBodyE = dso_local unnamed_addr constant { [13 x ptr] } { [13 x ptr] [ptr null, ptr @_ZTIN2kc24impl_unparseitem_UnpBodyE, ptr @_ZNK2kc24impl_unparseitem_UnpBody8prod_selEv, ptr @_ZNK2kc24impl_unparseitem_UnpBody9subphylumEi, ptr @_ZN2kc24impl_unparseitem_UnpBody13set_subphylumEiPNS_20impl_abstract_phylumE, ptr @_ZN2kc24impl_unparseitem_UnpBody7rewriteERNS_11rview_classE, ptr @_ZN2kc20impl_abstract_phylum10do_rewriteERNS_11rview_classE, ptr @_ZN2kc20impl_abstract_phylum15rewrite_membersEPS0_, ptr @_ZN2kc20impl_abstract_phylum11post_createEv, ptr @_ZN2kc20impl_abstract_phylumD2Ev, ptr @_ZN2kc24impl_unparseitem_UnpBodyD0Ev, ptr @_ZN2kc24impl_unparseitem_UnpBody10do_unparseERNS_21printer_functor_classERNS_11uview_classE, ptr @_ZN2kc20impl_abstract_phylum15default_unparseERNS_21printer_functor_classERNS_11uview_classE] }, align 8
@_ZTVN2kc25impl_unparseitem_UnpCtextE = dso_local unnamed_addr constant { [13 x ptr] } { [13 x ptr] [ptr null, ptr @_ZTIN2kc25impl_unparseitem_UnpCtextE, ptr @_ZNK2kc25impl_unparseitem_UnpCtext8prod_selEv, ptr @_ZNK2kc25impl_unparseitem_UnpCtext9subphylumEi, ptr @_ZN2kc25impl_unparseitem_UnpCtext13set_subphylumEiPNS_20impl_abstract_phylumE, ptr @_ZN2kc25impl_unparseitem_UnpCtext7rewriteERNS_11rview_classE, ptr @_ZN2kc20impl_abstract_phylum10do_rewriteERNS_11rview_classE, ptr @_ZN2kc20impl_abstract_phylum15rewrite_membersEPS0_, ptr @_ZN2kc20impl_abstract_phylum11post_createEv, ptr @_ZN2kc20impl_abstract_phylumD2Ev, ptr @_ZN2kc25impl_unparseitem_UnpCtextD0Ev, ptr @_ZN2kc25impl_unparseitem_UnpCtext10do_unparseERNS_21printer_functor_classERNS_11uview_classE, ptr @_ZN2kc20impl_abstract_phylum15default_unparseERNS_21printer_functor_classERNS_11uview_classE] }, align 8
@_ZTVN2kc27impl_unparseitem_UnpSubexprE = dso_local unnamed_addr constant { [13 x ptr] } { [13 x ptr] [ptr null, ptr @_ZTIN2kc27impl_unparseitem_UnpSubexprE, ptr @_ZNK2kc27impl_unparseitem_UnpSubexpr8prod_selEv, ptr @_ZNK2kc27impl_unparseitem_UnpSubexpr9subphylumEi, ptr @_ZN2kc27impl_unparseitem_UnpSubexpr13set_subphylumEiPNS_20impl_abstract_phylumE, ptr @_ZN2kc27impl_unparseitem_UnpSubexpr7rewriteERNS_11rview_classE, ptr @_ZN2kc20impl_abstract_phylum10do_rewriteERNS_11rview_classE, ptr @_ZN2kc20impl_abstract_phylum15rewrite_membersEPS0_, ptr @_ZN2kc20impl_abstract_phylum11post_createEv, ptr @_ZN2kc20impl_abstract_phylumD2Ev, ptr @_ZN2kc27impl_unparseitem_UnpSubexprD0Ev, ptr @_ZN2kc27impl_unparseitem_UnpSubexpr10do_unparseERNS_21printer_functor_classERNS_11uview_classE, ptr @_ZN2kc20impl_abstract_phylum15default_unparseERNS_21printer_functor_classERNS_11uview_classE] }, align 8
@_ZTVN2kc23impl_unparseitem_UnpStrE = dso_local unnamed_addr constant { [13 x ptr] } { [13 x ptr] [ptr null, ptr @_ZTIN2kc23impl_unparseitem_UnpStrE, ptr @_ZNK2kc23impl_unparseitem_UnpStr8prod_selEv, ptr @_ZNK2kc23impl_unparseitem_UnpStr9subphylumEi, ptr @_ZN2kc23impl_unparseitem_UnpStr13set_subphylumEiPNS_20impl_abstract_phylumE, ptr @_ZN2kc23impl_unparseitem_UnpStr7rewriteERNS_11rview_classE, ptr @_ZN2kc20impl_abstract_phylum10do_rewriteERNS_11rview_classE, ptr @_ZN2kc20impl_abstract_phylum15rewrite_membersEPS0_, ptr @_ZN2kc20impl_abstract_phylum11post_createEv, ptr @_ZN2kc20impl_abstract_phylumD2Ev, ptr @_ZN2kc23impl_unparseitem_UnpStrD0Ev, ptr @_ZN2kc23impl_unparseitem_UnpStr10do_unparseERNS_21printer_functor_classERNS_11uview_classE, ptr @_ZN2kc20impl_abstract_phylum15default_unparseERNS_21printer_functor_classERNS_11uview_classE] }, align 8
@_ZN2kc15impl_unpsubterm11phylum_sel_E = dso_local local_unnamed_addr constant i32 71, align 4
@_ZTVN2kc33impl_unpsubterm_UnpCastedVariableE = dso_local unnamed_addr constant { [13 x ptr] } { [13 x ptr] [ptr null, ptr @_ZTIN2kc33impl_unpsubterm_UnpCastedVariableE, ptr @_ZNK2kc33impl_unpsubterm_UnpCastedVariable8prod_selEv, ptr @_ZNK2kc33impl_unpsubterm_UnpCastedVariable9subphylumEi, ptr @_ZN2kc33impl_unpsubterm_UnpCastedVariable13set_subphylumEiPNS_20impl_abstract_phylumE, ptr @_ZN2kc33impl_unpsubterm_UnpCastedVariable7rewriteERNS_11rview_classE, ptr @_ZN2kc20impl_abstract_phylum10do_rewriteERNS_11rview_classE, ptr @_ZN2kc20impl_abstract_phylum15rewrite_membersEPS0_, ptr @_ZN2kc20impl_abstract_phylum11post_createEv, ptr @_ZN2kc20impl_abstract_phylumD2Ev, ptr @_ZN2kc33impl_unpsubterm_UnpCastedVariableD0Ev, ptr @_ZN2kc33impl_unpsubterm_UnpCastedVariable10do_unparseERNS_21printer_functor_classERNS_11uview_classE, ptr @_ZN2kc20impl_abstract_phylum15default_unparseERNS_21printer_functor_classERNS_11uview_classE] }, align 8
@_ZTVN2kc32impl_unpsubterm_UnpDollarvarAttrE = dso_local unnamed_addr constant { [13 x ptr] } { [13 x ptr] [ptr null, ptr @_ZTIN2kc32impl_unpsubterm_UnpDollarvarAttrE, ptr @_ZNK2kc32impl_unpsubterm_UnpDollarvarAttr8prod_selEv, ptr @_ZNK2kc32impl_unpsubterm_UnpDollarvarAttr9subphylumEi, ptr @_ZN2kc32impl_unpsubterm_UnpDollarvarAttr13set_subphylumEiPNS_20impl_abstract_phylumE, ptr @_ZN2kc32impl_unpsubterm_UnpDollarvarAttr7rewriteERNS_11rview_classE, ptr @_ZN2kc20impl_abstract_phylum10do_rewriteERNS_11rview_classE, ptr @_ZN2kc20impl_abstract_phylum15rewrite_membersEPS0_, ptr @_ZN2kc20impl_abstract_phylum11post_createEv, ptr @_ZN2kc20impl_abstract_phylumD2Ev, ptr @_ZN2kc32impl_unpsubterm_UnpDollarvarAttrD0Ev, ptr @_ZN2kc32impl_unpsubterm_UnpDollarvarAttr10do_unparseERNS_21printer_functor_classERNS_11uview_classE, ptr @_ZN2kc20impl_abstract_phylum15default_unparseERNS_21printer_functor_classERNS_11uview_classE] }, align 8
@_ZTVN2kc26impl_unpsubterm_UnpSubAttrE = dso_local unnamed_addr constant { [13 x ptr] } { [13 x ptr] [ptr null, ptr @_ZTIN2kc26impl_unpsubterm_UnpSubAttrE, ptr @_ZNK2kc26impl_unpsubterm_UnpSubAttr8prod_selEv, ptr @_ZNK2kc26impl_unpsubterm_UnpSubAttr9subphylumEi, ptr @_ZN2kc26impl_unpsubterm_UnpSubAttr13set_subphylumEiPNS_20impl_abstract_phylumE, ptr @_ZN2kc26impl_unpsubterm_UnpSubAttr7rewriteERNS_11rview_classE, ptr @_ZN2kc20impl_abstract_phylum10do_rewriteERNS_11rview_classE, ptr @_ZN2kc20impl_abstract_phylum15rewrite_membersEPS0_, ptr @_ZN2kc20impl_abstract_phylum11post_createEv, ptr @_ZN2kc20impl_abstract_phylumD2Ev, ptr @_ZN2kc26impl_unpsubterm_UnpSubAttrD0Ev, ptr @_ZN2kc26impl_unpsubterm_UnpSubAttr10do_unparseERNS_21printer_functor_classERNS_11uview_classE, ptr @_ZN2kc20impl_abstract_phylum15default_unparseERNS_21printer_functor_classERNS_11uview_classE] }, align 8
@_ZTVN2kc32impl_unpsubterm_UnpDollarvarTermE = dso_local unnamed_addr constant { [13 x ptr] } { [13 x ptr] [ptr null, ptr @_ZTIN2kc32impl_unpsubterm_UnpDollarvarTermE, ptr @_ZNK2kc32impl_unpsubterm_UnpDollarvarTerm8prod_selEv, ptr @_ZNK2kc32impl_unpsubterm_UnpDollarvarTerm9subphylumEi, ptr @_ZN2kc32impl_unpsubterm_UnpDollarvarTerm13set_subphylumEiPNS_20impl_abstract_phylumE, ptr @_ZN2kc32impl_unpsubterm_UnpDollarvarTerm7rewriteERNS_11rview_classE, ptr @_ZN2kc20impl_abstract_phylum10do_rewriteERNS_11rview_classE, ptr @_ZN2kc20impl_abstract_phylum15rewrite_membersEPS0_, ptr @_ZN2kc20impl_abstract_phylum11post_createEv, ptr @_ZN2kc20impl_abstract_phylumD2Ev, ptr @_ZN2kc32impl_unpsubterm_UnpDollarvarTermD0Ev, ptr @_ZN2kc32impl_unpsubterm_UnpDollarvarTerm10do_unparseERNS_21printer_functor_classERNS_11uview_classE, ptr @_ZN2kc20impl_abstract_phylum15default_unparseERNS_21printer_functor_classERNS_11uview_classE] }, align 8
@_ZTVN2kc26impl_unpsubterm_UnpSubTermE = dso_local unnamed_addr constant { [13 x ptr] } { [13 x ptr] [ptr null, ptr @_ZTIN2kc26impl_unpsubterm_UnpSubTermE, ptr @_ZNK2kc26impl_unpsubterm_UnpSubTerm8prod_selEv, ptr @_ZNK2kc26impl_unpsubterm_UnpSubTerm9subphylumEi, ptr @_ZN2kc26impl_unpsubterm_UnpSubTerm13set_subphylumEiPNS_20impl_abstract_phylumE, ptr @_ZN2kc26impl_unpsubterm_UnpSubTerm7rewriteERNS_11rview_classE, ptr @_ZN2kc20impl_abstract_phylum10do_rewriteERNS_11rview_classE, ptr @_ZN2kc20impl_abstract_phylum15rewrite_membersEPS0_, ptr @_ZN2kc20impl_abstract_phylum11post_createEv, ptr @_ZN2kc20impl_abstract_phylumD2Ev, ptr @_ZN2kc26impl_unpsubterm_UnpSubTermD0Ev, ptr @_ZN2kc26impl_unpsubterm_UnpSubTerm10do_unparseERNS_21printer_functor_classERNS_11uview_classE, ptr @_ZN2kc20impl_abstract_phylum15default_unparseERNS_21printer_functor_classERNS_11uview_classE] }, align 8
@_ZN2kc18impl_unpattributes11phylum_sel_E = dso_local local_unnamed_addr constant i32 72, align 4
@_ZTVN2kc18impl_unpattributesE = dso_local unnamed_addr constant { [15 x ptr] } { [15 x ptr] [ptr null, ptr @_ZTIN2kc18impl_unpattributesE, ptr @_ZNK2kc18impl_unpattributes8prod_selEv, ptr @_ZNK2kc18impl_unpattributes9subphylumEi, ptr @_ZN2kc18impl_unpattributes13set_subphylumEiPNS_20impl_abstract_phylumE, ptr @_ZN2kc18impl_unpattributes7rewriteERNS_11rview_classE, ptr @_ZN2kc20impl_abstract_phylum10do_rewriteERNS_11rview_classE, ptr @_ZN2kc20impl_abstract_phylum15rewrite_membersEPS0_, ptr @_ZN2kc20impl_abstract_phylum11post_createEv, ptr @_ZN2kc20impl_abstract_phylumD2Ev, ptr @_ZN2kc18impl_unpattributesD0Ev, ptr @_ZN2kc18impl_unpattributes10do_unparseERNS_21printer_functor_classERNS_11uview_classE, ptr @_ZN2kc20impl_abstract_phylum15default_unparseERNS_21printer_functor_classERNS_11uview_classE, ptr @_ZNK2kc18impl_unpattributes6is_nilEv, ptr @_ZNK2kc18impl_unpattributes7reverseEv] }, align 8
@_ZN2kc19impl_viewnameoption11phylum_sel_E = dso_local local_unnamed_addr constant i32 73, align 4
@_ZTVN2kc31impl_viewnameoption_YesViewnameE = dso_local unnamed_addr constant { [13 x ptr] } { [13 x ptr] [ptr null, ptr @_ZTIN2kc31impl_viewnameoption_YesViewnameE, ptr @_ZNK2kc31impl_viewnameoption_YesViewname8prod_selEv, ptr @_ZNK2kc31impl_viewnameoption_YesViewname9subphylumEi, ptr @_ZN2kc31impl_viewnameoption_YesViewname13set_subphylumEiPNS_20impl_abstract_phylumE, ptr @_ZN2kc31impl_viewnameoption_YesViewname7rewriteERNS_11rview_classE, ptr @_ZN2kc20impl_abstract_phylum10do_rewriteERNS_11rview_classE, ptr @_ZN2kc20impl_abstract_phylum15rewrite_membersEPS0_, ptr @_ZN2kc20impl_abstract_phylum11post_createEv, ptr @_ZN2kc20impl_abstract_phylumD2Ev, ptr @_ZN2kc31impl_viewnameoption_YesViewnameD0Ev, ptr @_ZN2kc31impl_viewnameoption_YesViewname10do_unparseERNS_21printer_functor_classERNS_11uview_classE, ptr @_ZN2kc20impl_abstract_phylum15default_unparseERNS_21printer_functor_classERNS_11uview_classE] }, align 8
@_ZTVN2kc30impl_viewnameoption_NoViewnameE = external unnamed_addr constant { [13 x ptr] }, align 8
@_ZN2kc19impl_languageoption11phylum_sel_E = dso_local local_unnamed_addr constant i32 74, align 4
@_ZTVN2kc32impl_languageoption_LanguageListE = dso_local unnamed_addr constant { [13 x ptr] } { [13 x ptr] [ptr null, ptr @_ZTIN2kc32impl_languageoption_LanguageListE, ptr @_ZNK2kc32impl_languageoption_LanguageList8prod_selEv, ptr @_ZNK2kc32impl_languageoption_LanguageList9subphylumEi, ptr @_ZN2kc32impl_languageoption_LanguageList13set_subphylumEiPNS_20impl_abstract_phylumE, ptr @_ZN2kc32impl_languageoption_LanguageList7rewriteERNS_11rview_classE, ptr @_ZN2kc20impl_abstract_phylum10do_rewriteERNS_11rview_classE, ptr @_ZN2kc20impl_abstract_phylum15rewrite_membersEPS0_, ptr @_ZN2kc20impl_abstract_phylum11post_createEv, ptr @_ZN2kc20impl_abstract_phylumD2Ev, ptr @_ZN2kc32impl_languageoption_LanguageListD0Ev, ptr @_ZN2kc32impl_languageoption_LanguageList10do_unparseERNS_21printer_functor_classERNS_11uview_classE, ptr @_ZN2kc20impl_abstract_phylum15default_unparseERNS_21printer_functor_classERNS_11uview_classE] }, align 8
@_ZTVN2kc34impl_languageoption_NoLanguagenameE = external unnamed_addr constant { [13 x ptr] }, align 8
@_ZN2kc18impl_languagenames11phylum_sel_E = dso_local local_unnamed_addr constant i32 75, align 4
@_ZTVN2kc18impl_languagenamesE = dso_local unnamed_addr constant { [15 x ptr] } { [15 x ptr] [ptr null, ptr @_ZTIN2kc18impl_languagenamesE, ptr @_ZNK2kc18impl_languagenames8prod_selEv, ptr @_ZNK2kc18impl_languagenames9subphylumEi, ptr @_ZN2kc18impl_languagenames13set_subphylumEiPNS_20impl_abstract_phylumE, ptr @_ZN2kc18impl_languagenames7rewriteERNS_11rview_classE, ptr @_ZN2kc20impl_abstract_phylum10do_rewriteERNS_11rview_classE, ptr @_ZN2kc20impl_abstract_phylum15rewrite_membersEPS0_, ptr @_ZN2kc20impl_abstract_phylum11post_createEv, ptr @_ZN2kc20impl_abstract_phylumD2Ev, ptr @_ZN2kc18impl_languagenamesD0Ev, ptr @_ZN2kc18impl_languagenames10do_unparseERNS_21printer_functor_classERNS_11uview_classE, ptr @_ZN2kc20impl_abstract_phylum15default_unparseERNS_21printer_functor_classERNS_11uview_classE, ptr @_ZNK2kc18impl_languagenames6is_nilEv, ptr @_ZNK2kc18impl_languagenames7reverseEv] }, align 8
@_ZN2kc13impl_fileline11phylum_sel_E = dso_local local_unnamed_addr constant i32 76, align 4
@_ZTVN2kc27impl_fileline_PosNoFileLineE = external unnamed_addr constant { [13 x ptr] }, align 8
@_ZTVN2kc24impl_fileline_NoFileLineE = external unnamed_addr constant { [13 x ptr] }, align 8
@_ZN2kc27impl_scopetypefilelinestack11phylum_sel_E = dso_local local_unnamed_addr constant i32 77, align 4
@_ZTVN2kc27impl_scopetypefilelinestackE = dso_local unnamed_addr constant { [15 x ptr] } { [15 x ptr] [ptr null, ptr @_ZTIN2kc27impl_scopetypefilelinestackE, ptr @_ZNK2kc27impl_scopetypefilelinestack8prod_selEv, ptr @_ZNK2kc27impl_scopetypefilelinestack9subphylumEi, ptr @_ZN2kc27impl_scopetypefilelinestack13set_subphylumEiPNS_20impl_abstract_phylumE, ptr @_ZN2kc27impl_scopetypefilelinestack7rewriteERNS_11rview_classE, ptr @_ZN2kc20impl_abstract_phylum10do_rewriteERNS_11rview_classE, ptr @_ZN2kc20impl_abstract_phylum15rewrite_membersEPS0_, ptr @_ZN2kc20impl_abstract_phylum11post_createEv, ptr @_ZN2kc20impl_abstract_phylumD2Ev, ptr @_ZN2kc27impl_scopetypefilelinestackD0Ev, ptr @_ZN2kc27impl_scopetypefilelinestack10do_unparseERNS_21printer_functor_classERNS_11uview_classE, ptr @_ZN2kc20impl_abstract_phylum15default_unparseERNS_21printer_functor_classERNS_11uview_classE, ptr @_ZNK2kc27impl_scopetypefilelinestack6is_nilEv, ptr @_ZNK2kc27impl_scopetypefilelinestack7reverseEv] }, align 8
@_ZN2kc22impl_scopetypefileline11phylum_sel_E = dso_local local_unnamed_addr constant i32 78, align 4
@_ZTVN2kc40impl_scopetypefileline_ScopeTypeFileLineE = dso_local unnamed_addr constant { [13 x ptr] } { [13 x ptr] [ptr null, ptr @_ZTIN2kc40impl_scopetypefileline_ScopeTypeFileLineE, ptr @_ZNK2kc40impl_scopetypefileline_ScopeTypeFileLine8prod_selEv, ptr @_ZNK2kc40impl_scopetypefileline_ScopeTypeFileLine9subphylumEi, ptr @_ZN2kc40impl_scopetypefileline_ScopeTypeFileLine13set_subphylumEiPNS_20impl_abstract_phylumE, ptr @_ZN2kc40impl_scopetypefileline_ScopeTypeFileLine7rewriteERNS_11rview_classE, ptr @_ZN2kc20impl_abstract_phylum10do_rewriteERNS_11rview_classE, ptr @_ZN2kc20impl_abstract_phylum15rewrite_membersEPS0_, ptr @_ZN2kc20impl_abstract_phylum11post_createEv, ptr @_ZN2kc20impl_abstract_phylumD2Ev, ptr @_ZN2kc40impl_scopetypefileline_ScopeTypeFileLineD0Ev, ptr @_ZN2kc40impl_scopetypefileline_ScopeTypeFileLine10do_unparseERNS_21printer_functor_classERNS_11uview_classE, ptr @_ZN2kc20impl_abstract_phylum15default_unparseERNS_21printer_functor_classERNS_11uview_classE] }, align 8
@_ZN2kc11impl_IDtype11phylum_sel_E = dso_local local_unnamed_addr constant i32 79, align 4
@_ZTVN2kc26impl_IDtype_ITLanguageNameE = dso_local unnamed_addr constant { [13 x ptr] } { [13 x ptr] [ptr null, ptr @_ZTIN2kc26impl_IDtype_ITLanguageNameE, ptr @_ZNK2kc26impl_IDtype_ITLanguageName8prod_selEv, ptr @_ZNK2kc26impl_IDtype_ITLanguageName9subphylumEi, ptr @_ZN2kc26impl_IDtype_ITLanguageName13set_subphylumEiPNS_20impl_abstract_phylumE, ptr @_ZN2kc26impl_IDtype_ITLanguageName7rewriteERNS_11rview_classE, ptr @_ZN2kc20impl_abstract_phylum10do_rewriteERNS_11rview_classE, ptr @_ZN2kc20impl_abstract_phylum15rewrite_membersEPS0_, ptr @_ZN2kc20impl_abstract_phylum11post_createEv, ptr @_ZN2kc20impl_abstract_phylumD2Ev, ptr @_ZN2kc26impl_IDtype_ITLanguageNameD0Ev, ptr @_ZN2kc26impl_IDtype_ITLanguageName10do_unparseERNS_21printer_functor_classERNS_11uview_classE, ptr @_ZN2kc20impl_abstract_phylum15default_unparseERNS_21printer_functor_classERNS_11uview_classE] }, align 8
@_ZTVN2kc29impl_IDtype_ITPatternVariableE = dso_local unnamed_addr constant { [13 x ptr] } { [13 x ptr] [ptr null, ptr @_ZTIN2kc29impl_IDtype_ITPatternVariableE, ptr @_ZNK2kc29impl_IDtype_ITPatternVariable8prod_selEv, ptr @_ZNK2kc29impl_IDtype_ITPatternVariable9subphylumEi, ptr @_ZN2kc29impl_IDtype_ITPatternVariable13set_subphylumEiPNS_20impl_abstract_phylumE, ptr @_ZN2kc29impl_IDtype_ITPatternVariable7rewriteERNS_11rview_classE, ptr @_ZN2kc20impl_abstract_phylum10do_rewriteERNS_11rview_classE, ptr @_ZN2kc20impl_abstract_phylum15rewrite_membersEPS0_, ptr @_ZN2kc20impl_abstract_phylum11post_createEv, ptr @_ZN2kc20impl_abstract_phylumD2Ev, ptr @_ZN2kc29impl_IDtype_ITPatternVariableD0Ev, ptr @_ZN2kc29impl_IDtype_ITPatternVariable10do_unparseERNS_21printer_functor_classERNS_11uview_classE, ptr @_ZN2kc20impl_abstract_phylum15default_unparseERNS_21printer_functor_classERNS_11uview_classE] }, align 8
@_ZTVN2kc26impl_IDtype_ITUserFunctionE = dso_local unnamed_addr constant { [13 x ptr] } { [13 x ptr] [ptr null, ptr @_ZTIN2kc26impl_IDtype_ITUserFunctionE, ptr @_ZNK2kc26impl_IDtype_ITUserFunction8prod_selEv, ptr @_ZNK2kc26impl_IDtype_ITUserFunction9subphylumEi, ptr @_ZN2kc26impl_IDtype_ITUserFunction13set_subphylumEiPNS_20impl_abstract_phylumE, ptr @_ZN2kc26impl_IDtype_ITUserFunction7rewriteERNS_11rview_classE, ptr @_ZN2kc20impl_abstract_phylum10do_rewriteERNS_11rview_classE, ptr @_ZN2kc20impl_abstract_phylum15rewrite_membersEPS0_, ptr @_ZN2kc20impl_abstract_phylum11post_createEv, ptr @_ZN2kc20impl_abstract_phylumD2Ev, ptr @_ZN2kc26impl_IDtype_ITUserFunctionD0Ev, ptr @_ZN2kc26impl_IDtype_ITUserFunction10do_unparseERNS_21printer_functor_classERNS_11uview_classE, ptr @_ZN2kc20impl_abstract_phylum15default_unparseERNS_21printer_functor_classERNS_11uview_classE] }, align 8
@_ZTVN2kc23impl_IDtype_ITUserRViewE = external unnamed_addr constant { [13 x ptr] }, align 8
@_ZTVN2kc29impl_IDtype_ITPredefinedRViewE = external unnamed_addr constant { [13 x ptr] }, align 8
@_ZTVN2kc22impl_IDtype_ITUViewVarE = external unnamed_addr constant { [13 x ptr] }, align 8
@_ZTVN2kc23impl_IDtype_ITUserUViewE = external unnamed_addr constant { [13 x ptr] }, align 8
@_ZTVN2kc29impl_IDtype_ITPredefinedUViewE = external unnamed_addr constant { [13 x ptr] }, align 8
@_ZTVN2kc26impl_IDtype_ITStorageClassE = external unnamed_addr constant { [13 x ptr] }, align 8
@_ZTVN2kc36impl_IDtype_ITPredefinedStorageClassE = external unnamed_addr constant { [13 x ptr] }, align 8
@_ZTVN2kc26impl_IDtype_ITUserOperatorE = dso_local unnamed_addr constant { [13 x ptr] } { [13 x ptr] [ptr null, ptr @_ZTIN2kc26impl_IDtype_ITUserOperatorE, ptr @_ZNK2kc26impl_IDtype_ITUserOperator8prod_selEv, ptr @_ZNK2kc26impl_IDtype_ITUserOperator9subphylumEi, ptr @_ZN2kc26impl_IDtype_ITUserOperator13set_subphylumEiPNS_20impl_abstract_phylumE, ptr @_ZN2kc26impl_IDtype_ITUserOperator7rewriteERNS_11rview_classE, ptr @_ZN2kc20impl_abstract_phylum10do_rewriteERNS_11rview_classE, ptr @_ZN2kc20impl_abstract_phylum15rewrite_membersEPS0_, ptr @_ZN2kc20impl_abstract_phylum11post_createEv, ptr @_ZN2kc20impl_abstract_phylumD2Ev, ptr @_ZN2kc26impl_IDtype_ITUserOperatorD0Ev, ptr @_ZN2kc26impl_IDtype_ITUserOperator10do_unparseERNS_21printer_functor_classERNS_11uview_classE, ptr @_ZN2kc20impl_abstract_phylum15default_unparseERNS_21printer_functor_classERNS_11uview_classE] }, align 8
@_ZTVN2kc32impl_IDtype_ITPredefinedOperatorE = dso_local unnamed_addr constant { [13 x ptr] } { [13 x ptr] [ptr null, ptr @_ZTIN2kc32impl_IDtype_ITPredefinedOperatorE, ptr @_ZNK2kc32impl_IDtype_ITPredefinedOperator8prod_selEv, ptr @_ZNK2kc32impl_IDtype_ITPredefinedOperator9subphylumEi, ptr @_ZN2kc32impl_IDtype_ITPredefinedOperator13set_subphylumEiPNS_20impl_abstract_phylumE, ptr @_ZN2kc32impl_IDtype_ITPredefinedOperator7rewriteERNS_11rview_classE, ptr @_ZN2kc20impl_abstract_phylum10do_rewriteERNS_11rview_classE, ptr @_ZN2kc20impl_abstract_phylum15rewrite_membersEPS0_, ptr @_ZN2kc20impl_abstract_phylum11post_createEv, ptr @_ZN2kc20impl_abstract_phylumD2Ev, ptr @_ZN2kc32impl_IDtype_ITPredefinedOperatorD0Ev, ptr @_ZN2kc32impl_IDtype_ITPredefinedOperator10do_unparseERNS_21printer_functor_classERNS_11uview_classE, ptr @_ZN2kc20impl_abstract_phylum15default_unparseERNS_21printer_functor_classERNS_11uview_classE] }, align 8
@_ZTVN2kc24impl_IDtype_ITUserPhylumE = dso_local unnamed_addr constant { [13 x ptr] } { [13 x ptr] [ptr null, ptr @_ZTIN2kc24impl_IDtype_ITUserPhylumE, ptr @_ZNK2kc24impl_IDtype_ITUserPhylum8prod_selEv, ptr @_ZNK2kc24impl_IDtype_ITUserPhylum9subphylumEi, ptr @_ZN2kc24impl_IDtype_ITUserPhylum13set_subphylumEiPNS_20impl_abstract_phylumE, ptr @_ZN2kc24impl_IDtype_ITUserPhylum7rewriteERNS_11rview_classE, ptr @_ZN2kc20impl_abstract_phylum10do_rewriteERNS_11rview_classE, ptr @_ZN2kc20impl_abstract_phylum15rewrite_membersEPS0_, ptr @_ZN2kc20impl_abstract_phylum11post_createEv, ptr @_ZN2kc20impl_abstract_phylumD2Ev, ptr @_ZN2kc24impl_IDtype_ITUserPhylumD0Ev, ptr @_ZN2kc24impl_IDtype_ITUserPhylum10do_unparseERNS_21printer_functor_classERNS_11uview_classE, ptr @_ZN2kc20impl_abstract_phylum15default_unparseERNS_21printer_functor_classERNS_11uview_classE] }, align 8
@_ZTVN2kc30impl_IDtype_ITPredefinedPhylumE = dso_local unnamed_addr constant { [13 x ptr] } { [13 x ptr] [ptr null, ptr @_ZTIN2kc30impl_IDtype_ITPredefinedPhylumE, ptr @_ZNK2kc30impl_IDtype_ITPredefinedPhylum8prod_selEv, ptr @_ZNK2kc30impl_IDtype_ITPredefinedPhylum9subphylumEi, ptr @_ZN2kc30impl_IDtype_ITPredefinedPhylum13set_subphylumEiPNS_20impl_abstract_phylumE, ptr @_ZN2kc30impl_IDtype_ITPredefinedPhylum7rewriteERNS_11rview_classE, ptr @_ZN2kc20impl_abstract_phylum10do_rewriteERNS_11rview_classE, ptr @_ZN2kc20impl_abstract_phylum15rewrite_membersEPS0_, ptr @_ZN2kc20impl_abstract_phylum11post_createEv, ptr @_ZN2kc20impl_abstract_phylumD2Ev, ptr @_ZN2kc30impl_IDtype_ITPredefinedPhylumD0Ev, ptr @_ZN2kc30impl_IDtype_ITPredefinedPhylum10do_unparseERNS_21printer_functor_classERNS_11uview_classE, ptr @_ZN2kc20impl_abstract_phylum15default_unparseERNS_21printer_functor_classERNS_11uview_classE] }, align 8
@_ZTVN2kc21impl_IDtype_ITUnknownE = external unnamed_addr constant { [13 x ptr] }, align 8
@_ZN2kc14impl_operators11phylum_sel_E = dso_local local_unnamed_addr constant i32 80, align 4
@_ZTVN2kc14impl_operatorsE = dso_local unnamed_addr constant { [15 x ptr] } { [15 x ptr] [ptr null, ptr @_ZTIN2kc14impl_operatorsE, ptr @_ZNK2kc14impl_operators8prod_selEv, ptr @_ZNK2kc14impl_operators9subphylumEi, ptr @_ZN2kc14impl_operators13set_subphylumEiPNS_20impl_abstract_phylumE, ptr @_ZN2kc14impl_operators7rewriteERNS_11rview_classE, ptr @_ZN2kc20impl_abstract_phylum10do_rewriteERNS_11rview_classE, ptr @_ZN2kc20impl_abstract_phylum15rewrite_membersEPS0_, ptr @_ZN2kc20impl_abstract_phylum11post_createEv, ptr @_ZN2kc20impl_abstract_phylumD2Ev, ptr @_ZN2kc14impl_operatorsD0Ev, ptr @_ZN2kc14impl_operators10do_unparseERNS_21printer_functor_classERNS_11uview_classE, ptr @_ZN2kc20impl_abstract_phylum15default_unparseERNS_21printer_functor_classERNS_11uview_classE, ptr @_ZNK2kc14impl_operators6is_nilEv, ptr @_ZNK2kc14impl_operators7reverseEv] }, align 8
@_ZN2kc10impl_phyla11phylum_sel_E = dso_local local_unnamed_addr constant i32 81, align 4
@_ZTVN2kc10impl_phylaE = dso_local unnamed_addr constant { [15 x ptr] } { [15 x ptr] [ptr null, ptr @_ZTIN2kc10impl_phylaE, ptr @_ZNK2kc10impl_phyla8prod_selEv, ptr @_ZNK2kc10impl_phyla9subphylumEi, ptr @_ZN2kc10impl_phyla13set_subphylumEiPNS_20impl_abstract_phylumE, ptr @_ZN2kc10impl_phyla7rewriteERNS_11rview_classE, ptr @_ZN2kc20impl_abstract_phylum10do_rewriteERNS_11rview_classE, ptr @_ZN2kc20impl_abstract_phylum15rewrite_membersEPS0_, ptr @_ZN2kc20impl_abstract_phylum11post_createEv, ptr @_ZN2kc20impl_abstract_phylumD2Ev, ptr @_ZN2kc10impl_phylaD0Ev, ptr @_ZN2kc10impl_phyla10do_unparseERNS_21printer_functor_classERNS_11uview_classE, ptr @_ZN2kc20impl_abstract_phylum15default_unparseERNS_21printer_functor_classERNS_11uview_classE, ptr @_ZNK2kc10impl_phyla6is_nilEv, ptr @_ZNK2kc10impl_phyla7reverseEv] }, align 8
@_ZN2kc14impl_variables11phylum_sel_E = dso_local local_unnamed_addr constant i32 82, align 4
@_ZTVN2kc14impl_variablesE = dso_local unnamed_addr constant { [15 x ptr] } { [15 x ptr] [ptr null, ptr @_ZTIN2kc14impl_variablesE, ptr @_ZNK2kc14impl_variables8prod_selEv, ptr @_ZNK2kc14impl_variables9subphylumEi, ptr @_ZN2kc14impl_variables13set_subphylumEiPNS_20impl_abstract_phylumE, ptr @_ZN2kc14impl_variables7rewriteERNS_11rview_classE, ptr @_ZN2kc20impl_abstract_phylum10do_rewriteERNS_11rview_classE, ptr @_ZN2kc20impl_abstract_phylum15rewrite_membersEPS0_, ptr @_ZN2kc20impl_abstract_phylum11post_createEv, ptr @_ZN2kc20impl_abstract_phylumD2Ev, ptr @_ZN2kc14impl_variablesD0Ev, ptr @_ZN2kc14impl_variables10do_unparseERNS_21printer_functor_classERNS_11uview_classE, ptr @_ZN2kc20impl_abstract_phylum15default_unparseERNS_21printer_functor_classERNS_11uview_classE, ptr @_ZNK2kc14impl_variables6is_nilEv, ptr @_ZNK2kc14impl_variables7reverseEv] }, align 8
@_ZN2kc20impl_dollarvarstatus11phylum_sel_E = dso_local local_unnamed_addr constant i32 83, align 4
@_ZTVN2kc33impl_dollarvarstatus_DVDisallowedE = external unnamed_addr constant { [13 x ptr] }, align 8
@_ZTVN2kc30impl_dollarvarstatus_DVAllowedE = external unnamed_addr constant { [13 x ptr] }, align 8
@_ZN2kc12impl_tribool11phylum_sel_E = dso_local local_unnamed_addr constant i32 84, align 4
@_ZTVN2kc19impl_tribool_BiggerE = external unnamed_addr constant { [13 x ptr] }, align 8
@_ZTVN2kc20impl_tribool_SmallerE = external unnamed_addr constant { [13 x ptr] }, align 8
@_ZTVN2kc18impl_tribool_EqualE = external unnamed_addr constant { [13 x ptr] }, align 8
@_ZN2kc27impl_patternrepresentations11phylum_sel_E = dso_local local_unnamed_addr constant i32 85, align 4
@_ZTVN2kc27impl_patternrepresentationsE = dso_local unnamed_addr constant { [15 x ptr] } { [15 x ptr] [ptr null, ptr @_ZTIN2kc27impl_patternrepresentationsE, ptr @_ZNK2kc27impl_patternrepresentations8prod_selEv, ptr @_ZNK2kc27impl_patternrepresentations9subphylumEi, ptr @_ZN2kc27impl_patternrepresentations13set_subphylumEiPNS_20impl_abstract_phylumE, ptr @_ZN2kc27impl_patternrepresentations7rewriteERNS_11rview_classE, ptr @_ZN2kc20impl_abstract_phylum10do_rewriteERNS_11rview_classE, ptr @_ZN2kc20impl_abstract_phylum15rewrite_membersEPS0_, ptr @_ZN2kc20impl_abstract_phylum11post_createEv, ptr @_ZN2kc20impl_abstract_phylumD2Ev, ptr @_ZN2kc27impl_patternrepresentationsD0Ev, ptr @_ZN2kc27impl_patternrepresentations10do_unparseERNS_21printer_functor_classERNS_11uview_classE, ptr @_ZN2kc20impl_abstract_phylum15default_unparseERNS_21printer_functor_classERNS_11uview_classE, ptr @_ZNK2kc27impl_patternrepresentations6is_nilEv, ptr @_ZNK2kc27impl_patternrepresentations7reverseEv] }, align 8
@_ZN2kc26impl_patternrepresentation11phylum_sel_E = dso_local local_unnamed_addr constant i32 86, align 4
@_ZTVN2kc26impl_patternrepresentationE = dso_local unnamed_addr constant { [15 x ptr] } { [15 x ptr] [ptr null, ptr @_ZTIN2kc26impl_patternrepresentationE, ptr @_ZNK2kc26impl_patternrepresentation8prod_selEv, ptr @_ZNK2kc26impl_patternrepresentation9subphylumEi, ptr @_ZN2kc26impl_patternrepresentation13set_subphylumEiPNS_20impl_abstract_phylumE, ptr @_ZN2kc26impl_patternrepresentation7rewriteERNS_11rview_classE, ptr @_ZN2kc20impl_abstract_phylum10do_rewriteERNS_11rview_classE, ptr @_ZN2kc20impl_abstract_phylum15rewrite_membersEPS0_, ptr @_ZN2kc20impl_abstract_phylum11post_createEv, ptr @_ZN2kc20impl_abstract_phylumD2Ev, ptr @_ZN2kc26impl_patternrepresentationD0Ev, ptr @_ZN2kc26impl_patternrepresentation10do_unparseERNS_21printer_functor_classERNS_11uview_classE, ptr @_ZN2kc20impl_abstract_phylum15default_unparseERNS_21printer_functor_classERNS_11uview_classE, ptr @_ZNK2kc26impl_patternrepresentation6is_nilEv, ptr @_ZNK2kc26impl_patternrepresentation7reverseEv] }, align 8
@_ZN2kc31impl_elem_patternrepresentation11phylum_sel_E = dso_local local_unnamed_addr constant i32 87, align 4
@_ZTVN2kc44impl_elem_patternrepresentation_PRIntLiteralE = dso_local unnamed_addr constant { [13 x ptr] } { [13 x ptr] [ptr null, ptr @_ZTIN2kc44impl_elem_patternrepresentation_PRIntLiteralE, ptr @_ZNK2kc44impl_elem_patternrepresentation_PRIntLiteral8prod_selEv, ptr @_ZNK2kc44impl_elem_patternrepresentation_PRIntLiteral9subphylumEi, ptr @_ZN2kc44impl_elem_patternrepresentation_PRIntLiteral13set_subphylumEiPNS_20impl_abstract_phylumE, ptr @_ZN2kc44impl_elem_patternrepresentation_PRIntLiteral7rewriteERNS_11rview_classE, ptr @_ZN2kc20impl_abstract_phylum10do_rewriteERNS_11rview_classE, ptr @_ZN2kc20impl_abstract_phylum15rewrite_membersEPS0_, ptr @_ZN2kc20impl_abstract_phylum11post_createEv, ptr @_ZN2kc20impl_abstract_phylumD2Ev, ptr @_ZN2kc44impl_elem_patternrepresentation_PRIntLiteralD0Ev, ptr @_ZN2kc44impl_elem_patternrepresentation_PRIntLiteral10do_unparseERNS_21printer_functor_classERNS_11uview_classE, ptr @_ZN2kc20impl_abstract_phylum15default_unparseERNS_21printer_functor_classERNS_11uview_classE] }, align 8
@_ZTVN2kc47impl_elem_patternrepresentation_PRStringLiteralE = dso_local unnamed_addr constant { [13 x ptr] } { [13 x ptr] [ptr null, ptr @_ZTIN2kc47impl_elem_patternrepresentation_PRStringLiteralE, ptr @_ZNK2kc47impl_elem_patternrepresentation_PRStringLiteral8prod_selEv, ptr @_ZNK2kc47impl_elem_patternrepresentation_PRStringLiteral9subphylumEi, ptr @_ZN2kc47impl_elem_patternrepresentation_PRStringLiteral13set_subphylumEiPNS_20impl_abstract_phylumE, ptr @_ZN2kc47impl_elem_patternrepresentation_PRStringLiteral7rewriteERNS_11rview_classE, ptr @_ZN2kc20impl_abstract_phylum10do_rewriteERNS_11rview_classE, ptr @_ZN2kc20impl_abstract_phylum15rewrite_membersEPS0_, ptr @_ZN2kc20impl_abstract_phylum11post_createEv, ptr @_ZN2kc20impl_abstract_phylumD2Ev, ptr @_ZN2kc47impl_elem_patternrepresentation_PRStringLiteralD0Ev, ptr @_ZN2kc47impl_elem_patternrepresentation_PRStringLiteral10do_unparseERNS_21printer_functor_classERNS_11uview_classE, ptr @_ZN2kc20impl_abstract_phylum15default_unparseERNS_21printer_functor_classERNS_11uview_classE] }, align 8
@_ZTVN2kc41impl_elem_patternrepresentation_PRDefaultE = external unnamed_addr constant { [13 x ptr] }, align 8
@_ZTVN2kc42impl_elem_patternrepresentation_PRWildcardE = dso_local unnamed_addr constant { [13 x ptr] } { [13 x ptr] [ptr null, ptr @_ZTIN2kc42impl_elem_patternrepresentation_PRWildcardE, ptr @_ZNK2kc42impl_elem_patternrepresentation_PRWildcard8prod_selEv, ptr @_ZNK2kc42impl_elem_patternrepresentation_PRWildcard9subphylumEi, ptr @_ZN2kc42impl_elem_patternrepresentation_PRWildcard13set_subphylumEiPNS_20impl_abstract_phylumE, ptr @_ZN2kc42impl_elem_patternrepresentation_PRWildcard7rewriteERNS_11rview_classE, ptr @_ZN2kc20impl_abstract_phylum10do_rewriteERNS_11rview_classE, ptr @_ZN2kc20impl_abstract_phylum15rewrite_membersEPS0_, ptr @_ZN2kc20impl_abstract_phylum11post_createEv, ptr @_ZN2kc20impl_abstract_phylumD2Ev, ptr @_ZN2kc42impl_elem_patternrepresentation_PRWildcardD0Ev, ptr @_ZN2kc42impl_elem_patternrepresentation_PRWildcard10do_unparseERNS_21printer_functor_classERNS_11uview_classE, ptr @_ZN2kc20impl_abstract_phylum15default_unparseERNS_21printer_functor_classERNS_11uview_classE] }, align 8
@_ZTVN2kc48impl_elem_patternrepresentation_PRNonLeafBindingE = dso_local unnamed_addr constant { [13 x ptr] } { [13 x ptr] [ptr null, ptr @_ZTIN2kc48impl_elem_patternrepresentation_PRNonLeafBindingE, ptr @_ZNK2kc48impl_elem_patternrepresentation_PRNonLeafBinding8prod_selEv, ptr @_ZNK2kc48impl_elem_patternrepresentation_PRNonLeafBinding9subphylumEi, ptr @_ZN2kc48impl_elem_patternrepresentation_PRNonLeafBinding13set_subphylumEiPNS_20impl_abstract_phylumE, ptr @_ZN2kc48impl_elem_patternrepresentation_PRNonLeafBinding7rewriteERNS_11rview_classE, ptr @_ZN2kc20impl_abstract_phylum10do_rewriteERNS_11rview_classE, ptr @_ZN2kc20impl_abstract_phylum15rewrite_membersEPS0_, ptr @_ZN2kc20impl_abstract_phylum11post_createEv, ptr @_ZN2kc20impl_abstract_phylumD2Ev, ptr @_ZN2kc48impl_elem_patternrepresentation_PRNonLeafBindingD0Ev, ptr @_ZN2kc48impl_elem_patternrepresentation_PRNonLeafBinding10do_unparseERNS_21printer_functor_classERNS_11uview_classE, ptr @_ZN2kc20impl_abstract_phylum15default_unparseERNS_21printer_functor_classERNS_11uview_classE] }, align 8
@_ZTVN2kc47impl_elem_patternrepresentation_PRUserPredicateE = dso_local unnamed_addr constant { [13 x ptr] } { [13 x ptr] [ptr null, ptr @_ZTIN2kc47impl_elem_patternrepresentation_PRUserPredicateE, ptr @_ZNK2kc47impl_elem_patternrepresentation_PRUserPredicate8prod_selEv, ptr @_ZNK2kc47impl_elem_patternrepresentation_PRUserPredicate9subphylumEi, ptr @_ZN2kc47impl_elem_patternrepresentation_PRUserPredicate13set_subphylumEiPNS_20impl_abstract_phylumE, ptr @_ZN2kc47impl_elem_patternrepresentation_PRUserPredicate7rewriteERNS_11rview_classE, ptr @_ZN2kc20impl_abstract_phylum10do_rewriteERNS_11rview_classE, ptr @_ZN2kc20impl_abstract_phylum15rewrite_membersEPS0_, ptr @_ZN2kc20impl_abstract_phylum11post_createEv, ptr @_ZN2kc20impl_abstract_phylumD2Ev, ptr @_ZN2kc47impl_elem_patternrepresentation_PRUserPredicateD0Ev, ptr @_ZN2kc47impl_elem_patternrepresentation_PRUserPredicate10do_unparseERNS_21printer_functor_classERNS_11uview_classE, ptr @_ZN2kc20impl_abstract_phylum15default_unparseERNS_21printer_functor_classERNS_11uview_classE] }, align 8
@_ZTVN2kc47impl_elem_patternrepresentation_PROperPredicateE = dso_local unnamed_addr constant { [13 x ptr] } { [13 x ptr] [ptr null, ptr @_ZTIN2kc47impl_elem_patternrepresentation_PROperPredicateE, ptr @_ZNK2kc47impl_elem_patternrepresentation_PROperPredicate8prod_selEv, ptr @_ZNK2kc47impl_elem_patternrepresentation_PROperPredicate9subphylumEi, ptr @_ZN2kc47impl_elem_patternrepresentation_PROperPredicate13set_subphylumEiPNS_20impl_abstract_phylumE, ptr @_ZN2kc47impl_elem_patternrepresentation_PROperPredicate7rewriteERNS_11rview_classE, ptr @_ZN2kc20impl_abstract_phylum10do_rewriteERNS_11rview_classE, ptr @_ZN2kc20impl_abstract_phylum15rewrite_membersEPS0_, ptr @_ZN2kc20impl_abstract_phylum11post_createEv, ptr @_ZN2kc20impl_abstract_phylumD2Ev, ptr @_ZN2kc47impl_elem_patternrepresentation_PROperPredicateD0Ev, ptr @_ZN2kc47impl_elem_patternrepresentation_PROperPredicate10do_unparseERNS_21printer_functor_classERNS_11uview_classE, ptr @_ZN2kc20impl_abstract_phylum15default_unparseERNS_21printer_functor_classERNS_11uview_classE] }, align 8
@_ZTVN2kc46impl_elem_patternrepresentation_PRVarPredicateE = dso_local unnamed_addr constant { [13 x ptr] } { [13 x ptr] [ptr null, ptr @_ZTIN2kc46impl_elem_patternrepresentation_PRVarPredicateE, ptr @_ZNK2kc46impl_elem_patternrepresentation_PRVarPredicate8prod_selEv, ptr @_ZNK2kc46impl_elem_patternrepresentation_PRVarPredicate9subphylumEi, ptr @_ZN2kc46impl_elem_patternrepresentation_PRVarPredicate13set_subphylumEiPNS_20impl_abstract_phylumE, ptr @_ZN2kc46impl_elem_patternrepresentation_PRVarPredicate7rewriteERNS_11rview_classE, ptr @_ZN2kc20impl_abstract_phylum10do_rewriteERNS_11rview_classE, ptr @_ZN2kc20impl_abstract_phylum15rewrite_membersEPS0_, ptr @_ZN2kc20impl_abstract_phylum11post_createEv, ptr @_ZN2kc20impl_abstract_phylumD2Ev, ptr @_ZN2kc46impl_elem_patternrepresentation_PRVarPredicateD0Ev, ptr @_ZN2kc46impl_elem_patternrepresentation_PRVarPredicate10do_unparseERNS_21printer_functor_classERNS_11uview_classE, ptr @_ZN2kc20impl_abstract_phylum15default_unparseERNS_21printer_functor_classERNS_11uview_classE] }, align 8
@_ZTVN2kc41impl_elem_patternrepresentation_PRBindingE = dso_local unnamed_addr constant { [13 x ptr] } { [13 x ptr] [ptr null, ptr @_ZTIN2kc41impl_elem_patternrepresentation_PRBindingE, ptr @_ZNK2kc41impl_elem_patternrepresentation_PRBinding8prod_selEv, ptr @_ZNK2kc41impl_elem_patternrepresentation_PRBinding9subphylumEi, ptr @_ZN2kc41impl_elem_patternrepresentation_PRBinding13set_subphylumEiPNS_20impl_abstract_phylumE, ptr @_ZN2kc41impl_elem_patternrepresentation_PRBinding7rewriteERNS_11rview_classE, ptr @_ZN2kc20impl_abstract_phylum10do_rewriteERNS_11rview_classE, ptr @_ZN2kc20impl_abstract_phylum15rewrite_membersEPS0_, ptr @_ZN2kc20impl_abstract_phylum11post_createEv, ptr @_ZN2kc20impl_abstract_phylumD2Ev, ptr @_ZN2kc41impl_elem_patternrepresentation_PRBindingD0Ev, ptr @_ZN2kc41impl_elem_patternrepresentation_PRBinding10do_unparseERNS_21printer_functor_classERNS_11uview_classE, ptr @_ZN2kc20impl_abstract_phylum15default_unparseERNS_21printer_functor_classERNS_11uview_classE] }, align 8
@_ZN2kc9impl_path11phylum_sel_E = dso_local local_unnamed_addr constant i32 88, align 4
@_ZTVN2kc9impl_pathE = dso_local unnamed_addr constant { [15 x ptr] } { [15 x ptr] [ptr null, ptr @_ZTIN2kc9impl_pathE, ptr @_ZNK2kc9impl_path8prod_selEv, ptr @_ZNK2kc9impl_path9subphylumEi, ptr @_ZN2kc9impl_path13set_subphylumEiPNS_20impl_abstract_phylumE, ptr @_ZN2kc9impl_path7rewriteERNS_11rview_classE, ptr @_ZN2kc20impl_abstract_phylum10do_rewriteERNS_11rview_classE, ptr @_ZN2kc20impl_abstract_phylum15rewrite_membersEPS0_, ptr @_ZN2kc20impl_abstract_phylum11post_createEv, ptr @_ZN2kc20impl_abstract_phylumD2Ev, ptr @_ZN2kc9impl_pathD0Ev, ptr @_ZN2kc9impl_path10do_unparseERNS_21printer_functor_classERNS_11uview_classE, ptr @_ZN2kc20impl_abstract_phylum15default_unparseERNS_21printer_functor_classERNS_11uview_classE, ptr @_ZNK2kc9impl_path6is_nilEv, ptr @_ZNK2kc9impl_path7reverseEv] }, align 8
@_ZN2kc10impl_paths11phylum_sel_E = dso_local local_unnamed_addr constant i32 89, align 4
@_ZTVN2kc10impl_pathsE = dso_local unnamed_addr constant { [15 x ptr] } { [15 x ptr] [ptr null, ptr @_ZTIN2kc10impl_pathsE, ptr @_ZNK2kc10impl_paths8prod_selEv, ptr @_ZNK2kc10impl_paths9subphylumEi, ptr @_ZN2kc10impl_paths13set_subphylumEiPNS_20impl_abstract_phylumE, ptr @_ZN2kc10impl_paths7rewriteERNS_11rview_classE, ptr @_ZN2kc20impl_abstract_phylum10do_rewriteERNS_11rview_classE, ptr @_ZN2kc20impl_abstract_phylum15rewrite_membersEPS0_, ptr @_ZN2kc20impl_abstract_phylum11post_createEv, ptr @_ZN2kc20impl_abstract_phylumD2Ev, ptr @_ZN2kc10impl_pathsD0Ev, ptr @_ZN2kc10impl_paths10do_unparseERNS_21printer_functor_classERNS_11uview_classE, ptr @_ZN2kc20impl_abstract_phylum15default_unparseERNS_21printer_functor_classERNS_11uview_classE, ptr @_ZNK2kc10impl_paths6is_nilEv, ptr @_ZNK2kc10impl_paths7reverseEv] }, align 8
@_ZN2kc16impl_argsnumbers11phylum_sel_E = dso_local local_unnamed_addr constant i32 90, align 4
@_ZTVN2kc16impl_argsnumbersE = dso_local unnamed_addr constant { [15 x ptr] } { [15 x ptr] [ptr null, ptr @_ZTIN2kc16impl_argsnumbersE, ptr @_ZNK2kc16impl_argsnumbers8prod_selEv, ptr @_ZNK2kc16impl_argsnumbers9subphylumEi, ptr @_ZN2kc16impl_argsnumbers13set_subphylumEiPNS_20impl_abstract_phylumE, ptr @_ZN2kc16impl_argsnumbers7rewriteERNS_11rview_classE, ptr @_ZN2kc20impl_abstract_phylum10do_rewriteERNS_11rview_classE, ptr @_ZN2kc20impl_abstract_phylum15rewrite_membersEPS0_, ptr @_ZN2kc20impl_abstract_phylum11post_createEv, ptr @_ZN2kc20impl_abstract_phylumD2Ev, ptr @_ZN2kc16impl_argsnumbersD0Ev, ptr @_ZN2kc16impl_argsnumbers10do_unparseERNS_21printer_functor_classERNS_11uview_classE, ptr @_ZN2kc20impl_abstract_phylum15default_unparseERNS_21printer_functor_classERNS_11uview_classE, ptr @_ZNK2kc16impl_argsnumbers6is_nilEv, ptr @_ZNK2kc16impl_argsnumbers7reverseEv] }, align 8
@_ZN2kc21impl_rewriterulesinfo11phylum_sel_E = dso_local local_unnamed_addr constant i32 91, align 4
@_ZTVN2kc21impl_rewriterulesinfoE = dso_local unnamed_addr constant { [15 x ptr] } { [15 x ptr] [ptr null, ptr @_ZTIN2kc21impl_rewriterulesinfoE, ptr @_ZNK2kc21impl_rewriterulesinfo8prod_selEv, ptr @_ZNK2kc21impl_rewriterulesinfo9subphylumEi, ptr @_ZN2kc21impl_rewriterulesinfo13set_subphylumEiPNS_20impl_abstract_phylumE, ptr @_ZN2kc21impl_rewriterulesinfo7rewriteERNS_11rview_classE, ptr @_ZN2kc20impl_abstract_phylum10do_rewriteERNS_11rview_classE, ptr @_ZN2kc20impl_abstract_phylum15rewrite_membersEPS0_, ptr @_ZN2kc20impl_abstract_phylum11post_createEv, ptr @_ZN2kc20impl_abstract_phylumD2Ev, ptr @_ZN2kc21impl_rewriterulesinfoD0Ev, ptr @_ZN2kc21impl_rewriterulesinfo10do_unparseERNS_21printer_functor_classERNS_11uview_classE, ptr @_ZN2kc20impl_abstract_phylum15default_unparseERNS_21printer_functor_classERNS_11uview_classE, ptr @_ZNK2kc21impl_rewriterulesinfo6is_nilEv, ptr @_ZNK2kc21impl_rewriterulesinfo7reverseEv] }, align 8
@_ZN2kc20impl_rewriteruleinfo11phylum_sel_E = dso_local local_unnamed_addr constant i32 92, align 4
@_ZTVN2kc36impl_rewriteruleinfo_RewriteruleinfoE = dso_local unnamed_addr constant { [13 x ptr] } { [13 x ptr] [ptr null, ptr @_ZTIN2kc36impl_rewriteruleinfo_RewriteruleinfoE, ptr @_ZNK2kc36impl_rewriteruleinfo_Rewriteruleinfo8prod_selEv, ptr @_ZNK2kc36impl_rewriteruleinfo_Rewriteruleinfo9subphylumEi, ptr @_ZN2kc36impl_rewriteruleinfo_Rewriteruleinfo13set_subphylumEiPNS_20impl_abstract_phylumE, ptr @_ZN2kc36impl_rewriteruleinfo_Rewriteruleinfo7rewriteERNS_11rview_classE, ptr @_ZN2kc20impl_abstract_phylum10do_rewriteERNS_11rview_classE, ptr @_ZN2kc20impl_abstract_phylum15rewrite_membersEPS0_, ptr @_ZN2kc20impl_abstract_phylum11post_createEv, ptr @_ZN2kc20impl_abstract_phylumD2Ev, ptr @_ZN2kc36impl_rewriteruleinfo_RewriteruleinfoD0Ev, ptr @_ZN2kc36impl_rewriteruleinfo_Rewriteruleinfo10do_unparseERNS_21printer_functor_classERNS_11uview_classE, ptr @_ZN2kc20impl_abstract_phylum15default_unparseERNS_21printer_functor_classERNS_11uview_classE] }, align 8
@_ZN2kc18impl_withcasesinfo11phylum_sel_E = dso_local local_unnamed_addr constant i32 93, align 4
@_ZTVN2kc18impl_withcasesinfoE = dso_local unnamed_addr constant { [15 x ptr] } { [15 x ptr] [ptr null, ptr @_ZTIN2kc18impl_withcasesinfoE, ptr @_ZNK2kc18impl_withcasesinfo8prod_selEv, ptr @_ZNK2kc18impl_withcasesinfo9subphylumEi, ptr @_ZN2kc18impl_withcasesinfo13set_subphylumEiPNS_20impl_abstract_phylumE, ptr @_ZN2kc18impl_withcasesinfo7rewriteERNS_11rview_classE, ptr @_ZN2kc20impl_abstract_phylum10do_rewriteERNS_11rview_classE, ptr @_ZN2kc20impl_abstract_phylum15rewrite_membersEPS0_, ptr @_ZN2kc20impl_abstract_phylum11post_createEv, ptr @_ZN2kc20impl_abstract_phylumD2Ev, ptr @_ZN2kc18impl_withcasesinfoD0Ev, ptr @_ZN2kc18impl_withcasesinfo10do_unparseERNS_21printer_functor_classERNS_11uview_classE, ptr @_ZN2kc20impl_abstract_phylum15default_unparseERNS_21printer_functor_classERNS_11uview_classE, ptr @_ZNK2kc18impl_withcasesinfo6is_nilEv, ptr @_ZNK2kc18impl_withcasesinfo7reverseEv] }, align 8
@_ZN2kc17impl_withcaseinfo11phylum_sel_E = dso_local local_unnamed_addr constant i32 94, align 4
@_ZTVN2kc30impl_withcaseinfo_WithcaseinfoE = dso_local unnamed_addr constant { [13 x ptr] } { [13 x ptr] [ptr null, ptr @_ZTIN2kc30impl_withcaseinfo_WithcaseinfoE, ptr @_ZNK2kc30impl_withcaseinfo_Withcaseinfo8prod_selEv, ptr @_ZNK2kc30impl_withcaseinfo_Withcaseinfo9subphylumEi, ptr @_ZN2kc30impl_withcaseinfo_Withcaseinfo13set_subphylumEiPNS_20impl_abstract_phylumE, ptr @_ZN2kc30impl_withcaseinfo_Withcaseinfo7rewriteERNS_11rview_classE, ptr @_ZN2kc20impl_abstract_phylum10do_rewriteERNS_11rview_classE, ptr @_ZN2kc20impl_abstract_phylum15rewrite_membersEPS0_, ptr @_ZN2kc20impl_abstract_phylum11post_createEv, ptr @_ZN2kc20impl_abstract_phylumD2Ev, ptr @_ZN2kc30impl_withcaseinfo_WithcaseinfoD0Ev, ptr @_ZN2kc30impl_withcaseinfo_Withcaseinfo10do_unparseERNS_21printer_functor_classERNS_11uview_classE, ptr @_ZN2kc20impl_abstract_phylum15default_unparseERNS_21printer_functor_classERNS_11uview_classE] }, align 8
@_ZN2kc21impl_rewriteviewsinfo11phylum_sel_E = dso_local local_unnamed_addr constant i32 95, align 4
@_ZTVN2kc21impl_rewriteviewsinfoE = dso_local unnamed_addr constant { [15 x ptr] } { [15 x ptr] [ptr null, ptr @_ZTIN2kc21impl_rewriteviewsinfoE, ptr @_ZNK2kc21impl_rewriteviewsinfo8prod_selEv, ptr @_ZNK2kc21impl_rewriteviewsinfo9subphylumEi, ptr @_ZN2kc21impl_rewriteviewsinfo13set_subphylumEiPNS_20impl_abstract_phylumE, ptr @_ZN2kc21impl_rewriteviewsinfo7rewriteERNS_11rview_classE, ptr @_ZN2kc20impl_abstract_phylum10do_rewriteERNS_11rview_classE, ptr @_ZN2kc20impl_abstract_phylum15rewrite_membersEPS0_, ptr @_ZN2kc20impl_abstract_phylum11post_createEv, ptr @_ZN2kc20impl_abstract_phylumD2Ev, ptr @_ZN2kc21impl_rewriteviewsinfoD0Ev, ptr @_ZN2kc21impl_rewriteviewsinfo10do_unparseERNS_21printer_functor_classERNS_11uview_classE, ptr @_ZN2kc20impl_abstract_phylum15default_unparseERNS_21printer_functor_classERNS_11uview_classE, ptr @_ZNK2kc21impl_rewriteviewsinfo6is_nilEv, ptr @_ZNK2kc21impl_rewriteviewsinfo7reverseEv] }, align 8
@_ZN2kc20impl_rewriteviewinfo11phylum_sel_E = dso_local local_unnamed_addr constant i32 96, align 4
@_ZTVN2kc36impl_rewriteviewinfo_RewriteviewinfoE = dso_local unnamed_addr constant { [13 x ptr] } { [13 x ptr] [ptr null, ptr @_ZTIN2kc36impl_rewriteviewinfo_RewriteviewinfoE, ptr @_ZNK2kc36impl_rewriteviewinfo_Rewriteviewinfo8prod_selEv, ptr @_ZNK2kc36impl_rewriteviewinfo_Rewriteviewinfo9subphylumEi, ptr @_ZN2kc36impl_rewriteviewinfo_Rewriteviewinfo13set_subphylumEiPNS_20impl_abstract_phylumE, ptr @_ZN2kc36impl_rewriteviewinfo_Rewriteviewinfo7rewriteERNS_11rview_classE, ptr @_ZN2kc20impl_abstract_phylum10do_rewriteERNS_11rview_classE, ptr @_ZN2kc20impl_abstract_phylum15rewrite_membersEPS0_, ptr @_ZN2kc20impl_abstract_phylum11post_createEv, ptr @_ZN2kc20impl_abstract_phylumD2Ev, ptr @_ZN2kc36impl_rewriteviewinfo_RewriteviewinfoD0Ev, ptr @_ZN2kc36impl_rewriteviewinfo_Rewriteviewinfo10do_unparseERNS_21printer_functor_classERNS_11uview_classE, ptr @_ZN2kc20impl_abstract_phylum15default_unparseERNS_21printer_functor_classERNS_11uview_classE] }, align 8
@_ZN2kc21impl_unparseviewsinfo11phylum_sel_E = dso_local local_unnamed_addr constant i32 97, align 4
@_ZTVN2kc21impl_unparseviewsinfoE = dso_local unnamed_addr constant { [15 x ptr] } { [15 x ptr] [ptr null, ptr @_ZTIN2kc21impl_unparseviewsinfoE, ptr @_ZNK2kc21impl_unparseviewsinfo8prod_selEv, ptr @_ZNK2kc21impl_unparseviewsinfo9subphylumEi, ptr @_ZN2kc21impl_unparseviewsinfo13set_subphylumEiPNS_20impl_abstract_phylumE, ptr @_ZN2kc21impl_unparseviewsinfo7rewriteERNS_11rview_classE, ptr @_ZN2kc20impl_abstract_phylum10do_rewriteERNS_11rview_classE, ptr @_ZN2kc20impl_abstract_phylum15rewrite_membersEPS0_, ptr @_ZN2kc20impl_abstract_phylum11post_createEv, ptr @_ZN2kc20impl_abstract_phylumD2Ev, ptr @_ZN2kc21impl_unparseviewsinfoD0Ev, ptr @_ZN2kc21impl_unparseviewsinfo10do_unparseERNS_21printer_functor_classERNS_11uview_classE, ptr @_ZN2kc20impl_abstract_phylum15default_unparseERNS_21printer_functor_classERNS_11uview_classE, ptr @_ZNK2kc21impl_unparseviewsinfo6is_nilEv, ptr @_ZNK2kc21impl_unparseviewsinfo7reverseEv] }, align 8
@_ZN2kc20impl_unparseviewinfo11phylum_sel_E = dso_local local_unnamed_addr constant i32 98, align 4
@_ZTVN2kc36impl_unparseviewinfo_UnparseviewinfoE = dso_local unnamed_addr constant { [13 x ptr] } { [13 x ptr] [ptr null, ptr @_ZTIN2kc36impl_unparseviewinfo_UnparseviewinfoE, ptr @_ZNK2kc36impl_unparseviewinfo_Unparseviewinfo8prod_selEv, ptr @_ZNK2kc36impl_unparseviewinfo_Unparseviewinfo9subphylumEi, ptr @_ZN2kc36impl_unparseviewinfo_Unparseviewinfo13set_subphylumEiPNS_20impl_abstract_phylumE, ptr @_ZN2kc36impl_unparseviewinfo_Unparseviewinfo7rewriteERNS_11rview_classE, ptr @_ZN2kc20impl_abstract_phylum10do_rewriteERNS_11rview_classE, ptr @_ZN2kc20impl_abstract_phylum15rewrite_membersEPS0_, ptr @_ZN2kc20impl_abstract_phylum11post_createEv, ptr @_ZN2kc20impl_abstract_phylumD2Ev, ptr @_ZN2kc36impl_unparseviewinfo_UnparseviewinfoD0Ev, ptr @_ZN2kc36impl_unparseviewinfo_Unparseviewinfo10do_unparseERNS_21printer_functor_classERNS_11uview_classE, ptr @_ZN2kc20impl_abstract_phylum15default_unparseERNS_21printer_functor_classERNS_11uview_classE] }, align 8
@_ZN2kc21impl_unparsedeclsinfo11phylum_sel_E = dso_local local_unnamed_addr constant i32 99, align 4
@_ZTVN2kc21impl_unparsedeclsinfoE = dso_local unnamed_addr constant { [15 x ptr] } { [15 x ptr] [ptr null, ptr @_ZTIN2kc21impl_unparsedeclsinfoE, ptr @_ZNK2kc21impl_unparsedeclsinfo8prod_selEv, ptr @_ZNK2kc21impl_unparsedeclsinfo9subphylumEi, ptr @_ZN2kc21impl_unparsedeclsinfo13set_subphylumEiPNS_20impl_abstract_phylumE, ptr @_ZN2kc21impl_unparsedeclsinfo7rewriteERNS_11rview_classE, ptr @_ZN2kc20impl_abstract_phylum10do_rewriteERNS_11rview_classE, ptr @_ZN2kc20impl_abstract_phylum15rewrite_membersEPS0_, ptr @_ZN2kc20impl_abstract_phylum11post_createEv, ptr @_ZN2kc20impl_abstract_phylumD2Ev, ptr @_ZN2kc21impl_unparsedeclsinfoD0Ev, ptr @_ZN2kc21impl_unparsedeclsinfo10do_unparseERNS_21printer_functor_classERNS_11uview_classE, ptr @_ZN2kc20impl_abstract_phylum15default_unparseERNS_21printer_functor_classERNS_11uview_classE, ptr @_ZNK2kc21impl_unparsedeclsinfo6is_nilEv, ptr @_ZNK2kc21impl_unparsedeclsinfo7reverseEv] }, align 8
@_ZN2kc20impl_unparsedeclinfo11phylum_sel_E = dso_local local_unnamed_addr constant i32 100, align 4
@_ZTVN2kc36impl_unparsedeclinfo_UnparsedeclinfoE = dso_local unnamed_addr constant { [13 x ptr] } { [13 x ptr] [ptr null, ptr @_ZTIN2kc36impl_unparsedeclinfo_UnparsedeclinfoE, ptr @_ZNK2kc36impl_unparsedeclinfo_Unparsedeclinfo8prod_selEv, ptr @_ZNK2kc36impl_unparsedeclinfo_Unparsedeclinfo9subphylumEi, ptr @_ZN2kc36impl_unparsedeclinfo_Unparsedeclinfo13set_subphylumEiPNS_20impl_abstract_phylumE, ptr @_ZN2kc36impl_unparsedeclinfo_Unparsedeclinfo7rewriteERNS_11rview_classE, ptr @_ZN2kc20impl_abstract_phylum10do_rewriteERNS_11rview_classE, ptr @_ZN2kc20impl_abstract_phylum15rewrite_membersEPS0_, ptr @_ZN2kc20impl_abstract_phylum11post_createEv, ptr @_ZN2kc20impl_abstract_phylumD2Ev, ptr @_ZN2kc36impl_unparsedeclinfo_UnparsedeclinfoD0Ev, ptr @_ZN2kc36impl_unparsedeclinfo_Unparsedeclinfo10do_unparseERNS_21printer_functor_classERNS_11uview_classE, ptr @_ZN2kc20impl_abstract_phylum15default_unparseERNS_21printer_functor_classERNS_11uview_classE] }, align 8
@_ZN2kc19impl_ac_declaration11phylum_sel_E = dso_local local_unnamed_addr constant i32 101, align 4
@_ZTVN2kc33impl_ac_declaration_AcDeclarationE = dso_local unnamed_addr constant { [13 x ptr] } { [13 x ptr] [ptr null, ptr @_ZTIN2kc33impl_ac_declaration_AcDeclarationE, ptr @_ZNK2kc33impl_ac_declaration_AcDeclaration8prod_selEv, ptr @_ZNK2kc33impl_ac_declaration_AcDeclaration9subphylumEi, ptr @_ZN2kc33impl_ac_declaration_AcDeclaration13set_subphylumEiPNS_20impl_abstract_phylumE, ptr @_ZN2kc33impl_ac_declaration_AcDeclaration7rewriteERNS_11rview_classE, ptr @_ZN2kc20impl_abstract_phylum10do_rewriteERNS_11rview_classE, ptr @_ZN2kc20impl_abstract_phylum15rewrite_membersEPS0_, ptr @_ZN2kc20impl_abstract_phylum11post_createEv, ptr @_ZN2kc20impl_abstract_phylumD2Ev, ptr @_ZN2kc33impl_ac_declaration_AcDeclarationD0Ev, ptr @_ZN2kc33impl_ac_declaration_AcDeclaration10do_unparseERNS_21printer_functor_classERNS_11uview_classE, ptr @_ZN2kc20impl_abstract_phylum15default_unparseERNS_21printer_functor_classERNS_11uview_classE] }, align 8
@_ZN2kc24impl_ac_declaration_list11phylum_sel_E = dso_local local_unnamed_addr constant i32 102, align 4
@_ZTVN2kc24impl_ac_declaration_listE = dso_local unnamed_addr constant { [15 x ptr] } { [15 x ptr] [ptr null, ptr @_ZTIN2kc24impl_ac_declaration_listE, ptr @_ZNK2kc24impl_ac_declaration_list8prod_selEv, ptr @_ZNK2kc24impl_ac_declaration_list9subphylumEi, ptr @_ZN2kc24impl_ac_declaration_list13set_subphylumEiPNS_20impl_abstract_phylumE, ptr @_ZN2kc24impl_ac_declaration_list7rewriteERNS_11rview_classE, ptr @_ZN2kc20impl_abstract_phylum10do_rewriteERNS_11rview_classE, ptr @_ZN2kc20impl_abstract_phylum15rewrite_membersEPS0_, ptr @_ZN2kc20impl_abstract_phylum11post_createEv, ptr @_ZN2kc20impl_abstract_phylumD2Ev, ptr @_ZN2kc24impl_ac_declaration_listD0Ev, ptr @_ZN2kc24impl_ac_declaration_list10do_unparseERNS_21printer_functor_classERNS_11uview_classE, ptr @_ZN2kc20impl_abstract_phylum15default_unparseERNS_21printer_functor_classERNS_11uview_classE, ptr @_ZNK2kc24impl_ac_declaration_list6is_nilEv, ptr @_ZNK2kc24impl_ac_declaration_list7reverseEv] }, align 8
@_ZN2kc30impl_ac_declaration_specifiers11phylum_sel_E = dso_local local_unnamed_addr constant i32 103, align 4
@_ZTVN2kc30impl_ac_declaration_specifiersE = dso_local unnamed_addr constant { [15 x ptr] } { [15 x ptr] [ptr null, ptr @_ZTIN2kc30impl_ac_declaration_specifiersE, ptr @_ZNK2kc30impl_ac_declaration_specifiers8prod_selEv, ptr @_ZNK2kc30impl_ac_declaration_specifiers9subphylumEi, ptr @_ZN2kc30impl_ac_declaration_specifiers13set_subphylumEiPNS_20impl_abstract_phylumE, ptr @_ZN2kc30impl_ac_declaration_specifiers7rewriteERNS_11rview_classE, ptr @_ZN2kc20impl_abstract_phylum10do_rewriteERNS_11rview_classE, ptr @_ZN2kc20impl_abstract_phylum15rewrite_membersEPS0_, ptr @_ZN2kc20impl_abstract_phylum11post_createEv, ptr @_ZN2kc20impl_abstract_phylumD2Ev, ptr @_ZN2kc30impl_ac_declaration_specifiersD0Ev, ptr @_ZN2kc30impl_ac_declaration_specifiers10do_unparseERNS_21printer_functor_classERNS_11uview_classE, ptr @_ZN2kc20impl_abstract_phylum15default_unparseERNS_21printer_functor_classERNS_11uview_classE, ptr @_ZNK2kc30impl_ac_declaration_specifiers6is_nilEv, ptr @_ZNK2kc30impl_ac_declaration_specifiers7reverseEv] }, align 8
@_ZN2kc29impl_ac_declaration_specifier11phylum_sel_E = dso_local local_unnamed_addr constant i32 104, align 4
@_ZTVN2kc48impl_ac_declaration_specifier_AcDeclSpecTypeQualE = dso_local unnamed_addr constant { [13 x ptr] } { [13 x ptr] [ptr null, ptr @_ZTIN2kc48impl_ac_declaration_specifier_AcDeclSpecTypeQualE, ptr @_ZNK2kc48impl_ac_declaration_specifier_AcDeclSpecTypeQual8prod_selEv, ptr @_ZNK2kc48impl_ac_declaration_specifier_AcDeclSpecTypeQual9subphylumEi, ptr @_ZN2kc48impl_ac_declaration_specifier_AcDeclSpecTypeQual13set_subphylumEiPNS_20impl_abstract_phylumE, ptr @_ZN2kc48impl_ac_declaration_specifier_AcDeclSpecTypeQual7rewriteERNS_11rview_classE, ptr @_ZN2kc20impl_abstract_phylum10do_rewriteERNS_11rview_classE, ptr @_ZN2kc20impl_abstract_phylum15rewrite_membersEPS0_, ptr @_ZN2kc20impl_abstract_phylum11post_createEv, ptr @_ZN2kc20impl_abstract_phylumD2Ev, ptr @_ZN2kc48impl_ac_declaration_specifier_AcDeclSpecTypeQualD0Ev, ptr @_ZN2kc48impl_ac_declaration_specifier_AcDeclSpecTypeQual10do_unparseERNS_21printer_functor_classERNS_11uview_classE, ptr @_ZN2kc20impl_abstract_phylum15default_unparseERNS_21printer_functor_classERNS_11uview_classE] }, align 8
@_ZTVN2kc48impl_ac_declaration_specifier_AcDeclSpecTypeSpecE = dso_local unnamed_addr constant { [13 x ptr] } { [13 x ptr] [ptr null, ptr @_ZTIN2kc48impl_ac_declaration_specifier_AcDeclSpecTypeSpecE, ptr @_ZNK2kc48impl_ac_declaration_specifier_AcDeclSpecTypeSpec8prod_selEv, ptr @_ZNK2kc48impl_ac_declaration_specifier_AcDeclSpecTypeSpec9subphylumEi, ptr @_ZN2kc48impl_ac_declaration_specifier_AcDeclSpecTypeSpec13set_subphylumEiPNS_20impl_abstract_phylumE, ptr @_ZN2kc48impl_ac_declaration_specifier_AcDeclSpecTypeSpec7rewriteERNS_11rview_classE, ptr @_ZN2kc20impl_abstract_phylum10do_rewriteERNS_11rview_classE, ptr @_ZN2kc20impl_abstract_phylum15rewrite_membersEPS0_, ptr @_ZN2kc20impl_abstract_phylum11post_createEv, ptr @_ZN2kc20impl_abstract_phylumD2Ev, ptr @_ZN2kc48impl_ac_declaration_specifier_AcDeclSpecTypeSpecD0Ev, ptr @_ZN2kc48impl_ac_declaration_specifier_AcDeclSpecTypeSpec10do_unparseERNS_21printer_functor_classERNS_11uview_classE, ptr @_ZN2kc20impl_abstract_phylum15default_unparseERNS_21printer_functor_classERNS_11uview_classE] }, align 8
@_ZTVN2kc51impl_ac_declaration_specifier_AcDeclSpecStorageSpecE = dso_local unnamed_addr constant { [13 x ptr] } { [13 x ptr] [ptr null, ptr @_ZTIN2kc51impl_ac_declaration_specifier_AcDeclSpecStorageSpecE, ptr @_ZNK2kc51impl_ac_declaration_specifier_AcDeclSpecStorageSpec8prod_selEv, ptr @_ZNK2kc51impl_ac_declaration_specifier_AcDeclSpecStorageSpec9subphylumEi, ptr @_ZN2kc51impl_ac_declaration_specifier_AcDeclSpecStorageSpec13set_subphylumEiPNS_20impl_abstract_phylumE, ptr @_ZN2kc51impl_ac_declaration_specifier_AcDeclSpecStorageSpec7rewriteERNS_11rview_classE, ptr @_ZN2kc20impl_abstract_phylum10do_rewriteERNS_11rview_classE, ptr @_ZN2kc20impl_abstract_phylum15rewrite_membersEPS0_, ptr @_ZN2kc20impl_abstract_phylum11post_createEv, ptr @_ZN2kc20impl_abstract_phylumD2Ev, ptr @_ZN2kc51impl_ac_declaration_specifier_AcDeclSpecStorageSpecD0Ev, ptr @_ZN2kc51impl_ac_declaration_specifier_AcDeclSpecStorageSpec10do_unparseERNS_21printer_functor_classERNS_11uview_classE, ptr @_ZN2kc20impl_abstract_phylum15default_unparseERNS_21printer_functor_classERNS_11uview_classE] }, align 8
@_ZN2kc31impl_ac_storage_class_specifier11phylum_sel_E = dso_local local_unnamed_addr constant i32 105, align 4
@_ZTVN2kc41impl_ac_storage_class_specifier_AcVirtualE = external unnamed_addr constant { [13 x ptr] }, align 8
@_ZTVN2kc41impl_ac_storage_class_specifier_AcTypedefE = external unnamed_addr constant { [13 x ptr] }, align 8
@_ZTVN2kc40impl_ac_storage_class_specifier_AcExternE = external unnamed_addr constant { [13 x ptr] }, align 8
@_ZTVN2kc40impl_ac_storage_class_specifier_AcStaticE = external unnamed_addr constant { [13 x ptr] }, align 8
@_ZTVN2kc42impl_ac_storage_class_specifier_AcRegisterE = external unnamed_addr constant { [13 x ptr] }, align 8
@_ZTVN2kc38impl_ac_storage_class_specifier_AcAutoE = external unnamed_addr constant { [13 x ptr] }, align 8
@_ZN2kc22impl_ac_type_specifier11phylum_sel_E = dso_local local_unnamed_addr constant i32 106, align 4
@_ZTVN2kc33impl_ac_type_specifier_AcTypeSpecE = dso_local unnamed_addr constant { [13 x ptr] } { [13 x ptr] [ptr null, ptr @_ZTIN2kc33impl_ac_type_specifier_AcTypeSpecE, ptr @_ZNK2kc33impl_ac_type_specifier_AcTypeSpec8prod_selEv, ptr @_ZNK2kc33impl_ac_type_specifier_AcTypeSpec9subphylumEi, ptr @_ZN2kc33impl_ac_type_specifier_AcTypeSpec13set_subphylumEiPNS_20impl_abstract_phylumE, ptr @_ZN2kc33impl_ac_type_specifier_AcTypeSpec7rewriteERNS_11rview_classE, ptr @_ZN2kc20impl_abstract_phylum10do_rewriteERNS_11rview_classE, ptr @_ZN2kc20impl_abstract_phylum15rewrite_membersEPS0_, ptr @_ZN2kc20impl_abstract_phylum11post_createEv, ptr @_ZN2kc20impl_abstract_phylumD2Ev, ptr @_ZN2kc33impl_ac_type_specifier_AcTypeSpecD0Ev, ptr @_ZN2kc33impl_ac_type_specifier_AcTypeSpec10do_unparseERNS_21printer_functor_classERNS_11uview_classE, ptr @_ZN2kc20impl_abstract_phylum15default_unparseERNS_21printer_functor_classERNS_11uview_classE] }, align 8
@_ZN2kc22impl_ac_type_qualifier11phylum_sel_E = dso_local local_unnamed_addr constant i32 107, align 4
@_ZTVN2kc36impl_ac_type_qualifier_AcNoQualifierE = external unnamed_addr constant { [13 x ptr] }, align 8
@_ZTVN2kc33impl_ac_type_qualifier_AcUnsignedE = external unnamed_addr constant { [13 x ptr] }, align 8
@_ZTVN2kc33impl_ac_type_qualifier_AcVolatileE = external unnamed_addr constant { [13 x ptr] }, align 8
@_ZTVN2kc30impl_ac_type_qualifier_AcConstE = external unnamed_addr constant { [13 x ptr] }, align 8
@_ZN2kc28impl_ac_init_declarator_list11phylum_sel_E = dso_local local_unnamed_addr constant i32 108, align 4
@_ZTVN2kc28impl_ac_init_declarator_listE = dso_local unnamed_addr constant { [15 x ptr] } { [15 x ptr] [ptr null, ptr @_ZTIN2kc28impl_ac_init_declarator_listE, ptr @_ZNK2kc28impl_ac_init_declarator_list8prod_selEv, ptr @_ZNK2kc28impl_ac_init_declarator_list9subphylumEi, ptr @_ZN2kc28impl_ac_init_declarator_list13set_subphylumEiPNS_20impl_abstract_phylumE, ptr @_ZN2kc28impl_ac_init_declarator_list7rewriteERNS_11rview_classE, ptr @_ZN2kc20impl_abstract_phylum10do_rewriteERNS_11rview_classE, ptr @_ZN2kc20impl_abstract_phylum15rewrite_membersEPS0_, ptr @_ZN2kc20impl_abstract_phylum11post_createEv, ptr @_ZN2kc20impl_abstract_phylumD2Ev, ptr @_ZN2kc28impl_ac_init_declarator_listD0Ev, ptr @_ZN2kc28impl_ac_init_declarator_list10do_unparseERNS_21printer_functor_classERNS_11uview_classE, ptr @_ZN2kc20impl_abstract_phylum15default_unparseERNS_21printer_functor_classERNS_11uview_classE, ptr @_ZNK2kc28impl_ac_init_declarator_list6is_nilEv, ptr @_ZNK2kc28impl_ac_init_declarator_list7reverseEv] }, align 8
@_ZN2kc23impl_ac_init_declarator11phylum_sel_E = dso_local local_unnamed_addr constant i32 109, align 4
@_ZTVN2kc34impl_ac_init_declarator_AcInitDeclE = dso_local unnamed_addr constant { [13 x ptr] } { [13 x ptr] [ptr null, ptr @_ZTIN2kc34impl_ac_init_declarator_AcInitDeclE, ptr @_ZNK2kc34impl_ac_init_declarator_AcInitDecl8prod_selEv, ptr @_ZNK2kc34impl_ac_init_declarator_AcInitDecl9subphylumEi, ptr @_ZN2kc34impl_ac_init_declarator_AcInitDecl13set_subphylumEiPNS_20impl_abstract_phylumE, ptr @_ZN2kc34impl_ac_init_declarator_AcInitDecl7rewriteERNS_11rview_classE, ptr @_ZN2kc20impl_abstract_phylum10do_rewriteERNS_11rview_classE, ptr @_ZN2kc20impl_abstract_phylum15rewrite_membersEPS0_, ptr @_ZN2kc20impl_abstract_phylum11post_createEv, ptr @_ZN2kc20impl_abstract_phylumD2Ev, ptr @_ZN2kc34impl_ac_init_declarator_AcInitDeclD0Ev, ptr @_ZN2kc34impl_ac_init_declarator_AcInitDecl10do_unparseERNS_21printer_functor_classERNS_11uview_classE, ptr @_ZN2kc20impl_abstract_phylum15default_unparseERNS_21printer_functor_classERNS_11uview_classE] }, align 8
@_ZN2kc18impl_ac_declarator11phylum_sel_E = dso_local local_unnamed_addr constant i32 110, align 4
@_ZTVN2kc31impl_ac_declarator_AcDeclaratorE = dso_local unnamed_addr constant { [13 x ptr] } { [13 x ptr] [ptr null, ptr @_ZTIN2kc31impl_ac_declarator_AcDeclaratorE, ptr @_ZNK2kc31impl_ac_declarator_AcDeclarator8prod_selEv, ptr @_ZNK2kc31impl_ac_declarator_AcDeclarator9subphylumEi, ptr @_ZN2kc31impl_ac_declarator_AcDeclarator13set_subphylumEiPNS_20impl_abstract_phylumE, ptr @_ZN2kc31impl_ac_declarator_AcDeclarator7rewriteERNS_11rview_classE, ptr @_ZN2kc20impl_abstract_phylum10do_rewriteERNS_11rview_classE, ptr @_ZN2kc20impl_abstract_phylum15rewrite_membersEPS0_, ptr @_ZN2kc20impl_abstract_phylum11post_createEv, ptr @_ZN2kc20impl_abstract_phylumD2Ev, ptr @_ZN2kc31impl_ac_declarator_AcDeclaratorD0Ev, ptr @_ZN2kc31impl_ac_declarator_AcDeclarator10do_unparseERNS_21printer_functor_classERNS_11uview_classE, ptr @_ZN2kc20impl_abstract_phylum15default_unparseERNS_21printer_functor_classERNS_11uview_classE] }, align 8
@_ZN2kc25impl_ac_direct_declarator11phylum_sel_E = dso_local local_unnamed_addr constant i32 111, align 4
@_ZTVN2kc42impl_ac_direct_declarator_AcOperatorDeclIdE = dso_local unnamed_addr constant { [13 x ptr] } { [13 x ptr] [ptr null, ptr @_ZTIN2kc42impl_ac_direct_declarator_AcOperatorDeclIdE, ptr @_ZNK2kc42impl_ac_direct_declarator_AcOperatorDeclId8prod_selEv, ptr @_ZNK2kc42impl_ac_direct_declarator_AcOperatorDeclId9subphylumEi, ptr @_ZN2kc42impl_ac_direct_declarator_AcOperatorDeclId13set_subphylumEiPNS_20impl_abstract_phylumE, ptr @_ZN2kc42impl_ac_direct_declarator_AcOperatorDeclId7rewriteERNS_11rview_classE, ptr @_ZN2kc20impl_abstract_phylum10do_rewriteERNS_11rview_classE, ptr @_ZN2kc20impl_abstract_phylum15rewrite_membersEPS0_, ptr @_ZN2kc20impl_abstract_phylum11post_createEv, ptr @_ZN2kc20impl_abstract_phylumD2Ev, ptr @_ZN2kc42impl_ac_direct_declarator_AcOperatorDeclIdD0Ev, ptr @_ZN2kc42impl_ac_direct_declarator_AcOperatorDeclId10do_unparseERNS_21printer_functor_classERNS_11uview_classE, ptr @_ZN2kc20impl_abstract_phylum15default_unparseERNS_21printer_functor_classERNS_11uview_classE] }, align 8
@_ZTVN2kc44impl_ac_direct_declarator_AcConvOperatorDeclE = dso_local unnamed_addr constant { [13 x ptr] } { [13 x ptr] [ptr null, ptr @_ZTIN2kc44impl_ac_direct_declarator_AcConvOperatorDeclE, ptr @_ZNK2kc44impl_ac_direct_declarator_AcConvOperatorDecl8prod_selEv, ptr @_ZNK2kc44impl_ac_direct_declarator_AcConvOperatorDecl9subphylumEi, ptr @_ZN2kc44impl_ac_direct_declarator_AcConvOperatorDecl13set_subphylumEiPNS_20impl_abstract_phylumE, ptr @_ZN2kc44impl_ac_direct_declarator_AcConvOperatorDecl7rewriteERNS_11rview_classE, ptr @_ZN2kc20impl_abstract_phylum10do_rewriteERNS_11rview_classE, ptr @_ZN2kc20impl_abstract_phylum15rewrite_membersEPS0_, ptr @_ZN2kc20impl_abstract_phylum11post_createEv, ptr @_ZN2kc20impl_abstract_phylumD2Ev, ptr @_ZN2kc44impl_ac_direct_declarator_AcConvOperatorDeclD0Ev, ptr @_ZN2kc44impl_ac_direct_declarator_AcConvOperatorDecl10do_unparseERNS_21printer_functor_classERNS_11uview_classE, ptr @_ZN2kc20impl_abstract_phylum15default_unparseERNS_21printer_functor_classERNS_11uview_classE] }, align 8
@_ZTVN2kc38impl_ac_direct_declarator_AcMemberDeclE = dso_local unnamed_addr constant { [13 x ptr] } { [13 x ptr] [ptr null, ptr @_ZTIN2kc38impl_ac_direct_declarator_AcMemberDeclE, ptr @_ZNK2kc38impl_ac_direct_declarator_AcMemberDecl8prod_selEv, ptr @_ZNK2kc38impl_ac_direct_declarator_AcMemberDecl9subphylumEi, ptr @_ZN2kc38impl_ac_direct_declarator_AcMemberDecl13set_subphylumEiPNS_20impl_abstract_phylumE, ptr @_ZN2kc38impl_ac_direct_declarator_AcMemberDecl7rewriteERNS_11rview_classE, ptr @_ZN2kc20impl_abstract_phylum10do_rewriteERNS_11rview_classE, ptr @_ZN2kc20impl_abstract_phylum15rewrite_membersEPS0_, ptr @_ZN2kc20impl_abstract_phylum11post_createEv, ptr @_ZN2kc20impl_abstract_phylumD2Ev, ptr @_ZN2kc38impl_ac_direct_declarator_AcMemberDeclD0Ev, ptr @_ZN2kc38impl_ac_direct_declarator_AcMemberDecl10do_unparseERNS_21printer_functor_classERNS_11uview_classE, ptr @_ZN2kc20impl_abstract_phylum15default_unparseERNS_21printer_functor_classERNS_11uview_classE] }, align 8
@_ZTVN2kc46impl_ac_direct_declarator_AcQualifiedDeclProtoE = dso_local unnamed_addr constant { [13 x ptr] } { [13 x ptr] [ptr null, ptr @_ZTIN2kc46impl_ac_direct_declarator_AcQualifiedDeclProtoE, ptr @_ZNK2kc46impl_ac_direct_declarator_AcQualifiedDeclProto8prod_selEv, ptr @_ZNK2kc46impl_ac_direct_declarator_AcQualifiedDeclProto9subphylumEi, ptr @_ZN2kc46impl_ac_direct_declarator_AcQualifiedDeclProto13set_subphylumEiPNS_20impl_abstract_phylumE, ptr @_ZN2kc46impl_ac_direct_declarator_AcQualifiedDeclProto7rewriteERNS_11rview_classE, ptr @_ZN2kc20impl_abstract_phylum10do_rewriteERNS_11rview_classE, ptr @_ZN2kc20impl_abstract_phylum15rewrite_membersEPS0_, ptr @_ZN2kc20impl_abstract_phylum11post_createEv, ptr @_ZN2kc20impl_abstract_phylumD2Ev, ptr @_ZN2kc46impl_ac_direct_declarator_AcQualifiedDeclProtoD0Ev, ptr @_ZN2kc46impl_ac_direct_declarator_AcQualifiedDeclProto10do_unparseERNS_21printer_functor_classERNS_11uview_classE, ptr @_ZN2kc20impl_abstract_phylum15default_unparseERNS_21printer_functor_classERNS_11uview_classE] }, align 8
@_ZTVN2kc43impl_ac_direct_declarator_AcDirectDeclProtoE = dso_local unnamed_addr constant { [13 x ptr] } { [13 x ptr] [ptr null, ptr @_ZTIN2kc43impl_ac_direct_declarator_AcDirectDeclProtoE, ptr @_ZNK2kc43impl_ac_direct_declarator_AcDirectDeclProto8prod_selEv, ptr @_ZNK2kc43impl_ac_direct_declarator_AcDirectDeclProto9subphylumEi, ptr @_ZN2kc43impl_ac_direct_declarator_AcDirectDeclProto13set_subphylumEiPNS_20impl_abstract_phylumE, ptr @_ZN2kc43impl_ac_direct_declarator_AcDirectDeclProto7rewriteERNS_11rview_classE, ptr @_ZN2kc20impl_abstract_phylum10do_rewriteERNS_11rview_classE, ptr @_ZN2kc20impl_abstract_phylum15rewrite_membersEPS0_, ptr @_ZN2kc20impl_abstract_phylum11post_createEv, ptr @_ZN2kc20impl_abstract_phylumD2Ev, ptr @_ZN2kc43impl_ac_direct_declarator_AcDirectDeclProtoD0Ev, ptr @_ZN2kc43impl_ac_direct_declarator_AcDirectDeclProto10do_unparseERNS_21printer_functor_classERNS_11uview_classE, ptr @_ZN2kc20impl_abstract_phylum15default_unparseERNS_21printer_functor_classERNS_11uview_classE] }, align 8
@_ZTVN2kc43impl_ac_direct_declarator_AcDirectDeclArrayE = dso_local unnamed_addr constant { [13 x ptr] } { [13 x ptr] [ptr null, ptr @_ZTIN2kc43impl_ac_direct_declarator_AcDirectDeclArrayE, ptr @_ZNK2kc43impl_ac_direct_declarator_AcDirectDeclArray8prod_selEv, ptr @_ZNK2kc43impl_ac_direct_declarator_AcDirectDeclArray9subphylumEi, ptr @_ZN2kc43impl_ac_direct_declarator_AcDirectDeclArray13set_subphylumEiPNS_20impl_abstract_phylumE, ptr @_ZN2kc43impl_ac_direct_declarator_AcDirectDeclArray7rewriteERNS_11rview_classE, ptr @_ZN2kc20impl_abstract_phylum10do_rewriteERNS_11rview_classE, ptr @_ZN2kc20impl_abstract_phylum15rewrite_membersEPS0_, ptr @_ZN2kc20impl_abstract_phylum11post_createEv, ptr @_ZN2kc20impl_abstract_phylumD2Ev, ptr @_ZN2kc43impl_ac_direct_declarator_AcDirectDeclArrayD0Ev, ptr @_ZN2kc43impl_ac_direct_declarator_AcDirectDeclArray10do_unparseERNS_21printer_functor_classERNS_11uview_classE, ptr @_ZN2kc20impl_abstract_phylum15default_unparseERNS_21printer_functor_classERNS_11uview_classE] }, align 8
@_ZTVN2kc42impl_ac_direct_declarator_AcDirectDeclPackE = dso_local unnamed_addr constant { [13 x ptr] } { [13 x ptr] [ptr null, ptr @_ZTIN2kc42impl_ac_direct_declarator_AcDirectDeclPackE, ptr @_ZNK2kc42impl_ac_direct_declarator_AcDirectDeclPack8prod_selEv, ptr @_ZNK2kc42impl_ac_direct_declarator_AcDirectDeclPack9subphylumEi, ptr @_ZN2kc42impl_ac_direct_declarator_AcDirectDeclPack13set_subphylumEiPNS_20impl_abstract_phylumE, ptr @_ZN2kc42impl_ac_direct_declarator_AcDirectDeclPack7rewriteERNS_11rview_classE, ptr @_ZN2kc20impl_abstract_phylum10do_rewriteERNS_11rview_classE, ptr @_ZN2kc20impl_abstract_phylum15rewrite_membersEPS0_, ptr @_ZN2kc20impl_abstract_phylum11post_createEv, ptr @_ZN2kc20impl_abstract_phylumD2Ev, ptr @_ZN2kc42impl_ac_direct_declarator_AcDirectDeclPackD0Ev, ptr @_ZN2kc42impl_ac_direct_declarator_AcDirectDeclPack10do_unparseERNS_21printer_functor_classERNS_11uview_classE, ptr @_ZN2kc20impl_abstract_phylum15default_unparseERNS_21printer_functor_classERNS_11uview_classE] }, align 8
@_ZTVN2kc40impl_ac_direct_declarator_AcDirectDeclIdE = dso_local unnamed_addr constant { [13 x ptr] } { [13 x ptr] [ptr null, ptr @_ZTIN2kc40impl_ac_direct_declarator_AcDirectDeclIdE, ptr @_ZNK2kc40impl_ac_direct_declarator_AcDirectDeclId8prod_selEv, ptr @_ZNK2kc40impl_ac_direct_declarator_AcDirectDeclId9subphylumEi, ptr @_ZN2kc40impl_ac_direct_declarator_AcDirectDeclId13set_subphylumEiPNS_20impl_abstract_phylumE, ptr @_ZN2kc40impl_ac_direct_declarator_AcDirectDeclId7rewriteERNS_11rview_classE, ptr @_ZN2kc20impl_abstract_phylum10do_rewriteERNS_11rview_classE, ptr @_ZN2kc20impl_abstract_phylum15rewrite_membersEPS0_, ptr @_ZN2kc20impl_abstract_phylum11post_createEv, ptr @_ZN2kc20impl_abstract_phylumD2Ev, ptr @_ZN2kc40impl_ac_direct_declarator_AcDirectDeclIdD0Ev, ptr @_ZN2kc40impl_ac_direct_declarator_AcDirectDeclId10do_unparseERNS_21printer_functor_classERNS_11uview_classE, ptr @_ZN2kc20impl_abstract_phylum15default_unparseERNS_21printer_functor_classERNS_11uview_classE] }, align 8
@_ZN2kc22impl_ac_pointer_option11phylum_sel_E = dso_local local_unnamed_addr constant i32 112, align 4
@_ZTVN2kc33impl_ac_pointer_option_YespointerE = dso_local unnamed_addr constant { [13 x ptr] } { [13 x ptr] [ptr null, ptr @_ZTIN2kc33impl_ac_pointer_option_YespointerE, ptr @_ZNK2kc33impl_ac_pointer_option_Yespointer8prod_selEv, ptr @_ZNK2kc33impl_ac_pointer_option_Yespointer9subphylumEi, ptr @_ZN2kc33impl_ac_pointer_option_Yespointer13set_subphylumEiPNS_20impl_abstract_phylumE, ptr @_ZN2kc33impl_ac_pointer_option_Yespointer7rewriteERNS_11rview_classE, ptr @_ZN2kc20impl_abstract_phylum10do_rewriteERNS_11rview_classE, ptr @_ZN2kc20impl_abstract_phylum15rewrite_membersEPS0_, ptr @_ZN2kc20impl_abstract_phylum11post_createEv, ptr @_ZN2kc20impl_abstract_phylumD2Ev, ptr @_ZN2kc33impl_ac_pointer_option_YespointerD0Ev, ptr @_ZN2kc33impl_ac_pointer_option_Yespointer10do_unparseERNS_21printer_functor_classERNS_11uview_classE, ptr @_ZN2kc20impl_abstract_phylum15default_unparseERNS_21printer_functor_classERNS_11uview_classE] }, align 8
@_ZTVN2kc32impl_ac_pointer_option_NopointerE = external unnamed_addr constant { [13 x ptr] }, align 8
@_ZN2kc15impl_ac_pointer11phylum_sel_E = dso_local local_unnamed_addr constant i32 113, align 4
@_ZTVN2kc29impl_ac_pointer_AcPointerConsE = dso_local unnamed_addr constant { [13 x ptr] } { [13 x ptr] [ptr null, ptr @_ZTIN2kc29impl_ac_pointer_AcPointerConsE, ptr @_ZNK2kc29impl_ac_pointer_AcPointerCons8prod_selEv, ptr @_ZNK2kc29impl_ac_pointer_AcPointerCons9subphylumEi, ptr @_ZN2kc29impl_ac_pointer_AcPointerCons13set_subphylumEiPNS_20impl_abstract_phylumE, ptr @_ZN2kc29impl_ac_pointer_AcPointerCons7rewriteERNS_11rview_classE, ptr @_ZN2kc20impl_abstract_phylum10do_rewriteERNS_11rview_classE, ptr @_ZN2kc20impl_abstract_phylum15rewrite_membersEPS0_, ptr @_ZN2kc20impl_abstract_phylum11post_createEv, ptr @_ZN2kc20impl_abstract_phylumD2Ev, ptr @_ZN2kc29impl_ac_pointer_AcPointerConsD0Ev, ptr @_ZN2kc29impl_ac_pointer_AcPointerCons10do_unparseERNS_21printer_functor_classERNS_11uview_classE, ptr @_ZN2kc20impl_abstract_phylum15default_unparseERNS_21printer_functor_classERNS_11uview_classE] }, align 8
@_ZTVN2kc28impl_ac_pointer_AcPointerNilE = dso_local unnamed_addr constant { [13 x ptr] } { [13 x ptr] [ptr null, ptr @_ZTIN2kc28impl_ac_pointer_AcPointerNilE, ptr @_ZNK2kc28impl_ac_pointer_AcPointerNil8prod_selEv, ptr @_ZNK2kc28impl_ac_pointer_AcPointerNil9subphylumEi, ptr @_ZN2kc28impl_ac_pointer_AcPointerNil13set_subphylumEiPNS_20impl_abstract_phylumE, ptr @_ZN2kc28impl_ac_pointer_AcPointerNil7rewriteERNS_11rview_classE, ptr @_ZN2kc20impl_abstract_phylum10do_rewriteERNS_11rview_classE, ptr @_ZN2kc20impl_abstract_phylum15rewrite_membersEPS0_, ptr @_ZN2kc20impl_abstract_phylum11post_createEv, ptr @_ZN2kc20impl_abstract_phylumD2Ev, ptr @_ZN2kc28impl_ac_pointer_AcPointerNilD0Ev, ptr @_ZN2kc28impl_ac_pointer_AcPointerNil10do_unparseERNS_21printer_functor_classERNS_11uview_classE, ptr @_ZN2kc20impl_abstract_phylum15default_unparseERNS_21printer_functor_classERNS_11uview_classE] }, align 8
@_ZN2kc18impl_ac_ref_option11phylum_sel_E = dso_local local_unnamed_addr constant i32 114, align 4
@_ZTVN2kc24impl_ac_ref_option_AcRefE = external unnamed_addr constant { [13 x ptr] }, align 8
@_ZTVN2kc26impl_ac_ref_option_AcNoRefE = external unnamed_addr constant { [13 x ptr] }, align 8
@_ZN2kc21impl_ac_operator_name11phylum_sel_E = dso_local local_unnamed_addr constant i32 115, align 4
@_ZTVN2kc36impl_ac_operator_name_AcOperatorNameE = dso_local unnamed_addr constant { [13 x ptr] } { [13 x ptr] [ptr null, ptr @_ZTIN2kc36impl_ac_operator_name_AcOperatorNameE, ptr @_ZNK2kc36impl_ac_operator_name_AcOperatorName8prod_selEv, ptr @_ZNK2kc36impl_ac_operator_name_AcOperatorName9subphylumEi, ptr @_ZN2kc36impl_ac_operator_name_AcOperatorName13set_subphylumEiPNS_20impl_abstract_phylumE, ptr @_ZN2kc36impl_ac_operator_name_AcOperatorName7rewriteERNS_11rview_classE, ptr @_ZN2kc20impl_abstract_phylum10do_rewriteERNS_11rview_classE, ptr @_ZN2kc20impl_abstract_phylum15rewrite_membersEPS0_, ptr @_ZN2kc20impl_abstract_phylum11post_createEv, ptr @_ZN2kc20impl_abstract_phylumD2Ev, ptr @_ZN2kc36impl_ac_operator_name_AcOperatorNameD0Ev, ptr @_ZN2kc36impl_ac_operator_name_AcOperatorName10do_unparseERNS_21printer_functor_classERNS_11uview_classE, ptr @_ZN2kc20impl_abstract_phylum15default_unparseERNS_21printer_functor_classERNS_11uview_classE] }, align 8
@_ZN2kc33impl_ac_class_qualifier_help_list11phylum_sel_E = dso_local local_unnamed_addr constant i32 116, align 4
@_ZTVN2kc33impl_ac_class_qualifier_help_listE = dso_local unnamed_addr constant { [15 x ptr] } { [15 x ptr] [ptr null, ptr @_ZTIN2kc33impl_ac_class_qualifier_help_listE, ptr @_ZNK2kc33impl_ac_class_qualifier_help_list8prod_selEv, ptr @_ZNK2kc33impl_ac_class_qualifier_help_list9subphylumEi, ptr @_ZN2kc33impl_ac_class_qualifier_help_list13set_subphylumEiPNS_20impl_abstract_phylumE, ptr @_ZN2kc33impl_ac_class_qualifier_help_list7rewriteERNS_11rview_classE, ptr @_ZN2kc20impl_abstract_phylum10do_rewriteERNS_11rview_classE, ptr @_ZN2kc20impl_abstract_phylum15rewrite_membersEPS0_, ptr @_ZN2kc20impl_abstract_phylum11post_createEv, ptr @_ZN2kc20impl_abstract_phylumD2Ev, ptr @_ZN2kc33impl_ac_class_qualifier_help_listD0Ev, ptr @_ZN2kc33impl_ac_class_qualifier_help_list10do_unparseERNS_21printer_functor_classERNS_11uview_classE, ptr @_ZN2kc20impl_abstract_phylum15default_unparseERNS_21printer_functor_classERNS_11uview_classE, ptr @_ZNK2kc33impl_ac_class_qualifier_help_list6is_nilEv, ptr @_ZNK2kc33impl_ac_class_qualifier_help_list7reverseEv] }, align 8
@_ZN2kc28impl_ac_class_qualifier_list11phylum_sel_E = dso_local local_unnamed_addr constant i32 117, align 4
@_ZTVN2kc28impl_ac_class_qualifier_listE = dso_local unnamed_addr constant { [15 x ptr] } { [15 x ptr] [ptr null, ptr @_ZTIN2kc28impl_ac_class_qualifier_listE, ptr @_ZNK2kc28impl_ac_class_qualifier_list8prod_selEv, ptr @_ZNK2kc28impl_ac_class_qualifier_list9subphylumEi, ptr @_ZN2kc28impl_ac_class_qualifier_list13set_subphylumEiPNS_20impl_abstract_phylumE, ptr @_ZN2kc28impl_ac_class_qualifier_list7rewriteERNS_11rview_classE, ptr @_ZN2kc20impl_abstract_phylum10do_rewriteERNS_11rview_classE, ptr @_ZN2kc20impl_abstract_phylum15rewrite_membersEPS0_, ptr @_ZN2kc20impl_abstract_phylum11post_createEv, ptr @_ZN2kc20impl_abstract_phylumD2Ev, ptr @_ZN2kc28impl_ac_class_qualifier_listD0Ev, ptr @_ZN2kc28impl_ac_class_qualifier_list10do_unparseERNS_21printer_functor_classERNS_11uview_classE, ptr @_ZN2kc20impl_abstract_phylum15default_unparseERNS_21printer_functor_classERNS_11uview_classE, ptr @_ZNK2kc28impl_ac_class_qualifier_list6is_nilEv, ptr @_ZNK2kc28impl_ac_class_qualifier_list7reverseEv] }, align 8
@_ZN2kc27impl_ac_type_qualifier_list11phylum_sel_E = dso_local local_unnamed_addr constant i32 118, align 4
@_ZTVN2kc27impl_ac_type_qualifier_listE = dso_local unnamed_addr constant { [15 x ptr] } { [15 x ptr] [ptr null, ptr @_ZTIN2kc27impl_ac_type_qualifier_listE, ptr @_ZNK2kc27impl_ac_type_qualifier_list8prod_selEv, ptr @_ZNK2kc27impl_ac_type_qualifier_list9subphylumEi, ptr @_ZN2kc27impl_ac_type_qualifier_list13set_subphylumEiPNS_20impl_abstract_phylumE, ptr @_ZN2kc27impl_ac_type_qualifier_list7rewriteERNS_11rview_classE, ptr @_ZN2kc20impl_abstract_phylum10do_rewriteERNS_11rview_classE, ptr @_ZN2kc20impl_abstract_phylum15rewrite_membersEPS0_, ptr @_ZN2kc20impl_abstract_phylum11post_createEv, ptr @_ZN2kc20impl_abstract_phylumD2Ev, ptr @_ZN2kc27impl_ac_type_qualifier_listD0Ev, ptr @_ZN2kc27impl_ac_type_qualifier_list10do_unparseERNS_21printer_functor_classERNS_11uview_classE, ptr @_ZN2kc20impl_abstract_phylum15default_unparseERNS_21printer_functor_classERNS_11uview_classE, ptr @_ZNK2kc27impl_ac_type_qualifier_list6is_nilEv, ptr @_ZNK2kc27impl_ac_type_qualifier_list7reverseEv] }, align 8
@_ZN2kc27impl_ac_parameter_type_list11phylum_sel_E = dso_local local_unnamed_addr constant i32 119, align 4
@_ZTVN2kc41impl_ac_parameter_type_list_AcParList3DotE = dso_local unnamed_addr constant { [13 x ptr] } { [13 x ptr] [ptr null, ptr @_ZTIN2kc41impl_ac_parameter_type_list_AcParList3DotE, ptr @_ZNK2kc41impl_ac_parameter_type_list_AcParList3Dot8prod_selEv, ptr @_ZNK2kc41impl_ac_parameter_type_list_AcParList3Dot9subphylumEi, ptr @_ZN2kc41impl_ac_parameter_type_list_AcParList3Dot13set_subphylumEiPNS_20impl_abstract_phylumE, ptr @_ZN2kc41impl_ac_parameter_type_list_AcParList3Dot7rewriteERNS_11rview_classE, ptr @_ZN2kc20impl_abstract_phylum10do_rewriteERNS_11rview_classE, ptr @_ZN2kc20impl_abstract_phylum15rewrite_membersEPS0_, ptr @_ZN2kc20impl_abstract_phylum11post_createEv, ptr @_ZN2kc20impl_abstract_phylumD2Ev, ptr @_ZN2kc41impl_ac_parameter_type_list_AcParList3DotD0Ev, ptr @_ZN2kc41impl_ac_parameter_type_list_AcParList3Dot10do_unparseERNS_21printer_functor_classERNS_11uview_classE, ptr @_ZN2kc20impl_abstract_phylum15default_unparseERNS_21printer_functor_classERNS_11uview_classE] }, align 8
@_ZTVN2kc37impl_ac_parameter_type_list_AcParListE = dso_local unnamed_addr constant { [13 x ptr] } { [13 x ptr] [ptr null, ptr @_ZTIN2kc37impl_ac_parameter_type_list_AcParListE, ptr @_ZNK2kc37impl_ac_parameter_type_list_AcParList8prod_selEv, ptr @_ZNK2kc37impl_ac_parameter_type_list_AcParList9subphylumEi, ptr @_ZN2kc37impl_ac_parameter_type_list_AcParList13set_subphylumEiPNS_20impl_abstract_phylumE, ptr @_ZN2kc37impl_ac_parameter_type_list_AcParList7rewriteERNS_11rview_classE, ptr @_ZN2kc20impl_abstract_phylum10do_rewriteERNS_11rview_classE, ptr @_ZN2kc20impl_abstract_phylum15rewrite_membersEPS0_, ptr @_ZN2kc20impl_abstract_phylum11post_createEv, ptr @_ZN2kc20impl_abstract_phylumD2Ev, ptr @_ZN2kc37impl_ac_parameter_type_list_AcParListD0Ev, ptr @_ZN2kc37impl_ac_parameter_type_list_AcParList10do_unparseERNS_21printer_functor_classERNS_11uview_classE, ptr @_ZN2kc20impl_abstract_phylum15default_unparseERNS_21printer_functor_classERNS_11uview_classE] }, align 8
@_ZN2kc22impl_ac_parameter_list11phylum_sel_E = dso_local local_unnamed_addr constant i32 120, align 4
@_ZTVN2kc22impl_ac_parameter_listE = dso_local unnamed_addr constant { [15 x ptr] } { [15 x ptr] [ptr null, ptr @_ZTIN2kc22impl_ac_parameter_listE, ptr @_ZNK2kc22impl_ac_parameter_list8prod_selEv, ptr @_ZNK2kc22impl_ac_parameter_list9subphylumEi, ptr @_ZN2kc22impl_ac_parameter_list13set_subphylumEiPNS_20impl_abstract_phylumE, ptr @_ZN2kc22impl_ac_parameter_list7rewriteERNS_11rview_classE, ptr @_ZN2kc20impl_abstract_phylum10do_rewriteERNS_11rview_classE, ptr @_ZN2kc20impl_abstract_phylum15rewrite_membersEPS0_, ptr @_ZN2kc20impl_abstract_phylum11post_createEv, ptr @_ZN2kc20impl_abstract_phylumD2Ev, ptr @_ZN2kc22impl_ac_parameter_listD0Ev, ptr @_ZN2kc22impl_ac_parameter_list10do_unparseERNS_21printer_functor_classERNS_11uview_classE, ptr @_ZN2kc20impl_abstract_phylum15default_unparseERNS_21printer_functor_classERNS_11uview_classE, ptr @_ZNK2kc22impl_ac_parameter_list6is_nilEv, ptr @_ZNK2kc22impl_ac_parameter_list7reverseEv] }, align 8
@_ZN2kc29impl_ac_parameter_declaration11phylum_sel_E = dso_local local_unnamed_addr constant i32 121, align 4
@_ZTVN2kc46impl_ac_parameter_declaration_AcParDeclAbsdeclE = dso_local unnamed_addr constant { [13 x ptr] } { [13 x ptr] [ptr null, ptr @_ZTIN2kc46impl_ac_parameter_declaration_AcParDeclAbsdeclE, ptr @_ZNK2kc46impl_ac_parameter_declaration_AcParDeclAbsdecl8prod_selEv, ptr @_ZNK2kc46impl_ac_parameter_declaration_AcParDeclAbsdecl9subphylumEi, ptr @_ZN2kc46impl_ac_parameter_declaration_AcParDeclAbsdecl13set_subphylumEiPNS_20impl_abstract_phylumE, ptr @_ZN2kc46impl_ac_parameter_declaration_AcParDeclAbsdecl7rewriteERNS_11rview_classE, ptr @_ZN2kc20impl_abstract_phylum10do_rewriteERNS_11rview_classE, ptr @_ZN2kc20impl_abstract_phylum15rewrite_membersEPS0_, ptr @_ZN2kc20impl_abstract_phylum11post_createEv, ptr @_ZN2kc20impl_abstract_phylumD2Ev, ptr @_ZN2kc46impl_ac_parameter_declaration_AcParDeclAbsdeclD0Ev, ptr @_ZN2kc46impl_ac_parameter_declaration_AcParDeclAbsdecl10do_unparseERNS_21printer_functor_classERNS_11uview_classE, ptr @_ZN2kc20impl_abstract_phylum15default_unparseERNS_21printer_functor_classERNS_11uview_classE] }, align 8
@_ZTVN2kc43impl_ac_parameter_declaration_AcParDeclDeclE = dso_local unnamed_addr constant { [13 x ptr] } { [13 x ptr] [ptr null, ptr @_ZTIN2kc43impl_ac_parameter_declaration_AcParDeclDeclE, ptr @_ZNK2kc43impl_ac_parameter_declaration_AcParDeclDecl8prod_selEv, ptr @_ZNK2kc43impl_ac_parameter_declaration_AcParDeclDecl9subphylumEi, ptr @_ZN2kc43impl_ac_parameter_declaration_AcParDeclDecl13set_subphylumEiPNS_20impl_abstract_phylumE, ptr @_ZN2kc43impl_ac_parameter_declaration_AcParDeclDecl7rewriteERNS_11rview_classE, ptr @_ZN2kc20impl_abstract_phylum10do_rewriteERNS_11rview_classE, ptr @_ZN2kc20impl_abstract_phylum15rewrite_membersEPS0_, ptr @_ZN2kc20impl_abstract_phylum11post_createEv, ptr @_ZN2kc20impl_abstract_phylumD2Ev, ptr @_ZN2kc43impl_ac_parameter_declaration_AcParDeclDeclD0Ev, ptr @_ZN2kc43impl_ac_parameter_declaration_AcParDeclDecl10do_unparseERNS_21printer_functor_classERNS_11uview_classE, ptr @_ZN2kc20impl_abstract_phylum15default_unparseERNS_21printer_functor_classERNS_11uview_classE] }, align 8
@_ZN2kc23impl_ac_identifier_list11phylum_sel_E = dso_local local_unnamed_addr constant i32 122, align 4
@_ZTVN2kc23impl_ac_identifier_listE = dso_local unnamed_addr constant { [15 x ptr] } { [15 x ptr] [ptr null, ptr @_ZTIN2kc23impl_ac_identifier_listE, ptr @_ZNK2kc23impl_ac_identifier_list8prod_selEv, ptr @_ZNK2kc23impl_ac_identifier_list9subphylumEi, ptr @_ZN2kc23impl_ac_identifier_list13set_subphylumEiPNS_20impl_abstract_phylumE, ptr @_ZN2kc23impl_ac_identifier_list7rewriteERNS_11rview_classE, ptr @_ZN2kc20impl_abstract_phylum10do_rewriteERNS_11rview_classE, ptr @_ZN2kc20impl_abstract_phylum15rewrite_membersEPS0_, ptr @_ZN2kc20impl_abstract_phylum11post_createEv, ptr @_ZN2kc20impl_abstract_phylumD2Ev, ptr @_ZN2kc23impl_ac_identifier_listD0Ev, ptr @_ZN2kc23impl_ac_identifier_list10do_unparseERNS_21printer_functor_classERNS_11uview_classE, ptr @_ZN2kc20impl_abstract_phylum15default_unparseERNS_21printer_functor_classERNS_11uview_classE, ptr @_ZNK2kc23impl_ac_identifier_list6is_nilEv, ptr @_ZNK2kc23impl_ac_identifier_list7reverseEv] }, align 8
@_ZN2kc27impl_ac_abstract_declarator11phylum_sel_E = dso_local local_unnamed_addr constant i32 123, align 4
@_ZTVN2kc44impl_ac_abstract_declarator_AcAbsdeclDirdeclE = dso_local unnamed_addr constant { [13 x ptr] } { [13 x ptr] [ptr null, ptr @_ZTIN2kc44impl_ac_abstract_declarator_AcAbsdeclDirdeclE, ptr @_ZNK2kc44impl_ac_abstract_declarator_AcAbsdeclDirdecl8prod_selEv, ptr @_ZNK2kc44impl_ac_abstract_declarator_AcAbsdeclDirdecl9subphylumEi, ptr @_ZN2kc44impl_ac_abstract_declarator_AcAbsdeclDirdecl13set_subphylumEiPNS_20impl_abstract_phylumE, ptr @_ZN2kc44impl_ac_abstract_declarator_AcAbsdeclDirdecl7rewriteERNS_11rview_classE, ptr @_ZN2kc20impl_abstract_phylum10do_rewriteERNS_11rview_classE, ptr @_ZN2kc20impl_abstract_phylum15rewrite_membersEPS0_, ptr @_ZN2kc20impl_abstract_phylum11post_createEv, ptr @_ZN2kc20impl_abstract_phylumD2Ev, ptr @_ZN2kc44impl_ac_abstract_declarator_AcAbsdeclDirdeclD0Ev, ptr @_ZN2kc44impl_ac_abstract_declarator_AcAbsdeclDirdecl10do_unparseERNS_21printer_functor_classERNS_11uview_classE, ptr @_ZN2kc20impl_abstract_phylum15default_unparseERNS_21printer_functor_classERNS_11uview_classE] }, align 8
@_ZTVN2kc44impl_ac_abstract_declarator_AcAbsdeclPointerE = dso_local unnamed_addr constant { [13 x ptr] } { [13 x ptr] [ptr null, ptr @_ZTIN2kc44impl_ac_abstract_declarator_AcAbsdeclPointerE, ptr @_ZNK2kc44impl_ac_abstract_declarator_AcAbsdeclPointer8prod_selEv, ptr @_ZNK2kc44impl_ac_abstract_declarator_AcAbsdeclPointer9subphylumEi, ptr @_ZN2kc44impl_ac_abstract_declarator_AcAbsdeclPointer13set_subphylumEiPNS_20impl_abstract_phylumE, ptr @_ZN2kc44impl_ac_abstract_declarator_AcAbsdeclPointer7rewriteERNS_11rview_classE, ptr @_ZN2kc20impl_abstract_phylum10do_rewriteERNS_11rview_classE, ptr @_ZN2kc20impl_abstract_phylum15rewrite_membersEPS0_, ptr @_ZN2kc20impl_abstract_phylum11post_createEv, ptr @_ZN2kc20impl_abstract_phylumD2Ev, ptr @_ZN2kc44impl_ac_abstract_declarator_AcAbsdeclPointerD0Ev, ptr @_ZN2kc44impl_ac_abstract_declarator_AcAbsdeclPointer10do_unparseERNS_21printer_functor_classERNS_11uview_classE, ptr @_ZN2kc20impl_abstract_phylum15default_unparseERNS_21printer_functor_classERNS_11uview_classE] }, align 8
@_ZN2kc41impl_ac_direct_abstract_declarator_option11phylum_sel_E = dso_local local_unnamed_addr constant i32 124, align 4
@_ZTVN2kc74impl_ac_direct_abstract_declarator_option_Yesac_direct_abstract_declaratorE = dso_local unnamed_addr constant { [13 x ptr] } { [13 x ptr] [ptr null, ptr @_ZTIN2kc74impl_ac_direct_abstract_declarator_option_Yesac_direct_abstract_declaratorE, ptr @_ZNK2kc74impl_ac_direct_abstract_declarator_option_Yesac_direct_abstract_declarator8prod_selEv, ptr @_ZNK2kc74impl_ac_direct_abstract_declarator_option_Yesac_direct_abstract_declarator9subphylumEi, ptr @_ZN2kc74impl_ac_direct_abstract_declarator_option_Yesac_direct_abstract_declarator13set_subphylumEiPNS_20impl_abstract_phylumE, ptr @_ZN2kc74impl_ac_direct_abstract_declarator_option_Yesac_direct_abstract_declarator7rewriteERNS_11rview_classE, ptr @_ZN2kc20impl_abstract_phylum10do_rewriteERNS_11rview_classE, ptr @_ZN2kc20impl_abstract_phylum15rewrite_membersEPS0_, ptr @_ZN2kc20impl_abstract_phylum11post_createEv, ptr @_ZN2kc20impl_abstract_phylumD2Ev, ptr @_ZN2kc74impl_ac_direct_abstract_declarator_option_Yesac_direct_abstract_declaratorD0Ev, ptr @_ZN2kc74impl_ac_direct_abstract_declarator_option_Yesac_direct_abstract_declarator10do_unparseERNS_21printer_functor_classERNS_11uview_classE, ptr @_ZN2kc20impl_abstract_phylum15default_unparseERNS_21printer_functor_classERNS_11uview_classE] }, align 8
@_ZTVN2kc73impl_ac_direct_abstract_declarator_option_Noac_direct_abstract_declaratorE = external unnamed_addr constant { [13 x ptr] }, align 8
@_ZN2kc34impl_ac_direct_abstract_declarator11phylum_sel_E = dso_local local_unnamed_addr constant i32 125, align 4
@_ZTVN2kc49impl_ac_direct_abstract_declarator_AcDirAbsdeclFnE = dso_local unnamed_addr constant { [13 x ptr] } { [13 x ptr] [ptr null, ptr @_ZTIN2kc49impl_ac_direct_abstract_declarator_AcDirAbsdeclFnE, ptr @_ZNK2kc49impl_ac_direct_abstract_declarator_AcDirAbsdeclFn8prod_selEv, ptr @_ZNK2kc49impl_ac_direct_abstract_declarator_AcDirAbsdeclFn9subphylumEi, ptr @_ZN2kc49impl_ac_direct_abstract_declarator_AcDirAbsdeclFn13set_subphylumEiPNS_20impl_abstract_phylumE, ptr @_ZN2kc49impl_ac_direct_abstract_declarator_AcDirAbsdeclFn7rewriteERNS_11rview_classE, ptr @_ZN2kc20impl_abstract_phylum10do_rewriteERNS_11rview_classE, ptr @_ZN2kc20impl_abstract_phylum15rewrite_membersEPS0_, ptr @_ZN2kc20impl_abstract_phylum11post_createEv, ptr @_ZN2kc20impl_abstract_phylumD2Ev, ptr @_ZN2kc49impl_ac_direct_abstract_declarator_AcDirAbsdeclFnD0Ev, ptr @_ZN2kc49impl_ac_direct_abstract_declarator_AcDirAbsdeclFn10do_unparseERNS_21printer_functor_classERNS_11uview_classE, ptr @_ZN2kc20impl_abstract_phylum15default_unparseERNS_21printer_functor_classERNS_11uview_classE] }, align 8
@_ZTVN2kc52impl_ac_direct_abstract_declarator_AcDirAbsdeclArrayE = dso_local unnamed_addr constant { [13 x ptr] } { [13 x ptr] [ptr null, ptr @_ZTIN2kc52impl_ac_direct_abstract_declarator_AcDirAbsdeclArrayE, ptr @_ZNK2kc52impl_ac_direct_abstract_declarator_AcDirAbsdeclArray8prod_selEv, ptr @_ZNK2kc52impl_ac_direct_abstract_declarator_AcDirAbsdeclArray9subphylumEi, ptr @_ZN2kc52impl_ac_direct_abstract_declarator_AcDirAbsdeclArray13set_subphylumEiPNS_20impl_abstract_phylumE, ptr @_ZN2kc52impl_ac_direct_abstract_declarator_AcDirAbsdeclArray7rewriteERNS_11rview_classE, ptr @_ZN2kc20impl_abstract_phylum10do_rewriteERNS_11rview_classE, ptr @_ZN2kc20impl_abstract_phylum15rewrite_membersEPS0_, ptr @_ZN2kc20impl_abstract_phylum11post_createEv, ptr @_ZN2kc20impl_abstract_phylumD2Ev, ptr @_ZN2kc52impl_ac_direct_abstract_declarator_AcDirAbsdeclArrayD0Ev, ptr @_ZN2kc52impl_ac_direct_abstract_declarator_AcDirAbsdeclArray10do_unparseERNS_21printer_functor_classERNS_11uview_classE, ptr @_ZN2kc20impl_abstract_phylum15default_unparseERNS_21printer_functor_classERNS_11uview_classE] }, align 8
@_ZTVN2kc51impl_ac_direct_abstract_declarator_AcDirAbsdeclPackE = dso_local unnamed_addr constant { [13 x ptr] } { [13 x ptr] [ptr null, ptr @_ZTIN2kc51impl_ac_direct_abstract_declarator_AcDirAbsdeclPackE, ptr @_ZNK2kc51impl_ac_direct_abstract_declarator_AcDirAbsdeclPack8prod_selEv, ptr @_ZNK2kc51impl_ac_direct_abstract_declarator_AcDirAbsdeclPack9subphylumEi, ptr @_ZN2kc51impl_ac_direct_abstract_declarator_AcDirAbsdeclPack13set_subphylumEiPNS_20impl_abstract_phylumE, ptr @_ZN2kc51impl_ac_direct_abstract_declarator_AcDirAbsdeclPack7rewriteERNS_11rview_classE, ptr @_ZN2kc20impl_abstract_phylum10do_rewriteERNS_11rview_classE, ptr @_ZN2kc20impl_abstract_phylum15rewrite_membersEPS0_, ptr @_ZN2kc20impl_abstract_phylum11post_createEv, ptr @_ZN2kc20impl_abstract_phylumD2Ev, ptr @_ZN2kc51impl_ac_direct_abstract_declarator_AcDirAbsdeclPackD0Ev, ptr @_ZN2kc51impl_ac_direct_abstract_declarator_AcDirAbsdeclPack10do_unparseERNS_21printer_functor_classERNS_11uview_classE, ptr @_ZN2kc20impl_abstract_phylum15default_unparseERNS_21printer_functor_classERNS_11uview_classE] }, align 8
@_ZN2kc34impl_ac_constant_expression_option11phylum_sel_E = dso_local local_unnamed_addr constant i32 126, align 4
@_ZTVN2kc59impl_ac_constant_expression_option_Noac_constant_expressionE = external unnamed_addr constant { [13 x ptr] }, align 8
@_ZTVN2kc60impl_ac_constant_expression_option_Yesac_constant_expressionE = dso_local unnamed_addr constant { [13 x ptr] } { [13 x ptr] [ptr null, ptr @_ZTIN2kc60impl_ac_constant_expression_option_Yesac_constant_expressionE, ptr @_ZNK2kc60impl_ac_constant_expression_option_Yesac_constant_expression8prod_selEv, ptr @_ZNK2kc60impl_ac_constant_expression_option_Yesac_constant_expression9subphylumEi, ptr @_ZN2kc60impl_ac_constant_expression_option_Yesac_constant_expression13set_subphylumEiPNS_20impl_abstract_phylumE, ptr @_ZN2kc60impl_ac_constant_expression_option_Yesac_constant_expression7rewriteERNS_11rview_classE, ptr @_ZN2kc20impl_abstract_phylum10do_rewriteERNS_11rview_classE, ptr @_ZN2kc20impl_abstract_phylum15rewrite_membersEPS0_, ptr @_ZN2kc20impl_abstract_phylum11post_createEv, ptr @_ZN2kc20impl_abstract_phylumD2Ev, ptr @_ZN2kc60impl_ac_constant_expression_option_Yesac_constant_expressionD0Ev, ptr @_ZN2kc60impl_ac_constant_expression_option_Yesac_constant_expression10do_unparseERNS_21printer_functor_classERNS_11uview_classE, ptr @_ZN2kc20impl_abstract_phylum15default_unparseERNS_21printer_functor_classERNS_11uview_classE] }, align 8
@_ZN2kc27impl_ac_constant_expression11phylum_sel_E = dso_local local_unnamed_addr constant i32 127, align 4
@_ZTVN2kc39impl_ac_constant_expression_AcConstExprE = dso_local unnamed_addr constant { [13 x ptr] } { [13 x ptr] [ptr null, ptr @_ZTIN2kc39impl_ac_constant_expression_AcConstExprE, ptr @_ZNK2kc39impl_ac_constant_expression_AcConstExpr8prod_selEv, ptr @_ZNK2kc39impl_ac_constant_expression_AcConstExpr9subphylumEi, ptr @_ZN2kc39impl_ac_constant_expression_AcConstExpr13set_subphylumEiPNS_20impl_abstract_phylumE, ptr @_ZN2kc39impl_ac_constant_expression_AcConstExpr7rewriteERNS_11rview_classE, ptr @_ZN2kc20impl_abstract_phylum10do_rewriteERNS_11rview_classE, ptr @_ZN2kc20impl_abstract_phylum15rewrite_membersEPS0_, ptr @_ZN2kc20impl_abstract_phylum11post_createEv, ptr @_ZN2kc20impl_abstract_phylumD2Ev, ptr @_ZN2kc39impl_ac_constant_expression_AcConstExprD0Ev, ptr @_ZN2kc39impl_ac_constant_expression_AcConstExpr10do_unparseERNS_21printer_functor_classERNS_11uview_classE, ptr @_ZN2kc20impl_abstract_phylum15default_unparseERNS_21printer_functor_classERNS_11uview_classE] }, align 8
@_ZN2kc32impl_ac_constant_expression_list11phylum_sel_E = dso_local local_unnamed_addr constant i32 128, align 4
@_ZTVN2kc32impl_ac_constant_expression_listE = dso_local unnamed_addr constant { [15 x ptr] } { [15 x ptr] [ptr null, ptr @_ZTIN2kc32impl_ac_constant_expression_listE, ptr @_ZNK2kc32impl_ac_constant_expression_list8prod_selEv, ptr @_ZNK2kc32impl_ac_constant_expression_list9subphylumEi, ptr @_ZN2kc32impl_ac_constant_expression_list13set_subphylumEiPNS_20impl_abstract_phylumE, ptr @_ZN2kc32impl_ac_constant_expression_list7rewriteERNS_11rview_classE, ptr @_ZN2kc20impl_abstract_phylum10do_rewriteERNS_11rview_classE, ptr @_ZN2kc20impl_abstract_phylum15rewrite_membersEPS0_, ptr @_ZN2kc20impl_abstract_phylum11post_createEv, ptr @_ZN2kc20impl_abstract_phylumD2Ev, ptr @_ZN2kc32impl_ac_constant_expression_listD0Ev, ptr @_ZN2kc32impl_ac_constant_expression_list10do_unparseERNS_21printer_functor_classERNS_11uview_classE, ptr @_ZN2kc20impl_abstract_phylum15default_unparseERNS_21printer_functor_classERNS_11uview_classE, ptr @_ZNK2kc32impl_ac_constant_expression_list6is_nilEv, ptr @_ZNK2kc32impl_ac_constant_expression_list7reverseEv] }, align 8
@_ZN2kc26impl_ac_opt_base_init_list11phylum_sel_E = dso_local local_unnamed_addr constant i32 129, align 4
@_ZTVN2kc40impl_ac_opt_base_init_list_AcYesBaseInitE = dso_local unnamed_addr constant { [13 x ptr] } { [13 x ptr] [ptr null, ptr @_ZTIN2kc40impl_ac_opt_base_init_list_AcYesBaseInitE, ptr @_ZNK2kc40impl_ac_opt_base_init_list_AcYesBaseInit8prod_selEv, ptr @_ZNK2kc40impl_ac_opt_base_init_list_AcYesBaseInit9subphylumEi, ptr @_ZN2kc40impl_ac_opt_base_init_list_AcYesBaseInit13set_subphylumEiPNS_20impl_abstract_phylumE, ptr @_ZN2kc40impl_ac_opt_base_init_list_AcYesBaseInit7rewriteERNS_11rview_classE, ptr @_ZN2kc20impl_abstract_phylum10do_rewriteERNS_11rview_classE, ptr @_ZN2kc20impl_abstract_phylum15rewrite_membersEPS0_, ptr @_ZN2kc20impl_abstract_phylum11post_createEv, ptr @_ZN2kc20impl_abstract_phylumD2Ev, ptr @_ZN2kc40impl_ac_opt_base_init_list_AcYesBaseInitD0Ev, ptr @_ZN2kc40impl_ac_opt_base_init_list_AcYesBaseInit10do_unparseERNS_21printer_functor_classERNS_11uview_classE, ptr @_ZN2kc20impl_abstract_phylum15default_unparseERNS_21printer_functor_classERNS_11uview_classE] }, align 8
@_ZTVN2kc39impl_ac_opt_base_init_list_AcNoBaseInitE = external unnamed_addr constant { [13 x ptr] }, align 8
@_ZN2kc22impl_ac_base_init_list11phylum_sel_E = dso_local local_unnamed_addr constant i32 130, align 4
@_ZTVN2kc22impl_ac_base_init_listE = dso_local unnamed_addr constant { [15 x ptr] } { [15 x ptr] [ptr null, ptr @_ZTIN2kc22impl_ac_base_init_listE, ptr @_ZNK2kc22impl_ac_base_init_list8prod_selEv, ptr @_ZNK2kc22impl_ac_base_init_list9subphylumEi, ptr @_ZN2kc22impl_ac_base_init_list13set_subphylumEiPNS_20impl_abstract_phylumE, ptr @_ZN2kc22impl_ac_base_init_list7rewriteERNS_11rview_classE, ptr @_ZN2kc20impl_abstract_phylum10do_rewriteERNS_11rview_classE, ptr @_ZN2kc20impl_abstract_phylum15rewrite_membersEPS0_, ptr @_ZN2kc20impl_abstract_phylum11post_createEv, ptr @_ZN2kc20impl_abstract_phylumD2Ev, ptr @_ZN2kc22impl_ac_base_init_listD0Ev, ptr @_ZN2kc22impl_ac_base_init_list10do_unparseERNS_21printer_functor_classERNS_11uview_classE, ptr @_ZN2kc20impl_abstract_phylum15default_unparseERNS_21printer_functor_classERNS_11uview_classE, ptr @_ZNK2kc22impl_ac_base_init_list6is_nilEv, ptr @_ZNK2kc22impl_ac_base_init_list7reverseEv] }, align 8
@_ZN2kc17impl_ac_base_init11phylum_sel_E = dso_local local_unnamed_addr constant i32 131, align 4
@_ZTVN2kc28impl_ac_base_init_AcBaseInitE = dso_local unnamed_addr constant { [13 x ptr] } { [13 x ptr] [ptr null, ptr @_ZTIN2kc28impl_ac_base_init_AcBaseInitE, ptr @_ZNK2kc28impl_ac_base_init_AcBaseInit8prod_selEv, ptr @_ZNK2kc28impl_ac_base_init_AcBaseInit9subphylumEi, ptr @_ZN2kc28impl_ac_base_init_AcBaseInit13set_subphylumEiPNS_20impl_abstract_phylumE, ptr @_ZN2kc28impl_ac_base_init_AcBaseInit7rewriteERNS_11rview_classE, ptr @_ZN2kc20impl_abstract_phylum10do_rewriteERNS_11rview_classE, ptr @_ZN2kc20impl_abstract_phylum15rewrite_membersEPS0_, ptr @_ZN2kc20impl_abstract_phylum11post_createEv, ptr @_ZN2kc20impl_abstract_phylumD2Ev, ptr @_ZN2kc28impl_ac_base_init_AcBaseInitD0Ev, ptr @_ZN2kc28impl_ac_base_init_AcBaseInit10do_unparseERNS_21printer_functor_classERNS_11uview_classE, ptr @_ZN2kc20impl_abstract_phylum15default_unparseERNS_21printer_functor_classERNS_11uview_classE] }, align 8
@_ZN2kc27impl_baseclass_declarations11phylum_sel_E = dso_local local_unnamed_addr constant i32 132, align 4
@_ZTVN2kc27impl_baseclass_declarationsE = dso_local unnamed_addr constant { [15 x ptr] } { [15 x ptr] [ptr null, ptr @_ZTIN2kc27impl_baseclass_declarationsE, ptr @_ZNK2kc27impl_baseclass_declarations8prod_selEv, ptr @_ZNK2kc27impl_baseclass_declarations9subphylumEi, ptr @_ZN2kc27impl_baseclass_declarations13set_subphylumEiPNS_20impl_abstract_phylumE, ptr @_ZN2kc27impl_baseclass_declarations7rewriteERNS_11rview_classE, ptr @_ZN2kc20impl_abstract_phylum10do_rewriteERNS_11rview_classE, ptr @_ZN2kc20impl_abstract_phylum15rewrite_membersEPS0_, ptr @_ZN2kc20impl_abstract_phylum11post_createEv, ptr @_ZN2kc20impl_abstract_phylumD2Ev, ptr @_ZN2kc27impl_baseclass_declarationsD0Ev, ptr @_ZN2kc27impl_baseclass_declarations10do_unparseERNS_21printer_functor_classERNS_11uview_classE, ptr @_ZN2kc20impl_abstract_phylum15default_unparseERNS_21printer_functor_classERNS_11uview_classE, ptr @_ZNK2kc27impl_baseclass_declarations6is_nilEv, ptr @_ZNK2kc27impl_baseclass_declarations7reverseEv] }, align 8
@_ZN2kc19impl_baseclass_decl11phylum_sel_E = dso_local local_unnamed_addr constant i32 133, align 4
@_ZTVN2kc33impl_baseclass_decl_BaseClassDeclE = dso_local unnamed_addr constant { [13 x ptr] } { [13 x ptr] [ptr null, ptr @_ZTIN2kc33impl_baseclass_decl_BaseClassDeclE, ptr @_ZNK2kc33impl_baseclass_decl_BaseClassDecl8prod_selEv, ptr @_ZNK2kc33impl_baseclass_decl_BaseClassDecl9subphylumEi, ptr @_ZN2kc33impl_baseclass_decl_BaseClassDecl13set_subphylumEiPNS_20impl_abstract_phylumE, ptr @_ZN2kc33impl_baseclass_decl_BaseClassDecl7rewriteERNS_11rview_classE, ptr @_ZN2kc20impl_abstract_phylum10do_rewriteERNS_11rview_classE, ptr @_ZN2kc20impl_abstract_phylum15rewrite_membersEPS0_, ptr @_ZN2kc20impl_abstract_phylum11post_createEv, ptr @_ZN2kc20impl_abstract_phylumD2Ev, ptr @_ZN2kc33impl_baseclass_decl_BaseClassDeclD0Ev, ptr @_ZN2kc33impl_baseclass_decl_BaseClassDecl10do_unparseERNS_21printer_functor_classERNS_11uview_classE, ptr @_ZN2kc20impl_abstract_phylum15default_unparseERNS_21printer_functor_classERNS_11uview_classE] }, align 8
@_ZN2kc19impl_baseclass_list11phylum_sel_E = dso_local local_unnamed_addr constant i32 134, align 4
@_ZTVN2kc19impl_baseclass_listE = dso_local unnamed_addr constant { [15 x ptr] } { [15 x ptr] [ptr null, ptr @_ZTIN2kc19impl_baseclass_listE, ptr @_ZNK2kc19impl_baseclass_list8prod_selEv, ptr @_ZNK2kc19impl_baseclass_list9subphylumEi, ptr @_ZN2kc19impl_baseclass_list13set_subphylumEiPNS_20impl_abstract_phylumE, ptr @_ZN2kc19impl_baseclass_list7rewriteERNS_11rview_classE, ptr @_ZN2kc20impl_abstract_phylum10do_rewriteERNS_11rview_classE, ptr @_ZN2kc20impl_abstract_phylum15rewrite_membersEPS0_, ptr @_ZN2kc20impl_abstract_phylum11post_createEv, ptr @_ZN2kc20impl_abstract_phylumD2Ev, ptr @_ZN2kc19impl_baseclass_listD0Ev, ptr @_ZN2kc19impl_baseclass_list10do_unparseERNS_21printer_functor_classERNS_11uview_classE, ptr @_ZN2kc20impl_abstract_phylum15default_unparseERNS_21printer_functor_classERNS_11uview_classE, ptr @_ZNK2kc19impl_baseclass_list6is_nilEv, ptr @_ZNK2kc19impl_baseclass_list7reverseEv] }, align 8
@_ZN2kc10impl_error11phylum_sel_E = dso_local local_unnamed_addr constant i32 135, align 4
@_ZTVN2kc18impl_error_WarningE = dso_local unnamed_addr constant { [13 x ptr] } { [13 x ptr] [ptr null, ptr @_ZTIN2kc18impl_error_WarningE, ptr @_ZNK2kc18impl_error_Warning8prod_selEv, ptr @_ZNK2kc18impl_error_Warning9subphylumEi, ptr @_ZN2kc18impl_error_Warning13set_subphylumEiPNS_20impl_abstract_phylumE, ptr @_ZN2kc18impl_error_Warning7rewriteERNS_11rview_classE, ptr @_ZN2kc20impl_abstract_phylum10do_rewriteERNS_11rview_classE, ptr @_ZN2kc20impl_abstract_phylum15rewrite_membersEPS0_, ptr @_ZN2kc20impl_abstract_phylum11post_createEv, ptr @_ZN2kc20impl_abstract_phylumD2Ev, ptr @_ZN2kc18impl_error_WarningD0Ev, ptr @_ZN2kc18impl_error_Warning10do_unparseERNS_21printer_functor_classERNS_11uview_classE, ptr @_ZN2kc20impl_abstract_phylum15default_unparseERNS_21printer_functor_classERNS_11uview_classE] }, align 8
@_ZTVN2kc19impl_error_NonFatalE = dso_local unnamed_addr constant { [13 x ptr] } { [13 x ptr] [ptr null, ptr @_ZTIN2kc19impl_error_NonFatalE, ptr @_ZNK2kc19impl_error_NonFatal8prod_selEv, ptr @_ZNK2kc19impl_error_NonFatal9subphylumEi, ptr @_ZN2kc19impl_error_NonFatal13set_subphylumEiPNS_20impl_abstract_phylumE, ptr @_ZN2kc19impl_error_NonFatal7rewriteERNS_11rview_classE, ptr @_ZN2kc20impl_abstract_phylum10do_rewriteERNS_11rview_classE, ptr @_ZN2kc20impl_abstract_phylum15rewrite_membersEPS0_, ptr @_ZN2kc20impl_abstract_phylum11post_createEv, ptr @_ZN2kc20impl_abstract_phylumD2Ev, ptr @_ZN2kc19impl_error_NonFatalD0Ev, ptr @_ZN2kc19impl_error_NonFatal10do_unparseERNS_21printer_functor_classERNS_11uview_classE, ptr @_ZN2kc20impl_abstract_phylum15default_unparseERNS_21printer_functor_classERNS_11uview_classE] }, align 8
@_ZTVN2kc16impl_error_FatalE = dso_local unnamed_addr constant { [13 x ptr] } { [13 x ptr] [ptr null, ptr @_ZTIN2kc16impl_error_FatalE, ptr @_ZNK2kc16impl_error_Fatal8prod_selEv, ptr @_ZNK2kc16impl_error_Fatal9subphylumEi, ptr @_ZN2kc16impl_error_Fatal13set_subphylumEiPNS_20impl_abstract_phylumE, ptr @_ZN2kc16impl_error_Fatal7rewriteERNS_11rview_classE, ptr @_ZN2kc20impl_abstract_phylum10do_rewriteERNS_11rview_classE, ptr @_ZN2kc20impl_abstract_phylum15rewrite_membersEPS0_, ptr @_ZN2kc20impl_abstract_phylum11post_createEv, ptr @_ZN2kc20impl_abstract_phylumD2Ev, ptr @_ZN2kc16impl_error_FatalD0Ev, ptr @_ZN2kc16impl_error_Fatal10do_unparseERNS_21printer_functor_classERNS_11uview_classE, ptr @_ZN2kc20impl_abstract_phylum15default_unparseERNS_21printer_functor_classERNS_11uview_classE] }, align 8
@_ZN2kc12impl_problem11phylum_sel_E = dso_local local_unnamed_addr constant i32 136, align 4
@_ZTVN2kc21impl_problem_Problem6E = dso_local unnamed_addr constant { [13 x ptr] } { [13 x ptr] [ptr null, ptr @_ZTIN2kc21impl_problem_Problem6E, ptr @_ZNK2kc21impl_problem_Problem68prod_selEv, ptr @_ZNK2kc21impl_problem_Problem69subphylumEi, ptr @_ZN2kc21impl_problem_Problem613set_subphylumEiPNS_20impl_abstract_phylumE, ptr @_ZN2kc21impl_problem_Problem67rewriteERNS_11rview_classE, ptr @_ZN2kc20impl_abstract_phylum10do_rewriteERNS_11rview_classE, ptr @_ZN2kc20impl_abstract_phylum15rewrite_membersEPS0_, ptr @_ZN2kc20impl_abstract_phylum11post_createEv, ptr @_ZN2kc20impl_abstract_phylumD2Ev, ptr @_ZN2kc21impl_problem_Problem6D0Ev, ptr @_ZN2kc21impl_problem_Problem610do_unparseERNS_21printer_functor_classERNS_11uview_classE, ptr @_ZN2kc20impl_abstract_phylum15default_unparseERNS_21printer_functor_classERNS_11uview_classE] }, align 8
@_ZTVN2kc21impl_problem_Problem5E = dso_local unnamed_addr constant { [13 x ptr] } { [13 x ptr] [ptr null, ptr @_ZTIN2kc21impl_problem_Problem5E, ptr @_ZNK2kc21impl_problem_Problem58prod_selEv, ptr @_ZNK2kc21impl_problem_Problem59subphylumEi, ptr @_ZN2kc21impl_problem_Problem513set_subphylumEiPNS_20impl_abstract_phylumE, ptr @_ZN2kc21impl_problem_Problem57rewriteERNS_11rview_classE, ptr @_ZN2kc20impl_abstract_phylum10do_rewriteERNS_11rview_classE, ptr @_ZN2kc20impl_abstract_phylum15rewrite_membersEPS0_, ptr @_ZN2kc20impl_abstract_phylum11post_createEv, ptr @_ZN2kc20impl_abstract_phylumD2Ev, ptr @_ZN2kc21impl_problem_Problem5D0Ev, ptr @_ZN2kc21impl_problem_Problem510do_unparseERNS_21printer_functor_classERNS_11uview_classE, ptr @_ZN2kc20impl_abstract_phylum15default_unparseERNS_21printer_functor_classERNS_11uview_classE] }, align 8
@_ZTVN2kc21impl_problem_Problem4E = dso_local unnamed_addr constant { [13 x ptr] } { [13 x ptr] [ptr null, ptr @_ZTIN2kc21impl_problem_Problem4E, ptr @_ZNK2kc21impl_problem_Problem48prod_selEv, ptr @_ZNK2kc21impl_problem_Problem49subphylumEi, ptr @_ZN2kc21impl_problem_Problem413set_subphylumEiPNS_20impl_abstract_phylumE, ptr @_ZN2kc21impl_problem_Problem47rewriteERNS_11rview_classE, ptr @_ZN2kc20impl_abstract_phylum10do_rewriteERNS_11rview_classE, ptr @_ZN2kc20impl_abstract_phylum15rewrite_membersEPS0_, ptr @_ZN2kc20impl_abstract_phylum11post_createEv, ptr @_ZN2kc20impl_abstract_phylumD2Ev, ptr @_ZN2kc21impl_problem_Problem4D0Ev, ptr @_ZN2kc21impl_problem_Problem410do_unparseERNS_21printer_functor_classERNS_11uview_classE, ptr @_ZN2kc20impl_abstract_phylum15default_unparseERNS_21printer_functor_classERNS_11uview_classE] }, align 8
@_ZTVN2kc25impl_problem_Problem3int1E = dso_local unnamed_addr constant { [13 x ptr] } { [13 x ptr] [ptr null, ptr @_ZTIN2kc25impl_problem_Problem3int1E, ptr @_ZNK2kc25impl_problem_Problem3int18prod_selEv, ptr @_ZNK2kc25impl_problem_Problem3int19subphylumEi, ptr @_ZN2kc25impl_problem_Problem3int113set_subphylumEiPNS_20impl_abstract_phylumE, ptr @_ZN2kc25impl_problem_Problem3int17rewriteERNS_11rview_classE, ptr @_ZN2kc20impl_abstract_phylum10do_rewriteERNS_11rview_classE, ptr @_ZN2kc20impl_abstract_phylum15rewrite_membersEPS0_, ptr @_ZN2kc20impl_abstract_phylum11post_createEv, ptr @_ZN2kc20impl_abstract_phylumD2Ev, ptr @_ZN2kc25impl_problem_Problem3int1D0Ev, ptr @_ZN2kc25impl_problem_Problem3int110do_unparseERNS_21printer_functor_classERNS_11uview_classE, ptr @_ZN2kc20impl_abstract_phylum15default_unparseERNS_21printer_functor_classERNS_11uview_classE] }, align 8
@_ZTVN2kc21impl_problem_Problem3E = dso_local unnamed_addr constant { [13 x ptr] } { [13 x ptr] [ptr null, ptr @_ZTIN2kc21impl_problem_Problem3E, ptr @_ZNK2kc21impl_problem_Problem38prod_selEv, ptr @_ZNK2kc21impl_problem_Problem39subphylumEi, ptr @_ZN2kc21impl_problem_Problem313set_subphylumEiPNS_20impl_abstract_phylumE, ptr @_ZN2kc21impl_problem_Problem37rewriteERNS_11rview_classE, ptr @_ZN2kc20impl_abstract_phylum10do_rewriteERNS_11rview_classE, ptr @_ZN2kc20impl_abstract_phylum15rewrite_membersEPS0_, ptr @_ZN2kc20impl_abstract_phylum11post_createEv, ptr @_ZN2kc20impl_abstract_phylumD2Ev, ptr @_ZN2kc21impl_problem_Problem3D0Ev, ptr @_ZN2kc21impl_problem_Problem310do_unparseERNS_21printer_functor_classERNS_11uview_classE, ptr @_ZN2kc20impl_abstract_phylum15default_unparseERNS_21printer_functor_classERNS_11uview_classE] }, align 8
@_ZTVN2kc21impl_problem_Problem2E = dso_local unnamed_addr constant { [13 x ptr] } { [13 x ptr] [ptr null, ptr @_ZTIN2kc21impl_problem_Problem2E, ptr @_ZNK2kc21impl_problem_Problem28prod_selEv, ptr @_ZNK2kc21impl_problem_Problem29subphylumEi, ptr @_ZN2kc21impl_problem_Problem213set_subphylumEiPNS_20impl_abstract_phylumE, ptr @_ZN2kc21impl_problem_Problem27rewriteERNS_11rview_classE, ptr @_ZN2kc20impl_abstract_phylum10do_rewriteERNS_11rview_classE, ptr @_ZN2kc20impl_abstract_phylum15rewrite_membersEPS0_, ptr @_ZN2kc20impl_abstract_phylum11post_createEv, ptr @_ZN2kc20impl_abstract_phylumD2Ev, ptr @_ZN2kc21impl_problem_Problem2D0Ev, ptr @_ZN2kc21impl_problem_Problem210do_unparseERNS_21printer_functor_classERNS_11uview_classE, ptr @_ZN2kc20impl_abstract_phylum15default_unparseERNS_21printer_functor_classERNS_11uview_classE] }, align 8
@_ZTVN2kc37impl_problem_Problem1storageoption1IDE = dso_local unnamed_addr constant { [13 x ptr] } { [13 x ptr] [ptr null, ptr @_ZTIN2kc37impl_problem_Problem1storageoption1IDE, ptr @_ZNK2kc37impl_problem_Problem1storageoption1ID8prod_selEv, ptr @_ZNK2kc37impl_problem_Problem1storageoption1ID9subphylumEi, ptr @_ZN2kc37impl_problem_Problem1storageoption1ID13set_subphylumEiPNS_20impl_abstract_phylumE, ptr @_ZN2kc37impl_problem_Problem1storageoption1ID7rewriteERNS_11rview_classE, ptr @_ZN2kc20impl_abstract_phylum10do_rewriteERNS_11rview_classE, ptr @_ZN2kc20impl_abstract_phylum15rewrite_membersEPS0_, ptr @_ZN2kc20impl_abstract_phylum11post_createEv, ptr @_ZN2kc20impl_abstract_phylumD2Ev, ptr @_ZN2kc37impl_problem_Problem1storageoption1IDD0Ev, ptr @_ZN2kc37impl_problem_Problem1storageoption1ID10do_unparseERNS_21printer_functor_classERNS_11uview_classE, ptr @_ZN2kc20impl_abstract_phylum15default_unparseERNS_21printer_functor_classERNS_11uview_classE] }, align 8
@_ZTVN2kc30impl_problem_Problem1INT1ID1IDE = dso_local unnamed_addr constant { [13 x ptr] } { [13 x ptr] [ptr null, ptr @_ZTIN2kc30impl_problem_Problem1INT1ID1IDE, ptr @_ZNK2kc30impl_problem_Problem1INT1ID1ID8prod_selEv, ptr @_ZNK2kc30impl_problem_Problem1INT1ID1ID9subphylumEi, ptr @_ZN2kc30impl_problem_Problem1INT1ID1ID13set_subphylumEiPNS_20impl_abstract_phylumE, ptr @_ZN2kc30impl_problem_Problem1INT1ID1ID7rewriteERNS_11rview_classE, ptr @_ZN2kc20impl_abstract_phylum10do_rewriteERNS_11rview_classE, ptr @_ZN2kc20impl_abstract_phylum15rewrite_membersEPS0_, ptr @_ZN2kc20impl_abstract_phylum11post_createEv, ptr @_ZN2kc20impl_abstract_phylumD2Ev, ptr @_ZN2kc30impl_problem_Problem1INT1ID1IDD0Ev, ptr @_ZN2kc30impl_problem_Problem1INT1ID1ID10do_unparseERNS_21printer_functor_classERNS_11uview_classE, ptr @_ZN2kc20impl_abstract_phylum15default_unparseERNS_21printer_functor_classERNS_11uview_classE] }, align 8
@_ZTVN2kc29impl_problem_Problem1ID1ID1IDE = dso_local unnamed_addr constant { [13 x ptr] } { [13 x ptr] [ptr null, ptr @_ZTIN2kc29impl_problem_Problem1ID1ID1IDE, ptr @_ZNK2kc29impl_problem_Problem1ID1ID1ID8prod_selEv, ptr @_ZNK2kc29impl_problem_Problem1ID1ID1ID9subphylumEi, ptr @_ZN2kc29impl_problem_Problem1ID1ID1ID13set_subphylumEiPNS_20impl_abstract_phylumE, ptr @_ZN2kc29impl_problem_Problem1ID1ID1ID7rewriteERNS_11rview_classE, ptr @_ZN2kc20impl_abstract_phylum10do_rewriteERNS_11rview_classE, ptr @_ZN2kc20impl_abstract_phylum15rewrite_membersEPS0_, ptr @_ZN2kc20impl_abstract_phylum11post_createEv, ptr @_ZN2kc20impl_abstract_phylumD2Ev, ptr @_ZN2kc29impl_problem_Problem1ID1ID1IDD0Ev, ptr @_ZN2kc29impl_problem_Problem1ID1ID1ID10do_unparseERNS_21printer_functor_classERNS_11uview_classE, ptr @_ZN2kc20impl_abstract_phylum15default_unparseERNS_21printer_functor_classERNS_11uview_classE] }, align 8
@_ZTVN2kc27impl_problem_Problem1INT1IDE = dso_local unnamed_addr constant { [13 x ptr] } { [13 x ptr] [ptr null, ptr @_ZTIN2kc27impl_problem_Problem1INT1IDE, ptr @_ZNK2kc27impl_problem_Problem1INT1ID8prod_selEv, ptr @_ZNK2kc27impl_problem_Problem1INT1ID9subphylumEi, ptr @_ZN2kc27impl_problem_Problem1INT1ID13set_subphylumEiPNS_20impl_abstract_phylumE, ptr @_ZN2kc27impl_problem_Problem1INT1ID7rewriteERNS_11rview_classE, ptr @_ZN2kc20impl_abstract_phylum10do_rewriteERNS_11rview_classE, ptr @_ZN2kc20impl_abstract_phylum15rewrite_membersEPS0_, ptr @_ZN2kc20impl_abstract_phylum11post_createEv, ptr @_ZN2kc20impl_abstract_phylumD2Ev, ptr @_ZN2kc27impl_problem_Problem1INT1IDD0Ev, ptr @_ZN2kc27impl_problem_Problem1INT1ID10do_unparseERNS_21printer_functor_classERNS_11uview_classE, ptr @_ZN2kc20impl_abstract_phylum15default_unparseERNS_21printer_functor_classERNS_11uview_classE] }, align 8
@_ZTVN2kc25impl_problem_Problem1int1E = dso_local unnamed_addr constant { [13 x ptr] } { [13 x ptr] [ptr null, ptr @_ZTIN2kc25impl_problem_Problem1int1E, ptr @_ZNK2kc25impl_problem_Problem1int18prod_selEv, ptr @_ZNK2kc25impl_problem_Problem1int19subphylumEi, ptr @_ZN2kc25impl_problem_Problem1int113set_subphylumEiPNS_20impl_abstract_phylumE, ptr @_ZN2kc25impl_problem_Problem1int17rewriteERNS_11rview_classE, ptr @_ZN2kc20impl_abstract_phylum10do_rewriteERNS_11rview_classE, ptr @_ZN2kc20impl_abstract_phylum15rewrite_membersEPS0_, ptr @_ZN2kc20impl_abstract_phylum11post_createEv, ptr @_ZN2kc20impl_abstract_phylumD2Ev, ptr @_ZN2kc25impl_problem_Problem1int1D0Ev, ptr @_ZN2kc25impl_problem_Problem1int110do_unparseERNS_21printer_functor_classERNS_11uview_classE, ptr @_ZN2kc20impl_abstract_phylum15default_unparseERNS_21printer_functor_classERNS_11uview_classE] }, align 8
@_ZTVN2kc24impl_problem_Problem1INTE = dso_local unnamed_addr constant { [13 x ptr] } { [13 x ptr] [ptr null, ptr @_ZTIN2kc24impl_problem_Problem1INTE, ptr @_ZNK2kc24impl_problem_Problem1INT8prod_selEv, ptr @_ZNK2kc24impl_problem_Problem1INT9subphylumEi, ptr @_ZN2kc24impl_problem_Problem1INT13set_subphylumEiPNS_20impl_abstract_phylumE, ptr @_ZN2kc24impl_problem_Problem1INT7rewriteERNS_11rview_classE, ptr @_ZN2kc20impl_abstract_phylum10do_rewriteERNS_11rview_classE, ptr @_ZN2kc20impl_abstract_phylum15rewrite_membersEPS0_, ptr @_ZN2kc20impl_abstract_phylum11post_createEv, ptr @_ZN2kc20impl_abstract_phylumD2Ev, ptr @_ZN2kc24impl_problem_Problem1INTD0Ev, ptr @_ZN2kc24impl_problem_Problem1INT10do_unparseERNS_21printer_functor_classERNS_11uview_classE, ptr @_ZN2kc20impl_abstract_phylum15default_unparseERNS_21printer_functor_classERNS_11uview_classE] }, align 8
@_ZTVN2kc25impl_problem_Problem1t1IDE = dso_local unnamed_addr constant { [13 x ptr] } { [13 x ptr] [ptr null, ptr @_ZTIN2kc25impl_problem_Problem1t1IDE, ptr @_ZNK2kc25impl_problem_Problem1t1ID8prod_selEv, ptr @_ZNK2kc25impl_problem_Problem1t1ID9subphylumEi, ptr @_ZN2kc25impl_problem_Problem1t1ID13set_subphylumEiPNS_20impl_abstract_phylumE, ptr @_ZN2kc25impl_problem_Problem1t1ID7rewriteERNS_11rview_classE, ptr @_ZN2kc20impl_abstract_phylum10do_rewriteERNS_11rview_classE, ptr @_ZN2kc20impl_abstract_phylum15rewrite_membersEPS0_, ptr @_ZN2kc20impl_abstract_phylum11post_createEv, ptr @_ZN2kc20impl_abstract_phylumD2Ev, ptr @_ZN2kc25impl_problem_Problem1t1IDD0Ev, ptr @_ZN2kc25impl_problem_Problem1t1ID10do_unparseERNS_21printer_functor_classERNS_11uview_classE, ptr @_ZN2kc20impl_abstract_phylum15default_unparseERNS_21printer_functor_classERNS_11uview_classE] }, align 8
@_ZTVN2kc26impl_problem_Problem1ID1IDE = dso_local unnamed_addr constant { [13 x ptr] } { [13 x ptr] [ptr null, ptr @_ZTIN2kc26impl_problem_Problem1ID1IDE, ptr @_ZNK2kc26impl_problem_Problem1ID1ID8prod_selEv, ptr @_ZNK2kc26impl_problem_Problem1ID1ID9subphylumEi, ptr @_ZN2kc26impl_problem_Problem1ID1ID13set_subphylumEiPNS_20impl_abstract_phylumE, ptr @_ZN2kc26impl_problem_Problem1ID1ID7rewriteERNS_11rview_classE, ptr @_ZN2kc20impl_abstract_phylum10do_rewriteERNS_11rview_classE, ptr @_ZN2kc20impl_abstract_phylum15rewrite_membersEPS0_, ptr @_ZN2kc20impl_abstract_phylum11post_createEv, ptr @_ZN2kc20impl_abstract_phylumD2Ev, ptr @_ZN2kc26impl_problem_Problem1ID1IDD0Ev, ptr @_ZN2kc26impl_problem_Problem1ID1ID10do_unparseERNS_21printer_functor_classERNS_11uview_classE, ptr @_ZN2kc20impl_abstract_phylum15default_unparseERNS_21printer_functor_classERNS_11uview_classE] }, align 8
@_ZTVN2kc23impl_problem_Problem1weE = dso_local unnamed_addr constant { [13 x ptr] } { [13 x ptr] [ptr null, ptr @_ZTIN2kc23impl_problem_Problem1weE, ptr @_ZNK2kc23impl_problem_Problem1we8prod_selEv, ptr @_ZNK2kc23impl_problem_Problem1we9subphylumEi, ptr @_ZN2kc23impl_problem_Problem1we13set_subphylumEiPNS_20impl_abstract_phylumE, ptr @_ZN2kc23impl_problem_Problem1we7rewriteERNS_11rview_classE, ptr @_ZN2kc20impl_abstract_phylum10do_rewriteERNS_11rview_classE, ptr @_ZN2kc20impl_abstract_phylum15rewrite_membersEPS0_, ptr @_ZN2kc20impl_abstract_phylum11post_createEv, ptr @_ZN2kc20impl_abstract_phylumD2Ev, ptr @_ZN2kc23impl_problem_Problem1weD0Ev, ptr @_ZN2kc23impl_problem_Problem1we10do_unparseERNS_21printer_functor_classERNS_11uview_classE, ptr @_ZN2kc20impl_abstract_phylum15default_unparseERNS_21printer_functor_classERNS_11uview_classE] }, align 8
@_ZTVN2kc24impl_problem_Problem1tIDE = dso_local unnamed_addr constant { [13 x ptr] } { [13 x ptr] [ptr null, ptr @_ZTIN2kc24impl_problem_Problem1tIDE, ptr @_ZNK2kc24impl_problem_Problem1tID8prod_selEv, ptr @_ZNK2kc24impl_problem_Problem1tID9subphylumEi, ptr @_ZN2kc24impl_problem_Problem1tID13set_subphylumEiPNS_20impl_abstract_phylumE, ptr @_ZN2kc24impl_problem_Problem1tID7rewriteERNS_11rview_classE, ptr @_ZN2kc20impl_abstract_phylum10do_rewriteERNS_11rview_classE, ptr @_ZN2kc20impl_abstract_phylum15rewrite_membersEPS0_, ptr @_ZN2kc20impl_abstract_phylum11post_createEv, ptr @_ZN2kc20impl_abstract_phylumD2Ev, ptr @_ZN2kc24impl_problem_Problem1tIDD0Ev, ptr @_ZN2kc24impl_problem_Problem1tID10do_unparseERNS_21printer_functor_classERNS_11uview_classE, ptr @_ZN2kc20impl_abstract_phylum15default_unparseERNS_21printer_functor_classERNS_11uview_classE] }, align 8
@_ZTVN2kc23impl_problem_Problem1IDE = dso_local unnamed_addr constant { [13 x ptr] } { [13 x ptr] [ptr null, ptr @_ZTIN2kc23impl_problem_Problem1IDE, ptr @_ZNK2kc23impl_problem_Problem1ID8prod_selEv, ptr @_ZNK2kc23impl_problem_Problem1ID9subphylumEi, ptr @_ZN2kc23impl_problem_Problem1ID13set_subphylumEiPNS_20impl_abstract_phylumE, ptr @_ZN2kc23impl_problem_Problem1ID7rewriteERNS_11rview_classE, ptr @_ZN2kc20impl_abstract_phylum10do_rewriteERNS_11rview_classE, ptr @_ZN2kc20impl_abstract_phylum15rewrite_membersEPS0_, ptr @_ZN2kc20impl_abstract_phylum11post_createEv, ptr @_ZN2kc20impl_abstract_phylumD2Ev, ptr @_ZN2kc23impl_problem_Problem1IDD0Ev, ptr @_ZN2kc23impl_problem_Problem1ID10do_unparseERNS_21printer_functor_classERNS_11uview_classE, ptr @_ZN2kc20impl_abstract_phylum15default_unparseERNS_21printer_functor_classERNS_11uview_classE] }, align 8
@_ZTVN2kc21impl_problem_Problem1E = dso_local unnamed_addr constant { [13 x ptr] } { [13 x ptr] [ptr null, ptr @_ZTIN2kc21impl_problem_Problem1E, ptr @_ZNK2kc21impl_problem_Problem18prod_selEv, ptr @_ZNK2kc21impl_problem_Problem19subphylumEi, ptr @_ZN2kc21impl_problem_Problem113set_subphylumEiPNS_20impl_abstract_phylumE, ptr @_ZN2kc21impl_problem_Problem17rewriteERNS_11rview_classE, ptr @_ZN2kc20impl_abstract_phylum10do_rewriteERNS_11rview_classE, ptr @_ZN2kc20impl_abstract_phylum15rewrite_membersEPS0_, ptr @_ZN2kc20impl_abstract_phylum11post_createEv, ptr @_ZN2kc20impl_abstract_phylumD2Ev, ptr @_ZN2kc21impl_problem_Problem1D0Ev, ptr @_ZN2kc21impl_problem_Problem110do_unparseERNS_21printer_functor_classERNS_11uview_classE, ptr @_ZN2kc20impl_abstract_phylum15default_unparseERNS_21printer_functor_classERNS_11uview_classE] }, align 8
@_ZN2kc28impl_addedphylumdeclarations11phylum_sel_E = dso_local local_unnamed_addr constant i32 137, align 4
@_ZTVN2kc28impl_addedphylumdeclarationsE = dso_local unnamed_addr constant { [15 x ptr] } { [15 x ptr] [ptr null, ptr @_ZTIN2kc28impl_addedphylumdeclarationsE, ptr @_ZNK2kc28impl_addedphylumdeclarations8prod_selEv, ptr @_ZNK2kc28impl_addedphylumdeclarations9subphylumEi, ptr @_ZN2kc28impl_addedphylumdeclarations13set_subphylumEiPNS_20impl_abstract_phylumE, ptr @_ZN2kc28impl_addedphylumdeclarations7rewriteERNS_11rview_classE, ptr @_ZN2kc20impl_abstract_phylum10do_rewriteERNS_11rview_classE, ptr @_ZN2kc20impl_abstract_phylum15rewrite_membersEPS0_, ptr @_ZN2kc20impl_abstract_phylum11post_createEv, ptr @_ZN2kc20impl_abstract_phylumD2Ev, ptr @_ZN2kc28impl_addedphylumdeclarationsD0Ev, ptr @_ZN2kc28impl_addedphylumdeclarations10do_unparseERNS_21printer_functor_classERNS_11uview_classE, ptr @_ZN2kc20impl_abstract_phylum15default_unparseERNS_21printer_functor_classERNS_11uview_classE, ptr @_ZNK2kc28impl_addedphylumdeclarations6is_nilEv, ptr @_ZNK2kc28impl_addedphylumdeclarations7reverseEv] }, align 8
@_ZN2kc27impl_addedphylumdeclaration11phylum_sel_E = dso_local local_unnamed_addr constant i32 138, align 4
@_ZTVN2kc50impl_addedphylumdeclaration_AddedPhylumdeclarationE = dso_local unnamed_addr constant { [13 x ptr] } { [13 x ptr] [ptr null, ptr @_ZTIN2kc50impl_addedphylumdeclaration_AddedPhylumdeclarationE, ptr @_ZNK2kc50impl_addedphylumdeclaration_AddedPhylumdeclaration8prod_selEv, ptr @_ZNK2kc50impl_addedphylumdeclaration_AddedPhylumdeclaration9subphylumEi, ptr @_ZN2kc50impl_addedphylumdeclaration_AddedPhylumdeclaration13set_subphylumEiPNS_20impl_abstract_phylumE, ptr @_ZN2kc50impl_addedphylumdeclaration_AddedPhylumdeclaration7rewriteERNS_11rview_classE, ptr @_ZN2kc20impl_abstract_phylum10do_rewriteERNS_11rview_classE, ptr @_ZN2kc20impl_abstract_phylum15rewrite_membersEPS0_, ptr @_ZN2kc20impl_abstract_phylum11post_createEv, ptr @_ZN2kc20impl_abstract_phylumD2Ev, ptr @_ZN2kc50impl_addedphylumdeclaration_AddedPhylumdeclarationD0Ev, ptr @_ZN2kc50impl_addedphylumdeclaration_AddedPhylumdeclaration10do_unparseERNS_21printer_functor_classERNS_11uview_classE, ptr @_ZN2kc20impl_abstract_phylum15default_unparseERNS_21printer_functor_classERNS_11uview_classE] }, align 8
@_ZN2kc30impl_countedphylumdeclarations11phylum_sel_E = dso_local local_unnamed_addr constant i32 139, align 4
@_ZTVN2kc30impl_countedphylumdeclarationsE = dso_local unnamed_addr constant { [15 x ptr] } { [15 x ptr] [ptr null, ptr @_ZTIN2kc30impl_countedphylumdeclarationsE, ptr @_ZNK2kc30impl_countedphylumdeclarations8prod_selEv, ptr @_ZNK2kc30impl_countedphylumdeclarations9subphylumEi, ptr @_ZN2kc30impl_countedphylumdeclarations13set_subphylumEiPNS_20impl_abstract_phylumE, ptr @_ZN2kc30impl_countedphylumdeclarations7rewriteERNS_11rview_classE, ptr @_ZN2kc20impl_abstract_phylum10do_rewriteERNS_11rview_classE, ptr @_ZN2kc20impl_abstract_phylum15rewrite_membersEPS0_, ptr @_ZN2kc20impl_abstract_phylum11post_createEv, ptr @_ZN2kc20impl_abstract_phylumD2Ev, ptr @_ZN2kc30impl_countedphylumdeclarationsD0Ev, ptr @_ZN2kc30impl_countedphylumdeclarations10do_unparseERNS_21printer_functor_classERNS_11uview_classE, ptr @_ZN2kc20impl_abstract_phylum15default_unparseERNS_21printer_functor_classERNS_11uview_classE, ptr @_ZNK2kc30impl_countedphylumdeclarations6is_nilEv, ptr @_ZNK2kc30impl_countedphylumdeclarations7reverseEv] }, align 8
@_ZN2kc29impl_countedphylumdeclaration11phylum_sel_E = dso_local local_unnamed_addr constant i32 140, align 4
@_ZTVN2kc54impl_countedphylumdeclaration_CountedPhylumdeclarationE = dso_local unnamed_addr constant { [13 x ptr] } { [13 x ptr] [ptr null, ptr @_ZTIN2kc54impl_countedphylumdeclaration_CountedPhylumdeclarationE, ptr @_ZNK2kc54impl_countedphylumdeclaration_CountedPhylumdeclaration8prod_selEv, ptr @_ZNK2kc54impl_countedphylumdeclaration_CountedPhylumdeclaration9subphylumEi, ptr @_ZN2kc54impl_countedphylumdeclaration_CountedPhylumdeclaration13set_subphylumEiPNS_20impl_abstract_phylumE, ptr @_ZN2kc54impl_countedphylumdeclaration_CountedPhylumdeclaration7rewriteERNS_11rview_classE, ptr @_ZN2kc20impl_abstract_phylum10do_rewriteERNS_11rview_classE, ptr @_ZN2kc20impl_abstract_phylum15rewrite_membersEPS0_, ptr @_ZN2kc20impl_abstract_phylum11post_createEv, ptr @_ZN2kc20impl_abstract_phylumD2Ev, ptr @_ZN2kc54impl_countedphylumdeclaration_CountedPhylumdeclarationD0Ev, ptr @_ZN2kc54impl_countedphylumdeclaration_CountedPhylumdeclaration10do_unparseERNS_21printer_functor_classERNS_11uview_classE, ptr @_ZN2kc20impl_abstract_phylum15default_unparseERNS_21printer_functor_classERNS_11uview_classE] }, align 8
@_ZN2kc13impl_charruns11phylum_sel_E = dso_local local_unnamed_addr constant i32 141, align 4
@_ZTVN2kc19impl_charruns_StarsE = external unnamed_addr constant { [13 x ptr] }, align 8
@_ZTVN2kc28impl_charruns_QuotedNewlinesE = external unnamed_addr constant { [13 x ptr] }, align 8
@_ZTVN2kc22impl_charruns_NewlinesE = external unnamed_addr constant { [13 x ptr] }, align 8
@_ZN2kc19impl_bindingidmarks11phylum_sel_E = dso_local local_unnamed_addr constant i32 142, align 4
@_ZTVN2kc19impl_bindingidmarksE = dso_local unnamed_addr constant { [15 x ptr] } { [15 x ptr] [ptr null, ptr @_ZTIN2kc19impl_bindingidmarksE, ptr @_ZNK2kc19impl_bindingidmarks8prod_selEv, ptr @_ZNK2kc19impl_bindingidmarks9subphylumEi, ptr @_ZN2kc19impl_bindingidmarks13set_subphylumEiPNS_20impl_abstract_phylumE, ptr @_ZN2kc19impl_bindingidmarks7rewriteERNS_11rview_classE, ptr @_ZN2kc20impl_abstract_phylum10do_rewriteERNS_11rview_classE, ptr @_ZN2kc20impl_abstract_phylum15rewrite_membersEPS0_, ptr @_ZN2kc20impl_abstract_phylum11post_createEv, ptr @_ZN2kc20impl_abstract_phylumD2Ev, ptr @_ZN2kc19impl_bindingidmarksD0Ev, ptr @_ZN2kc19impl_bindingidmarks10do_unparseERNS_21printer_functor_classERNS_11uview_classE, ptr @_ZN2kc20impl_abstract_phylum15default_unparseERNS_21printer_functor_classERNS_11uview_classE, ptr @_ZNK2kc19impl_bindingidmarks6is_nilEv, ptr @_ZNK2kc19impl_bindingidmarks7reverseEv] }, align 8
@_ZN2kc18impl_bindingidmark11phylum_sel_E = dso_local local_unnamed_addr constant i32 143, align 4
@_ZTVN2kc32impl_bindingidmark_BindingIdMarkE = dso_local unnamed_addr constant { [13 x ptr] } { [13 x ptr] [ptr null, ptr @_ZTIN2kc32impl_bindingidmark_BindingIdMarkE, ptr @_ZNK2kc32impl_bindingidmark_BindingIdMark8prod_selEv, ptr @_ZNK2kc32impl_bindingidmark_BindingIdMark9subphylumEi, ptr @_ZN2kc32impl_bindingidmark_BindingIdMark13set_subphylumEiPNS_20impl_abstract_phylumE, ptr @_ZN2kc32impl_bindingidmark_BindingIdMark7rewriteERNS_11rview_classE, ptr @_ZN2kc20impl_abstract_phylum10do_rewriteERNS_11rview_classE, ptr @_ZN2kc20impl_abstract_phylum15rewrite_membersEPS0_, ptr @_ZN2kc20impl_abstract_phylum11post_createEv, ptr @_ZN2kc20impl_abstract_phylumD2Ev, ptr @_ZN2kc32impl_bindingidmark_BindingIdMarkD0Ev, ptr @_ZN2kc32impl_bindingidmark_BindingIdMark10do_unparseERNS_21printer_functor_classERNS_11uview_classE, ptr @_ZN2kc20impl_abstract_phylum15default_unparseERNS_21printer_functor_classERNS_11uview_classE] }, align 8
@_ZN2kcL28kc_not_uniq_static_hashtableE = internal global %"class.kc::hashtable_struct_t" zeroinitializer, align 8
@__dso_handle = external hidden global i8
@_ZN2kcL21uniq_static_hashtableE = internal global %"class.kc::hashtable_struct_t" zeroinitializer, align 8
@_ZN2kc26kc_storageclass_still_uniqE = dso_local local_unnamed_addr global [2 x i8] c"\01\01", align 1
@_ZN2kc10hashtablesE = dso_local local_unnamed_addr global [2 x ptr] [ptr @_ZN2kcL28kc_not_uniq_static_hashtableE, ptr @_ZN2kcL21uniq_static_hashtableE], align 16
@.str.494 = private unnamed_addr constant [12 x i8] c"kc_not_uniq\00", align 1
@.str.495 = private unnamed_addr constant [5 x i8] c"uniq\00", align 1
@_ZN2kc20kc_storageclassnamesE = dso_local local_unnamed_addr global [2 x ptr] [ptr @.str.494, ptr @.str.495], align 16
@.str.496 = private unnamed_addr constant [89 x i8] c"/usr/local/google/home/aeubanks/repos/test-suite/MultiSource/Applications/kimwitu++/k.cc\00", align 1
@.str.497 = private unnamed_addr constant [80 x i8] c"Cannot create this kind of phylum - predefined phyla must be handled seperately\00", align 1
@.str.498 = private unnamed_addr constant [55 x i8] c"Cannot create this kind of phylum - unkown operator id\00", align 1
@.str.499 = private unnamed_addr constant [68 x i8] c"Cannot select attribute for this kind of phylum - has no attributes\00", align 1
@_ZN2kcL14kc_indentationB5cxx11E = internal global %"class.std::__cxx11::basic_string" zeroinitializer, align 8
@_ZTVN10__cxxabiv117__class_type_infoE = external global ptr
@_ZTSN2kc20impl_abstract_phylumE = dso_local constant [28 x i8] c"N2kc20impl_abstract_phylumE\00", align 1
@_ZTIN2kc20impl_abstract_phylumE = dso_local constant { ptr, ptr } { ptr getelementptr inbounds (ptr, ptr @_ZTVN10__cxxabiv117__class_type_infoE, i64 2), ptr @_ZTSN2kc20impl_abstract_phylumE }, align 8
@.str.502 = private unnamed_addr constant [3 x i8] c"| \00", align 1
@.str.503 = private unnamed_addr constant [6 x i8] c"%s%p\0A\00", align 1
@.str.504 = private unnamed_addr constant [6 x i8] c"%s%s\0A\00", align 1
@.str.505 = private unnamed_addr constant [6 x i8] c"%s%i\0A\00", align 1
@.str.506 = private unnamed_addr constant [6 x i8] c"%s%f\0A\00", align 1
@.str.507 = private unnamed_addr constant [3 x i8] c"  \00", align 1
@.str.508 = private unnamed_addr constant [3 x i8] c"`-\00", align 1
@.str.509 = private unnamed_addr constant [3 x i8] c"|-\00", align 1
@.str.510 = private unnamed_addr constant [59 x i8] c"Internal Error: list::last was called with argument Nil%s\0A\00", align 1
@.str.511 = private unnamed_addr constant [42 x i8] c"Internal Error: unknown phylum number: %d\00", align 1
@.str.512 = private unnamed_addr constant [44 x i8] c"Internal Error: unknown operator number: %d\00", align 1
@_ZTIN2kc27impl_nocasestring_NoCaseStrE = external constant ptr
@_ZTIN2kc21impl_voidptr__VoidPtrE = external constant ptr
@_ZTIN2kc15impl_real__RealE = external constant ptr
@.str.513 = private unnamed_addr constant [31 x i8] c"unexpected number of sub-phyla\00", align 1
@_ZTVN2kc20impl_abstract_phylumE = dso_local unnamed_addr constant { [13 x ptr] } { [13 x ptr] [ptr null, ptr @_ZTIN2kc20impl_abstract_phylumE, ptr @__cxa_pure_virtual, ptr @_ZNK2kc20impl_abstract_phylum9subphylumEi, ptr @_ZN2kc20impl_abstract_phylum13set_subphylumEiPS0_, ptr @_ZN2kc20impl_abstract_phylum7rewriteERNS_11rview_classE, ptr @_ZN2kc20impl_abstract_phylum10do_rewriteERNS_11rview_classE, ptr @_ZN2kc20impl_abstract_phylum15rewrite_membersEPS0_, ptr @_ZN2kc20impl_abstract_phylum11post_createEv, ptr @_ZN2kc20impl_abstract_phylumD2Ev, ptr @_ZN2kc20impl_abstract_phylumD0Ev, ptr @__cxa_pure_virtual, ptr @_ZN2kc20impl_abstract_phylum15default_unparseERNS_21printer_functor_classERNS_11uview_classE] }, align 8
@_ZTSN2kc32impl_bindingidmark_BindingIdMarkE = dso_local constant [40 x i8] c"N2kc32impl_bindingidmark_BindingIdMarkE\00", align 1
@_ZTIN2kc32impl_bindingidmark_BindingIdMarkE = dso_local constant { ptr, ptr, ptr } { ptr getelementptr inbounds (ptr, ptr @_ZTVN10__cxxabiv120__si_class_type_infoE, i64 2), ptr @_ZTSN2kc32impl_bindingidmark_BindingIdMarkE, ptr @_ZTIN2kc18impl_bindingidmarkE }, align 8
@_ZTSN2kc54impl_countedphylumdeclaration_CountedPhylumdeclarationE = dso_local constant [62 x i8] c"N2kc54impl_countedphylumdeclaration_CountedPhylumdeclarationE\00", align 1
@_ZTIN2kc54impl_countedphylumdeclaration_CountedPhylumdeclarationE = dso_local constant { ptr, ptr, ptr } { ptr getelementptr inbounds (ptr, ptr @_ZTVN10__cxxabiv120__si_class_type_infoE, i64 2), ptr @_ZTSN2kc54impl_countedphylumdeclaration_CountedPhylumdeclarationE, ptr @_ZTIN2kc29impl_countedphylumdeclarationE }, align 8
@_ZTSN2kc50impl_addedphylumdeclaration_AddedPhylumdeclarationE = dso_local constant [58 x i8] c"N2kc50impl_addedphylumdeclaration_AddedPhylumdeclarationE\00", align 1
@_ZTIN2kc50impl_addedphylumdeclaration_AddedPhylumdeclarationE = dso_local constant { ptr, ptr, ptr } { ptr getelementptr inbounds (ptr, ptr @_ZTVN10__cxxabiv120__si_class_type_infoE, i64 2), ptr @_ZTSN2kc50impl_addedphylumdeclaration_AddedPhylumdeclarationE, ptr @_ZTIN2kc27impl_addedphylumdeclarationE }, align 8
@_ZTSN2kc21impl_problem_Problem6E = dso_local constant [29 x i8] c"N2kc21impl_problem_Problem6E\00", align 1
@_ZTIN2kc21impl_problem_Problem6E = dso_local constant { ptr, ptr, ptr } { ptr getelementptr inbounds (ptr, ptr @_ZTVN10__cxxabiv120__si_class_type_infoE, i64 2), ptr @_ZTSN2kc21impl_problem_Problem6E, ptr @_ZTIN2kc12impl_problemE }, align 8
@_ZTSN2kc21impl_problem_Problem5E = dso_local constant [29 x i8] c"N2kc21impl_problem_Problem5E\00", align 1
@_ZTIN2kc21impl_problem_Problem5E = dso_local constant { ptr, ptr, ptr } { ptr getelementptr inbounds (ptr, ptr @_ZTVN10__cxxabiv120__si_class_type_infoE, i64 2), ptr @_ZTSN2kc21impl_problem_Problem5E, ptr @_ZTIN2kc12impl_problemE }, align 8
@_ZTSN2kc21impl_problem_Problem4E = dso_local constant [29 x i8] c"N2kc21impl_problem_Problem4E\00", align 1
@_ZTIN2kc21impl_problem_Problem4E = dso_local constant { ptr, ptr, ptr } { ptr getelementptr inbounds (ptr, ptr @_ZTVN10__cxxabiv120__si_class_type_infoE, i64 2), ptr @_ZTSN2kc21impl_problem_Problem4E, ptr @_ZTIN2kc12impl_problemE }, align 8
@_ZTSN2kc25impl_problem_Problem3int1E = dso_local constant [33 x i8] c"N2kc25impl_problem_Problem3int1E\00", align 1
@_ZTIN2kc25impl_problem_Problem3int1E = dso_local constant { ptr, ptr, ptr } { ptr getelementptr inbounds (ptr, ptr @_ZTVN10__cxxabiv120__si_class_type_infoE, i64 2), ptr @_ZTSN2kc25impl_problem_Problem3int1E, ptr @_ZTIN2kc12impl_problemE }, align 8
@_ZTSN2kc21impl_problem_Problem3E = dso_local constant [29 x i8] c"N2kc21impl_problem_Problem3E\00", align 1
@_ZTIN2kc21impl_problem_Problem3E = dso_local constant { ptr, ptr, ptr } { ptr getelementptr inbounds (ptr, ptr @_ZTVN10__cxxabiv120__si_class_type_infoE, i64 2), ptr @_ZTSN2kc21impl_problem_Problem3E, ptr @_ZTIN2kc12impl_problemE }, align 8
@_ZTSN2kc21impl_problem_Problem2E = dso_local constant [29 x i8] c"N2kc21impl_problem_Problem2E\00", align 1
@_ZTIN2kc21impl_problem_Problem2E = dso_local constant { ptr, ptr, ptr } { ptr getelementptr inbounds (ptr, ptr @_ZTVN10__cxxabiv120__si_class_type_infoE, i64 2), ptr @_ZTSN2kc21impl_problem_Problem2E, ptr @_ZTIN2kc12impl_problemE }, align 8
@_ZTSN2kc37impl_problem_Problem1storageoption1IDE = dso_local constant [45 x i8] c"N2kc37impl_problem_Problem1storageoption1IDE\00", align 1
@_ZTIN2kc37impl_problem_Problem1storageoption1IDE = dso_local constant { ptr, ptr, ptr } { ptr getelementptr inbounds (ptr, ptr @_ZTVN10__cxxabiv120__si_class_type_infoE, i64 2), ptr @_ZTSN2kc37impl_problem_Problem1storageoption1IDE, ptr @_ZTIN2kc12impl_problemE }, align 8
@_ZTSN2kc30impl_problem_Problem1INT1ID1IDE = dso_local constant [38 x i8] c"N2kc30impl_problem_Problem1INT1ID1IDE\00", align 1
@_ZTIN2kc30impl_problem_Problem1INT1ID1IDE = dso_local constant { ptr, ptr, ptr } { ptr getelementptr inbounds (ptr, ptr @_ZTVN10__cxxabiv120__si_class_type_infoE, i64 2), ptr @_ZTSN2kc30impl_problem_Problem1INT1ID1IDE, ptr @_ZTIN2kc12impl_problemE }, align 8
@_ZTSN2kc29impl_problem_Problem1ID1ID1IDE = dso_local constant [37 x i8] c"N2kc29impl_problem_Problem1ID1ID1IDE\00", align 1
@_ZTIN2kc29impl_problem_Problem1ID1ID1IDE = dso_local constant { ptr, ptr, ptr } { ptr getelementptr inbounds (ptr, ptr @_ZTVN10__cxxabiv120__si_class_type_infoE, i64 2), ptr @_ZTSN2kc29impl_problem_Problem1ID1ID1IDE, ptr @_ZTIN2kc12impl_problemE }, align 8
@_ZTSN2kc27impl_problem_Problem1INT1IDE = dso_local constant [35 x i8] c"N2kc27impl_problem_Problem1INT1IDE\00", align 1
@_ZTIN2kc27impl_problem_Problem1INT1IDE = dso_local constant { ptr, ptr, ptr } { ptr getelementptr inbounds (ptr, ptr @_ZTVN10__cxxabiv120__si_class_type_infoE, i64 2), ptr @_ZTSN2kc27impl_problem_Problem1INT1IDE, ptr @_ZTIN2kc12impl_problemE }, align 8
@_ZTSN2kc25impl_problem_Problem1int1E = dso_local constant [33 x i8] c"N2kc25impl_problem_Problem1int1E\00", align 1
@_ZTIN2kc25impl_problem_Problem1int1E = dso_local constant { ptr, ptr, ptr } { ptr getelementptr inbounds (ptr, ptr @_ZTVN10__cxxabiv120__si_class_type_infoE, i64 2), ptr @_ZTSN2kc25impl_problem_Problem1int1E, ptr @_ZTIN2kc12impl_problemE }, align 8
@_ZTSN2kc24impl_problem_Problem1INTE = dso_local constant [32 x i8] c"N2kc24impl_problem_Problem1INTE\00", align 1
@_ZTIN2kc24impl_problem_Problem1INTE = dso_local constant { ptr, ptr, ptr } { ptr getelementptr inbounds (ptr, ptr @_ZTVN10__cxxabiv120__si_class_type_infoE, i64 2), ptr @_ZTSN2kc24impl_problem_Problem1INTE, ptr @_ZTIN2kc12impl_problemE }, align 8
@_ZTSN2kc25impl_problem_Problem1t1IDE = dso_local constant [33 x i8] c"N2kc25impl_problem_Problem1t1IDE\00", align 1
@_ZTIN2kc25impl_problem_Problem1t1IDE = dso_local constant { ptr, ptr, ptr } { ptr getelementptr inbounds (ptr, ptr @_ZTVN10__cxxabiv120__si_class_type_infoE, i64 2), ptr @_ZTSN2kc25impl_problem_Problem1t1IDE, ptr @_ZTIN2kc12impl_problemE }, align 8
@_ZTSN2kc26impl_problem_Problem1ID1IDE = dso_local constant [34 x i8] c"N2kc26impl_problem_Problem1ID1IDE\00", align 1
@_ZTIN2kc26impl_problem_Problem1ID1IDE = dso_local constant { ptr, ptr, ptr } { ptr getelementptr inbounds (ptr, ptr @_ZTVN10__cxxabiv120__si_class_type_infoE, i64 2), ptr @_ZTSN2kc26impl_problem_Problem1ID1IDE, ptr @_ZTIN2kc12impl_problemE }, align 8
@_ZTSN2kc23impl_problem_Problem1weE = dso_local constant [31 x i8] c"N2kc23impl_problem_Problem1weE\00", align 1
@_ZTIN2kc23impl_problem_Problem1weE = dso_local constant { ptr, ptr, ptr } { ptr getelementptr inbounds (ptr, ptr @_ZTVN10__cxxabiv120__si_class_type_infoE, i64 2), ptr @_ZTSN2kc23impl_problem_Problem1weE, ptr @_ZTIN2kc12impl_problemE }, align 8
@_ZTSN2kc24impl_problem_Problem1tIDE = dso_local constant [32 x i8] c"N2kc24impl_problem_Problem1tIDE\00", align 1
@_ZTIN2kc24impl_problem_Problem1tIDE = dso_local constant { ptr, ptr, ptr } { ptr getelementptr inbounds (ptr, ptr @_ZTVN10__cxxabiv120__si_class_type_infoE, i64 2), ptr @_ZTSN2kc24impl_problem_Problem1tIDE, ptr @_ZTIN2kc12impl_problemE }, align 8
@_ZTSN2kc23impl_problem_Problem1IDE = dso_local constant [31 x i8] c"N2kc23impl_problem_Problem1IDE\00", align 1
@_ZTIN2kc23impl_problem_Problem1IDE = dso_local constant { ptr, ptr, ptr } { ptr getelementptr inbounds (ptr, ptr @_ZTVN10__cxxabiv120__si_class_type_infoE, i64 2), ptr @_ZTSN2kc23impl_problem_Problem1IDE, ptr @_ZTIN2kc12impl_problemE }, align 8
@_ZTSN2kc21impl_problem_Problem1E = dso_local constant [29 x i8] c"N2kc21impl_problem_Problem1E\00", align 1
@_ZTIN2kc21impl_problem_Problem1E = dso_local constant { ptr, ptr, ptr } { ptr getelementptr inbounds (ptr, ptr @_ZTVN10__cxxabiv120__si_class_type_infoE, i64 2), ptr @_ZTSN2kc21impl_problem_Problem1E, ptr @_ZTIN2kc12impl_problemE }, align 8
@_ZTSN2kc18impl_error_WarningE = dso_local constant [26 x i8] c"N2kc18impl_error_WarningE\00", align 1
@_ZTSN2kc10impl_errorE = linkonce_odr dso_local constant [18 x i8] c"N2kc10impl_errorE\00", comdat, align 1
@_ZTIN2kc10impl_errorE = linkonce_odr dso_local constant { ptr, ptr, ptr } { ptr getelementptr inbounds (ptr, ptr @_ZTVN10__cxxabiv120__si_class_type_infoE, i64 2), ptr @_ZTSN2kc10impl_errorE, ptr @_ZTIN2kc20impl_abstract_phylumE }, comdat, align 8
@_ZTIN2kc18impl_error_WarningE = dso_local constant { ptr, ptr, ptr } { ptr getelementptr inbounds (ptr, ptr @_ZTVN10__cxxabiv120__si_class_type_infoE, i64 2), ptr @_ZTSN2kc18impl_error_WarningE, ptr @_ZTIN2kc10impl_errorE }, align 8
@_ZTSN2kc19impl_error_NonFatalE = dso_local constant [27 x i8] c"N2kc19impl_error_NonFatalE\00", align 1
@_ZTIN2kc19impl_error_NonFatalE = dso_local constant { ptr, ptr, ptr } { ptr getelementptr inbounds (ptr, ptr @_ZTVN10__cxxabiv120__si_class_type_infoE, i64 2), ptr @_ZTSN2kc19impl_error_NonFatalE, ptr @_ZTIN2kc10impl_errorE }, align 8
@_ZTSN2kc16impl_error_FatalE = dso_local constant [24 x i8] c"N2kc16impl_error_FatalE\00", align 1
@_ZTIN2kc16impl_error_FatalE = dso_local constant { ptr, ptr, ptr } { ptr getelementptr inbounds (ptr, ptr @_ZTVN10__cxxabiv120__si_class_type_infoE, i64 2), ptr @_ZTSN2kc16impl_error_FatalE, ptr @_ZTIN2kc10impl_errorE }, align 8
@_ZTSN2kc33impl_baseclass_decl_BaseClassDeclE = dso_local constant [41 x i8] c"N2kc33impl_baseclass_decl_BaseClassDeclE\00", align 1
@_ZTIN2kc33impl_baseclass_decl_BaseClassDeclE = dso_local constant { ptr, ptr, ptr } { ptr getelementptr inbounds (ptr, ptr @_ZTVN10__cxxabiv120__si_class_type_infoE, i64 2), ptr @_ZTSN2kc33impl_baseclass_decl_BaseClassDeclE, ptr @_ZTIN2kc19impl_baseclass_declE }, align 8
@_ZTSN2kc28impl_ac_base_init_AcBaseInitE = dso_local constant [36 x i8] c"N2kc28impl_ac_base_init_AcBaseInitE\00", align 1
@_ZTIN2kc28impl_ac_base_init_AcBaseInitE = dso_local constant { ptr, ptr, ptr } { ptr getelementptr inbounds (ptr, ptr @_ZTVN10__cxxabiv120__si_class_type_infoE, i64 2), ptr @_ZTSN2kc28impl_ac_base_init_AcBaseInitE, ptr @_ZTIN2kc17impl_ac_base_initE }, align 8
@_ZTSN2kc40impl_ac_opt_base_init_list_AcYesBaseInitE = dso_local constant [48 x i8] c"N2kc40impl_ac_opt_base_init_list_AcYesBaseInitE\00", align 1
@_ZTIN2kc40impl_ac_opt_base_init_list_AcYesBaseInitE = dso_local constant { ptr, ptr, ptr } { ptr getelementptr inbounds (ptr, ptr @_ZTVN10__cxxabiv120__si_class_type_infoE, i64 2), ptr @_ZTSN2kc40impl_ac_opt_base_init_list_AcYesBaseInitE, ptr @_ZTIN2kc26impl_ac_opt_base_init_listE }, align 8
@_ZTSN2kc39impl_ac_constant_expression_AcConstExprE = dso_local constant [47 x i8] c"N2kc39impl_ac_constant_expression_AcConstExprE\00", align 1
@_ZTIN2kc39impl_ac_constant_expression_AcConstExprE = dso_local constant { ptr, ptr, ptr } { ptr getelementptr inbounds (ptr, ptr @_ZTVN10__cxxabiv120__si_class_type_infoE, i64 2), ptr @_ZTSN2kc39impl_ac_constant_expression_AcConstExprE, ptr @_ZTIN2kc27impl_ac_constant_expressionE }, align 8
@_ZTSN2kc60impl_ac_constant_expression_option_Yesac_constant_expressionE = dso_local constant [68 x i8] c"N2kc60impl_ac_constant_expression_option_Yesac_constant_expressionE\00", align 1
@_ZTIN2kc60impl_ac_constant_expression_option_Yesac_constant_expressionE = dso_local constant { ptr, ptr, ptr } { ptr getelementptr inbounds (ptr, ptr @_ZTVN10__cxxabiv120__si_class_type_infoE, i64 2), ptr @_ZTSN2kc60impl_ac_constant_expression_option_Yesac_constant_expressionE, ptr @_ZTIN2kc34impl_ac_constant_expression_optionE }, align 8
@_ZTSN2kc49impl_ac_direct_abstract_declarator_AcDirAbsdeclFnE = dso_local constant [57 x i8] c"N2kc49impl_ac_direct_abstract_declarator_AcDirAbsdeclFnE\00", align 1
@_ZTIN2kc49impl_ac_direct_abstract_declarator_AcDirAbsdeclFnE = dso_local constant { ptr, ptr, ptr } { ptr getelementptr inbounds (ptr, ptr @_ZTVN10__cxxabiv120__si_class_type_infoE, i64 2), ptr @_ZTSN2kc49impl_ac_direct_abstract_declarator_AcDirAbsdeclFnE, ptr @_ZTIN2kc34impl_ac_direct_abstract_declaratorE }, align 8
@_ZTSN2kc52impl_ac_direct_abstract_declarator_AcDirAbsdeclArrayE = dso_local constant [60 x i8] c"N2kc52impl_ac_direct_abstract_declarator_AcDirAbsdeclArrayE\00", align 1
@_ZTIN2kc52impl_ac_direct_abstract_declarator_AcDirAbsdeclArrayE = dso_local constant { ptr, ptr, ptr } { ptr getelementptr inbounds (ptr, ptr @_ZTVN10__cxxabiv120__si_class_type_infoE, i64 2), ptr @_ZTSN2kc52impl_ac_direct_abstract_declarator_AcDirAbsdeclArrayE, ptr @_ZTIN2kc34impl_ac_direct_abstract_declaratorE }, align 8
@_ZTSN2kc51impl_ac_direct_abstract_declarator_AcDirAbsdeclPackE = dso_local constant [59 x i8] c"N2kc51impl_ac_direct_abstract_declarator_AcDirAbsdeclPackE\00", align 1
@_ZTIN2kc51impl_ac_direct_abstract_declarator_AcDirAbsdeclPackE = dso_local constant { ptr, ptr, ptr } { ptr getelementptr inbounds (ptr, ptr @_ZTVN10__cxxabiv120__si_class_type_infoE, i64 2), ptr @_ZTSN2kc51impl_ac_direct_abstract_declarator_AcDirAbsdeclPackE, ptr @_ZTIN2kc34impl_ac_direct_abstract_declaratorE }, align 8
@_ZTSN2kc74impl_ac_direct_abstract_declarator_option_Yesac_direct_abstract_declaratorE = dso_local constant [82 x i8] c"N2kc74impl_ac_direct_abstract_declarator_option_Yesac_direct_abstract_declaratorE\00", align 1
@_ZTIN2kc74impl_ac_direct_abstract_declarator_option_Yesac_direct_abstract_declaratorE = dso_local constant { ptr, ptr, ptr } { ptr getelementptr inbounds (ptr, ptr @_ZTVN10__cxxabiv120__si_class_type_infoE, i64 2), ptr @_ZTSN2kc74impl_ac_direct_abstract_declarator_option_Yesac_direct_abstract_declaratorE, ptr @_ZTIN2kc41impl_ac_direct_abstract_declarator_optionE }, align 8
@_ZTSN2kc44impl_ac_abstract_declarator_AcAbsdeclDirdeclE = dso_local constant [52 x i8] c"N2kc44impl_ac_abstract_declarator_AcAbsdeclDirdeclE\00", align 1
@_ZTIN2kc44impl_ac_abstract_declarator_AcAbsdeclDirdeclE = dso_local constant { ptr, ptr, ptr } { ptr getelementptr inbounds (ptr, ptr @_ZTVN10__cxxabiv120__si_class_type_infoE, i64 2), ptr @_ZTSN2kc44impl_ac_abstract_declarator_AcAbsdeclDirdeclE, ptr @_ZTIN2kc27impl_ac_abstract_declaratorE }, align 8
@_ZTSN2kc44impl_ac_abstract_declarator_AcAbsdeclPointerE = dso_local constant [52 x i8] c"N2kc44impl_ac_abstract_declarator_AcAbsdeclPointerE\00", align 1
@_ZTIN2kc44impl_ac_abstract_declarator_AcAbsdeclPointerE = dso_local constant { ptr, ptr, ptr } { ptr getelementptr inbounds (ptr, ptr @_ZTVN10__cxxabiv120__si_class_type_infoE, i64 2), ptr @_ZTSN2kc44impl_ac_abstract_declarator_AcAbsdeclPointerE, ptr @_ZTIN2kc27impl_ac_abstract_declaratorE }, align 8
@_ZTSN2kc46impl_ac_parameter_declaration_AcParDeclAbsdeclE = dso_local constant [54 x i8] c"N2kc46impl_ac_parameter_declaration_AcParDeclAbsdeclE\00", align 1
@_ZTIN2kc46impl_ac_parameter_declaration_AcParDeclAbsdeclE = dso_local constant { ptr, ptr, ptr } { ptr getelementptr inbounds (ptr, ptr @_ZTVN10__cxxabiv120__si_class_type_infoE, i64 2), ptr @_ZTSN2kc46impl_ac_parameter_declaration_AcParDeclAbsdeclE, ptr @_ZTIN2kc29impl_ac_parameter_declarationE }, align 8
@_ZTSN2kc43impl_ac_parameter_declaration_AcParDeclDeclE = dso_local constant [51 x i8] c"N2kc43impl_ac_parameter_declaration_AcParDeclDeclE\00", align 1
@_ZTIN2kc43impl_ac_parameter_declaration_AcParDeclDeclE = dso_local constant { ptr, ptr, ptr } { ptr getelementptr inbounds (ptr, ptr @_ZTVN10__cxxabiv120__si_class_type_infoE, i64 2), ptr @_ZTSN2kc43impl_ac_parameter_declaration_AcParDeclDeclE, ptr @_ZTIN2kc29impl_ac_parameter_declarationE }, align 8
@_ZTSN2kc41impl_ac_parameter_type_list_AcParList3DotE = dso_local constant [49 x i8] c"N2kc41impl_ac_parameter_type_list_AcParList3DotE\00", align 1
@_ZTIN2kc41impl_ac_parameter_type_list_AcParList3DotE = dso_local constant { ptr, ptr, ptr } { ptr getelementptr inbounds (ptr, ptr @_ZTVN10__cxxabiv120__si_class_type_infoE, i64 2), ptr @_ZTSN2kc41impl_ac_parameter_type_list_AcParList3DotE, ptr @_ZTIN2kc27impl_ac_parameter_type_listE }, align 8
@_ZTSN2kc37impl_ac_parameter_type_list_AcParListE = dso_local constant [45 x i8] c"N2kc37impl_ac_parameter_type_list_AcParListE\00", align 1
@_ZTIN2kc37impl_ac_parameter_type_list_AcParListE = dso_local constant { ptr, ptr, ptr } { ptr getelementptr inbounds (ptr, ptr @_ZTVN10__cxxabiv120__si_class_type_infoE, i64 2), ptr @_ZTSN2kc37impl_ac_parameter_type_list_AcParListE, ptr @_ZTIN2kc27impl_ac_parameter_type_listE }, align 8
@_ZTSN2kc36impl_ac_operator_name_AcOperatorNameE = dso_local constant [44 x i8] c"N2kc36impl_ac_operator_name_AcOperatorNameE\00", align 1
@_ZTIN2kc36impl_ac_operator_name_AcOperatorNameE = dso_local constant { ptr, ptr, ptr } { ptr getelementptr inbounds (ptr, ptr @_ZTVN10__cxxabiv120__si_class_type_infoE, i64 2), ptr @_ZTSN2kc36impl_ac_operator_name_AcOperatorNameE, ptr @_ZTIN2kc21impl_ac_operator_nameE }, align 8
@_ZTSN2kc29impl_ac_pointer_AcPointerConsE = dso_local constant [37 x i8] c"N2kc29impl_ac_pointer_AcPointerConsE\00", align 1
@_ZTIN2kc29impl_ac_pointer_AcPointerConsE = dso_local constant { ptr, ptr, ptr } { ptr getelementptr inbounds (ptr, ptr @_ZTVN10__cxxabiv120__si_class_type_infoE, i64 2), ptr @_ZTSN2kc29impl_ac_pointer_AcPointerConsE, ptr @_ZTIN2kc15impl_ac_pointerE }, align 8
@_ZTSN2kc28impl_ac_pointer_AcPointerNilE = dso_local constant [36 x i8] c"N2kc28impl_ac_pointer_AcPointerNilE\00", align 1
@_ZTIN2kc28impl_ac_pointer_AcPointerNilE = dso_local constant { ptr, ptr, ptr } { ptr getelementptr inbounds (ptr, ptr @_ZTVN10__cxxabiv120__si_class_type_infoE, i64 2), ptr @_ZTSN2kc28impl_ac_pointer_AcPointerNilE, ptr @_ZTIN2kc15impl_ac_pointerE }, align 8
@_ZTSN2kc33impl_ac_pointer_option_YespointerE = dso_local constant [41 x i8] c"N2kc33impl_ac_pointer_option_YespointerE\00", align 1
@_ZTIN2kc33impl_ac_pointer_option_YespointerE = dso_local constant { ptr, ptr, ptr } { ptr getelementptr inbounds (ptr, ptr @_ZTVN10__cxxabiv120__si_class_type_infoE, i64 2), ptr @_ZTSN2kc33impl_ac_pointer_option_YespointerE, ptr @_ZTIN2kc22impl_ac_pointer_optionE }, align 8
@_ZTSN2kc42impl_ac_direct_declarator_AcOperatorDeclIdE = dso_local constant [50 x i8] c"N2kc42impl_ac_direct_declarator_AcOperatorDeclIdE\00", align 1
@_ZTIN2kc42impl_ac_direct_declarator_AcOperatorDeclIdE = dso_local constant { ptr, ptr, ptr } { ptr getelementptr inbounds (ptr, ptr @_ZTVN10__cxxabiv120__si_class_type_infoE, i64 2), ptr @_ZTSN2kc42impl_ac_direct_declarator_AcOperatorDeclIdE, ptr @_ZTIN2kc25impl_ac_direct_declaratorE }, align 8
@_ZTSN2kc44impl_ac_direct_declarator_AcConvOperatorDeclE = dso_local constant [52 x i8] c"N2kc44impl_ac_direct_declarator_AcConvOperatorDeclE\00", align 1
@_ZTIN2kc44impl_ac_direct_declarator_AcConvOperatorDeclE = dso_local constant { ptr, ptr, ptr } { ptr getelementptr inbounds (ptr, ptr @_ZTVN10__cxxabiv120__si_class_type_infoE, i64 2), ptr @_ZTSN2kc44impl_ac_direct_declarator_AcConvOperatorDeclE, ptr @_ZTIN2kc25impl_ac_direct_declaratorE }, align 8
@_ZTSN2kc38impl_ac_direct_declarator_AcMemberDeclE = dso_local constant [46 x i8] c"N2kc38impl_ac_direct_declarator_AcMemberDeclE\00", align 1
@_ZTIN2kc38impl_ac_direct_declarator_AcMemberDeclE = dso_local constant { ptr, ptr, ptr } { ptr getelementptr inbounds (ptr, ptr @_ZTVN10__cxxabiv120__si_class_type_infoE, i64 2), ptr @_ZTSN2kc38impl_ac_direct_declarator_AcMemberDeclE, ptr @_ZTIN2kc25impl_ac_direct_declaratorE }, align 8
@_ZTSN2kc46impl_ac_direct_declarator_AcQualifiedDeclProtoE = dso_local constant [54 x i8] c"N2kc46impl_ac_direct_declarator_AcQualifiedDeclProtoE\00", align 1
@_ZTIN2kc46impl_ac_direct_declarator_AcQualifiedDeclProtoE = dso_local constant { ptr, ptr, ptr } { ptr getelementptr inbounds (ptr, ptr @_ZTVN10__cxxabiv120__si_class_type_infoE, i64 2), ptr @_ZTSN2kc46impl_ac_direct_declarator_AcQualifiedDeclProtoE, ptr @_ZTIN2kc25impl_ac_direct_declaratorE }, align 8
@_ZTSN2kc43impl_ac_direct_declarator_AcDirectDeclProtoE = dso_local constant [51 x i8] c"N2kc43impl_ac_direct_declarator_AcDirectDeclProtoE\00", align 1
@_ZTIN2kc43impl_ac_direct_declarator_AcDirectDeclProtoE = dso_local constant { ptr, ptr, ptr } { ptr getelementptr inbounds (ptr, ptr @_ZTVN10__cxxabiv120__si_class_type_infoE, i64 2), ptr @_ZTSN2kc43impl_ac_direct_declarator_AcDirectDeclProtoE, ptr @_ZTIN2kc25impl_ac_direct_declaratorE }, align 8
@_ZTSN2kc43impl_ac_direct_declarator_AcDirectDeclArrayE = dso_local constant [51 x i8] c"N2kc43impl_ac_direct_declarator_AcDirectDeclArrayE\00", align 1
@_ZTIN2kc43impl_ac_direct_declarator_AcDirectDeclArrayE = dso_local constant { ptr, ptr, ptr } { ptr getelementptr inbounds (ptr, ptr @_ZTVN10__cxxabiv120__si_class_type_infoE, i64 2), ptr @_ZTSN2kc43impl_ac_direct_declarator_AcDirectDeclArrayE, ptr @_ZTIN2kc25impl_ac_direct_declaratorE }, align 8
@_ZTSN2kc42impl_ac_direct_declarator_AcDirectDeclPackE = dso_local constant [50 x i8] c"N2kc42impl_ac_direct_declarator_AcDirectDeclPackE\00", align 1
@_ZTIN2kc42impl_ac_direct_declarator_AcDirectDeclPackE = dso_local constant { ptr, ptr, ptr } { ptr getelementptr inbounds (ptr, ptr @_ZTVN10__cxxabiv120__si_class_type_infoE, i64 2), ptr @_ZTSN2kc42impl_ac_direct_declarator_AcDirectDeclPackE, ptr @_ZTIN2kc25impl_ac_direct_declaratorE }, align 8
@_ZTSN2kc40impl_ac_direct_declarator_AcDirectDeclIdE = dso_local constant [48 x i8] c"N2kc40impl_ac_direct_declarator_AcDirectDeclIdE\00", align 1
@_ZTIN2kc40impl_ac_direct_declarator_AcDirectDeclIdE = dso_local constant { ptr, ptr, ptr } { ptr getelementptr inbounds (ptr, ptr @_ZTVN10__cxxabiv120__si_class_type_infoE, i64 2), ptr @_ZTSN2kc40impl_ac_direct_declarator_AcDirectDeclIdE, ptr @_ZTIN2kc25impl_ac_direct_declaratorE }, align 8
@_ZTSN2kc31impl_ac_declarator_AcDeclaratorE = dso_local constant [39 x i8] c"N2kc31impl_ac_declarator_AcDeclaratorE\00", align 1
@_ZTIN2kc31impl_ac_declarator_AcDeclaratorE = dso_local constant { ptr, ptr, ptr } { ptr getelementptr inbounds (ptr, ptr @_ZTVN10__cxxabiv120__si_class_type_infoE, i64 2), ptr @_ZTSN2kc31impl_ac_declarator_AcDeclaratorE, ptr @_ZTIN2kc18impl_ac_declaratorE }, align 8
@_ZTSN2kc34impl_ac_init_declarator_AcInitDeclE = dso_local constant [42 x i8] c"N2kc34impl_ac_init_declarator_AcInitDeclE\00", align 1
@_ZTIN2kc34impl_ac_init_declarator_AcInitDeclE = dso_local constant { ptr, ptr, ptr } { ptr getelementptr inbounds (ptr, ptr @_ZTVN10__cxxabiv120__si_class_type_infoE, i64 2), ptr @_ZTSN2kc34impl_ac_init_declarator_AcInitDeclE, ptr @_ZTIN2kc23impl_ac_init_declaratorE }, align 8
@_ZTSN2kc33impl_ac_type_specifier_AcTypeSpecE = dso_local constant [41 x i8] c"N2kc33impl_ac_type_specifier_AcTypeSpecE\00", align 1
@_ZTIN2kc33impl_ac_type_specifier_AcTypeSpecE = dso_local constant { ptr, ptr, ptr } { ptr getelementptr inbounds (ptr, ptr @_ZTVN10__cxxabiv120__si_class_type_infoE, i64 2), ptr @_ZTSN2kc33impl_ac_type_specifier_AcTypeSpecE, ptr @_ZTIN2kc22impl_ac_type_specifierE }, align 8
@_ZTSN2kc48impl_ac_declaration_specifier_AcDeclSpecTypeQualE = dso_local constant [56 x i8] c"N2kc48impl_ac_declaration_specifier_AcDeclSpecTypeQualE\00", align 1
@_ZTIN2kc48impl_ac_declaration_specifier_AcDeclSpecTypeQualE = dso_local constant { ptr, ptr, ptr } { ptr getelementptr inbounds (ptr, ptr @_ZTVN10__cxxabiv120__si_class_type_infoE, i64 2), ptr @_ZTSN2kc48impl_ac_declaration_specifier_AcDeclSpecTypeQualE, ptr @_ZTIN2kc29impl_ac_declaration_specifierE }, align 8
@_ZTSN2kc48impl_ac_declaration_specifier_AcDeclSpecTypeSpecE = dso_local constant [56 x i8] c"N2kc48impl_ac_declaration_specifier_AcDeclSpecTypeSpecE\00", align 1
@_ZTIN2kc48impl_ac_declaration_specifier_AcDeclSpecTypeSpecE = dso_local constant { ptr, ptr, ptr } { ptr getelementptr inbounds (ptr, ptr @_ZTVN10__cxxabiv120__si_class_type_infoE, i64 2), ptr @_ZTSN2kc48impl_ac_declaration_specifier_AcDeclSpecTypeSpecE, ptr @_ZTIN2kc29impl_ac_declaration_specifierE }, align 8
@_ZTSN2kc51impl_ac_declaration_specifier_AcDeclSpecStorageSpecE = dso_local constant [59 x i8] c"N2kc51impl_ac_declaration_specifier_AcDeclSpecStorageSpecE\00", align 1
@_ZTIN2kc51impl_ac_declaration_specifier_AcDeclSpecStorageSpecE = dso_local constant { ptr, ptr, ptr } { ptr getelementptr inbounds (ptr, ptr @_ZTVN10__cxxabiv120__si_class_type_infoE, i64 2), ptr @_ZTSN2kc51impl_ac_declaration_specifier_AcDeclSpecStorageSpecE, ptr @_ZTIN2kc29impl_ac_declaration_specifierE }, align 8
@_ZTSN2kc33impl_ac_declaration_AcDeclarationE = dso_local constant [41 x i8] c"N2kc33impl_ac_declaration_AcDeclarationE\00", align 1
@_ZTIN2kc33impl_ac_declaration_AcDeclarationE = dso_local constant { ptr, ptr, ptr } { ptr getelementptr inbounds (ptr, ptr @_ZTVN10__cxxabiv120__si_class_type_infoE, i64 2), ptr @_ZTSN2kc33impl_ac_declaration_AcDeclarationE, ptr @_ZTIN2kc19impl_ac_declarationE }, align 8
@_ZTSN2kc36impl_unparsedeclinfo_UnparsedeclinfoE = dso_local constant [44 x i8] c"N2kc36impl_unparsedeclinfo_UnparsedeclinfoE\00", align 1
@_ZTIN2kc36impl_unparsedeclinfo_UnparsedeclinfoE = dso_local constant { ptr, ptr, ptr } { ptr getelementptr inbounds (ptr, ptr @_ZTVN10__cxxabiv120__si_class_type_infoE, i64 2), ptr @_ZTSN2kc36impl_unparsedeclinfo_UnparsedeclinfoE, ptr @_ZTIN2kc20impl_unparsedeclinfoE }, align 8
@_ZTSN2kc36impl_unparseviewinfo_UnparseviewinfoE = dso_local constant [44 x i8] c"N2kc36impl_unparseviewinfo_UnparseviewinfoE\00", align 1
@_ZTIN2kc36impl_unparseviewinfo_UnparseviewinfoE = dso_local constant { ptr, ptr, ptr } { ptr getelementptr inbounds (ptr, ptr @_ZTVN10__cxxabiv120__si_class_type_infoE, i64 2), ptr @_ZTSN2kc36impl_unparseviewinfo_UnparseviewinfoE, ptr @_ZTIN2kc20impl_unparseviewinfoE }, align 8
@_ZTSN2kc36impl_rewriteviewinfo_RewriteviewinfoE = dso_local constant [44 x i8] c"N2kc36impl_rewriteviewinfo_RewriteviewinfoE\00", align 1
@_ZTIN2kc36impl_rewriteviewinfo_RewriteviewinfoE = dso_local constant { ptr, ptr, ptr } { ptr getelementptr inbounds (ptr, ptr @_ZTVN10__cxxabiv120__si_class_type_infoE, i64 2), ptr @_ZTSN2kc36impl_rewriteviewinfo_RewriteviewinfoE, ptr @_ZTIN2kc20impl_rewriteviewinfoE }, align 8
@_ZTSN2kc30impl_withcaseinfo_WithcaseinfoE = dso_local constant [38 x i8] c"N2kc30impl_withcaseinfo_WithcaseinfoE\00", align 1
@_ZTIN2kc30impl_withcaseinfo_WithcaseinfoE = dso_local constant { ptr, ptr, ptr } { ptr getelementptr inbounds (ptr, ptr @_ZTVN10__cxxabiv120__si_class_type_infoE, i64 2), ptr @_ZTSN2kc30impl_withcaseinfo_WithcaseinfoE, ptr @_ZTIN2kc17impl_withcaseinfoE }, align 8
@_ZTSN2kc36impl_rewriteruleinfo_RewriteruleinfoE = dso_local constant [44 x i8] c"N2kc36impl_rewriteruleinfo_RewriteruleinfoE\00", align 1
@_ZTIN2kc36impl_rewriteruleinfo_RewriteruleinfoE = dso_local constant { ptr, ptr, ptr } { ptr getelementptr inbounds (ptr, ptr @_ZTVN10__cxxabiv120__si_class_type_infoE, i64 2), ptr @_ZTSN2kc36impl_rewriteruleinfo_RewriteruleinfoE, ptr @_ZTIN2kc20impl_rewriteruleinfoE }, align 8
@_ZTSN2kc44impl_elem_patternrepresentation_PRIntLiteralE = dso_local constant [52 x i8] c"N2kc44impl_elem_patternrepresentation_PRIntLiteralE\00", align 1
@_ZTIN2kc44impl_elem_patternrepresentation_PRIntLiteralE = dso_local constant { ptr, ptr, ptr } { ptr getelementptr inbounds (ptr, ptr @_ZTVN10__cxxabiv120__si_class_type_infoE, i64 2), ptr @_ZTSN2kc44impl_elem_patternrepresentation_PRIntLiteralE, ptr @_ZTIN2kc31impl_elem_patternrepresentationE }, align 8
@_ZTSN2kc47impl_elem_patternrepresentation_PRStringLiteralE = dso_local constant [55 x i8] c"N2kc47impl_elem_patternrepresentation_PRStringLiteralE\00", align 1
@_ZTIN2kc47impl_elem_patternrepresentation_PRStringLiteralE = dso_local constant { ptr, ptr, ptr } { ptr getelementptr inbounds (ptr, ptr @_ZTVN10__cxxabiv120__si_class_type_infoE, i64 2), ptr @_ZTSN2kc47impl_elem_patternrepresentation_PRStringLiteralE, ptr @_ZTIN2kc31impl_elem_patternrepresentationE }, align 8
@_ZTSN2kc42impl_elem_patternrepresentation_PRWildcardE = dso_local constant [50 x i8] c"N2kc42impl_elem_patternrepresentation_PRWildcardE\00", align 1
@_ZTIN2kc42impl_elem_patternrepresentation_PRWildcardE = dso_local constant { ptr, ptr, ptr } { ptr getelementptr inbounds (ptr, ptr @_ZTVN10__cxxabiv120__si_class_type_infoE, i64 2), ptr @_ZTSN2kc42impl_elem_patternrepresentation_PRWildcardE, ptr @_ZTIN2kc31impl_elem_patternrepresentationE }, align 8
@_ZTSN2kc48impl_elem_patternrepresentation_PRNonLeafBindingE = dso_local constant [56 x i8] c"N2kc48impl_elem_patternrepresentation_PRNonLeafBindingE\00", align 1
@_ZTIN2kc48impl_elem_patternrepresentation_PRNonLeafBindingE = dso_local constant { ptr, ptr, ptr } { ptr getelementptr inbounds (ptr, ptr @_ZTVN10__cxxabiv120__si_class_type_infoE, i64 2), ptr @_ZTSN2kc48impl_elem_patternrepresentation_PRNonLeafBindingE, ptr @_ZTIN2kc31impl_elem_patternrepresentationE }, align 8
@_ZTSN2kc47impl_elem_patternrepresentation_PRUserPredicateE = dso_local constant [55 x i8] c"N2kc47impl_elem_patternrepresentation_PRUserPredicateE\00", align 1
@_ZTIN2kc47impl_elem_patternrepresentation_PRUserPredicateE = dso_local constant { ptr, ptr, ptr } { ptr getelementptr inbounds (ptr, ptr @_ZTVN10__cxxabiv120__si_class_type_infoE, i64 2), ptr @_ZTSN2kc47impl_elem_patternrepresentation_PRUserPredicateE, ptr @_ZTIN2kc31impl_elem_patternrepresentationE }, align 8
@_ZTSN2kc47impl_elem_patternrepresentation_PROperPredicateE = dso_local constant [55 x i8] c"N2kc47impl_elem_patternrepresentation_PROperPredicateE\00", align 1
@_ZTIN2kc47impl_elem_patternrepresentation_PROperPredicateE = dso_local constant { ptr, ptr, ptr } { ptr getelementptr inbounds (ptr, ptr @_ZTVN10__cxxabiv120__si_class_type_infoE, i64 2), ptr @_ZTSN2kc47impl_elem_patternrepresentation_PROperPredicateE, ptr @_ZTIN2kc31impl_elem_patternrepresentationE }, align 8
@_ZTSN2kc46impl_elem_patternrepresentation_PRVarPredicateE = dso_local constant [54 x i8] c"N2kc46impl_elem_patternrepresentation_PRVarPredicateE\00", align 1
@_ZTIN2kc46impl_elem_patternrepresentation_PRVarPredicateE = dso_local constant { ptr, ptr, ptr } { ptr getelementptr inbounds (ptr, ptr @_ZTVN10__cxxabiv120__si_class_type_infoE, i64 2), ptr @_ZTSN2kc46impl_elem_patternrepresentation_PRVarPredicateE, ptr @_ZTIN2kc31impl_elem_patternrepresentationE }, align 8
@_ZTSN2kc41impl_elem_patternrepresentation_PRBindingE = dso_local constant [49 x i8] c"N2kc41impl_elem_patternrepresentation_PRBindingE\00", align 1
@_ZTIN2kc41impl_elem_patternrepresentation_PRBindingE = dso_local constant { ptr, ptr, ptr } { ptr getelementptr inbounds (ptr, ptr @_ZTVN10__cxxabiv120__si_class_type_infoE, i64 2), ptr @_ZTSN2kc41impl_elem_patternrepresentation_PRBindingE, ptr @_ZTIN2kc31impl_elem_patternrepresentationE }, align 8
