; ModuleID = '/usr/local/google/home/aeubanks/repos/test-suite/MicroBenchmarks/LoopVectorization/VectorOperations.cpp'
source_filename = "/usr/local/google/home/aeubanks/repos/test-suite/MicroBenchmarks/LoopVectorization/VectorOperations.cpp"
target datalayout = "e-m:e-p270:32:32-p271:32:32-p272:64:64-i64:64-f80:128-n8:16:32:64-S128"
target triple = "x86_64-unknown-linux-gnu"

%"class.std::ios_base::Init" = type { i8 }
%"class.std::mersenne_twister_engine" = type { [624 x i64], i64 }
%"class.std::basic_ostream" = type { ptr, %"class.std::basic_ios" }
%"class.std::basic_ios" = type { %"class.std::ios_base", ptr, i8, i8, ptr, ptr, ptr, ptr }
%"class.std::ios_base" = type { ptr, i64, i64, i32, i32, i32, ptr, %"struct.std::ios_base::_Words", [8 x %"struct.std::ios_base::_Words"], i32, ptr, %"class.std::locale" }
%"struct.std::ios_base::_Words" = type { ptr, i64 }
%"class.std::locale" = type { ptr }
%"class.std::uniform_int_distribution" = type { %"struct.std::uniform_int_distribution<unsigned short>::param_type" }
%"struct.std::uniform_int_distribution<unsigned short>::param_type" = type { i16, i16 }
%"class.std::unique_ptr.33" = type { %"struct.std::__uniq_ptr_data.34" }
%"struct.std::__uniq_ptr_data.34" = type { %"class.std::__uniq_ptr_impl.35" }
%"class.std::__uniq_ptr_impl.35" = type { %"class.std::tuple.36" }
%"class.std::tuple.36" = type { %"struct.std::_Tuple_impl.37" }
%"struct.std::_Tuple_impl.37" = type { %"struct.std::_Head_base.40" }
%"struct.std::_Head_base.40" = type { ptr }
%"class.benchmark::State" = type { i64, i64, i64, i8, i8, i8, %"class.std::vector", i64, %"class.std::map", i32, i32, ptr, ptr, ptr }
%"class.std::vector" = type { %"struct.std::_Vector_base" }
%"struct.std::_Vector_base" = type { %"struct.std::_Vector_base<long, std::allocator<long>>::_Vector_impl" }
%"struct.std::_Vector_base<long, std::allocator<long>>::_Vector_impl" = type { %"struct.std::_Vector_base<long, std::allocator<long>>::_Vector_impl_data" }
%"struct.std::_Vector_base<long, std::allocator<long>>::_Vector_impl_data" = type { ptr, ptr, ptr }
%"class.std::map" = type { %"class.std::_Rb_tree" }
%"class.std::_Rb_tree" = type { %"struct.std::_Rb_tree<std::__cxx11::basic_string<char>, std::pair<const std::__cxx11::basic_string<char>, benchmark::Counter>, std::_Select1st<std::pair<const std::__cxx11::basic_string<char>, benchmark::Counter>>, std::less<std::__cxx11::basic_string<char>>>::_Rb_tree_impl" }
%"struct.std::_Rb_tree<std::__cxx11::basic_string<char>, std::pair<const std::__cxx11::basic_string<char>, benchmark::Counter>, std::_Select1st<std::pair<const std::__cxx11::basic_string<char>, benchmark::Counter>>, std::less<std::__cxx11::basic_string<char>>>::_Rb_tree_impl" = type { %"struct.std::_Rb_tree_key_compare", %"struct.std::_Rb_tree_header" }
%"struct.std::_Rb_tree_key_compare" = type { %"struct.std::less" }
%"struct.std::less" = type { i8 }
%"struct.std::_Rb_tree_header" = type { %"struct.std::_Rb_tree_node_base", i64 }
%"struct.std::_Rb_tree_node_base" = type { i32, ptr, ptr, ptr }
%"class.std::uniform_int_distribution.43" = type { %"struct.std::uniform_int_distribution<unsigned char>::param_type" }
%"struct.std::uniform_int_distribution<unsigned char>::param_type" = type { i8, i8 }
%"class.std::uniform_int_distribution.54" = type { %"struct.std::uniform_int_distribution<unsigned int>::param_type" }
%"struct.std::uniform_int_distribution<unsigned int>::param_type" = type { i32, i32 }
%"class.std::uniform_int_distribution.65" = type { %"struct.std::uniform_int_distribution<unsigned long>::param_type" }
%"struct.std::uniform_int_distribution<unsigned long>::param_type" = type { i64, i64 }
%"class.std::unique_ptr" = type { %"struct.std::__uniq_ptr_data" }
%"struct.std::__uniq_ptr_data" = type { %"class.std::__uniq_ptr_impl" }
%"class.std::__uniq_ptr_impl" = type { %"class.std::tuple" }
%"class.std::tuple" = type { %"struct.std::_Tuple_impl" }
%"struct.std::_Tuple_impl" = type { %"struct.std::_Head_base.32" }
%"struct.std::_Head_base.32" = type { ptr }
%"class.std::unique_ptr.44" = type { %"struct.std::__uniq_ptr_data.45" }
%"struct.std::__uniq_ptr_data.45" = type { %"class.std::__uniq_ptr_impl.46" }
%"class.std::__uniq_ptr_impl.46" = type { %"class.std::tuple.47" }
%"class.std::tuple.47" = type { %"struct.std::_Tuple_impl.48" }
%"struct.std::_Tuple_impl.48" = type { %"struct.std::_Head_base.51" }
%"struct.std::_Head_base.51" = type { ptr }
%"class.std::unique_ptr.55" = type { %"struct.std::__uniq_ptr_data.56" }
%"struct.std::__uniq_ptr_data.56" = type { %"class.std::__uniq_ptr_impl.57" }
%"class.std::__uniq_ptr_impl.57" = type { %"class.std::tuple.58" }
%"class.std::tuple.58" = type { %"struct.std::_Tuple_impl.59" }
%"struct.std::_Tuple_impl.59" = type { %"struct.std::_Head_base.62" }
%"struct.std::_Head_base.62" = type { ptr }
%"class.benchmark::internal::FunctionBenchmark" = type { %"class.benchmark::internal::Benchmark", ptr }
%"class.benchmark::internal::Benchmark" = type { ptr, %"class.std::__cxx11::basic_string", i32, %"class.std::vector.6", %"class.std::vector.11", i32, i8, i32, double, i64, i32, i8, i8, i8, i32, ptr, %"class.std::vector.16", %"class.std::vector.26", ptr, ptr }
%"class.std::__cxx11::basic_string" = type { %"struct.std::__cxx11::basic_string<char>::_Alloc_hider", i64, %union.anon }
%"struct.std::__cxx11::basic_string<char>::_Alloc_hider" = type { ptr }
%union.anon = type { i64, [8 x i8] }
%"class.std::vector.6" = type { %"struct.std::_Vector_base.7" }
%"struct.std::_Vector_base.7" = type { %"struct.std::_Vector_base<std::__cxx11::basic_string<char>, std::allocator<std::__cxx11::basic_string<char>>>::_Vector_impl" }
%"struct.std::_Vector_base<std::__cxx11::basic_string<char>, std::allocator<std::__cxx11::basic_string<char>>>::_Vector_impl" = type { %"struct.std::_Vector_base<std::__cxx11::basic_string<char>, std::allocator<std::__cxx11::basic_string<char>>>::_Vector_impl_data" }
%"struct.std::_Vector_base<std::__cxx11::basic_string<char>, std::allocator<std::__cxx11::basic_string<char>>>::_Vector_impl_data" = type { ptr, ptr, ptr }
%"class.std::vector.11" = type { %"struct.std::_Vector_base.12" }
%"struct.std::_Vector_base.12" = type { %"struct.std::_Vector_base<std::vector<long>, std::allocator<std::vector<long>>>::_Vector_impl" }
%"struct.std::_Vector_base<std::vector<long>, std::allocator<std::vector<long>>>::_Vector_impl" = type { %"struct.std::_Vector_base<std::vector<long>, std::allocator<std::vector<long>>>::_Vector_impl_data" }
%"struct.std::_Vector_base<std::vector<long>, std::allocator<std::vector<long>>>::_Vector_impl_data" = type { ptr, ptr, ptr }
%"class.std::vector.16" = type { %"struct.std::_Vector_base.17" }
%"struct.std::_Vector_base.17" = type { %"struct.std::_Vector_base<benchmark::internal::Statistics, std::allocator<benchmark::internal::Statistics>>::_Vector_impl" }
%"struct.std::_Vector_base<benchmark::internal::Statistics, std::allocator<benchmark::internal::Statistics>>::_Vector_impl" = type { %"struct.std::_Vector_base<benchmark::internal::Statistics, std::allocator<benchmark::internal::Statistics>>::_Vector_impl_data" }
%"struct.std::_Vector_base<benchmark::internal::Statistics, std::allocator<benchmark::internal::Statistics>>::_Vector_impl_data" = type { ptr, ptr, ptr }
%"class.std::vector.26" = type { %"struct.std::_Vector_base.27" }
%"struct.std::_Vector_base.27" = type { %"struct.std::_Vector_base<int, std::allocator<int>>::_Vector_impl" }
%"struct.std::_Vector_base<int, std::allocator<int>>::_Vector_impl" = type { %"struct.std::_Vector_base<int, std::allocator<int>>::_Vector_impl_data" }
%"struct.std::_Vector_base<int, std::allocator<int>>::_Vector_impl_data" = type { ptr, ptr, ptr }

$_ZNSt24uniform_int_distributionItEclISt23mersenne_twister_engineImLm32ELm624ELm397ELm31ELm2567483615ELm11ELm4294967295ELm7ELm2636928640ELm15ELm4022730752ELm18ELm1812433253EEEEtRT_RKNS0_10param_typeE = comdat any

$_ZNSt23mersenne_twister_engineImLm32ELm624ELm397ELm31ELm2567483615ELm11ELm4294967295ELm7ELm2636928640ELm15ELm4022730752ELm18ELm1812433253EEclEv = comdat any

$_ZNSt24uniform_int_distributionIhEclISt23mersenne_twister_engineImLm32ELm624ELm397ELm31ELm2567483615ELm11ELm4294967295ELm7ELm2636928640ELm15ELm4022730752ELm18ELm1812433253EEEEhRT_RKNS0_10param_typeE = comdat any

$_ZNSt24uniform_int_distributionIjEclISt23mersenne_twister_engineImLm32ELm624ELm397ELm31ELm2567483615ELm11ELm4294967295ELm7ELm2636928640ELm15ELm4022730752ELm18ELm1812433253EEEEjRT_RKNS0_10param_typeE = comdat any

$_ZNSt24uniform_int_distributionImEclISt23mersenne_twister_engineImLm32ELm624ELm397ELm31ELm2567483615ELm11ELm4294967295ELm7ELm2636928640ELm15ELm4022730752ELm18ELm1812433253EEEEmRT_RKNS0_10param_typeE = comdat any

@_ZStL8__ioinit = internal global %"class.std::ios_base::Init" zeroinitializer, align 1
@__dso_handle = external hidden global i8
@_ZL3rng = internal global %"class.std::mersenne_twister_engine" zeroinitializer, align 8
@_ZL27benchmark_uniq_2_benchmark_ = internal unnamed_addr global ptr null, align 8
@.str = private unnamed_addr constant [61 x i8] c"benchForTruncOrZextVecInLoopWithVW8From_uint16_t_To_uint8_t_\00", align 1
@_ZL27benchmark_uniq_3_benchmark_ = internal unnamed_addr global ptr null, align 8
@.str.5 = private unnamed_addr constant [62 x i8] c"benchForTruncOrZextVecInLoopWithVW16From_uint16_t_To_uint8_t_\00", align 1
@_ZL27benchmark_uniq_4_benchmark_ = internal unnamed_addr global ptr null, align 8
@.str.7 = private unnamed_addr constant [54 x i8] c"benchForTruncOrZextVecInLoopFrom_uint16_t_To_uint8_t_\00", align 1
@_ZL27benchmark_uniq_5_benchmark_ = internal unnamed_addr global ptr null, align 8
@.str.9 = private unnamed_addr constant [68 x i8] c"benchForTruncOrZextVecWithAddInLoopWithVW8From_uint16_t_To_uint8_t_\00", align 1
@_ZL27benchmark_uniq_6_benchmark_ = internal unnamed_addr global ptr null, align 8
@.str.11 = private unnamed_addr constant [69 x i8] c"benchForTruncOrZextVecWithAddInLoopWithVW16From_uint16_t_To_uint8_t_\00", align 1
@_ZL27benchmark_uniq_7_benchmark_ = internal unnamed_addr global ptr null, align 8
@.str.13 = private unnamed_addr constant [61 x i8] c"benchForTruncOrZextVecWithAddInLoopFrom_uint16_t_To_uint8_t_\00", align 1
@_ZL27benchmark_uniq_8_benchmark_ = internal unnamed_addr global ptr null, align 8
@.str.15 = private unnamed_addr constant [61 x i8] c"benchForTruncOrZextVecInLoopWithVW8From_uint32_t_To_uint8_t_\00", align 1
@_ZL27benchmark_uniq_9_benchmark_ = internal unnamed_addr global ptr null, align 8
@.str.17 = private unnamed_addr constant [62 x i8] c"benchForTruncOrZextVecInLoopWithVW16From_uint32_t_To_uint8_t_\00", align 1
@_ZL28benchmark_uniq_10_benchmark_ = internal unnamed_addr global ptr null, align 8
@.str.19 = private unnamed_addr constant [54 x i8] c"benchForTruncOrZextVecInLoopFrom_uint32_t_To_uint8_t_\00", align 1
@_ZL28benchmark_uniq_11_benchmark_ = internal unnamed_addr global ptr null, align 8
@.str.21 = private unnamed_addr constant [68 x i8] c"benchForTruncOrZextVecWithAddInLoopWithVW8From_uint32_t_To_uint8_t_\00", align 1
@_ZL28benchmark_uniq_12_benchmark_ = internal unnamed_addr global ptr null, align 8
@.str.23 = private unnamed_addr constant [69 x i8] c"benchForTruncOrZextVecWithAddInLoopWithVW16From_uint32_t_To_uint8_t_\00", align 1
@_ZL28benchmark_uniq_13_benchmark_ = internal unnamed_addr global ptr null, align 8
@.str.25 = private unnamed_addr constant [61 x i8] c"benchForTruncOrZextVecWithAddInLoopFrom_uint32_t_To_uint8_t_\00", align 1
@_ZL28benchmark_uniq_14_benchmark_ = internal unnamed_addr global ptr null, align 8
@.str.27 = private unnamed_addr constant [61 x i8] c"benchForTruncOrZextVecInLoopWithVW8From_uint64_t_To_uint8_t_\00", align 1
@_ZL28benchmark_uniq_15_benchmark_ = internal unnamed_addr global ptr null, align 8
@.str.29 = private unnamed_addr constant [62 x i8] c"benchForTruncOrZextVecInLoopWithVW16From_uint64_t_To_uint8_t_\00", align 1
@_ZL28benchmark_uniq_16_benchmark_ = internal unnamed_addr global ptr null, align 8
@.str.31 = private unnamed_addr constant [54 x i8] c"benchForTruncOrZextVecInLoopFrom_uint64_t_To_uint8_t_\00", align 1
@_ZL28benchmark_uniq_17_benchmark_ = internal unnamed_addr global ptr null, align 8
@.str.33 = private unnamed_addr constant [68 x i8] c"benchForTruncOrZextVecWithAddInLoopWithVW8From_uint64_t_To_uint8_t_\00", align 1
@_ZL28benchmark_uniq_18_benchmark_ = internal unnamed_addr global ptr null, align 8
@.str.35 = private unnamed_addr constant [69 x i8] c"benchForTruncOrZextVecWithAddInLoopWithVW16From_uint64_t_To_uint8_t_\00", align 1
@_ZL28benchmark_uniq_19_benchmark_ = internal unnamed_addr global ptr null, align 8
@.str.37 = private unnamed_addr constant [61 x i8] c"benchForTruncOrZextVecWithAddInLoopFrom_uint64_t_To_uint8_t_\00", align 1
@_ZL28benchmark_uniq_20_benchmark_ = internal unnamed_addr global ptr null, align 8
@.str.39 = private unnamed_addr constant [62 x i8] c"benchForTruncOrZextVecInLoopWithVW8From_uint32_t_To_uint16_t_\00", align 1
@_ZL28benchmark_uniq_21_benchmark_ = internal unnamed_addr global ptr null, align 8
@.str.41 = private unnamed_addr constant [63 x i8] c"benchForTruncOrZextVecInLoopWithVW16From_uint32_t_To_uint16_t_\00", align 1
@_ZL28benchmark_uniq_22_benchmark_ = internal unnamed_addr global ptr null, align 8
@.str.43 = private unnamed_addr constant [55 x i8] c"benchForTruncOrZextVecInLoopFrom_uint32_t_To_uint16_t_\00", align 1
@_ZL28benchmark_uniq_23_benchmark_ = internal unnamed_addr global ptr null, align 8
@.str.45 = private unnamed_addr constant [69 x i8] c"benchForTruncOrZextVecWithAddInLoopWithVW8From_uint32_t_To_uint16_t_\00", align 1
@_ZL28benchmark_uniq_24_benchmark_ = internal unnamed_addr global ptr null, align 8
@.str.47 = private unnamed_addr constant [70 x i8] c"benchForTruncOrZextVecWithAddInLoopWithVW16From_uint32_t_To_uint16_t_\00", align 1
@_ZL28benchmark_uniq_25_benchmark_ = internal unnamed_addr global ptr null, align 8
@.str.49 = private unnamed_addr constant [62 x i8] c"benchForTruncOrZextVecWithAddInLoopFrom_uint32_t_To_uint16_t_\00", align 1
@_ZL28benchmark_uniq_26_benchmark_ = internal unnamed_addr global ptr null, align 8
@.str.51 = private unnamed_addr constant [62 x i8] c"benchForTruncOrZextVecInLoopWithVW8From_uint64_t_To_uint16_t_\00", align 1
@_ZL28benchmark_uniq_27_benchmark_ = internal unnamed_addr global ptr null, align 8
@.str.53 = private unnamed_addr constant [63 x i8] c"benchForTruncOrZextVecInLoopWithVW16From_uint64_t_To_uint16_t_\00", align 1
@_ZL28benchmark_uniq_28_benchmark_ = internal unnamed_addr global ptr null, align 8
@.str.55 = private unnamed_addr constant [55 x i8] c"benchForTruncOrZextVecInLoopFrom_uint64_t_To_uint16_t_\00", align 1
@_ZL28benchmark_uniq_29_benchmark_ = internal unnamed_addr global ptr null, align 8
@.str.57 = private unnamed_addr constant [69 x i8] c"benchForTruncOrZextVecWithAddInLoopWithVW8From_uint64_t_To_uint16_t_\00", align 1
@_ZL28benchmark_uniq_30_benchmark_ = internal unnamed_addr global ptr null, align 8
@.str.59 = private unnamed_addr constant [70 x i8] c"benchForTruncOrZextVecWithAddInLoopWithVW16From_uint64_t_To_uint16_t_\00", align 1
@_ZL28benchmark_uniq_31_benchmark_ = internal unnamed_addr global ptr null, align 8
@.str.61 = private unnamed_addr constant [62 x i8] c"benchForTruncOrZextVecWithAddInLoopFrom_uint64_t_To_uint16_t_\00", align 1
@_ZL28benchmark_uniq_32_benchmark_ = internal unnamed_addr global ptr null, align 8
@.str.63 = private unnamed_addr constant [62 x i8] c"benchForTruncOrZextVecInLoopWithVW8From_uint64_t_To_uint32_t_\00", align 1
@_ZL28benchmark_uniq_33_benchmark_ = internal unnamed_addr global ptr null, align 8
@.str.65 = private unnamed_addr constant [63 x i8] c"benchForTruncOrZextVecInLoopWithVW16From_uint64_t_To_uint32_t_\00", align 1
@_ZL28benchmark_uniq_34_benchmark_ = internal unnamed_addr global ptr null, align 8
@.str.67 = private unnamed_addr constant [55 x i8] c"benchForTruncOrZextVecInLoopFrom_uint64_t_To_uint32_t_\00", align 1
@_ZL28benchmark_uniq_35_benchmark_ = internal unnamed_addr global ptr null, align 8
@.str.69 = private unnamed_addr constant [69 x i8] c"benchForTruncOrZextVecWithAddInLoopWithVW8From_uint64_t_To_uint32_t_\00", align 1
@_ZL28benchmark_uniq_36_benchmark_ = internal unnamed_addr global ptr null, align 8
@.str.71 = private unnamed_addr constant [70 x i8] c"benchForTruncOrZextVecWithAddInLoopWithVW16From_uint64_t_To_uint32_t_\00", align 1
@_ZL28benchmark_uniq_37_benchmark_ = internal unnamed_addr global ptr null, align 8
@.str.73 = private unnamed_addr constant [62 x i8] c"benchForTruncOrZextVecWithAddInLoopFrom_uint64_t_To_uint32_t_\00", align 1
@_ZL28benchmark_uniq_38_benchmark_ = internal unnamed_addr global ptr null, align 8
@.str.75 = private unnamed_addr constant [61 x i8] c"benchForTruncOrZextVecInLoopWithVW8From_uint8_t_To_uint16_t_\00", align 1
@_ZL28benchmark_uniq_39_benchmark_ = internal unnamed_addr global ptr null, align 8
@.str.77 = private unnamed_addr constant [62 x i8] c"benchForTruncOrZextVecInLoopWithVW16From_uint8_t_To_uint16_t_\00", align 1
@_ZL28benchmark_uniq_40_benchmark_ = internal unnamed_addr global ptr null, align 8
@.str.79 = private unnamed_addr constant [54 x i8] c"benchForTruncOrZextVecInLoopFrom_uint8_t_To_uint16_t_\00", align 1
@_ZL28benchmark_uniq_41_benchmark_ = internal unnamed_addr global ptr null, align 8
@.str.81 = private unnamed_addr constant [68 x i8] c"benchForTruncOrZextVecWithAddInLoopWithVW8From_uint8_t_To_uint16_t_\00", align 1
@_ZL28benchmark_uniq_42_benchmark_ = internal unnamed_addr global ptr null, align 8
@.str.83 = private unnamed_addr constant [69 x i8] c"benchForTruncOrZextVecWithAddInLoopWithVW16From_uint8_t_To_uint16_t_\00", align 1
@_ZL28benchmark_uniq_43_benchmark_ = internal unnamed_addr global ptr null, align 8
@.str.85 = private unnamed_addr constant [61 x i8] c"benchForTruncOrZextVecWithAddInLoopFrom_uint8_t_To_uint16_t_\00", align 1
@_ZL28benchmark_uniq_44_benchmark_ = internal unnamed_addr global ptr null, align 8
@.str.87 = private unnamed_addr constant [61 x i8] c"benchForTruncOrZextVecInLoopWithVW8From_uint8_t_To_uint32_t_\00", align 1
@_ZL28benchmark_uniq_45_benchmark_ = internal unnamed_addr global ptr null, align 8
@.str.89 = private unnamed_addr constant [62 x i8] c"benchForTruncOrZextVecInLoopWithVW16From_uint8_t_To_uint32_t_\00", align 1
@_ZL28benchmark_uniq_46_benchmark_ = internal unnamed_addr global ptr null, align 8
@.str.91 = private unnamed_addr constant [54 x i8] c"benchForTruncOrZextVecInLoopFrom_uint8_t_To_uint32_t_\00", align 1
@_ZL28benchmark_uniq_47_benchmark_ = internal unnamed_addr global ptr null, align 8
@.str.93 = private unnamed_addr constant [68 x i8] c"benchForTruncOrZextVecWithAddInLoopWithVW8From_uint8_t_To_uint32_t_\00", align 1
@_ZL28benchmark_uniq_48_benchmark_ = internal unnamed_addr global ptr null, align 8
@.str.95 = private unnamed_addr constant [69 x i8] c"benchForTruncOrZextVecWithAddInLoopWithVW16From_uint8_t_To_uint32_t_\00", align 1
@_ZL28benchmark_uniq_49_benchmark_ = internal unnamed_addr global ptr null, align 8
@.str.97 = private unnamed_addr constant [61 x i8] c"benchForTruncOrZextVecWithAddInLoopFrom_uint8_t_To_uint32_t_\00", align 1
@_ZL28benchmark_uniq_50_benchmark_ = internal unnamed_addr global ptr null, align 8
@.str.99 = private unnamed_addr constant [61 x i8] c"benchForTruncOrZextVecInLoopWithVW8From_uint8_t_To_uint64_t_\00", align 1
@_ZL28benchmark_uniq_51_benchmark_ = internal unnamed_addr global ptr null, align 8
@.str.101 = private unnamed_addr constant [62 x i8] c"benchForTruncOrZextVecInLoopWithVW16From_uint8_t_To_uint64_t_\00", align 1
@_ZL28benchmark_uniq_52_benchmark_ = internal unnamed_addr global ptr null, align 8
@.str.103 = private unnamed_addr constant [54 x i8] c"benchForTruncOrZextVecInLoopFrom_uint8_t_To_uint64_t_\00", align 1
@_ZL28benchmark_uniq_53_benchmark_ = internal unnamed_addr global ptr null, align 8
@.str.105 = private unnamed_addr constant [68 x i8] c"benchForTruncOrZextVecWithAddInLoopWithVW8From_uint8_t_To_uint64_t_\00", align 1
@_ZL28benchmark_uniq_54_benchmark_ = internal unnamed_addr global ptr null, align 8
@.str.107 = private unnamed_addr constant [69 x i8] c"benchForTruncOrZextVecWithAddInLoopWithVW16From_uint8_t_To_uint64_t_\00", align 1
@_ZL28benchmark_uniq_55_benchmark_ = internal unnamed_addr global ptr null, align 8
@.str.109 = private unnamed_addr constant [61 x i8] c"benchForTruncOrZextVecWithAddInLoopFrom_uint8_t_To_uint64_t_\00", align 1
@_ZL28benchmark_uniq_56_benchmark_ = internal unnamed_addr global ptr null, align 8
@.str.111 = private unnamed_addr constant [62 x i8] c"benchForTruncOrZextVecInLoopWithVW8From_uint16_t_To_uint32_t_\00", align 1
@_ZL28benchmark_uniq_57_benchmark_ = internal unnamed_addr global ptr null, align 8
@.str.113 = private unnamed_addr constant [63 x i8] c"benchForTruncOrZextVecInLoopWithVW16From_uint16_t_To_uint32_t_\00", align 1
@_ZL28benchmark_uniq_58_benchmark_ = internal unnamed_addr global ptr null, align 8
@.str.115 = private unnamed_addr constant [55 x i8] c"benchForTruncOrZextVecInLoopFrom_uint16_t_To_uint32_t_\00", align 1
@_ZL28benchmark_uniq_59_benchmark_ = internal unnamed_addr global ptr null, align 8
@.str.117 = private unnamed_addr constant [69 x i8] c"benchForTruncOrZextVecWithAddInLoopWithVW8From_uint16_t_To_uint32_t_\00", align 1
@_ZL28benchmark_uniq_60_benchmark_ = internal unnamed_addr global ptr null, align 8
@.str.119 = private unnamed_addr constant [70 x i8] c"benchForTruncOrZextVecWithAddInLoopWithVW16From_uint16_t_To_uint32_t_\00", align 1
@_ZL28benchmark_uniq_61_benchmark_ = internal unnamed_addr global ptr null, align 8
@.str.121 = private unnamed_addr constant [62 x i8] c"benchForTruncOrZextVecWithAddInLoopFrom_uint16_t_To_uint32_t_\00", align 1
@_ZL28benchmark_uniq_62_benchmark_ = internal unnamed_addr global ptr null, align 8
@.str.123 = private unnamed_addr constant [62 x i8] c"benchForTruncOrZextVecInLoopWithVW8From_uint16_t_To_uint64_t_\00", align 1
@_ZL28benchmark_uniq_63_benchmark_ = internal unnamed_addr global ptr null, align 8
@.str.125 = private unnamed_addr constant [63 x i8] c"benchForTruncOrZextVecInLoopWithVW16From_uint16_t_To_uint64_t_\00", align 1
@_ZL28benchmark_uniq_64_benchmark_ = internal unnamed_addr global ptr null, align 8
@.str.127 = private unnamed_addr constant [55 x i8] c"benchForTruncOrZextVecInLoopFrom_uint16_t_To_uint64_t_\00", align 1
@_ZL28benchmark_uniq_65_benchmark_ = internal unnamed_addr global ptr null, align 8
@.str.129 = private unnamed_addr constant [69 x i8] c"benchForTruncOrZextVecWithAddInLoopWithVW8From_uint16_t_To_uint64_t_\00", align 1
@_ZL28benchmark_uniq_66_benchmark_ = internal unnamed_addr global ptr null, align 8
@.str.131 = private unnamed_addr constant [70 x i8] c"benchForTruncOrZextVecWithAddInLoopWithVW16From_uint16_t_To_uint64_t_\00", align 1
@_ZL28benchmark_uniq_67_benchmark_ = internal unnamed_addr global ptr null, align 8
@.str.133 = private unnamed_addr constant [62 x i8] c"benchForTruncOrZextVecWithAddInLoopFrom_uint16_t_To_uint64_t_\00", align 1
@_ZL28benchmark_uniq_68_benchmark_ = internal unnamed_addr global ptr null, align 8
@.str.135 = private unnamed_addr constant [62 x i8] c"benchForTruncOrZextVecInLoopWithVW8From_uint32_t_To_uint64_t_\00", align 1
@_ZL28benchmark_uniq_69_benchmark_ = internal unnamed_addr global ptr null, align 8
@.str.137 = private unnamed_addr constant [63 x i8] c"benchForTruncOrZextVecInLoopWithVW16From_uint32_t_To_uint64_t_\00", align 1
@_ZL28benchmark_uniq_70_benchmark_ = internal unnamed_addr global ptr null, align 8
@.str.139 = private unnamed_addr constant [55 x i8] c"benchForTruncOrZextVecInLoopFrom_uint32_t_To_uint64_t_\00", align 1
@_ZL28benchmark_uniq_71_benchmark_ = internal unnamed_addr global ptr null, align 8
@.str.141 = private unnamed_addr constant [69 x i8] c"benchForTruncOrZextVecWithAddInLoopWithVW8From_uint32_t_To_uint64_t_\00", align 1
@_ZL28benchmark_uniq_72_benchmark_ = internal unnamed_addr global ptr null, align 8
@.str.143 = private unnamed_addr constant [70 x i8] c"benchForTruncOrZextVecWithAddInLoopWithVW16From_uint32_t_To_uint64_t_\00", align 1
@_ZL28benchmark_uniq_73_benchmark_ = internal unnamed_addr global ptr null, align 8
@.str.145 = private unnamed_addr constant [62 x i8] c"benchForTruncOrZextVecWithAddInLoopFrom_uint32_t_To_uint64_t_\00", align 1
@_ZTVN9benchmark8internal17FunctionBenchmarkE = external unnamed_addr constant { [5 x ptr] }, align 8
@_ZSt4cerr = external global %"class.std::basic_ostream", align 8
@.str.146 = private unnamed_addr constant [35 x i8] c"ERROR: Trunc or ZExt operation on \00", align 1
@.str.147 = private unnamed_addr constant [20 x i8] c" is showing result \00", align 1
@.str.148 = private unnamed_addr constant [13 x i8] c" instead of \00", align 1
@.str.149 = private unnamed_addr constant [2 x i8] c"\0A\00", align 1
@llvm.global_ctors = appending global [1 x { i32, ptr, ptr }] [{ i32, ptr, ptr } { i32 65535, ptr @_GLOBAL__sub_I_VectorOperations.cpp, ptr null }]

declare void @_ZNSt8ios_base4InitC1Ev(ptr noundef nonnull align 1 dereferenceable(1)) unnamed_addr #0

; Function Attrs: nounwind
declare void @_ZNSt8ios_base4InitD1Ev(ptr noundef nonnull align 1 dereferenceable(1)) unnamed_addr #1

; Function Attrs: nofree nounwind
declare i32 @__cxa_atexit(ptr, ptr, ptr) local_unnamed_addr #2

declare noundef i32 @_ZN9benchmark8internal17InitializeStreamsEv() local_unnamed_addr #0

; Function Attrs: uwtable
define dso_local void @_Z60benchForTruncOrZextVecInLoopWithVW8From_uint16_t_To_uint8_t_RN9benchmark5StateE(ptr noundef nonnull align 8 dereferenceable(144) %0) #3 personality ptr @__gxx_personality_v0 {
  %2 = alloca %"class.std::uniform_int_distribution", align 2
  %3 = alloca %"class.std::unique_ptr.33", align 8
  %4 = tail call noalias noundef nonnull dereferenceable(20000) ptr @_Znam(i64 noundef 20000) #10
  call void @llvm.lifetime.start.p0(i64 8, ptr nonnull %3) #11
  %5 = invoke noalias noundef nonnull dereferenceable(10000) ptr @_Znam(i64 noundef 10000) #10
          to label %6 unwind label %131

6:                                                ; preds = %1
  store ptr %5, ptr %3, align 8, !tbaa !5
  %7 = invoke noalias noundef nonnull dereferenceable(10000) ptr @_Znam(i64 noundef 10000) #10
          to label %8 unwind label %133

8:                                                ; preds = %6
  call void @llvm.lifetime.start.p0(i64 4, ptr nonnull %2) #11
  store i16 0, ptr %2, align 2, !tbaa !9
  %9 = getelementptr inbounds %"struct.std::uniform_int_distribution<unsigned short>::param_type", ptr %2, i64 0, i32 1
  store i16 -1, ptr %9, align 2, !tbaa !12
  br label %10

10:                                               ; preds = %13, %8
  %11 = phi i64 [ 0, %8 ], [ %15, %13 ]
  %12 = invoke noundef zeroext i16 @_ZNSt24uniform_int_distributionItEclISt23mersenne_twister_engineImLm32ELm624ELm397ELm31ELm2567483615ELm11ELm4294967295ELm7ELm2636928640ELm15ELm4022730752ELm18ELm1812433253EEEEtRT_RKNS0_10param_typeE(ptr noundef nonnull align 2 dereferenceable(4) %2, ptr noundef nonnull align 8 dereferenceable(5000) @_ZL3rng, ptr noundef nonnull align 2 dereferenceable(4) %2)
          to label %13 unwind label %135

13:                                               ; preds = %10
  %14 = getelementptr inbounds i16, ptr %4, i64 %11
  store i16 %12, ptr %14, align 2, !tbaa !13
  %15 = add nuw nsw i64 %11, 1
  %16 = icmp eq i64 %15, 10000
  br i1 %16, label %17, label %10, !llvm.loop !14

17:                                               ; preds = %13
  call void @llvm.lifetime.end.p0(i64 4, ptr nonnull %2) #11
  br label %18

18:                                               ; preds = %18, %17
  %19 = phi i64 [ 0, %17 ], [ %44, %18 ]
  %20 = getelementptr inbounds i16, ptr %4, i64 %19
  %21 = load i16, ptr %20, align 2, !tbaa !13
  %22 = trunc i16 %21 to i8
  %23 = getelementptr inbounds i8, ptr %7, i64 %19
  store i8 %22, ptr %23, align 1, !tbaa !16
  %24 = add nuw nsw i64 %19, 1
  %25 = getelementptr inbounds i16, ptr %4, i64 %24
  %26 = load i16, ptr %25, align 2, !tbaa !13
  %27 = trunc i16 %26 to i8
  %28 = getelementptr inbounds i8, ptr %7, i64 %24
  store i8 %27, ptr %28, align 1, !tbaa !16
  %29 = add nuw nsw i64 %19, 2
  %30 = getelementptr inbounds i16, ptr %4, i64 %29
  %31 = load i16, ptr %30, align 2, !tbaa !13
  %32 = trunc i16 %31 to i8
  %33 = getelementptr inbounds i8, ptr %7, i64 %29
  store i8 %32, ptr %33, align 1, !tbaa !16
  %34 = add nuw nsw i64 %19, 3
  %35 = getelementptr inbounds i16, ptr %4, i64 %34
  %36 = load i16, ptr %35, align 2, !tbaa !13
  %37 = trunc i16 %36 to i8
  %38 = getelementptr inbounds i8, ptr %7, i64 %34
  store i8 %37, ptr %38, align 1, !tbaa !16
  %39 = add nuw nsw i64 %19, 4
  %40 = getelementptr inbounds i16, ptr %4, i64 %39
  %41 = load i16, ptr %40, align 2, !tbaa !13
  %42 = trunc i16 %41 to i8
  %43 = getelementptr inbounds i8, ptr %7, i64 %39
  store i8 %42, ptr %43, align 1, !tbaa !16
  %44 = add nuw nsw i64 %19, 5
  %45 = icmp eq i64 %44, 10000
  br i1 %45, label %46, label %18, !llvm.loop !17

46:                                               ; preds = %18, %46
  %47 = phi i64 [ %64, %46 ], [ 0, %18 ]
  %48 = getelementptr inbounds i16, ptr %4, i64 %47
  %49 = load <8 x i16>, ptr %48, align 2, !tbaa !13
  %50 = getelementptr inbounds i16, ptr %48, i64 8
  %51 = load <8 x i16>, ptr %50, align 2, !tbaa !13
  %52 = getelementptr inbounds i16, ptr %48, i64 16
  %53 = load <8 x i16>, ptr %52, align 2, !tbaa !13
  %54 = getelementptr inbounds i16, ptr %48, i64 24
  %55 = load <8 x i16>, ptr %54, align 2, !tbaa !13
  %56 = trunc <8 x i16> %49 to <8 x i8>
  %57 = trunc <8 x i16> %51 to <8 x i8>
  %58 = trunc <8 x i16> %53 to <8 x i8>
  %59 = trunc <8 x i16> %55 to <8 x i8>
  %60 = getelementptr inbounds i8, ptr %5, i64 %47
  store <8 x i8> %56, ptr %60, align 1, !tbaa !16
  %61 = getelementptr inbounds i8, ptr %60, i64 8
  store <8 x i8> %57, ptr %61, align 1, !tbaa !16
  %62 = getelementptr inbounds i8, ptr %60, i64 16
  store <8 x i8> %58, ptr %62, align 1, !tbaa !16
  %63 = getelementptr inbounds i8, ptr %60, i64 24
  store <8 x i8> %59, ptr %63, align 1, !tbaa !16
  %64 = add nuw i64 %47, 32
  %65 = icmp eq i64 %64, 9984
  br i1 %65, label %66, label %46, !llvm.loop !19

66:                                               ; preds = %46
  %67 = getelementptr inbounds i16, ptr %4, i64 9984
  %68 = load i16, ptr %67, align 2, !tbaa !13
  %69 = trunc i16 %68 to i8
  %70 = getelementptr inbounds i8, ptr %5, i64 9984
  store i8 %69, ptr %70, align 1, !tbaa !16
  %71 = getelementptr inbounds i16, ptr %4, i64 9985
  %72 = load i16, ptr %71, align 2, !tbaa !13
  %73 = trunc i16 %72 to i8
  %74 = getelementptr inbounds i8, ptr %5, i64 9985
  store i8 %73, ptr %74, align 1, !tbaa !16
  %75 = getelementptr inbounds i16, ptr %4, i64 9986
  %76 = load i16, ptr %75, align 2, !tbaa !13
  %77 = trunc i16 %76 to i8
  %78 = getelementptr inbounds i8, ptr %5, i64 9986
  store i8 %77, ptr %78, align 1, !tbaa !16
  %79 = getelementptr inbounds i16, ptr %4, i64 9987
  %80 = load i16, ptr %79, align 2, !tbaa !13
  %81 = trunc i16 %80 to i8
  %82 = getelementptr inbounds i8, ptr %5, i64 9987
  store i8 %81, ptr %82, align 1, !tbaa !16
  %83 = getelementptr inbounds i16, ptr %4, i64 9988
  %84 = load i16, ptr %83, align 2, !tbaa !13
  %85 = trunc i16 %84 to i8
  %86 = getelementptr inbounds i8, ptr %5, i64 9988
  store i8 %85, ptr %86, align 1, !tbaa !16
  %87 = getelementptr inbounds i16, ptr %4, i64 9989
  %88 = load i16, ptr %87, align 2, !tbaa !13
  %89 = trunc i16 %88 to i8
  %90 = getelementptr inbounds i8, ptr %5, i64 9989
  store i8 %89, ptr %90, align 1, !tbaa !16
  %91 = getelementptr inbounds i16, ptr %4, i64 9990
  %92 = load i16, ptr %91, align 2, !tbaa !13
  %93 = trunc i16 %92 to i8
  %94 = getelementptr inbounds i8, ptr %5, i64 9990
  store i8 %93, ptr %94, align 1, !tbaa !16
  %95 = getelementptr inbounds i16, ptr %4, i64 9991
  %96 = load i16, ptr %95, align 2, !tbaa !13
  %97 = trunc i16 %96 to i8
  %98 = getelementptr inbounds i8, ptr %5, i64 9991
  store i8 %97, ptr %98, align 1, !tbaa !16
  %99 = getelementptr inbounds i16, ptr %4, i64 9992
  %100 = load i16, ptr %99, align 2, !tbaa !13
  %101 = trunc i16 %100 to i8
  %102 = getelementptr inbounds i8, ptr %5, i64 9992
  store i8 %101, ptr %102, align 1, !tbaa !16
  %103 = getelementptr inbounds i16, ptr %4, i64 9993
  %104 = load i16, ptr %103, align 2, !tbaa !13
  %105 = trunc i16 %104 to i8
  %106 = getelementptr inbounds i8, ptr %5, i64 9993
  store i8 %105, ptr %106, align 1, !tbaa !16
  %107 = getelementptr inbounds i16, ptr %4, i64 9994
  %108 = load i16, ptr %107, align 2, !tbaa !13
  %109 = trunc i16 %108 to i8
  %110 = getelementptr inbounds i8, ptr %5, i64 9994
  store i8 %109, ptr %110, align 1, !tbaa !16
  %111 = getelementptr inbounds i16, ptr %4, i64 9995
  %112 = load i16, ptr %111, align 2, !tbaa !13
  %113 = trunc i16 %112 to i8
  %114 = getelementptr inbounds i8, ptr %5, i64 9995
  store i8 %113, ptr %114, align 1, !tbaa !16
  %115 = getelementptr inbounds i16, ptr %4, i64 9996
  %116 = load i16, ptr %115, align 2, !tbaa !13
  %117 = trunc i16 %116 to i8
  %118 = getelementptr inbounds i8, ptr %5, i64 9996
  store i8 %117, ptr %118, align 1, !tbaa !16
  %119 = getelementptr inbounds i16, ptr %4, i64 9997
  %120 = load i16, ptr %119, align 2, !tbaa !13
  %121 = trunc i16 %120 to i8
  %122 = getelementptr inbounds i8, ptr %5, i64 9997
  store i8 %121, ptr %122, align 1, !tbaa !16
  %123 = getelementptr inbounds i16, ptr %4, i64 9998
  %124 = load i16, ptr %123, align 2, !tbaa !13
  %125 = trunc i16 %124 to i8
  %126 = getelementptr inbounds i8, ptr %5, i64 9998
  store i8 %125, ptr %126, align 1, !tbaa !16
  %127 = getelementptr inbounds i16, ptr %4, i64 9999
  %128 = load i16, ptr %127, align 2, !tbaa !13
  %129 = trunc i16 %128 to i8
  %130 = getelementptr inbounds i8, ptr %5, i64 9999
  store i8 %129, ptr %130, align 1, !tbaa !16
  br label %137

131:                                              ; preds = %1
  %132 = landingpad { ptr, i32 }
          cleanup
  br label %282

133:                                              ; preds = %6
  %134 = landingpad { ptr, i32 }
          cleanup
  br label %279

135:                                              ; preds = %10
  %136 = landingpad { ptr, i32 }
          cleanup
  br label %275

137:                                              ; preds = %198, %66
  %138 = phi i64 [ 0, %66 ], [ %199, %198 ]
  %139 = getelementptr inbounds i8, ptr %5, i64 %138
  %140 = load i8, ptr %139, align 1, !tbaa !16
  %141 = getelementptr inbounds i8, ptr %7, i64 %138
  %142 = load i8, ptr %141, align 1, !tbaa !16
  %143 = icmp eq i8 %140, %142
  br i1 %143, label %170, label %144

144:                                              ; preds = %191, %184, %177, %170, %137
  %145 = phi i64 [ %138, %137 ], [ %171, %170 ], [ %178, %177 ], [ %185, %184 ], [ %192, %191 ]
  %146 = and i64 %145, 4294967295
  %147 = getelementptr inbounds i8, ptr %7, i64 %146
  %148 = invoke noundef nonnull align 8 dereferenceable(8) ptr @_ZSt16__ostream_insertIcSt11char_traitsIcEERSt13basic_ostreamIT_T0_ES6_PKS3_l(ptr noundef nonnull align 8 dereferenceable(8) @_ZSt4cerr, ptr noundef nonnull @.str.146, i64 noundef 34)
          to label %149 unwind label %168

149:                                              ; preds = %144
  %150 = getelementptr inbounds i16, ptr %4, i64 %146
  %151 = load i16, ptr %150, align 2, !tbaa !13
  %152 = zext i16 %151 to i64
  %153 = invoke noundef nonnull align 8 dereferenceable(8) ptr @_ZNSo9_M_insertImEERSoT_(ptr noundef nonnull align 8 dereferenceable(8) @_ZSt4cerr, i64 noundef %152)
          to label %154 unwind label %168

154:                                              ; preds = %149
  %155 = invoke noundef nonnull align 8 dereferenceable(8) ptr @_ZSt16__ostream_insertIcSt11char_traitsIcEERSt13basic_ostreamIT_T0_ES6_PKS3_l(ptr noundef nonnull align 8 dereferenceable(8) %153, ptr noundef nonnull @.str.147, i64 noundef 19)
          to label %156 unwind label %168

156:                                              ; preds = %154
  %157 = getelementptr inbounds i8, ptr %5, i64 %146
  %158 = load i8, ptr %157, align 1, !tbaa !16
  %159 = invoke noundef nonnull align 8 dereferenceable(8) ptr @_ZStlsISt11char_traitsIcEERSt13basic_ostreamIcT_ES5_h(ptr noundef nonnull align 8 dereferenceable(8) %153, i8 noundef zeroext %158)
          to label %160 unwind label %168

160:                                              ; preds = %156
  %161 = invoke noundef nonnull align 8 dereferenceable(8) ptr @_ZSt16__ostream_insertIcSt11char_traitsIcEERSt13basic_ostreamIT_T0_ES6_PKS3_l(ptr noundef nonnull align 8 dereferenceable(8) %159, ptr noundef nonnull @.str.148, i64 noundef 12)
          to label %162 unwind label %168

162:                                              ; preds = %160
  %163 = load i8, ptr %147, align 1, !tbaa !16
  %164 = invoke noundef nonnull align 8 dereferenceable(8) ptr @_ZStlsISt11char_traitsIcEERSt13basic_ostreamIcT_ES5_h(ptr noundef nonnull align 8 dereferenceable(8) %159, i8 noundef zeroext %163)
          to label %165 unwind label %168

165:                                              ; preds = %162
  %166 = invoke noundef nonnull align 8 dereferenceable(8) ptr @_ZStlsISt11char_traitsIcEERSt13basic_ostreamIcT_ES5_PKc(ptr noundef nonnull align 8 dereferenceable(8) %164, ptr noundef nonnull @.str.149)
          to label %167 unwind label %168

167:                                              ; preds = %165
  call void @exit(i32 noundef 1) #12
  unreachable

168:                                              ; preds = %165, %162, %160, %156, %154, %149, %144
  %169 = landingpad { ptr, i32 }
          cleanup
  br label %275

170:                                              ; preds = %137
  %171 = add nuw nsw i64 %138, 1
  %172 = getelementptr inbounds i8, ptr %5, i64 %171
  %173 = load i8, ptr %172, align 1, !tbaa !16
  %174 = getelementptr inbounds i8, ptr %7, i64 %171
  %175 = load i8, ptr %174, align 1, !tbaa !16
  %176 = icmp eq i8 %173, %175
  br i1 %176, label %177, label %144

177:                                              ; preds = %170
  %178 = add nuw nsw i64 %138, 2
  %179 = getelementptr inbounds i8, ptr %5, i64 %178
  %180 = load i8, ptr %179, align 1, !tbaa !16
  %181 = getelementptr inbounds i8, ptr %7, i64 %178
  %182 = load i8, ptr %181, align 1, !tbaa !16
  %183 = icmp eq i8 %180, %182
  br i1 %183, label %184, label %144

184:                                              ; preds = %177
  %185 = add nuw nsw i64 %138, 3
  %186 = getelementptr inbounds i8, ptr %5, i64 %185
  %187 = load i8, ptr %186, align 1, !tbaa !16
  %188 = getelementptr inbounds i8, ptr %7, i64 %185
  %189 = load i8, ptr %188, align 1, !tbaa !16
  %190 = icmp eq i8 %187, %189
  br i1 %190, label %191, label %144

191:                                              ; preds = %184
  %192 = add nuw nsw i64 %138, 4
  %193 = getelementptr inbounds i8, ptr %5, i64 %192
  %194 = load i8, ptr %193, align 1, !tbaa !16
  %195 = getelementptr inbounds i8, ptr %7, i64 %192
  %196 = load i8, ptr %195, align 1, !tbaa !16
  %197 = icmp eq i8 %194, %196
  br i1 %197, label %198, label %144

198:                                              ; preds = %191
  %199 = add nuw nsw i64 %138, 5
  %200 = icmp eq i64 %199, 10000
  br i1 %200, label %201, label %137, !llvm.loop !22

201:                                              ; preds = %198
  %202 = getelementptr inbounds %"class.benchmark::State", ptr %0, i64 0, i32 5
  %203 = load i8, ptr %202, align 2, !tbaa !23, !range !40, !noundef !41
  %204 = getelementptr inbounds %"class.benchmark::State", ptr %0, i64 0, i32 2
  %205 = load i64, ptr %204, align 8
  invoke void @_ZN9benchmark5State16StartKeepRunningEv(ptr noundef nonnull align 8 dereferenceable(144) %0)
          to label %206 unwind label %217

206:                                              ; preds = %201
  %207 = icmp ne i8 %203, 0
  %208 = icmp eq i64 %205, 0
  %209 = select i1 %207, i1 true, i1 %208
  br i1 %209, label %212, label %210, !prof !42

210:                                              ; preds = %206
  %211 = getelementptr i8, ptr %4, i64 20000
  br label %219

212:                                              ; preds = %272, %206
  invoke void @_ZN9benchmark5State17FinishKeepRunningEv(ptr noundef nonnull align 8 dereferenceable(144) %0)
          to label %213 unwind label %217

213:                                              ; preds = %212
  call void @_ZdaPv(ptr noundef nonnull %7) #13
  %214 = load ptr, ptr %3, align 8, !tbaa !5
  %215 = icmp eq ptr %214, null
  br i1 %215, label %284, label %216

216:                                              ; preds = %213
  call void @_ZdaPv(ptr noundef nonnull %214) #13
  br label %284

217:                                              ; preds = %212, %201
  %218 = landingpad { ptr, i32 }
          cleanup
  br label %275

219:                                              ; preds = %210, %272
  %220 = phi i64 [ %273, %272 ], [ %205, %210 ]
  %221 = load i64, ptr %3, align 8
  call void asm sideeffect "", "=*r|m,0,~{memory},~{dirflag},~{fpsr},~{flags}"(ptr nonnull elementtype(%"class.std::unique_ptr.33") %3, i64 %221) #11, !srcloc !43
  fence syncscope("singlethread") acq_rel
  %222 = load ptr, ptr %3, align 8, !tbaa !5
  %223 = getelementptr i8, ptr %222, i64 10000
  %224 = icmp ult ptr %222, %211
  %225 = icmp ult ptr %4, %223
  %226 = and i1 %224, %225
  br i1 %226, label %247, label %227

227:                                              ; preds = %219, %227
  %228 = phi i64 [ %245, %227 ], [ 0, %219 ]
  %229 = getelementptr inbounds i16, ptr %4, i64 %228
  %230 = load <8 x i16>, ptr %229, align 2, !tbaa !13, !alias.scope !44
  %231 = getelementptr inbounds i16, ptr %229, i64 8
  %232 = load <8 x i16>, ptr %231, align 2, !tbaa !13, !alias.scope !44
  %233 = getelementptr inbounds i16, ptr %229, i64 16
  %234 = load <8 x i16>, ptr %233, align 2, !tbaa !13, !alias.scope !44
  %235 = getelementptr inbounds i16, ptr %229, i64 24
  %236 = load <8 x i16>, ptr %235, align 2, !tbaa !13, !alias.scope !44
  %237 = trunc <8 x i16> %230 to <8 x i8>
  %238 = trunc <8 x i16> %232 to <8 x i8>
  %239 = trunc <8 x i16> %234 to <8 x i8>
  %240 = trunc <8 x i16> %236 to <8 x i8>
  %241 = getelementptr inbounds i8, ptr %222, i64 %228
  store <8 x i8> %237, ptr %241, align 1, !tbaa !16, !alias.scope !47, !noalias !44
  %242 = getelementptr inbounds i8, ptr %241, i64 8
  store <8 x i8> %238, ptr %242, align 1, !tbaa !16, !alias.scope !47, !noalias !44
  %243 = getelementptr inbounds i8, ptr %241, i64 16
  store <8 x i8> %239, ptr %243, align 1, !tbaa !16, !alias.scope !47, !noalias !44
  %244 = getelementptr inbounds i8, ptr %241, i64 24
  store <8 x i8> %240, ptr %244, align 1, !tbaa !16, !alias.scope !47, !noalias !44
  %245 = add nuw i64 %228, 32
  %246 = icmp eq i64 %245, 9984
  br i1 %246, label %247, label %227, !llvm.loop !49

247:                                              ; preds = %227, %219
  %248 = phi i64 [ 0, %219 ], [ 9984, %227 ]
  br label %249

249:                                              ; preds = %249, %247
  %250 = phi i64 [ %248, %247 ], [ %270, %249 ]
  %251 = getelementptr inbounds i16, ptr %4, i64 %250
  %252 = load i16, ptr %251, align 2, !tbaa !13
  %253 = trunc i16 %252 to i8
  %254 = getelementptr inbounds i8, ptr %222, i64 %250
  store i8 %253, ptr %254, align 1, !tbaa !16
  %255 = or i64 %250, 1
  %256 = getelementptr inbounds i16, ptr %4, i64 %255
  %257 = load i16, ptr %256, align 2, !tbaa !13
  %258 = trunc i16 %257 to i8
  %259 = getelementptr inbounds i8, ptr %222, i64 %255
  store i8 %258, ptr %259, align 1, !tbaa !16
  %260 = or i64 %250, 2
  %261 = getelementptr inbounds i16, ptr %4, i64 %260
  %262 = load i16, ptr %261, align 2, !tbaa !13
  %263 = trunc i16 %262 to i8
  %264 = getelementptr inbounds i8, ptr %222, i64 %260
  store i8 %263, ptr %264, align 1, !tbaa !16
  %265 = or i64 %250, 3
  %266 = getelementptr inbounds i16, ptr %4, i64 %265
  %267 = load i16, ptr %266, align 2, !tbaa !13
  %268 = trunc i16 %267 to i8
  %269 = getelementptr inbounds i8, ptr %222, i64 %265
  store i8 %268, ptr %269, align 1, !tbaa !16
  %270 = add nuw nsw i64 %250, 4
  %271 = icmp eq i64 %270, 10000
  br i1 %271, label %272, label %249, !llvm.loop !50

272:                                              ; preds = %249
  %273 = add i64 %220, -1
  %274 = icmp eq i64 %273, 0
  br i1 %274, label %212, label %219, !prof !42

275:                                              ; preds = %217, %168, %135
  %276 = phi { ptr, i32 } [ %169, %168 ], [ %218, %217 ], [ %136, %135 ]
  call void @_ZdaPv(ptr noundef nonnull %7) #13
  %277 = load ptr, ptr %3, align 8, !tbaa !5
  %278 = icmp eq ptr %277, null
  br i1 %278, label %282, label %279

279:                                              ; preds = %275, %133
  %280 = phi { ptr, i32 } [ %134, %133 ], [ %276, %275 ]
  %281 = phi ptr [ %5, %133 ], [ %277, %275 ]
  call void @_ZdaPv(ptr noundef nonnull %281) #13
  br label %282

282:                                              ; preds = %279, %275, %131
  %283 = phi { ptr, i32 } [ %132, %131 ], [ %276, %275 ], [ %280, %279 ]
  call void @llvm.lifetime.end.p0(i64 8, ptr nonnull %3) #11
  call void @_ZdaPv(ptr noundef nonnull %4) #13
  resume { ptr, i32 } %283

284:                                              ; preds = %213, %216
  call void @llvm.lifetime.end.p0(i64 8, ptr nonnull %3) #11
  call void @_ZdaPv(ptr noundef nonnull %4) #13
  ret void
}

declare noundef ptr @_ZN9benchmark8internal25RegisterBenchmarkInternalEPNS0_9BenchmarkE(ptr noundef) local_unnamed_addr #0

; Function Attrs: nobuiltin allocsize(0)
declare noundef nonnull ptr @_Znwm(i64 noundef) local_unnamed_addr #4

declare i32 @__gxx_personality_v0(...)

; Function Attrs: nobuiltin nounwind
declare void @_ZdlPv(ptr noundef) local_unnamed_addr #5

; Function Attrs: uwtable
define dso_local void @_Z61benchForTruncOrZextVecInLoopWithVW16From_uint16_t_To_uint8_t_RN9benchmark5StateE(ptr noundef nonnull align 8 dereferenceable(144) %0) #3 personality ptr @__gxx_personality_v0 {
  %2 = alloca %"class.std::uniform_int_distribution", align 2
  %3 = alloca %"class.std::unique_ptr.33", align 8
  %4 = tail call noalias noundef nonnull dereferenceable(20000) ptr @_Znam(i64 noundef 20000) #10
  call void @llvm.lifetime.start.p0(i64 8, ptr nonnull %3) #11
  %5 = invoke noalias noundef nonnull dereferenceable(10000) ptr @_Znam(i64 noundef 10000) #10
          to label %6 unwind label %131

6:                                                ; preds = %1
  store ptr %5, ptr %3, align 8, !tbaa !5
  %7 = invoke noalias noundef nonnull dereferenceable(10000) ptr @_Znam(i64 noundef 10000) #10
          to label %8 unwind label %133

8:                                                ; preds = %6
  call void @llvm.lifetime.start.p0(i64 4, ptr nonnull %2) #11
  store i16 0, ptr %2, align 2, !tbaa !9
  %9 = getelementptr inbounds %"struct.std::uniform_int_distribution<unsigned short>::param_type", ptr %2, i64 0, i32 1
  store i16 -1, ptr %9, align 2, !tbaa !12
  br label %10

10:                                               ; preds = %13, %8
  %11 = phi i64 [ 0, %8 ], [ %15, %13 ]
  %12 = invoke noundef zeroext i16 @_ZNSt24uniform_int_distributionItEclISt23mersenne_twister_engineImLm32ELm624ELm397ELm31ELm2567483615ELm11ELm4294967295ELm7ELm2636928640ELm15ELm4022730752ELm18ELm1812433253EEEEtRT_RKNS0_10param_typeE(ptr noundef nonnull align 2 dereferenceable(4) %2, ptr noundef nonnull align 8 dereferenceable(5000) @_ZL3rng, ptr noundef nonnull align 2 dereferenceable(4) %2)
          to label %13 unwind label %135

13:                                               ; preds = %10
  %14 = getelementptr inbounds i16, ptr %4, i64 %11
  store i16 %12, ptr %14, align 2, !tbaa !13
  %15 = add nuw nsw i64 %11, 1
  %16 = icmp eq i64 %15, 10000
  br i1 %16, label %17, label %10, !llvm.loop !14

17:                                               ; preds = %13
  call void @llvm.lifetime.end.p0(i64 4, ptr nonnull %2) #11
  br label %18

18:                                               ; preds = %18, %17
  %19 = phi i64 [ 0, %17 ], [ %44, %18 ]
  %20 = getelementptr inbounds i16, ptr %4, i64 %19
  %21 = load i16, ptr %20, align 2, !tbaa !13
  %22 = trunc i16 %21 to i8
  %23 = getelementptr inbounds i8, ptr %7, i64 %19
  store i8 %22, ptr %23, align 1, !tbaa !16
  %24 = add nuw nsw i64 %19, 1
  %25 = getelementptr inbounds i16, ptr %4, i64 %24
  %26 = load i16, ptr %25, align 2, !tbaa !13
  %27 = trunc i16 %26 to i8
  %28 = getelementptr inbounds i8, ptr %7, i64 %24
  store i8 %27, ptr %28, align 1, !tbaa !16
  %29 = add nuw nsw i64 %19, 2
  %30 = getelementptr inbounds i16, ptr %4, i64 %29
  %31 = load i16, ptr %30, align 2, !tbaa !13
  %32 = trunc i16 %31 to i8
  %33 = getelementptr inbounds i8, ptr %7, i64 %29
  store i8 %32, ptr %33, align 1, !tbaa !16
  %34 = add nuw nsw i64 %19, 3
  %35 = getelementptr inbounds i16, ptr %4, i64 %34
  %36 = load i16, ptr %35, align 2, !tbaa !13
  %37 = trunc i16 %36 to i8
  %38 = getelementptr inbounds i8, ptr %7, i64 %34
  store i8 %37, ptr %38, align 1, !tbaa !16
  %39 = add nuw nsw i64 %19, 4
  %40 = getelementptr inbounds i16, ptr %4, i64 %39
  %41 = load i16, ptr %40, align 2, !tbaa !13
  %42 = trunc i16 %41 to i8
  %43 = getelementptr inbounds i8, ptr %7, i64 %39
  store i8 %42, ptr %43, align 1, !tbaa !16
  %44 = add nuw nsw i64 %19, 5
  %45 = icmp eq i64 %44, 10000
  br i1 %45, label %46, label %18, !llvm.loop !17

46:                                               ; preds = %18, %46
  %47 = phi i64 [ %64, %46 ], [ 0, %18 ]
  %48 = getelementptr inbounds i16, ptr %4, i64 %47
  %49 = load <16 x i16>, ptr %48, align 2, !tbaa !13
  %50 = getelementptr inbounds i16, ptr %48, i64 16
  %51 = load <16 x i16>, ptr %50, align 2, !tbaa !13
  %52 = getelementptr inbounds i16, ptr %48, i64 32
  %53 = load <16 x i16>, ptr %52, align 2, !tbaa !13
  %54 = getelementptr inbounds i16, ptr %48, i64 48
  %55 = load <16 x i16>, ptr %54, align 2, !tbaa !13
  %56 = trunc <16 x i16> %49 to <16 x i8>
  %57 = trunc <16 x i16> %51 to <16 x i8>
  %58 = trunc <16 x i16> %53 to <16 x i8>
  %59 = trunc <16 x i16> %55 to <16 x i8>
  %60 = getelementptr inbounds i8, ptr %5, i64 %47
  store <16 x i8> %56, ptr %60, align 1, !tbaa !16
  %61 = getelementptr inbounds i8, ptr %60, i64 16
  store <16 x i8> %57, ptr %61, align 1, !tbaa !16
  %62 = getelementptr inbounds i8, ptr %60, i64 32
  store <16 x i8> %58, ptr %62, align 1, !tbaa !16
  %63 = getelementptr inbounds i8, ptr %60, i64 48
  store <16 x i8> %59, ptr %63, align 1, !tbaa !16
  %64 = add nuw i64 %47, 64
  %65 = icmp eq i64 %64, 9984
  br i1 %65, label %66, label %46, !llvm.loop !51

66:                                               ; preds = %46
  %67 = getelementptr inbounds i16, ptr %4, i64 9984
  %68 = load i16, ptr %67, align 2, !tbaa !13
  %69 = trunc i16 %68 to i8
  %70 = getelementptr inbounds i8, ptr %5, i64 9984
  store i8 %69, ptr %70, align 1, !tbaa !16
  %71 = getelementptr inbounds i16, ptr %4, i64 9985
  %72 = load i16, ptr %71, align 2, !tbaa !13
  %73 = trunc i16 %72 to i8
  %74 = getelementptr inbounds i8, ptr %5, i64 9985
  store i8 %73, ptr %74, align 1, !tbaa !16
  %75 = getelementptr inbounds i16, ptr %4, i64 9986
  %76 = load i16, ptr %75, align 2, !tbaa !13
  %77 = trunc i16 %76 to i8
  %78 = getelementptr inbounds i8, ptr %5, i64 9986
  store i8 %77, ptr %78, align 1, !tbaa !16
  %79 = getelementptr inbounds i16, ptr %4, i64 9987
  %80 = load i16, ptr %79, align 2, !tbaa !13
  %81 = trunc i16 %80 to i8
  %82 = getelementptr inbounds i8, ptr %5, i64 9987
  store i8 %81, ptr %82, align 1, !tbaa !16
  %83 = getelementptr inbounds i16, ptr %4, i64 9988
  %84 = load i16, ptr %83, align 2, !tbaa !13
  %85 = trunc i16 %84 to i8
  %86 = getelementptr inbounds i8, ptr %5, i64 9988
  store i8 %85, ptr %86, align 1, !tbaa !16
  %87 = getelementptr inbounds i16, ptr %4, i64 9989
  %88 = load i16, ptr %87, align 2, !tbaa !13
  %89 = trunc i16 %88 to i8
  %90 = getelementptr inbounds i8, ptr %5, i64 9989
  store i8 %89, ptr %90, align 1, !tbaa !16
  %91 = getelementptr inbounds i16, ptr %4, i64 9990
  %92 = load i16, ptr %91, align 2, !tbaa !13
  %93 = trunc i16 %92 to i8
  %94 = getelementptr inbounds i8, ptr %5, i64 9990
  store i8 %93, ptr %94, align 1, !tbaa !16
  %95 = getelementptr inbounds i16, ptr %4, i64 9991
  %96 = load i16, ptr %95, align 2, !tbaa !13
  %97 = trunc i16 %96 to i8
  %98 = getelementptr inbounds i8, ptr %5, i64 9991
  store i8 %97, ptr %98, align 1, !tbaa !16
  %99 = getelementptr inbounds i16, ptr %4, i64 9992
  %100 = load i16, ptr %99, align 2, !tbaa !13
  %101 = trunc i16 %100 to i8
  %102 = getelementptr inbounds i8, ptr %5, i64 9992
  store i8 %101, ptr %102, align 1, !tbaa !16
  %103 = getelementptr inbounds i16, ptr %4, i64 9993
  %104 = load i16, ptr %103, align 2, !tbaa !13
  %105 = trunc i16 %104 to i8
  %106 = getelementptr inbounds i8, ptr %5, i64 9993
  store i8 %105, ptr %106, align 1, !tbaa !16
  %107 = getelementptr inbounds i16, ptr %4, i64 9994
  %108 = load i16, ptr %107, align 2, !tbaa !13
  %109 = trunc i16 %108 to i8
  %110 = getelementptr inbounds i8, ptr %5, i64 9994
  store i8 %109, ptr %110, align 1, !tbaa !16
  %111 = getelementptr inbounds i16, ptr %4, i64 9995
  %112 = load i16, ptr %111, align 2, !tbaa !13
  %113 = trunc i16 %112 to i8
  %114 = getelementptr inbounds i8, ptr %5, i64 9995
  store i8 %113, ptr %114, align 1, !tbaa !16
  %115 = getelementptr inbounds i16, ptr %4, i64 9996
  %116 = load i16, ptr %115, align 2, !tbaa !13
  %117 = trunc i16 %116 to i8
  %118 = getelementptr inbounds i8, ptr %5, i64 9996
  store i8 %117, ptr %118, align 1, !tbaa !16
  %119 = getelementptr inbounds i16, ptr %4, i64 9997
  %120 = load i16, ptr %119, align 2, !tbaa !13
  %121 = trunc i16 %120 to i8
  %122 = getelementptr inbounds i8, ptr %5, i64 9997
  store i8 %121, ptr %122, align 1, !tbaa !16
  %123 = getelementptr inbounds i16, ptr %4, i64 9998
  %124 = load i16, ptr %123, align 2, !tbaa !13
  %125 = trunc i16 %124 to i8
  %126 = getelementptr inbounds i8, ptr %5, i64 9998
  store i8 %125, ptr %126, align 1, !tbaa !16
  %127 = getelementptr inbounds i16, ptr %4, i64 9999
  %128 = load i16, ptr %127, align 2, !tbaa !13
  %129 = trunc i16 %128 to i8
  %130 = getelementptr inbounds i8, ptr %5, i64 9999
  store i8 %129, ptr %130, align 1, !tbaa !16
  br label %137

131:                                              ; preds = %1
  %132 = landingpad { ptr, i32 }
          cleanup
  br label %282

133:                                              ; preds = %6
  %134 = landingpad { ptr, i32 }
          cleanup
  br label %279

135:                                              ; preds = %10
  %136 = landingpad { ptr, i32 }
          cleanup
  br label %275

137:                                              ; preds = %198, %66
  %138 = phi i64 [ 0, %66 ], [ %199, %198 ]
  %139 = getelementptr inbounds i8, ptr %5, i64 %138
  %140 = load i8, ptr %139, align 1, !tbaa !16
  %141 = getelementptr inbounds i8, ptr %7, i64 %138
  %142 = load i8, ptr %141, align 1, !tbaa !16
  %143 = icmp eq i8 %140, %142
  br i1 %143, label %170, label %144

144:                                              ; preds = %191, %184, %177, %170, %137
  %145 = phi i64 [ %138, %137 ], [ %171, %170 ], [ %178, %177 ], [ %185, %184 ], [ %192, %191 ]
  %146 = and i64 %145, 4294967295
  %147 = getelementptr inbounds i8, ptr %7, i64 %146
  %148 = invoke noundef nonnull align 8 dereferenceable(8) ptr @_ZSt16__ostream_insertIcSt11char_traitsIcEERSt13basic_ostreamIT_T0_ES6_PKS3_l(ptr noundef nonnull align 8 dereferenceable(8) @_ZSt4cerr, ptr noundef nonnull @.str.146, i64 noundef 34)
          to label %149 unwind label %168

149:                                              ; preds = %144
  %150 = getelementptr inbounds i16, ptr %4, i64 %146
  %151 = load i16, ptr %150, align 2, !tbaa !13
  %152 = zext i16 %151 to i64
  %153 = invoke noundef nonnull align 8 dereferenceable(8) ptr @_ZNSo9_M_insertImEERSoT_(ptr noundef nonnull align 8 dereferenceable(8) @_ZSt4cerr, i64 noundef %152)
          to label %154 unwind label %168

154:                                              ; preds = %149
  %155 = invoke noundef nonnull align 8 dereferenceable(8) ptr @_ZSt16__ostream_insertIcSt11char_traitsIcEERSt13basic_ostreamIT_T0_ES6_PKS3_l(ptr noundef nonnull align 8 dereferenceable(8) %153, ptr noundef nonnull @.str.147, i64 noundef 19)
          to label %156 unwind label %168

156:                                              ; preds = %154
  %157 = getelementptr inbounds i8, ptr %5, i64 %146
  %158 = load i8, ptr %157, align 1, !tbaa !16
  %159 = invoke noundef nonnull align 8 dereferenceable(8) ptr @_ZStlsISt11char_traitsIcEERSt13basic_ostreamIcT_ES5_h(ptr noundef nonnull align 8 dereferenceable(8) %153, i8 noundef zeroext %158)
          to label %160 unwind label %168

160:                                              ; preds = %156
  %161 = invoke noundef nonnull align 8 dereferenceable(8) ptr @_ZSt16__ostream_insertIcSt11char_traitsIcEERSt13basic_ostreamIT_T0_ES6_PKS3_l(ptr noundef nonnull align 8 dereferenceable(8) %159, ptr noundef nonnull @.str.148, i64 noundef 12)
          to label %162 unwind label %168

162:                                              ; preds = %160
  %163 = load i8, ptr %147, align 1, !tbaa !16
  %164 = invoke noundef nonnull align 8 dereferenceable(8) ptr @_ZStlsISt11char_traitsIcEERSt13basic_ostreamIcT_ES5_h(ptr noundef nonnull align 8 dereferenceable(8) %159, i8 noundef zeroext %163)
          to label %165 unwind label %168

165:                                              ; preds = %162
  %166 = invoke noundef nonnull align 8 dereferenceable(8) ptr @_ZStlsISt11char_traitsIcEERSt13basic_ostreamIcT_ES5_PKc(ptr noundef nonnull align 8 dereferenceable(8) %164, ptr noundef nonnull @.str.149)
          to label %167 unwind label %168

167:                                              ; preds = %165
  call void @exit(i32 noundef 1) #12
  unreachable

168:                                              ; preds = %165, %162, %160, %156, %154, %149, %144
  %169 = landingpad { ptr, i32 }
          cleanup
  br label %275

170:                                              ; preds = %137
  %171 = add nuw nsw i64 %138, 1
  %172 = getelementptr inbounds i8, ptr %5, i64 %171
  %173 = load i8, ptr %172, align 1, !tbaa !16
  %174 = getelementptr inbounds i8, ptr %7, i64 %171
  %175 = load i8, ptr %174, align 1, !tbaa !16
  %176 = icmp eq i8 %173, %175
  br i1 %176, label %177, label %144

177:                                              ; preds = %170
  %178 = add nuw nsw i64 %138, 2
  %179 = getelementptr inbounds i8, ptr %5, i64 %178
  %180 = load i8, ptr %179, align 1, !tbaa !16
  %181 = getelementptr inbounds i8, ptr %7, i64 %178
  %182 = load i8, ptr %181, align 1, !tbaa !16
  %183 = icmp eq i8 %180, %182
  br i1 %183, label %184, label %144

184:                                              ; preds = %177
  %185 = add nuw nsw i64 %138, 3
  %186 = getelementptr inbounds i8, ptr %5, i64 %185
  %187 = load i8, ptr %186, align 1, !tbaa !16
  %188 = getelementptr inbounds i8, ptr %7, i64 %185
  %189 = load i8, ptr %188, align 1, !tbaa !16
  %190 = icmp eq i8 %187, %189
  br i1 %190, label %191, label %144

191:                                              ; preds = %184
  %192 = add nuw nsw i64 %138, 4
  %193 = getelementptr inbounds i8, ptr %5, i64 %192
  %194 = load i8, ptr %193, align 1, !tbaa !16
  %195 = getelementptr inbounds i8, ptr %7, i64 %192
  %196 = load i8, ptr %195, align 1, !tbaa !16
  %197 = icmp eq i8 %194, %196
  br i1 %197, label %198, label %144

198:                                              ; preds = %191
  %199 = add nuw nsw i64 %138, 5
  %200 = icmp eq i64 %199, 10000
  br i1 %200, label %201, label %137, !llvm.loop !22

201:                                              ; preds = %198
  %202 = getelementptr inbounds %"class.benchmark::State", ptr %0, i64 0, i32 5
  %203 = load i8, ptr %202, align 2, !tbaa !23, !range !40, !noundef !41
  %204 = getelementptr inbounds %"class.benchmark::State", ptr %0, i64 0, i32 2
  %205 = load i64, ptr %204, align 8
  invoke void @_ZN9benchmark5State16StartKeepRunningEv(ptr noundef nonnull align 8 dereferenceable(144) %0)
          to label %206 unwind label %217

206:                                              ; preds = %201
  %207 = icmp ne i8 %203, 0
  %208 = icmp eq i64 %205, 0
  %209 = select i1 %207, i1 true, i1 %208
  br i1 %209, label %212, label %210, !prof !42

210:                                              ; preds = %206
  %211 = getelementptr i8, ptr %4, i64 20000
  br label %219

212:                                              ; preds = %272, %206
  invoke void @_ZN9benchmark5State17FinishKeepRunningEv(ptr noundef nonnull align 8 dereferenceable(144) %0)
          to label %213 unwind label %217

213:                                              ; preds = %212
  call void @_ZdaPv(ptr noundef nonnull %7) #13
  %214 = load ptr, ptr %3, align 8, !tbaa !5
  %215 = icmp eq ptr %214, null
  br i1 %215, label %284, label %216

216:                                              ; preds = %213
  call void @_ZdaPv(ptr noundef nonnull %214) #13
  br label %284

217:                                              ; preds = %212, %201
  %218 = landingpad { ptr, i32 }
          cleanup
  br label %275

219:                                              ; preds = %210, %272
  %220 = phi i64 [ %273, %272 ], [ %205, %210 ]
  %221 = load i64, ptr %3, align 8
  call void asm sideeffect "", "=*r|m,0,~{memory},~{dirflag},~{fpsr},~{flags}"(ptr nonnull elementtype(%"class.std::unique_ptr.33") %3, i64 %221) #11, !srcloc !43
  fence syncscope("singlethread") acq_rel
  %222 = load ptr, ptr %3, align 8, !tbaa !5
  %223 = getelementptr i8, ptr %222, i64 10000
  %224 = icmp ult ptr %222, %211
  %225 = icmp ult ptr %4, %223
  %226 = and i1 %224, %225
  br i1 %226, label %247, label %227

227:                                              ; preds = %219, %227
  %228 = phi i64 [ %245, %227 ], [ 0, %219 ]
  %229 = getelementptr inbounds i16, ptr %4, i64 %228
  %230 = load <16 x i16>, ptr %229, align 2, !tbaa !13, !alias.scope !52
  %231 = getelementptr inbounds i16, ptr %229, i64 16
  %232 = load <16 x i16>, ptr %231, align 2, !tbaa !13, !alias.scope !52
  %233 = getelementptr inbounds i16, ptr %229, i64 32
  %234 = load <16 x i16>, ptr %233, align 2, !tbaa !13, !alias.scope !52
  %235 = getelementptr inbounds i16, ptr %229, i64 48
  %236 = load <16 x i16>, ptr %235, align 2, !tbaa !13, !alias.scope !52
  %237 = trunc <16 x i16> %230 to <16 x i8>
  %238 = trunc <16 x i16> %232 to <16 x i8>
  %239 = trunc <16 x i16> %234 to <16 x i8>
  %240 = trunc <16 x i16> %236 to <16 x i8>
  %241 = getelementptr inbounds i8, ptr %222, i64 %228
  store <16 x i8> %237, ptr %241, align 1, !tbaa !16, !alias.scope !55, !noalias !52
  %242 = getelementptr inbounds i8, ptr %241, i64 16
  store <16 x i8> %238, ptr %242, align 1, !tbaa !16, !alias.scope !55, !noalias !52
  %243 = getelementptr inbounds i8, ptr %241, i64 32
  store <16 x i8> %239, ptr %243, align 1, !tbaa !16, !alias.scope !55, !noalias !52
  %244 = getelementptr inbounds i8, ptr %241, i64 48
  store <16 x i8> %240, ptr %244, align 1, !tbaa !16, !alias.scope !55, !noalias !52
  %245 = add nuw i64 %228, 64
  %246 = icmp eq i64 %245, 9984
  br i1 %246, label %247, label %227, !llvm.loop !57

247:                                              ; preds = %227, %219
  %248 = phi i64 [ 0, %219 ], [ 9984, %227 ]
  br label %249

249:                                              ; preds = %249, %247
  %250 = phi i64 [ %248, %247 ], [ %270, %249 ]
  %251 = getelementptr inbounds i16, ptr %4, i64 %250
  %252 = load i16, ptr %251, align 2, !tbaa !13
  %253 = trunc i16 %252 to i8
  %254 = getelementptr inbounds i8, ptr %222, i64 %250
  store i8 %253, ptr %254, align 1, !tbaa !16
  %255 = or i64 %250, 1
  %256 = getelementptr inbounds i16, ptr %4, i64 %255
  %257 = load i16, ptr %256, align 2, !tbaa !13
  %258 = trunc i16 %257 to i8
  %259 = getelementptr inbounds i8, ptr %222, i64 %255
  store i8 %258, ptr %259, align 1, !tbaa !16
  %260 = or i64 %250, 2
  %261 = getelementptr inbounds i16, ptr %4, i64 %260
  %262 = load i16, ptr %261, align 2, !tbaa !13
  %263 = trunc i16 %262 to i8
  %264 = getelementptr inbounds i8, ptr %222, i64 %260
  store i8 %263, ptr %264, align 1, !tbaa !16
  %265 = or i64 %250, 3
  %266 = getelementptr inbounds i16, ptr %4, i64 %265
  %267 = load i16, ptr %266, align 2, !tbaa !13
  %268 = trunc i16 %267 to i8
  %269 = getelementptr inbounds i8, ptr %222, i64 %265
  store i8 %268, ptr %269, align 1, !tbaa !16
  %270 = add nuw nsw i64 %250, 4
  %271 = icmp eq i64 %270, 10000
  br i1 %271, label %272, label %249, !llvm.loop !58

272:                                              ; preds = %249
  %273 = add i64 %220, -1
  %274 = icmp eq i64 %273, 0
  br i1 %274, label %212, label %219, !prof !42

275:                                              ; preds = %217, %168, %135
  %276 = phi { ptr, i32 } [ %169, %168 ], [ %218, %217 ], [ %136, %135 ]
  call void @_ZdaPv(ptr noundef nonnull %7) #13
  %277 = load ptr, ptr %3, align 8, !tbaa !5
  %278 = icmp eq ptr %277, null
  br i1 %278, label %282, label %279

279:                                              ; preds = %275, %133
  %280 = phi { ptr, i32 } [ %134, %133 ], [ %276, %275 ]
  %281 = phi ptr [ %5, %133 ], [ %277, %275 ]
  call void @_ZdaPv(ptr noundef nonnull %281) #13
  br label %282

282:                                              ; preds = %279, %275, %131
  %283 = phi { ptr, i32 } [ %132, %131 ], [ %276, %275 ], [ %280, %279 ]
  call void @llvm.lifetime.end.p0(i64 8, ptr nonnull %3) #11
  call void @_ZdaPv(ptr noundef nonnull %4) #13
  resume { ptr, i32 } %283

284:                                              ; preds = %213, %216
  call void @llvm.lifetime.end.p0(i64 8, ptr nonnull %3) #11
  call void @_ZdaPv(ptr noundef nonnull %4) #13
  ret void
}

; Function Attrs: uwtable
define dso_local void @_Z53benchForTruncOrZextVecInLoopFrom_uint16_t_To_uint8_t_RN9benchmark5StateE(ptr noundef nonnull align 8 dereferenceable(144) %0) #3 personality ptr @__gxx_personality_v0 {
  %2 = alloca %"class.std::uniform_int_distribution", align 2
  %3 = alloca %"class.std::unique_ptr.33", align 8
  %4 = tail call noalias noundef nonnull dereferenceable(20000) ptr @_Znam(i64 noundef 20000) #10
  call void @llvm.lifetime.start.p0(i64 8, ptr nonnull %3) #11
  %5 = invoke noalias noundef nonnull dereferenceable(10000) ptr @_Znam(i64 noundef 10000) #10
          to label %6 unwind label %68

6:                                                ; preds = %1
  store ptr %5, ptr %3, align 8, !tbaa !5
  %7 = invoke noalias noundef nonnull dereferenceable(10000) ptr @_Znam(i64 noundef 10000) #10
          to label %8 unwind label %70

8:                                                ; preds = %6
  call void @llvm.lifetime.start.p0(i64 4, ptr nonnull %2) #11
  store i16 0, ptr %2, align 2, !tbaa !9
  %9 = getelementptr inbounds %"struct.std::uniform_int_distribution<unsigned short>::param_type", ptr %2, i64 0, i32 1
  store i16 -1, ptr %9, align 2, !tbaa !12
  br label %10

10:                                               ; preds = %13, %8
  %11 = phi i64 [ 0, %8 ], [ %15, %13 ]
  %12 = invoke noundef zeroext i16 @_ZNSt24uniform_int_distributionItEclISt23mersenne_twister_engineImLm32ELm624ELm397ELm31ELm2567483615ELm11ELm4294967295ELm7ELm2636928640ELm15ELm4022730752ELm18ELm1812433253EEEEtRT_RKNS0_10param_typeE(ptr noundef nonnull align 2 dereferenceable(4) %2, ptr noundef nonnull align 8 dereferenceable(5000) @_ZL3rng, ptr noundef nonnull align 2 dereferenceable(4) %2)
          to label %13 unwind label %72

13:                                               ; preds = %10
  %14 = getelementptr inbounds i16, ptr %4, i64 %11
  store i16 %12, ptr %14, align 2, !tbaa !13
  %15 = add nuw nsw i64 %11, 1
  %16 = icmp eq i64 %15, 10000
  br i1 %16, label %17, label %10, !llvm.loop !14

17:                                               ; preds = %13
  call void @llvm.lifetime.end.p0(i64 4, ptr nonnull %2) #11
  br label %18

18:                                               ; preds = %18, %17
  %19 = phi i64 [ 0, %17 ], [ %44, %18 ]
  %20 = getelementptr inbounds i16, ptr %4, i64 %19
  %21 = load i16, ptr %20, align 2, !tbaa !13
  %22 = trunc i16 %21 to i8
  %23 = getelementptr inbounds i8, ptr %7, i64 %19
  store i8 %22, ptr %23, align 1, !tbaa !16
  %24 = add nuw nsw i64 %19, 1
  %25 = getelementptr inbounds i16, ptr %4, i64 %24
  %26 = load i16, ptr %25, align 2, !tbaa !13
  %27 = trunc i16 %26 to i8
  %28 = getelementptr inbounds i8, ptr %7, i64 %24
  store i8 %27, ptr %28, align 1, !tbaa !16
  %29 = add nuw nsw i64 %19, 2
  %30 = getelementptr inbounds i16, ptr %4, i64 %29
  %31 = load i16, ptr %30, align 2, !tbaa !13
  %32 = trunc i16 %31 to i8
  %33 = getelementptr inbounds i8, ptr %7, i64 %29
  store i8 %32, ptr %33, align 1, !tbaa !16
  %34 = add nuw nsw i64 %19, 3
  %35 = getelementptr inbounds i16, ptr %4, i64 %34
  %36 = load i16, ptr %35, align 2, !tbaa !13
  %37 = trunc i16 %36 to i8
  %38 = getelementptr inbounds i8, ptr %7, i64 %34
  store i8 %37, ptr %38, align 1, !tbaa !16
  %39 = add nuw nsw i64 %19, 4
  %40 = getelementptr inbounds i16, ptr %4, i64 %39
  %41 = load i16, ptr %40, align 2, !tbaa !13
  %42 = trunc i16 %41 to i8
  %43 = getelementptr inbounds i8, ptr %7, i64 %39
  store i8 %42, ptr %43, align 1, !tbaa !16
  %44 = add nuw nsw i64 %19, 5
  %45 = icmp eq i64 %44, 10000
  br i1 %45, label %46, label %18, !llvm.loop !17

46:                                               ; preds = %18, %58
  %47 = phi i64 [ %67, %58 ], [ 0, %18 ]
  %48 = getelementptr inbounds i16, ptr %4, i64 %47
  %49 = load <8 x i16>, ptr %48, align 2, !tbaa !13
  %50 = getelementptr inbounds i16, ptr %48, i64 8
  %51 = load <8 x i16>, ptr %50, align 2, !tbaa !13
  %52 = trunc <8 x i16> %49 to <8 x i8>
  %53 = trunc <8 x i16> %51 to <8 x i8>
  %54 = getelementptr inbounds i8, ptr %5, i64 %47
  store <8 x i8> %52, ptr %54, align 1, !tbaa !16
  %55 = getelementptr inbounds i8, ptr %54, i64 8
  store <8 x i8> %53, ptr %55, align 1, !tbaa !16
  %56 = or i64 %47, 16
  %57 = icmp eq i64 %56, 10000
  br i1 %57, label %74, label %58, !llvm.loop !59

58:                                               ; preds = %46
  %59 = getelementptr inbounds i16, ptr %4, i64 %56
  %60 = load <8 x i16>, ptr %59, align 2, !tbaa !13
  %61 = getelementptr inbounds i16, ptr %59, i64 8
  %62 = load <8 x i16>, ptr %61, align 2, !tbaa !13
  %63 = trunc <8 x i16> %60 to <8 x i8>
  %64 = trunc <8 x i16> %62 to <8 x i8>
  %65 = getelementptr inbounds i8, ptr %5, i64 %56
  store <8 x i8> %63, ptr %65, align 1, !tbaa !16
  %66 = getelementptr inbounds i8, ptr %65, i64 8
  store <8 x i8> %64, ptr %66, align 1, !tbaa !16
  %67 = add nuw nsw i64 %47, 32
  br label %46

68:                                               ; preds = %1
  %69 = landingpad { ptr, i32 }
          cleanup
  br label %224

70:                                               ; preds = %6
  %71 = landingpad { ptr, i32 }
          cleanup
  br label %221

72:                                               ; preds = %10
  %73 = landingpad { ptr, i32 }
          cleanup
  br label %217

74:                                               ; preds = %46, %135
  %75 = phi i64 [ %136, %135 ], [ 0, %46 ]
  %76 = getelementptr inbounds i8, ptr %5, i64 %75
  %77 = load i8, ptr %76, align 1, !tbaa !16
  %78 = getelementptr inbounds i8, ptr %7, i64 %75
  %79 = load i8, ptr %78, align 1, !tbaa !16
  %80 = icmp eq i8 %77, %79
  br i1 %80, label %107, label %81

81:                                               ; preds = %128, %121, %114, %107, %74
  %82 = phi i64 [ %75, %74 ], [ %108, %107 ], [ %115, %114 ], [ %122, %121 ], [ %129, %128 ]
  %83 = and i64 %82, 4294967295
  %84 = getelementptr inbounds i8, ptr %7, i64 %83
  %85 = invoke noundef nonnull align 8 dereferenceable(8) ptr @_ZSt16__ostream_insertIcSt11char_traitsIcEERSt13basic_ostreamIT_T0_ES6_PKS3_l(ptr noundef nonnull align 8 dereferenceable(8) @_ZSt4cerr, ptr noundef nonnull @.str.146, i64 noundef 34)
          to label %86 unwind label %105

86:                                               ; preds = %81
  %87 = getelementptr inbounds i16, ptr %4, i64 %83
  %88 = load i16, ptr %87, align 2, !tbaa !13
  %89 = zext i16 %88 to i64
  %90 = invoke noundef nonnull align 8 dereferenceable(8) ptr @_ZNSo9_M_insertImEERSoT_(ptr noundef nonnull align 8 dereferenceable(8) @_ZSt4cerr, i64 noundef %89)
          to label %91 unwind label %105

91:                                               ; preds = %86
  %92 = invoke noundef nonnull align 8 dereferenceable(8) ptr @_ZSt16__ostream_insertIcSt11char_traitsIcEERSt13basic_ostreamIT_T0_ES6_PKS3_l(ptr noundef nonnull align 8 dereferenceable(8) %90, ptr noundef nonnull @.str.147, i64 noundef 19)
          to label %93 unwind label %105

93:                                               ; preds = %91
  %94 = getelementptr inbounds i8, ptr %5, i64 %83
  %95 = load i8, ptr %94, align 1, !tbaa !16
  %96 = invoke noundef nonnull align 8 dereferenceable(8) ptr @_ZStlsISt11char_traitsIcEERSt13basic_ostreamIcT_ES5_h(ptr noundef nonnull align 8 dereferenceable(8) %90, i8 noundef zeroext %95)
          to label %97 unwind label %105

97:                                               ; preds = %93
  %98 = invoke noundef nonnull align 8 dereferenceable(8) ptr @_ZSt16__ostream_insertIcSt11char_traitsIcEERSt13basic_ostreamIT_T0_ES6_PKS3_l(ptr noundef nonnull align 8 dereferenceable(8) %96, ptr noundef nonnull @.str.148, i64 noundef 12)
          to label %99 unwind label %105

99:                                               ; preds = %97
  %100 = load i8, ptr %84, align 1, !tbaa !16
  %101 = invoke noundef nonnull align 8 dereferenceable(8) ptr @_ZStlsISt11char_traitsIcEERSt13basic_ostreamIcT_ES5_h(ptr noundef nonnull align 8 dereferenceable(8) %96, i8 noundef zeroext %100)
          to label %102 unwind label %105

102:                                              ; preds = %99
  %103 = invoke noundef nonnull align 8 dereferenceable(8) ptr @_ZStlsISt11char_traitsIcEERSt13basic_ostreamIcT_ES5_PKc(ptr noundef nonnull align 8 dereferenceable(8) %101, ptr noundef nonnull @.str.149)
          to label %104 unwind label %105

104:                                              ; preds = %102
  call void @exit(i32 noundef 1) #12
  unreachable

105:                                              ; preds = %102, %99, %97, %93, %91, %86, %81
  %106 = landingpad { ptr, i32 }
          cleanup
  br label %217

107:                                              ; preds = %74
  %108 = add nuw nsw i64 %75, 1
  %109 = getelementptr inbounds i8, ptr %5, i64 %108
  %110 = load i8, ptr %109, align 1, !tbaa !16
  %111 = getelementptr inbounds i8, ptr %7, i64 %108
  %112 = load i8, ptr %111, align 1, !tbaa !16
  %113 = icmp eq i8 %110, %112
  br i1 %113, label %114, label %81

114:                                              ; preds = %107
  %115 = add nuw nsw i64 %75, 2
  %116 = getelementptr inbounds i8, ptr %5, i64 %115
  %117 = load i8, ptr %116, align 1, !tbaa !16
  %118 = getelementptr inbounds i8, ptr %7, i64 %115
  %119 = load i8, ptr %118, align 1, !tbaa !16
  %120 = icmp eq i8 %117, %119
  br i1 %120, label %121, label %81

121:                                              ; preds = %114
  %122 = add nuw nsw i64 %75, 3
  %123 = getelementptr inbounds i8, ptr %5, i64 %122
  %124 = load i8, ptr %123, align 1, !tbaa !16
  %125 = getelementptr inbounds i8, ptr %7, i64 %122
  %126 = load i8, ptr %125, align 1, !tbaa !16
  %127 = icmp eq i8 %124, %126
  br i1 %127, label %128, label %81

128:                                              ; preds = %121
  %129 = add nuw nsw i64 %75, 4
  %130 = getelementptr inbounds i8, ptr %5, i64 %129
  %131 = load i8, ptr %130, align 1, !tbaa !16
  %132 = getelementptr inbounds i8, ptr %7, i64 %129
  %133 = load i8, ptr %132, align 1, !tbaa !16
  %134 = icmp eq i8 %131, %133
  br i1 %134, label %135, label %81

135:                                              ; preds = %128
  %136 = add nuw nsw i64 %75, 5
  %137 = icmp eq i64 %136, 10000
  br i1 %137, label %138, label %74, !llvm.loop !22

138:                                              ; preds = %135
  %139 = getelementptr inbounds %"class.benchmark::State", ptr %0, i64 0, i32 5
  %140 = load i8, ptr %139, align 2, !tbaa !23, !range !40, !noundef !41
  %141 = getelementptr inbounds %"class.benchmark::State", ptr %0, i64 0, i32 2
  %142 = load i64, ptr %141, align 8
  invoke void @_ZN9benchmark5State16StartKeepRunningEv(ptr noundef nonnull align 8 dereferenceable(144) %0)
          to label %143 unwind label %154

143:                                              ; preds = %138
  %144 = icmp ne i8 %140, 0
  %145 = icmp eq i64 %142, 0
  %146 = select i1 %144, i1 true, i1 %145
  br i1 %146, label %149, label %147, !prof !42

147:                                              ; preds = %143
  %148 = getelementptr i8, ptr %4, i64 20000
  br label %156

149:                                              ; preds = %214, %143
  invoke void @_ZN9benchmark5State17FinishKeepRunningEv(ptr noundef nonnull align 8 dereferenceable(144) %0)
          to label %150 unwind label %154

150:                                              ; preds = %149
  call void @_ZdaPv(ptr noundef nonnull %7) #13
  %151 = load ptr, ptr %3, align 8, !tbaa !5
  %152 = icmp eq ptr %151, null
  br i1 %152, label %226, label %153

153:                                              ; preds = %150
  call void @_ZdaPv(ptr noundef nonnull %151) #13
  br label %226

154:                                              ; preds = %149, %138
  %155 = landingpad { ptr, i32 }
          cleanup
  br label %217

156:                                              ; preds = %147, %214
  %157 = phi i64 [ %215, %214 ], [ %142, %147 ]
  %158 = load i64, ptr %3, align 8
  call void asm sideeffect "", "=*r|m,0,~{memory},~{dirflag},~{fpsr},~{flags}"(ptr nonnull elementtype(%"class.std::unique_ptr.33") %3, i64 %158) #11, !srcloc !43
  fence syncscope("singlethread") acq_rel
  %159 = load ptr, ptr %3, align 8, !tbaa !5
  %160 = getelementptr i8, ptr %159, i64 10000
  %161 = icmp ult ptr %159, %148
  %162 = icmp ult ptr %4, %160
  %163 = and i1 %161, %162
  br i1 %163, label %186, label %164

164:                                              ; preds = %156, %176
  %165 = phi i64 [ %185, %176 ], [ 0, %156 ]
  %166 = getelementptr inbounds i16, ptr %4, i64 %165
  %167 = load <8 x i16>, ptr %166, align 2, !tbaa !13, !alias.scope !60
  %168 = getelementptr inbounds i16, ptr %166, i64 8
  %169 = load <8 x i16>, ptr %168, align 2, !tbaa !13, !alias.scope !60
  %170 = trunc <8 x i16> %167 to <8 x i8>
  %171 = trunc <8 x i16> %169 to <8 x i8>
  %172 = getelementptr inbounds i8, ptr %159, i64 %165
  store <8 x i8> %170, ptr %172, align 1, !tbaa !16, !alias.scope !63, !noalias !60
  %173 = getelementptr inbounds i8, ptr %172, i64 8
  store <8 x i8> %171, ptr %173, align 1, !tbaa !16, !alias.scope !63, !noalias !60
  %174 = or i64 %165, 16
  %175 = icmp eq i64 %174, 10000
  br i1 %175, label %214, label %176, !llvm.loop !65

176:                                              ; preds = %164
  %177 = getelementptr inbounds i16, ptr %4, i64 %174
  %178 = load <8 x i16>, ptr %177, align 2, !tbaa !13, !alias.scope !60
  %179 = getelementptr inbounds i16, ptr %177, i64 8
  %180 = load <8 x i16>, ptr %179, align 2, !tbaa !13, !alias.scope !60
  %181 = trunc <8 x i16> %178 to <8 x i8>
  %182 = trunc <8 x i16> %180 to <8 x i8>
  %183 = getelementptr inbounds i8, ptr %159, i64 %174
  store <8 x i8> %181, ptr %183, align 1, !tbaa !16, !alias.scope !63, !noalias !60
  %184 = getelementptr inbounds i8, ptr %183, i64 8
  store <8 x i8> %182, ptr %184, align 1, !tbaa !16, !alias.scope !63, !noalias !60
  %185 = add nuw nsw i64 %165, 32
  br label %164

186:                                              ; preds = %156, %186
  %187 = phi i64 [ %212, %186 ], [ 0, %156 ]
  %188 = getelementptr inbounds i16, ptr %4, i64 %187
  %189 = load i16, ptr %188, align 2, !tbaa !13
  %190 = trunc i16 %189 to i8
  %191 = getelementptr inbounds i8, ptr %159, i64 %187
  store i8 %190, ptr %191, align 1, !tbaa !16
  %192 = add nuw nsw i64 %187, 1
  %193 = getelementptr inbounds i16, ptr %4, i64 %192
  %194 = load i16, ptr %193, align 2, !tbaa !13
  %195 = trunc i16 %194 to i8
  %196 = getelementptr inbounds i8, ptr %159, i64 %192
  store i8 %195, ptr %196, align 1, !tbaa !16
  %197 = add nuw nsw i64 %187, 2
  %198 = getelementptr inbounds i16, ptr %4, i64 %197
  %199 = load i16, ptr %198, align 2, !tbaa !13
  %200 = trunc i16 %199 to i8
  %201 = getelementptr inbounds i8, ptr %159, i64 %197
  store i8 %200, ptr %201, align 1, !tbaa !16
  %202 = add nuw nsw i64 %187, 3
  %203 = getelementptr inbounds i16, ptr %4, i64 %202
  %204 = load i16, ptr %203, align 2, !tbaa !13
  %205 = trunc i16 %204 to i8
  %206 = getelementptr inbounds i8, ptr %159, i64 %202
  store i8 %205, ptr %206, align 1, !tbaa !16
  %207 = add nuw nsw i64 %187, 4
  %208 = getelementptr inbounds i16, ptr %4, i64 %207
  %209 = load i16, ptr %208, align 2, !tbaa !13
  %210 = trunc i16 %209 to i8
  %211 = getelementptr inbounds i8, ptr %159, i64 %207
  store i8 %210, ptr %211, align 1, !tbaa !16
  %212 = add nuw nsw i64 %187, 5
  %213 = icmp eq i64 %212, 10000
  br i1 %213, label %214, label %186, !llvm.loop !66

214:                                              ; preds = %164, %186
  %215 = add i64 %157, -1
  %216 = icmp eq i64 %215, 0
  br i1 %216, label %149, label %156, !prof !42

217:                                              ; preds = %154, %105, %72
  %218 = phi { ptr, i32 } [ %106, %105 ], [ %155, %154 ], [ %73, %72 ]
  call void @_ZdaPv(ptr noundef nonnull %7) #13
  %219 = load ptr, ptr %3, align 8, !tbaa !5
  %220 = icmp eq ptr %219, null
  br i1 %220, label %224, label %221

221:                                              ; preds = %217, %70
  %222 = phi { ptr, i32 } [ %71, %70 ], [ %218, %217 ]
  %223 = phi ptr [ %5, %70 ], [ %219, %217 ]
  call void @_ZdaPv(ptr noundef nonnull %223) #13
  br label %224

224:                                              ; preds = %221, %217, %68
  %225 = phi { ptr, i32 } [ %69, %68 ], [ %218, %217 ], [ %222, %221 ]
  call void @llvm.lifetime.end.p0(i64 8, ptr nonnull %3) #11
  call void @_ZdaPv(ptr noundef nonnull %4) #13
  resume { ptr, i32 } %225

226:                                              ; preds = %150, %153
  call void @llvm.lifetime.end.p0(i64 8, ptr nonnull %3) #11
  call void @_ZdaPv(ptr noundef nonnull %4) #13
  ret void
}

; Function Attrs: uwtable
define dso_local void @_Z67benchForTruncOrZextVecWithAddInLoopWithVW8From_uint16_t_To_uint8_t_RN9benchmark5StateE(ptr noundef nonnull align 8 dereferenceable(144) %0) #3 personality ptr @__gxx_personality_v0 {
  %2 = alloca %"class.std::uniform_int_distribution.43", align 1
  %3 = alloca %"class.std::uniform_int_distribution", align 2
  %4 = alloca %"class.std::unique_ptr.33", align 8
  %5 = tail call noalias noundef nonnull dereferenceable(20000) ptr @_Znam(i64 noundef 20000) #10
  call void @llvm.lifetime.start.p0(i64 8, ptr nonnull %4) #11
  %6 = invoke noalias noundef nonnull dereferenceable(10000) ptr @_Znam(i64 noundef 10000) #10
          to label %7 unwind label %42

7:                                                ; preds = %1
  store ptr %6, ptr %4, align 8, !tbaa !5
  call void @llvm.lifetime.start.p0(i64 4, ptr nonnull %3) #11
  store i16 0, ptr %3, align 2, !tbaa !9
  %8 = getelementptr inbounds %"struct.std::uniform_int_distribution<unsigned short>::param_type", ptr %3, i64 0, i32 1
  store i16 -1, ptr %8, align 2, !tbaa !12
  br label %9

9:                                                ; preds = %12, %7
  %10 = phi i64 [ 0, %7 ], [ %14, %12 ]
  %11 = invoke noundef zeroext i16 @_ZNSt24uniform_int_distributionItEclISt23mersenne_twister_engineImLm32ELm624ELm397ELm31ELm2567483615ELm11ELm4294967295ELm7ELm2636928640ELm15ELm4022730752ELm18ELm1812433253EEEEtRT_RKNS0_10param_typeE(ptr noundef nonnull align 2 dereferenceable(4) %3, ptr noundef nonnull align 8 dereferenceable(5000) @_ZL3rng, ptr noundef nonnull align 2 dereferenceable(4) %3)
          to label %12 unwind label %46

12:                                               ; preds = %9
  %13 = getelementptr inbounds i16, ptr %5, i64 %10
  store i16 %11, ptr %13, align 2, !tbaa !13
  %14 = add nuw nsw i64 %10, 1
  %15 = icmp eq i64 %14, 10000
  br i1 %15, label %16, label %9, !llvm.loop !14

16:                                               ; preds = %12
  call void @llvm.lifetime.end.p0(i64 4, ptr nonnull %3) #11
  call void @llvm.lifetime.start.p0(i64 2, ptr nonnull %2) #11
  store i8 0, ptr %2, align 1, !tbaa !67
  %17 = getelementptr inbounds %"struct.std::uniform_int_distribution<unsigned char>::param_type", ptr %2, i64 0, i32 1
  store i8 -1, ptr %17, align 1, !tbaa !69
  br label %18

18:                                               ; preds = %21, %16
  %19 = phi i64 [ 0, %16 ], [ %24, %21 ]
  %20 = invoke noundef zeroext i8 @_ZNSt24uniform_int_distributionIhEclISt23mersenne_twister_engineImLm32ELm624ELm397ELm31ELm2567483615ELm11ELm4294967295ELm7ELm2636928640ELm15ELm4022730752ELm18ELm1812433253EEEEhRT_RKNS0_10param_typeE(ptr noundef nonnull align 1 dereferenceable(2) %2, ptr noundef nonnull align 8 dereferenceable(5000) @_ZL3rng, ptr noundef nonnull align 1 dereferenceable(2) %2)
          to label %21 unwind label %44

21:                                               ; preds = %18
  %22 = load ptr, ptr %4, align 8, !tbaa !5
  %23 = getelementptr inbounds i8, ptr %22, i64 %19
  store i8 %20, ptr %23, align 1, !tbaa !16
  %24 = add nuw nsw i64 %19, 1
  %25 = icmp eq i64 %24, 10000
  br i1 %25, label %26, label %18, !llvm.loop !70

26:                                               ; preds = %21
  call void @llvm.lifetime.end.p0(i64 2, ptr nonnull %2) #11
  %27 = getelementptr inbounds %"class.benchmark::State", ptr %0, i64 0, i32 5
  %28 = load i8, ptr %27, align 2, !tbaa !23, !range !40, !noundef !41
  %29 = getelementptr inbounds %"class.benchmark::State", ptr %0, i64 0, i32 2
  %30 = load i64, ptr %29, align 8
  invoke void @_ZN9benchmark5State16StartKeepRunningEv(ptr noundef nonnull align 8 dereferenceable(144) %0)
          to label %31 unwind label %48

31:                                               ; preds = %26
  %32 = icmp ne i8 %28, 0
  %33 = icmp eq i64 %30, 0
  %34 = select i1 %32, i1 true, i1 %33
  br i1 %34, label %37, label %35, !prof !42

35:                                               ; preds = %31
  %36 = getelementptr i8, ptr %5, i64 20000
  br label %50

37:                                               ; preds = %119, %31
  invoke void @_ZN9benchmark5State17FinishKeepRunningEv(ptr noundef nonnull align 8 dereferenceable(144) %0)
          to label %38 unwind label %48

38:                                               ; preds = %37
  %39 = load ptr, ptr %4, align 8, !tbaa !5
  %40 = icmp eq ptr %39, null
  br i1 %40, label %129, label %41

41:                                               ; preds = %38
  call void @_ZdaPv(ptr noundef nonnull %39) #13
  br label %129

42:                                               ; preds = %1
  %43 = landingpad { ptr, i32 }
          cleanup
  br label %127

44:                                               ; preds = %18
  %45 = landingpad { ptr, i32 }
          cleanup
  br label %122

46:                                               ; preds = %9
  %47 = landingpad { ptr, i32 }
          cleanup
  br label %122

48:                                               ; preds = %37, %26
  %49 = landingpad { ptr, i32 }
          cleanup
  br label %122

50:                                               ; preds = %35, %119
  %51 = phi i64 [ %120, %119 ], [ %30, %35 ]
  %52 = load i64, ptr %4, align 8
  call void asm sideeffect "", "=*r|m,0,~{memory},~{dirflag},~{fpsr},~{flags}"(ptr nonnull elementtype(%"class.std::unique_ptr.33") %4, i64 %52) #11, !srcloc !43
  fence syncscope("singlethread") acq_rel
  %53 = load ptr, ptr %4, align 8, !tbaa !5
  %54 = getelementptr i8, ptr %53, i64 10000
  %55 = icmp ult ptr %53, %36
  %56 = icmp ult ptr %5, %54
  %57 = and i1 %55, %56
  br i1 %57, label %86, label %58

58:                                               ; preds = %50, %58
  %59 = phi i64 [ %84, %58 ], [ 0, %50 ]
  %60 = getelementptr inbounds i16, ptr %5, i64 %59
  %61 = load <8 x i16>, ptr %60, align 2, !tbaa !13, !alias.scope !71
  %62 = getelementptr inbounds i16, ptr %60, i64 8
  %63 = load <8 x i16>, ptr %62, align 2, !tbaa !13, !alias.scope !71
  %64 = getelementptr inbounds i16, ptr %60, i64 16
  %65 = load <8 x i16>, ptr %64, align 2, !tbaa !13, !alias.scope !71
  %66 = getelementptr inbounds i16, ptr %60, i64 24
  %67 = load <8 x i16>, ptr %66, align 2, !tbaa !13, !alias.scope !71
  %68 = trunc <8 x i16> %61 to <8 x i8>
  %69 = trunc <8 x i16> %63 to <8 x i8>
  %70 = trunc <8 x i16> %65 to <8 x i8>
  %71 = trunc <8 x i16> %67 to <8 x i8>
  %72 = getelementptr inbounds i8, ptr %53, i64 %59
  %73 = load <8 x i8>, ptr %72, align 1, !tbaa !16, !alias.scope !74, !noalias !71
  %74 = getelementptr inbounds i8, ptr %72, i64 8
  %75 = load <8 x i8>, ptr %74, align 1, !tbaa !16, !alias.scope !74, !noalias !71
  %76 = getelementptr inbounds i8, ptr %72, i64 16
  %77 = load <8 x i8>, ptr %76, align 1, !tbaa !16, !alias.scope !74, !noalias !71
  %78 = getelementptr inbounds i8, ptr %72, i64 24
  %79 = load <8 x i8>, ptr %78, align 1, !tbaa !16, !alias.scope !74, !noalias !71
  %80 = add <8 x i8> %73, %68
  %81 = add <8 x i8> %75, %69
  %82 = add <8 x i8> %77, %70
  %83 = add <8 x i8> %79, %71
  store <8 x i8> %80, ptr %72, align 1, !tbaa !16, !alias.scope !74, !noalias !71
  store <8 x i8> %81, ptr %74, align 1, !tbaa !16, !alias.scope !74, !noalias !71
  store <8 x i8> %82, ptr %76, align 1, !tbaa !16, !alias.scope !74, !noalias !71
  store <8 x i8> %83, ptr %78, align 1, !tbaa !16, !alias.scope !74, !noalias !71
  %84 = add nuw i64 %59, 32
  %85 = icmp eq i64 %84, 9984
  br i1 %85, label %86, label %58, !llvm.loop !76

86:                                               ; preds = %58, %50
  %87 = phi i64 [ 0, %50 ], [ 9984, %58 ]
  br label %88

88:                                               ; preds = %88, %86
  %89 = phi i64 [ %87, %86 ], [ %117, %88 ]
  %90 = getelementptr inbounds i16, ptr %5, i64 %89
  %91 = load i16, ptr %90, align 2, !tbaa !13
  %92 = trunc i16 %91 to i8
  %93 = getelementptr inbounds i8, ptr %53, i64 %89
  %94 = load i8, ptr %93, align 1, !tbaa !16
  %95 = add i8 %94, %92
  store i8 %95, ptr %93, align 1, !tbaa !16
  %96 = or i64 %89, 1
  %97 = getelementptr inbounds i16, ptr %5, i64 %96
  %98 = load i16, ptr %97, align 2, !tbaa !13
  %99 = trunc i16 %98 to i8
  %100 = getelementptr inbounds i8, ptr %53, i64 %96
  %101 = load i8, ptr %100, align 1, !tbaa !16
  %102 = add i8 %101, %99
  store i8 %102, ptr %100, align 1, !tbaa !16
  %103 = or i64 %89, 2
  %104 = getelementptr inbounds i16, ptr %5, i64 %103
  %105 = load i16, ptr %104, align 2, !tbaa !13
  %106 = trunc i16 %105 to i8
  %107 = getelementptr inbounds i8, ptr %53, i64 %103
  %108 = load i8, ptr %107, align 1, !tbaa !16
  %109 = add i8 %108, %106
  store i8 %109, ptr %107, align 1, !tbaa !16
  %110 = or i64 %89, 3
  %111 = getelementptr inbounds i16, ptr %5, i64 %110
  %112 = load i16, ptr %111, align 2, !tbaa !13
  %113 = trunc i16 %112 to i8
  %114 = getelementptr inbounds i8, ptr %53, i64 %110
  %115 = load i8, ptr %114, align 1, !tbaa !16
  %116 = add i8 %115, %113
  store i8 %116, ptr %114, align 1, !tbaa !16
  %117 = add nuw nsw i64 %89, 4
  %118 = icmp eq i64 %117, 10000
  br i1 %118, label %119, label %88, !llvm.loop !77

119:                                              ; preds = %88
  %120 = add i64 %51, -1
  %121 = icmp eq i64 %120, 0
  br i1 %121, label %37, label %50, !prof !42

122:                                              ; preds = %48, %46, %44
  %123 = phi { ptr, i32 } [ %49, %48 ], [ %45, %44 ], [ %47, %46 ]
  %124 = load ptr, ptr %4, align 8, !tbaa !5
  %125 = icmp eq ptr %124, null
  br i1 %125, label %127, label %126

126:                                              ; preds = %122
  call void @_ZdaPv(ptr noundef nonnull %124) #13
  br label %127

127:                                              ; preds = %126, %122, %42
  %128 = phi { ptr, i32 } [ %43, %42 ], [ %123, %122 ], [ %123, %126 ]
  call void @llvm.lifetime.end.p0(i64 8, ptr nonnull %4) #11
  call void @_ZdaPv(ptr noundef nonnull %5) #13
  resume { ptr, i32 } %128

129:                                              ; preds = %38, %41
  call void @llvm.lifetime.end.p0(i64 8, ptr nonnull %4) #11
  call void @_ZdaPv(ptr noundef nonnull %5) #13
  ret void
}

; Function Attrs: uwtable
define dso_local void @_Z68benchForTruncOrZextVecWithAddInLoopWithVW16From_uint16_t_To_uint8_t_RN9benchmark5StateE(ptr noundef nonnull align 8 dereferenceable(144) %0) #3 personality ptr @__gxx_personality_v0 {
  %2 = alloca %"class.std::uniform_int_distribution.43", align 1
  %3 = alloca %"class.std::uniform_int_distribution", align 2
  %4 = alloca %"class.std::unique_ptr.33", align 8
  %5 = tail call noalias noundef nonnull dereferenceable(20000) ptr @_Znam(i64 noundef 20000) #10
  call void @llvm.lifetime.start.p0(i64 8, ptr nonnull %4) #11
  %6 = invoke noalias noundef nonnull dereferenceable(10000) ptr @_Znam(i64 noundef 10000) #10
          to label %7 unwind label %42

7:                                                ; preds = %1
  store ptr %6, ptr %4, align 8, !tbaa !5
  call void @llvm.lifetime.start.p0(i64 4, ptr nonnull %3) #11
  store i16 0, ptr %3, align 2, !tbaa !9
  %8 = getelementptr inbounds %"struct.std::uniform_int_distribution<unsigned short>::param_type", ptr %3, i64 0, i32 1
  store i16 -1, ptr %8, align 2, !tbaa !12
  br label %9

9:                                                ; preds = %12, %7
  %10 = phi i64 [ 0, %7 ], [ %14, %12 ]
  %11 = invoke noundef zeroext i16 @_ZNSt24uniform_int_distributionItEclISt23mersenne_twister_engineImLm32ELm624ELm397ELm31ELm2567483615ELm11ELm4294967295ELm7ELm2636928640ELm15ELm4022730752ELm18ELm1812433253EEEEtRT_RKNS0_10param_typeE(ptr noundef nonnull align 2 dereferenceable(4) %3, ptr noundef nonnull align 8 dereferenceable(5000) @_ZL3rng, ptr noundef nonnull align 2 dereferenceable(4) %3)
          to label %12 unwind label %46

12:                                               ; preds = %9
  %13 = getelementptr inbounds i16, ptr %5, i64 %10
  store i16 %11, ptr %13, align 2, !tbaa !13
  %14 = add nuw nsw i64 %10, 1
  %15 = icmp eq i64 %14, 10000
  br i1 %15, label %16, label %9, !llvm.loop !14

16:                                               ; preds = %12
  call void @llvm.lifetime.end.p0(i64 4, ptr nonnull %3) #11
  call void @llvm.lifetime.start.p0(i64 2, ptr nonnull %2) #11
  store i8 0, ptr %2, align 1, !tbaa !67
  %17 = getelementptr inbounds %"struct.std::uniform_int_distribution<unsigned char>::param_type", ptr %2, i64 0, i32 1
  store i8 -1, ptr %17, align 1, !tbaa !69
  br label %18

18:                                               ; preds = %21, %16
  %19 = phi i64 [ 0, %16 ], [ %24, %21 ]
  %20 = invoke noundef zeroext i8 @_ZNSt24uniform_int_distributionIhEclISt23mersenne_twister_engineImLm32ELm624ELm397ELm31ELm2567483615ELm11ELm4294967295ELm7ELm2636928640ELm15ELm4022730752ELm18ELm1812433253EEEEhRT_RKNS0_10param_typeE(ptr noundef nonnull align 1 dereferenceable(2) %2, ptr noundef nonnull align 8 dereferenceable(5000) @_ZL3rng, ptr noundef nonnull align 1 dereferenceable(2) %2)
          to label %21 unwind label %44

21:                                               ; preds = %18
  %22 = load ptr, ptr %4, align 8, !tbaa !5
  %23 = getelementptr inbounds i8, ptr %22, i64 %19
  store i8 %20, ptr %23, align 1, !tbaa !16
  %24 = add nuw nsw i64 %19, 1
  %25 = icmp eq i64 %24, 10000
  br i1 %25, label %26, label %18, !llvm.loop !70

26:                                               ; preds = %21
  call void @llvm.lifetime.end.p0(i64 2, ptr nonnull %2) #11
  %27 = getelementptr inbounds %"class.benchmark::State", ptr %0, i64 0, i32 5
  %28 = load i8, ptr %27, align 2, !tbaa !23, !range !40, !noundef !41
  %29 = getelementptr inbounds %"class.benchmark::State", ptr %0, i64 0, i32 2
  %30 = load i64, ptr %29, align 8
  invoke void @_ZN9benchmark5State16StartKeepRunningEv(ptr noundef nonnull align 8 dereferenceable(144) %0)
          to label %31 unwind label %48

31:                                               ; preds = %26
  %32 = icmp ne i8 %28, 0
  %33 = icmp eq i64 %30, 0
  %34 = select i1 %32, i1 true, i1 %33
  br i1 %34, label %37, label %35, !prof !42

35:                                               ; preds = %31
  %36 = getelementptr i8, ptr %5, i64 20000
  br label %50

37:                                               ; preds = %119, %31
  invoke void @_ZN9benchmark5State17FinishKeepRunningEv(ptr noundef nonnull align 8 dereferenceable(144) %0)
          to label %38 unwind label %48

38:                                               ; preds = %37
  %39 = load ptr, ptr %4, align 8, !tbaa !5
  %40 = icmp eq ptr %39, null
  br i1 %40, label %129, label %41

41:                                               ; preds = %38
  call void @_ZdaPv(ptr noundef nonnull %39) #13
  br label %129

42:                                               ; preds = %1
  %43 = landingpad { ptr, i32 }
          cleanup
  br label %127

44:                                               ; preds = %18
  %45 = landingpad { ptr, i32 }
          cleanup
  br label %122

46:                                               ; preds = %9
  %47 = landingpad { ptr, i32 }
          cleanup
  br label %122

48:                                               ; preds = %37, %26
  %49 = landingpad { ptr, i32 }
          cleanup
  br label %122

50:                                               ; preds = %35, %119
  %51 = phi i64 [ %120, %119 ], [ %30, %35 ]
  %52 = load i64, ptr %4, align 8
  call void asm sideeffect "", "=*r|m,0,~{memory},~{dirflag},~{fpsr},~{flags}"(ptr nonnull elementtype(%"class.std::unique_ptr.33") %4, i64 %52) #11, !srcloc !43
  fence syncscope("singlethread") acq_rel
  %53 = load ptr, ptr %4, align 8, !tbaa !5
  %54 = getelementptr i8, ptr %53, i64 10000
  %55 = icmp ult ptr %53, %36
  %56 = icmp ult ptr %5, %54
  %57 = and i1 %55, %56
  br i1 %57, label %86, label %58

58:                                               ; preds = %50, %58
  %59 = phi i64 [ %84, %58 ], [ 0, %50 ]
  %60 = getelementptr inbounds i16, ptr %5, i64 %59
  %61 = load <16 x i16>, ptr %60, align 2, !tbaa !13, !alias.scope !78
  %62 = getelementptr inbounds i16, ptr %60, i64 16
  %63 = load <16 x i16>, ptr %62, align 2, !tbaa !13, !alias.scope !78
  %64 = getelementptr inbounds i16, ptr %60, i64 32
  %65 = load <16 x i16>, ptr %64, align 2, !tbaa !13, !alias.scope !78
  %66 = getelementptr inbounds i16, ptr %60, i64 48
  %67 = load <16 x i16>, ptr %66, align 2, !tbaa !13, !alias.scope !78
  %68 = trunc <16 x i16> %61 to <16 x i8>
  %69 = trunc <16 x i16> %63 to <16 x i8>
  %70 = trunc <16 x i16> %65 to <16 x i8>
  %71 = trunc <16 x i16> %67 to <16 x i8>
  %72 = getelementptr inbounds i8, ptr %53, i64 %59
  %73 = load <16 x i8>, ptr %72, align 1, !tbaa !16, !alias.scope !81, !noalias !78
  %74 = getelementptr inbounds i8, ptr %72, i64 16
  %75 = load <16 x i8>, ptr %74, align 1, !tbaa !16, !alias.scope !81, !noalias !78
  %76 = getelementptr inbounds i8, ptr %72, i64 32
  %77 = load <16 x i8>, ptr %76, align 1, !tbaa !16, !alias.scope !81, !noalias !78
  %78 = getelementptr inbounds i8, ptr %72, i64 48
  %79 = load <16 x i8>, ptr %78, align 1, !tbaa !16, !alias.scope !81, !noalias !78
  %80 = add <16 x i8> %73, %68
  %81 = add <16 x i8> %75, %69
  %82 = add <16 x i8> %77, %70
  %83 = add <16 x i8> %79, %71
  store <16 x i8> %80, ptr %72, align 1, !tbaa !16, !alias.scope !81, !noalias !78
  store <16 x i8> %81, ptr %74, align 1, !tbaa !16, !alias.scope !81, !noalias !78
  store <16 x i8> %82, ptr %76, align 1, !tbaa !16, !alias.scope !81, !noalias !78
  store <16 x i8> %83, ptr %78, align 1, !tbaa !16, !alias.scope !81, !noalias !78
  %84 = add nuw i64 %59, 64
  %85 = icmp eq i64 %84, 9984
  br i1 %85, label %86, label %58, !llvm.loop !83

86:                                               ; preds = %58, %50
  %87 = phi i64 [ 0, %50 ], [ 9984, %58 ]
  br label %88

88:                                               ; preds = %88, %86
  %89 = phi i64 [ %87, %86 ], [ %117, %88 ]
  %90 = getelementptr inbounds i16, ptr %5, i64 %89
  %91 = load i16, ptr %90, align 2, !tbaa !13
  %92 = trunc i16 %91 to i8
  %93 = getelementptr inbounds i8, ptr %53, i64 %89
  %94 = load i8, ptr %93, align 1, !tbaa !16
  %95 = add i8 %94, %92
  store i8 %95, ptr %93, align 1, !tbaa !16
  %96 = or i64 %89, 1
  %97 = getelementptr inbounds i16, ptr %5, i64 %96
  %98 = load i16, ptr %97, align 2, !tbaa !13
  %99 = trunc i16 %98 to i8
  %100 = getelementptr inbounds i8, ptr %53, i64 %96
  %101 = load i8, ptr %100, align 1, !tbaa !16
  %102 = add i8 %101, %99
  store i8 %102, ptr %100, align 1, !tbaa !16
  %103 = or i64 %89, 2
  %104 = getelementptr inbounds i16, ptr %5, i64 %103
  %105 = load i16, ptr %104, align 2, !tbaa !13
  %106 = trunc i16 %105 to i8
  %107 = getelementptr inbounds i8, ptr %53, i64 %103
  %108 = load i8, ptr %107, align 1, !tbaa !16
  %109 = add i8 %108, %106
  store i8 %109, ptr %107, align 1, !tbaa !16
  %110 = or i64 %89, 3
  %111 = getelementptr inbounds i16, ptr %5, i64 %110
  %112 = load i16, ptr %111, align 2, !tbaa !13
  %113 = trunc i16 %112 to i8
  %114 = getelementptr inbounds i8, ptr %53, i64 %110
  %115 = load i8, ptr %114, align 1, !tbaa !16
  %116 = add i8 %115, %113
  store i8 %116, ptr %114, align 1, !tbaa !16
  %117 = add nuw nsw i64 %89, 4
  %118 = icmp eq i64 %117, 10000
  br i1 %118, label %119, label %88, !llvm.loop !84

119:                                              ; preds = %88
  %120 = add i64 %51, -1
  %121 = icmp eq i64 %120, 0
  br i1 %121, label %37, label %50, !prof !42

122:                                              ; preds = %48, %46, %44
  %123 = phi { ptr, i32 } [ %49, %48 ], [ %45, %44 ], [ %47, %46 ]
  %124 = load ptr, ptr %4, align 8, !tbaa !5
  %125 = icmp eq ptr %124, null
  br i1 %125, label %127, label %126

126:                                              ; preds = %122
  call void @_ZdaPv(ptr noundef nonnull %124) #13
  br label %127

127:                                              ; preds = %126, %122, %42
  %128 = phi { ptr, i32 } [ %43, %42 ], [ %123, %122 ], [ %123, %126 ]
  call void @llvm.lifetime.end.p0(i64 8, ptr nonnull %4) #11
  call void @_ZdaPv(ptr noundef nonnull %5) #13
  resume { ptr, i32 } %128

129:                                              ; preds = %38, %41
  call void @llvm.lifetime.end.p0(i64 8, ptr nonnull %4) #11
  call void @_ZdaPv(ptr noundef nonnull %5) #13
  ret void
}

; Function Attrs: uwtable
define dso_local void @_Z60benchForTruncOrZextVecWithAddInLoopFrom_uint16_t_To_uint8_t_RN9benchmark5StateE(ptr noundef nonnull align 8 dereferenceable(144) %0) #3 personality ptr @__gxx_personality_v0 {
  %2 = alloca %"class.std::uniform_int_distribution.43", align 1
  %3 = alloca %"class.std::uniform_int_distribution", align 2
  %4 = alloca %"class.std::unique_ptr.33", align 8
  %5 = tail call noalias noundef nonnull dereferenceable(20000) ptr @_Znam(i64 noundef 20000) #10
  call void @llvm.lifetime.start.p0(i64 8, ptr nonnull %4) #11
  %6 = invoke noalias noundef nonnull dereferenceable(10000) ptr @_Znam(i64 noundef 10000) #10
          to label %7 unwind label %42

7:                                                ; preds = %1
  store ptr %6, ptr %4, align 8, !tbaa !5
  call void @llvm.lifetime.start.p0(i64 4, ptr nonnull %3) #11
  store i16 0, ptr %3, align 2, !tbaa !9
  %8 = getelementptr inbounds %"struct.std::uniform_int_distribution<unsigned short>::param_type", ptr %3, i64 0, i32 1
  store i16 -1, ptr %8, align 2, !tbaa !12
  br label %9

9:                                                ; preds = %12, %7
  %10 = phi i64 [ 0, %7 ], [ %14, %12 ]
  %11 = invoke noundef zeroext i16 @_ZNSt24uniform_int_distributionItEclISt23mersenne_twister_engineImLm32ELm624ELm397ELm31ELm2567483615ELm11ELm4294967295ELm7ELm2636928640ELm15ELm4022730752ELm18ELm1812433253EEEEtRT_RKNS0_10param_typeE(ptr noundef nonnull align 2 dereferenceable(4) %3, ptr noundef nonnull align 8 dereferenceable(5000) @_ZL3rng, ptr noundef nonnull align 2 dereferenceable(4) %3)
          to label %12 unwind label %46

12:                                               ; preds = %9
  %13 = getelementptr inbounds i16, ptr %5, i64 %10
  store i16 %11, ptr %13, align 2, !tbaa !13
  %14 = add nuw nsw i64 %10, 1
  %15 = icmp eq i64 %14, 10000
  br i1 %15, label %16, label %9, !llvm.loop !14

16:                                               ; preds = %12
  call void @llvm.lifetime.end.p0(i64 4, ptr nonnull %3) #11
  call void @llvm.lifetime.start.p0(i64 2, ptr nonnull %2) #11
  store i8 0, ptr %2, align 1, !tbaa !67
  %17 = getelementptr inbounds %"struct.std::uniform_int_distribution<unsigned char>::param_type", ptr %2, i64 0, i32 1
  store i8 -1, ptr %17, align 1, !tbaa !69
  br label %18

18:                                               ; preds = %21, %16
  %19 = phi i64 [ 0, %16 ], [ %24, %21 ]
  %20 = invoke noundef zeroext i8 @_ZNSt24uniform_int_distributionIhEclISt23mersenne_twister_engineImLm32ELm624ELm397ELm31ELm2567483615ELm11ELm4294967295ELm7ELm2636928640ELm15ELm4022730752ELm18ELm1812433253EEEEhRT_RKNS0_10param_typeE(ptr noundef nonnull align 1 dereferenceable(2) %2, ptr noundef nonnull align 8 dereferenceable(5000) @_ZL3rng, ptr noundef nonnull align 1 dereferenceable(2) %2)
          to label %21 unwind label %44

21:                                               ; preds = %18
  %22 = load ptr, ptr %4, align 8, !tbaa !5
  %23 = getelementptr inbounds i8, ptr %22, i64 %19
  store i8 %20, ptr %23, align 1, !tbaa !16
  %24 = add nuw nsw i64 %19, 1
  %25 = icmp eq i64 %24, 10000
  br i1 %25, label %26, label %18, !llvm.loop !70

26:                                               ; preds = %21
  call void @llvm.lifetime.end.p0(i64 2, ptr nonnull %2) #11
  %27 = getelementptr inbounds %"class.benchmark::State", ptr %0, i64 0, i32 5
  %28 = load i8, ptr %27, align 2, !tbaa !23, !range !40, !noundef !41
  %29 = getelementptr inbounds %"class.benchmark::State", ptr %0, i64 0, i32 2
  %30 = load i64, ptr %29, align 8
  invoke void @_ZN9benchmark5State16StartKeepRunningEv(ptr noundef nonnull align 8 dereferenceable(144) %0)
          to label %31 unwind label %48

31:                                               ; preds = %26
  %32 = icmp ne i8 %28, 0
  %33 = icmp eq i64 %30, 0
  %34 = select i1 %32, i1 true, i1 %33
  br i1 %34, label %37, label %35, !prof !42

35:                                               ; preds = %31
  %36 = getelementptr i8, ptr %5, i64 20000
  br label %50

37:                                               ; preds = %119, %31
  invoke void @_ZN9benchmark5State17FinishKeepRunningEv(ptr noundef nonnull align 8 dereferenceable(144) %0)
          to label %38 unwind label %48

38:                                               ; preds = %37
  %39 = load ptr, ptr %4, align 8, !tbaa !5
  %40 = icmp eq ptr %39, null
  br i1 %40, label %129, label %41

41:                                               ; preds = %38
  call void @_ZdaPv(ptr noundef nonnull %39) #13
  br label %129

42:                                               ; preds = %1
  %43 = landingpad { ptr, i32 }
          cleanup
  br label %127

44:                                               ; preds = %18
  %45 = landingpad { ptr, i32 }
          cleanup
  br label %122

46:                                               ; preds = %9
  %47 = landingpad { ptr, i32 }
          cleanup
  br label %122

48:                                               ; preds = %37, %26
  %49 = landingpad { ptr, i32 }
          cleanup
  br label %122

50:                                               ; preds = %35, %119
  %51 = phi i64 [ %120, %119 ], [ %30, %35 ]
  %52 = load i64, ptr %4, align 8
  call void asm sideeffect "", "=*r|m,0,~{memory},~{dirflag},~{fpsr},~{flags}"(ptr nonnull elementtype(%"class.std::unique_ptr.33") %4, i64 %52) #11, !srcloc !43
  fence syncscope("singlethread") acq_rel
  %53 = load ptr, ptr %4, align 8, !tbaa !5
  %54 = getelementptr i8, ptr %53, i64 10000
  %55 = icmp ult ptr %53, %36
  %56 = icmp ult ptr %5, %54
  %57 = and i1 %55, %56
  br i1 %57, label %88, label %58

58:                                               ; preds = %50, %74
  %59 = phi i64 [ %87, %74 ], [ 0, %50 ]
  %60 = getelementptr inbounds i16, ptr %5, i64 %59
  %61 = load <8 x i16>, ptr %60, align 2, !tbaa !13, !alias.scope !85
  %62 = getelementptr inbounds i16, ptr %60, i64 8
  %63 = load <8 x i16>, ptr %62, align 2, !tbaa !13, !alias.scope !85
  %64 = trunc <8 x i16> %61 to <8 x i8>
  %65 = trunc <8 x i16> %63 to <8 x i8>
  %66 = getelementptr inbounds i8, ptr %53, i64 %59
  %67 = load <8 x i8>, ptr %66, align 1, !tbaa !16, !alias.scope !88, !noalias !85
  %68 = getelementptr inbounds i8, ptr %66, i64 8
  %69 = load <8 x i8>, ptr %68, align 1, !tbaa !16, !alias.scope !88, !noalias !85
  %70 = add <8 x i8> %67, %64
  %71 = add <8 x i8> %69, %65
  store <8 x i8> %70, ptr %66, align 1, !tbaa !16, !alias.scope !88, !noalias !85
  store <8 x i8> %71, ptr %68, align 1, !tbaa !16, !alias.scope !88, !noalias !85
  %72 = or i64 %59, 16
  %73 = icmp eq i64 %72, 10000
  br i1 %73, label %119, label %74, !llvm.loop !90

74:                                               ; preds = %58
  %75 = getelementptr inbounds i16, ptr %5, i64 %72
  %76 = load <8 x i16>, ptr %75, align 2, !tbaa !13, !alias.scope !85
  %77 = getelementptr inbounds i16, ptr %75, i64 8
  %78 = load <8 x i16>, ptr %77, align 2, !tbaa !13, !alias.scope !85
  %79 = trunc <8 x i16> %76 to <8 x i8>
  %80 = trunc <8 x i16> %78 to <8 x i8>
  %81 = getelementptr inbounds i8, ptr %53, i64 %72
  %82 = load <8 x i8>, ptr %81, align 1, !tbaa !16, !alias.scope !88, !noalias !85
  %83 = getelementptr inbounds i8, ptr %81, i64 8
  %84 = load <8 x i8>, ptr %83, align 1, !tbaa !16, !alias.scope !88, !noalias !85
  %85 = add <8 x i8> %82, %79
  %86 = add <8 x i8> %84, %80
  store <8 x i8> %85, ptr %81, align 1, !tbaa !16, !alias.scope !88, !noalias !85
  store <8 x i8> %86, ptr %83, align 1, !tbaa !16, !alias.scope !88, !noalias !85
  %87 = add nuw nsw i64 %59, 32
  br label %58

88:                                               ; preds = %50, %88
  %89 = phi i64 [ %117, %88 ], [ 0, %50 ]
  %90 = getelementptr inbounds i16, ptr %5, i64 %89
  %91 = load i16, ptr %90, align 2, !tbaa !13
  %92 = trunc i16 %91 to i8
  %93 = getelementptr inbounds i8, ptr %53, i64 %89
  %94 = load i8, ptr %93, align 1, !tbaa !16
  %95 = add i8 %94, %92
  store i8 %95, ptr %93, align 1, !tbaa !16
  %96 = or i64 %89, 1
  %97 = getelementptr inbounds i16, ptr %5, i64 %96
  %98 = load i16, ptr %97, align 2, !tbaa !13
  %99 = trunc i16 %98 to i8
  %100 = getelementptr inbounds i8, ptr %53, i64 %96
  %101 = load i8, ptr %100, align 1, !tbaa !16
  %102 = add i8 %101, %99
  store i8 %102, ptr %100, align 1, !tbaa !16
  %103 = or i64 %89, 2
  %104 = getelementptr inbounds i16, ptr %5, i64 %103
  %105 = load i16, ptr %104, align 2, !tbaa !13
  %106 = trunc i16 %105 to i8
  %107 = getelementptr inbounds i8, ptr %53, i64 %103
  %108 = load i8, ptr %107, align 1, !tbaa !16
  %109 = add i8 %108, %106
  store i8 %109, ptr %107, align 1, !tbaa !16
  %110 = or i64 %89, 3
  %111 = getelementptr inbounds i16, ptr %5, i64 %110
  %112 = load i16, ptr %111, align 2, !tbaa !13
  %113 = trunc i16 %112 to i8
  %114 = getelementptr inbounds i8, ptr %53, i64 %110
  %115 = load i8, ptr %114, align 1, !tbaa !16
  %116 = add i8 %115, %113
  store i8 %116, ptr %114, align 1, !tbaa !16
  %117 = add nuw nsw i64 %89, 4
  %118 = icmp eq i64 %117, 10000
  br i1 %118, label %119, label %88, !llvm.loop !91

119:                                              ; preds = %58, %88
  %120 = add i64 %51, -1
  %121 = icmp eq i64 %120, 0
  br i1 %121, label %37, label %50, !prof !42

122:                                              ; preds = %48, %46, %44
  %123 = phi { ptr, i32 } [ %49, %48 ], [ %45, %44 ], [ %47, %46 ]
  %124 = load ptr, ptr %4, align 8, !tbaa !5
  %125 = icmp eq ptr %124, null
  br i1 %125, label %127, label %126

126:                                              ; preds = %122
  call void @_ZdaPv(ptr noundef nonnull %124) #13
  br label %127

127:                                              ; preds = %126, %122, %42
  %128 = phi { ptr, i32 } [ %43, %42 ], [ %123, %122 ], [ %123, %126 ]
  call void @llvm.lifetime.end.p0(i64 8, ptr nonnull %4) #11
  call void @_ZdaPv(ptr noundef nonnull %5) #13
  resume { ptr, i32 } %128

129:                                              ; preds = %38, %41
  call void @llvm.lifetime.end.p0(i64 8, ptr nonnull %4) #11
  call void @_ZdaPv(ptr noundef nonnull %5) #13
  ret void
}

; Function Attrs: uwtable
define dso_local void @_Z60benchForTruncOrZextVecInLoopWithVW8From_uint32_t_To_uint8_t_RN9benchmark5StateE(ptr noundef nonnull align 8 dereferenceable(144) %0) #3 personality ptr @__gxx_personality_v0 {
  %2 = alloca %"class.std::uniform_int_distribution.54", align 4
  %3 = alloca %"class.std::unique_ptr.33", align 8
  %4 = tail call noalias noundef nonnull dereferenceable(40000) ptr @_Znam(i64 noundef 40000) #10
  call void @llvm.lifetime.start.p0(i64 8, ptr nonnull %3) #11
  %5 = invoke noalias noundef nonnull dereferenceable(10000) ptr @_Znam(i64 noundef 10000) #10
          to label %6 unwind label %131

6:                                                ; preds = %1
  store ptr %5, ptr %3, align 8, !tbaa !5
  %7 = invoke noalias noundef nonnull dereferenceable(10000) ptr @_Znam(i64 noundef 10000) #10
          to label %8 unwind label %133

8:                                                ; preds = %6
  call void @llvm.lifetime.start.p0(i64 8, ptr nonnull %2) #11
  store i32 0, ptr %2, align 4, !tbaa !92
  %9 = getelementptr inbounds %"struct.std::uniform_int_distribution<unsigned int>::param_type", ptr %2, i64 0, i32 1
  store i32 -1, ptr %9, align 4, !tbaa !94
  br label %10

10:                                               ; preds = %13, %8
  %11 = phi i64 [ 0, %8 ], [ %15, %13 ]
  %12 = invoke noundef i32 @_ZNSt24uniform_int_distributionIjEclISt23mersenne_twister_engineImLm32ELm624ELm397ELm31ELm2567483615ELm11ELm4294967295ELm7ELm2636928640ELm15ELm4022730752ELm18ELm1812433253EEEEjRT_RKNS0_10param_typeE(ptr noundef nonnull align 4 dereferenceable(8) %2, ptr noundef nonnull align 8 dereferenceable(5000) @_ZL3rng, ptr noundef nonnull align 4 dereferenceable(8) %2)
          to label %13 unwind label %135

13:                                               ; preds = %10
  %14 = getelementptr inbounds i32, ptr %4, i64 %11
  store i32 %12, ptr %14, align 4, !tbaa !95
  %15 = add nuw nsw i64 %11, 1
  %16 = icmp eq i64 %15, 10000
  br i1 %16, label %17, label %10, !llvm.loop !96

17:                                               ; preds = %13
  call void @llvm.lifetime.end.p0(i64 8, ptr nonnull %2) #11
  br label %18

18:                                               ; preds = %18, %17
  %19 = phi i64 [ 0, %17 ], [ %44, %18 ]
  %20 = getelementptr inbounds i32, ptr %4, i64 %19
  %21 = load i32, ptr %20, align 4, !tbaa !95
  %22 = trunc i32 %21 to i8
  %23 = getelementptr inbounds i8, ptr %7, i64 %19
  store i8 %22, ptr %23, align 1, !tbaa !16
  %24 = add nuw nsw i64 %19, 1
  %25 = getelementptr inbounds i32, ptr %4, i64 %24
  %26 = load i32, ptr %25, align 4, !tbaa !95
  %27 = trunc i32 %26 to i8
  %28 = getelementptr inbounds i8, ptr %7, i64 %24
  store i8 %27, ptr %28, align 1, !tbaa !16
  %29 = add nuw nsw i64 %19, 2
  %30 = getelementptr inbounds i32, ptr %4, i64 %29
  %31 = load i32, ptr %30, align 4, !tbaa !95
  %32 = trunc i32 %31 to i8
  %33 = getelementptr inbounds i8, ptr %7, i64 %29
  store i8 %32, ptr %33, align 1, !tbaa !16
  %34 = add nuw nsw i64 %19, 3
  %35 = getelementptr inbounds i32, ptr %4, i64 %34
  %36 = load i32, ptr %35, align 4, !tbaa !95
  %37 = trunc i32 %36 to i8
  %38 = getelementptr inbounds i8, ptr %7, i64 %34
  store i8 %37, ptr %38, align 1, !tbaa !16
  %39 = add nuw nsw i64 %19, 4
  %40 = getelementptr inbounds i32, ptr %4, i64 %39
  %41 = load i32, ptr %40, align 4, !tbaa !95
  %42 = trunc i32 %41 to i8
  %43 = getelementptr inbounds i8, ptr %7, i64 %39
  store i8 %42, ptr %43, align 1, !tbaa !16
  %44 = add nuw nsw i64 %19, 5
  %45 = icmp eq i64 %44, 10000
  br i1 %45, label %46, label %18, !llvm.loop !97

46:                                               ; preds = %18, %46
  %47 = phi i64 [ %64, %46 ], [ 0, %18 ]
  %48 = getelementptr inbounds i32, ptr %4, i64 %47
  %49 = load <8 x i32>, ptr %48, align 4, !tbaa !95
  %50 = getelementptr inbounds i32, ptr %48, i64 8
  %51 = load <8 x i32>, ptr %50, align 4, !tbaa !95
  %52 = getelementptr inbounds i32, ptr %48, i64 16
  %53 = load <8 x i32>, ptr %52, align 4, !tbaa !95
  %54 = getelementptr inbounds i32, ptr %48, i64 24
  %55 = load <8 x i32>, ptr %54, align 4, !tbaa !95
  %56 = trunc <8 x i32> %49 to <8 x i8>
  %57 = trunc <8 x i32> %51 to <8 x i8>
  %58 = trunc <8 x i32> %53 to <8 x i8>
  %59 = trunc <8 x i32> %55 to <8 x i8>
  %60 = getelementptr inbounds i8, ptr %5, i64 %47
  store <8 x i8> %56, ptr %60, align 1, !tbaa !16
  %61 = getelementptr inbounds i8, ptr %60, i64 8
  store <8 x i8> %57, ptr %61, align 1, !tbaa !16
  %62 = getelementptr inbounds i8, ptr %60, i64 16
  store <8 x i8> %58, ptr %62, align 1, !tbaa !16
  %63 = getelementptr inbounds i8, ptr %60, i64 24
  store <8 x i8> %59, ptr %63, align 1, !tbaa !16
  %64 = add nuw i64 %47, 32
  %65 = icmp eq i64 %64, 9984
  br i1 %65, label %66, label %46, !llvm.loop !98

66:                                               ; preds = %46
  %67 = getelementptr inbounds i32, ptr %4, i64 9984
  %68 = load i32, ptr %67, align 4, !tbaa !95
  %69 = trunc i32 %68 to i8
  %70 = getelementptr inbounds i8, ptr %5, i64 9984
  store i8 %69, ptr %70, align 1, !tbaa !16
  %71 = getelementptr inbounds i32, ptr %4, i64 9985
  %72 = load i32, ptr %71, align 4, !tbaa !95
  %73 = trunc i32 %72 to i8
  %74 = getelementptr inbounds i8, ptr %5, i64 9985
  store i8 %73, ptr %74, align 1, !tbaa !16
  %75 = getelementptr inbounds i32, ptr %4, i64 9986
  %76 = load i32, ptr %75, align 4, !tbaa !95
  %77 = trunc i32 %76 to i8
  %78 = getelementptr inbounds i8, ptr %5, i64 9986
  store i8 %77, ptr %78, align 1, !tbaa !16
  %79 = getelementptr inbounds i32, ptr %4, i64 9987
  %80 = load i32, ptr %79, align 4, !tbaa !95
  %81 = trunc i32 %80 to i8
  %82 = getelementptr inbounds i8, ptr %5, i64 9987
  store i8 %81, ptr %82, align 1, !tbaa !16
  %83 = getelementptr inbounds i32, ptr %4, i64 9988
  %84 = load i32, ptr %83, align 4, !tbaa !95
  %85 = trunc i32 %84 to i8
  %86 = getelementptr inbounds i8, ptr %5, i64 9988
  store i8 %85, ptr %86, align 1, !tbaa !16
  %87 = getelementptr inbounds i32, ptr %4, i64 9989
  %88 = load i32, ptr %87, align 4, !tbaa !95
  %89 = trunc i32 %88 to i8
  %90 = getelementptr inbounds i8, ptr %5, i64 9989
  store i8 %89, ptr %90, align 1, !tbaa !16
  %91 = getelementptr inbounds i32, ptr %4, i64 9990
  %92 = load i32, ptr %91, align 4, !tbaa !95
  %93 = trunc i32 %92 to i8
  %94 = getelementptr inbounds i8, ptr %5, i64 9990
  store i8 %93, ptr %94, align 1, !tbaa !16
  %95 = getelementptr inbounds i32, ptr %4, i64 9991
  %96 = load i32, ptr %95, align 4, !tbaa !95
  %97 = trunc i32 %96 to i8
  %98 = getelementptr inbounds i8, ptr %5, i64 9991
  store i8 %97, ptr %98, align 1, !tbaa !16
  %99 = getelementptr inbounds i32, ptr %4, i64 9992
  %100 = load i32, ptr %99, align 4, !tbaa !95
  %101 = trunc i32 %100 to i8
  %102 = getelementptr inbounds i8, ptr %5, i64 9992
  store i8 %101, ptr %102, align 1, !tbaa !16
  %103 = getelementptr inbounds i32, ptr %4, i64 9993
  %104 = load i32, ptr %103, align 4, !tbaa !95
  %105 = trunc i32 %104 to i8
  %106 = getelementptr inbounds i8, ptr %5, i64 9993
  store i8 %105, ptr %106, align 1, !tbaa !16
  %107 = getelementptr inbounds i32, ptr %4, i64 9994
  %108 = load i32, ptr %107, align 4, !tbaa !95
  %109 = trunc i32 %108 to i8
  %110 = getelementptr inbounds i8, ptr %5, i64 9994
  store i8 %109, ptr %110, align 1, !tbaa !16
  %111 = getelementptr inbounds i32, ptr %4, i64 9995
  %112 = load i32, ptr %111, align 4, !tbaa !95
  %113 = trunc i32 %112 to i8
  %114 = getelementptr inbounds i8, ptr %5, i64 9995
  store i8 %113, ptr %114, align 1, !tbaa !16
  %115 = getelementptr inbounds i32, ptr %4, i64 9996
  %116 = load i32, ptr %115, align 4, !tbaa !95
  %117 = trunc i32 %116 to i8
  %118 = getelementptr inbounds i8, ptr %5, i64 9996
  store i8 %117, ptr %118, align 1, !tbaa !16
  %119 = getelementptr inbounds i32, ptr %4, i64 9997
  %120 = load i32, ptr %119, align 4, !tbaa !95
  %121 = trunc i32 %120 to i8
  %122 = getelementptr inbounds i8, ptr %5, i64 9997
  store i8 %121, ptr %122, align 1, !tbaa !16
  %123 = getelementptr inbounds i32, ptr %4, i64 9998
  %124 = load i32, ptr %123, align 4, !tbaa !95
  %125 = trunc i32 %124 to i8
  %126 = getelementptr inbounds i8, ptr %5, i64 9998
  store i8 %125, ptr %126, align 1, !tbaa !16
  %127 = getelementptr inbounds i32, ptr %4, i64 9999
  %128 = load i32, ptr %127, align 4, !tbaa !95
  %129 = trunc i32 %128 to i8
  %130 = getelementptr inbounds i8, ptr %5, i64 9999
  store i8 %129, ptr %130, align 1, !tbaa !16
  br label %137

131:                                              ; preds = %1
  %132 = landingpad { ptr, i32 }
          cleanup
  br label %282

133:                                              ; preds = %6
  %134 = landingpad { ptr, i32 }
          cleanup
  br label %279

135:                                              ; preds = %10
  %136 = landingpad { ptr, i32 }
          cleanup
  br label %275

137:                                              ; preds = %198, %66
  %138 = phi i64 [ 0, %66 ], [ %199, %198 ]
  %139 = getelementptr inbounds i8, ptr %5, i64 %138
  %140 = load i8, ptr %139, align 1, !tbaa !16
  %141 = getelementptr inbounds i8, ptr %7, i64 %138
  %142 = load i8, ptr %141, align 1, !tbaa !16
  %143 = icmp eq i8 %140, %142
  br i1 %143, label %170, label %144

144:                                              ; preds = %191, %184, %177, %170, %137
  %145 = phi i64 [ %138, %137 ], [ %171, %170 ], [ %178, %177 ], [ %185, %184 ], [ %192, %191 ]
  %146 = and i64 %145, 4294967295
  %147 = getelementptr inbounds i8, ptr %7, i64 %146
  %148 = invoke noundef nonnull align 8 dereferenceable(8) ptr @_ZSt16__ostream_insertIcSt11char_traitsIcEERSt13basic_ostreamIT_T0_ES6_PKS3_l(ptr noundef nonnull align 8 dereferenceable(8) @_ZSt4cerr, ptr noundef nonnull @.str.146, i64 noundef 34)
          to label %149 unwind label %168

149:                                              ; preds = %144
  %150 = getelementptr inbounds i32, ptr %4, i64 %146
  %151 = load i32, ptr %150, align 4, !tbaa !95
  %152 = zext i32 %151 to i64
  %153 = invoke noundef nonnull align 8 dereferenceable(8) ptr @_ZNSo9_M_insertImEERSoT_(ptr noundef nonnull align 8 dereferenceable(8) @_ZSt4cerr, i64 noundef %152)
          to label %154 unwind label %168

154:                                              ; preds = %149
  %155 = invoke noundef nonnull align 8 dereferenceable(8) ptr @_ZSt16__ostream_insertIcSt11char_traitsIcEERSt13basic_ostreamIT_T0_ES6_PKS3_l(ptr noundef nonnull align 8 dereferenceable(8) %153, ptr noundef nonnull @.str.147, i64 noundef 19)
          to label %156 unwind label %168

156:                                              ; preds = %154
  %157 = getelementptr inbounds i8, ptr %5, i64 %146
  %158 = load i8, ptr %157, align 1, !tbaa !16
  %159 = invoke noundef nonnull align 8 dereferenceable(8) ptr @_ZStlsISt11char_traitsIcEERSt13basic_ostreamIcT_ES5_h(ptr noundef nonnull align 8 dereferenceable(8) %153, i8 noundef zeroext %158)
          to label %160 unwind label %168

160:                                              ; preds = %156
  %161 = invoke noundef nonnull align 8 dereferenceable(8) ptr @_ZSt16__ostream_insertIcSt11char_traitsIcEERSt13basic_ostreamIT_T0_ES6_PKS3_l(ptr noundef nonnull align 8 dereferenceable(8) %159, ptr noundef nonnull @.str.148, i64 noundef 12)
          to label %162 unwind label %168

162:                                              ; preds = %160
  %163 = load i8, ptr %147, align 1, !tbaa !16
  %164 = invoke noundef nonnull align 8 dereferenceable(8) ptr @_ZStlsISt11char_traitsIcEERSt13basic_ostreamIcT_ES5_h(ptr noundef nonnull align 8 dereferenceable(8) %159, i8 noundef zeroext %163)
          to label %165 unwind label %168

165:                                              ; preds = %162
  %166 = invoke noundef nonnull align 8 dereferenceable(8) ptr @_ZStlsISt11char_traitsIcEERSt13basic_ostreamIcT_ES5_PKc(ptr noundef nonnull align 8 dereferenceable(8) %164, ptr noundef nonnull @.str.149)
          to label %167 unwind label %168

167:                                              ; preds = %165
  call void @exit(i32 noundef 1) #12
  unreachable

168:                                              ; preds = %165, %162, %160, %156, %154, %149, %144
  %169 = landingpad { ptr, i32 }
          cleanup
  br label %275

170:                                              ; preds = %137
  %171 = add nuw nsw i64 %138, 1
  %172 = getelementptr inbounds i8, ptr %5, i64 %171
  %173 = load i8, ptr %172, align 1, !tbaa !16
  %174 = getelementptr inbounds i8, ptr %7, i64 %171
  %175 = load i8, ptr %174, align 1, !tbaa !16
  %176 = icmp eq i8 %173, %175
  br i1 %176, label %177, label %144

177:                                              ; preds = %170
  %178 = add nuw nsw i64 %138, 2
  %179 = getelementptr inbounds i8, ptr %5, i64 %178
  %180 = load i8, ptr %179, align 1, !tbaa !16
  %181 = getelementptr inbounds i8, ptr %7, i64 %178
  %182 = load i8, ptr %181, align 1, !tbaa !16
  %183 = icmp eq i8 %180, %182
  br i1 %183, label %184, label %144

184:                                              ; preds = %177
  %185 = add nuw nsw i64 %138, 3
  %186 = getelementptr inbounds i8, ptr %5, i64 %185
  %187 = load i8, ptr %186, align 1, !tbaa !16
  %188 = getelementptr inbounds i8, ptr %7, i64 %185
  %189 = load i8, ptr %188, align 1, !tbaa !16
  %190 = icmp eq i8 %187, %189
  br i1 %190, label %191, label %144

191:                                              ; preds = %184
  %192 = add nuw nsw i64 %138, 4
  %193 = getelementptr inbounds i8, ptr %5, i64 %192
  %194 = load i8, ptr %193, align 1, !tbaa !16
  %195 = getelementptr inbounds i8, ptr %7, i64 %192
  %196 = load i8, ptr %195, align 1, !tbaa !16
  %197 = icmp eq i8 %194, %196
  br i1 %197, label %198, label %144

198:                                              ; preds = %191
  %199 = add nuw nsw i64 %138, 5
  %200 = icmp eq i64 %199, 10000
  br i1 %200, label %201, label %137, !llvm.loop !99

201:                                              ; preds = %198
  %202 = getelementptr inbounds %"class.benchmark::State", ptr %0, i64 0, i32 5
  %203 = load i8, ptr %202, align 2, !tbaa !23, !range !40, !noundef !41
  %204 = getelementptr inbounds %"class.benchmark::State", ptr %0, i64 0, i32 2
  %205 = load i64, ptr %204, align 8
  invoke void @_ZN9benchmark5State16StartKeepRunningEv(ptr noundef nonnull align 8 dereferenceable(144) %0)
          to label %206 unwind label %217

206:                                              ; preds = %201
  %207 = icmp ne i8 %203, 0
  %208 = icmp eq i64 %205, 0
  %209 = select i1 %207, i1 true, i1 %208
  br i1 %209, label %212, label %210, !prof !42

210:                                              ; preds = %206
  %211 = getelementptr i8, ptr %4, i64 40000
  br label %219

212:                                              ; preds = %272, %206
  invoke void @_ZN9benchmark5State17FinishKeepRunningEv(ptr noundef nonnull align 8 dereferenceable(144) %0)
          to label %213 unwind label %217

213:                                              ; preds = %212
  call void @_ZdaPv(ptr noundef nonnull %7) #13
  %214 = load ptr, ptr %3, align 8, !tbaa !5
  %215 = icmp eq ptr %214, null
  br i1 %215, label %284, label %216

216:                                              ; preds = %213
  call void @_ZdaPv(ptr noundef nonnull %214) #13
  br label %284

217:                                              ; preds = %212, %201
  %218 = landingpad { ptr, i32 }
          cleanup
  br label %275

219:                                              ; preds = %210, %272
  %220 = phi i64 [ %273, %272 ], [ %205, %210 ]
  %221 = load i64, ptr %3, align 8
  call void asm sideeffect "", "=*r|m,0,~{memory},~{dirflag},~{fpsr},~{flags}"(ptr nonnull elementtype(%"class.std::unique_ptr.33") %3, i64 %221) #11, !srcloc !43
  fence syncscope("singlethread") acq_rel
  %222 = load ptr, ptr %3, align 8, !tbaa !5
  %223 = getelementptr i8, ptr %222, i64 10000
  %224 = icmp ult ptr %222, %211
  %225 = icmp ult ptr %4, %223
  %226 = and i1 %224, %225
  br i1 %226, label %247, label %227

227:                                              ; preds = %219, %227
  %228 = phi i64 [ %245, %227 ], [ 0, %219 ]
  %229 = getelementptr inbounds i32, ptr %4, i64 %228
  %230 = load <8 x i32>, ptr %229, align 4, !tbaa !95, !alias.scope !100
  %231 = getelementptr inbounds i32, ptr %229, i64 8
  %232 = load <8 x i32>, ptr %231, align 4, !tbaa !95, !alias.scope !100
  %233 = getelementptr inbounds i32, ptr %229, i64 16
  %234 = load <8 x i32>, ptr %233, align 4, !tbaa !95, !alias.scope !100
  %235 = getelementptr inbounds i32, ptr %229, i64 24
  %236 = load <8 x i32>, ptr %235, align 4, !tbaa !95, !alias.scope !100
  %237 = trunc <8 x i32> %230 to <8 x i8>
  %238 = trunc <8 x i32> %232 to <8 x i8>
  %239 = trunc <8 x i32> %234 to <8 x i8>
  %240 = trunc <8 x i32> %236 to <8 x i8>
  %241 = getelementptr inbounds i8, ptr %222, i64 %228
  store <8 x i8> %237, ptr %241, align 1, !tbaa !16, !alias.scope !103, !noalias !100
  %242 = getelementptr inbounds i8, ptr %241, i64 8
  store <8 x i8> %238, ptr %242, align 1, !tbaa !16, !alias.scope !103, !noalias !100
  %243 = getelementptr inbounds i8, ptr %241, i64 16
  store <8 x i8> %239, ptr %243, align 1, !tbaa !16, !alias.scope !103, !noalias !100
  %244 = getelementptr inbounds i8, ptr %241, i64 24
  store <8 x i8> %240, ptr %244, align 1, !tbaa !16, !alias.scope !103, !noalias !100
  %245 = add nuw i64 %228, 32
  %246 = icmp eq i64 %245, 9984
  br i1 %246, label %247, label %227, !llvm.loop !105

247:                                              ; preds = %227, %219
  %248 = phi i64 [ 0, %219 ], [ 9984, %227 ]
  br label %249

249:                                              ; preds = %249, %247
  %250 = phi i64 [ %248, %247 ], [ %270, %249 ]
  %251 = getelementptr inbounds i32, ptr %4, i64 %250
  %252 = load i32, ptr %251, align 4, !tbaa !95
  %253 = trunc i32 %252 to i8
  %254 = getelementptr inbounds i8, ptr %222, i64 %250
  store i8 %253, ptr %254, align 1, !tbaa !16
  %255 = or i64 %250, 1
  %256 = getelementptr inbounds i32, ptr %4, i64 %255
  %257 = load i32, ptr %256, align 4, !tbaa !95
  %258 = trunc i32 %257 to i8
  %259 = getelementptr inbounds i8, ptr %222, i64 %255
  store i8 %258, ptr %259, align 1, !tbaa !16
  %260 = or i64 %250, 2
  %261 = getelementptr inbounds i32, ptr %4, i64 %260
  %262 = load i32, ptr %261, align 4, !tbaa !95
  %263 = trunc i32 %262 to i8
  %264 = getelementptr inbounds i8, ptr %222, i64 %260
  store i8 %263, ptr %264, align 1, !tbaa !16
  %265 = or i64 %250, 3
  %266 = getelementptr inbounds i32, ptr %4, i64 %265
  %267 = load i32, ptr %266, align 4, !tbaa !95
  %268 = trunc i32 %267 to i8
  %269 = getelementptr inbounds i8, ptr %222, i64 %265
  store i8 %268, ptr %269, align 1, !tbaa !16
  %270 = add nuw nsw i64 %250, 4
  %271 = icmp eq i64 %270, 10000
  br i1 %271, label %272, label %249, !llvm.loop !106

272:                                              ; preds = %249
  %273 = add i64 %220, -1
  %274 = icmp eq i64 %273, 0
  br i1 %274, label %212, label %219, !prof !42

275:                                              ; preds = %217, %168, %135
  %276 = phi { ptr, i32 } [ %169, %168 ], [ %218, %217 ], [ %136, %135 ]
  call void @_ZdaPv(ptr noundef nonnull %7) #13
  %277 = load ptr, ptr %3, align 8, !tbaa !5
  %278 = icmp eq ptr %277, null
  br i1 %278, label %282, label %279

279:                                              ; preds = %275, %133
  %280 = phi { ptr, i32 } [ %134, %133 ], [ %276, %275 ]
  %281 = phi ptr [ %5, %133 ], [ %277, %275 ]
  call void @_ZdaPv(ptr noundef nonnull %281) #13
  br label %282

282:                                              ; preds = %279, %275, %131
  %283 = phi { ptr, i32 } [ %132, %131 ], [ %276, %275 ], [ %280, %279 ]
  call void @llvm.lifetime.end.p0(i64 8, ptr nonnull %3) #11
  call void @_ZdaPv(ptr noundef nonnull %4) #13
  resume { ptr, i32 } %283

284:                                              ; preds = %213, %216
  call void @llvm.lifetime.end.p0(i64 8, ptr nonnull %3) #11
  call void @_ZdaPv(ptr noundef nonnull %4) #13
  ret void
}

; Function Attrs: uwtable
define dso_local void @_Z61benchForTruncOrZextVecInLoopWithVW16From_uint32_t_To_uint8_t_RN9benchmark5StateE(ptr noundef nonnull align 8 dereferenceable(144) %0) #3 personality ptr @__gxx_personality_v0 {
  %2 = alloca %"class.std::uniform_int_distribution.54", align 4
  %3 = alloca %"class.std::unique_ptr.33", align 8
  %4 = tail call noalias noundef nonnull dereferenceable(40000) ptr @_Znam(i64 noundef 40000) #10
  call void @llvm.lifetime.start.p0(i64 8, ptr nonnull %3) #11
  %5 = invoke noalias noundef nonnull dereferenceable(10000) ptr @_Znam(i64 noundef 10000) #10
          to label %6 unwind label %131

6:                                                ; preds = %1
  store ptr %5, ptr %3, align 8, !tbaa !5
  %7 = invoke noalias noundef nonnull dereferenceable(10000) ptr @_Znam(i64 noundef 10000) #10
          to label %8 unwind label %133

8:                                                ; preds = %6
  call void @llvm.lifetime.start.p0(i64 8, ptr nonnull %2) #11
  store i32 0, ptr %2, align 4, !tbaa !92
  %9 = getelementptr inbounds %"struct.std::uniform_int_distribution<unsigned int>::param_type", ptr %2, i64 0, i32 1
  store i32 -1, ptr %9, align 4, !tbaa !94
  br label %10

10:                                               ; preds = %13, %8
  %11 = phi i64 [ 0, %8 ], [ %15, %13 ]
  %12 = invoke noundef i32 @_ZNSt24uniform_int_distributionIjEclISt23mersenne_twister_engineImLm32ELm624ELm397ELm31ELm2567483615ELm11ELm4294967295ELm7ELm2636928640ELm15ELm4022730752ELm18ELm1812433253EEEEjRT_RKNS0_10param_typeE(ptr noundef nonnull align 4 dereferenceable(8) %2, ptr noundef nonnull align 8 dereferenceable(5000) @_ZL3rng, ptr noundef nonnull align 4 dereferenceable(8) %2)
          to label %13 unwind label %135

13:                                               ; preds = %10
  %14 = getelementptr inbounds i32, ptr %4, i64 %11
  store i32 %12, ptr %14, align 4, !tbaa !95
  %15 = add nuw nsw i64 %11, 1
  %16 = icmp eq i64 %15, 10000
  br i1 %16, label %17, label %10, !llvm.loop !96

17:                                               ; preds = %13
  call void @llvm.lifetime.end.p0(i64 8, ptr nonnull %2) #11
  br label %18

18:                                               ; preds = %18, %17
  %19 = phi i64 [ 0, %17 ], [ %44, %18 ]
  %20 = getelementptr inbounds i32, ptr %4, i64 %19
  %21 = load i32, ptr %20, align 4, !tbaa !95
  %22 = trunc i32 %21 to i8
  %23 = getelementptr inbounds i8, ptr %7, i64 %19
  store i8 %22, ptr %23, align 1, !tbaa !16
  %24 = add nuw nsw i64 %19, 1
  %25 = getelementptr inbounds i32, ptr %4, i64 %24
  %26 = load i32, ptr %25, align 4, !tbaa !95
  %27 = trunc i32 %26 to i8
  %28 = getelementptr inbounds i8, ptr %7, i64 %24
  store i8 %27, ptr %28, align 1, !tbaa !16
  %29 = add nuw nsw i64 %19, 2
  %30 = getelementptr inbounds i32, ptr %4, i64 %29
  %31 = load i32, ptr %30, align 4, !tbaa !95
  %32 = trunc i32 %31 to i8
  %33 = getelementptr inbounds i8, ptr %7, i64 %29
  store i8 %32, ptr %33, align 1, !tbaa !16
  %34 = add nuw nsw i64 %19, 3
  %35 = getelementptr inbounds i32, ptr %4, i64 %34
  %36 = load i32, ptr %35, align 4, !tbaa !95
  %37 = trunc i32 %36 to i8
  %38 = getelementptr inbounds i8, ptr %7, i64 %34
  store i8 %37, ptr %38, align 1, !tbaa !16
  %39 = add nuw nsw i64 %19, 4
  %40 = getelementptr inbounds i32, ptr %4, i64 %39
  %41 = load i32, ptr %40, align 4, !tbaa !95
  %42 = trunc i32 %41 to i8
  %43 = getelementptr inbounds i8, ptr %7, i64 %39
  store i8 %42, ptr %43, align 1, !tbaa !16
  %44 = add nuw nsw i64 %19, 5
  %45 = icmp eq i64 %44, 10000
  br i1 %45, label %46, label %18, !llvm.loop !97

46:                                               ; preds = %18, %46
  %47 = phi i64 [ %64, %46 ], [ 0, %18 ]
  %48 = getelementptr inbounds i32, ptr %4, i64 %47
  %49 = load <16 x i32>, ptr %48, align 4, !tbaa !95
  %50 = getelementptr inbounds i32, ptr %48, i64 16
  %51 = load <16 x i32>, ptr %50, align 4, !tbaa !95
  %52 = getelementptr inbounds i32, ptr %48, i64 32
  %53 = load <16 x i32>, ptr %52, align 4, !tbaa !95
  %54 = getelementptr inbounds i32, ptr %48, i64 48
  %55 = load <16 x i32>, ptr %54, align 4, !tbaa !95
  %56 = trunc <16 x i32> %49 to <16 x i8>
  %57 = trunc <16 x i32> %51 to <16 x i8>
  %58 = trunc <16 x i32> %53 to <16 x i8>
  %59 = trunc <16 x i32> %55 to <16 x i8>
  %60 = getelementptr inbounds i8, ptr %5, i64 %47
  store <16 x i8> %56, ptr %60, align 1, !tbaa !16
  %61 = getelementptr inbounds i8, ptr %60, i64 16
  store <16 x i8> %57, ptr %61, align 1, !tbaa !16
  %62 = getelementptr inbounds i8, ptr %60, i64 32
  store <16 x i8> %58, ptr %62, align 1, !tbaa !16
  %63 = getelementptr inbounds i8, ptr %60, i64 48
  store <16 x i8> %59, ptr %63, align 1, !tbaa !16
  %64 = add nuw i64 %47, 64
  %65 = icmp eq i64 %64, 9984
  br i1 %65, label %66, label %46, !llvm.loop !107

66:                                               ; preds = %46
  %67 = getelementptr inbounds i32, ptr %4, i64 9984
  %68 = load i32, ptr %67, align 4, !tbaa !95
  %69 = trunc i32 %68 to i8
  %70 = getelementptr inbounds i8, ptr %5, i64 9984
  store i8 %69, ptr %70, align 1, !tbaa !16
  %71 = getelementptr inbounds i32, ptr %4, i64 9985
  %72 = load i32, ptr %71, align 4, !tbaa !95
  %73 = trunc i32 %72 to i8
  %74 = getelementptr inbounds i8, ptr %5, i64 9985
  store i8 %73, ptr %74, align 1, !tbaa !16
  %75 = getelementptr inbounds i32, ptr %4, i64 9986
  %76 = load i32, ptr %75, align 4, !tbaa !95
  %77 = trunc i32 %76 to i8
  %78 = getelementptr inbounds i8, ptr %5, i64 9986
  store i8 %77, ptr %78, align 1, !tbaa !16
  %79 = getelementptr inbounds i32, ptr %4, i64 9987
  %80 = load i32, ptr %79, align 4, !tbaa !95
  %81 = trunc i32 %80 to i8
  %82 = getelementptr inbounds i8, ptr %5, i64 9987
  store i8 %81, ptr %82, align 1, !tbaa !16
  %83 = getelementptr inbounds i32, ptr %4, i64 9988
  %84 = load i32, ptr %83, align 4, !tbaa !95
  %85 = trunc i32 %84 to i8
  %86 = getelementptr inbounds i8, ptr %5, i64 9988
  store i8 %85, ptr %86, align 1, !tbaa !16
  %87 = getelementptr inbounds i32, ptr %4, i64 9989
  %88 = load i32, ptr %87, align 4, !tbaa !95
  %89 = trunc i32 %88 to i8
  %90 = getelementptr inbounds i8, ptr %5, i64 9989
  store i8 %89, ptr %90, align 1, !tbaa !16
  %91 = getelementptr inbounds i32, ptr %4, i64 9990
  %92 = load i32, ptr %91, align 4, !tbaa !95
  %93 = trunc i32 %92 to i8
  %94 = getelementptr inbounds i8, ptr %5, i64 9990
  store i8 %93, ptr %94, align 1, !tbaa !16
  %95 = getelementptr inbounds i32, ptr %4, i64 9991
  %96 = load i32, ptr %95, align 4, !tbaa !95
  %97 = trunc i32 %96 to i8
  %98 = getelementptr inbounds i8, ptr %5, i64 9991
  store i8 %97, ptr %98, align 1, !tbaa !16
  %99 = getelementptr inbounds i32, ptr %4, i64 9992
  %100 = load i32, ptr %99, align 4, !tbaa !95
  %101 = trunc i32 %100 to i8
  %102 = getelementptr inbounds i8, ptr %5, i64 9992
  store i8 %101, ptr %102, align 1, !tbaa !16
  %103 = getelementptr inbounds i32, ptr %4, i64 9993
  %104 = load i32, ptr %103, align 4, !tbaa !95
  %105 = trunc i32 %104 to i8
  %106 = getelementptr inbounds i8, ptr %5, i64 9993
  store i8 %105, ptr %106, align 1, !tbaa !16
  %107 = getelementptr inbounds i32, ptr %4, i64 9994
  %108 = load i32, ptr %107, align 4, !tbaa !95
  %109 = trunc i32 %108 to i8
  %110 = getelementptr inbounds i8, ptr %5, i64 9994
  store i8 %109, ptr %110, align 1, !tbaa !16
  %111 = getelementptr inbounds i32, ptr %4, i64 9995
  %112 = load i32, ptr %111, align 4, !tbaa !95
  %113 = trunc i32 %112 to i8
  %114 = getelementptr inbounds i8, ptr %5, i64 9995
  store i8 %113, ptr %114, align 1, !tbaa !16
  %115 = getelementptr inbounds i32, ptr %4, i64 9996
  %116 = load i32, ptr %115, align 4, !tbaa !95
  %117 = trunc i32 %116 to i8
  %118 = getelementptr inbounds i8, ptr %5, i64 9996
  store i8 %117, ptr %118, align 1, !tbaa !16
  %119 = getelementptr inbounds i32, ptr %4, i64 9997
  %120 = load i32, ptr %119, align 4, !tbaa !95
  %121 = trunc i32 %120 to i8
  %122 = getelementptr inbounds i8, ptr %5, i64 9997
  store i8 %121, ptr %122, align 1, !tbaa !16
  %123 = getelementptr inbounds i32, ptr %4, i64 9998
  %124 = load i32, ptr %123, align 4, !tbaa !95
  %125 = trunc i32 %124 to i8
  %126 = getelementptr inbounds i8, ptr %5, i64 9998
  store i8 %125, ptr %126, align 1, !tbaa !16
  %127 = getelementptr inbounds i32, ptr %4, i64 9999
  %128 = load i32, ptr %127, align 4, !tbaa !95
  %129 = trunc i32 %128 to i8
  %130 = getelementptr inbounds i8, ptr %5, i64 9999
  store i8 %129, ptr %130, align 1, !tbaa !16
  br label %137

131:                                              ; preds = %1
  %132 = landingpad { ptr, i32 }
          cleanup
  br label %282

133:                                              ; preds = %6
  %134 = landingpad { ptr, i32 }
          cleanup
  br label %279

135:                                              ; preds = %10
  %136 = landingpad { ptr, i32 }
          cleanup
  br label %275

137:                                              ; preds = %198, %66
  %138 = phi i64 [ 0, %66 ], [ %199, %198 ]
  %139 = getelementptr inbounds i8, ptr %5, i64 %138
  %140 = load i8, ptr %139, align 1, !tbaa !16
  %141 = getelementptr inbounds i8, ptr %7, i64 %138
  %142 = load i8, ptr %141, align 1, !tbaa !16
  %143 = icmp eq i8 %140, %142
  br i1 %143, label %170, label %144

144:                                              ; preds = %191, %184, %177, %170, %137
  %145 = phi i64 [ %138, %137 ], [ %171, %170 ], [ %178, %177 ], [ %185, %184 ], [ %192, %191 ]
  %146 = and i64 %145, 4294967295
  %147 = getelementptr inbounds i8, ptr %7, i64 %146
  %148 = invoke noundef nonnull align 8 dereferenceable(8) ptr @_ZSt16__ostream_insertIcSt11char_traitsIcEERSt13basic_ostreamIT_T0_ES6_PKS3_l(ptr noundef nonnull align 8 dereferenceable(8) @_ZSt4cerr, ptr noundef nonnull @.str.146, i64 noundef 34)
          to label %149 unwind label %168

149:                                              ; preds = %144
  %150 = getelementptr inbounds i32, ptr %4, i64 %146
  %151 = load i32, ptr %150, align 4, !tbaa !95
  %152 = zext i32 %151 to i64
  %153 = invoke noundef nonnull align 8 dereferenceable(8) ptr @_ZNSo9_M_insertImEERSoT_(ptr noundef nonnull align 8 dereferenceable(8) @_ZSt4cerr, i64 noundef %152)
          to label %154 unwind label %168

154:                                              ; preds = %149
  %155 = invoke noundef nonnull align 8 dereferenceable(8) ptr @_ZSt16__ostream_insertIcSt11char_traitsIcEERSt13basic_ostreamIT_T0_ES6_PKS3_l(ptr noundef nonnull align 8 dereferenceable(8) %153, ptr noundef nonnull @.str.147, i64 noundef 19)
          to label %156 unwind label %168

156:                                              ; preds = %154
  %157 = getelementptr inbounds i8, ptr %5, i64 %146
  %158 = load i8, ptr %157, align 1, !tbaa !16
  %159 = invoke noundef nonnull align 8 dereferenceable(8) ptr @_ZStlsISt11char_traitsIcEERSt13basic_ostreamIcT_ES5_h(ptr noundef nonnull align 8 dereferenceable(8) %153, i8 noundef zeroext %158)
          to label %160 unwind label %168

160:                                              ; preds = %156
  %161 = invoke noundef nonnull align 8 dereferenceable(8) ptr @_ZSt16__ostream_insertIcSt11char_traitsIcEERSt13basic_ostreamIT_T0_ES6_PKS3_l(ptr noundef nonnull align 8 dereferenceable(8) %159, ptr noundef nonnull @.str.148, i64 noundef 12)
          to label %162 unwind label %168

162:                                              ; preds = %160
  %163 = load i8, ptr %147, align 1, !tbaa !16
  %164 = invoke noundef nonnull align 8 dereferenceable(8) ptr @_ZStlsISt11char_traitsIcEERSt13basic_ostreamIcT_ES5_h(ptr noundef nonnull align 8 dereferenceable(8) %159, i8 noundef zeroext %163)
          to label %165 unwind label %168

165:                                              ; preds = %162
  %166 = invoke noundef nonnull align 8 dereferenceable(8) ptr @_ZStlsISt11char_traitsIcEERSt13basic_ostreamIcT_ES5_PKc(ptr noundef nonnull align 8 dereferenceable(8) %164, ptr noundef nonnull @.str.149)
          to label %167 unwind label %168

167:                                              ; preds = %165
  call void @exit(i32 noundef 1) #12
  unreachable

168:                                              ; preds = %165, %162, %160, %156, %154, %149, %144
  %169 = landingpad { ptr, i32 }
          cleanup
  br label %275

170:                                              ; preds = %137
  %171 = add nuw nsw i64 %138, 1
  %172 = getelementptr inbounds i8, ptr %5, i64 %171
  %173 = load i8, ptr %172, align 1, !tbaa !16
  %174 = getelementptr inbounds i8, ptr %7, i64 %171
  %175 = load i8, ptr %174, align 1, !tbaa !16
  %176 = icmp eq i8 %173, %175
  br i1 %176, label %177, label %144

177:                                              ; preds = %170
  %178 = add nuw nsw i64 %138, 2
  %179 = getelementptr inbounds i8, ptr %5, i64 %178
  %180 = load i8, ptr %179, align 1, !tbaa !16
  %181 = getelementptr inbounds i8, ptr %7, i64 %178
  %182 = load i8, ptr %181, align 1, !tbaa !16
  %183 = icmp eq i8 %180, %182
  br i1 %183, label %184, label %144

184:                                              ; preds = %177
  %185 = add nuw nsw i64 %138, 3
  %186 = getelementptr inbounds i8, ptr %5, i64 %185
  %187 = load i8, ptr %186, align 1, !tbaa !16
  %188 = getelementptr inbounds i8, ptr %7, i64 %185
  %189 = load i8, ptr %188, align 1, !tbaa !16
  %190 = icmp eq i8 %187, %189
  br i1 %190, label %191, label %144

191:                                              ; preds = %184
  %192 = add nuw nsw i64 %138, 4
  %193 = getelementptr inbounds i8, ptr %5, i64 %192
  %194 = load i8, ptr %193, align 1, !tbaa !16
  %195 = getelementptr inbounds i8, ptr %7, i64 %192
  %196 = load i8, ptr %195, align 1, !tbaa !16
  %197 = icmp eq i8 %194, %196
  br i1 %197, label %198, label %144

198:                                              ; preds = %191
  %199 = add nuw nsw i64 %138, 5
  %200 = icmp eq i64 %199, 10000
  br i1 %200, label %201, label %137, !llvm.loop !99

201:                                              ; preds = %198
  %202 = getelementptr inbounds %"class.benchmark::State", ptr %0, i64 0, i32 5
  %203 = load i8, ptr %202, align 2, !tbaa !23, !range !40, !noundef !41
  %204 = getelementptr inbounds %"class.benchmark::State", ptr %0, i64 0, i32 2
  %205 = load i64, ptr %204, align 8
  invoke void @_ZN9benchmark5State16StartKeepRunningEv(ptr noundef nonnull align 8 dereferenceable(144) %0)
          to label %206 unwind label %217

206:                                              ; preds = %201
  %207 = icmp ne i8 %203, 0
  %208 = icmp eq i64 %205, 0
  %209 = select i1 %207, i1 true, i1 %208
  br i1 %209, label %212, label %210, !prof !42

210:                                              ; preds = %206
  %211 = getelementptr i8, ptr %4, i64 40000
  br label %219

212:                                              ; preds = %272, %206
  invoke void @_ZN9benchmark5State17FinishKeepRunningEv(ptr noundef nonnull align 8 dereferenceable(144) %0)
          to label %213 unwind label %217

213:                                              ; preds = %212
  call void @_ZdaPv(ptr noundef nonnull %7) #13
  %214 = load ptr, ptr %3, align 8, !tbaa !5
  %215 = icmp eq ptr %214, null
  br i1 %215, label %284, label %216

216:                                              ; preds = %213
  call void @_ZdaPv(ptr noundef nonnull %214) #13
  br label %284

217:                                              ; preds = %212, %201
  %218 = landingpad { ptr, i32 }
          cleanup
  br label %275

219:                                              ; preds = %210, %272
  %220 = phi i64 [ %273, %272 ], [ %205, %210 ]
  %221 = load i64, ptr %3, align 8
  call void asm sideeffect "", "=*r|m,0,~{memory},~{dirflag},~{fpsr},~{flags}"(ptr nonnull elementtype(%"class.std::unique_ptr.33") %3, i64 %221) #11, !srcloc !43
  fence syncscope("singlethread") acq_rel
  %222 = load ptr, ptr %3, align 8, !tbaa !5
  %223 = getelementptr i8, ptr %222, i64 10000
  %224 = icmp ult ptr %222, %211
  %225 = icmp ult ptr %4, %223
  %226 = and i1 %224, %225
  br i1 %226, label %247, label %227

227:                                              ; preds = %219, %227
  %228 = phi i64 [ %245, %227 ], [ 0, %219 ]
  %229 = getelementptr inbounds i32, ptr %4, i64 %228
  %230 = load <16 x i32>, ptr %229, align 4, !tbaa !95, !alias.scope !108
  %231 = getelementptr inbounds i32, ptr %229, i64 16
  %232 = load <16 x i32>, ptr %231, align 4, !tbaa !95, !alias.scope !108
  %233 = getelementptr inbounds i32, ptr %229, i64 32
  %234 = load <16 x i32>, ptr %233, align 4, !tbaa !95, !alias.scope !108
  %235 = getelementptr inbounds i32, ptr %229, i64 48
  %236 = load <16 x i32>, ptr %235, align 4, !tbaa !95, !alias.scope !108
  %237 = trunc <16 x i32> %230 to <16 x i8>
  %238 = trunc <16 x i32> %232 to <16 x i8>
  %239 = trunc <16 x i32> %234 to <16 x i8>
  %240 = trunc <16 x i32> %236 to <16 x i8>
  %241 = getelementptr inbounds i8, ptr %222, i64 %228
  store <16 x i8> %237, ptr %241, align 1, !tbaa !16, !alias.scope !111, !noalias !108
  %242 = getelementptr inbounds i8, ptr %241, i64 16
  store <16 x i8> %238, ptr %242, align 1, !tbaa !16, !alias.scope !111, !noalias !108
  %243 = getelementptr inbounds i8, ptr %241, i64 32
  store <16 x i8> %239, ptr %243, align 1, !tbaa !16, !alias.scope !111, !noalias !108
  %244 = getelementptr inbounds i8, ptr %241, i64 48
  store <16 x i8> %240, ptr %244, align 1, !tbaa !16, !alias.scope !111, !noalias !108
  %245 = add nuw i64 %228, 64
  %246 = icmp eq i64 %245, 9984
  br i1 %246, label %247, label %227, !llvm.loop !113

247:                                              ; preds = %227, %219
  %248 = phi i64 [ 0, %219 ], [ 9984, %227 ]
  br label %249

249:                                              ; preds = %249, %247
  %250 = phi i64 [ %248, %247 ], [ %270, %249 ]
  %251 = getelementptr inbounds i32, ptr %4, i64 %250
  %252 = load i32, ptr %251, align 4, !tbaa !95
  %253 = trunc i32 %252 to i8
  %254 = getelementptr inbounds i8, ptr %222, i64 %250
  store i8 %253, ptr %254, align 1, !tbaa !16
  %255 = or i64 %250, 1
  %256 = getelementptr inbounds i32, ptr %4, i64 %255
  %257 = load i32, ptr %256, align 4, !tbaa !95
  %258 = trunc i32 %257 to i8
  %259 = getelementptr inbounds i8, ptr %222, i64 %255
  store i8 %258, ptr %259, align 1, !tbaa !16
  %260 = or i64 %250, 2
  %261 = getelementptr inbounds i32, ptr %4, i64 %260
  %262 = load i32, ptr %261, align 4, !tbaa !95
  %263 = trunc i32 %262 to i8
  %264 = getelementptr inbounds i8, ptr %222, i64 %260
  store i8 %263, ptr %264, align 1, !tbaa !16
  %265 = or i64 %250, 3
  %266 = getelementptr inbounds i32, ptr %4, i64 %265
  %267 = load i32, ptr %266, align 4, !tbaa !95
  %268 = trunc i32 %267 to i8
  %269 = getelementptr inbounds i8, ptr %222, i64 %265
  store i8 %268, ptr %269, align 1, !tbaa !16
  %270 = add nuw nsw i64 %250, 4
  %271 = icmp eq i64 %270, 10000
  br i1 %271, label %272, label %249, !llvm.loop !114

272:                                              ; preds = %249
  %273 = add i64 %220, -1
  %274 = icmp eq i64 %273, 0
  br i1 %274, label %212, label %219, !prof !42

275:                                              ; preds = %217, %168, %135
  %276 = phi { ptr, i32 } [ %169, %168 ], [ %218, %217 ], [ %136, %135 ]
  call void @_ZdaPv(ptr noundef nonnull %7) #13
  %277 = load ptr, ptr %3, align 8, !tbaa !5
  %278 = icmp eq ptr %277, null
  br i1 %278, label %282, label %279

279:                                              ; preds = %275, %133
  %280 = phi { ptr, i32 } [ %134, %133 ], [ %276, %275 ]
  %281 = phi ptr [ %5, %133 ], [ %277, %275 ]
  call void @_ZdaPv(ptr noundef nonnull %281) #13
  br label %282

282:                                              ; preds = %279, %275, %131
  %283 = phi { ptr, i32 } [ %132, %131 ], [ %276, %275 ], [ %280, %279 ]
  call void @llvm.lifetime.end.p0(i64 8, ptr nonnull %3) #11
  call void @_ZdaPv(ptr noundef nonnull %4) #13
  resume { ptr, i32 } %283

284:                                              ; preds = %213, %216
  call void @llvm.lifetime.end.p0(i64 8, ptr nonnull %3) #11
  call void @_ZdaPv(ptr noundef nonnull %4) #13
  ret void
}

; Function Attrs: uwtable
define dso_local void @_Z53benchForTruncOrZextVecInLoopFrom_uint32_t_To_uint8_t_RN9benchmark5StateE(ptr noundef nonnull align 8 dereferenceable(144) %0) #3 personality ptr @__gxx_personality_v0 {
  %2 = alloca %"class.std::uniform_int_distribution.54", align 4
  %3 = alloca %"class.std::unique_ptr.33", align 8
  %4 = tail call noalias noundef nonnull dereferenceable(40000) ptr @_Znam(i64 noundef 40000) #10
  call void @llvm.lifetime.start.p0(i64 8, ptr nonnull %3) #11
  %5 = invoke noalias noundef nonnull dereferenceable(10000) ptr @_Znam(i64 noundef 10000) #10
          to label %6 unwind label %67

6:                                                ; preds = %1
  store ptr %5, ptr %3, align 8, !tbaa !5
  %7 = invoke noalias noundef nonnull dereferenceable(10000) ptr @_Znam(i64 noundef 10000) #10
          to label %8 unwind label %69

8:                                                ; preds = %6
  call void @llvm.lifetime.start.p0(i64 8, ptr nonnull %2) #11
  store i32 0, ptr %2, align 4, !tbaa !92
  %9 = getelementptr inbounds %"struct.std::uniform_int_distribution<unsigned int>::param_type", ptr %2, i64 0, i32 1
  store i32 -1, ptr %9, align 4, !tbaa !94
  br label %10

10:                                               ; preds = %13, %8
  %11 = phi i64 [ 0, %8 ], [ %15, %13 ]
  %12 = invoke noundef i32 @_ZNSt24uniform_int_distributionIjEclISt23mersenne_twister_engineImLm32ELm624ELm397ELm31ELm2567483615ELm11ELm4294967295ELm7ELm2636928640ELm15ELm4022730752ELm18ELm1812433253EEEEjRT_RKNS0_10param_typeE(ptr noundef nonnull align 4 dereferenceable(8) %2, ptr noundef nonnull align 8 dereferenceable(5000) @_ZL3rng, ptr noundef nonnull align 4 dereferenceable(8) %2)
          to label %13 unwind label %71

13:                                               ; preds = %10
  %14 = getelementptr inbounds i32, ptr %4, i64 %11
  store i32 %12, ptr %14, align 4, !tbaa !95
  %15 = add nuw nsw i64 %11, 1
  %16 = icmp eq i64 %15, 10000
  br i1 %16, label %17, label %10, !llvm.loop !96

17:                                               ; preds = %13
  call void @llvm.lifetime.end.p0(i64 8, ptr nonnull %2) #11
  br label %18

18:                                               ; preds = %18, %17
  %19 = phi i64 [ 0, %17 ], [ %44, %18 ]
  %20 = getelementptr inbounds i32, ptr %4, i64 %19
  %21 = load i32, ptr %20, align 4, !tbaa !95
  %22 = trunc i32 %21 to i8
  %23 = getelementptr inbounds i8, ptr %7, i64 %19
  store i8 %22, ptr %23, align 1, !tbaa !16
  %24 = add nuw nsw i64 %19, 1
  %25 = getelementptr inbounds i32, ptr %4, i64 %24
  %26 = load i32, ptr %25, align 4, !tbaa !95
  %27 = trunc i32 %26 to i8
  %28 = getelementptr inbounds i8, ptr %7, i64 %24
  store i8 %27, ptr %28, align 1, !tbaa !16
  %29 = add nuw nsw i64 %19, 2
  %30 = getelementptr inbounds i32, ptr %4, i64 %29
  %31 = load i32, ptr %30, align 4, !tbaa !95
  %32 = trunc i32 %31 to i8
  %33 = getelementptr inbounds i8, ptr %7, i64 %29
  store i8 %32, ptr %33, align 1, !tbaa !16
  %34 = add nuw nsw i64 %19, 3
  %35 = getelementptr inbounds i32, ptr %4, i64 %34
  %36 = load i32, ptr %35, align 4, !tbaa !95
  %37 = trunc i32 %36 to i8
  %38 = getelementptr inbounds i8, ptr %7, i64 %34
  store i8 %37, ptr %38, align 1, !tbaa !16
  %39 = add nuw nsw i64 %19, 4
  %40 = getelementptr inbounds i32, ptr %4, i64 %39
  %41 = load i32, ptr %40, align 4, !tbaa !95
  %42 = trunc i32 %41 to i8
  %43 = getelementptr inbounds i8, ptr %7, i64 %39
  store i8 %42, ptr %43, align 1, !tbaa !16
  %44 = add nuw nsw i64 %19, 5
  %45 = icmp eq i64 %44, 10000
  br i1 %45, label %46, label %18, !llvm.loop !97

46:                                               ; preds = %18, %46
  %47 = phi i64 [ %65, %46 ], [ 0, %18 ]
  %48 = getelementptr inbounds i32, ptr %4, i64 %47
  %49 = load <4 x i32>, ptr %48, align 4, !tbaa !95
  %50 = getelementptr inbounds i32, ptr %48, i64 4
  %51 = load <4 x i32>, ptr %50, align 4, !tbaa !95
  %52 = trunc <4 x i32> %49 to <4 x i8>
  %53 = trunc <4 x i32> %51 to <4 x i8>
  %54 = getelementptr inbounds i8, ptr %5, i64 %47
  store <4 x i8> %52, ptr %54, align 1, !tbaa !16
  %55 = getelementptr inbounds i8, ptr %54, i64 4
  store <4 x i8> %53, ptr %55, align 1, !tbaa !16
  %56 = or i64 %47, 8
  %57 = getelementptr inbounds i32, ptr %4, i64 %56
  %58 = load <4 x i32>, ptr %57, align 4, !tbaa !95
  %59 = getelementptr inbounds i32, ptr %57, i64 4
  %60 = load <4 x i32>, ptr %59, align 4, !tbaa !95
  %61 = trunc <4 x i32> %58 to <4 x i8>
  %62 = trunc <4 x i32> %60 to <4 x i8>
  %63 = getelementptr inbounds i8, ptr %5, i64 %56
  store <4 x i8> %61, ptr %63, align 1, !tbaa !16
  %64 = getelementptr inbounds i8, ptr %63, i64 4
  store <4 x i8> %62, ptr %64, align 1, !tbaa !16
  %65 = add nuw nsw i64 %47, 16
  %66 = icmp eq i64 %65, 10000
  br i1 %66, label %73, label %46, !llvm.loop !115

67:                                               ; preds = %1
  %68 = landingpad { ptr, i32 }
          cleanup
  br label %222

69:                                               ; preds = %6
  %70 = landingpad { ptr, i32 }
          cleanup
  br label %219

71:                                               ; preds = %10
  %72 = landingpad { ptr, i32 }
          cleanup
  br label %215

73:                                               ; preds = %46, %134
  %74 = phi i64 [ %135, %134 ], [ 0, %46 ]
  %75 = getelementptr inbounds i8, ptr %5, i64 %74
  %76 = load i8, ptr %75, align 1, !tbaa !16
  %77 = getelementptr inbounds i8, ptr %7, i64 %74
  %78 = load i8, ptr %77, align 1, !tbaa !16
  %79 = icmp eq i8 %76, %78
  br i1 %79, label %106, label %80

80:                                               ; preds = %127, %120, %113, %106, %73
  %81 = phi i64 [ %74, %73 ], [ %107, %106 ], [ %114, %113 ], [ %121, %120 ], [ %128, %127 ]
  %82 = and i64 %81, 4294967295
  %83 = getelementptr inbounds i8, ptr %7, i64 %82
  %84 = invoke noundef nonnull align 8 dereferenceable(8) ptr @_ZSt16__ostream_insertIcSt11char_traitsIcEERSt13basic_ostreamIT_T0_ES6_PKS3_l(ptr noundef nonnull align 8 dereferenceable(8) @_ZSt4cerr, ptr noundef nonnull @.str.146, i64 noundef 34)
          to label %85 unwind label %104

85:                                               ; preds = %80
  %86 = getelementptr inbounds i32, ptr %4, i64 %82
  %87 = load i32, ptr %86, align 4, !tbaa !95
  %88 = zext i32 %87 to i64
  %89 = invoke noundef nonnull align 8 dereferenceable(8) ptr @_ZNSo9_M_insertImEERSoT_(ptr noundef nonnull align 8 dereferenceable(8) @_ZSt4cerr, i64 noundef %88)
          to label %90 unwind label %104

90:                                               ; preds = %85
  %91 = invoke noundef nonnull align 8 dereferenceable(8) ptr @_ZSt16__ostream_insertIcSt11char_traitsIcEERSt13basic_ostreamIT_T0_ES6_PKS3_l(ptr noundef nonnull align 8 dereferenceable(8) %89, ptr noundef nonnull @.str.147, i64 noundef 19)
          to label %92 unwind label %104

92:                                               ; preds = %90
  %93 = getelementptr inbounds i8, ptr %5, i64 %82
  %94 = load i8, ptr %93, align 1, !tbaa !16
  %95 = invoke noundef nonnull align 8 dereferenceable(8) ptr @_ZStlsISt11char_traitsIcEERSt13basic_ostreamIcT_ES5_h(ptr noundef nonnull align 8 dereferenceable(8) %89, i8 noundef zeroext %94)
          to label %96 unwind label %104

96:                                               ; preds = %92
  %97 = invoke noundef nonnull align 8 dereferenceable(8) ptr @_ZSt16__ostream_insertIcSt11char_traitsIcEERSt13basic_ostreamIT_T0_ES6_PKS3_l(ptr noundef nonnull align 8 dereferenceable(8) %95, ptr noundef nonnull @.str.148, i64 noundef 12)
          to label %98 unwind label %104

98:                                               ; preds = %96
  %99 = load i8, ptr %83, align 1, !tbaa !16
  %100 = invoke noundef nonnull align 8 dereferenceable(8) ptr @_ZStlsISt11char_traitsIcEERSt13basic_ostreamIcT_ES5_h(ptr noundef nonnull align 8 dereferenceable(8) %95, i8 noundef zeroext %99)
          to label %101 unwind label %104

101:                                              ; preds = %98
  %102 = invoke noundef nonnull align 8 dereferenceable(8) ptr @_ZStlsISt11char_traitsIcEERSt13basic_ostreamIcT_ES5_PKc(ptr noundef nonnull align 8 dereferenceable(8) %100, ptr noundef nonnull @.str.149)
          to label %103 unwind label %104

103:                                              ; preds = %101
  call void @exit(i32 noundef 1) #12
  unreachable

104:                                              ; preds = %101, %98, %96, %92, %90, %85, %80
  %105 = landingpad { ptr, i32 }
          cleanup
  br label %215

106:                                              ; preds = %73
  %107 = add nuw nsw i64 %74, 1
  %108 = getelementptr inbounds i8, ptr %5, i64 %107
  %109 = load i8, ptr %108, align 1, !tbaa !16
  %110 = getelementptr inbounds i8, ptr %7, i64 %107
  %111 = load i8, ptr %110, align 1, !tbaa !16
  %112 = icmp eq i8 %109, %111
  br i1 %112, label %113, label %80

113:                                              ; preds = %106
  %114 = add nuw nsw i64 %74, 2
  %115 = getelementptr inbounds i8, ptr %5, i64 %114
  %116 = load i8, ptr %115, align 1, !tbaa !16
  %117 = getelementptr inbounds i8, ptr %7, i64 %114
  %118 = load i8, ptr %117, align 1, !tbaa !16
  %119 = icmp eq i8 %116, %118
  br i1 %119, label %120, label %80

120:                                              ; preds = %113
  %121 = add nuw nsw i64 %74, 3
  %122 = getelementptr inbounds i8, ptr %5, i64 %121
  %123 = load i8, ptr %122, align 1, !tbaa !16
  %124 = getelementptr inbounds i8, ptr %7, i64 %121
  %125 = load i8, ptr %124, align 1, !tbaa !16
  %126 = icmp eq i8 %123, %125
  br i1 %126, label %127, label %80

127:                                              ; preds = %120
  %128 = add nuw nsw i64 %74, 4
  %129 = getelementptr inbounds i8, ptr %5, i64 %128
  %130 = load i8, ptr %129, align 1, !tbaa !16
  %131 = getelementptr inbounds i8, ptr %7, i64 %128
  %132 = load i8, ptr %131, align 1, !tbaa !16
  %133 = icmp eq i8 %130, %132
  br i1 %133, label %134, label %80

134:                                              ; preds = %127
  %135 = add nuw nsw i64 %74, 5
  %136 = icmp eq i64 %135, 10000
  br i1 %136, label %137, label %73, !llvm.loop !99

137:                                              ; preds = %134
  %138 = getelementptr inbounds %"class.benchmark::State", ptr %0, i64 0, i32 5
  %139 = load i8, ptr %138, align 2, !tbaa !23, !range !40, !noundef !41
  %140 = getelementptr inbounds %"class.benchmark::State", ptr %0, i64 0, i32 2
  %141 = load i64, ptr %140, align 8
  invoke void @_ZN9benchmark5State16StartKeepRunningEv(ptr noundef nonnull align 8 dereferenceable(144) %0)
          to label %142 unwind label %153

142:                                              ; preds = %137
  %143 = icmp ne i8 %139, 0
  %144 = icmp eq i64 %141, 0
  %145 = select i1 %143, i1 true, i1 %144
  br i1 %145, label %148, label %146, !prof !42

146:                                              ; preds = %142
  %147 = getelementptr i8, ptr %4, i64 40000
  br label %155

148:                                              ; preds = %212, %142
  invoke void @_ZN9benchmark5State17FinishKeepRunningEv(ptr noundef nonnull align 8 dereferenceable(144) %0)
          to label %149 unwind label %153

149:                                              ; preds = %148
  call void @_ZdaPv(ptr noundef nonnull %7) #13
  %150 = load ptr, ptr %3, align 8, !tbaa !5
  %151 = icmp eq ptr %150, null
  br i1 %151, label %224, label %152

152:                                              ; preds = %149
  call void @_ZdaPv(ptr noundef nonnull %150) #13
  br label %224

153:                                              ; preds = %148, %137
  %154 = landingpad { ptr, i32 }
          cleanup
  br label %215

155:                                              ; preds = %146, %212
  %156 = phi i64 [ %213, %212 ], [ %141, %146 ]
  %157 = load i64, ptr %3, align 8
  call void asm sideeffect "", "=*r|m,0,~{memory},~{dirflag},~{fpsr},~{flags}"(ptr nonnull elementtype(%"class.std::unique_ptr.33") %3, i64 %157) #11, !srcloc !43
  fence syncscope("singlethread") acq_rel
  %158 = load ptr, ptr %3, align 8, !tbaa !5
  %159 = getelementptr i8, ptr %158, i64 10000
  %160 = icmp ult ptr %158, %147
  %161 = icmp ult ptr %4, %159
  %162 = and i1 %160, %161
  br i1 %162, label %184, label %163

163:                                              ; preds = %155, %163
  %164 = phi i64 [ %182, %163 ], [ 0, %155 ]
  %165 = getelementptr inbounds i32, ptr %4, i64 %164
  %166 = load <4 x i32>, ptr %165, align 4, !tbaa !95, !alias.scope !116
  %167 = getelementptr inbounds i32, ptr %165, i64 4
  %168 = load <4 x i32>, ptr %167, align 4, !tbaa !95, !alias.scope !116
  %169 = trunc <4 x i32> %166 to <4 x i8>
  %170 = trunc <4 x i32> %168 to <4 x i8>
  %171 = getelementptr inbounds i8, ptr %158, i64 %164
  store <4 x i8> %169, ptr %171, align 1, !tbaa !16, !alias.scope !119, !noalias !116
  %172 = getelementptr inbounds i8, ptr %171, i64 4
  store <4 x i8> %170, ptr %172, align 1, !tbaa !16, !alias.scope !119, !noalias !116
  %173 = or i64 %164, 8
  %174 = getelementptr inbounds i32, ptr %4, i64 %173
  %175 = load <4 x i32>, ptr %174, align 4, !tbaa !95, !alias.scope !116
  %176 = getelementptr inbounds i32, ptr %174, i64 4
  %177 = load <4 x i32>, ptr %176, align 4, !tbaa !95, !alias.scope !116
  %178 = trunc <4 x i32> %175 to <4 x i8>
  %179 = trunc <4 x i32> %177 to <4 x i8>
  %180 = getelementptr inbounds i8, ptr %158, i64 %173
  store <4 x i8> %178, ptr %180, align 1, !tbaa !16, !alias.scope !119, !noalias !116
  %181 = getelementptr inbounds i8, ptr %180, i64 4
  store <4 x i8> %179, ptr %181, align 1, !tbaa !16, !alias.scope !119, !noalias !116
  %182 = add nuw nsw i64 %164, 16
  %183 = icmp eq i64 %182, 10000
  br i1 %183, label %212, label %163, !llvm.loop !121

184:                                              ; preds = %155, %184
  %185 = phi i64 [ %210, %184 ], [ 0, %155 ]
  %186 = getelementptr inbounds i32, ptr %4, i64 %185
  %187 = load i32, ptr %186, align 4, !tbaa !95
  %188 = trunc i32 %187 to i8
  %189 = getelementptr inbounds i8, ptr %158, i64 %185
  store i8 %188, ptr %189, align 1, !tbaa !16
  %190 = add nuw nsw i64 %185, 1
  %191 = getelementptr inbounds i32, ptr %4, i64 %190
  %192 = load i32, ptr %191, align 4, !tbaa !95
  %193 = trunc i32 %192 to i8
  %194 = getelementptr inbounds i8, ptr %158, i64 %190
  store i8 %193, ptr %194, align 1, !tbaa !16
  %195 = add nuw nsw i64 %185, 2
  %196 = getelementptr inbounds i32, ptr %4, i64 %195
  %197 = load i32, ptr %196, align 4, !tbaa !95
  %198 = trunc i32 %197 to i8
  %199 = getelementptr inbounds i8, ptr %158, i64 %195
  store i8 %198, ptr %199, align 1, !tbaa !16
  %200 = add nuw nsw i64 %185, 3
  %201 = getelementptr inbounds i32, ptr %4, i64 %200
  %202 = load i32, ptr %201, align 4, !tbaa !95
  %203 = trunc i32 %202 to i8
  %204 = getelementptr inbounds i8, ptr %158, i64 %200
  store i8 %203, ptr %204, align 1, !tbaa !16
  %205 = add nuw nsw i64 %185, 4
  %206 = getelementptr inbounds i32, ptr %4, i64 %205
  %207 = load i32, ptr %206, align 4, !tbaa !95
  %208 = trunc i32 %207 to i8
  %209 = getelementptr inbounds i8, ptr %158, i64 %205
  store i8 %208, ptr %209, align 1, !tbaa !16
  %210 = add nuw nsw i64 %185, 5
  %211 = icmp eq i64 %210, 10000
  br i1 %211, label %212, label %184, !llvm.loop !122

212:                                              ; preds = %163, %184
  %213 = add i64 %156, -1
  %214 = icmp eq i64 %213, 0
  br i1 %214, label %148, label %155, !prof !42

215:                                              ; preds = %153, %104, %71
  %216 = phi { ptr, i32 } [ %105, %104 ], [ %154, %153 ], [ %72, %71 ]
  call void @_ZdaPv(ptr noundef nonnull %7) #13
  %217 = load ptr, ptr %3, align 8, !tbaa !5
  %218 = icmp eq ptr %217, null
  br i1 %218, label %222, label %219

219:                                              ; preds = %215, %69
  %220 = phi { ptr, i32 } [ %70, %69 ], [ %216, %215 ]
  %221 = phi ptr [ %5, %69 ], [ %217, %215 ]
  call void @_ZdaPv(ptr noundef nonnull %221) #13
  br label %222

222:                                              ; preds = %219, %215, %67
  %223 = phi { ptr, i32 } [ %68, %67 ], [ %216, %215 ], [ %220, %219 ]
  call void @llvm.lifetime.end.p0(i64 8, ptr nonnull %3) #11
  call void @_ZdaPv(ptr noundef nonnull %4) #13
  resume { ptr, i32 } %223

224:                                              ; preds = %149, %152
  call void @llvm.lifetime.end.p0(i64 8, ptr nonnull %3) #11
  call void @_ZdaPv(ptr noundef nonnull %4) #13
  ret void
}

; Function Attrs: uwtable
define dso_local void @_Z67benchForTruncOrZextVecWithAddInLoopWithVW8From_uint32_t_To_uint8_t_RN9benchmark5StateE(ptr noundef nonnull align 8 dereferenceable(144) %0) #3 personality ptr @__gxx_personality_v0 {
  %2 = alloca %"class.std::uniform_int_distribution.43", align 1
  %3 = alloca %"class.std::uniform_int_distribution.54", align 4
  %4 = alloca %"class.std::unique_ptr.33", align 8
  %5 = tail call noalias noundef nonnull dereferenceable(40000) ptr @_Znam(i64 noundef 40000) #10
  call void @llvm.lifetime.start.p0(i64 8, ptr nonnull %4) #11
  %6 = invoke noalias noundef nonnull dereferenceable(10000) ptr @_Znam(i64 noundef 10000) #10
          to label %7 unwind label %42

7:                                                ; preds = %1
  store ptr %6, ptr %4, align 8, !tbaa !5
  call void @llvm.lifetime.start.p0(i64 8, ptr nonnull %3) #11
  store i32 0, ptr %3, align 4, !tbaa !92
  %8 = getelementptr inbounds %"struct.std::uniform_int_distribution<unsigned int>::param_type", ptr %3, i64 0, i32 1
  store i32 -1, ptr %8, align 4, !tbaa !94
  br label %9

9:                                                ; preds = %12, %7
  %10 = phi i64 [ 0, %7 ], [ %14, %12 ]
  %11 = invoke noundef i32 @_ZNSt24uniform_int_distributionIjEclISt23mersenne_twister_engineImLm32ELm624ELm397ELm31ELm2567483615ELm11ELm4294967295ELm7ELm2636928640ELm15ELm4022730752ELm18ELm1812433253EEEEjRT_RKNS0_10param_typeE(ptr noundef nonnull align 4 dereferenceable(8) %3, ptr noundef nonnull align 8 dereferenceable(5000) @_ZL3rng, ptr noundef nonnull align 4 dereferenceable(8) %3)
          to label %12 unwind label %46

12:                                               ; preds = %9
  %13 = getelementptr inbounds i32, ptr %5, i64 %10
  store i32 %11, ptr %13, align 4, !tbaa !95
  %14 = add nuw nsw i64 %10, 1
  %15 = icmp eq i64 %14, 10000
  br i1 %15, label %16, label %9, !llvm.loop !96

16:                                               ; preds = %12
  call void @llvm.lifetime.end.p0(i64 8, ptr nonnull %3) #11
  call void @llvm.lifetime.start.p0(i64 2, ptr nonnull %2) #11
  store i8 0, ptr %2, align 1, !tbaa !67
  %17 = getelementptr inbounds %"struct.std::uniform_int_distribution<unsigned char>::param_type", ptr %2, i64 0, i32 1
  store i8 -1, ptr %17, align 1, !tbaa !69
  br label %18

18:                                               ; preds = %21, %16
  %19 = phi i64 [ 0, %16 ], [ %24, %21 ]
  %20 = invoke noundef zeroext i8 @_ZNSt24uniform_int_distributionIhEclISt23mersenne_twister_engineImLm32ELm624ELm397ELm31ELm2567483615ELm11ELm4294967295ELm7ELm2636928640ELm15ELm4022730752ELm18ELm1812433253EEEEhRT_RKNS0_10param_typeE(ptr noundef nonnull align 1 dereferenceable(2) %2, ptr noundef nonnull align 8 dereferenceable(5000) @_ZL3rng, ptr noundef nonnull align 1 dereferenceable(2) %2)
          to label %21 unwind label %44

21:                                               ; preds = %18
  %22 = load ptr, ptr %4, align 8, !tbaa !5
  %23 = getelementptr inbounds i8, ptr %22, i64 %19
  store i8 %20, ptr %23, align 1, !tbaa !16
  %24 = add nuw nsw i64 %19, 1
  %25 = icmp eq i64 %24, 10000
  br i1 %25, label %26, label %18, !llvm.loop !70

26:                                               ; preds = %21
  call void @llvm.lifetime.end.p0(i64 2, ptr nonnull %2) #11
  %27 = getelementptr inbounds %"class.benchmark::State", ptr %0, i64 0, i32 5
  %28 = load i8, ptr %27, align 2, !tbaa !23, !range !40, !noundef !41
  %29 = getelementptr inbounds %"class.benchmark::State", ptr %0, i64 0, i32 2
  %30 = load i64, ptr %29, align 8
  invoke void @_ZN9benchmark5State16StartKeepRunningEv(ptr noundef nonnull align 8 dereferenceable(144) %0)
          to label %31 unwind label %48

31:                                               ; preds = %26
  %32 = icmp ne i8 %28, 0
  %33 = icmp eq i64 %30, 0
  %34 = select i1 %32, i1 true, i1 %33
  br i1 %34, label %37, label %35, !prof !42

35:                                               ; preds = %31
  %36 = getelementptr i8, ptr %5, i64 40000
  br label %50

37:                                               ; preds = %119, %31
  invoke void @_ZN9benchmark5State17FinishKeepRunningEv(ptr noundef nonnull align 8 dereferenceable(144) %0)
          to label %38 unwind label %48

38:                                               ; preds = %37
  %39 = load ptr, ptr %4, align 8, !tbaa !5
  %40 = icmp eq ptr %39, null
  br i1 %40, label %129, label %41

41:                                               ; preds = %38
  call void @_ZdaPv(ptr noundef nonnull %39) #13
  br label %129

42:                                               ; preds = %1
  %43 = landingpad { ptr, i32 }
          cleanup
  br label %127

44:                                               ; preds = %18
  %45 = landingpad { ptr, i32 }
          cleanup
  br label %122

46:                                               ; preds = %9
  %47 = landingpad { ptr, i32 }
          cleanup
  br label %122

48:                                               ; preds = %37, %26
  %49 = landingpad { ptr, i32 }
          cleanup
  br label %122

50:                                               ; preds = %35, %119
  %51 = phi i64 [ %120, %119 ], [ %30, %35 ]
  %52 = load i64, ptr %4, align 8
  call void asm sideeffect "", "=*r|m,0,~{memory},~{dirflag},~{fpsr},~{flags}"(ptr nonnull elementtype(%"class.std::unique_ptr.33") %4, i64 %52) #11, !srcloc !43
  fence syncscope("singlethread") acq_rel
  %53 = load ptr, ptr %4, align 8, !tbaa !5
  %54 = getelementptr i8, ptr %53, i64 10000
  %55 = icmp ult ptr %53, %36
  %56 = icmp ult ptr %5, %54
  %57 = and i1 %55, %56
  br i1 %57, label %86, label %58

58:                                               ; preds = %50, %58
  %59 = phi i64 [ %84, %58 ], [ 0, %50 ]
  %60 = getelementptr inbounds i32, ptr %5, i64 %59
  %61 = load <8 x i32>, ptr %60, align 4, !tbaa !95, !alias.scope !123
  %62 = getelementptr inbounds i32, ptr %60, i64 8
  %63 = load <8 x i32>, ptr %62, align 4, !tbaa !95, !alias.scope !123
  %64 = getelementptr inbounds i32, ptr %60, i64 16
  %65 = load <8 x i32>, ptr %64, align 4, !tbaa !95, !alias.scope !123
  %66 = getelementptr inbounds i32, ptr %60, i64 24
  %67 = load <8 x i32>, ptr %66, align 4, !tbaa !95, !alias.scope !123
  %68 = getelementptr inbounds i8, ptr %53, i64 %59
  %69 = load <8 x i8>, ptr %68, align 1, !tbaa !16, !alias.scope !126, !noalias !123
  %70 = getelementptr inbounds i8, ptr %68, i64 8
  %71 = load <8 x i8>, ptr %70, align 1, !tbaa !16, !alias.scope !126, !noalias !123
  %72 = getelementptr inbounds i8, ptr %68, i64 16
  %73 = load <8 x i8>, ptr %72, align 1, !tbaa !16, !alias.scope !126, !noalias !123
  %74 = getelementptr inbounds i8, ptr %68, i64 24
  %75 = load <8 x i8>, ptr %74, align 1, !tbaa !16, !alias.scope !126, !noalias !123
  %76 = trunc <8 x i32> %61 to <8 x i8>
  %77 = trunc <8 x i32> %63 to <8 x i8>
  %78 = trunc <8 x i32> %65 to <8 x i8>
  %79 = trunc <8 x i32> %67 to <8 x i8>
  %80 = add <8 x i8> %69, %76
  %81 = add <8 x i8> %71, %77
  %82 = add <8 x i8> %73, %78
  %83 = add <8 x i8> %75, %79
  store <8 x i8> %80, ptr %68, align 1, !tbaa !16, !alias.scope !126, !noalias !123
  store <8 x i8> %81, ptr %70, align 1, !tbaa !16, !alias.scope !126, !noalias !123
  store <8 x i8> %82, ptr %72, align 1, !tbaa !16, !alias.scope !126, !noalias !123
  store <8 x i8> %83, ptr %74, align 1, !tbaa !16, !alias.scope !126, !noalias !123
  %84 = add nuw i64 %59, 32
  %85 = icmp eq i64 %84, 9984
  br i1 %85, label %86, label %58, !llvm.loop !128

86:                                               ; preds = %58, %50
  %87 = phi i64 [ 0, %50 ], [ 9984, %58 ]
  br label %88

88:                                               ; preds = %88, %86
  %89 = phi i64 [ %87, %86 ], [ %117, %88 ]
  %90 = getelementptr inbounds i32, ptr %5, i64 %89
  %91 = load i32, ptr %90, align 4, !tbaa !95
  %92 = getelementptr inbounds i8, ptr %53, i64 %89
  %93 = load i8, ptr %92, align 1, !tbaa !16
  %94 = trunc i32 %91 to i8
  %95 = add i8 %93, %94
  store i8 %95, ptr %92, align 1, !tbaa !16
  %96 = or i64 %89, 1
  %97 = getelementptr inbounds i32, ptr %5, i64 %96
  %98 = load i32, ptr %97, align 4, !tbaa !95
  %99 = getelementptr inbounds i8, ptr %53, i64 %96
  %100 = load i8, ptr %99, align 1, !tbaa !16
  %101 = trunc i32 %98 to i8
  %102 = add i8 %100, %101
  store i8 %102, ptr %99, align 1, !tbaa !16
  %103 = or i64 %89, 2
  %104 = getelementptr inbounds i32, ptr %5, i64 %103
  %105 = load i32, ptr %104, align 4, !tbaa !95
  %106 = getelementptr inbounds i8, ptr %53, i64 %103
  %107 = load i8, ptr %106, align 1, !tbaa !16
  %108 = trunc i32 %105 to i8
  %109 = add i8 %107, %108
  store i8 %109, ptr %106, align 1, !tbaa !16
  %110 = or i64 %89, 3
  %111 = getelementptr inbounds i32, ptr %5, i64 %110
  %112 = load i32, ptr %111, align 4, !tbaa !95
  %113 = getelementptr inbounds i8, ptr %53, i64 %110
  %114 = load i8, ptr %113, align 1, !tbaa !16
  %115 = trunc i32 %112 to i8
  %116 = add i8 %114, %115
  store i8 %116, ptr %113, align 1, !tbaa !16
  %117 = add nuw nsw i64 %89, 4
  %118 = icmp eq i64 %117, 10000
  br i1 %118, label %119, label %88, !llvm.loop !129

119:                                              ; preds = %88
  %120 = add i64 %51, -1
  %121 = icmp eq i64 %120, 0
  br i1 %121, label %37, label %50, !prof !42

122:                                              ; preds = %48, %46, %44
  %123 = phi { ptr, i32 } [ %49, %48 ], [ %45, %44 ], [ %47, %46 ]
  %124 = load ptr, ptr %4, align 8, !tbaa !5
  %125 = icmp eq ptr %124, null
  br i1 %125, label %127, label %126

126:                                              ; preds = %122
  call void @_ZdaPv(ptr noundef nonnull %124) #13
  br label %127

127:                                              ; preds = %126, %122, %42
  %128 = phi { ptr, i32 } [ %43, %42 ], [ %123, %122 ], [ %123, %126 ]
  call void @llvm.lifetime.end.p0(i64 8, ptr nonnull %4) #11
  call void @_ZdaPv(ptr noundef nonnull %5) #13
  resume { ptr, i32 } %128

129:                                              ; preds = %38, %41
  call void @llvm.lifetime.end.p0(i64 8, ptr nonnull %4) #11
  call void @_ZdaPv(ptr noundef nonnull %5) #13
  ret void
}

; Function Attrs: uwtable
define dso_local void @_Z68benchForTruncOrZextVecWithAddInLoopWithVW16From_uint32_t_To_uint8_t_RN9benchmark5StateE(ptr noundef nonnull align 8 dereferenceable(144) %0) #3 personality ptr @__gxx_personality_v0 {
  %2 = alloca %"class.std::uniform_int_distribution.43", align 1
  %3 = alloca %"class.std::uniform_int_distribution.54", align 4
  %4 = alloca %"class.std::unique_ptr.33", align 8
  %5 = tail call noalias noundef nonnull dereferenceable(40000) ptr @_Znam(i64 noundef 40000) #10
  call void @llvm.lifetime.start.p0(i64 8, ptr nonnull %4) #11
  %6 = invoke noalias noundef nonnull dereferenceable(10000) ptr @_Znam(i64 noundef 10000) #10
          to label %7 unwind label %42

7:                                                ; preds = %1
  store ptr %6, ptr %4, align 8, !tbaa !5
  call void @llvm.lifetime.start.p0(i64 8, ptr nonnull %3) #11
  store i32 0, ptr %3, align 4, !tbaa !92
  %8 = getelementptr inbounds %"struct.std::uniform_int_distribution<unsigned int>::param_type", ptr %3, i64 0, i32 1
  store i32 -1, ptr %8, align 4, !tbaa !94
  br label %9

9:                                                ; preds = %12, %7
  %10 = phi i64 [ 0, %7 ], [ %14, %12 ]
  %11 = invoke noundef i32 @_ZNSt24uniform_int_distributionIjEclISt23mersenne_twister_engineImLm32ELm624ELm397ELm31ELm2567483615ELm11ELm4294967295ELm7ELm2636928640ELm15ELm4022730752ELm18ELm1812433253EEEEjRT_RKNS0_10param_typeE(ptr noundef nonnull align 4 dereferenceable(8) %3, ptr noundef nonnull align 8 dereferenceable(5000) @_ZL3rng, ptr noundef nonnull align 4 dereferenceable(8) %3)
          to label %12 unwind label %46

12:                                               ; preds = %9
  %13 = getelementptr inbounds i32, ptr %5, i64 %10
  store i32 %11, ptr %13, align 4, !tbaa !95
  %14 = add nuw nsw i64 %10, 1
  %15 = icmp eq i64 %14, 10000
  br i1 %15, label %16, label %9, !llvm.loop !96

16:                                               ; preds = %12
  call void @llvm.lifetime.end.p0(i64 8, ptr nonnull %3) #11
  call void @llvm.lifetime.start.p0(i64 2, ptr nonnull %2) #11
  store i8 0, ptr %2, align 1, !tbaa !67
  %17 = getelementptr inbounds %"struct.std::uniform_int_distribution<unsigned char>::param_type", ptr %2, i64 0, i32 1
  store i8 -1, ptr %17, align 1, !tbaa !69
  br label %18

18:                                               ; preds = %21, %16
  %19 = phi i64 [ 0, %16 ], [ %24, %21 ]
  %20 = invoke noundef zeroext i8 @_ZNSt24uniform_int_distributionIhEclISt23mersenne_twister_engineImLm32ELm624ELm397ELm31ELm2567483615ELm11ELm4294967295ELm7ELm2636928640ELm15ELm4022730752ELm18ELm1812433253EEEEhRT_RKNS0_10param_typeE(ptr noundef nonnull align 1 dereferenceable(2) %2, ptr noundef nonnull align 8 dereferenceable(5000) @_ZL3rng, ptr noundef nonnull align 1 dereferenceable(2) %2)
          to label %21 unwind label %44

21:                                               ; preds = %18
  %22 = load ptr, ptr %4, align 8, !tbaa !5
  %23 = getelementptr inbounds i8, ptr %22, i64 %19
  store i8 %20, ptr %23, align 1, !tbaa !16
  %24 = add nuw nsw i64 %19, 1
  %25 = icmp eq i64 %24, 10000
  br i1 %25, label %26, label %18, !llvm.loop !70

26:                                               ; preds = %21
  call void @llvm.lifetime.end.p0(i64 2, ptr nonnull %2) #11
  %27 = getelementptr inbounds %"class.benchmark::State", ptr %0, i64 0, i32 5
  %28 = load i8, ptr %27, align 2, !tbaa !23, !range !40, !noundef !41
  %29 = getelementptr inbounds %"class.benchmark::State", ptr %0, i64 0, i32 2
  %30 = load i64, ptr %29, align 8
  invoke void @_ZN9benchmark5State16StartKeepRunningEv(ptr noundef nonnull align 8 dereferenceable(144) %0)
          to label %31 unwind label %48

31:                                               ; preds = %26
  %32 = icmp ne i8 %28, 0
  %33 = icmp eq i64 %30, 0
  %34 = select i1 %32, i1 true, i1 %33
  br i1 %34, label %37, label %35, !prof !42

35:                                               ; preds = %31
  %36 = getelementptr i8, ptr %5, i64 40000
  br label %50

37:                                               ; preds = %119, %31
  invoke void @_ZN9benchmark5State17FinishKeepRunningEv(ptr noundef nonnull align 8 dereferenceable(144) %0)
          to label %38 unwind label %48

38:                                               ; preds = %37
  %39 = load ptr, ptr %4, align 8, !tbaa !5
  %40 = icmp eq ptr %39, null
  br i1 %40, label %129, label %41

41:                                               ; preds = %38
  call void @_ZdaPv(ptr noundef nonnull %39) #13
  br label %129

42:                                               ; preds = %1
  %43 = landingpad { ptr, i32 }
          cleanup
  br label %127

44:                                               ; preds = %18
  %45 = landingpad { ptr, i32 }
          cleanup
  br label %122

46:                                               ; preds = %9
  %47 = landingpad { ptr, i32 }
          cleanup
  br label %122

48:                                               ; preds = %37, %26
  %49 = landingpad { ptr, i32 }
          cleanup
  br label %122

50:                                               ; preds = %35, %119
  %51 = phi i64 [ %120, %119 ], [ %30, %35 ]
  %52 = load i64, ptr %4, align 8
  call void asm sideeffect "", "=*r|m,0,~{memory},~{dirflag},~{fpsr},~{flags}"(ptr nonnull elementtype(%"class.std::unique_ptr.33") %4, i64 %52) #11, !srcloc !43
  fence syncscope("singlethread") acq_rel
  %53 = load ptr, ptr %4, align 8, !tbaa !5
  %54 = getelementptr i8, ptr %53, i64 10000
  %55 = icmp ult ptr %53, %36
  %56 = icmp ult ptr %5, %54
  %57 = and i1 %55, %56
  br i1 %57, label %86, label %58

58:                                               ; preds = %50, %58
  %59 = phi i64 [ %84, %58 ], [ 0, %50 ]
  %60 = getelementptr inbounds i32, ptr %5, i64 %59
  %61 = load <16 x i32>, ptr %60, align 4, !tbaa !95, !alias.scope !130
  %62 = getelementptr inbounds i32, ptr %60, i64 16
  %63 = load <16 x i32>, ptr %62, align 4, !tbaa !95, !alias.scope !130
  %64 = getelementptr inbounds i32, ptr %60, i64 32
  %65 = load <16 x i32>, ptr %64, align 4, !tbaa !95, !alias.scope !130
  %66 = getelementptr inbounds i32, ptr %60, i64 48
  %67 = load <16 x i32>, ptr %66, align 4, !tbaa !95, !alias.scope !130
  %68 = getelementptr inbounds i8, ptr %53, i64 %59
  %69 = load <16 x i8>, ptr %68, align 1, !tbaa !16, !alias.scope !133, !noalias !130
  %70 = getelementptr inbounds i8, ptr %68, i64 16
  %71 = load <16 x i8>, ptr %70, align 1, !tbaa !16, !alias.scope !133, !noalias !130
  %72 = getelementptr inbounds i8, ptr %68, i64 32
  %73 = load <16 x i8>, ptr %72, align 1, !tbaa !16, !alias.scope !133, !noalias !130
  %74 = getelementptr inbounds i8, ptr %68, i64 48
  %75 = load <16 x i8>, ptr %74, align 1, !tbaa !16, !alias.scope !133, !noalias !130
  %76 = trunc <16 x i32> %61 to <16 x i8>
  %77 = trunc <16 x i32> %63 to <16 x i8>
  %78 = trunc <16 x i32> %65 to <16 x i8>
  %79 = trunc <16 x i32> %67 to <16 x i8>
  %80 = add <16 x i8> %69, %76
  %81 = add <16 x i8> %71, %77
  %82 = add <16 x i8> %73, %78
  %83 = add <16 x i8> %75, %79
  store <16 x i8> %80, ptr %68, align 1, !tbaa !16, !alias.scope !133, !noalias !130
  store <16 x i8> %81, ptr %70, align 1, !tbaa !16, !alias.scope !133, !noalias !130
  store <16 x i8> %82, ptr %72, align 1, !tbaa !16, !alias.scope !133, !noalias !130
  store <16 x i8> %83, ptr %74, align 1, !tbaa !16, !alias.scope !133, !noalias !130
  %84 = add nuw i64 %59, 64
  %85 = icmp eq i64 %84, 9984
  br i1 %85, label %86, label %58, !llvm.loop !135

86:                                               ; preds = %58, %50
  %87 = phi i64 [ 0, %50 ], [ 9984, %58 ]
  br label %88

88:                                               ; preds = %88, %86
  %89 = phi i64 [ %87, %86 ], [ %117, %88 ]
  %90 = getelementptr inbounds i32, ptr %5, i64 %89
  %91 = load i32, ptr %90, align 4, !tbaa !95
  %92 = getelementptr inbounds i8, ptr %53, i64 %89
  %93 = load i8, ptr %92, align 1, !tbaa !16
  %94 = trunc i32 %91 to i8
  %95 = add i8 %93, %94
  store i8 %95, ptr %92, align 1, !tbaa !16
  %96 = or i64 %89, 1
  %97 = getelementptr inbounds i32, ptr %5, i64 %96
  %98 = load i32, ptr %97, align 4, !tbaa !95
  %99 = getelementptr inbounds i8, ptr %53, i64 %96
  %100 = load i8, ptr %99, align 1, !tbaa !16
  %101 = trunc i32 %98 to i8
  %102 = add i8 %100, %101
  store i8 %102, ptr %99, align 1, !tbaa !16
  %103 = or i64 %89, 2
  %104 = getelementptr inbounds i32, ptr %5, i64 %103
  %105 = load i32, ptr %104, align 4, !tbaa !95
  %106 = getelementptr inbounds i8, ptr %53, i64 %103
  %107 = load i8, ptr %106, align 1, !tbaa !16
  %108 = trunc i32 %105 to i8
  %109 = add i8 %107, %108
  store i8 %109, ptr %106, align 1, !tbaa !16
  %110 = or i64 %89, 3
  %111 = getelementptr inbounds i32, ptr %5, i64 %110
  %112 = load i32, ptr %111, align 4, !tbaa !95
  %113 = getelementptr inbounds i8, ptr %53, i64 %110
  %114 = load i8, ptr %113, align 1, !tbaa !16
  %115 = trunc i32 %112 to i8
  %116 = add i8 %114, %115
  store i8 %116, ptr %113, align 1, !tbaa !16
  %117 = add nuw nsw i64 %89, 4
  %118 = icmp eq i64 %117, 10000
  br i1 %118, label %119, label %88, !llvm.loop !136

119:                                              ; preds = %88
  %120 = add i64 %51, -1
  %121 = icmp eq i64 %120, 0
  br i1 %121, label %37, label %50, !prof !42

122:                                              ; preds = %48, %46, %44
  %123 = phi { ptr, i32 } [ %49, %48 ], [ %45, %44 ], [ %47, %46 ]
  %124 = load ptr, ptr %4, align 8, !tbaa !5
  %125 = icmp eq ptr %124, null
  br i1 %125, label %127, label %126

126:                                              ; preds = %122
  call void @_ZdaPv(ptr noundef nonnull %124) #13
  br label %127

127:                                              ; preds = %126, %122, %42
  %128 = phi { ptr, i32 } [ %43, %42 ], [ %123, %122 ], [ %123, %126 ]
  call void @llvm.lifetime.end.p0(i64 8, ptr nonnull %4) #11
  call void @_ZdaPv(ptr noundef nonnull %5) #13
  resume { ptr, i32 } %128

129:                                              ; preds = %38, %41
  call void @llvm.lifetime.end.p0(i64 8, ptr nonnull %4) #11
  call void @_ZdaPv(ptr noundef nonnull %5) #13
  ret void
}

; Function Attrs: uwtable
define dso_local void @_Z60benchForTruncOrZextVecWithAddInLoopFrom_uint32_t_To_uint8_t_RN9benchmark5StateE(ptr noundef nonnull align 8 dereferenceable(144) %0) #3 personality ptr @__gxx_personality_v0 {
  %2 = alloca %"class.std::uniform_int_distribution.43", align 1
  %3 = alloca %"class.std::uniform_int_distribution.54", align 4
  %4 = alloca %"class.std::unique_ptr.33", align 8
  %5 = tail call noalias noundef nonnull dereferenceable(40000) ptr @_Znam(i64 noundef 40000) #10
  call void @llvm.lifetime.start.p0(i64 8, ptr nonnull %4) #11
  %6 = invoke noalias noundef nonnull dereferenceable(10000) ptr @_Znam(i64 noundef 10000) #10
          to label %7 unwind label %42

7:                                                ; preds = %1
  store ptr %6, ptr %4, align 8, !tbaa !5
  call void @llvm.lifetime.start.p0(i64 8, ptr nonnull %3) #11
  store i32 0, ptr %3, align 4, !tbaa !92
  %8 = getelementptr inbounds %"struct.std::uniform_int_distribution<unsigned int>::param_type", ptr %3, i64 0, i32 1
  store i32 -1, ptr %8, align 4, !tbaa !94
  br label %9

9:                                                ; preds = %12, %7
  %10 = phi i64 [ 0, %7 ], [ %14, %12 ]
  %11 = invoke noundef i32 @_ZNSt24uniform_int_distributionIjEclISt23mersenne_twister_engineImLm32ELm624ELm397ELm31ELm2567483615ELm11ELm4294967295ELm7ELm2636928640ELm15ELm4022730752ELm18ELm1812433253EEEEjRT_RKNS0_10param_typeE(ptr noundef nonnull align 4 dereferenceable(8) %3, ptr noundef nonnull align 8 dereferenceable(5000) @_ZL3rng, ptr noundef nonnull align 4 dereferenceable(8) %3)
          to label %12 unwind label %46

12:                                               ; preds = %9
  %13 = getelementptr inbounds i32, ptr %5, i64 %10
  store i32 %11, ptr %13, align 4, !tbaa !95
  %14 = add nuw nsw i64 %10, 1
  %15 = icmp eq i64 %14, 10000
  br i1 %15, label %16, label %9, !llvm.loop !96

16:                                               ; preds = %12
  call void @llvm.lifetime.end.p0(i64 8, ptr nonnull %3) #11
  call void @llvm.lifetime.start.p0(i64 2, ptr nonnull %2) #11
  store i8 0, ptr %2, align 1, !tbaa !67
  %17 = getelementptr inbounds %"struct.std::uniform_int_distribution<unsigned char>::param_type", ptr %2, i64 0, i32 1
  store i8 -1, ptr %17, align 1, !tbaa !69
  br label %18

18:                                               ; preds = %21, %16
  %19 = phi i64 [ 0, %16 ], [ %24, %21 ]
  %20 = invoke noundef zeroext i8 @_ZNSt24uniform_int_distributionIhEclISt23mersenne_twister_engineImLm32ELm624ELm397ELm31ELm2567483615ELm11ELm4294967295ELm7ELm2636928640ELm15ELm4022730752ELm18ELm1812433253EEEEhRT_RKNS0_10param_typeE(ptr noundef nonnull align 1 dereferenceable(2) %2, ptr noundef nonnull align 8 dereferenceable(5000) @_ZL3rng, ptr noundef nonnull align 1 dereferenceable(2) %2)
          to label %21 unwind label %44

21:                                               ; preds = %18
  %22 = load ptr, ptr %4, align 8, !tbaa !5
  %23 = getelementptr inbounds i8, ptr %22, i64 %19
  store i8 %20, ptr %23, align 1, !tbaa !16
  %24 = add nuw nsw i64 %19, 1
  %25 = icmp eq i64 %24, 10000
  br i1 %25, label %26, label %18, !llvm.loop !70

26:                                               ; preds = %21
  call void @llvm.lifetime.end.p0(i64 2, ptr nonnull %2) #11
  %27 = getelementptr inbounds %"class.benchmark::State", ptr %0, i64 0, i32 5
  %28 = load i8, ptr %27, align 2, !tbaa !23, !range !40, !noundef !41
  %29 = getelementptr inbounds %"class.benchmark::State", ptr %0, i64 0, i32 2
  %30 = load i64, ptr %29, align 8
  invoke void @_ZN9benchmark5State16StartKeepRunningEv(ptr noundef nonnull align 8 dereferenceable(144) %0)
          to label %31 unwind label %48

31:                                               ; preds = %26
  %32 = icmp ne i8 %28, 0
  %33 = icmp eq i64 %30, 0
  %34 = select i1 %32, i1 true, i1 %33
  br i1 %34, label %37, label %35, !prof !42

35:                                               ; preds = %31
  %36 = getelementptr i8, ptr %5, i64 40000
  br label %50

37:                                               ; preds = %118, %31
  invoke void @_ZN9benchmark5State17FinishKeepRunningEv(ptr noundef nonnull align 8 dereferenceable(144) %0)
          to label %38 unwind label %48

38:                                               ; preds = %37
  %39 = load ptr, ptr %4, align 8, !tbaa !5
  %40 = icmp eq ptr %39, null
  br i1 %40, label %128, label %41

41:                                               ; preds = %38
  call void @_ZdaPv(ptr noundef nonnull %39) #13
  br label %128

42:                                               ; preds = %1
  %43 = landingpad { ptr, i32 }
          cleanup
  br label %126

44:                                               ; preds = %18
  %45 = landingpad { ptr, i32 }
          cleanup
  br label %121

46:                                               ; preds = %9
  %47 = landingpad { ptr, i32 }
          cleanup
  br label %121

48:                                               ; preds = %37, %26
  %49 = landingpad { ptr, i32 }
          cleanup
  br label %121

50:                                               ; preds = %35, %118
  %51 = phi i64 [ %119, %118 ], [ %30, %35 ]
  %52 = load i64, ptr %4, align 8
  call void asm sideeffect "", "=*r|m,0,~{memory},~{dirflag},~{fpsr},~{flags}"(ptr nonnull elementtype(%"class.std::unique_ptr.33") %4, i64 %52) #11, !srcloc !43
  fence syncscope("singlethread") acq_rel
  %53 = load ptr, ptr %4, align 8, !tbaa !5
  %54 = getelementptr i8, ptr %53, i64 10000
  %55 = icmp ult ptr %53, %36
  %56 = icmp ult ptr %5, %54
  %57 = and i1 %55, %56
  br i1 %57, label %87, label %58

58:                                               ; preds = %50, %58
  %59 = phi i64 [ %85, %58 ], [ 0, %50 ]
  %60 = getelementptr inbounds i32, ptr %5, i64 %59
  %61 = load <4 x i32>, ptr %60, align 4, !tbaa !95, !alias.scope !137
  %62 = getelementptr inbounds i32, ptr %60, i64 4
  %63 = load <4 x i32>, ptr %62, align 4, !tbaa !95, !alias.scope !137
  %64 = getelementptr inbounds i8, ptr %53, i64 %59
  %65 = load <4 x i8>, ptr %64, align 1, !tbaa !16, !alias.scope !140, !noalias !137
  %66 = getelementptr inbounds i8, ptr %64, i64 4
  %67 = load <4 x i8>, ptr %66, align 1, !tbaa !16, !alias.scope !140, !noalias !137
  %68 = trunc <4 x i32> %61 to <4 x i8>
  %69 = trunc <4 x i32> %63 to <4 x i8>
  %70 = add <4 x i8> %65, %68
  %71 = add <4 x i8> %67, %69
  store <4 x i8> %70, ptr %64, align 1, !tbaa !16, !alias.scope !140, !noalias !137
  store <4 x i8> %71, ptr %66, align 1, !tbaa !16, !alias.scope !140, !noalias !137
  %72 = or i64 %59, 8
  %73 = getelementptr inbounds i32, ptr %5, i64 %72
  %74 = load <4 x i32>, ptr %73, align 4, !tbaa !95, !alias.scope !137
  %75 = getelementptr inbounds i32, ptr %73, i64 4
  %76 = load <4 x i32>, ptr %75, align 4, !tbaa !95, !alias.scope !137
  %77 = getelementptr inbounds i8, ptr %53, i64 %72
  %78 = load <4 x i8>, ptr %77, align 1, !tbaa !16, !alias.scope !140, !noalias !137
  %79 = getelementptr inbounds i8, ptr %77, i64 4
  %80 = load <4 x i8>, ptr %79, align 1, !tbaa !16, !alias.scope !140, !noalias !137
  %81 = trunc <4 x i32> %74 to <4 x i8>
  %82 = trunc <4 x i32> %76 to <4 x i8>
  %83 = add <4 x i8> %78, %81
  %84 = add <4 x i8> %80, %82
  store <4 x i8> %83, ptr %77, align 1, !tbaa !16, !alias.scope !140, !noalias !137
  store <4 x i8> %84, ptr %79, align 1, !tbaa !16, !alias.scope !140, !noalias !137
  %85 = add nuw nsw i64 %59, 16
  %86 = icmp eq i64 %85, 10000
  br i1 %86, label %118, label %58, !llvm.loop !142

87:                                               ; preds = %50, %87
  %88 = phi i64 [ %116, %87 ], [ 0, %50 ]
  %89 = getelementptr inbounds i32, ptr %5, i64 %88
  %90 = load i32, ptr %89, align 4, !tbaa !95
  %91 = getelementptr inbounds i8, ptr %53, i64 %88
  %92 = load i8, ptr %91, align 1, !tbaa !16
  %93 = trunc i32 %90 to i8
  %94 = add i8 %92, %93
  store i8 %94, ptr %91, align 1, !tbaa !16
  %95 = or i64 %88, 1
  %96 = getelementptr inbounds i32, ptr %5, i64 %95
  %97 = load i32, ptr %96, align 4, !tbaa !95
  %98 = getelementptr inbounds i8, ptr %53, i64 %95
  %99 = load i8, ptr %98, align 1, !tbaa !16
  %100 = trunc i32 %97 to i8
  %101 = add i8 %99, %100
  store i8 %101, ptr %98, align 1, !tbaa !16
  %102 = or i64 %88, 2
  %103 = getelementptr inbounds i32, ptr %5, i64 %102
  %104 = load i32, ptr %103, align 4, !tbaa !95
  %105 = getelementptr inbounds i8, ptr %53, i64 %102
  %106 = load i8, ptr %105, align 1, !tbaa !16
  %107 = trunc i32 %104 to i8
  %108 = add i8 %106, %107
  store i8 %108, ptr %105, align 1, !tbaa !16
  %109 = or i64 %88, 3
  %110 = getelementptr inbounds i32, ptr %5, i64 %109
  %111 = load i32, ptr %110, align 4, !tbaa !95
  %112 = getelementptr inbounds i8, ptr %53, i64 %109
  %113 = load i8, ptr %112, align 1, !tbaa !16
  %114 = trunc i32 %111 to i8
  %115 = add i8 %113, %114
  store i8 %115, ptr %112, align 1, !tbaa !16
  %116 = add nuw nsw i64 %88, 4
  %117 = icmp eq i64 %116, 10000
  br i1 %117, label %118, label %87, !llvm.loop !143

118:                                              ; preds = %58, %87
  %119 = add i64 %51, -1
  %120 = icmp eq i64 %119, 0
  br i1 %120, label %37, label %50, !prof !42

121:                                              ; preds = %48, %46, %44
  %122 = phi { ptr, i32 } [ %49, %48 ], [ %45, %44 ], [ %47, %46 ]
  %123 = load ptr, ptr %4, align 8, !tbaa !5
  %124 = icmp eq ptr %123, null
  br i1 %124, label %126, label %125

125:                                              ; preds = %121
  call void @_ZdaPv(ptr noundef nonnull %123) #13
  br label %126

126:                                              ; preds = %125, %121, %42
  %127 = phi { ptr, i32 } [ %43, %42 ], [ %122, %121 ], [ %122, %125 ]
  call void @llvm.lifetime.end.p0(i64 8, ptr nonnull %4) #11
  call void @_ZdaPv(ptr noundef nonnull %5) #13
  resume { ptr, i32 } %127

128:                                              ; preds = %38, %41
  call void @llvm.lifetime.end.p0(i64 8, ptr nonnull %4) #11
  call void @_ZdaPv(ptr noundef nonnull %5) #13
  ret void
}

; Function Attrs: uwtable
define dso_local void @_Z60benchForTruncOrZextVecInLoopWithVW8From_uint64_t_To_uint8_t_RN9benchmark5StateE(ptr noundef nonnull align 8 dereferenceable(144) %0) #3 personality ptr @__gxx_personality_v0 {
  %2 = alloca %"class.std::uniform_int_distribution.65", align 8
  %3 = alloca %"class.std::unique_ptr.33", align 8
  %4 = tail call noalias noundef nonnull dereferenceable(80000) ptr @_Znam(i64 noundef 80000) #10
  call void @llvm.lifetime.start.p0(i64 8, ptr nonnull %3) #11
  %5 = invoke noalias noundef nonnull dereferenceable(10000) ptr @_Znam(i64 noundef 10000) #10
          to label %6 unwind label %131

6:                                                ; preds = %1
  store ptr %5, ptr %3, align 8, !tbaa !5
  %7 = invoke noalias noundef nonnull dereferenceable(10000) ptr @_Znam(i64 noundef 10000) #10
          to label %8 unwind label %133

8:                                                ; preds = %6
  call void @llvm.lifetime.start.p0(i64 16, ptr nonnull %2) #11
  store i64 0, ptr %2, align 8, !tbaa !144
  %9 = getelementptr inbounds %"struct.std::uniform_int_distribution<unsigned long>::param_type", ptr %2, i64 0, i32 1
  store i64 -1, ptr %9, align 8, !tbaa !146
  br label %10

10:                                               ; preds = %13, %8
  %11 = phi i64 [ 0, %8 ], [ %15, %13 ]
  %12 = invoke noundef i64 @_ZNSt24uniform_int_distributionImEclISt23mersenne_twister_engineImLm32ELm624ELm397ELm31ELm2567483615ELm11ELm4294967295ELm7ELm2636928640ELm15ELm4022730752ELm18ELm1812433253EEEEmRT_RKNS0_10param_typeE(ptr noundef nonnull align 8 dereferenceable(16) %2, ptr noundef nonnull align 8 dereferenceable(5000) @_ZL3rng, ptr noundef nonnull align 8 dereferenceable(16) %2)
          to label %13 unwind label %135

13:                                               ; preds = %10
  %14 = getelementptr inbounds i64, ptr %4, i64 %11
  store i64 %12, ptr %14, align 8, !tbaa !147
  %15 = add nuw nsw i64 %11, 1
  %16 = icmp eq i64 %15, 10000
  br i1 %16, label %17, label %10, !llvm.loop !148

17:                                               ; preds = %13
  call void @llvm.lifetime.end.p0(i64 16, ptr nonnull %2) #11
  br label %18

18:                                               ; preds = %18, %17
  %19 = phi i64 [ 0, %17 ], [ %44, %18 ]
  %20 = getelementptr inbounds i64, ptr %4, i64 %19
  %21 = load i64, ptr %20, align 8, !tbaa !147
  %22 = trunc i64 %21 to i8
  %23 = getelementptr inbounds i8, ptr %7, i64 %19
  store i8 %22, ptr %23, align 1, !tbaa !16
  %24 = add nuw nsw i64 %19, 1
  %25 = getelementptr inbounds i64, ptr %4, i64 %24
  %26 = load i64, ptr %25, align 8, !tbaa !147
  %27 = trunc i64 %26 to i8
  %28 = getelementptr inbounds i8, ptr %7, i64 %24
  store i8 %27, ptr %28, align 1, !tbaa !16
  %29 = add nuw nsw i64 %19, 2
  %30 = getelementptr inbounds i64, ptr %4, i64 %29
  %31 = load i64, ptr %30, align 8, !tbaa !147
  %32 = trunc i64 %31 to i8
  %33 = getelementptr inbounds i8, ptr %7, i64 %29
  store i8 %32, ptr %33, align 1, !tbaa !16
  %34 = add nuw nsw i64 %19, 3
  %35 = getelementptr inbounds i64, ptr %4, i64 %34
  %36 = load i64, ptr %35, align 8, !tbaa !147
  %37 = trunc i64 %36 to i8
  %38 = getelementptr inbounds i8, ptr %7, i64 %34
  store i8 %37, ptr %38, align 1, !tbaa !16
  %39 = add nuw nsw i64 %19, 4
  %40 = getelementptr inbounds i64, ptr %4, i64 %39
  %41 = load i64, ptr %40, align 8, !tbaa !147
  %42 = trunc i64 %41 to i8
  %43 = getelementptr inbounds i8, ptr %7, i64 %39
  store i8 %42, ptr %43, align 1, !tbaa !16
  %44 = add nuw nsw i64 %19, 5
  %45 = icmp eq i64 %44, 10000
  br i1 %45, label %46, label %18, !llvm.loop !149

46:                                               ; preds = %18, %46
  %47 = phi i64 [ %64, %46 ], [ 0, %18 ]
  %48 = getelementptr inbounds i64, ptr %4, i64 %47
  %49 = load <8 x i64>, ptr %48, align 8, !tbaa !147
  %50 = getelementptr inbounds i64, ptr %48, i64 8
  %51 = load <8 x i64>, ptr %50, align 8, !tbaa !147
  %52 = getelementptr inbounds i64, ptr %48, i64 16
  %53 = load <8 x i64>, ptr %52, align 8, !tbaa !147
  %54 = getelementptr inbounds i64, ptr %48, i64 24
  %55 = load <8 x i64>, ptr %54, align 8, !tbaa !147
  %56 = trunc <8 x i64> %49 to <8 x i8>
  %57 = trunc <8 x i64> %51 to <8 x i8>
  %58 = trunc <8 x i64> %53 to <8 x i8>
  %59 = trunc <8 x i64> %55 to <8 x i8>
  %60 = getelementptr inbounds i8, ptr %5, i64 %47
  store <8 x i8> %56, ptr %60, align 1, !tbaa !16
  %61 = getelementptr inbounds i8, ptr %60, i64 8
  store <8 x i8> %57, ptr %61, align 1, !tbaa !16
  %62 = getelementptr inbounds i8, ptr %60, i64 16
  store <8 x i8> %58, ptr %62, align 1, !tbaa !16
  %63 = getelementptr inbounds i8, ptr %60, i64 24
  store <8 x i8> %59, ptr %63, align 1, !tbaa !16
  %64 = add nuw i64 %47, 32
  %65 = icmp eq i64 %64, 9984
  br i1 %65, label %66, label %46, !llvm.loop !150

66:                                               ; preds = %46
  %67 = getelementptr inbounds i64, ptr %4, i64 9984
  %68 = load i64, ptr %67, align 8, !tbaa !147
  %69 = trunc i64 %68 to i8
  %70 = getelementptr inbounds i8, ptr %5, i64 9984
  store i8 %69, ptr %70, align 1, !tbaa !16
  %71 = getelementptr inbounds i64, ptr %4, i64 9985
  %72 = load i64, ptr %71, align 8, !tbaa !147
  %73 = trunc i64 %72 to i8
  %74 = getelementptr inbounds i8, ptr %5, i64 9985
  store i8 %73, ptr %74, align 1, !tbaa !16
  %75 = getelementptr inbounds i64, ptr %4, i64 9986
  %76 = load i64, ptr %75, align 8, !tbaa !147
  %77 = trunc i64 %76 to i8
  %78 = getelementptr inbounds i8, ptr %5, i64 9986
  store i8 %77, ptr %78, align 1, !tbaa !16
  %79 = getelementptr inbounds i64, ptr %4, i64 9987
  %80 = load i64, ptr %79, align 8, !tbaa !147
  %81 = trunc i64 %80 to i8
  %82 = getelementptr inbounds i8, ptr %5, i64 9987
  store i8 %81, ptr %82, align 1, !tbaa !16
  %83 = getelementptr inbounds i64, ptr %4, i64 9988
  %84 = load i64, ptr %83, align 8, !tbaa !147
  %85 = trunc i64 %84 to i8
  %86 = getelementptr inbounds i8, ptr %5, i64 9988
  store i8 %85, ptr %86, align 1, !tbaa !16
  %87 = getelementptr inbounds i64, ptr %4, i64 9989
  %88 = load i64, ptr %87, align 8, !tbaa !147
  %89 = trunc i64 %88 to i8
  %90 = getelementptr inbounds i8, ptr %5, i64 9989
  store i8 %89, ptr %90, align 1, !tbaa !16
  %91 = getelementptr inbounds i64, ptr %4, i64 9990
  %92 = load i64, ptr %91, align 8, !tbaa !147
  %93 = trunc i64 %92 to i8
  %94 = getelementptr inbounds i8, ptr %5, i64 9990
  store i8 %93, ptr %94, align 1, !tbaa !16
  %95 = getelementptr inbounds i64, ptr %4, i64 9991
  %96 = load i64, ptr %95, align 8, !tbaa !147
  %97 = trunc i64 %96 to i8
  %98 = getelementptr inbounds i8, ptr %5, i64 9991
  store i8 %97, ptr %98, align 1, !tbaa !16
  %99 = getelementptr inbounds i64, ptr %4, i64 9992
  %100 = load i64, ptr %99, align 8, !tbaa !147
  %101 = trunc i64 %100 to i8
  %102 = getelementptr inbounds i8, ptr %5, i64 9992
  store i8 %101, ptr %102, align 1, !tbaa !16
  %103 = getelementptr inbounds i64, ptr %4, i64 9993
  %104 = load i64, ptr %103, align 8, !tbaa !147
  %105 = trunc i64 %104 to i8
  %106 = getelementptr inbounds i8, ptr %5, i64 9993
  store i8 %105, ptr %106, align 1, !tbaa !16
  %107 = getelementptr inbounds i64, ptr %4, i64 9994
  %108 = load i64, ptr %107, align 8, !tbaa !147
  %109 = trunc i64 %108 to i8
  %110 = getelementptr inbounds i8, ptr %5, i64 9994
  store i8 %109, ptr %110, align 1, !tbaa !16
  %111 = getelementptr inbounds i64, ptr %4, i64 9995
  %112 = load i64, ptr %111, align 8, !tbaa !147
  %113 = trunc i64 %112 to i8
  %114 = getelementptr inbounds i8, ptr %5, i64 9995
  store i8 %113, ptr %114, align 1, !tbaa !16
  %115 = getelementptr inbounds i64, ptr %4, i64 9996
  %116 = load i64, ptr %115, align 8, !tbaa !147
  %117 = trunc i64 %116 to i8
  %118 = getelementptr inbounds i8, ptr %5, i64 9996
  store i8 %117, ptr %118, align 1, !tbaa !16
  %119 = getelementptr inbounds i64, ptr %4, i64 9997
  %120 = load i64, ptr %119, align 8, !tbaa !147
  %121 = trunc i64 %120 to i8
  %122 = getelementptr inbounds i8, ptr %5, i64 9997
  store i8 %121, ptr %122, align 1, !tbaa !16
  %123 = getelementptr inbounds i64, ptr %4, i64 9998
  %124 = load i64, ptr %123, align 8, !tbaa !147
  %125 = trunc i64 %124 to i8
  %126 = getelementptr inbounds i8, ptr %5, i64 9998
  store i8 %125, ptr %126, align 1, !tbaa !16
  %127 = getelementptr inbounds i64, ptr %4, i64 9999
  %128 = load i64, ptr %127, align 8, !tbaa !147
  %129 = trunc i64 %128 to i8
  %130 = getelementptr inbounds i8, ptr %5, i64 9999
  store i8 %129, ptr %130, align 1, !tbaa !16
  br label %137

131:                                              ; preds = %1
  %132 = landingpad { ptr, i32 }
          cleanup
  br label %281

133:                                              ; preds = %6
  %134 = landingpad { ptr, i32 }
          cleanup
  br label %278

135:                                              ; preds = %10
  %136 = landingpad { ptr, i32 }
          cleanup
  br label %274

137:                                              ; preds = %197, %66
  %138 = phi i64 [ 0, %66 ], [ %198, %197 ]
  %139 = getelementptr inbounds i8, ptr %5, i64 %138
  %140 = load i8, ptr %139, align 1, !tbaa !16
  %141 = getelementptr inbounds i8, ptr %7, i64 %138
  %142 = load i8, ptr %141, align 1, !tbaa !16
  %143 = icmp eq i8 %140, %142
  br i1 %143, label %169, label %144

144:                                              ; preds = %190, %183, %176, %169, %137
  %145 = phi i64 [ %138, %137 ], [ %170, %169 ], [ %177, %176 ], [ %184, %183 ], [ %191, %190 ]
  %146 = and i64 %145, 4294967295
  %147 = getelementptr inbounds i8, ptr %7, i64 %146
  %148 = invoke noundef nonnull align 8 dereferenceable(8) ptr @_ZSt16__ostream_insertIcSt11char_traitsIcEERSt13basic_ostreamIT_T0_ES6_PKS3_l(ptr noundef nonnull align 8 dereferenceable(8) @_ZSt4cerr, ptr noundef nonnull @.str.146, i64 noundef 34)
          to label %149 unwind label %167

149:                                              ; preds = %144
  %150 = getelementptr inbounds i64, ptr %4, i64 %146
  %151 = load i64, ptr %150, align 8, !tbaa !147
  %152 = invoke noundef nonnull align 8 dereferenceable(8) ptr @_ZNSo9_M_insertImEERSoT_(ptr noundef nonnull align 8 dereferenceable(8) @_ZSt4cerr, i64 noundef %151)
          to label %153 unwind label %167

153:                                              ; preds = %149
  %154 = invoke noundef nonnull align 8 dereferenceable(8) ptr @_ZSt16__ostream_insertIcSt11char_traitsIcEERSt13basic_ostreamIT_T0_ES6_PKS3_l(ptr noundef nonnull align 8 dereferenceable(8) %152, ptr noundef nonnull @.str.147, i64 noundef 19)
          to label %155 unwind label %167

155:                                              ; preds = %153
  %156 = getelementptr inbounds i8, ptr %5, i64 %146
  %157 = load i8, ptr %156, align 1, !tbaa !16
  %158 = invoke noundef nonnull align 8 dereferenceable(8) ptr @_ZStlsISt11char_traitsIcEERSt13basic_ostreamIcT_ES5_h(ptr noundef nonnull align 8 dereferenceable(8) %152, i8 noundef zeroext %157)
          to label %159 unwind label %167

159:                                              ; preds = %155
  %160 = invoke noundef nonnull align 8 dereferenceable(8) ptr @_ZSt16__ostream_insertIcSt11char_traitsIcEERSt13basic_ostreamIT_T0_ES6_PKS3_l(ptr noundef nonnull align 8 dereferenceable(8) %158, ptr noundef nonnull @.str.148, i64 noundef 12)
          to label %161 unwind label %167

161:                                              ; preds = %159
  %162 = load i8, ptr %147, align 1, !tbaa !16
  %163 = invoke noundef nonnull align 8 dereferenceable(8) ptr @_ZStlsISt11char_traitsIcEERSt13basic_ostreamIcT_ES5_h(ptr noundef nonnull align 8 dereferenceable(8) %158, i8 noundef zeroext %162)
          to label %164 unwind label %167

164:                                              ; preds = %161
  %165 = invoke noundef nonnull align 8 dereferenceable(8) ptr @_ZStlsISt11char_traitsIcEERSt13basic_ostreamIcT_ES5_PKc(ptr noundef nonnull align 8 dereferenceable(8) %163, ptr noundef nonnull @.str.149)
          to label %166 unwind label %167

166:                                              ; preds = %164
  call void @exit(i32 noundef 1) #12
  unreachable

167:                                              ; preds = %164, %161, %159, %155, %153, %149, %144
  %168 = landingpad { ptr, i32 }
          cleanup
  br label %274

169:                                              ; preds = %137
  %170 = add nuw nsw i64 %138, 1
  %171 = getelementptr inbounds i8, ptr %5, i64 %170
  %172 = load i8, ptr %171, align 1, !tbaa !16
  %173 = getelementptr inbounds i8, ptr %7, i64 %170
  %174 = load i8, ptr %173, align 1, !tbaa !16
  %175 = icmp eq i8 %172, %174
  br i1 %175, label %176, label %144

176:                                              ; preds = %169
  %177 = add nuw nsw i64 %138, 2
  %178 = getelementptr inbounds i8, ptr %5, i64 %177
  %179 = load i8, ptr %178, align 1, !tbaa !16
  %180 = getelementptr inbounds i8, ptr %7, i64 %177
  %181 = load i8, ptr %180, align 1, !tbaa !16
  %182 = icmp eq i8 %179, %181
  br i1 %182, label %183, label %144

183:                                              ; preds = %176
  %184 = add nuw nsw i64 %138, 3
  %185 = getelementptr inbounds i8, ptr %5, i64 %184
  %186 = load i8, ptr %185, align 1, !tbaa !16
  %187 = getelementptr inbounds i8, ptr %7, i64 %184
  %188 = load i8, ptr %187, align 1, !tbaa !16
  %189 = icmp eq i8 %186, %188
  br i1 %189, label %190, label %144

190:                                              ; preds = %183
  %191 = add nuw nsw i64 %138, 4
  %192 = getelementptr inbounds i8, ptr %5, i64 %191
  %193 = load i8, ptr %192, align 1, !tbaa !16
  %194 = getelementptr inbounds i8, ptr %7, i64 %191
  %195 = load i8, ptr %194, align 1, !tbaa !16
  %196 = icmp eq i8 %193, %195
  br i1 %196, label %197, label %144

197:                                              ; preds = %190
  %198 = add nuw nsw i64 %138, 5
  %199 = icmp eq i64 %198, 10000
  br i1 %199, label %200, label %137, !llvm.loop !151

200:                                              ; preds = %197
  %201 = getelementptr inbounds %"class.benchmark::State", ptr %0, i64 0, i32 5
  %202 = load i8, ptr %201, align 2, !tbaa !23, !range !40, !noundef !41
  %203 = getelementptr inbounds %"class.benchmark::State", ptr %0, i64 0, i32 2
  %204 = load i64, ptr %203, align 8
  invoke void @_ZN9benchmark5State16StartKeepRunningEv(ptr noundef nonnull align 8 dereferenceable(144) %0)
          to label %205 unwind label %216

205:                                              ; preds = %200
  %206 = icmp ne i8 %202, 0
  %207 = icmp eq i64 %204, 0
  %208 = select i1 %206, i1 true, i1 %207
  br i1 %208, label %211, label %209, !prof !42

209:                                              ; preds = %205
  %210 = getelementptr i8, ptr %4, i64 80000
  br label %218

211:                                              ; preds = %271, %205
  invoke void @_ZN9benchmark5State17FinishKeepRunningEv(ptr noundef nonnull align 8 dereferenceable(144) %0)
          to label %212 unwind label %216

212:                                              ; preds = %211
  call void @_ZdaPv(ptr noundef nonnull %7) #13
  %213 = load ptr, ptr %3, align 8, !tbaa !5
  %214 = icmp eq ptr %213, null
  br i1 %214, label %283, label %215

215:                                              ; preds = %212
  call void @_ZdaPv(ptr noundef nonnull %213) #13
  br label %283

216:                                              ; preds = %211, %200
  %217 = landingpad { ptr, i32 }
          cleanup
  br label %274

218:                                              ; preds = %209, %271
  %219 = phi i64 [ %272, %271 ], [ %204, %209 ]
  %220 = load i64, ptr %3, align 8
  call void asm sideeffect "", "=*r|m,0,~{memory},~{dirflag},~{fpsr},~{flags}"(ptr nonnull elementtype(%"class.std::unique_ptr.33") %3, i64 %220) #11, !srcloc !43
  fence syncscope("singlethread") acq_rel
  %221 = load ptr, ptr %3, align 8, !tbaa !5
  %222 = getelementptr i8, ptr %221, i64 10000
  %223 = icmp ult ptr %221, %210
  %224 = icmp ult ptr %4, %222
  %225 = and i1 %223, %224
  br i1 %225, label %246, label %226

226:                                              ; preds = %218, %226
  %227 = phi i64 [ %244, %226 ], [ 0, %218 ]
  %228 = getelementptr inbounds i64, ptr %4, i64 %227
  %229 = load <8 x i64>, ptr %228, align 8, !tbaa !147, !alias.scope !152
  %230 = getelementptr inbounds i64, ptr %228, i64 8
  %231 = load <8 x i64>, ptr %230, align 8, !tbaa !147, !alias.scope !152
  %232 = getelementptr inbounds i64, ptr %228, i64 16
  %233 = load <8 x i64>, ptr %232, align 8, !tbaa !147, !alias.scope !152
  %234 = getelementptr inbounds i64, ptr %228, i64 24
  %235 = load <8 x i64>, ptr %234, align 8, !tbaa !147, !alias.scope !152
  %236 = trunc <8 x i64> %229 to <8 x i8>
  %237 = trunc <8 x i64> %231 to <8 x i8>
  %238 = trunc <8 x i64> %233 to <8 x i8>
  %239 = trunc <8 x i64> %235 to <8 x i8>
  %240 = getelementptr inbounds i8, ptr %221, i64 %227
  store <8 x i8> %236, ptr %240, align 1, !tbaa !16, !alias.scope !155, !noalias !152
  %241 = getelementptr inbounds i8, ptr %240, i64 8
  store <8 x i8> %237, ptr %241, align 1, !tbaa !16, !alias.scope !155, !noalias !152
  %242 = getelementptr inbounds i8, ptr %240, i64 16
  store <8 x i8> %238, ptr %242, align 1, !tbaa !16, !alias.scope !155, !noalias !152
  %243 = getelementptr inbounds i8, ptr %240, i64 24
  store <8 x i8> %239, ptr %243, align 1, !tbaa !16, !alias.scope !155, !noalias !152
  %244 = add nuw i64 %227, 32
  %245 = icmp eq i64 %244, 9984
  br i1 %245, label %246, label %226, !llvm.loop !157

246:                                              ; preds = %226, %218
  %247 = phi i64 [ 0, %218 ], [ 9984, %226 ]
  br label %248

248:                                              ; preds = %248, %246
  %249 = phi i64 [ %247, %246 ], [ %269, %248 ]
  %250 = getelementptr inbounds i64, ptr %4, i64 %249
  %251 = load i64, ptr %250, align 8, !tbaa !147
  %252 = trunc i64 %251 to i8
  %253 = getelementptr inbounds i8, ptr %221, i64 %249
  store i8 %252, ptr %253, align 1, !tbaa !16
  %254 = or i64 %249, 1
  %255 = getelementptr inbounds i64, ptr %4, i64 %254
  %256 = load i64, ptr %255, align 8, !tbaa !147
  %257 = trunc i64 %256 to i8
  %258 = getelementptr inbounds i8, ptr %221, i64 %254
  store i8 %257, ptr %258, align 1, !tbaa !16
  %259 = or i64 %249, 2
  %260 = getelementptr inbounds i64, ptr %4, i64 %259
  %261 = load i64, ptr %260, align 8, !tbaa !147
  %262 = trunc i64 %261 to i8
  %263 = getelementptr inbounds i8, ptr %221, i64 %259
  store i8 %262, ptr %263, align 1, !tbaa !16
  %264 = or i64 %249, 3
  %265 = getelementptr inbounds i64, ptr %4, i64 %264
  %266 = load i64, ptr %265, align 8, !tbaa !147
  %267 = trunc i64 %266 to i8
  %268 = getelementptr inbounds i8, ptr %221, i64 %264
  store i8 %267, ptr %268, align 1, !tbaa !16
  %269 = add nuw nsw i64 %249, 4
  %270 = icmp eq i64 %269, 10000
  br i1 %270, label %271, label %248, !llvm.loop !158

271:                                              ; preds = %248
  %272 = add i64 %219, -1
  %273 = icmp eq i64 %272, 0
  br i1 %273, label %211, label %218, !prof !42

274:                                              ; preds = %216, %167, %135
  %275 = phi { ptr, i32 } [ %168, %167 ], [ %217, %216 ], [ %136, %135 ]
  call void @_ZdaPv(ptr noundef nonnull %7) #13
  %276 = load ptr, ptr %3, align 8, !tbaa !5
  %277 = icmp eq ptr %276, null
  br i1 %277, label %281, label %278

278:                                              ; preds = %274, %133
  %279 = phi { ptr, i32 } [ %134, %133 ], [ %275, %274 ]
  %280 = phi ptr [ %5, %133 ], [ %276, %274 ]
  call void @_ZdaPv(ptr noundef nonnull %280) #13
  br label %281

281:                                              ; preds = %278, %274, %131
  %282 = phi { ptr, i32 } [ %132, %131 ], [ %275, %274 ], [ %279, %278 ]
  call void @llvm.lifetime.end.p0(i64 8, ptr nonnull %3) #11
  call void @_ZdaPv(ptr noundef nonnull %4) #13
  resume { ptr, i32 } %282

283:                                              ; preds = %212, %215
  call void @llvm.lifetime.end.p0(i64 8, ptr nonnull %3) #11
  call void @_ZdaPv(ptr noundef nonnull %4) #13
  ret void
}

; Function Attrs: uwtable
define dso_local void @_Z61benchForTruncOrZextVecInLoopWithVW16From_uint64_t_To_uint8_t_RN9benchmark5StateE(ptr noundef nonnull align 8 dereferenceable(144) %0) #3 personality ptr @__gxx_personality_v0 {
  %2 = alloca %"class.std::uniform_int_distribution.65", align 8
  %3 = alloca %"class.std::unique_ptr.33", align 8
  %4 = tail call noalias noundef nonnull dereferenceable(80000) ptr @_Znam(i64 noundef 80000) #10
  call void @llvm.lifetime.start.p0(i64 8, ptr nonnull %3) #11
  %5 = invoke noalias noundef nonnull dereferenceable(10000) ptr @_Znam(i64 noundef 10000) #10
          to label %6 unwind label %131

6:                                                ; preds = %1
  store ptr %5, ptr %3, align 8, !tbaa !5
  %7 = invoke noalias noundef nonnull dereferenceable(10000) ptr @_Znam(i64 noundef 10000) #10
          to label %8 unwind label %133

8:                                                ; preds = %6
  call void @llvm.lifetime.start.p0(i64 16, ptr nonnull %2) #11
  store i64 0, ptr %2, align 8, !tbaa !144
  %9 = getelementptr inbounds %"struct.std::uniform_int_distribution<unsigned long>::param_type", ptr %2, i64 0, i32 1
  store i64 -1, ptr %9, align 8, !tbaa !146
  br label %10

10:                                               ; preds = %13, %8
  %11 = phi i64 [ 0, %8 ], [ %15, %13 ]
  %12 = invoke noundef i64 @_ZNSt24uniform_int_distributionImEclISt23mersenne_twister_engineImLm32ELm624ELm397ELm31ELm2567483615ELm11ELm4294967295ELm7ELm2636928640ELm15ELm4022730752ELm18ELm1812433253EEEEmRT_RKNS0_10param_typeE(ptr noundef nonnull align 8 dereferenceable(16) %2, ptr noundef nonnull align 8 dereferenceable(5000) @_ZL3rng, ptr noundef nonnull align 8 dereferenceable(16) %2)
          to label %13 unwind label %135

13:                                               ; preds = %10
  %14 = getelementptr inbounds i64, ptr %4, i64 %11
  store i64 %12, ptr %14, align 8, !tbaa !147
  %15 = add nuw nsw i64 %11, 1
  %16 = icmp eq i64 %15, 10000
  br i1 %16, label %17, label %10, !llvm.loop !148

17:                                               ; preds = %13
  call void @llvm.lifetime.end.p0(i64 16, ptr nonnull %2) #11
  br label %18

18:                                               ; preds = %18, %17
  %19 = phi i64 [ 0, %17 ], [ %44, %18 ]
  %20 = getelementptr inbounds i64, ptr %4, i64 %19
  %21 = load i64, ptr %20, align 8, !tbaa !147
  %22 = trunc i64 %21 to i8
  %23 = getelementptr inbounds i8, ptr %7, i64 %19
  store i8 %22, ptr %23, align 1, !tbaa !16
  %24 = add nuw nsw i64 %19, 1
  %25 = getelementptr inbounds i64, ptr %4, i64 %24
  %26 = load i64, ptr %25, align 8, !tbaa !147
  %27 = trunc i64 %26 to i8
  %28 = getelementptr inbounds i8, ptr %7, i64 %24
  store i8 %27, ptr %28, align 1, !tbaa !16
  %29 = add nuw nsw i64 %19, 2
  %30 = getelementptr inbounds i64, ptr %4, i64 %29
  %31 = load i64, ptr %30, align 8, !tbaa !147
  %32 = trunc i64 %31 to i8
  %33 = getelementptr inbounds i8, ptr %7, i64 %29
  store i8 %32, ptr %33, align 1, !tbaa !16
  %34 = add nuw nsw i64 %19, 3
  %35 = getelementptr inbounds i64, ptr %4, i64 %34
  %36 = load i64, ptr %35, align 8, !tbaa !147
  %37 = trunc i64 %36 to i8
  %38 = getelementptr inbounds i8, ptr %7, i64 %34
  store i8 %37, ptr %38, align 1, !tbaa !16
  %39 = add nuw nsw i64 %19, 4
  %40 = getelementptr inbounds i64, ptr %4, i64 %39
  %41 = load i64, ptr %40, align 8, !tbaa !147
  %42 = trunc i64 %41 to i8
  %43 = getelementptr inbounds i8, ptr %7, i64 %39
  store i8 %42, ptr %43, align 1, !tbaa !16
  %44 = add nuw nsw i64 %19, 5
  %45 = icmp eq i64 %44, 10000
  br i1 %45, label %46, label %18, !llvm.loop !149

46:                                               ; preds = %18, %46
  %47 = phi i64 [ %64, %46 ], [ 0, %18 ]
  %48 = getelementptr inbounds i64, ptr %4, i64 %47
  %49 = load <16 x i64>, ptr %48, align 8, !tbaa !147
  %50 = getelementptr inbounds i64, ptr %48, i64 16
  %51 = load <16 x i64>, ptr %50, align 8, !tbaa !147
  %52 = getelementptr inbounds i64, ptr %48, i64 32
  %53 = load <16 x i64>, ptr %52, align 8, !tbaa !147
  %54 = getelementptr inbounds i64, ptr %48, i64 48
  %55 = load <16 x i64>, ptr %54, align 8, !tbaa !147
  %56 = trunc <16 x i64> %49 to <16 x i8>
  %57 = trunc <16 x i64> %51 to <16 x i8>
  %58 = trunc <16 x i64> %53 to <16 x i8>
  %59 = trunc <16 x i64> %55 to <16 x i8>
  %60 = getelementptr inbounds i8, ptr %5, i64 %47
  store <16 x i8> %56, ptr %60, align 1, !tbaa !16
  %61 = getelementptr inbounds i8, ptr %60, i64 16
  store <16 x i8> %57, ptr %61, align 1, !tbaa !16
  %62 = getelementptr inbounds i8, ptr %60, i64 32
  store <16 x i8> %58, ptr %62, align 1, !tbaa !16
  %63 = getelementptr inbounds i8, ptr %60, i64 48
  store <16 x i8> %59, ptr %63, align 1, !tbaa !16
  %64 = add nuw i64 %47, 64
  %65 = icmp eq i64 %64, 9984
  br i1 %65, label %66, label %46, !llvm.loop !159

66:                                               ; preds = %46
  %67 = getelementptr inbounds i64, ptr %4, i64 9984
  %68 = load i64, ptr %67, align 8, !tbaa !147
  %69 = trunc i64 %68 to i8
  %70 = getelementptr inbounds i8, ptr %5, i64 9984
  store i8 %69, ptr %70, align 1, !tbaa !16
  %71 = getelementptr inbounds i64, ptr %4, i64 9985
  %72 = load i64, ptr %71, align 8, !tbaa !147
  %73 = trunc i64 %72 to i8
  %74 = getelementptr inbounds i8, ptr %5, i64 9985
  store i8 %73, ptr %74, align 1, !tbaa !16
  %75 = getelementptr inbounds i64, ptr %4, i64 9986
  %76 = load i64, ptr %75, align 8, !tbaa !147
  %77 = trunc i64 %76 to i8
  %78 = getelementptr inbounds i8, ptr %5, i64 9986
  store i8 %77, ptr %78, align 1, !tbaa !16
  %79 = getelementptr inbounds i64, ptr %4, i64 9987
  %80 = load i64, ptr %79, align 8, !tbaa !147
  %81 = trunc i64 %80 to i8
  %82 = getelementptr inbounds i8, ptr %5, i64 9987
  store i8 %81, ptr %82, align 1, !tbaa !16
  %83 = getelementptr inbounds i64, ptr %4, i64 9988
  %84 = load i64, ptr %83, align 8, !tbaa !147
  %85 = trunc i64 %84 to i8
  %86 = getelementptr inbounds i8, ptr %5, i64 9988
  store i8 %85, ptr %86, align 1, !tbaa !16
  %87 = getelementptr inbounds i64, ptr %4, i64 9989
  %88 = load i64, ptr %87, align 8, !tbaa !147
  %89 = trunc i64 %88 to i8
  %90 = getelementptr inbounds i8, ptr %5, i64 9989
  store i8 %89, ptr %90, align 1, !tbaa !16
  %91 = getelementptr inbounds i64, ptr %4, i64 9990
  %92 = load i64, ptr %91, align 8, !tbaa !147
  %93 = trunc i64 %92 to i8
  %94 = getelementptr inbounds i8, ptr %5, i64 9990
  store i8 %93, ptr %94, align 1, !tbaa !16
  %95 = getelementptr inbounds i64, ptr %4, i64 9991
  %96 = load i64, ptr %95, align 8, !tbaa !147
  %97 = trunc i64 %96 to i8
  %98 = getelementptr inbounds i8, ptr %5, i64 9991
  store i8 %97, ptr %98, align 1, !tbaa !16
  %99 = getelementptr inbounds i64, ptr %4, i64 9992
  %100 = load i64, ptr %99, align 8, !tbaa !147
  %101 = trunc i64 %100 to i8
  %102 = getelementptr inbounds i8, ptr %5, i64 9992
  store i8 %101, ptr %102, align 1, !tbaa !16
  %103 = getelementptr inbounds i64, ptr %4, i64 9993
  %104 = load i64, ptr %103, align 8, !tbaa !147
  %105 = trunc i64 %104 to i8
  %106 = getelementptr inbounds i8, ptr %5, i64 9993
  store i8 %105, ptr %106, align 1, !tbaa !16
  %107 = getelementptr inbounds i64, ptr %4, i64 9994
  %108 = load i64, ptr %107, align 8, !tbaa !147
  %109 = trunc i64 %108 to i8
  %110 = getelementptr inbounds i8, ptr %5, i64 9994
  store i8 %109, ptr %110, align 1, !tbaa !16
  %111 = getelementptr inbounds i64, ptr %4, i64 9995
  %112 = load i64, ptr %111, align 8, !tbaa !147
  %113 = trunc i64 %112 to i8
  %114 = getelementptr inbounds i8, ptr %5, i64 9995
  store i8 %113, ptr %114, align 1, !tbaa !16
  %115 = getelementptr inbounds i64, ptr %4, i64 9996
  %116 = load i64, ptr %115, align 8, !tbaa !147
  %117 = trunc i64 %116 to i8
  %118 = getelementptr inbounds i8, ptr %5, i64 9996
  store i8 %117, ptr %118, align 1, !tbaa !16
  %119 = getelementptr inbounds i64, ptr %4, i64 9997
  %120 = load i64, ptr %119, align 8, !tbaa !147
  %121 = trunc i64 %120 to i8
  %122 = getelementptr inbounds i8, ptr %5, i64 9997
  store i8 %121, ptr %122, align 1, !tbaa !16
  %123 = getelementptr inbounds i64, ptr %4, i64 9998
  %124 = load i64, ptr %123, align 8, !tbaa !147
  %125 = trunc i64 %124 to i8
  %126 = getelementptr inbounds i8, ptr %5, i64 9998
  store i8 %125, ptr %126, align 1, !tbaa !16
  %127 = getelementptr inbounds i64, ptr %4, i64 9999
  %128 = load i64, ptr %127, align 8, !tbaa !147
  %129 = trunc i64 %128 to i8
  %130 = getelementptr inbounds i8, ptr %5, i64 9999
  store i8 %129, ptr %130, align 1, !tbaa !16
  br label %137

131:                                              ; preds = %1
  %132 = landingpad { ptr, i32 }
          cleanup
  br label %281

133:                                              ; preds = %6
  %134 = landingpad { ptr, i32 }
          cleanup
  br label %278

135:                                              ; preds = %10
  %136 = landingpad { ptr, i32 }
          cleanup
  br label %274

137:                                              ; preds = %197, %66
  %138 = phi i64 [ 0, %66 ], [ %198, %197 ]
  %139 = getelementptr inbounds i8, ptr %5, i64 %138
  %140 = load i8, ptr %139, align 1, !tbaa !16
  %141 = getelementptr inbounds i8, ptr %7, i64 %138
  %142 = load i8, ptr %141, align 1, !tbaa !16
  %143 = icmp eq i8 %140, %142
  br i1 %143, label %169, label %144

144:                                              ; preds = %190, %183, %176, %169, %137
  %145 = phi i64 [ %138, %137 ], [ %170, %169 ], [ %177, %176 ], [ %184, %183 ], [ %191, %190 ]
  %146 = and i64 %145, 4294967295
  %147 = getelementptr inbounds i8, ptr %7, i64 %146
  %148 = invoke noundef nonnull align 8 dereferenceable(8) ptr @_ZSt16__ostream_insertIcSt11char_traitsIcEERSt13basic_ostreamIT_T0_ES6_PKS3_l(ptr noundef nonnull align 8 dereferenceable(8) @_ZSt4cerr, ptr noundef nonnull @.str.146, i64 noundef 34)
          to label %149 unwind label %167

149:                                              ; preds = %144
  %150 = getelementptr inbounds i64, ptr %4, i64 %146
  %151 = load i64, ptr %150, align 8, !tbaa !147
  %152 = invoke noundef nonnull align 8 dereferenceable(8) ptr @_ZNSo9_M_insertImEERSoT_(ptr noundef nonnull align 8 dereferenceable(8) @_ZSt4cerr, i64 noundef %151)
          to label %153 unwind label %167

153:                                              ; preds = %149
  %154 = invoke noundef nonnull align 8 dereferenceable(8) ptr @_ZSt16__ostream_insertIcSt11char_traitsIcEERSt13basic_ostreamIT_T0_ES6_PKS3_l(ptr noundef nonnull align 8 dereferenceable(8) %152, ptr noundef nonnull @.str.147, i64 noundef 19)
          to label %155 unwind label %167

155:                                              ; preds = %153
  %156 = getelementptr inbounds i8, ptr %5, i64 %146
  %157 = load i8, ptr %156, align 1, !tbaa !16
  %158 = invoke noundef nonnull align 8 dereferenceable(8) ptr @_ZStlsISt11char_traitsIcEERSt13basic_ostreamIcT_ES5_h(ptr noundef nonnull align 8 dereferenceable(8) %152, i8 noundef zeroext %157)
          to label %159 unwind label %167

159:                                              ; preds = %155
  %160 = invoke noundef nonnull align 8 dereferenceable(8) ptr @_ZSt16__ostream_insertIcSt11char_traitsIcEERSt13basic_ostreamIT_T0_ES6_PKS3_l(ptr noundef nonnull align 8 dereferenceable(8) %158, ptr noundef nonnull @.str.148, i64 noundef 12)
          to label %161 unwind label %167

161:                                              ; preds = %159
  %162 = load i8, ptr %147, align 1, !tbaa !16
  %163 = invoke noundef nonnull align 8 dereferenceable(8) ptr @_ZStlsISt11char_traitsIcEERSt13basic_ostreamIcT_ES5_h(ptr noundef nonnull align 8 dereferenceable(8) %158, i8 noundef zeroext %162)
          to label %164 unwind label %167

164:                                              ; preds = %161
  %165 = invoke noundef nonnull align 8 dereferenceable(8) ptr @_ZStlsISt11char_traitsIcEERSt13basic_ostreamIcT_ES5_PKc(ptr noundef nonnull align 8 dereferenceable(8) %163, ptr noundef nonnull @.str.149)
          to label %166 unwind label %167

166:                                              ; preds = %164
  call void @exit(i32 noundef 1) #12
  unreachable

167:                                              ; preds = %164, %161, %159, %155, %153, %149, %144
  %168 = landingpad { ptr, i32 }
          cleanup
  br label %274

169:                                              ; preds = %137
  %170 = add nuw nsw i64 %138, 1
  %171 = getelementptr inbounds i8, ptr %5, i64 %170
  %172 = load i8, ptr %171, align 1, !tbaa !16
  %173 = getelementptr inbounds i8, ptr %7, i64 %170
  %174 = load i8, ptr %173, align 1, !tbaa !16
  %175 = icmp eq i8 %172, %174
  br i1 %175, label %176, label %144

176:                                              ; preds = %169
  %177 = add nuw nsw i64 %138, 2
  %178 = getelementptr inbounds i8, ptr %5, i64 %177
  %179 = load i8, ptr %178, align 1, !tbaa !16
  %180 = getelementptr inbounds i8, ptr %7, i64 %177
  %181 = load i8, ptr %180, align 1, !tbaa !16
  %182 = icmp eq i8 %179, %181
  br i1 %182, label %183, label %144

183:                                              ; preds = %176
  %184 = add nuw nsw i64 %138, 3
  %185 = getelementptr inbounds i8, ptr %5, i64 %184
  %186 = load i8, ptr %185, align 1, !tbaa !16
  %187 = getelementptr inbounds i8, ptr %7, i64 %184
  %188 = load i8, ptr %187, align 1, !tbaa !16
  %189 = icmp eq i8 %186, %188
  br i1 %189, label %190, label %144

190:                                              ; preds = %183
  %191 = add nuw nsw i64 %138, 4
  %192 = getelementptr inbounds i8, ptr %5, i64 %191
  %193 = load i8, ptr %192, align 1, !tbaa !16
  %194 = getelementptr inbounds i8, ptr %7, i64 %191
  %195 = load i8, ptr %194, align 1, !tbaa !16
  %196 = icmp eq i8 %193, %195
  br i1 %196, label %197, label %144

197:                                              ; preds = %190
  %198 = add nuw nsw i64 %138, 5
  %199 = icmp eq i64 %198, 10000
  br i1 %199, label %200, label %137, !llvm.loop !151

200:                                              ; preds = %197
  %201 = getelementptr inbounds %"class.benchmark::State", ptr %0, i64 0, i32 5
  %202 = load i8, ptr %201, align 2, !tbaa !23, !range !40, !noundef !41
  %203 = getelementptr inbounds %"class.benchmark::State", ptr %0, i64 0, i32 2
  %204 = load i64, ptr %203, align 8
  invoke void @_ZN9benchmark5State16StartKeepRunningEv(ptr noundef nonnull align 8 dereferenceable(144) %0)
          to label %205 unwind label %216

205:                                              ; preds = %200
  %206 = icmp ne i8 %202, 0
  %207 = icmp eq i64 %204, 0
  %208 = select i1 %206, i1 true, i1 %207
  br i1 %208, label %211, label %209, !prof !42

209:                                              ; preds = %205
  %210 = getelementptr i8, ptr %4, i64 80000
  br label %218

211:                                              ; preds = %271, %205
  invoke void @_ZN9benchmark5State17FinishKeepRunningEv(ptr noundef nonnull align 8 dereferenceable(144) %0)
          to label %212 unwind label %216

212:                                              ; preds = %211
  call void @_ZdaPv(ptr noundef nonnull %7) #13
  %213 = load ptr, ptr %3, align 8, !tbaa !5
  %214 = icmp eq ptr %213, null
  br i1 %214, label %283, label %215

215:                                              ; preds = %212
  call void @_ZdaPv(ptr noundef nonnull %213) #13
  br label %283

216:                                              ; preds = %211, %200
  %217 = landingpad { ptr, i32 }
          cleanup
  br label %274

218:                                              ; preds = %209, %271
  %219 = phi i64 [ %272, %271 ], [ %204, %209 ]
  %220 = load i64, ptr %3, align 8
  call void asm sideeffect "", "=*r|m,0,~{memory},~{dirflag},~{fpsr},~{flags}"(ptr nonnull elementtype(%"class.std::unique_ptr.33") %3, i64 %220) #11, !srcloc !43
  fence syncscope("singlethread") acq_rel
  %221 = load ptr, ptr %3, align 8, !tbaa !5
  %222 = getelementptr i8, ptr %221, i64 10000
  %223 = icmp ult ptr %221, %210
  %224 = icmp ult ptr %4, %222
  %225 = and i1 %223, %224
  br i1 %225, label %246, label %226

226:                                              ; preds = %218, %226
  %227 = phi i64 [ %244, %226 ], [ 0, %218 ]
  %228 = getelementptr inbounds i64, ptr %4, i64 %227
  %229 = load <16 x i64>, ptr %228, align 8, !tbaa !147, !alias.scope !160
  %230 = getelementptr inbounds i64, ptr %228, i64 16
  %231 = load <16 x i64>, ptr %230, align 8, !tbaa !147, !alias.scope !160
  %232 = getelementptr inbounds i64, ptr %228, i64 32
  %233 = load <16 x i64>, ptr %232, align 8, !tbaa !147, !alias.scope !160
  %234 = getelementptr inbounds i64, ptr %228, i64 48
  %235 = load <16 x i64>, ptr %234, align 8, !tbaa !147, !alias.scope !160
  %236 = trunc <16 x i64> %229 to <16 x i8>
  %237 = trunc <16 x i64> %231 to <16 x i8>
  %238 = trunc <16 x i64> %233 to <16 x i8>
  %239 = trunc <16 x i64> %235 to <16 x i8>
  %240 = getelementptr inbounds i8, ptr %221, i64 %227
  store <16 x i8> %236, ptr %240, align 1, !tbaa !16, !alias.scope !163, !noalias !160
  %241 = getelementptr inbounds i8, ptr %240, i64 16
  store <16 x i8> %237, ptr %241, align 1, !tbaa !16, !alias.scope !163, !noalias !160
  %242 = getelementptr inbounds i8, ptr %240, i64 32
  store <16 x i8> %238, ptr %242, align 1, !tbaa !16, !alias.scope !163, !noalias !160
  %243 = getelementptr inbounds i8, ptr %240, i64 48
  store <16 x i8> %239, ptr %243, align 1, !tbaa !16, !alias.scope !163, !noalias !160
  %244 = add nuw i64 %227, 64
  %245 = icmp eq i64 %244, 9984
  br i1 %245, label %246, label %226, !llvm.loop !165

246:                                              ; preds = %226, %218
  %247 = phi i64 [ 0, %218 ], [ 9984, %226 ]
  br label %248

248:                                              ; preds = %248, %246
  %249 = phi i64 [ %247, %246 ], [ %269, %248 ]
  %250 = getelementptr inbounds i64, ptr %4, i64 %249
  %251 = load i64, ptr %250, align 8, !tbaa !147
  %252 = trunc i64 %251 to i8
  %253 = getelementptr inbounds i8, ptr %221, i64 %249
  store i8 %252, ptr %253, align 1, !tbaa !16
  %254 = or i64 %249, 1
  %255 = getelementptr inbounds i64, ptr %4, i64 %254
  %256 = load i64, ptr %255, align 8, !tbaa !147
  %257 = trunc i64 %256 to i8
  %258 = getelementptr inbounds i8, ptr %221, i64 %254
  store i8 %257, ptr %258, align 1, !tbaa !16
  %259 = or i64 %249, 2
  %260 = getelementptr inbounds i64, ptr %4, i64 %259
  %261 = load i64, ptr %260, align 8, !tbaa !147
  %262 = trunc i64 %261 to i8
  %263 = getelementptr inbounds i8, ptr %221, i64 %259
  store i8 %262, ptr %263, align 1, !tbaa !16
  %264 = or i64 %249, 3
  %265 = getelementptr inbounds i64, ptr %4, i64 %264
  %266 = load i64, ptr %265, align 8, !tbaa !147
  %267 = trunc i64 %266 to i8
  %268 = getelementptr inbounds i8, ptr %221, i64 %264
  store i8 %267, ptr %268, align 1, !tbaa !16
  %269 = add nuw nsw i64 %249, 4
  %270 = icmp eq i64 %269, 10000
  br i1 %270, label %271, label %248, !llvm.loop !166

271:                                              ; preds = %248
  %272 = add i64 %219, -1
  %273 = icmp eq i64 %272, 0
  br i1 %273, label %211, label %218, !prof !42

274:                                              ; preds = %216, %167, %135
  %275 = phi { ptr, i32 } [ %168, %167 ], [ %217, %216 ], [ %136, %135 ]
  call void @_ZdaPv(ptr noundef nonnull %7) #13
  %276 = load ptr, ptr %3, align 8, !tbaa !5
  %277 = icmp eq ptr %276, null
  br i1 %277, label %281, label %278

278:                                              ; preds = %274, %133
  %279 = phi { ptr, i32 } [ %134, %133 ], [ %275, %274 ]
  %280 = phi ptr [ %5, %133 ], [ %276, %274 ]
  call void @_ZdaPv(ptr noundef nonnull %280) #13
  br label %281

281:                                              ; preds = %278, %274, %131
  %282 = phi { ptr, i32 } [ %132, %131 ], [ %275, %274 ], [ %279, %278 ]
  call void @llvm.lifetime.end.p0(i64 8, ptr nonnull %3) #11
  call void @_ZdaPv(ptr noundef nonnull %4) #13
  resume { ptr, i32 } %282

283:                                              ; preds = %212, %215
  call void @llvm.lifetime.end.p0(i64 8, ptr nonnull %3) #11
  call void @_ZdaPv(ptr noundef nonnull %4) #13
  ret void
}

; Function Attrs: uwtable
define dso_local void @_Z53benchForTruncOrZextVecInLoopFrom_uint64_t_To_uint8_t_RN9benchmark5StateE(ptr noundef nonnull align 8 dereferenceable(144) %0) #3 personality ptr @__gxx_personality_v0 {
  %2 = alloca %"class.std::uniform_int_distribution.65", align 8
  %3 = alloca %"class.std::unique_ptr.33", align 8
  %4 = tail call noalias noundef nonnull dereferenceable(80000) ptr @_Znam(i64 noundef 80000) #10
  call void @llvm.lifetime.start.p0(i64 8, ptr nonnull %3) #11
  %5 = invoke noalias noundef nonnull dereferenceable(10000) ptr @_Znam(i64 noundef 10000) #10
          to label %6 unwind label %67

6:                                                ; preds = %1
  store ptr %5, ptr %3, align 8, !tbaa !5
  %7 = invoke noalias noundef nonnull dereferenceable(10000) ptr @_Znam(i64 noundef 10000) #10
          to label %8 unwind label %69

8:                                                ; preds = %6
  call void @llvm.lifetime.start.p0(i64 16, ptr nonnull %2) #11
  store i64 0, ptr %2, align 8, !tbaa !144
  %9 = getelementptr inbounds %"struct.std::uniform_int_distribution<unsigned long>::param_type", ptr %2, i64 0, i32 1
  store i64 -1, ptr %9, align 8, !tbaa !146
  br label %10

10:                                               ; preds = %13, %8
  %11 = phi i64 [ 0, %8 ], [ %15, %13 ]
  %12 = invoke noundef i64 @_ZNSt24uniform_int_distributionImEclISt23mersenne_twister_engineImLm32ELm624ELm397ELm31ELm2567483615ELm11ELm4294967295ELm7ELm2636928640ELm15ELm4022730752ELm18ELm1812433253EEEEmRT_RKNS0_10param_typeE(ptr noundef nonnull align 8 dereferenceable(16) %2, ptr noundef nonnull align 8 dereferenceable(5000) @_ZL3rng, ptr noundef nonnull align 8 dereferenceable(16) %2)
          to label %13 unwind label %71

13:                                               ; preds = %10
  %14 = getelementptr inbounds i64, ptr %4, i64 %11
  store i64 %12, ptr %14, align 8, !tbaa !147
  %15 = add nuw nsw i64 %11, 1
  %16 = icmp eq i64 %15, 10000
  br i1 %16, label %17, label %10, !llvm.loop !148

17:                                               ; preds = %13
  call void @llvm.lifetime.end.p0(i64 16, ptr nonnull %2) #11
  br label %18

18:                                               ; preds = %18, %17
  %19 = phi i64 [ 0, %17 ], [ %44, %18 ]
  %20 = getelementptr inbounds i64, ptr %4, i64 %19
  %21 = load i64, ptr %20, align 8, !tbaa !147
  %22 = trunc i64 %21 to i8
  %23 = getelementptr inbounds i8, ptr %7, i64 %19
  store i8 %22, ptr %23, align 1, !tbaa !16
  %24 = add nuw nsw i64 %19, 1
  %25 = getelementptr inbounds i64, ptr %4, i64 %24
  %26 = load i64, ptr %25, align 8, !tbaa !147
  %27 = trunc i64 %26 to i8
  %28 = getelementptr inbounds i8, ptr %7, i64 %24
  store i8 %27, ptr %28, align 1, !tbaa !16
  %29 = add nuw nsw i64 %19, 2
  %30 = getelementptr inbounds i64, ptr %4, i64 %29
  %31 = load i64, ptr %30, align 8, !tbaa !147
  %32 = trunc i64 %31 to i8
  %33 = getelementptr inbounds i8, ptr %7, i64 %29
  store i8 %32, ptr %33, align 1, !tbaa !16
  %34 = add nuw nsw i64 %19, 3
  %35 = getelementptr inbounds i64, ptr %4, i64 %34
  %36 = load i64, ptr %35, align 8, !tbaa !147
  %37 = trunc i64 %36 to i8
  %38 = getelementptr inbounds i8, ptr %7, i64 %34
  store i8 %37, ptr %38, align 1, !tbaa !16
  %39 = add nuw nsw i64 %19, 4
  %40 = getelementptr inbounds i64, ptr %4, i64 %39
  %41 = load i64, ptr %40, align 8, !tbaa !147
  %42 = trunc i64 %41 to i8
  %43 = getelementptr inbounds i8, ptr %7, i64 %39
  store i8 %42, ptr %43, align 1, !tbaa !16
  %44 = add nuw nsw i64 %19, 5
  %45 = icmp eq i64 %44, 10000
  br i1 %45, label %46, label %18, !llvm.loop !149

46:                                               ; preds = %18, %46
  %47 = phi i64 [ %65, %46 ], [ 0, %18 ]
  %48 = getelementptr inbounds i64, ptr %4, i64 %47
  %49 = load <2 x i64>, ptr %48, align 8, !tbaa !147
  %50 = getelementptr inbounds i64, ptr %48, i64 2
  %51 = load <2 x i64>, ptr %50, align 8, !tbaa !147
  %52 = trunc <2 x i64> %49 to <2 x i8>
  %53 = trunc <2 x i64> %51 to <2 x i8>
  %54 = getelementptr inbounds i8, ptr %5, i64 %47
  store <2 x i8> %52, ptr %54, align 1, !tbaa !16
  %55 = getelementptr inbounds i8, ptr %54, i64 2
  store <2 x i8> %53, ptr %55, align 1, !tbaa !16
  %56 = or i64 %47, 4
  %57 = getelementptr inbounds i64, ptr %4, i64 %56
  %58 = load <2 x i64>, ptr %57, align 8, !tbaa !147
  %59 = getelementptr inbounds i64, ptr %57, i64 2
  %60 = load <2 x i64>, ptr %59, align 8, !tbaa !147
  %61 = trunc <2 x i64> %58 to <2 x i8>
  %62 = trunc <2 x i64> %60 to <2 x i8>
  %63 = getelementptr inbounds i8, ptr %5, i64 %56
  store <2 x i8> %61, ptr %63, align 1, !tbaa !16
  %64 = getelementptr inbounds i8, ptr %63, i64 2
  store <2 x i8> %62, ptr %64, align 1, !tbaa !16
  %65 = add nuw nsw i64 %47, 8
  %66 = icmp eq i64 %65, 10000
  br i1 %66, label %73, label %46, !llvm.loop !167

67:                                               ; preds = %1
  %68 = landingpad { ptr, i32 }
          cleanup
  br label %221

69:                                               ; preds = %6
  %70 = landingpad { ptr, i32 }
          cleanup
  br label %218

71:                                               ; preds = %10
  %72 = landingpad { ptr, i32 }
          cleanup
  br label %214

73:                                               ; preds = %46, %133
  %74 = phi i64 [ %134, %133 ], [ 0, %46 ]
  %75 = getelementptr inbounds i8, ptr %5, i64 %74
  %76 = load i8, ptr %75, align 1, !tbaa !16
  %77 = getelementptr inbounds i8, ptr %7, i64 %74
  %78 = load i8, ptr %77, align 1, !tbaa !16
  %79 = icmp eq i8 %76, %78
  br i1 %79, label %105, label %80

80:                                               ; preds = %126, %119, %112, %105, %73
  %81 = phi i64 [ %74, %73 ], [ %106, %105 ], [ %113, %112 ], [ %120, %119 ], [ %127, %126 ]
  %82 = and i64 %81, 4294967295
  %83 = getelementptr inbounds i8, ptr %7, i64 %82
  %84 = invoke noundef nonnull align 8 dereferenceable(8) ptr @_ZSt16__ostream_insertIcSt11char_traitsIcEERSt13basic_ostreamIT_T0_ES6_PKS3_l(ptr noundef nonnull align 8 dereferenceable(8) @_ZSt4cerr, ptr noundef nonnull @.str.146, i64 noundef 34)
          to label %85 unwind label %103

85:                                               ; preds = %80
  %86 = getelementptr inbounds i64, ptr %4, i64 %82
  %87 = load i64, ptr %86, align 8, !tbaa !147
  %88 = invoke noundef nonnull align 8 dereferenceable(8) ptr @_ZNSo9_M_insertImEERSoT_(ptr noundef nonnull align 8 dereferenceable(8) @_ZSt4cerr, i64 noundef %87)
          to label %89 unwind label %103

89:                                               ; preds = %85
  %90 = invoke noundef nonnull align 8 dereferenceable(8) ptr @_ZSt16__ostream_insertIcSt11char_traitsIcEERSt13basic_ostreamIT_T0_ES6_PKS3_l(ptr noundef nonnull align 8 dereferenceable(8) %88, ptr noundef nonnull @.str.147, i64 noundef 19)
          to label %91 unwind label %103

91:                                               ; preds = %89
  %92 = getelementptr inbounds i8, ptr %5, i64 %82
  %93 = load i8, ptr %92, align 1, !tbaa !16
  %94 = invoke noundef nonnull align 8 dereferenceable(8) ptr @_ZStlsISt11char_traitsIcEERSt13basic_ostreamIcT_ES5_h(ptr noundef nonnull align 8 dereferenceable(8) %88, i8 noundef zeroext %93)
          to label %95 unwind label %103

95:                                               ; preds = %91
  %96 = invoke noundef nonnull align 8 dereferenceable(8) ptr @_ZSt16__ostream_insertIcSt11char_traitsIcEERSt13basic_ostreamIT_T0_ES6_PKS3_l(ptr noundef nonnull align 8 dereferenceable(8) %94, ptr noundef nonnull @.str.148, i64 noundef 12)
          to label %97 unwind label %103

97:                                               ; preds = %95
  %98 = load i8, ptr %83, align 1, !tbaa !16
  %99 = invoke noundef nonnull align 8 dereferenceable(8) ptr @_ZStlsISt11char_traitsIcEERSt13basic_ostreamIcT_ES5_h(ptr noundef nonnull align 8 dereferenceable(8) %94, i8 noundef zeroext %98)
          to label %100 unwind label %103

100:                                              ; preds = %97
  %101 = invoke noundef nonnull align 8 dereferenceable(8) ptr @_ZStlsISt11char_traitsIcEERSt13basic_ostreamIcT_ES5_PKc(ptr noundef nonnull align 8 dereferenceable(8) %99, ptr noundef nonnull @.str.149)
          to label %102 unwind label %103

102:                                              ; preds = %100
  call void @exit(i32 noundef 1) #12
  unreachable

103:                                              ; preds = %100, %97, %95, %91, %89, %85, %80
  %104 = landingpad { ptr, i32 }
          cleanup
  br label %214

105:                                              ; preds = %73
  %106 = add nuw nsw i64 %74, 1
  %107 = getelementptr inbounds i8, ptr %5, i64 %106
  %108 = load i8, ptr %107, align 1, !tbaa !16
  %109 = getelementptr inbounds i8, ptr %7, i64 %106
  %110 = load i8, ptr %109, align 1, !tbaa !16
