; ModuleID = '/usr/local/google/home/aeubanks/repos/test-suite/MultiSource/Benchmarks/DOE-ProxyApps-C++/CLAMR/Variable.cc'
source_filename = "/usr/local/google/home/aeubanks/repos/test-suite/MultiSource/Benchmarks/DOE-ProxyApps-C++/CLAMR/Variable.cc"
target datalayout = "e-m:e-p270:32:32-p271:32:32-p272:64:64-i64:64-f80:128-n8:16:32:64-S128"
target triple = "x86_64-unknown-linux-gnu"

%"class.std::ios_base::Init" = type { i8 }
%"class.std::__cxx11::basic_string" = type { %"struct.std::__cxx11::basic_string<char>::_Alloc_hider", i64, %union.anon }
%"struct.std::__cxx11::basic_string<char>::_Alloc_hider" = type { ptr }
%union.anon = type { i64, [8 x i8] }
%"class.PP::Variable" = type { %"class.std::__cxx11::basic_string", %"class.std::vector", i32, i32, i32, %"class.std::vector.3", i8, i8, %"class.std::__cxx11::basic_string" }
%"class.std::vector" = type { %"struct.std::_Vector_base" }
%"struct.std::_Vector_base" = type { %"struct.std::_Vector_base<std::__cxx11::basic_string<char>, std::allocator<std::__cxx11::basic_string<char>>>::_Vector_impl" }
%"struct.std::_Vector_base<std::__cxx11::basic_string<char>, std::allocator<std::__cxx11::basic_string<char>>>::_Vector_impl" = type { %"struct.std::_Vector_base<std::__cxx11::basic_string<char>, std::allocator<std::__cxx11::basic_string<char>>>::_Vector_impl_data" }
%"struct.std::_Vector_base<std::__cxx11::basic_string<char>, std::allocator<std::__cxx11::basic_string<char>>>::_Vector_impl_data" = type { ptr, ptr, ptr }
%"class.std::vector.3" = type { %"struct.std::_Vector_base.4" }
%"struct.std::_Vector_base.4" = type { %"struct.std::_Vector_base<int, std::allocator<int>>::_Vector_impl" }
%"struct.std::_Vector_base<int, std::allocator<int>>::_Vector_impl" = type { %"struct.std::_Vector_base<int, std::allocator<int>>::_Vector_impl_data" }
%"struct.std::_Vector_base<int, std::allocator<int>>::_Vector_impl_data" = type { ptr, ptr, ptr }
%"class.PP::Parser_utils" = type { i8 }
%"class.std::basic_ios" = type { %"class.std::ios_base", ptr, i8, i8, ptr, ptr, ptr, ptr }
%"class.std::ios_base" = type { ptr, i64, i64, i32, i32, i32, ptr, %"struct.std::ios_base::_Words", [8 x %"struct.std::ios_base::_Words"], i32, ptr, %"class.std::locale" }
%"struct.std::ios_base::_Words" = type { ptr, i64 }
%"class.std::locale" = type { ptr }
%"class.std::ctype" = type <{ %"class.std::locale::facet.base", [4 x i8], ptr, i8, [7 x i8], ptr, ptr, ptr, i8, [256 x i8], [256 x i8], i8, [6 x i8] }>
%"class.std::locale::facet.base" = type <{ ptr, i32 }>
%"struct.std::_Deque_base<std::__cxx11::basic_string<char>, std::allocator<std::__cxx11::basic_string<char>>>::_Deque_impl_data" = type { ptr, i64, %"struct.std::_Deque_iterator", %"struct.std::_Deque_iterator" }
%"struct.std::_Deque_iterator" = type { ptr, ptr, ptr, ptr }
%"class.PP::Word" = type { %"class.std::__cxx11::basic_string", i32, i8, i8, i32, i32, %"class.std::__cxx11::basic_string", i32, i32, %"class.std::__cxx11::basic_string", ptr }
%"class.std::__cxx11::basic_stringstream" = type { %"class.std::basic_iostream.base", %"class.std::__cxx11::basic_stringbuf", %"class.std::basic_ios" }
%"class.std::basic_iostream.base" = type { %"class.std::basic_istream.base", %"class.std::basic_ostream.base" }
%"class.std::basic_istream.base" = type { ptr, i64 }
%"class.std::basic_ostream.base" = type { ptr }
%"class.std::__cxx11::basic_stringbuf" = type { %"class.std::basic_streambuf", i32, %"class.std::__cxx11::basic_string" }
%"class.std::basic_streambuf" = type { ptr, ptr, ptr, ptr, ptr, ptr, ptr, %"class.std::locale" }
%"class.std::basic_istream" = type { ptr, i64, %"class.std::basic_ios" }
%"struct.std::vector<std::__cxx11::basic_string<char>>::_Temporary_value" = type { ptr, %"union.std::vector<std::__cxx11::basic_string<char>>::_Temporary_value::_Storage" }
%"union.std::vector<std::__cxx11::basic_string<char>>::_Temporary_value::_Storage" = type { %"class.std::__cxx11::basic_string" }

$_ZNSt6vectorINSt7__cxx1112basic_stringIcSt11char_traitsIcESaIcEEESaIS5_EED2Ev = comdat any

$__clang_call_terminate = comdat any

$_ZNSt6vectorINSt7__cxx1112basic_stringIcSt11char_traitsIcESaIcEEESaIS5_EE17_M_realloc_insertIJS5_EEEvN9__gnu_cxx17__normal_iteratorIPS5_S7_EEDpOT_ = comdat any

$_ZNSt6vectorINSt7__cxx1112basic_stringIcSt11char_traitsIcESaIcEEESaIS5_EE17_M_realloc_insertIJRKS5_EEEvN9__gnu_cxx17__normal_iteratorIPS5_S7_EEDpOT_ = comdat any

$_ZNSt6vectorINSt7__cxx1112basic_stringIcSt11char_traitsIcESaIcEEESaIS5_EE14_M_fill_insertEN9__gnu_cxx17__normal_iteratorIPS5_S7_EEmRKS5_ = comdat any

$_ZSt18__do_uninit_fill_nIPNSt7__cxx1112basic_stringIcSt11char_traitsIcESaIcEEEmS5_ET_S7_T0_RKT1_ = comdat any

@_ZStL8__ioinit = internal global %"class.std::ios_base::Init" zeroinitializer, align 1
@__dso_handle = external hidden global i8
@.str = private unnamed_addr constant [18 x i8] c"__NO_NAME_GIVEN__\00", align 1
@.str.1 = private unnamed_addr constant [19 x i8] c"__NO_VALUE_GIVEN__\00", align 1
@.str.2 = private unnamed_addr constant [1 x i8] zeroinitializer, align 1
@_ZN2PPL10index_baseE = internal unnamed_addr global i32 1, align 4
@.str.3 = private unnamed_addr constant [25 x i8] c"*** FATAL ERROR in line \00", align 1
@.str.4 = private unnamed_addr constant [2 x i8] c":\00", align 1
@.str.5 = private unnamed_addr constant [5 x i8] c"    \00", align 1
@.str.6 = private unnamed_addr constant [10 x i8] c"in file: \00", align 1
@.str.7 = private unnamed_addr constant [40 x i8] c"Cannot redefine a pre-defined variable.\00", align 1
@.str.8 = private unnamed_addr constant [50 x i8] c"Cannot redefine the dimensionality of a variable.\00", align 1
@.str.9 = private unnamed_addr constant [33 x i8] c"Original number of dimensions = \00", align 1
@.str.10 = private unnamed_addr constant [28 x i8] c"New number of dimensions = \00", align 1
@.str.11 = private unnamed_addr constant [24 x i8] c"Previously set in line \00", align 1
@.str.12 = private unnamed_addr constant [50 x i8] c"Array boundaries not allowed for scalar variable.\00", align 1
@.str.13 = private unnamed_addr constant [35 x i8] c"Array boundaries were set in line \00", align 1
@.str.14 = private unnamed_addr constant [24 x i8] c"Number of dimensions = \00", align 1
@.str.15 = private unnamed_addr constant [34 x i8] c"Number of array boundaries + 1 = \00", align 1
@.str.16 = private unnamed_addr constant [31 x i8] c"These should match but don't. \00", align 1
@.str.17 = private unnamed_addr constant [63 x i8] c"Cannot redefine the dimensionality of a variable (set_bounds).\00", align 1
@.str.18 = private unnamed_addr constant [47 x i8] c"The bounds on this array has already been set,\00", align 1
@.str.19 = private unnamed_addr constant [19 x i8] c"cannot reset them.\00", align 1
@.str.20 = private unnamed_addr constant [32 x i8] c"The dimensionality of variable \00", align 1
@.str.21 = private unnamed_addr constant [40 x i8] c"does not match what was previously set.\00", align 1
@.str.22 = private unnamed_addr constant [37 x i8] c"Previous dimensionality set in line \00", align 1
@.str.23 = private unnamed_addr constant [17 x i8] c"Variable name = \00", align 1
@.str.24 = private unnamed_addr constant [25 x i8] c"The value for dimension \00", align 1
@.str.25 = private unnamed_addr constant [4 x i8] c" = \00", align 1
@.str.26 = private unnamed_addr constant [35 x i8] c"This exceeds the max dimension of \00", align 1
@.str.27 = private unnamed_addr constant [35 x i8] c"The array bounds were set in line \00", align 1
@.str.28 = private unnamed_addr constant [43 x i8] c"Expected index greater than or equal to 1 \00", align 1
@.str.29 = private unnamed_addr constant [19 x i8] c"Instead, index =  \00", align 1
@.str.30 = private unnamed_addr constant [54 x i8] c"Exceeded array bounds. Check to make sure you are not\00", align 1
@.str.31 = private unnamed_addr constant [50 x i8] c"requesting an array element you have not yet set.\00", align 1
@.str.32 = private unnamed_addr constant [22 x i8] c"  ERROR, max exceeded\00", align 1
@.str.33 = private unnamed_addr constant [23 x i8] c"    Requested index = \00", align 1
@.str.34 = private unnamed_addr constant [15 x i8] c"  Max index = \00", align 1
@.str.35 = private unnamed_addr constant [26 x i8] c"vector::_M_realloc_insert\00", align 1
@.str.37 = private unnamed_addr constant [23 x i8] c"vector::_M_fill_insert\00", align 1
@_ZTTNSt7__cxx1118basic_stringstreamIcSt11char_traitsIcESaIcEEE = external unnamed_addr constant [10 x ptr], align 8
@_ZTVNSt7__cxx1115basic_stringbufIcSt11char_traitsIcESaIcEEE = external unnamed_addr constant { [16 x ptr] }, align 8
@_ZTVSt15basic_streambufIcSt11char_traitsIcEE = external unnamed_addr constant { [16 x ptr] }, align 8
@.str.40 = private unnamed_addr constant [49 x i8] c"cannot create std::vector larger than max_size()\00", align 1
@llvm.global_ctors = appending global [1 x { i32, ptr, ptr }] [{ i32, ptr, ptr } { i32 65535, ptr @_GLOBAL__sub_I_Variable.cc, ptr null }]

@_ZN2PP8VariableC1Ev = dso_local unnamed_addr alias void (ptr), ptr @_ZN2PP8VariableC2Ev
@_ZN2PP8VariableC1Ei = dso_local unnamed_addr alias void (ptr, i32), ptr @_ZN2PP8VariableC2Ei
@_ZN2PP8VariableC1ENSt7__cxx1112basic_stringIcSt11char_traitsIcESaIcEEES6_bS6_ = dso_local unnamed_addr alias void (ptr, ptr, ptr, i1, ptr), ptr @_ZN2PP8VariableC2ENSt7__cxx1112basic_stringIcSt11char_traitsIcESaIcEEES6_bS6_
@_ZN2PP8VariableC1ENSt7__cxx1112basic_stringIcSt11char_traitsIcESaIcEEE = dso_local unnamed_addr alias void (ptr, ptr), ptr @_ZN2PP8VariableC2ENSt7__cxx1112basic_stringIcSt11char_traitsIcESaIcEEE
@_ZN2PP8VariableC1ENSt7__cxx1112basic_stringIcSt11char_traitsIcESaIcEEERSt6vectorIiSaIiEERS7_IS6_SaIS6_EEiiS6_PSt5dequeIS6_SB_ERNS1_18basic_stringstreamIcS4_S5_EERi = dso_local unnamed_addr alias void (ptr, ptr, ptr, ptr, i32, i32, ptr, ptr, ptr, ptr), ptr @_ZN2PP8VariableC2ENSt7__cxx1112basic_stringIcSt11char_traitsIcESaIcEEERSt6vectorIiSaIiEERS7_IS6_SaIS6_EEiiS6_PSt5dequeIS6_SB_ERNS1_18basic_stringstreamIcS4_S5_EERi

declare void @_ZNSt8ios_base4InitC1Ev(ptr noundef nonnull align 1 dereferenceable(1)) unnamed_addr #0

; Function Attrs: nounwind
declare void @_ZNSt8ios_base4InitD1Ev(ptr noundef nonnull align 1 dereferenceable(1)) unnamed_addr #1

; Function Attrs: nofree nounwind
declare i32 @__cxa_atexit(ptr, ptr, ptr) local_unnamed_addr #2

; Function Attrs: uwtable
define dso_local void @_ZN2PP8VariableC2Ev(ptr noundef nonnull align 8 dereferenceable(136) %this) unnamed_addr #3 align 2 personality ptr @__gxx_personality_v0 {
entry:
  %__dnew.i.i = alloca i64, align 8
  %ref.tmp = alloca %"class.std::__cxx11::basic_string", align 8
  %0 = getelementptr inbounds %"class.std::__cxx11::basic_string", ptr %this, i64 0, i32 2
  store ptr %0, ptr %this, align 8, !tbaa !5
  %_M_string_length.i.i.i = getelementptr inbounds %"class.std::__cxx11::basic_string", ptr %this, i64 0, i32 1
  store i64 0, ptr %_M_string_length.i.i.i, align 8, !tbaa !10
  store i8 0, ptr %0, align 8, !tbaa !13
  %value = getelementptr inbounds %"class.PP::Variable", ptr %this, i64 0, i32 1
  tail call void @llvm.memset.p0.i64(ptr noundef nonnull align 8 dereferenceable(24) %value, i8 0, i64 24, i1 false)
  %maxdim = getelementptr inbounds %"class.PP::Variable", ptr %this, i64 0, i32 5
  tail call void @llvm.memset.p0.i64(ptr noundef nonnull align 8 dereferenceable(24) %maxdim, i8 0, i64 24, i1 false)
  %description = getelementptr inbounds %"class.PP::Variable", ptr %this, i64 0, i32 8
  %1 = getelementptr inbounds %"class.PP::Variable", ptr %this, i64 0, i32 8, i32 2
  store ptr %1, ptr %description, align 8, !tbaa !5
  %_M_string_length.i.i.i19 = getelementptr inbounds %"class.PP::Variable", ptr %this, i64 0, i32 8, i32 1
  store i64 0, ptr %_M_string_length.i.i.i19, align 8, !tbaa !10
  store i8 0, ptr %1, align 8, !tbaa !13
  %call3.i.i21 = invoke noundef nonnull align 8 dereferenceable(32) ptr @_ZNSt7__cxx1112basic_stringIcSt11char_traitsIcESaIcEE10_M_replaceEmmPKcm(ptr noundef nonnull align 8 dereferenceable(32) %this, i64 noundef 0, i64 noundef 0, ptr noundef nonnull @.str, i64 noundef 17)
          to label %invoke.cont unwind label %lpad

invoke.cont:                                      ; preds = %entry
  call void @llvm.lifetime.start.p0(i64 32, ptr nonnull %ref.tmp) #16
  %2 = getelementptr inbounds %"class.std::__cxx11::basic_string", ptr %ref.tmp, i64 0, i32 2
  store ptr %2, ptr %ref.tmp, align 8, !tbaa !5
  call void @llvm.lifetime.start.p0(i64 8, ptr nonnull %__dnew.i.i) #16
  store i64 18, ptr %__dnew.i.i, align 8, !tbaa !14
  %call2.i9.i22 = invoke noundef ptr @_ZNSt7__cxx1112basic_stringIcSt11char_traitsIcESaIcEE9_M_createERmm(ptr noundef nonnull align 8 dereferenceable(32) %ref.tmp, ptr noundef nonnull align 8 dereferenceable(8) %__dnew.i.i, i64 noundef 0)
          to label %call2.i9.i.noexc unwind label %lpad5

call2.i9.i.noexc:                                 ; preds = %invoke.cont
  store ptr %call2.i9.i22, ptr %ref.tmp, align 8, !tbaa !15
  %3 = load i64, ptr %__dnew.i.i, align 8, !tbaa !14
  store i64 %3, ptr %2, align 8, !tbaa !13
  call void @llvm.memcpy.p0.p0.i64(ptr noundef nonnull align 1 dereferenceable(18) %call2.i9.i22, ptr noundef nonnull align 1 dereferenceable(18) @.str.1, i64 18, i1 false)
  %_M_string_length.i.i.i.i = getelementptr inbounds %"class.std::__cxx11::basic_string", ptr %ref.tmp, i64 0, i32 1
  store i64 %3, ptr %_M_string_length.i.i.i.i, align 8, !tbaa !10
  %4 = load ptr, ptr %ref.tmp, align 8, !tbaa !15
  %arrayidx.i.i.i = getelementptr inbounds i8, ptr %4, i64 %3
  store i8 0, ptr %arrayidx.i.i.i, align 1, !tbaa !13
  call void @llvm.lifetime.end.p0(i64 8, ptr nonnull %__dnew.i.i) #16
  %_M_finish.i.i = getelementptr inbounds %"class.PP::Variable", ptr %this, i64 0, i32 1, i32 0, i32 0, i32 0, i32 1
  %5 = load ptr, ptr %_M_finish.i.i, align 8, !tbaa !16
  %_M_end_of_storage.i.i = getelementptr inbounds %"class.PP::Variable", ptr %this, i64 0, i32 1, i32 0, i32 0, i32 0, i32 2
  %6 = load ptr, ptr %_M_end_of_storage.i.i, align 8, !tbaa !17
  %cmp.not.i.i = icmp eq ptr %5, %6
  br i1 %cmp.not.i.i, label %if.else.i.i, label %if.then.i.i23

if.then.i.i23:                                    ; preds = %call2.i9.i.noexc
  %7 = getelementptr inbounds %"class.std::__cxx11::basic_string", ptr %5, i64 0, i32 2
  store ptr %7, ptr %5, align 8, !tbaa !5
  %8 = load ptr, ptr %ref.tmp, align 8, !tbaa !15
  %cmp.i.i.i.i.i.i = icmp eq ptr %8, %2
  br i1 %cmp.i.i.i.i.i.i, label %if.then.i.i.i.i.i, label %if.else.i.i.i.i.i

if.then.i.i.i.i.i:                                ; preds = %if.then.i.i23
  %9 = load i64, ptr %_M_string_length.i.i.i.i, align 8, !tbaa !10
  %add.i.i.i.i.i = add i64 %9, 1
  %cmp.i21.i.i.i.i.i = icmp eq i64 %add.i.i.i.i.i, 0
  br i1 %cmp.i21.i.i.i.i.i, label %invoke.cont8.thread, label %if.end.i.i.i.i.i.i

if.end.i.i.i.i.i.i:                               ; preds = %if.then.i.i.i.i.i
  call void @llvm.memcpy.p0.p0.i64(ptr nonnull align 8 %7, ptr nonnull align 8 %2, i64 %add.i.i.i.i.i, i1 false)
  br label %invoke.cont8.thread

if.else.i.i.i.i.i:                                ; preds = %if.then.i.i23
  store ptr %8, ptr %5, align 8, !tbaa !15
  %10 = load i64, ptr %2, align 8, !tbaa !13
  store i64 %10, ptr %7, align 8, !tbaa !13
  %.pre = load i64, ptr %_M_string_length.i.i.i.i, align 8, !tbaa !10
  br label %invoke.cont8.thread

invoke.cont8.thread:                              ; preds = %if.then.i.i.i.i.i, %if.end.i.i.i.i.i.i, %if.else.i.i.i.i.i
  %11 = phi i64 [ %.pre, %if.else.i.i.i.i.i ], [ %9, %if.end.i.i.i.i.i.i ], [ -1, %if.then.i.i.i.i.i ]
  %_M_string_length.i23.i.i.i.i.i = getelementptr inbounds %"class.std::__cxx11::basic_string", ptr %5, i64 0, i32 1
  store i64 %11, ptr %_M_string_length.i23.i.i.i.i.i, align 8, !tbaa !10
  %12 = load ptr, ptr %_M_finish.i.i, align 8, !tbaa !19
  %incdec.ptr.i.i = getelementptr inbounds %"class.std::__cxx11::basic_string", ptr %12, i64 1
  store ptr %incdec.ptr.i.i, ptr %_M_finish.i.i, align 8, !tbaa !19
  br label %_ZNSt7__cxx1112basic_stringIcSt11char_traitsIcESaIcEED2Ev.exit

if.else.i.i:                                      ; preds = %call2.i9.i.noexc
  invoke void @_ZNSt6vectorINSt7__cxx1112basic_stringIcSt11char_traitsIcESaIcEEESaIS5_EE17_M_realloc_insertIJS5_EEEvN9__gnu_cxx17__normal_iteratorIPS5_S7_EEDpOT_(ptr noundef nonnull align 8 dereferenceable(24) %value, ptr %5, ptr noundef nonnull align 8 dereferenceable(32) %ref.tmp)
          to label %invoke.cont8 unwind label %lpad7

invoke.cont8:                                     ; preds = %if.else.i.i
  %.pre41 = load ptr, ptr %ref.tmp, align 8, !tbaa !15
  %cmp.i.i.i = icmp eq ptr %.pre41, %2
  br i1 %cmp.i.i.i, label %_ZNSt7__cxx1112basic_stringIcSt11char_traitsIcESaIcEED2Ev.exit, label %if.then.i.i24

if.then.i.i24:                                    ; preds = %invoke.cont8
  call void @_ZdlPv(ptr noundef %.pre41) #17
  br label %_ZNSt7__cxx1112basic_stringIcSt11char_traitsIcESaIcEED2Ev.exit

_ZNSt7__cxx1112basic_stringIcSt11char_traitsIcESaIcEED2Ev.exit: ; preds = %invoke.cont8.thread, %invoke.cont8, %if.then.i.i24
  call void @llvm.lifetime.end.p0(i64 32, ptr nonnull %ref.tmp) #16
  %ndim = getelementptr inbounds %"class.PP::Variable", ptr %this, i64 0, i32 2
  store i32 -1, ptr %ndim, align 8, !tbaa !20
  %lnum_ndim = getelementptr inbounds %"class.PP::Variable", ptr %this, i64 0, i32 4
  store i32 0, ptr %lnum_ndim, align 8, !tbaa !31
  %lnum_bounds = getelementptr inbounds %"class.PP::Variable", ptr %this, i64 0, i32 3
  store i32 0, ptr %lnum_bounds, align 4, !tbaa !32
  %pre_defined = getelementptr inbounds %"class.PP::Variable", ptr %this, i64 0, i32 6
  store i8 0, ptr %pre_defined, align 8, !tbaa !33
  %13 = load i64, ptr %_M_string_length.i.i.i19, align 8, !tbaa !10
  %call3.i.i27 = invoke noundef nonnull align 8 dereferenceable(32) ptr @_ZNSt7__cxx1112basic_stringIcSt11char_traitsIcESaIcEE10_M_replaceEmmPKcm(ptr noundef nonnull align 8 dereferenceable(32) %description, i64 noundef 0, i64 noundef %13, ptr noundef nonnull @.str.2, i64 noundef 0)
          to label %invoke.cont12 unwind label %lpad

invoke.cont12:                                    ; preds = %_ZNSt7__cxx1112basic_stringIcSt11char_traitsIcESaIcEED2Ev.exit
  %temporary = getelementptr inbounds %"class.PP::Variable", ptr %this, i64 0, i32 7
  store i8 0, ptr %temporary, align 1, !tbaa !34
  ret void

lpad:                                             ; preds = %_ZNSt7__cxx1112basic_stringIcSt11char_traitsIcESaIcEED2Ev.exit, %entry
  %14 = landingpad { ptr, i32 }
          cleanup
  br label %ehcleanup14

lpad5:                                            ; preds = %invoke.cont
  %15 = landingpad { ptr, i32 }
          cleanup
  br label %ehcleanup

lpad7:                                            ; preds = %if.else.i.i
  %16 = landingpad { ptr, i32 }
          cleanup
  %17 = load ptr, ptr %ref.tmp, align 8, !tbaa !15
  %cmp.i.i.i29 = icmp eq ptr %17, %2
  br i1 %cmp.i.i.i29, label %ehcleanup, label %if.then.i.i30

if.then.i.i30:                                    ; preds = %lpad7
  call void @_ZdlPv(ptr noundef %17) #17
  br label %ehcleanup

ehcleanup:                                        ; preds = %if.then.i.i30, %lpad7, %lpad5
  %.pn = phi { ptr, i32 } [ %15, %lpad5 ], [ %16, %lpad7 ], [ %16, %if.then.i.i30 ]
  call void @llvm.lifetime.end.p0(i64 32, ptr nonnull %ref.tmp) #16
  br label %ehcleanup14

ehcleanup14:                                      ; preds = %ehcleanup, %lpad
  %.pn38 = phi { ptr, i32 } [ %14, %lpad ], [ %.pn, %ehcleanup ]
  %18 = load ptr, ptr %description, align 8, !tbaa !15
  %cmp.i.i.i32 = icmp eq ptr %18, %1
  br i1 %cmp.i.i.i32, label %_ZNSt7__cxx1112basic_stringIcSt11char_traitsIcESaIcEED2Ev.exit34, label %if.then.i.i33

if.then.i.i33:                                    ; preds = %ehcleanup14
  call void @_ZdlPv(ptr noundef %18) #17
  br label %_ZNSt7__cxx1112basic_stringIcSt11char_traitsIcESaIcEED2Ev.exit34

_ZNSt7__cxx1112basic_stringIcSt11char_traitsIcESaIcEED2Ev.exit34: ; preds = %ehcleanup14, %if.then.i.i33
  %19 = load ptr, ptr %maxdim, align 8, !tbaa !35
  %tobool.not.i.i.i = icmp eq ptr %19, null
  br i1 %tobool.not.i.i.i, label %_ZNSt6vectorIiSaIiEED2Ev.exit, label %if.then.i.i.i

if.then.i.i.i:                                    ; preds = %_ZNSt7__cxx1112basic_stringIcSt11char_traitsIcESaIcEED2Ev.exit34
  call void @_ZdlPv(ptr noundef nonnull %19) #17
  br label %_ZNSt6vectorIiSaIiEED2Ev.exit

_ZNSt6vectorIiSaIiEED2Ev.exit:                    ; preds = %_ZNSt7__cxx1112basic_stringIcSt11char_traitsIcESaIcEED2Ev.exit34, %if.then.i.i.i
  call void @_ZNSt6vectorINSt7__cxx1112basic_stringIcSt11char_traitsIcESaIcEEESaIS5_EED2Ev(ptr noundef nonnull align 8 dereferenceable(24) %value) #16
  %20 = load ptr, ptr %this, align 8, !tbaa !15
  %cmp.i.i.i35 = icmp eq ptr %20, %0
  br i1 %cmp.i.i.i35, label %_ZNSt7__cxx1112basic_stringIcSt11char_traitsIcESaIcEED2Ev.exit37, label %if.then.i.i36

if.then.i.i36:                                    ; preds = %_ZNSt6vectorIiSaIiEED2Ev.exit
  call void @_ZdlPv(ptr noundef %20) #17
  br label %_ZNSt7__cxx1112basic_stringIcSt11char_traitsIcESaIcEED2Ev.exit37

_ZNSt7__cxx1112basic_stringIcSt11char_traitsIcESaIcEED2Ev.exit37: ; preds = %_ZNSt6vectorIiSaIiEED2Ev.exit, %if.then.i.i36
  resume { ptr, i32 } %.pn38
}

declare i32 @__gxx_personality_v0(...)

; Function Attrs: mustprogress nocallback nofree nosync nounwind willreturn memory(argmem: readwrite)
declare void @llvm.lifetime.start.p0(i64 immarg, ptr nocapture) #4

; Function Attrs: mustprogress nocallback nofree nosync nounwind willreturn memory(argmem: readwrite)
declare void @llvm.lifetime.end.p0(i64 immarg, ptr nocapture) #4

; Function Attrs: nounwind uwtable
define linkonce_odr dso_local void @_ZNSt6vectorINSt7__cxx1112basic_stringIcSt11char_traitsIcESaIcEEESaIS5_EED2Ev(ptr noundef nonnull align 8 dereferenceable(24) %this) unnamed_addr #5 comdat align 2 personality ptr @__gxx_personality_v0 {
entry:
  %0 = load ptr, ptr %this, align 8, !tbaa !36
  %_M_finish = getelementptr inbounds %"struct.std::_Vector_base<std::__cxx11::basic_string<char>, std::allocator<std::__cxx11::basic_string<char>>>::_Vector_impl_data", ptr %this, i64 0, i32 1
  %1 = load ptr, ptr %_M_finish, align 8, !tbaa !19
  %cmp.not3.i.i.i = icmp eq ptr %0, %1
  br i1 %cmp.not3.i.i.i, label %invoke.cont, label %for.body.i.i.i

for.body.i.i.i:                                   ; preds = %entry, %_ZSt8_DestroyINSt7__cxx1112basic_stringIcSt11char_traitsIcESaIcEEEEvPT_.exit.i.i.i
  %__first.addr.04.i.i.i = phi ptr [ %incdec.ptr.i.i.i, %_ZSt8_DestroyINSt7__cxx1112basic_stringIcSt11char_traitsIcESaIcEEEEvPT_.exit.i.i.i ], [ %0, %entry ]
  %2 = load ptr, ptr %__first.addr.04.i.i.i, align 8, !tbaa !15
  %3 = getelementptr inbounds %"class.std::__cxx11::basic_string", ptr %__first.addr.04.i.i.i, i64 0, i32 2
  %cmp.i.i.i.i.i.i.i = icmp eq ptr %2, %3
  br i1 %cmp.i.i.i.i.i.i.i, label %_ZSt8_DestroyINSt7__cxx1112basic_stringIcSt11char_traitsIcESaIcEEEEvPT_.exit.i.i.i, label %if.then.i.i.i.i.i.i

if.then.i.i.i.i.i.i:                              ; preds = %for.body.i.i.i
  tail call void @_ZdlPv(ptr noundef %2) #17
  br label %_ZSt8_DestroyINSt7__cxx1112basic_stringIcSt11char_traitsIcESaIcEEEEvPT_.exit.i.i.i

_ZSt8_DestroyINSt7__cxx1112basic_stringIcSt11char_traitsIcESaIcEEEEvPT_.exit.i.i.i: ; preds = %if.then.i.i.i.i.i.i, %for.body.i.i.i
  %incdec.ptr.i.i.i = getelementptr inbounds %"class.std::__cxx11::basic_string", ptr %__first.addr.04.i.i.i, i64 1
  %cmp.not.i.i.i = icmp eq ptr %incdec.ptr.i.i.i, %1
  br i1 %cmp.not.i.i.i, label %invoke.contthread-pre-split, label %for.body.i.i.i, !llvm.loop !37

invoke.contthread-pre-split:                      ; preds = %_ZSt8_DestroyINSt7__cxx1112basic_stringIcSt11char_traitsIcESaIcEEEEvPT_.exit.i.i.i
  %.pr = load ptr, ptr %this, align 8, !tbaa !36
  br label %invoke.cont

invoke.cont:                                      ; preds = %invoke.contthread-pre-split, %entry
  %4 = phi ptr [ %.pr, %invoke.contthread-pre-split ], [ %0, %entry ]
  %tobool.not.i.i = icmp eq ptr %4, null
  br i1 %tobool.not.i.i, label %_ZNSt12_Vector_baseINSt7__cxx1112basic_stringIcSt11char_traitsIcESaIcEEESaIS5_EED2Ev.exit, label %if.then.i.i

if.then.i.i:                                      ; preds = %invoke.cont
  tail call void @_ZdlPv(ptr noundef nonnull %4) #17
  br label %_ZNSt12_Vector_baseINSt7__cxx1112basic_stringIcSt11char_traitsIcESaIcEEESaIS5_EED2Ev.exit

_ZNSt12_Vector_baseINSt7__cxx1112basic_stringIcSt11char_traitsIcESaIcEEESaIS5_EED2Ev.exit: ; preds = %invoke.cont, %if.then.i.i
  ret void
}

; Function Attrs: mustprogress nofree nosync nounwind willreturn memory(write, inaccessiblemem: none) uwtable
define dso_local void @_ZN2PP8VariableC2Ei(ptr noundef nonnull align 8 dereferenceable(136) %this, i32 noundef %base) unnamed_addr #6 align 2 personality ptr @__gxx_personality_v0 {
entry:
  %0 = getelementptr inbounds %"class.std::__cxx11::basic_string", ptr %this, i64 0, i32 2
  store ptr %0, ptr %this, align 8, !tbaa !5
  %_M_string_length.i.i.i = getelementptr inbounds %"class.std::__cxx11::basic_string", ptr %this, i64 0, i32 1
  store i64 0, ptr %_M_string_length.i.i.i, align 8, !tbaa !10
  store i8 0, ptr %0, align 8, !tbaa !13
  %value = getelementptr inbounds %"class.PP::Variable", ptr %this, i64 0, i32 1
  tail call void @llvm.memset.p0.i64(ptr noundef nonnull align 8 dereferenceable(24) %value, i8 0, i64 24, i1 false)
  %maxdim = getelementptr inbounds %"class.PP::Variable", ptr %this, i64 0, i32 5
  tail call void @llvm.memset.p0.i64(ptr noundef nonnull align 8 dereferenceable(24) %maxdim, i8 0, i64 24, i1 false)
  %description = getelementptr inbounds %"class.PP::Variable", ptr %this, i64 0, i32 8
  %1 = getelementptr inbounds %"class.PP::Variable", ptr %this, i64 0, i32 8, i32 2
  store ptr %1, ptr %description, align 8, !tbaa !5
  %_M_string_length.i.i.i2 = getelementptr inbounds %"class.PP::Variable", ptr %this, i64 0, i32 8, i32 1
  store i64 0, ptr %_M_string_length.i.i.i2, align 8, !tbaa !10
  store i8 0, ptr %1, align 8, !tbaa !13
  store i32 %base, ptr @_ZN2PPL10index_baseE, align 4, !tbaa !39
  ret void
}

; Function Attrs: uwtable
define dso_local void @_ZN2PP8VariableC2ENSt7__cxx1112basic_stringIcSt11char_traitsIcESaIcEEES6_bS6_(ptr noundef nonnull align 8 dereferenceable(136) %this, ptr noundef nonnull %nme, ptr noundef %v, i1 noundef zeroext %pred, ptr noundef %tdes) unnamed_addr #3 align 2 personality ptr @__gxx_personality_v0 {
entry:
  %__dnew.i.i.i.i.i = alloca i64, align 8
  %frombool = zext i1 %pred to i8
  %0 = getelementptr inbounds %"class.std::__cxx11::basic_string", ptr %this, i64 0, i32 2
  store ptr %0, ptr %this, align 8, !tbaa !5
  %_M_string_length.i.i.i = getelementptr inbounds %"class.std::__cxx11::basic_string", ptr %this, i64 0, i32 1
  store i64 0, ptr %_M_string_length.i.i.i, align 8, !tbaa !10
  store i8 0, ptr %0, align 8, !tbaa !13
  %value = getelementptr inbounds %"class.PP::Variable", ptr %this, i64 0, i32 1
  tail call void @llvm.memset.p0.i64(ptr noundef nonnull align 8 dereferenceable(24) %value, i8 0, i64 24, i1 false)
  %maxdim = getelementptr inbounds %"class.PP::Variable", ptr %this, i64 0, i32 5
  tail call void @llvm.memset.p0.i64(ptr noundef nonnull align 8 dereferenceable(24) %maxdim, i8 0, i64 24, i1 false)
  %description = getelementptr inbounds %"class.PP::Variable", ptr %this, i64 0, i32 8
  %1 = getelementptr inbounds %"class.PP::Variable", ptr %this, i64 0, i32 8, i32 2
  store ptr %1, ptr %description, align 8, !tbaa !5
  %_M_string_length.i.i.i10 = getelementptr inbounds %"class.PP::Variable", ptr %this, i64 0, i32 8, i32 1
  store i64 0, ptr %_M_string_length.i.i.i10, align 8, !tbaa !10
  store i8 0, ptr %1, align 8, !tbaa !13
  invoke void @_ZNSt7__cxx1112basic_stringIcSt11char_traitsIcESaIcEE9_M_assignERKS4_(ptr noundef nonnull align 8 dereferenceable(32) %this, ptr noundef nonnull align 8 dereferenceable(32) %nme)
          to label %invoke.cont unwind label %lpad

invoke.cont:                                      ; preds = %entry
  %_M_finish.i = getelementptr inbounds %"class.PP::Variable", ptr %this, i64 0, i32 1, i32 0, i32 0, i32 0, i32 1
  %2 = load ptr, ptr %_M_finish.i, align 8, !tbaa !16
  %_M_end_of_storage.i = getelementptr inbounds %"class.PP::Variable", ptr %this, i64 0, i32 1, i32 0, i32 0, i32 0, i32 2
  %3 = load ptr, ptr %_M_end_of_storage.i, align 8, !tbaa !17
  %cmp.not.i = icmp eq ptr %2, %3
  br i1 %cmp.not.i, label %if.else.i, label %if.then.i

if.then.i:                                        ; preds = %invoke.cont
  %4 = getelementptr inbounds %"class.std::__cxx11::basic_string", ptr %2, i64 0, i32 2
  store ptr %4, ptr %2, align 8, !tbaa !5
  %5 = load ptr, ptr %v, align 8, !tbaa !15
  %_M_string_length.i.i.i.i.i = getelementptr inbounds %"class.std::__cxx11::basic_string", ptr %v, i64 0, i32 1
  %6 = load i64, ptr %_M_string_length.i.i.i.i.i, align 8, !tbaa !10
  call void @llvm.lifetime.start.p0(i64 8, ptr nonnull %__dnew.i.i.i.i.i) #16
  store i64 %6, ptr %__dnew.i.i.i.i.i, align 8, !tbaa !14
  %cmp.i.i.i.i.i = icmp ugt i64 %6, 15
  br i1 %cmp.i.i.i.i.i, label %if.then.i.i.i.i.i, label %if.end.i.i.i.i.i

if.then.i.i.i.i.i:                                ; preds = %if.then.i
  %call2.i12.i.i.i.i11 = invoke noundef ptr @_ZNSt7__cxx1112basic_stringIcSt11char_traitsIcESaIcEE9_M_createERmm(ptr noundef nonnull align 8 dereferenceable(32) %2, ptr noundef nonnull align 8 dereferenceable(8) %__dnew.i.i.i.i.i, i64 noundef 0)
          to label %call2.i12.i.i.i.i.noexc unwind label %lpad

call2.i12.i.i.i.i.noexc:                          ; preds = %if.then.i.i.i.i.i
  store ptr %call2.i12.i.i.i.i11, ptr %2, align 8, !tbaa !15
  %7 = load i64, ptr %__dnew.i.i.i.i.i, align 8, !tbaa !14
  store i64 %7, ptr %4, align 8, !tbaa !13
  br label %if.end.i.i.i.i.i

if.end.i.i.i.i.i:                                 ; preds = %call2.i12.i.i.i.i.noexc, %if.then.i
  %8 = phi ptr [ %call2.i12.i.i.i.i11, %call2.i12.i.i.i.i.noexc ], [ %4, %if.then.i ]
  switch i64 %6, label %if.end.i.i.i.i.i.i.i.i [
    i64 1, label %if.then.i.i.i.i.i.i.i
    i64 0, label %_ZNSt16allocator_traitsISaINSt7__cxx1112basic_stringIcSt11char_traitsIcESaIcEEEEE9constructIS5_JRKS5_EEEvRS6_PT_DpOT0_.exit.i
  ]

if.then.i.i.i.i.i.i.i:                            ; preds = %if.end.i.i.i.i.i
  %9 = load i8, ptr %5, align 1, !tbaa !13
  store i8 %9, ptr %8, align 1, !tbaa !13
  br label %_ZNSt16allocator_traitsISaINSt7__cxx1112basic_stringIcSt11char_traitsIcESaIcEEEEE9constructIS5_JRKS5_EEEvRS6_PT_DpOT0_.exit.i

if.end.i.i.i.i.i.i.i.i:                           ; preds = %if.end.i.i.i.i.i
  call void @llvm.memcpy.p0.p0.i64(ptr align 1 %8, ptr align 1 %5, i64 %6, i1 false)
  br label %_ZNSt16allocator_traitsISaINSt7__cxx1112basic_stringIcSt11char_traitsIcESaIcEEEEE9constructIS5_JRKS5_EEEvRS6_PT_DpOT0_.exit.i

_ZNSt16allocator_traitsISaINSt7__cxx1112basic_stringIcSt11char_traitsIcESaIcEEEEE9constructIS5_JRKS5_EEEvRS6_PT_DpOT0_.exit.i: ; preds = %if.end.i.i.i.i.i.i.i.i, %if.then.i.i.i.i.i.i.i, %if.end.i.i.i.i.i
  %10 = load i64, ptr %__dnew.i.i.i.i.i, align 8, !tbaa !14
  %_M_string_length.i.i.i.i.i.i.i = getelementptr inbounds %"class.std::__cxx11::basic_string", ptr %2, i64 0, i32 1
  store i64 %10, ptr %_M_string_length.i.i.i.i.i.i.i, align 8, !tbaa !10
  %11 = load ptr, ptr %2, align 8, !tbaa !15
  %arrayidx.i.i.i.i.i.i = getelementptr inbounds i8, ptr %11, i64 %10
  store i8 0, ptr %arrayidx.i.i.i.i.i.i, align 1, !tbaa !13
  call void @llvm.lifetime.end.p0(i64 8, ptr nonnull %__dnew.i.i.i.i.i) #16
  %12 = load ptr, ptr %_M_finish.i, align 8, !tbaa !19
  %incdec.ptr.i = getelementptr inbounds %"class.std::__cxx11::basic_string", ptr %12, i64 1
  store ptr %incdec.ptr.i, ptr %_M_finish.i, align 8, !tbaa !19
  br label %invoke.cont4

if.else.i:                                        ; preds = %invoke.cont
  invoke void @_ZNSt6vectorINSt7__cxx1112basic_stringIcSt11char_traitsIcESaIcEEESaIS5_EE17_M_realloc_insertIJRKS5_EEEvN9__gnu_cxx17__normal_iteratorIPS5_S7_EEDpOT_(ptr noundef nonnull align 8 dereferenceable(24) %value, ptr %2, ptr noundef nonnull align 8 dereferenceable(32) %v)
          to label %invoke.cont4 unwind label %lpad

invoke.cont4:                                     ; preds = %_ZNSt16allocator_traitsISaINSt7__cxx1112basic_stringIcSt11char_traitsIcESaIcEEEEE9constructIS5_JRKS5_EEEvRS6_PT_DpOT0_.exit.i, %if.else.i
  %ndim = getelementptr inbounds %"class.PP::Variable", ptr %this, i64 0, i32 2
  store i32 0, ptr %ndim, align 8, !tbaa !20
  %lnum_ndim = getelementptr inbounds %"class.PP::Variable", ptr %this, i64 0, i32 4
  store i32 0, ptr %lnum_ndim, align 8, !tbaa !31
  %lnum_bounds = getelementptr inbounds %"class.PP::Variable", ptr %this, i64 0, i32 3
  store i32 0, ptr %lnum_bounds, align 4, !tbaa !32
  %pre_defined = getelementptr inbounds %"class.PP::Variable", ptr %this, i64 0, i32 6
  store i8 %frombool, ptr %pre_defined, align 8, !tbaa !33
  invoke void @_ZNSt7__cxx1112basic_stringIcSt11char_traitsIcESaIcEE9_M_assignERKS4_(ptr noundef nonnull align 8 dereferenceable(32) %description, ptr noundef nonnull align 8 dereferenceable(32) %tdes)
          to label %invoke.cont7 unwind label %lpad

invoke.cont7:                                     ; preds = %invoke.cont4
  %temporary = getelementptr inbounds %"class.PP::Variable", ptr %this, i64 0, i32 7
  store i8 0, ptr %temporary, align 1, !tbaa !34
  ret void

lpad:                                             ; preds = %invoke.cont4, %if.else.i, %if.then.i.i.i.i.i, %entry
  %13 = landingpad { ptr, i32 }
          cleanup
  %14 = load ptr, ptr %description, align 8, !tbaa !15
  %cmp.i.i.i = icmp eq ptr %14, %1
  br i1 %cmp.i.i.i, label %_ZNSt7__cxx1112basic_stringIcSt11char_traitsIcESaIcEED2Ev.exit, label %if.then.i.i

if.then.i.i:                                      ; preds = %lpad
  call void @_ZdlPv(ptr noundef %14) #17
  br label %_ZNSt7__cxx1112basic_stringIcSt11char_traitsIcESaIcEED2Ev.exit

_ZNSt7__cxx1112basic_stringIcSt11char_traitsIcESaIcEED2Ev.exit: ; preds = %lpad, %if.then.i.i
  %15 = load ptr, ptr %maxdim, align 8, !tbaa !35
  %tobool.not.i.i.i = icmp eq ptr %15, null
  br i1 %tobool.not.i.i.i, label %_ZNSt6vectorIiSaIiEED2Ev.exit, label %if.then.i.i.i

if.then.i.i.i:                                    ; preds = %_ZNSt7__cxx1112basic_stringIcSt11char_traitsIcESaIcEED2Ev.exit
  call void @_ZdlPv(ptr noundef nonnull %15) #17
  br label %_ZNSt6vectorIiSaIiEED2Ev.exit

_ZNSt6vectorIiSaIiEED2Ev.exit:                    ; preds = %_ZNSt7__cxx1112basic_stringIcSt11char_traitsIcESaIcEED2Ev.exit, %if.then.i.i.i
  call void @_ZNSt6vectorINSt7__cxx1112basic_stringIcSt11char_traitsIcESaIcEEESaIS5_EED2Ev(ptr noundef nonnull align 8 dereferenceable(24) %value) #16
  %16 = load ptr, ptr %this, align 8, !tbaa !15
  %cmp.i.i.i14 = icmp eq ptr %16, %0
  br i1 %cmp.i.i.i14, label %_ZNSt7__cxx1112basic_stringIcSt11char_traitsIcESaIcEED2Ev.exit16, label %if.then.i.i15

if.then.i.i15:                                    ; preds = %_ZNSt6vectorIiSaIiEED2Ev.exit
  call void @_ZdlPv(ptr noundef %16) #17
  br label %_ZNSt7__cxx1112basic_stringIcSt11char_traitsIcESaIcEED2Ev.exit16

_ZNSt7__cxx1112basic_stringIcSt11char_traitsIcESaIcEED2Ev.exit16: ; preds = %_ZNSt6vectorIiSaIiEED2Ev.exit, %if.then.i.i15
  resume { ptr, i32 } %13
}

; Function Attrs: uwtable
define dso_local void @_ZN2PP8VariableC2ENSt7__cxx1112basic_stringIcSt11char_traitsIcESaIcEEE(ptr noundef nonnull align 8 dereferenceable(136) %this, ptr noundef nonnull %nme) unnamed_addr #3 align 2 personality ptr @__gxx_personality_v0 {
entry:
  %__dnew.i.i = alloca i64, align 8
  %ref.tmp = alloca %"class.std::__cxx11::basic_string", align 8
  %0 = getelementptr inbounds %"class.std::__cxx11::basic_string", ptr %this, i64 0, i32 2
  store ptr %0, ptr %this, align 8, !tbaa !5
  %_M_string_length.i.i.i = getelementptr inbounds %"class.std::__cxx11::basic_string", ptr %this, i64 0, i32 1
  store i64 0, ptr %_M_string_length.i.i.i, align 8, !tbaa !10
  store i8 0, ptr %0, align 8, !tbaa !13
  %value = getelementptr inbounds %"class.PP::Variable", ptr %this, i64 0, i32 1
  tail call void @llvm.memset.p0.i64(ptr noundef nonnull align 8 dereferenceable(24) %value, i8 0, i64 24, i1 false)
  %maxdim = getelementptr inbounds %"class.PP::Variable", ptr %this, i64 0, i32 5
  tail call void @llvm.memset.p0.i64(ptr noundef nonnull align 8 dereferenceable(24) %maxdim, i8 0, i64 24, i1 false)
  %description = getelementptr inbounds %"class.PP::Variable", ptr %this, i64 0, i32 8
  %1 = getelementptr inbounds %"class.PP::Variable", ptr %this, i64 0, i32 8, i32 2
  store ptr %1, ptr %description, align 8, !tbaa !5
  %_M_string_length.i.i.i19 = getelementptr inbounds %"class.PP::Variable", ptr %this, i64 0, i32 8, i32 1
  store i64 0, ptr %_M_string_length.i.i.i19, align 8, !tbaa !10
  store i8 0, ptr %1, align 8, !tbaa !13
  invoke void @_ZNSt7__cxx1112basic_stringIcSt11char_traitsIcESaIcEE9_M_assignERKS4_(ptr noundef nonnull align 8 dereferenceable(32) %this, ptr noundef nonnull align 8 dereferenceable(32) %nme)
          to label %invoke.cont unwind label %lpad

invoke.cont:                                      ; preds = %entry
  call void @llvm.lifetime.start.p0(i64 32, ptr nonnull %ref.tmp) #16
  %2 = getelementptr inbounds %"class.std::__cxx11::basic_string", ptr %ref.tmp, i64 0, i32 2
  store ptr %2, ptr %ref.tmp, align 8, !tbaa !5
  call void @llvm.lifetime.start.p0(i64 8, ptr nonnull %__dnew.i.i) #16
  store i64 18, ptr %__dnew.i.i, align 8, !tbaa !14
  %call2.i9.i20 = invoke noundef ptr @_ZNSt7__cxx1112basic_stringIcSt11char_traitsIcESaIcEE9_M_createERmm(ptr noundef nonnull align 8 dereferenceable(32) %ref.tmp, ptr noundef nonnull align 8 dereferenceable(8) %__dnew.i.i, i64 noundef 0)
          to label %call2.i9.i.noexc unwind label %lpad5

call2.i9.i.noexc:                                 ; preds = %invoke.cont
  store ptr %call2.i9.i20, ptr %ref.tmp, align 8, !tbaa !15
  %3 = load i64, ptr %__dnew.i.i, align 8, !tbaa !14
  store i64 %3, ptr %2, align 8, !tbaa !13
  call void @llvm.memcpy.p0.p0.i64(ptr noundef nonnull align 1 dereferenceable(18) %call2.i9.i20, ptr noundef nonnull align 1 dereferenceable(18) @.str.1, i64 18, i1 false)
  %_M_string_length.i.i.i.i = getelementptr inbounds %"class.std::__cxx11::basic_string", ptr %ref.tmp, i64 0, i32 1
  store i64 %3, ptr %_M_string_length.i.i.i.i, align 8, !tbaa !10
  %4 = load ptr, ptr %ref.tmp, align 8, !tbaa !15
  %arrayidx.i.i.i = getelementptr inbounds i8, ptr %4, i64 %3
  store i8 0, ptr %arrayidx.i.i.i, align 1, !tbaa !13
  call void @llvm.lifetime.end.p0(i64 8, ptr nonnull %__dnew.i.i) #16
  %_M_finish.i.i = getelementptr inbounds %"class.PP::Variable", ptr %this, i64 0, i32 1, i32 0, i32 0, i32 0, i32 1
  %5 = load ptr, ptr %_M_finish.i.i, align 8, !tbaa !16
  %_M_end_of_storage.i.i = getelementptr inbounds %"class.PP::Variable", ptr %this, i64 0, i32 1, i32 0, i32 0, i32 0, i32 2
  %6 = load ptr, ptr %_M_end_of_storage.i.i, align 8, !tbaa !17
  %cmp.not.i.i = icmp eq ptr %5, %6
  br i1 %cmp.not.i.i, label %if.else.i.i, label %if.then.i.i21

if.then.i.i21:                                    ; preds = %call2.i9.i.noexc
  %7 = getelementptr inbounds %"class.std::__cxx11::basic_string", ptr %5, i64 0, i32 2
  store ptr %7, ptr %5, align 8, !tbaa !5
  %8 = load ptr, ptr %ref.tmp, align 8, !tbaa !15
  %cmp.i.i.i.i.i.i = icmp eq ptr %8, %2
  br i1 %cmp.i.i.i.i.i.i, label %if.then.i.i.i.i.i, label %if.else.i.i.i.i.i

if.then.i.i.i.i.i:                                ; preds = %if.then.i.i21
  %9 = load i64, ptr %_M_string_length.i.i.i.i, align 8, !tbaa !10
  %add.i.i.i.i.i = add i64 %9, 1
  %cmp.i21.i.i.i.i.i = icmp eq i64 %add.i.i.i.i.i, 0
  br i1 %cmp.i21.i.i.i.i.i, label %invoke.cont8.thread, label %if.end.i.i.i.i.i.i

if.end.i.i.i.i.i.i:                               ; preds = %if.then.i.i.i.i.i
  call void @llvm.memcpy.p0.p0.i64(ptr nonnull align 8 %7, ptr nonnull align 8 %2, i64 %add.i.i.i.i.i, i1 false)
  br label %invoke.cont8.thread

if.else.i.i.i.i.i:                                ; preds = %if.then.i.i21
  store ptr %8, ptr %5, align 8, !tbaa !15
  %10 = load i64, ptr %2, align 8, !tbaa !13
  store i64 %10, ptr %7, align 8, !tbaa !13
  %.pre = load i64, ptr %_M_string_length.i.i.i.i, align 8, !tbaa !10
  br label %invoke.cont8.thread

invoke.cont8.thread:                              ; preds = %if.then.i.i.i.i.i, %if.end.i.i.i.i.i.i, %if.else.i.i.i.i.i
  %11 = phi i64 [ %.pre, %if.else.i.i.i.i.i ], [ %9, %if.end.i.i.i.i.i.i ], [ -1, %if.then.i.i.i.i.i ]
  %_M_string_length.i23.i.i.i.i.i = getelementptr inbounds %"class.std::__cxx11::basic_string", ptr %5, i64 0, i32 1
  store i64 %11, ptr %_M_string_length.i23.i.i.i.i.i, align 8, !tbaa !10
  %12 = load ptr, ptr %_M_finish.i.i, align 8, !tbaa !19
  %incdec.ptr.i.i = getelementptr inbounds %"class.std::__cxx11::basic_string", ptr %12, i64 1
  store ptr %incdec.ptr.i.i, ptr %_M_finish.i.i, align 8, !tbaa !19
  br label %_ZNSt7__cxx1112basic_stringIcSt11char_traitsIcESaIcEED2Ev.exit

if.else.i.i:                                      ; preds = %call2.i9.i.noexc
  invoke void @_ZNSt6vectorINSt7__cxx1112basic_stringIcSt11char_traitsIcESaIcEEESaIS5_EE17_M_realloc_insertIJS5_EEEvN9__gnu_cxx17__normal_iteratorIPS5_S7_EEDpOT_(ptr noundef nonnull align 8 dereferenceable(24) %value, ptr %5, ptr noundef nonnull align 8 dereferenceable(32) %ref.tmp)
          to label %invoke.cont8 unwind label %lpad7

invoke.cont8:                                     ; preds = %if.else.i.i
  %.pre37 = load ptr, ptr %ref.tmp, align 8, !tbaa !15
  %cmp.i.i.i = icmp eq ptr %.pre37, %2
  br i1 %cmp.i.i.i, label %_ZNSt7__cxx1112basic_stringIcSt11char_traitsIcESaIcEED2Ev.exit, label %if.then.i.i22

if.then.i.i22:                                    ; preds = %invoke.cont8
  call void @_ZdlPv(ptr noundef %.pre37) #17
  br label %_ZNSt7__cxx1112basic_stringIcSt11char_traitsIcESaIcEED2Ev.exit

_ZNSt7__cxx1112basic_stringIcSt11char_traitsIcESaIcEED2Ev.exit: ; preds = %invoke.cont8.thread, %invoke.cont8, %if.then.i.i22
  call void @llvm.lifetime.end.p0(i64 32, ptr nonnull %ref.tmp) #16
  %ndim = getelementptr inbounds %"class.PP::Variable", ptr %this, i64 0, i32 2
  store i32 -1, ptr %ndim, align 8, !tbaa !20
  %lnum_ndim = getelementptr inbounds %"class.PP::Variable", ptr %this, i64 0, i32 4
  store i32 0, ptr %lnum_ndim, align 8, !tbaa !31
  %lnum_bounds = getelementptr inbounds %"class.PP::Variable", ptr %this, i64 0, i32 3
  store i32 0, ptr %lnum_bounds, align 4, !tbaa !32
  %pre_defined = getelementptr inbounds %"class.PP::Variable", ptr %this, i64 0, i32 6
  store i8 0, ptr %pre_defined, align 8, !tbaa !33
  %13 = load i64, ptr %_M_string_length.i.i.i19, align 8, !tbaa !10
  %call3.i.i24 = invoke noundef nonnull align 8 dereferenceable(32) ptr @_ZNSt7__cxx1112basic_stringIcSt11char_traitsIcESaIcEE10_M_replaceEmmPKcm(ptr noundef nonnull align 8 dereferenceable(32) %description, i64 noundef 0, i64 noundef %13, ptr noundef nonnull @.str.2, i64 noundef 0)
          to label %invoke.cont12 unwind label %lpad

invoke.cont12:                                    ; preds = %_ZNSt7__cxx1112basic_stringIcSt11char_traitsIcESaIcEED2Ev.exit
  %temporary = getelementptr inbounds %"class.PP::Variable", ptr %this, i64 0, i32 7
  store i8 0, ptr %temporary, align 1, !tbaa !34
  ret void

lpad:                                             ; preds = %_ZNSt7__cxx1112basic_stringIcSt11char_traitsIcESaIcEED2Ev.exit, %entry
  %14 = landingpad { ptr, i32 }
          cleanup
  br label %ehcleanup14

lpad5:                                            ; preds = %invoke.cont
  %15 = landingpad { ptr, i32 }
          cleanup
  br label %ehcleanup

lpad7:                                            ; preds = %if.else.i.i
  %16 = landingpad { ptr, i32 }
          cleanup
  %17 = load ptr, ptr %ref.tmp, align 8, !tbaa !15
  %cmp.i.i.i25 = icmp eq ptr %17, %2
  br i1 %cmp.i.i.i25, label %ehcleanup, label %if.then.i.i26

if.then.i.i26:                                    ; preds = %lpad7
  call void @_ZdlPv(ptr noundef %17) #17
  br label %ehcleanup

ehcleanup:                                        ; preds = %if.then.i.i26, %lpad7, %lpad5
  %.pn = phi { ptr, i32 } [ %15, %lpad5 ], [ %16, %lpad7 ], [ %16, %if.then.i.i26 ]
  call void @llvm.lifetime.end.p0(i64 32, ptr nonnull %ref.tmp) #16
  br label %ehcleanup14

ehcleanup14:                                      ; preds = %ehcleanup, %lpad
  %.pn34 = phi { ptr, i32 } [ %14, %lpad ], [ %.pn, %ehcleanup ]
  %18 = load ptr, ptr %description, align 8, !tbaa !15
  %cmp.i.i.i28 = icmp eq ptr %18, %1
  br i1 %cmp.i.i.i28, label %_ZNSt7__cxx1112basic_stringIcSt11char_traitsIcESaIcEED2Ev.exit30, label %if.then.i.i29

if.then.i.i29:                                    ; preds = %ehcleanup14
  call void @_ZdlPv(ptr noundef %18) #17
  br label %_ZNSt7__cxx1112basic_stringIcSt11char_traitsIcESaIcEED2Ev.exit30

_ZNSt7__cxx1112basic_stringIcSt11char_traitsIcESaIcEED2Ev.exit30: ; preds = %ehcleanup14, %if.then.i.i29
  %19 = load ptr, ptr %maxdim, align 8, !tbaa !35
  %tobool.not.i.i.i = icmp eq ptr %19, null
  br i1 %tobool.not.i.i.i, label %_ZNSt6vectorIiSaIiEED2Ev.exit, label %if.then.i.i.i

if.then.i.i.i:                                    ; preds = %_ZNSt7__cxx1112basic_stringIcSt11char_traitsIcESaIcEED2Ev.exit30
  call void @_ZdlPv(ptr noundef nonnull %19) #17
  br label %_ZNSt6vectorIiSaIiEED2Ev.exit

_ZNSt6vectorIiSaIiEED2Ev.exit:                    ; preds = %_ZNSt7__cxx1112basic_stringIcSt11char_traitsIcESaIcEED2Ev.exit30, %if.then.i.i.i
  call void @_ZNSt6vectorINSt7__cxx1112basic_stringIcSt11char_traitsIcESaIcEEESaIS5_EED2Ev(ptr noundef nonnull align 8 dereferenceable(24) %value) #16
  %20 = load ptr, ptr %this, align 8, !tbaa !15
  %cmp.i.i.i31 = icmp eq ptr %20, %0
  br i1 %cmp.i.i.i31, label %_ZNSt7__cxx1112basic_stringIcSt11char_traitsIcESaIcEED2Ev.exit33, label %if.then.i.i32

if.then.i.i32:                                    ; preds = %_ZNSt6vectorIiSaIiEED2Ev.exit
  call void @_ZdlPv(ptr noundef %20) #17
  br label %_ZNSt7__cxx1112basic_stringIcSt11char_traitsIcESaIcEED2Ev.exit33

_ZNSt7__cxx1112basic_stringIcSt11char_traitsIcESaIcEED2Ev.exit33: ; preds = %_ZNSt6vectorIiSaIiEED2Ev.exit, %if.then.i.i32
  resume { ptr, i32 } %.pn34
}

; Function Attrs: uwtable
define dso_local void @_ZN2PP8VariableC2ENSt7__cxx1112basic_stringIcSt11char_traitsIcESaIcEEERSt6vectorIiSaIiEERS7_IS6_SaIS6_EEiiS6_PSt5dequeIS6_SB_ERNS1_18basic_stringstreamIcS4_S5_EERi(ptr noundef nonnull align 8 dereferenceable(136) %this, ptr noundef nonnull %nme, ptr noundef nonnull align 8 dereferenceable(24) %istart, ptr nocapture noundef nonnull readonly align 8 dereferenceable(24) %valvec, i32 noundef %lnum, i32 noundef %file_lnum, ptr nocapture noundef readonly %fname, ptr nocapture noundef readonly %lines, ptr noundef nonnull align 8 dereferenceable(128) %serr, ptr nocapture noundef nonnull writeonly align 4 dereferenceable(4) %ierr) unnamed_addr #3 align 2 personality ptr @__gxx_personality_v0 {
entry:
  %__dnew.i.i = alloca i64, align 8
  %agg.tmp = alloca %"class.std::__cxx11::basic_string", align 8
  %0 = getelementptr inbounds %"class.std::__cxx11::basic_string", ptr %this, i64 0, i32 2
  store ptr %0, ptr %this, align 8, !tbaa !5
  %_M_string_length.i.i.i = getelementptr inbounds %"class.std::__cxx11::basic_string", ptr %this, i64 0, i32 1
  store i64 0, ptr %_M_string_length.i.i.i, align 8, !tbaa !10
  store i8 0, ptr %0, align 8, !tbaa !13
  %value = getelementptr inbounds %"class.PP::Variable", ptr %this, i64 0, i32 1
  tail call void @llvm.memset.p0.i64(ptr noundef nonnull align 8 dereferenceable(24) %value, i8 0, i64 24, i1 false)
  %maxdim = getelementptr inbounds %"class.PP::Variable", ptr %this, i64 0, i32 5
  tail call void @llvm.memset.p0.i64(ptr noundef nonnull align 8 dereferenceable(24) %maxdim, i8 0, i64 24, i1 false)
  %description = getelementptr inbounds %"class.PP::Variable", ptr %this, i64 0, i32 8
  %1 = getelementptr inbounds %"class.PP::Variable", ptr %this, i64 0, i32 8, i32 2
  store ptr %1, ptr %description, align 8, !tbaa !5
  %_M_string_length.i.i.i13 = getelementptr inbounds %"class.PP::Variable", ptr %this, i64 0, i32 8, i32 1
  store i64 0, ptr %_M_string_length.i.i.i13, align 8, !tbaa !10
  store i8 0, ptr %1, align 8, !tbaa !13
  invoke void @_ZNSt7__cxx1112basic_stringIcSt11char_traitsIcESaIcEE9_M_assignERKS4_(ptr noundef nonnull align 8 dereferenceable(32) %this, ptr noundef nonnull align 8 dereferenceable(32) %nme)
          to label %invoke.cont unwind label %lpad

invoke.cont:                                      ; preds = %entry
  %ndim = getelementptr inbounds %"class.PP::Variable", ptr %this, i64 0, i32 2
  store i32 -1, ptr %ndim, align 8, !tbaa !20
  %lnum_ndim = getelementptr inbounds %"class.PP::Variable", ptr %this, i64 0, i32 4
  store i32 0, ptr %lnum_ndim, align 8, !tbaa !31
  %lnum_bounds = getelementptr inbounds %"class.PP::Variable", ptr %this, i64 0, i32 3
  store i32 0, ptr %lnum_bounds, align 4, !tbaa !32
  %pre_defined = getelementptr inbounds %"class.PP::Variable", ptr %this, i64 0, i32 6
  store i8 0, ptr %pre_defined, align 8, !tbaa !33
  %2 = load i64, ptr %_M_string_length.i.i.i13, align 8, !tbaa !10
  %call3.i.i15 = invoke noundef nonnull align 8 dereferenceable(32) ptr @_ZNSt7__cxx1112basic_stringIcSt11char_traitsIcESaIcEE10_M_replaceEmmPKcm(ptr noundef nonnull align 8 dereferenceable(32) %description, i64 noundef 0, i64 noundef %2, ptr noundef nonnull @.str.2, i64 noundef 0)
          to label %invoke.cont4 unwind label %lpad

invoke.cont4:                                     ; preds = %invoke.cont
  %temporary = getelementptr inbounds %"class.PP::Variable", ptr %this, i64 0, i32 7
  store i8 0, ptr %temporary, align 1, !tbaa !34
  %3 = getelementptr inbounds %"class.std::__cxx11::basic_string", ptr %agg.tmp, i64 0, i32 2
  store ptr %3, ptr %agg.tmp, align 8, !tbaa !5
  %4 = load ptr, ptr %fname, align 8, !tbaa !15
  %_M_string_length.i.i = getelementptr inbounds %"class.std::__cxx11::basic_string", ptr %fname, i64 0, i32 1
  %5 = load i64, ptr %_M_string_length.i.i, align 8, !tbaa !10
  call void @llvm.lifetime.start.p0(i64 8, ptr nonnull %__dnew.i.i) #16
  store i64 %5, ptr %__dnew.i.i, align 8, !tbaa !14
  %cmp.i.i = icmp ugt i64 %5, 15
  br i1 %cmp.i.i, label %if.then.i.i, label %if.end.i.i

if.then.i.i:                                      ; preds = %invoke.cont4
  %call2.i12.i16 = invoke noundef ptr @_ZNSt7__cxx1112basic_stringIcSt11char_traitsIcESaIcEE9_M_createERmm(ptr noundef nonnull align 8 dereferenceable(32) %agg.tmp, ptr noundef nonnull align 8 dereferenceable(8) %__dnew.i.i, i64 noundef 0)
          to label %call2.i12.i.noexc unwind label %lpad

call2.i12.i.noexc:                                ; preds = %if.then.i.i
  store ptr %call2.i12.i16, ptr %agg.tmp, align 8, !tbaa !15
  %6 = load i64, ptr %__dnew.i.i, align 8, !tbaa !14
  store i64 %6, ptr %3, align 8, !tbaa !13
  br label %if.end.i.i

if.end.i.i:                                       ; preds = %call2.i12.i.noexc, %invoke.cont4
  %7 = phi ptr [ %call2.i12.i16, %call2.i12.i.noexc ], [ %3, %invoke.cont4 ]
  switch i64 %5, label %if.end.i.i.i.i.i [
    i64 1, label %if.then.i.i.i.i
    i64 0, label %_ZNSt7__cxx1112basic_stringIcSt11char_traitsIcESaIcEEC2ERKS4_.exit
  ]

if.then.i.i.i.i:                                  ; preds = %if.end.i.i
  %8 = load i8, ptr %4, align 1, !tbaa !13
  store i8 %8, ptr %7, align 1, !tbaa !13
  br label %_ZNSt7__cxx1112basic_stringIcSt11char_traitsIcESaIcEEC2ERKS4_.exit

if.end.i.i.i.i.i:                                 ; preds = %if.end.i.i
  call void @llvm.memcpy.p0.p0.i64(ptr align 1 %7, ptr align 1 %4, i64 %5, i1 false)
  br label %_ZNSt7__cxx1112basic_stringIcSt11char_traitsIcESaIcEEC2ERKS4_.exit

_ZNSt7__cxx1112basic_stringIcSt11char_traitsIcESaIcEEC2ERKS4_.exit: ; preds = %if.end.i.i, %if.then.i.i.i.i, %if.end.i.i.i.i.i
  %9 = load i64, ptr %__dnew.i.i, align 8, !tbaa !14
  %_M_string_length.i.i.i.i = getelementptr inbounds %"class.std::__cxx11::basic_string", ptr %agg.tmp, i64 0, i32 1
  store i64 %9, ptr %_M_string_length.i.i.i.i, align 8, !tbaa !10
  %10 = load ptr, ptr %agg.tmp, align 8, !tbaa !15
  %arrayidx.i.i.i = getelementptr inbounds i8, ptr %10, i64 %9
  store i8 0, ptr %arrayidx.i.i.i, align 1, !tbaa !13
  call void @llvm.lifetime.end.p0(i64 8, ptr nonnull %__dnew.i.i) #16
  invoke void @_ZN2PP8Variable13set_var_valueERSt6vectorIiSaIiEERS1_INSt7__cxx1112basic_stringIcSt11char_traitsIcESaIcEEESaISA_EEiiSA_PSt5dequeISA_SB_ERNS5_18basic_stringstreamIcS8_S9_EERi(ptr noundef nonnull align 8 dereferenceable(136) %this, ptr noundef nonnull align 8 dereferenceable(24) %istart, ptr noundef nonnull align 8 dereferenceable(24) %valvec, i32 noundef %lnum, i32 noundef %file_lnum, ptr noundef nonnull %agg.tmp, ptr noundef %lines, ptr noundef nonnull align 8 dereferenceable(128) %serr, ptr noundef nonnull align 4 dereferenceable(4) %ierr)
          to label %invoke.cont8 unwind label %lpad7

invoke.cont8:                                     ; preds = %_ZNSt7__cxx1112basic_stringIcSt11char_traitsIcESaIcEEC2ERKS4_.exit
  %11 = load ptr, ptr %agg.tmp, align 8, !tbaa !15
  %cmp.i.i.i = icmp eq ptr %11, %3
  br i1 %cmp.i.i.i, label %_ZNSt7__cxx1112basic_stringIcSt11char_traitsIcESaIcEED2Ev.exit, label %if.then.i.i17

if.then.i.i17:                                    ; preds = %invoke.cont8
  call void @_ZdlPv(ptr noundef %11) #17
  br label %_ZNSt7__cxx1112basic_stringIcSt11char_traitsIcESaIcEED2Ev.exit

_ZNSt7__cxx1112basic_stringIcSt11char_traitsIcESaIcEED2Ev.exit: ; preds = %invoke.cont8, %if.then.i.i17
  ret void

lpad:                                             ; preds = %if.then.i.i, %invoke.cont, %entry
  %12 = landingpad { ptr, i32 }
          cleanup
  br label %ehcleanup

lpad7:                                            ; preds = %_ZNSt7__cxx1112basic_stringIcSt11char_traitsIcESaIcEEC2ERKS4_.exit
  %13 = landingpad { ptr, i32 }
          cleanup
  %14 = load ptr, ptr %agg.tmp, align 8, !tbaa !15
  %cmp.i.i.i18 = icmp eq ptr %14, %3
  br i1 %cmp.i.i.i18, label %ehcleanup, label %if.then.i.i19

if.then.i.i19:                                    ; preds = %lpad7
  call void @_ZdlPv(ptr noundef %14) #17
  br label %ehcleanup

ehcleanup:                                        ; preds = %if.then.i.i19, %lpad7, %lpad
  %.pn = phi { ptr, i32 } [ %12, %lpad ], [ %13, %lpad7 ], [ %13, %if.then.i.i19 ]
  %15 = load ptr, ptr %description, align 8, !tbaa !15
  %cmp.i.i.i21 = icmp eq ptr %15, %1
  br i1 %cmp.i.i.i21, label %_ZNSt7__cxx1112basic_stringIcSt11char_traitsIcESaIcEED2Ev.exit23, label %if.then.i.i22

if.then.i.i22:                                    ; preds = %ehcleanup
  call void @_ZdlPv(ptr noundef %15) #17
  br label %_ZNSt7__cxx1112basic_stringIcSt11char_traitsIcESaIcEED2Ev.exit23

_ZNSt7__cxx1112basic_stringIcSt11char_traitsIcESaIcEED2Ev.exit23: ; preds = %ehcleanup, %if.then.i.i22
  %16 = load ptr, ptr %maxdim, align 8, !tbaa !35
  %tobool.not.i.i.i = icmp eq ptr %16, null
  br i1 %tobool.not.i.i.i, label %_ZNSt6vectorIiSaIiEED2Ev.exit, label %if.then.i.i.i

if.then.i.i.i:                                    ; preds = %_ZNSt7__cxx1112basic_stringIcSt11char_traitsIcESaIcEED2Ev.exit23
  call void @_ZdlPv(ptr noundef nonnull %16) #17
  br label %_ZNSt6vectorIiSaIiEED2Ev.exit

_ZNSt6vectorIiSaIiEED2Ev.exit:                    ; preds = %_ZNSt7__cxx1112basic_stringIcSt11char_traitsIcESaIcEED2Ev.exit23, %if.then.i.i.i
  call void @_ZNSt6vectorINSt7__cxx1112basic_stringIcSt11char_traitsIcESaIcEEESaIS5_EED2Ev(ptr noundef nonnull align 8 dereferenceable(24) %value) #16
  %17 = load ptr, ptr %this, align 8, !tbaa !15
  %cmp.i.i.i24 = icmp eq ptr %17, %0
  br i1 %cmp.i.i.i24, label %_ZNSt7__cxx1112basic_stringIcSt11char_traitsIcESaIcEED2Ev.exit26, label %if.then.i.i25

if.then.i.i25:                                    ; preds = %_ZNSt6vectorIiSaIiEED2Ev.exit
  call void @_ZdlPv(ptr noundef %17) #17
  br label %_ZNSt7__cxx1112basic_stringIcSt11char_traitsIcESaIcEED2Ev.exit26

_ZNSt7__cxx1112basic_stringIcSt11char_traitsIcESaIcEED2Ev.exit26: ; preds = %_ZNSt6vectorIiSaIiEED2Ev.exit, %if.then.i.i25
  resume { ptr, i32 } %.pn
}

; Function Attrs: uwtable
define dso_local void @_ZN2PP8Variable13set_var_valueERSt6vectorIiSaIiEERS1_INSt7__cxx1112basic_stringIcSt11char_traitsIcESaIcEEESaISA_EEiiSA_PSt5dequeISA_SB_ERNS5_18basic_stringstreamIcS8_S9_EERi(ptr noundef nonnull align 8 dereferenceable(136) %this, ptr noundef nonnull align 8 dereferenceable(24) %istart, ptr nocapture noundef nonnull readonly align 8 dereferenceable(24) %valvec, i32 noundef %lnum, i32 noundef %file_lnum, ptr nocapture noundef readonly %fname, ptr nocapture noundef readonly %lines, ptr noundef nonnull align 8 dereferenceable(128) %serr, ptr nocapture noundef nonnull writeonly align 4 dereferenceable(4) %ierr) local_unnamed_addr #3 align 2 personality ptr @__gxx_personality_v0 {
entry:
  %putils = alloca %"class.PP::Parser_utils", align 1
  %ref.tmp = alloca %"class.std::__cxx11::basic_string", align 8
  %pre_defined = getelementptr inbounds %"class.PP::Variable", ptr %this, i64 0, i32 6
  %0 = load i8, ptr %pre_defined, align 8, !tbaa !33, !range !40, !noundef !41
  %tobool.not = icmp eq i8 %0, 0
  br i1 %tobool.not, label %if.end, label %if.then

if.then:                                          ; preds = %entry
  %add.ptr = getelementptr inbounds i8, ptr %serr, i64 16
  %vtable.i = load ptr, ptr %add.ptr, align 8, !tbaa !42
  %vbase.offset.ptr.i = getelementptr i8, ptr %vtable.i, i64 -24
  %vbase.offset.i = load i64, ptr %vbase.offset.ptr.i, align 8
  %add.ptr.i489 = getelementptr inbounds i8, ptr %add.ptr, i64 %vbase.offset.i
  %_M_ctype.i.i = getelementptr inbounds %"class.std::basic_ios", ptr %add.ptr.i489, i64 0, i32 5
  %1 = load ptr, ptr %_M_ctype.i.i, align 8, !tbaa !44
  %tobool.not.i.i.i = icmp eq ptr %1, null
  br i1 %tobool.not.i.i.i, label %if.then.i.i.i, label %_ZSt13__check_facetISt5ctypeIcEERKT_PS3_.exit.i.i

if.then.i.i.i:                                    ; preds = %if.then
  tail call void @_ZSt16__throw_bad_castv() #18
  unreachable

_ZSt13__check_facetISt5ctypeIcEERKT_PS3_.exit.i.i: ; preds = %if.then
  %_M_widen_ok.i.i.i = getelementptr inbounds %"class.std::ctype", ptr %1, i64 0, i32 8
  %2 = load i8, ptr %_M_widen_ok.i.i.i, align 8, !tbaa !51
  %tobool.not.i3.i.i = icmp eq i8 %2, 0
  br i1 %tobool.not.i3.i.i, label %if.end.i.i.i, label %if.then.i4.i.i

if.then.i4.i.i:                                   ; preds = %_ZSt13__check_facetISt5ctypeIcEERKT_PS3_.exit.i.i
  %arrayidx.i.i.i490 = getelementptr inbounds %"class.std::ctype", ptr %1, i64 0, i32 9, i64 10
  %3 = load i8, ptr %arrayidx.i.i.i490, align 1, !tbaa !13
  br label %_ZSt4endlIcSt11char_traitsIcEERSt13basic_ostreamIT_T0_ES6_.exit

if.end.i.i.i:                                     ; preds = %_ZSt13__check_facetISt5ctypeIcEERKT_PS3_.exit.i.i
  tail call void @_ZNKSt5ctypeIcE13_M_widen_initEv(ptr noundef nonnull align 8 dereferenceable(570) %1)
  %vtable.i.i.i = load ptr, ptr %1, align 8, !tbaa !42
  %vfn.i.i.i = getelementptr inbounds ptr, ptr %vtable.i.i.i, i64 6
  %4 = load ptr, ptr %vfn.i.i.i, align 8
  %call.i.i.i = tail call noundef signext i8 %4(ptr noundef nonnull align 8 dereferenceable(570) %1, i8 noundef signext 10)
  br label %_ZSt4endlIcSt11char_traitsIcEERSt13basic_ostreamIT_T0_ES6_.exit

_ZSt4endlIcSt11char_traitsIcEERSt13basic_ostreamIT_T0_ES6_.exit: ; preds = %if.then.i4.i.i, %if.end.i.i.i
  %retval.0.i.i.i = phi i8 [ %3, %if.then.i4.i.i ], [ %call.i.i.i, %if.end.i.i.i ]
  %call1.i491 = tail call noundef nonnull align 8 dereferenceable(8) ptr @_ZNSo3putEc(ptr noundef nonnull align 8 dereferenceable(8) %add.ptr, i8 noundef signext %retval.0.i.i.i)
  %call.i.i492 = tail call noundef nonnull align 8 dereferenceable(8) ptr @_ZNSo5flushEv(ptr noundef nonnull align 8 dereferenceable(8) %call1.i491)
  %call1.i = tail call noundef nonnull align 8 dereferenceable(8) ptr @_ZSt16__ostream_insertIcSt11char_traitsIcEERSt13basic_ostreamIT_T0_ES6_PKS3_l(ptr noundef nonnull align 8 dereferenceable(8) %add.ptr, ptr noundef nonnull @.str.3, i64 noundef 24)
  %call4 = tail call noundef nonnull align 8 dereferenceable(8) ptr @_ZNSolsEi(ptr noundef nonnull align 8 dereferenceable(8) %add.ptr, i32 noundef %file_lnum)
  %call1.i253 = tail call noundef nonnull align 8 dereferenceable(8) ptr @_ZSt16__ostream_insertIcSt11char_traitsIcEERSt13basic_ostreamIT_T0_ES6_PKS3_l(ptr noundef nonnull align 8 dereferenceable(8) %call4, ptr noundef nonnull @.str.4, i64 noundef 1)
  %vtable.i493 = load ptr, ptr %call4, align 8, !tbaa !42
  %vbase.offset.ptr.i494 = getelementptr i8, ptr %vtable.i493, i64 -24
  %vbase.offset.i495 = load i64, ptr %vbase.offset.ptr.i494, align 8
  %add.ptr.i496 = getelementptr inbounds i8, ptr %call4, i64 %vbase.offset.i495
  %_M_ctype.i.i497 = getelementptr inbounds %"class.std::basic_ios", ptr %add.ptr.i496, i64 0, i32 5
  %5 = load ptr, ptr %_M_ctype.i.i497, align 8, !tbaa !44
  %tobool.not.i.i.i498 = icmp eq ptr %5, null
  br i1 %tobool.not.i.i.i498, label %if.then.i.i.i499, label %_ZSt13__check_facetISt5ctypeIcEERKT_PS3_.exit.i.i502

if.then.i.i.i499:                                 ; preds = %_ZSt4endlIcSt11char_traitsIcEERSt13basic_ostreamIT_T0_ES6_.exit
  tail call void @_ZSt16__throw_bad_castv() #18
  unreachable

_ZSt13__check_facetISt5ctypeIcEERKT_PS3_.exit.i.i502: ; preds = %_ZSt4endlIcSt11char_traitsIcEERSt13basic_ostreamIT_T0_ES6_.exit
  %_M_widen_ok.i.i.i500 = getelementptr inbounds %"class.std::ctype", ptr %5, i64 0, i32 8
  %6 = load i8, ptr %_M_widen_ok.i.i.i500, align 8, !tbaa !51
  %tobool.not.i3.i.i501 = icmp eq i8 %6, 0
  br i1 %tobool.not.i3.i.i501, label %if.end.i.i.i508, label %if.then.i4.i.i504

if.then.i4.i.i504:                                ; preds = %_ZSt13__check_facetISt5ctypeIcEERKT_PS3_.exit.i.i502
  %arrayidx.i.i.i503 = getelementptr inbounds %"class.std::ctype", ptr %5, i64 0, i32 9, i64 10
  %7 = load i8, ptr %arrayidx.i.i.i503, align 1, !tbaa !13
  br label %_ZSt4endlIcSt11char_traitsIcEERSt13basic_ostreamIT_T0_ES6_.exit512

if.end.i.i.i508:                                  ; preds = %_ZSt13__check_facetISt5ctypeIcEERKT_PS3_.exit.i.i502
  tail call void @_ZNKSt5ctypeIcE13_M_widen_initEv(ptr noundef nonnull align 8 dereferenceable(570) %5)
  %vtable.i.i.i505 = load ptr, ptr %5, align 8, !tbaa !42
  %vfn.i.i.i506 = getelementptr inbounds ptr, ptr %vtable.i.i.i505, i64 6
  %8 = load ptr, ptr %vfn.i.i.i506, align 8
  %call.i.i.i507 = tail call noundef signext i8 %8(ptr noundef nonnull align 8 dereferenceable(570) %5, i8 noundef signext 10)
  br label %_ZSt4endlIcSt11char_traitsIcEERSt13basic_ostreamIT_T0_ES6_.exit512

_ZSt4endlIcSt11char_traitsIcEERSt13basic_ostreamIT_T0_ES6_.exit512: ; preds = %if.then.i4.i.i504, %if.end.i.i.i508
  %retval.0.i.i.i509 = phi i8 [ %7, %if.then.i4.i.i504 ], [ %call.i.i.i507, %if.end.i.i.i508 ]
  %call1.i510 = tail call noundef nonnull align 8 dereferenceable(8) ptr @_ZNSo3putEc(ptr noundef nonnull align 8 dereferenceable(8) %call4, i8 noundef signext %retval.0.i.i.i509)
  %call.i.i511 = tail call noundef nonnull align 8 dereferenceable(8) ptr @_ZNSo5flushEv(ptr noundef nonnull align 8 dereferenceable(8) %call1.i510)
  %call1.i256 = tail call noundef nonnull align 8 dereferenceable(8) ptr @_ZSt16__ostream_insertIcSt11char_traitsIcEERSt13basic_ostreamIT_T0_ES6_PKS3_l(ptr noundef nonnull align 8 dereferenceable(8) %add.ptr, ptr noundef nonnull @.str.5, i64 noundef 4)
  %sub = add nsw i32 %lnum, -1
  %conv = sext i32 %sub to i64
  %_M_start.i = getelementptr inbounds %"struct.std::_Deque_base<std::__cxx11::basic_string<char>, std::allocator<std::__cxx11::basic_string<char>>>::_Deque_impl_data", ptr %lines, i64 0, i32 2
  %9 = load ptr, ptr %_M_start.i, align 8, !tbaa !54, !noalias !56
  %_M_first3.i.i.i.i = getelementptr inbounds %"struct.std::_Deque_base<std::__cxx11::basic_string<char>, std::allocator<std::__cxx11::basic_string<char>>>::_Deque_impl_data", ptr %lines, i64 0, i32 2, i32 1
  %10 = load ptr, ptr %_M_first3.i.i.i.i, align 8, !tbaa !59, !noalias !56
  %sub.ptr.lhs.cast.i.i.i.i = ptrtoint ptr %9 to i64
  %sub.ptr.rhs.cast.i.i.i.i = ptrtoint ptr %10 to i64
  %sub.ptr.sub.i.i.i.i = sub i64 %sub.ptr.lhs.cast.i.i.i.i, %sub.ptr.rhs.cast.i.i.i.i
  %sub.ptr.div.i.i.i.i = ashr exact i64 %sub.ptr.sub.i.i.i.i, 5
  %add.i.i.i.i = add nsw i64 %sub.ptr.div.i.i.i.i, %conv
  %or.cond.i.i.i.i = icmp ult i64 %add.i.i.i.i, 16
  br i1 %or.cond.i.i.i.i, label %if.then.i.i.i.i, label %if.else.i.i.i.i

if.then.i.i.i.i:                                  ; preds = %_ZSt4endlIcSt11char_traitsIcEERSt13basic_ostreamIT_T0_ES6_.exit512
  %add.ptr.i.i.i.i = getelementptr inbounds %"class.std::__cxx11::basic_string", ptr %9, i64 %conv
  br label %_ZNSt5dequeINSt7__cxx1112basic_stringIcSt11char_traitsIcESaIcEEESaIS5_EEixEm.exit

if.else.i.i.i.i:                                  ; preds = %_ZSt4endlIcSt11char_traitsIcEERSt13basic_ostreamIT_T0_ES6_.exit512
  %_M_node5.i.i.i.i = getelementptr inbounds %"struct.std::_Deque_base<std::__cxx11::basic_string<char>, std::allocator<std::__cxx11::basic_string<char>>>::_Deque_impl_data", ptr %lines, i64 0, i32 2, i32 3
  %11 = load ptr, ptr %_M_node5.i.i.i.i, align 8, !tbaa !60, !noalias !56
  %cmp4.i.i.i.i = icmp sgt i64 %add.i.i.i.i, 0
  %div2627.i.i.i.i = lshr i64 %add.i.i.i.i, 4
  %sub1025.i.i.i.i = or i64 %div2627.i.i.i.i, -1152921504606846976
  %cond.i.i.i.i = select i1 %cmp4.i.i.i.i, i64 %div2627.i.i.i.i, i64 %sub1025.i.i.i.i
  %add.ptr11.i.i.i.i = getelementptr inbounds ptr, ptr %11, i64 %cond.i.i.i.i
  %12 = load ptr, ptr %add.ptr11.i.i.i.i, align 8, !tbaa !16, !noalias !56
  %mul.i.i.i.i = shl nsw i64 %cond.i.i.i.i, 4
  %sub14.i.i.i.i = sub nsw i64 %add.i.i.i.i, %mul.i.i.i.i
  %add.ptr15.i.i.i.i = getelementptr inbounds %"class.std::__cxx11::basic_string", ptr %12, i64 %sub14.i.i.i.i
  br label %_ZNSt5dequeINSt7__cxx1112basic_stringIcSt11char_traitsIcESaIcEEESaIS5_EEixEm.exit

_ZNSt5dequeINSt7__cxx1112basic_stringIcSt11char_traitsIcESaIcEEESaIS5_EEixEm.exit: ; preds = %if.then.i.i.i.i, %if.else.i.i.i.i
  %storemerge.i.i.i.i = phi ptr [ %add.ptr15.i.i.i.i, %if.else.i.i.i.i ], [ %add.ptr.i.i.i.i, %if.then.i.i.i.i ]
  %13 = load ptr, ptr %storemerge.i.i.i.i, align 8, !tbaa !15
  %_M_string_length.i.i = getelementptr inbounds %"class.std::__cxx11::basic_string", ptr %storemerge.i.i.i.i, i64 0, i32 1
  %14 = load i64, ptr %_M_string_length.i.i, align 8, !tbaa !10
  %call2.i = tail call noundef nonnull align 8 dereferenceable(8) ptr @_ZSt16__ostream_insertIcSt11char_traitsIcEERSt13basic_ostreamIT_T0_ES6_PKS3_l(ptr noundef nonnull align 8 dereferenceable(8) %add.ptr, ptr noundef %13, i64 noundef %14)
  %vtable.i513 = load ptr, ptr %call2.i, align 8, !tbaa !42
  %vbase.offset.ptr.i514 = getelementptr i8, ptr %vtable.i513, i64 -24
  %vbase.offset.i515 = load i64, ptr %vbase.offset.ptr.i514, align 8
  %add.ptr.i516 = getelementptr inbounds i8, ptr %call2.i, i64 %vbase.offset.i515
  %_M_ctype.i.i517 = getelementptr inbounds %"class.std::basic_ios", ptr %add.ptr.i516, i64 0, i32 5
  %15 = load ptr, ptr %_M_ctype.i.i517, align 8, !tbaa !44
  %tobool.not.i.i.i518 = icmp eq ptr %15, null
  br i1 %tobool.not.i.i.i518, label %if.then.i.i.i519, label %_ZSt13__check_facetISt5ctypeIcEERKT_PS3_.exit.i.i522

if.then.i.i.i519:                                 ; preds = %_ZNSt5dequeINSt7__cxx1112basic_stringIcSt11char_traitsIcESaIcEEESaIS5_EEixEm.exit
  tail call void @_ZSt16__throw_bad_castv() #18
  unreachable

_ZSt13__check_facetISt5ctypeIcEERKT_PS3_.exit.i.i522: ; preds = %_ZNSt5dequeINSt7__cxx1112basic_stringIcSt11char_traitsIcESaIcEEESaIS5_EEixEm.exit
  %_M_widen_ok.i.i.i520 = getelementptr inbounds %"class.std::ctype", ptr %15, i64 0, i32 8
  %16 = load i8, ptr %_M_widen_ok.i.i.i520, align 8, !tbaa !51
  %tobool.not.i3.i.i521 = icmp eq i8 %16, 0
  br i1 %tobool.not.i3.i.i521, label %if.end.i.i.i528, label %if.then.i4.i.i524

if.then.i4.i.i524:                                ; preds = %_ZSt13__check_facetISt5ctypeIcEERKT_PS3_.exit.i.i522
  %arrayidx.i.i.i523 = getelementptr inbounds %"class.std::ctype", ptr %15, i64 0, i32 9, i64 10
  %17 = load i8, ptr %arrayidx.i.i.i523, align 1, !tbaa !13
  br label %_ZSt4endlIcSt11char_traitsIcEERSt13basic_ostreamIT_T0_ES6_.exit532

if.end.i.i.i528:                                  ; preds = %_ZSt13__check_facetISt5ctypeIcEERKT_PS3_.exit.i.i522
  tail call void @_ZNKSt5ctypeIcE13_M_widen_initEv(ptr noundef nonnull align 8 dereferenceable(570) %15)
  %vtable.i.i.i525 = load ptr, ptr %15, align 8, !tbaa !42
  %vfn.i.i.i526 = getelementptr inbounds ptr, ptr %vtable.i.i.i525, i64 6
  %18 = load ptr, ptr %vfn.i.i.i526, align 8
  %call.i.i.i527 = tail call noundef signext i8 %18(ptr noundef nonnull align 8 dereferenceable(570) %15, i8 noundef signext 10)
  br label %_ZSt4endlIcSt11char_traitsIcEERSt13basic_ostreamIT_T0_ES6_.exit532

_ZSt4endlIcSt11char_traitsIcEERSt13basic_ostreamIT_T0_ES6_.exit532: ; preds = %if.then.i4.i.i524, %if.end.i.i.i528
  %retval.0.i.i.i529 = phi i8 [ %17, %if.then.i4.i.i524 ], [ %call.i.i.i527, %if.end.i.i.i528 ]
  %call1.i530 = tail call noundef nonnull align 8 dereferenceable(8) ptr @_ZNSo3putEc(ptr noundef nonnull align 8 dereferenceable(8) %call2.i, i8 noundef signext %retval.0.i.i.i529)
  %call.i.i531 = tail call noundef nonnull align 8 dereferenceable(8) ptr @_ZNSo5flushEv(ptr noundef nonnull align 8 dereferenceable(8) %call1.i530)
  %call1.i259 = tail call noundef nonnull align 8 dereferenceable(8) ptr @_ZSt16__ostream_insertIcSt11char_traitsIcEERSt13basic_ostreamIT_T0_ES6_PKS3_l(ptr noundef nonnull align 8 dereferenceable(8) %add.ptr, ptr noundef nonnull @.str.6, i64 noundef 9)
  %19 = load ptr, ptr %fname, align 8, !tbaa !15
  %_M_string_length.i.i260 = getelementptr inbounds %"class.std::__cxx11::basic_string", ptr %fname, i64 0, i32 1
  %20 = load i64, ptr %_M_string_length.i.i260, align 8, !tbaa !10
  %call2.i261 = tail call noundef nonnull align 8 dereferenceable(8) ptr @_ZSt16__ostream_insertIcSt11char_traitsIcEERSt13basic_ostreamIT_T0_ES6_PKS3_l(ptr noundef nonnull align 8 dereferenceable(8) %add.ptr, ptr noundef %19, i64 noundef %20)
  %vtable.i533 = load ptr, ptr %call2.i261, align 8, !tbaa !42
  %vbase.offset.ptr.i534 = getelementptr i8, ptr %vtable.i533, i64 -24
  %vbase.offset.i535 = load i64, ptr %vbase.offset.ptr.i534, align 8
  %add.ptr.i536 = getelementptr inbounds i8, ptr %call2.i261, i64 %vbase.offset.i535
  %_M_ctype.i.i537 = getelementptr inbounds %"class.std::basic_ios", ptr %add.ptr.i536, i64 0, i32 5
  %21 = load ptr, ptr %_M_ctype.i.i537, align 8, !tbaa !44
  %tobool.not.i.i.i538 = icmp eq ptr %21, null
  br i1 %tobool.not.i.i.i538, label %if.then.i.i.i539, label %_ZSt13__check_facetISt5ctypeIcEERKT_PS3_.exit.i.i542

if.then.i.i.i539:                                 ; preds = %_ZSt4endlIcSt11char_traitsIcEERSt13basic_ostreamIT_T0_ES6_.exit532
  tail call void @_ZSt16__throw_bad_castv() #18
  unreachable

_ZSt13__check_facetISt5ctypeIcEERKT_PS3_.exit.i.i542: ; preds = %_ZSt4endlIcSt11char_traitsIcEERSt13basic_ostreamIT_T0_ES6_.exit532
  %_M_widen_ok.i.i.i540 = getelementptr inbounds %"class.std::ctype", ptr %21, i64 0, i32 8
  %22 = load i8, ptr %_M_widen_ok.i.i.i540, align 8, !tbaa !51
  %tobool.not.i3.i.i541 = icmp eq i8 %22, 0
  br i1 %tobool.not.i3.i.i541, label %if.end.i.i.i548, label %if.then.i4.i.i544

if.then.i4.i.i544:                                ; preds = %_ZSt13__check_facetISt5ctypeIcEERKT_PS3_.exit.i.i542
  %arrayidx.i.i.i543 = getelementptr inbounds %"class.std::ctype", ptr %21, i64 0, i32 9, i64 10
  %23 = load i8, ptr %arrayidx.i.i.i543, align 1, !tbaa !13
  br label %_ZSt4endlIcSt11char_traitsIcEERSt13basic_ostreamIT_T0_ES6_.exit552

if.end.i.i.i548:                                  ; preds = %_ZSt13__check_facetISt5ctypeIcEERKT_PS3_.exit.i.i542
  tail call void @_ZNKSt5ctypeIcE13_M_widen_initEv(ptr noundef nonnull align 8 dereferenceable(570) %21)
  %vtable.i.i.i545 = load ptr, ptr %21, align 8, !tbaa !42
  %vfn.i.i.i546 = getelementptr inbounds ptr, ptr %vtable.i.i.i545, i64 6
  %24 = load ptr, ptr %vfn.i.i.i546, align 8
  %call.i.i.i547 = tail call noundef signext i8 %24(ptr noundef nonnull align 8 dereferenceable(570) %21, i8 noundef signext 10)
  br label %_ZSt4endlIcSt11char_traitsIcEERSt13basic_ostreamIT_T0_ES6_.exit552

_ZSt4endlIcSt11char_traitsIcEERSt13basic_ostreamIT_T0_ES6_.exit552: ; preds = %if.then.i4.i.i544, %if.end.i.i.i548
  %retval.0.i.i.i549 = phi i8 [ %23, %if.then.i4.i.i544 ], [ %call.i.i.i547, %if.end.i.i.i548 ]
  %call1.i550 = tail call noundef nonnull align 8 dereferenceable(8) ptr @_ZNSo3putEc(ptr noundef nonnull align 8 dereferenceable(8) %call2.i261, i8 noundef signext %retval.0.i.i.i549)
  %call.i.i551 = tail call noundef nonnull align 8 dereferenceable(8) ptr @_ZNSo5flushEv(ptr noundef nonnull align 8 dereferenceable(8) %call1.i550)
  %call1.i264 = tail call noundef nonnull align 8 dereferenceable(8) ptr @_ZSt16__ostream_insertIcSt11char_traitsIcEERSt13basic_ostreamIT_T0_ES6_PKS3_l(ptr noundef nonnull align 8 dereferenceable(8) %add.ptr, ptr noundef nonnull @.str.7, i64 noundef 39)
  %vtable.i553 = load ptr, ptr %add.ptr, align 8, !tbaa !42
  %vbase.offset.ptr.i554 = getelementptr i8, ptr %vtable.i553, i64 -24
  %vbase.offset.i555 = load i64, ptr %vbase.offset.ptr.i554, align 8
  %add.ptr.i556 = getelementptr inbounds i8, ptr %add.ptr, i64 %vbase.offset.i555
  %_M_ctype.i.i557 = getelementptr inbounds %"class.std::basic_ios", ptr %add.ptr.i556, i64 0, i32 5
  %25 = load ptr, ptr %_M_ctype.i.i557, align 8, !tbaa !44
  %tobool.not.i.i.i558 = icmp eq ptr %25, null
  br i1 %tobool.not.i.i.i558, label %if.then.i.i.i559, label %_ZSt13__check_facetISt5ctypeIcEERKT_PS3_.exit.i.i562

if.then.i.i.i559:                                 ; preds = %_ZSt4endlIcSt11char_traitsIcEERSt13basic_ostreamIT_T0_ES6_.exit552
  tail call void @_ZSt16__throw_bad_castv() #18
  unreachable

_ZSt13__check_facetISt5ctypeIcEERKT_PS3_.exit.i.i562: ; preds = %_ZSt4endlIcSt11char_traitsIcEERSt13basic_ostreamIT_T0_ES6_.exit552
  %_M_widen_ok.i.i.i560 = getelementptr inbounds %"class.std::ctype", ptr %25, i64 0, i32 8
  %26 = load i8, ptr %_M_widen_ok.i.i.i560, align 8, !tbaa !51
  %tobool.not.i3.i.i561 = icmp eq i8 %26, 0
  br i1 %tobool.not.i3.i.i561, label %if.end.i.i.i568, label %if.then.i4.i.i564

if.then.i4.i.i564:                                ; preds = %_ZSt13__check_facetISt5ctypeIcEERKT_PS3_.exit.i.i562
  %arrayidx.i.i.i563 = getelementptr inbounds %"class.std::ctype", ptr %25, i64 0, i32 9, i64 10
  %27 = load i8, ptr %arrayidx.i.i.i563, align 1, !tbaa !13
  br label %_ZSt4endlIcSt11char_traitsIcEERSt13basic_ostreamIT_T0_ES6_.exit572

if.end.i.i.i568:                                  ; preds = %_ZSt13__check_facetISt5ctypeIcEERKT_PS3_.exit.i.i562
  tail call void @_ZNKSt5ctypeIcE13_M_widen_initEv(ptr noundef nonnull align 8 dereferenceable(570) %25)
  %vtable.i.i.i565 = load ptr, ptr %25, align 8, !tbaa !42
  %vfn.i.i.i566 = getelementptr inbounds ptr, ptr %vtable.i.i.i565, i64 6
  %28 = load ptr, ptr %vfn.i.i.i566, align 8
  %call.i.i.i567 = tail call noundef signext i8 %28(ptr noundef nonnull align 8 dereferenceable(570) %25, i8 noundef signext 10)
  br label %_ZSt4endlIcSt11char_traitsIcEERSt13basic_ostreamIT_T0_ES6_.exit572

_ZSt4endlIcSt11char_traitsIcEERSt13basic_ostreamIT_T0_ES6_.exit572: ; preds = %if.then.i4.i.i564, %if.end.i.i.i568
  %retval.0.i.i.i569 = phi i8 [ %27, %if.then.i4.i.i564 ], [ %call.i.i.i567, %if.end.i.i.i568 ]
  %call1.i570 = tail call noundef nonnull align 8 dereferenceable(8) ptr @_ZNSo3putEc(ptr noundef nonnull align 8 dereferenceable(8) %add.ptr, i8 noundef signext %retval.0.i.i.i569)
  %call.i.i571 = tail call noundef nonnull align 8 dereferenceable(8) ptr @_ZNSo5flushEv(ptr noundef nonnull align 8 dereferenceable(8) %call1.i570)
  store i32 2, ptr %ierr, align 4, !tbaa !39
  br label %cleanup.cont

if.end:                                           ; preds = %entry
  %_M_finish.i = getelementptr inbounds %"struct.std::_Vector_base<int, std::allocator<int>>::_Vector_impl_data", ptr %istart, i64 0, i32 1
  %29 = load ptr, ptr %_M_finish.i, align 8, !tbaa !61
  %30 = load ptr, ptr %istart, align 8, !tbaa !35
  %sub.ptr.lhs.cast.i = ptrtoint ptr %29 to i64
  %sub.ptr.rhs.cast.i = ptrtoint ptr %30 to i64
  %sub.ptr.sub.i = sub i64 %sub.ptr.lhs.cast.i, %sub.ptr.rhs.cast.i
  %31 = lshr exact i64 %sub.ptr.sub.i, 2
  %conv20 = trunc i64 %31 to i32
  %ndim = getelementptr inbounds %"class.PP::Variable", ptr %this, i64 0, i32 2
  %32 = load i32, ptr %ndim, align 8, !tbaa !20
  %cmp = icmp sgt i32 %32, -1
  br i1 %cmp, label %if.then21, label %if.else

if.then21:                                        ; preds = %if.end
  %cmp23.not = icmp eq i32 %32, %conv20
  br i1 %cmp23.not, label %if.end75, label %if.then24

if.then24:                                        ; preds = %if.then21
  %add.ptr25 = getelementptr inbounds i8, ptr %serr, i64 16
  %vtable.i573 = load ptr, ptr %add.ptr25, align 8, !tbaa !42
  %vbase.offset.ptr.i574 = getelementptr i8, ptr %vtable.i573, i64 -24
  %vbase.offset.i575 = load i64, ptr %vbase.offset.ptr.i574, align 8
  %add.ptr.i576 = getelementptr inbounds i8, ptr %add.ptr25, i64 %vbase.offset.i575
  %_M_ctype.i.i577 = getelementptr inbounds %"class.std::basic_ios", ptr %add.ptr.i576, i64 0, i32 5
  %33 = load ptr, ptr %_M_ctype.i.i577, align 8, !tbaa !44
  %tobool.not.i.i.i578 = icmp eq ptr %33, null
  br i1 %tobool.not.i.i.i578, label %if.then.i.i.i579, label %_ZSt13__check_facetISt5ctypeIcEERKT_PS3_.exit.i.i582

if.then.i.i.i579:                                 ; preds = %if.then24
  tail call void @_ZSt16__throw_bad_castv() #18
  unreachable

_ZSt13__check_facetISt5ctypeIcEERKT_PS3_.exit.i.i582: ; preds = %if.then24
  %_M_widen_ok.i.i.i580 = getelementptr inbounds %"class.std::ctype", ptr %33, i64 0, i32 8
  %34 = load i8, ptr %_M_widen_ok.i.i.i580, align 8, !tbaa !51
  %tobool.not.i3.i.i581 = icmp eq i8 %34, 0
  br i1 %tobool.not.i3.i.i581, label %if.end.i.i.i588, label %if.then.i4.i.i584

if.then.i4.i.i584:                                ; preds = %_ZSt13__check_facetISt5ctypeIcEERKT_PS3_.exit.i.i582
  %arrayidx.i.i.i583 = getelementptr inbounds %"class.std::ctype", ptr %33, i64 0, i32 9, i64 10
  %35 = load i8, ptr %arrayidx.i.i.i583, align 1, !tbaa !13
  br label %_ZSt4endlIcSt11char_traitsIcEERSt13basic_ostreamIT_T0_ES6_.exit592

if.end.i.i.i588:                                  ; preds = %_ZSt13__check_facetISt5ctypeIcEERKT_PS3_.exit.i.i582
  tail call void @_ZNKSt5ctypeIcE13_M_widen_initEv(ptr noundef nonnull align 8 dereferenceable(570) %33)
  %vtable.i.i.i585 = load ptr, ptr %33, align 8, !tbaa !42
  %vfn.i.i.i586 = getelementptr inbounds ptr, ptr %vtable.i.i.i585, i64 6
  %36 = load ptr, ptr %vfn.i.i.i586, align 8
  %call.i.i.i587 = tail call noundef signext i8 %36(ptr noundef nonnull align 8 dereferenceable(570) %33, i8 noundef signext 10)
  br label %_ZSt4endlIcSt11char_traitsIcEERSt13basic_ostreamIT_T0_ES6_.exit592

_ZSt4endlIcSt11char_traitsIcEERSt13basic_ostreamIT_T0_ES6_.exit592: ; preds = %if.then.i4.i.i584, %if.end.i.i.i588
  %retval.0.i.i.i589 = phi i8 [ %35, %if.then.i4.i.i584 ], [ %call.i.i.i587, %if.end.i.i.i588 ]
  %call1.i590 = tail call noundef nonnull align 8 dereferenceable(8) ptr @_ZNSo3putEc(ptr noundef nonnull align 8 dereferenceable(8) %add.ptr25, i8 noundef signext %retval.0.i.i.i589)
  %call.i.i591 = tail call noundef nonnull align 8 dereferenceable(8) ptr @_ZNSo5flushEv(ptr noundef nonnull align 8 dereferenceable(8) %call1.i590)
  %call1.i268 = tail call noundef nonnull align 8 dereferenceable(8) ptr @_ZSt16__ostream_insertIcSt11char_traitsIcEERSt13basic_ostreamIT_T0_ES6_PKS3_l(ptr noundef nonnull align 8 dereferenceable(8) %add.ptr25, ptr noundef nonnull @.str.3, i64 noundef 24)
  %call29 = tail call noundef nonnull align 8 dereferenceable(8) ptr @_ZNSolsEi(ptr noundef nonnull align 8 dereferenceable(8) %add.ptr25, i32 noundef %file_lnum)
  %call1.i270 = tail call noundef nonnull align 8 dereferenceable(8) ptr @_ZSt16__ostream_insertIcSt11char_traitsIcEERSt13basic_ostreamIT_T0_ES6_PKS3_l(ptr noundef nonnull align 8 dereferenceable(8) %call29, ptr noundef nonnull @.str.4, i64 noundef 1)
  %vtable.i593 = load ptr, ptr %call29, align 8, !tbaa !42
  %vbase.offset.ptr.i594 = getelementptr i8, ptr %vtable.i593, i64 -24
  %vbase.offset.i595 = load i64, ptr %vbase.offset.ptr.i594, align 8
  %add.ptr.i596 = getelementptr inbounds i8, ptr %call29, i64 %vbase.offset.i595
  %_M_ctype.i.i597 = getelementptr inbounds %"class.std::basic_ios", ptr %add.ptr.i596, i64 0, i32 5
  %37 = load ptr, ptr %_M_ctype.i.i597, align 8, !tbaa !44
  %tobool.not.i.i.i598 = icmp eq ptr %37, null
  br i1 %tobool.not.i.i.i598, label %if.then.i.i.i599, label %_ZSt13__check_facetISt5ctypeIcEERKT_PS3_.exit.i.i602

if.then.i.i.i599:                                 ; preds = %_ZSt4endlIcSt11char_traitsIcEERSt13basic_ostreamIT_T0_ES6_.exit592
  tail call void @_ZSt16__throw_bad_castv() #18
  unreachable

_ZSt13__check_facetISt5ctypeIcEERKT_PS3_.exit.i.i602: ; preds = %_ZSt4endlIcSt11char_traitsIcEERSt13basic_ostreamIT_T0_ES6_.exit592
  %_M_widen_ok.i.i.i600 = getelementptr inbounds %"class.std::ctype", ptr %37, i64 0, i32 8
  %38 = load i8, ptr %_M_widen_ok.i.i.i600, align 8, !tbaa !51
  %tobool.not.i3.i.i601 = icmp eq i8 %38, 0
  br i1 %tobool.not.i3.i.i601, label %if.end.i.i.i608, label %if.then.i4.i.i604

if.then.i4.i.i604:                                ; preds = %_ZSt13__check_facetISt5ctypeIcEERKT_PS3_.exit.i.i602
  %arrayidx.i.i.i603 = getelementptr inbounds %"class.std::ctype", ptr %37, i64 0, i32 9, i64 10
  %39 = load i8, ptr %arrayidx.i.i.i603, align 1, !tbaa !13
  br label %_ZSt4endlIcSt11char_traitsIcEERSt13basic_ostreamIT_T0_ES6_.exit612

if.end.i.i.i608:                                  ; preds = %_ZSt13__check_facetISt5ctypeIcEERKT_PS3_.exit.i.i602
  tail call void @_ZNKSt5ctypeIcE13_M_widen_initEv(ptr noundef nonnull align 8 dereferenceable(570) %37)
  %vtable.i.i.i605 = load ptr, ptr %37, align 8, !tbaa !42
  %vfn.i.i.i606 = getelementptr inbounds ptr, ptr %vtable.i.i.i605, i64 6
  %40 = load ptr, ptr %vfn.i.i.i606, align 8
  %call.i.i.i607 = tail call noundef signext i8 %40(ptr noundef nonnull align 8 dereferenceable(570) %37, i8 noundef signext 10)
  br label %_ZSt4endlIcSt11char_traitsIcEERSt13basic_ostreamIT_T0_ES6_.exit612

_ZSt4endlIcSt11char_traitsIcEERSt13basic_ostreamIT_T0_ES6_.exit612: ; preds = %if.then.i4.i.i604, %if.end.i.i.i608
  %retval.0.i.i.i609 = phi i8 [ %39, %if.then.i4.i.i604 ], [ %call.i.i.i607, %if.end.i.i.i608 ]
  %call1.i610 = tail call noundef nonnull align 8 dereferenceable(8) ptr @_ZNSo3putEc(ptr noundef nonnull align 8 dereferenceable(8) %call29, i8 noundef signext %retval.0.i.i.i609)
  %call.i.i611 = tail call noundef nonnull align 8 dereferenceable(8) ptr @_ZNSo5flushEv(ptr noundef nonnull align 8 dereferenceable(8) %call1.i610)
  %call1.i273 = tail call noundef nonnull align 8 dereferenceable(8) ptr @_ZSt16__ostream_insertIcSt11char_traitsIcEERSt13basic_ostreamIT_T0_ES6_PKS3_l(ptr noundef nonnull align 8 dereferenceable(8) %add.ptr25, ptr noundef nonnull @.str.5, i64 noundef 4)
  %sub34 = add nsw i32 %lnum, -1
  %conv35 = sext i32 %sub34 to i64
  %_M_start.i274 = getelementptr inbounds %"struct.std::_Deque_base<std::__cxx11::basic_string<char>, std::allocator<std::__cxx11::basic_string<char>>>::_Deque_impl_data", ptr %lines, i64 0, i32 2
  %41 = load ptr, ptr %_M_start.i274, align 8, !tbaa !54, !noalias !62
  %_M_first3.i.i.i.i275 = getelementptr inbounds %"struct.std::_Deque_base<std::__cxx11::basic_string<char>, std::allocator<std::__cxx11::basic_string<char>>>::_Deque_impl_data", ptr %lines, i64 0, i32 2, i32 1
  %42 = load ptr, ptr %_M_first3.i.i.i.i275, align 8, !tbaa !59, !noalias !62
  %sub.ptr.lhs.cast.i.i.i.i276 = ptrtoint ptr %41 to i64
  %sub.ptr.rhs.cast.i.i.i.i277 = ptrtoint ptr %42 to i64
  %sub.ptr.sub.i.i.i.i278 = sub i64 %sub.ptr.lhs.cast.i.i.i.i276, %sub.ptr.rhs.cast.i.i.i.i277
  %sub.ptr.div.i.i.i.i279 = ashr exact i64 %sub.ptr.sub.i.i.i.i278, 5
  %add.i.i.i.i280 = add nsw i64 %sub.ptr.div.i.i.i.i279, %conv35
  %or.cond.i.i.i.i281 = icmp ult i64 %add.i.i.i.i280, 16
  br i1 %or.cond.i.i.i.i281, label %if.then.i.i.i.i283, label %if.else.i.i.i.i293

if.then.i.i.i.i283:                               ; preds = %_ZSt4endlIcSt11char_traitsIcEERSt13basic_ostreamIT_T0_ES6_.exit612
  %add.ptr.i.i.i.i282 = getelementptr inbounds %"class.std::__cxx11::basic_string", ptr %41, i64 %conv35
  br label %_ZNSt5dequeINSt7__cxx1112basic_stringIcSt11char_traitsIcESaIcEEESaIS5_EEixEm.exit295

if.else.i.i.i.i293:                               ; preds = %_ZSt4endlIcSt11char_traitsIcEERSt13basic_ostreamIT_T0_ES6_.exit612
  %_M_node5.i.i.i.i284 = getelementptr inbounds %"struct.std::_Deque_base<std::__cxx11::basic_string<char>, std::allocator<std::__cxx11::basic_string<char>>>::_Deque_impl_data", ptr %lines, i64 0, i32 2, i32 3
  %43 = load ptr, ptr %_M_node5.i.i.i.i284, align 8, !tbaa !60, !noalias !62
  %cmp4.i.i.i.i285 = icmp sgt i64 %add.i.i.i.i280, 0
  %div2627.i.i.i.i286 = lshr i64 %add.i.i.i.i280, 4
  %sub1025.i.i.i.i287 = or i64 %div2627.i.i.i.i286, -1152921504606846976
  %cond.i.i.i.i288 = select i1 %cmp4.i.i.i.i285, i64 %div2627.i.i.i.i286, i64 %sub1025.i.i.i.i287
  %add.ptr11.i.i.i.i289 = getelementptr inbounds ptr, ptr %43, i64 %cond.i.i.i.i288
  %44 = load ptr, ptr %add.ptr11.i.i.i.i289, align 8, !tbaa !16, !noalias !62
  %mul.i.i.i.i290 = shl nsw i64 %cond.i.i.i.i288, 4
  %sub14.i.i.i.i291 = sub nsw i64 %add.i.i.i.i280, %mul.i.i.i.i290
  %add.ptr15.i.i.i.i292 = getelementptr inbounds %"class.std::__cxx11::basic_string", ptr %44, i64 %sub14.i.i.i.i291
  br label %_ZNSt5dequeINSt7__cxx1112basic_stringIcSt11char_traitsIcESaIcEEESaIS5_EEixEm.exit295

_ZNSt5dequeINSt7__cxx1112basic_stringIcSt11char_traitsIcESaIcEEESaIS5_EEixEm.exit295: ; preds = %if.then.i.i.i.i283, %if.else.i.i.i.i293
  %storemerge.i.i.i.i294 = phi ptr [ %add.ptr15.i.i.i.i292, %if.else.i.i.i.i293 ], [ %add.ptr.i.i.i.i282, %if.then.i.i.i.i283 ]
  %45 = load ptr, ptr %storemerge.i.i.i.i294, align 8, !tbaa !15
  %_M_string_length.i.i296 = getelementptr inbounds %"class.std::__cxx11::basic_string", ptr %storemerge.i.i.i.i294, i64 0, i32 1
  %46 = load i64, ptr %_M_string_length.i.i296, align 8, !tbaa !10
  %call2.i297 = tail call noundef nonnull align 8 dereferenceable(8) ptr @_ZSt16__ostream_insertIcSt11char_traitsIcEERSt13basic_ostreamIT_T0_ES6_PKS3_l(ptr noundef nonnull align 8 dereferenceable(8) %add.ptr25, ptr noundef %45, i64 noundef %46)
  %vtable.i613 = load ptr, ptr %call2.i297, align 8, !tbaa !42
  %vbase.offset.ptr.i614 = getelementptr i8, ptr %vtable.i613, i64 -24
  %vbase.offset.i615 = load i64, ptr %vbase.offset.ptr.i614, align 8
  %add.ptr.i616 = getelementptr inbounds i8, ptr %call2.i297, i64 %vbase.offset.i615
  %_M_ctype.i.i617 = getelementptr inbounds %"class.std::basic_ios", ptr %add.ptr.i616, i64 0, i32 5
  %47 = load ptr, ptr %_M_ctype.i.i617, align 8, !tbaa !44
  %tobool.not.i.i.i618 = icmp eq ptr %47, null
  br i1 %tobool.not.i.i.i618, label %if.then.i.i.i619, label %_ZSt13__check_facetISt5ctypeIcEERKT_PS3_.exit.i.i622

if.then.i.i.i619:                                 ; preds = %_ZNSt5dequeINSt7__cxx1112basic_stringIcSt11char_traitsIcESaIcEEESaIS5_EEixEm.exit295
  tail call void @_ZSt16__throw_bad_castv() #18
  unreachable

_ZSt13__check_facetISt5ctypeIcEERKT_PS3_.exit.i.i622: ; preds = %_ZNSt5dequeINSt7__cxx1112basic_stringIcSt11char_traitsIcESaIcEEESaIS5_EEixEm.exit295
  %_M_widen_ok.i.i.i620 = getelementptr inbounds %"class.std::ctype", ptr %47, i64 0, i32 8
  %48 = load i8, ptr %_M_widen_ok.i.i.i620, align 8, !tbaa !51
  %tobool.not.i3.i.i621 = icmp eq i8 %48, 0
  br i1 %tobool.not.i3.i.i621, label %if.end.i.i.i628, label %if.then.i4.i.i624

if.then.i4.i.i624:                                ; preds = %_ZSt13__check_facetISt5ctypeIcEERKT_PS3_.exit.i.i622
  %arrayidx.i.i.i623 = getelementptr inbounds %"class.std::ctype", ptr %47, i64 0, i32 9, i64 10
  %49 = load i8, ptr %arrayidx.i.i.i623, align 1, !tbaa !13
  br label %_ZSt4endlIcSt11char_traitsIcEERSt13basic_ostreamIT_T0_ES6_.exit632

if.end.i.i.i628:                                  ; preds = %_ZSt13__check_facetISt5ctypeIcEERKT_PS3_.exit.i.i622
  tail call void @_ZNKSt5ctypeIcE13_M_widen_initEv(ptr noundef nonnull align 8 dereferenceable(570) %47)
  %vtable.i.i.i625 = load ptr, ptr %47, align 8, !tbaa !42
  %vfn.i.i.i626 = getelementptr inbounds ptr, ptr %vtable.i.i.i625, i64 6
  %50 = load ptr, ptr %vfn.i.i.i626, align 8
  %call.i.i.i627 = tail call noundef signext i8 %50(ptr noundef nonnull align 8 dereferenceable(570) %47, i8 noundef signext 10)
  br label %_ZSt4endlIcSt11char_traitsIcEERSt13basic_ostreamIT_T0_ES6_.exit632

_ZSt4endlIcSt11char_traitsIcEERSt13basic_ostreamIT_T0_ES6_.exit632: ; preds = %if.then.i4.i.i624, %if.end.i.i.i628
  %retval.0.i.i.i629 = phi i8 [ %49, %if.then.i4.i.i624 ], [ %call.i.i.i627, %if.end.i.i.i628 ]
  %call1.i630 = tail call noundef nonnull align 8 dereferenceable(8) ptr @_ZNSo3putEc(ptr noundef nonnull align 8 dereferenceable(8) %call2.i297, i8 noundef signext %retval.0.i.i.i629)
  %call.i.i631 = tail call noundef nonnull align 8 dereferenceable(8) ptr @_ZNSo5flushEv(ptr noundef nonnull align 8 dereferenceable(8) %call1.i630)
  %call1.i300 = tail call noundef nonnull align 8 dereferenceable(8) ptr @_ZSt16__ostream_insertIcSt11char_traitsIcEERSt13basic_ostreamIT_T0_ES6_PKS3_l(ptr noundef nonnull align 8 dereferenceable(8) %add.ptr25, ptr noundef nonnull @.str.6, i64 noundef 9)
  %51 = load ptr, ptr %fname, align 8, !tbaa !15
  %_M_string_length.i.i301 = getelementptr inbounds %"class.std::__cxx11::basic_string", ptr %fname, i64 0, i32 1
  %52 = load i64, ptr %_M_string_length.i.i301, align 8, !tbaa !10
  %call2.i302 = tail call noundef nonnull align 8 dereferenceable(8) ptr @_ZSt16__ostream_insertIcSt11char_traitsIcEERSt13basic_ostreamIT_T0_ES6_PKS3_l(ptr noundef nonnull align 8 dereferenceable(8) %add.ptr25, ptr noundef %51, i64 noundef %52)
  %vtable.i633 = load ptr, ptr %call2.i302, align 8, !tbaa !42
  %vbase.offset.ptr.i634 = getelementptr i8, ptr %vtable.i633, i64 -24
  %vbase.offset.i635 = load i64, ptr %vbase.offset.ptr.i634, align 8
  %add.ptr.i636 = getelementptr inbounds i8, ptr %call2.i302, i64 %vbase.offset.i635
  %_M_ctype.i.i637 = getelementptr inbounds %"class.std::basic_ios", ptr %add.ptr.i636, i64 0, i32 5
  %53 = load ptr, ptr %_M_ctype.i.i637, align 8, !tbaa !44
  %tobool.not.i.i.i638 = icmp eq ptr %53, null
  br i1 %tobool.not.i.i.i638, label %if.then.i.i.i639, label %_ZSt13__check_facetISt5ctypeIcEERKT_PS3_.exit.i.i642

if.then.i.i.i639:                                 ; preds = %_ZSt4endlIcSt11char_traitsIcEERSt13basic_ostreamIT_T0_ES6_.exit632
  tail call void @_ZSt16__throw_bad_castv() #18
  unreachable

_ZSt13__check_facetISt5ctypeIcEERKT_PS3_.exit.i.i642: ; preds = %_ZSt4endlIcSt11char_traitsIcEERSt13basic_ostreamIT_T0_ES6_.exit632
  %_M_widen_ok.i.i.i640 = getelementptr inbounds %"class.std::ctype", ptr %53, i64 0, i32 8
  %54 = load i8, ptr %_M_widen_ok.i.i.i640, align 8, !tbaa !51
  %tobool.not.i3.i.i641 = icmp eq i8 %54, 0
  br i1 %tobool.not.i3.i.i641, label %if.end.i.i.i648, label %if.then.i4.i.i644

if.then.i4.i.i644:                                ; preds = %_ZSt13__check_facetISt5ctypeIcEERKT_PS3_.exit.i.i642
  %arrayidx.i.i.i643 = getelementptr inbounds %"class.std::ctype", ptr %53, i64 0, i32 9, i64 10
  %55 = load i8, ptr %arrayidx.i.i.i643, align 1, !tbaa !13
  br label %_ZSt4endlIcSt11char_traitsIcEERSt13basic_ostreamIT_T0_ES6_.exit652

if.end.i.i.i648:                                  ; preds = %_ZSt13__check_facetISt5ctypeIcEERKT_PS3_.exit.i.i642
  tail call void @_ZNKSt5ctypeIcE13_M_widen_initEv(ptr noundef nonnull align 8 dereferenceable(570) %53)
  %vtable.i.i.i645 = load ptr, ptr %53, align 8, !tbaa !42
  %vfn.i.i.i646 = getelementptr inbounds ptr, ptr %vtable.i.i.i645, i64 6
  %56 = load ptr, ptr %vfn.i.i.i646, align 8
  %call.i.i.i647 = tail call noundef signext i8 %56(ptr noundef nonnull align 8 dereferenceable(570) %53, i8 noundef signext 10)
  br label %_ZSt4endlIcSt11char_traitsIcEERSt13basic_ostreamIT_T0_ES6_.exit652

_ZSt4endlIcSt11char_traitsIcEERSt13basic_ostreamIT_T0_ES6_.exit652: ; preds = %if.then.i4.i.i644, %if.end.i.i.i648
  %retval.0.i.i.i649 = phi i8 [ %55, %if.then.i4.i.i644 ], [ %call.i.i.i647, %if.end.i.i.i648 ]
  %call1.i650 = tail call noundef nonnull align 8 dereferenceable(8) ptr @_ZNSo3putEc(ptr noundef nonnull align 8 dereferenceable(8) %call2.i302, i8 noundef signext %retval.0.i.i.i649)
  %call.i.i651 = tail call noundef nonnull align 8 dereferenceable(8) ptr @_ZNSo5flushEv(ptr noundef nonnull align 8 dereferenceable(8) %call1.i650)
  %call1.i305 = tail call noundef nonnull align 8 dereferenceable(8) ptr @_ZSt16__ostream_insertIcSt11char_traitsIcEERSt13basic_ostreamIT_T0_ES6_PKS3_l(ptr noundef nonnull align 8 dereferenceable(8) %add.ptr25, ptr noundef nonnull @.str.8, i64 noundef 49)
  %vtable.i653 = load ptr, ptr %add.ptr25, align 8, !tbaa !42
  %vbase.offset.ptr.i654 = getelementptr i8, ptr %vtable.i653, i64 -24
  %vbase.offset.i655 = load i64, ptr %vbase.offset.ptr.i654, align 8
  %add.ptr.i656 = getelementptr inbounds i8, ptr %add.ptr25, i64 %vbase.offset.i655
  %_M_ctype.i.i657 = getelementptr inbounds %"class.std::basic_ios", ptr %add.ptr.i656, i64 0, i32 5
  %57 = load ptr, ptr %_M_ctype.i.i657, align 8, !tbaa !44
  %tobool.not.i.i.i658 = icmp eq ptr %57, null
  br i1 %tobool.not.i.i.i658, label %if.then.i.i.i659, label %_ZSt13__check_facetISt5ctypeIcEERKT_PS3_.exit.i.i662

if.then.i.i.i659:                                 ; preds = %_ZSt4endlIcSt11char_traitsIcEERSt13basic_ostreamIT_T0_ES6_.exit652
  tail call void @_ZSt16__throw_bad_castv() #18
  unreachable

_ZSt13__check_facetISt5ctypeIcEERKT_PS3_.exit.i.i662: ; preds = %_ZSt4endlIcSt11char_traitsIcEERSt13basic_ostreamIT_T0_ES6_.exit652
  %_M_widen_ok.i.i.i660 = getelementptr inbounds %"class.std::ctype", ptr %57, i64 0, i32 8
  %58 = load i8, ptr %_M_widen_ok.i.i.i660, align 8, !tbaa !51
  %tobool.not.i3.i.i661 = icmp eq i8 %58, 0
  br i1 %tobool.not.i3.i.i661, label %if.end.i.i.i668, label %if.then.i4.i.i664

if.then.i4.i.i664:                                ; preds = %_ZSt13__check_facetISt5ctypeIcEERKT_PS3_.exit.i.i662
  %arrayidx.i.i.i663 = getelementptr inbounds %"class.std::ctype", ptr %57, i64 0, i32 9, i64 10
  %59 = load i8, ptr %arrayidx.i.i.i663, align 1, !tbaa !13
  br label %_ZSt4endlIcSt11char_traitsIcEERSt13basic_ostreamIT_T0_ES6_.exit672

if.end.i.i.i668:                                  ; preds = %_ZSt13__check_facetISt5ctypeIcEERKT_PS3_.exit.i.i662
  tail call void @_ZNKSt5ctypeIcE13_M_widen_initEv(ptr noundef nonnull align 8 dereferenceable(570) %57)
  %vtable.i.i.i665 = load ptr, ptr %57, align 8, !tbaa !42
  %vfn.i.i.i666 = getelementptr inbounds ptr, ptr %vtable.i.i.i665, i64 6
  %60 = load ptr, ptr %vfn.i.i.i666, align 8
  %call.i.i.i667 = tail call noundef signext i8 %60(ptr noundef nonnull align 8 dereferenceable(570) %57, i8 noundef signext 10)
  br label %_ZSt4endlIcSt11char_traitsIcEERSt13basic_ostreamIT_T0_ES6_.exit672

_ZSt4endlIcSt11char_traitsIcEERSt13basic_ostreamIT_T0_ES6_.exit672: ; preds = %if.then.i4.i.i664, %if.end.i.i.i668
  %retval.0.i.i.i669 = phi i8 [ %59, %if.then.i4.i.i664 ], [ %call.i.i.i667, %if.end.i.i.i668 ]
  %call1.i670 = tail call noundef nonnull align 8 dereferenceable(8) ptr @_ZNSo3putEc(ptr noundef nonnull align 8 dereferenceable(8) %add.ptr25, i8 noundef signext %retval.0.i.i.i669)
  %call.i.i671 = tail call noundef nonnull align 8 dereferenceable(8) ptr @_ZNSo5flushEv(ptr noundef nonnull align 8 dereferenceable(8) %call1.i670)
  %call1.i308 = tail call noundef nonnull align 8 dereferenceable(8) ptr @_ZSt16__ostream_insertIcSt11char_traitsIcEERSt13basic_ostreamIT_T0_ES6_PKS3_l(ptr noundef nonnull align 8 dereferenceable(8) %add.ptr25, ptr noundef nonnull @.str.9, i64 noundef 32)
  %61 = load i32, ptr %ndim, align 8, !tbaa !20
  %call49 = tail call noundef nonnull align 8 dereferenceable(8) ptr @_ZNSolsEi(ptr noundef nonnull align 8 dereferenceable(8) %add.ptr25, i32 noundef %61)
  %vtable.i673 = load ptr, ptr %call49, align 8, !tbaa !42
  %vbase.offset.ptr.i674 = getelementptr i8, ptr %vtable.i673, i64 -24
  %vbase.offset.i675 = load i64, ptr %vbase.offset.ptr.i674, align 8
  %add.ptr.i676 = getelementptr inbounds i8, ptr %call49, i64 %vbase.offset.i675
  %_M_ctype.i.i677 = getelementptr inbounds %"class.std::basic_ios", ptr %add.ptr.i676, i64 0, i32 5
  %62 = load ptr, ptr %_M_ctype.i.i677, align 8, !tbaa !44
  %tobool.not.i.i.i678 = icmp eq ptr %62, null
  br i1 %tobool.not.i.i.i678, label %if.then.i.i.i679, label %_ZSt13__check_facetISt5ctypeIcEERKT_PS3_.exit.i.i682

if.then.i.i.i679:                                 ; preds = %_ZSt4endlIcSt11char_traitsIcEERSt13basic_ostreamIT_T0_ES6_.exit672
  tail call void @_ZSt16__throw_bad_castv() #18
  unreachable

_ZSt13__check_facetISt5ctypeIcEERKT_PS3_.exit.i.i682: ; preds = %_ZSt4endlIcSt11char_traitsIcEERSt13basic_ostreamIT_T0_ES6_.exit672
  %_M_widen_ok.i.i.i680 = getelementptr inbounds %"class.std::ctype", ptr %62, i64 0, i32 8
  %63 = load i8, ptr %_M_widen_ok.i.i.i680, align 8, !tbaa !51
  %tobool.not.i3.i.i681 = icmp eq i8 %63, 0
  br i1 %tobool.not.i3.i.i681, label %if.end.i.i.i688, label %if.then.i4.i.i684

if.then.i4.i.i684:                                ; preds = %_ZSt13__check_facetISt5ctypeIcEERKT_PS3_.exit.i.i682
  %arrayidx.i.i.i683 = getelementptr inbounds %"class.std::ctype", ptr %62, i64 0, i32 9, i64 10
  %64 = load i8, ptr %arrayidx.i.i.i683, align 1, !tbaa !13
  br label %_ZSt4endlIcSt11char_traitsIcEERSt13basic_ostreamIT_T0_ES6_.exit692

if.end.i.i.i688:                                  ; preds = %_ZSt13__check_facetISt5ctypeIcEERKT_PS3_.exit.i.i682
  tail call void @_ZNKSt5ctypeIcE13_M_widen_initEv(ptr noundef nonnull align 8 dereferenceable(570) %62)
  %vtable.i.i.i685 = load ptr, ptr %62, align 8, !tbaa !42
  %vfn.i.i.i686 = getelementptr inbounds ptr, ptr %vtable.i.i.i685, i64 6
  %65 = load ptr, ptr %vfn.i.i.i686, align 8
  %call.i.i.i687 = tail call noundef signext i8 %65(ptr noundef nonnull align 8 dereferenceable(570) %62, i8 noundef signext 10)
  br label %_ZSt4endlIcSt11char_traitsIcEERSt13basic_ostreamIT_T0_ES6_.exit692

_ZSt4endlIcSt11char_traitsIcEERSt13basic_ostreamIT_T0_ES6_.exit692: ; preds = %if.then.i4.i.i684, %if.end.i.i.i688
  %retval.0.i.i.i689 = phi i8 [ %64, %if.then.i4.i.i684 ], [ %call.i.i.i687, %if.end.i.i.i688 ]
  %call1.i690 = tail call noundef nonnull align 8 dereferenceable(8) ptr @_ZNSo3putEc(ptr noundef nonnull align 8 dereferenceable(8) %call49, i8 noundef signext %retval.0.i.i.i689)
  %call.i.i691 = tail call noundef nonnull align 8 dereferenceable(8) ptr @_ZNSo5flushEv(ptr noundef nonnull align 8 dereferenceable(8) %call1.i690)
  %call1.i311 = tail call noundef nonnull align 8 dereferenceable(8) ptr @_ZSt16__ostream_insertIcSt11char_traitsIcEERSt13basic_ostreamIT_T0_ES6_PKS3_l(ptr noundef nonnull align 8 dereferenceable(8) %add.ptr25, ptr noundef nonnull @.str.10, i64 noundef 27)
  %call53 = tail call noundef nonnull align 8 dereferenceable(8) ptr @_ZNSolsEi(ptr noundef nonnull align 8 dereferenceable(8) %add.ptr25, i32 noundef %conv20)
  %vtable.i693 = load ptr, ptr %call53, align 8, !tbaa !42
  %vbase.offset.ptr.i694 = getelementptr i8, ptr %vtable.i693, i64 -24
  %vbase.offset.i695 = load i64, ptr %vbase.offset.ptr.i694, align 8
  %add.ptr.i696 = getelementptr inbounds i8, ptr %call53, i64 %vbase.offset.i695
  %_M_ctype.i.i697 = getelementptr inbounds %"class.std::basic_ios", ptr %add.ptr.i696, i64 0, i32 5
  %66 = load ptr, ptr %_M_ctype.i.i697, align 8, !tbaa !44
  %tobool.not.i.i.i698 = icmp eq ptr %66, null
  br i1 %tobool.not.i.i.i698, label %if.then.i.i.i699, label %_ZSt13__check_facetISt5ctypeIcEERKT_PS3_.exit.i.i702

if.then.i.i.i699:                                 ; preds = %_ZSt4endlIcSt11char_traitsIcEERSt13basic_ostreamIT_T0_ES6_.exit692
  tail call void @_ZSt16__throw_bad_castv() #18
  unreachable

_ZSt13__check_facetISt5ctypeIcEERKT_PS3_.exit.i.i702: ; preds = %_ZSt4endlIcSt11char_traitsIcEERSt13basic_ostreamIT_T0_ES6_.exit692
  %_M_widen_ok.i.i.i700 = getelementptr inbounds %"class.std::ctype", ptr %66, i64 0, i32 8
  %67 = load i8, ptr %_M_widen_ok.i.i.i700, align 8, !tbaa !51
  %tobool.not.i3.i.i701 = icmp eq i8 %67, 0
  br i1 %tobool.not.i3.i.i701, label %if.end.i.i.i708, label %if.then.i4.i.i704

if.then.i4.i.i704:                                ; preds = %_ZSt13__check_facetISt5ctypeIcEERKT_PS3_.exit.i.i702
  %arrayidx.i.i.i703 = getelementptr inbounds %"class.std::ctype", ptr %66, i64 0, i32 9, i64 10
  %68 = load i8, ptr %arrayidx.i.i.i703, align 1, !tbaa !13
  br label %_ZSt4endlIcSt11char_traitsIcEERSt13basic_ostreamIT_T0_ES6_.exit712

if.end.i.i.i708:                                  ; preds = %_ZSt13__check_facetISt5ctypeIcEERKT_PS3_.exit.i.i702
  tail call void @_ZNKSt5ctypeIcE13_M_widen_initEv(ptr noundef nonnull align 8 dereferenceable(570) %66)
  %vtable.i.i.i705 = load ptr, ptr %66, align 8, !tbaa !42
  %vfn.i.i.i706 = getelementptr inbounds ptr, ptr %vtable.i.i.i705, i64 6
  %69 = load ptr, ptr %vfn.i.i.i706, align 8
  %call.i.i.i707 = tail call noundef signext i8 %69(ptr noundef nonnull align 8 dereferenceable(570) %66, i8 noundef signext 10)
  br label %_ZSt4endlIcSt11char_traitsIcEERSt13basic_ostreamIT_T0_ES6_.exit712

_ZSt4endlIcSt11char_traitsIcEERSt13basic_ostreamIT_T0_ES6_.exit712: ; preds = %if.then.i4.i.i704, %if.end.i.i.i708
  %retval.0.i.i.i709 = phi i8 [ %68, %if.then.i4.i.i704 ], [ %call.i.i.i707, %if.end.i.i.i708 ]
  %call1.i710 = tail call noundef nonnull align 8 dereferenceable(8) ptr @_ZNSo3putEc(ptr noundef nonnull align 8 dereferenceable(8) %call53, i8 noundef signext %retval.0.i.i.i709)
  %call.i.i711 = tail call noundef nonnull align 8 dereferenceable(8) ptr @_ZNSo5flushEv(ptr noundef nonnull align 8 dereferenceable(8) %call1.i710)
  %lnum_ndim = getelementptr inbounds %"class.PP::Variable", ptr %this, i64 0, i32 4
  %70 = load i32, ptr %lnum_ndim, align 8, !tbaa !31
  %cmp55 = icmp sgt i32 %70, 0
  br i1 %cmp55, label %if.then56, label %if.end71

if.then56:                                        ; preds = %_ZSt4endlIcSt11char_traitsIcEERSt13basic_ostreamIT_T0_ES6_.exit712
  %call1.i314 = tail call noundef nonnull align 8 dereferenceable(8) ptr @_ZSt16__ostream_insertIcSt11char_traitsIcEERSt13basic_ostreamIT_T0_ES6_PKS3_l(ptr noundef nonnull align 8 dereferenceable(8) %add.ptr25, ptr noundef nonnull @.str.11, i64 noundef 23)
  %71 = load i32, ptr %lnum_ndim, align 8, !tbaa !31
  %call60 = tail call noundef nonnull align 8 dereferenceable(8) ptr @_ZNSolsEi(ptr noundef nonnull align 8 dereferenceable(8) %add.ptr25, i32 noundef %71)
  %call1.i316 = tail call noundef nonnull align 8 dereferenceable(8) ptr @_ZSt16__ostream_insertIcSt11char_traitsIcEERSt13basic_ostreamIT_T0_ES6_PKS3_l(ptr noundef nonnull align 8 dereferenceable(8) %call60, ptr noundef nonnull @.str.4, i64 noundef 1)
  %vtable.i713 = load ptr, ptr %call60, align 8, !tbaa !42
  %vbase.offset.ptr.i714 = getelementptr i8, ptr %vtable.i713, i64 -24
  %vbase.offset.i715 = load i64, ptr %vbase.offset.ptr.i714, align 8
  %add.ptr.i716 = getelementptr inbounds i8, ptr %call60, i64 %vbase.offset.i715
  %_M_ctype.i.i717 = getelementptr inbounds %"class.std::basic_ios", ptr %add.ptr.i716, i64 0, i32 5
  %72 = load ptr, ptr %_M_ctype.i.i717, align 8, !tbaa !44
  %tobool.not.i.i.i718 = icmp eq ptr %72, null
  br i1 %tobool.not.i.i.i718, label %if.then.i.i.i719, label %_ZSt13__check_facetISt5ctypeIcEERKT_PS3_.exit.i.i722

if.then.i.i.i719:                                 ; preds = %if.then56
  tail call void @_ZSt16__throw_bad_castv() #18
  unreachable

_ZSt13__check_facetISt5ctypeIcEERKT_PS3_.exit.i.i722: ; preds = %if.then56
  %_M_widen_ok.i.i.i720 = getelementptr inbounds %"class.std::ctype", ptr %72, i64 0, i32 8
  %73 = load i8, ptr %_M_widen_ok.i.i.i720, align 8, !tbaa !51
  %tobool.not.i3.i.i721 = icmp eq i8 %73, 0
  br i1 %tobool.not.i3.i.i721, label %if.end.i.i.i728, label %if.then.i4.i.i724

if.then.i4.i.i724:                                ; preds = %_ZSt13__check_facetISt5ctypeIcEERKT_PS3_.exit.i.i722
  %arrayidx.i.i.i723 = getelementptr inbounds %"class.std::ctype", ptr %72, i64 0, i32 9, i64 10
  %74 = load i8, ptr %arrayidx.i.i.i723, align 1, !tbaa !13
  br label %_ZSt4endlIcSt11char_traitsIcEERSt13basic_ostreamIT_T0_ES6_.exit732

if.end.i.i.i728:                                  ; preds = %_ZSt13__check_facetISt5ctypeIcEERKT_PS3_.exit.i.i722
  tail call void @_ZNKSt5ctypeIcE13_M_widen_initEv(ptr noundef nonnull align 8 dereferenceable(570) %72)
  %vtable.i.i.i725 = load ptr, ptr %72, align 8, !tbaa !42
  %vfn.i.i.i726 = getelementptr inbounds ptr, ptr %vtable.i.i.i725, i64 6
  %75 = load ptr, ptr %vfn.i.i.i726, align 8
  %call.i.i.i727 = tail call noundef signext i8 %75(ptr noundef nonnull align 8 dereferenceable(570) %72, i8 noundef signext 10)
  br label %_ZSt4endlIcSt11char_traitsIcEERSt13basic_ostreamIT_T0_ES6_.exit732

_ZSt4endlIcSt11char_traitsIcEERSt13basic_ostreamIT_T0_ES6_.exit732: ; preds = %if.then.i4.i.i724, %if.end.i.i.i728
  %retval.0.i.i.i729 = phi i8 [ %74, %if.then.i4.i.i724 ], [ %call.i.i.i727, %if.end.i.i.i728 ]
  %call1.i730 = tail call noundef nonnull align 8 dereferenceable(8) ptr @_ZNSo3putEc(ptr noundef nonnull align 8 dereferenceable(8) %call60, i8 noundef signext %retval.0.i.i.i729)
  %call.i.i731 = tail call noundef nonnull align 8 dereferenceable(8) ptr @_ZNSo5flushEv(ptr noundef nonnull align 8 dereferenceable(8) %call1.i730)
  %call1.i319 = tail call noundef nonnull align 8 dereferenceable(8) ptr @_ZSt16__ostream_insertIcSt11char_traitsIcEERSt13basic_ostreamIT_T0_ES6_PKS3_l(ptr noundef nonnull align 8 dereferenceable(8) %add.ptr25, ptr noundef nonnull @.str.5, i64 noundef 4)
  %76 = load i32, ptr %lnum_ndim, align 8, !tbaa !31
  %sub66 = add nsw i32 %76, -1
  %conv67 = sext i32 %sub66 to i64
  %77 = load ptr, ptr %_M_start.i274, align 8, !tbaa !54, !noalias !65
  %78 = load ptr, ptr %_M_first3.i.i.i.i275, align 8, !tbaa !59, !noalias !65
  %sub.ptr.lhs.cast.i.i.i.i322 = ptrtoint ptr %77 to i64
  %sub.ptr.rhs.cast.i.i.i.i323 = ptrtoint ptr %78 to i64
  %sub.ptr.sub.i.i.i.i324 = sub i64 %sub.ptr.lhs.cast.i.i.i.i322, %sub.ptr.rhs.cast.i.i.i.i323
  %sub.ptr.div.i.i.i.i325 = ashr exact i64 %sub.ptr.sub.i.i.i.i324, 5
  %add.i.i.i.i326 = add nsw i64 %sub.ptr.div.i.i.i.i325, %conv67
  %or.cond.i.i.i.i327 = icmp ult i64 %add.i.i.i.i326, 16
  br i1 %or.cond.i.i.i.i327, label %if.then.i.i.i.i329, label %if.else.i.i.i.i339

if.then.i.i.i.i329:                               ; preds = %_ZSt4endlIcSt11char_traitsIcEERSt13basic_ostreamIT_T0_ES6_.exit732
  %add.ptr.i.i.i.i328 = getelementptr inbounds %"class.std::__cxx11::basic_string", ptr %77, i64 %conv67
  br label %_ZNSt5dequeINSt7__cxx1112basic_stringIcSt11char_traitsIcESaIcEEESaIS5_EEixEm.exit341

if.else.i.i.i.i339:                               ; preds = %_ZSt4endlIcSt11char_traitsIcEERSt13basic_ostreamIT_T0_ES6_.exit732
  %_M_node5.i.i.i.i330 = getelementptr inbounds %"struct.std::_Deque_base<std::__cxx11::basic_string<char>, std::allocator<std::__cxx11::basic_string<char>>>::_Deque_impl_data", ptr %lines, i64 0, i32 2, i32 3
  %79 = load ptr, ptr %_M_node5.i.i.i.i330, align 8, !tbaa !60, !noalias !65
  %cmp4.i.i.i.i331 = icmp sgt i64 %add.i.i.i.i326, 0
  %div2627.i.i.i.i332 = lshr i64 %add.i.i.i.i326, 4
  %sub1025.i.i.i.i333 = or i64 %div2627.i.i.i.i332, -1152921504606846976
  %cond.i.i.i.i334 = select i1 %cmp4.i.i.i.i331, i64 %div2627.i.i.i.i332, i64 %sub1025.i.i.i.i333
  %add.ptr11.i.i.i.i335 = getelementptr inbounds ptr, ptr %79, i64 %cond.i.i.i.i334
  %80 = load ptr, ptr %add.ptr11.i.i.i.i335, align 8, !tbaa !16, !noalias !65
  %mul.i.i.i.i336 = shl nsw i64 %cond.i.i.i.i334, 4
  %sub14.i.i.i.i337 = sub nsw i64 %add.i.i.i.i326, %mul.i.i.i.i336
  %add.ptr15.i.i.i.i338 = getelementptr inbounds %"class.std::__cxx11::basic_string", ptr %80, i64 %sub14.i.i.i.i337
  br label %_ZNSt5dequeINSt7__cxx1112basic_stringIcSt11char_traitsIcESaIcEEESaIS5_EEixEm.exit341

_ZNSt5dequeINSt7__cxx1112basic_stringIcSt11char_traitsIcESaIcEEESaIS5_EEixEm.exit341: ; preds = %if.then.i.i.i.i329, %if.else.i.i.i.i339
  %storemerge.i.i.i.i340 = phi ptr [ %add.ptr15.i.i.i.i338, %if.else.i.i.i.i339 ], [ %add.ptr.i.i.i.i328, %if.then.i.i.i.i329 ]
  %81 = load ptr, ptr %storemerge.i.i.i.i340, align 8, !tbaa !15
  %_M_string_length.i.i342 = getelementptr inbounds %"class.std::__cxx11::basic_string", ptr %storemerge.i.i.i.i340, i64 0, i32 1
  %82 = load i64, ptr %_M_string_length.i.i342, align 8, !tbaa !10
  %call2.i343 = tail call noundef nonnull align 8 dereferenceable(8) ptr @_ZSt16__ostream_insertIcSt11char_traitsIcEERSt13basic_ostreamIT_T0_ES6_PKS3_l(ptr noundef nonnull align 8 dereferenceable(8) %add.ptr25, ptr noundef %81, i64 noundef %82)
  %vtable.i733 = load ptr, ptr %call2.i343, align 8, !tbaa !42
  %vbase.offset.ptr.i734 = getelementptr i8, ptr %vtable.i733, i64 -24
  %vbase.offset.i735 = load i64, ptr %vbase.offset.ptr.i734, align 8
  %add.ptr.i736 = getelementptr inbounds i8, ptr %call2.i343, i64 %vbase.offset.i735
  %_M_ctype.i.i737 = getelementptr inbounds %"class.std::basic_ios", ptr %add.ptr.i736, i64 0, i32 5
  %83 = load ptr, ptr %_M_ctype.i.i737, align 8, !tbaa !44
  %tobool.not.i.i.i738 = icmp eq ptr %83, null
  br i1 %tobool.not.i.i.i738, label %if.then.i.i.i739, label %_ZSt13__check_facetISt5ctypeIcEERKT_PS3_.exit.i.i742

if.then.i.i.i739:                                 ; preds = %_ZNSt5dequeINSt7__cxx1112basic_stringIcSt11char_traitsIcESaIcEEESaIS5_EEixEm.exit341
  tail call void @_ZSt16__throw_bad_castv() #18
  unreachable

_ZSt13__check_facetISt5ctypeIcEERKT_PS3_.exit.i.i742: ; preds = %_ZNSt5dequeINSt7__cxx1112basic_stringIcSt11char_traitsIcESaIcEEESaIS5_EEixEm.exit341
  %_M_widen_ok.i.i.i740 = getelementptr inbounds %"class.std::ctype", ptr %83, i64 0, i32 8
  %84 = load i8, ptr %_M_widen_ok.i.i.i740, align 8, !tbaa !51
  %tobool.not.i3.i.i741 = icmp eq i8 %84, 0
  br i1 %tobool.not.i3.i.i741, label %if.end.i.i.i748, label %if.then.i4.i.i744

if.then.i4.i.i744:                                ; preds = %_ZSt13__check_facetISt5ctypeIcEERKT_PS3_.exit.i.i742
  %arrayidx.i.i.i743 = getelementptr inbounds %"class.std::ctype", ptr %83, i64 0, i32 9, i64 10
  %85 = load i8, ptr %arrayidx.i.i.i743, align 1, !tbaa !13
  br label %_ZSt4endlIcSt11char_traitsIcEERSt13basic_ostreamIT_T0_ES6_.exit752

if.end.i.i.i748:                                  ; preds = %_ZSt13__check_facetISt5ctypeIcEERKT_PS3_.exit.i.i742
  tail call void @_ZNKSt5ctypeIcE13_M_widen_initEv(ptr noundef nonnull align 8 dereferenceable(570) %83)
  %vtable.i.i.i745 = load ptr, ptr %83, align 8, !tbaa !42
  %vfn.i.i.i746 = getelementptr inbounds ptr, ptr %vtable.i.i.i745, i64 6
  %86 = load ptr, ptr %vfn.i.i.i746, align 8
  %call.i.i.i747 = tail call noundef signext i8 %86(ptr noundef nonnull align 8 dereferenceable(570) %83, i8 noundef signext 10)
  br label %_ZSt4endlIcSt11char_traitsIcEERSt13basic_ostreamIT_T0_ES6_.exit752

_ZSt4endlIcSt11char_traitsIcEERSt13basic_ostreamIT_T0_ES6_.exit752: ; preds = %if.then.i4.i.i744, %if.end.i.i.i748
  %retval.0.i.i.i749 = phi i8 [ %85, %if.then.i4.i.i744 ], [ %call.i.i.i747, %if.end.i.i.i748 ]
  %call1.i750 = tail call noundef nonnull align 8 dereferenceable(8) ptr @_ZNSo3putEc(ptr noundef nonnull align 8 dereferenceable(8) %call2.i343, i8 noundef signext %retval.0.i.i.i749)
  %call.i.i751 = tail call noundef nonnull align 8 dereferenceable(8) ptr @_ZNSo5flushEv(ptr noundef nonnull align 8 dereferenceable(8) %call1.i750)
  br label %if.end71

if.end71:                                         ; preds = %_ZSt4endlIcSt11char_traitsIcEERSt13basic_ostreamIT_T0_ES6_.exit752, %_ZSt4endlIcSt11char_traitsIcEERSt13basic_ostreamIT_T0_ES6_.exit712
  store i32 2, ptr %ierr, align 4, !tbaa !39
  br label %cleanup.cont

if.else:                                          ; preds = %if.end
  store i32 %conv20, ptr %ndim, align 8, !tbaa !20
  %lnum_ndim74 = getelementptr inbounds %"class.PP::Variable", ptr %this, i64 0, i32 4
  store i32 %lnum, ptr %lnum_ndim74, align 8, !tbaa !31
  br label %if.end75

if.end75:                                         ; preds = %if.then21, %if.else
  %maxdim = getelementptr inbounds %"class.PP::Variable", ptr %this, i64 0, i32 5
  %_M_finish.i345 = getelementptr inbounds %"class.PP::Variable", ptr %this, i64 0, i32 5, i32 0, i32 0, i32 0, i32 1
  %87 = load ptr, ptr %_M_finish.i345, align 8, !tbaa !61
  %88 = load ptr, ptr %maxdim, align 8, !tbaa !35
  %sub.ptr.lhs.cast.i346 = ptrtoint ptr %87 to i64
  %sub.ptr.rhs.cast.i347 = ptrtoint ptr %88 to i64
  %sub.ptr.sub.i348 = sub i64 %sub.ptr.lhs.cast.i346, %sub.ptr.rhs.cast.i347
  %89 = lshr exact i64 %sub.ptr.sub.i348, 2
  %conv77 = trunc i64 %89 to i32
  %cmp79 = icmp eq i32 %conv20, 0
  %cmp80 = icmp sgt i32 %conv77, 0
  %or.cond = select i1 %cmp79, i1 %cmp80, i1 false
  br i1 %or.cond, label %if.then81, label %if.end120

if.then81:                                        ; preds = %if.end75
  %add.ptr82 = getelementptr inbounds i8, ptr %serr, i64 16
  %vtable.i753 = load ptr, ptr %add.ptr82, align 8, !tbaa !42
  %vbase.offset.ptr.i754 = getelementptr i8, ptr %vtable.i753, i64 -24
  %vbase.offset.i755 = load i64, ptr %vbase.offset.ptr.i754, align 8
  %add.ptr.i756 = getelementptr inbounds i8, ptr %add.ptr82, i64 %vbase.offset.i755
  %_M_ctype.i.i757 = getelementptr inbounds %"class.std::basic_ios", ptr %add.ptr.i756, i64 0, i32 5
  %90 = load ptr, ptr %_M_ctype.i.i757, align 8, !tbaa !44
  %tobool.not.i.i.i758 = icmp eq ptr %90, null
  br i1 %tobool.not.i.i.i758, label %if.then.i.i.i759, label %_ZSt13__check_facetISt5ctypeIcEERKT_PS3_.exit.i.i762

if.then.i.i.i759:                                 ; preds = %if.then81
  tail call void @_ZSt16__throw_bad_castv() #18
  unreachable

_ZSt13__check_facetISt5ctypeIcEERKT_PS3_.exit.i.i762: ; preds = %if.then81
  %_M_widen_ok.i.i.i760 = getelementptr inbounds %"class.std::ctype", ptr %90, i64 0, i32 8
  %91 = load i8, ptr %_M_widen_ok.i.i.i760, align 8, !tbaa !51
  %tobool.not.i3.i.i761 = icmp eq i8 %91, 0
  br i1 %tobool.not.i3.i.i761, label %if.end.i.i.i768, label %if.then.i4.i.i764

if.then.i4.i.i764:                                ; preds = %_ZSt13__check_facetISt5ctypeIcEERKT_PS3_.exit.i.i762
  %arrayidx.i.i.i763 = getelementptr inbounds %"class.std::ctype", ptr %90, i64 0, i32 9, i64 10
  %92 = load i8, ptr %arrayidx.i.i.i763, align 1, !tbaa !13
  br label %_ZSt4endlIcSt11char_traitsIcEERSt13basic_ostreamIT_T0_ES6_.exit772

if.end.i.i.i768:                                  ; preds = %_ZSt13__check_facetISt5ctypeIcEERKT_PS3_.exit.i.i762
  tail call void @_ZNKSt5ctypeIcE13_M_widen_initEv(ptr noundef nonnull align 8 dereferenceable(570) %90)
  %vtable.i.i.i765 = load ptr, ptr %90, align 8, !tbaa !42
  %vfn.i.i.i766 = getelementptr inbounds ptr, ptr %vtable.i.i.i765, i64 6
  %93 = load ptr, ptr %vfn.i.i.i766, align 8
  %call.i.i.i767 = tail call noundef signext i8 %93(ptr noundef nonnull align 8 dereferenceable(570) %90, i8 noundef signext 10)
  br label %_ZSt4endlIcSt11char_traitsIcEERSt13basic_ostreamIT_T0_ES6_.exit772

_ZSt4endlIcSt11char_traitsIcEERSt13basic_ostreamIT_T0_ES6_.exit772: ; preds = %if.then.i4.i.i764, %if.end.i.i.i768
  %retval.0.i.i.i769 = phi i8 [ %92, %if.then.i4.i.i764 ], [ %call.i.i.i767, %if.end.i.i.i768 ]
  %call1.i770 = tail call noundef nonnull align 8 dereferenceable(8) ptr @_ZNSo3putEc(ptr noundef nonnull align 8 dereferenceable(8) %add.ptr82, i8 noundef signext %retval.0.i.i.i769)
  %call.i.i771 = tail call noundef nonnull align 8 dereferenceable(8) ptr @_ZNSo5flushEv(ptr noundef nonnull align 8 dereferenceable(8) %call1.i770)
  %call1.i352 = tail call noundef nonnull align 8 dereferenceable(8) ptr @_ZSt16__ostream_insertIcSt11char_traitsIcEERSt13basic_ostreamIT_T0_ES6_PKS3_l(ptr noundef nonnull align 8 dereferenceable(8) %add.ptr82, ptr noundef nonnull @.str.3, i64 noundef 24)
  %call86 = tail call noundef nonnull align 8 dereferenceable(8) ptr @_ZNSolsEi(ptr noundef nonnull align 8 dereferenceable(8) %add.ptr82, i32 noundef %file_lnum)
  %call1.i354 = tail call noundef nonnull align 8 dereferenceable(8) ptr @_ZSt16__ostream_insertIcSt11char_traitsIcEERSt13basic_ostreamIT_T0_ES6_PKS3_l(ptr noundef nonnull align 8 dereferenceable(8) %call86, ptr noundef nonnull @.str.4, i64 noundef 1)
  %vtable.i773 = load ptr, ptr %call86, align 8, !tbaa !42
  %vbase.offset.ptr.i774 = getelementptr i8, ptr %vtable.i773, i64 -24
  %vbase.offset.i775 = load i64, ptr %vbase.offset.ptr.i774, align 8
  %add.ptr.i776 = getelementptr inbounds i8, ptr %call86, i64 %vbase.offset.i775
  %_M_ctype.i.i777 = getelementptr inbounds %"class.std::basic_ios", ptr %add.ptr.i776, i64 0, i32 5
  %94 = load ptr, ptr %_M_ctype.i.i777, align 8, !tbaa !44
  %tobool.not.i.i.i778 = icmp eq ptr %94, null
  br i1 %tobool.not.i.i.i778, label %if.then.i.i.i779, label %_ZSt13__check_facetISt5ctypeIcEERKT_PS3_.exit.i.i782

if.then.i.i.i779:                                 ; preds = %_ZSt4endlIcSt11char_traitsIcEERSt13basic_ostreamIT_T0_ES6_.exit772
  tail call void @_ZSt16__throw_bad_castv() #18
  unreachable

_ZSt13__check_facetISt5ctypeIcEERKT_PS3_.exit.i.i782: ; preds = %_ZSt4endlIcSt11char_traitsIcEERSt13basic_ostreamIT_T0_ES6_.exit772
  %_M_widen_ok.i.i.i780 = getelementptr inbounds %"class.std::ctype", ptr %94, i64 0, i32 8
  %95 = load i8, ptr %_M_widen_ok.i.i.i780, align 8, !tbaa !51
  %tobool.not.i3.i.i781 = icmp eq i8 %95, 0
  br i1 %tobool.not.i3.i.i781, label %if.end.i.i.i788, label %if.then.i4.i.i784

if.then.i4.i.i784:                                ; preds = %_ZSt13__check_facetISt5ctypeIcEERKT_PS3_.exit.i.i782
  %arrayidx.i.i.i783 = getelementptr inbounds %"class.std::ctype", ptr %94, i64 0, i32 9, i64 10
  %96 = load i8, ptr %arrayidx.i.i.i783, align 1, !tbaa !13
  br label %_ZSt4endlIcSt11char_traitsIcEERSt13basic_ostreamIT_T0_ES6_.exit792

if.end.i.i.i788:                                  ; preds = %_ZSt13__check_facetISt5ctypeIcEERKT_PS3_.exit.i.i782
  tail call void @_ZNKSt5ctypeIcE13_M_widen_initEv(ptr noundef nonnull align 8 dereferenceable(570) %94)
  %vtable.i.i.i785 = load ptr, ptr %94, align 8, !tbaa !42
  %vfn.i.i.i786 = getelementptr inbounds ptr, ptr %vtable.i.i.i785, i64 6
  %97 = load ptr, ptr %vfn.i.i.i786, align 8
  %call.i.i.i787 = tail call noundef signext i8 %97(ptr noundef nonnull align 8 dereferenceable(570) %94, i8 noundef signext 10)
  br label %_ZSt4endlIcSt11char_traitsIcEERSt13basic_ostreamIT_T0_ES6_.exit792

_ZSt4endlIcSt11char_traitsIcEERSt13basic_ostreamIT_T0_ES6_.exit792: ; preds = %if.then.i4.i.i784, %if.end.i.i.i788
  %retval.0.i.i.i789 = phi i8 [ %96, %if.then.i4.i.i784 ], [ %call.i.i.i787, %if.end.i.i.i788 ]
  %call1.i790 = tail call noundef nonnull align 8 dereferenceable(8) ptr @_ZNSo3putEc(ptr noundef nonnull align 8 dereferenceable(8) %call86, i8 noundef signext %retval.0.i.i.i789)
  %call.i.i791 = tail call noundef nonnull align 8 dereferenceable(8) ptr @_ZNSo5flushEv(ptr noundef nonnull align 8 dereferenceable(8) %call1.i790)
  %call1.i357 = tail call noundef nonnull align 8 dereferenceable(8) ptr @_ZSt16__ostream_insertIcSt11char_traitsIcEERSt13basic_ostreamIT_T0_ES6_PKS3_l(ptr noundef nonnull align 8 dereferenceable(8) %add.ptr82, ptr noundef nonnull @.str.5, i64 noundef 4)
  %sub91 = add nsw i32 %lnum, -1
  %conv92 = sext i32 %sub91 to i64
  %_M_start.i358 = getelementptr inbounds %"struct.std::_Deque_base<std::__cxx11::basic_string<char>, std::allocator<std::__cxx11::basic_string<char>>>::_Deque_impl_data", ptr %lines, i64 0, i32 2
  %98 = load ptr, ptr %_M_start.i358, align 8, !tbaa !54, !noalias !68
  %_M_first3.i.i.i.i359 = getelementptr inbounds %"struct.std::_Deque_base<std::__cxx11::basic_string<char>, std::allocator<std::__cxx11::basic_string<char>>>::_Deque_impl_data", ptr %lines, i64 0, i32 2, i32 1
  %99 = load ptr, ptr %_M_first3.i.i.i.i359, align 8, !tbaa !59, !noalias !68
  %sub.ptr.lhs.cast.i.i.i.i360 = ptrtoint ptr %98 to i64
  %sub.ptr.rhs.cast.i.i.i.i361 = ptrtoint ptr %99 to i64
  %sub.ptr.sub.i.i.i.i362 = sub i64 %sub.ptr.lhs.cast.i.i.i.i360, %sub.ptr.rhs.cast.i.i.i.i361
  %sub.ptr.div.i.i.i.i363 = ashr exact i64 %sub.ptr.sub.i.i.i.i362, 5
  %add.i.i.i.i364 = add nsw i64 %sub.ptr.div.i.i.i.i363, %conv92
  %or.cond.i.i.i.i365 = icmp ult i64 %add.i.i.i.i364, 16
  br i1 %or.cond.i.i.i.i365, label %if.then.i.i.i.i367, label %if.else.i.i.i.i377

if.then.i.i.i.i367:                               ; preds = %_ZSt4endlIcSt11char_traitsIcEERSt13basic_ostreamIT_T0_ES6_.exit792
  %add.ptr.i.i.i.i366 = getelementptr inbounds %"class.std::__cxx11::basic_string", ptr %98, i64 %conv92
  br label %_ZNSt5dequeINSt7__cxx1112basic_stringIcSt11char_traitsIcESaIcEEESaIS5_EEixEm.exit379

if.else.i.i.i.i377:                               ; preds = %_ZSt4endlIcSt11char_traitsIcEERSt13basic_ostreamIT_T0_ES6_.exit792
  %_M_node5.i.i.i.i368 = getelementptr inbounds %"struct.std::_Deque_base<std::__cxx11::basic_string<char>, std::allocator<std::__cxx11::basic_string<char>>>::_Deque_impl_data", ptr %lines, i64 0, i32 2, i32 3
  %100 = load ptr, ptr %_M_node5.i.i.i.i368, align 8, !tbaa !60, !noalias !68
  %cmp4.i.i.i.i369 = icmp sgt i64 %add.i.i.i.i364, 0
  %div2627.i.i.i.i370 = lshr i64 %add.i.i.i.i364, 4
  %sub1025.i.i.i.i371 = or i64 %div2627.i.i.i.i370, -1152921504606846976
  %cond.i.i.i.i372 = select i1 %cmp4.i.i.i.i369, i64 %div2627.i.i.i.i370, i64 %sub1025.i.i.i.i371
  %add.ptr11.i.i.i.i373 = getelementptr inbounds ptr, ptr %100, i64 %cond.i.i.i.i372
  %101 = load ptr, ptr %add.ptr11.i.i.i.i373, align 8, !tbaa !16, !noalias !68
  %mul.i.i.i.i374 = shl nsw i64 %cond.i.i.i.i372, 4
  %sub14.i.i.i.i375 = sub nsw i64 %add.i.i.i.i364, %mul.i.i.i.i374
  %add.ptr15.i.i.i.i376 = getelementptr inbounds %"class.std::__cxx11::basic_string", ptr %101, i64 %sub14.i.i.i.i375
  br label %_ZNSt5dequeINSt7__cxx1112basic_stringIcSt11char_traitsIcESaIcEEESaIS5_EEixEm.exit379

_ZNSt5dequeINSt7__cxx1112basic_stringIcSt11char_traitsIcESaIcEEESaIS5_EEixEm.exit379: ; preds = %if.then.i.i.i.i367, %if.else.i.i.i.i377
  %storemerge.i.i.i.i378 = phi ptr [ %add.ptr15.i.i.i.i376, %if.else.i.i.i.i377 ], [ %add.ptr.i.i.i.i366, %if.then.i.i.i.i367 ]
  %102 = load ptr, ptr %storemerge.i.i.i.i378, align 8, !tbaa !15
  %_M_string_length.i.i380 = getelementptr inbounds %"class.std::__cxx11::basic_string", ptr %storemerge.i.i.i.i378, i64 0, i32 1
  %103 = load i64, ptr %_M_string_length.i.i380, align 8, !tbaa !10
  %call2.i381 = tail call noundef nonnull align 8 dereferenceable(8) ptr @_ZSt16__ostream_insertIcSt11char_traitsIcEERSt13basic_ostreamIT_T0_ES6_PKS3_l(ptr noundef nonnull align 8 dereferenceable(8) %add.ptr82, ptr noundef %102, i64 noundef %103)
  %vtable.i793 = load ptr, ptr %call2.i381, align 8, !tbaa !42
  %vbase.offset.ptr.i794 = getelementptr i8, ptr %vtable.i793, i64 -24
  %vbase.offset.i795 = load i64, ptr %vbase.offset.ptr.i794, align 8
  %add.ptr.i796 = getelementptr inbounds i8, ptr %call2.i381, i64 %vbase.offset.i795
  %_M_ctype.i.i797 = getelementptr inbounds %"class.std::basic_ios", ptr %add.ptr.i796, i64 0, i32 5
  %104 = load ptr, ptr %_M_ctype.i.i797, align 8, !tbaa !44
  %tobool.not.i.i.i798 = icmp eq ptr %104, null
  br i1 %tobool.not.i.i.i798, label %if.then.i.i.i799, label %_ZSt13__check_facetISt5ctypeIcEERKT_PS3_.exit.i.i802

if.then.i.i.i799:                                 ; preds = %_ZNSt5dequeINSt7__cxx1112basic_stringIcSt11char_traitsIcESaIcEEESaIS5_EEixEm.exit379
  tail call void @_ZSt16__throw_bad_castv() #18
  unreachable

_ZSt13__check_facetISt5ctypeIcEERKT_PS3_.exit.i.i802: ; preds = %_ZNSt5dequeINSt7__cxx1112basic_stringIcSt11char_traitsIcESaIcEEESaIS5_EEixEm.exit379
  %_M_widen_ok.i.i.i800 = getelementptr inbounds %"class.std::ctype", ptr %104, i64 0, i32 8
  %105 = load i8, ptr %_M_widen_ok.i.i.i800, align 8, !tbaa !51
  %tobool.not.i3.i.i801 = icmp eq i8 %105, 0
  br i1 %tobool.not.i3.i.i801, label %if.end.i.i.i808, label %if.then.i4.i.i804

if.then.i4.i.i804:                                ; preds = %_ZSt13__check_facetISt5ctypeIcEERKT_PS3_.exit.i.i802
  %arrayidx.i.i.i803 = getelementptr inbounds %"class.std::ctype", ptr %104, i64 0, i32 9, i64 10
  %106 = load i8, ptr %arrayidx.i.i.i803, align 1, !tbaa !13
  br label %_ZSt4endlIcSt11char_traitsIcEERSt13basic_ostreamIT_T0_ES6_.exit812

if.end.i.i.i808:                                  ; preds = %_ZSt13__check_facetISt5ctypeIcEERKT_PS3_.exit.i.i802
  tail call void @_ZNKSt5ctypeIcE13_M_widen_initEv(ptr noundef nonnull align 8 dereferenceable(570) %104)
  %vtable.i.i.i805 = load ptr, ptr %104, align 8, !tbaa !42
  %vfn.i.i.i806 = getelementptr inbounds ptr, ptr %vtable.i.i.i805, i64 6
  %107 = load ptr, ptr %vfn.i.i.i806, align 8
  %call.i.i.i807 = tail call noundef signext i8 %107(ptr noundef nonnull align 8 dereferenceable(570) %104, i8 noundef signext 10)
  br label %_ZSt4endlIcSt11char_traitsIcEERSt13basic_ostreamIT_T0_ES6_.exit812

_ZSt4endlIcSt11char_traitsIcEERSt13basic_ostreamIT_T0_ES6_.exit812: ; preds = %if.then.i4.i.i804, %if.end.i.i.i808
  %retval.0.i.i.i809 = phi i8 [ %106, %if.then.i4.i.i804 ], [ %call.i.i.i807, %if.end.i.i.i808 ]
  %call1.i810 = tail call noundef nonnull align 8 dereferenceable(8) ptr @_ZNSo3putEc(ptr noundef nonnull align 8 dereferenceable(8) %call2.i381, i8 noundef signext %retval.0.i.i.i809)
  %call.i.i811 = tail call noundef nonnull align 8 dereferenceable(8) ptr @_ZNSo5flushEv(ptr noundef nonnull align 8 dereferenceable(8) %call1.i810)
  %call1.i384 = tail call noundef nonnull align 8 dereferenceable(8) ptr @_ZSt16__ostream_insertIcSt11char_traitsIcEERSt13basic_ostreamIT_T0_ES6_PKS3_l(ptr noundef nonnull align 8 dereferenceable(8) %add.ptr82, ptr noundef nonnull @.str.6, i64 noundef 9)
  %108 = load ptr, ptr %fname, align 8, !tbaa !15
  %_M_string_length.i.i385 = getelementptr inbounds %"class.std::__cxx11::basic_string", ptr %fname, i64 0, i32 1
  %109 = load i64, ptr %_M_string_length.i.i385, align 8, !tbaa !10
  %call2.i386 = tail call noundef nonnull align 8 dereferenceable(8) ptr @_ZSt16__ostream_insertIcSt11char_traitsIcEERSt13basic_ostreamIT_T0_ES6_PKS3_l(ptr noundef nonnull align 8 dereferenceable(8) %add.ptr82, ptr noundef %108, i64 noundef %109)
  %vtable.i813 = load ptr, ptr %call2.i386, align 8, !tbaa !42
  %vbase.offset.ptr.i814 = getelementptr i8, ptr %vtable.i813, i64 -24
  %vbase.offset.i815 = load i64, ptr %vbase.offset.ptr.i814, align 8
  %add.ptr.i816 = getelementptr inbounds i8, ptr %call2.i386, i64 %vbase.offset.i815
  %_M_ctype.i.i817 = getelementptr inbounds %"class.std::basic_ios", ptr %add.ptr.i816, i64 0, i32 5
  %110 = load ptr, ptr %_M_ctype.i.i817, align 8, !tbaa !44
  %tobool.not.i.i.i818 = icmp eq ptr %110, null
  br i1 %tobool.not.i.i.i818, label %if.then.i.i.i819, label %_ZSt13__check_facetISt5ctypeIcEERKT_PS3_.exit.i.i822

if.then.i.i.i819:                                 ; preds = %_ZSt4endlIcSt11char_traitsIcEERSt13basic_ostreamIT_T0_ES6_.exit812
  tail call void @_ZSt16__throw_bad_castv() #18
  unreachable

_ZSt13__check_facetISt5ctypeIcEERKT_PS3_.exit.i.i822: ; preds = %_ZSt4endlIcSt11char_traitsIcEERSt13basic_ostreamIT_T0_ES6_.exit812
  %_M_widen_ok.i.i.i820 = getelementptr inbounds %"class.std::ctype", ptr %110, i64 0, i32 8
  %111 = load i8, ptr %_M_widen_ok.i.i.i820, align 8, !tbaa !51
  %tobool.not.i3.i.i821 = icmp eq i8 %111, 0
  br i1 %tobool.not.i3.i.i821, label %if.end.i.i.i828, label %if.then.i4.i.i824

if.then.i4.i.i824:                                ; preds = %_ZSt13__check_facetISt5ctypeIcEERKT_PS3_.exit.i.i822
  %arrayidx.i.i.i823 = getelementptr inbounds %"class.std::ctype", ptr %110, i64 0, i32 9, i64 10
  %112 = load i8, ptr %arrayidx.i.i.i823, align 1, !tbaa !13
  br label %_ZSt4endlIcSt11char_traitsIcEERSt13basic_ostreamIT_T0_ES6_.exit832

if.end.i.i.i828:                                  ; preds = %_ZSt13__check_facetISt5ctypeIcEERKT_PS3_.exit.i.i822
  tail call void @_ZNKSt5ctypeIcE13_M_widen_initEv(ptr noundef nonnull align 8 dereferenceable(570) %110)
  %vtable.i.i.i825 = load ptr, ptr %110, align 8, !tbaa !42
  %vfn.i.i.i826 = getelementptr inbounds ptr, ptr %vtable.i.i.i825, i64 6
  %113 = load ptr, ptr %vfn.i.i.i826, align 8
  %call.i.i.i827 = tail call noundef signext i8 %113(ptr noundef nonnull align 8 dereferenceable(570) %110, i8 noundef signext 10)
  br label %_ZSt4endlIcSt11char_traitsIcEERSt13basic_ostreamIT_T0_ES6_.exit832

_ZSt4endlIcSt11char_traitsIcEERSt13basic_ostreamIT_T0_ES6_.exit832: ; preds = %if.then.i4.i.i824, %if.end.i.i.i828
  %retval.0.i.i.i829 = phi i8 [ %112, %if.then.i4.i.i824 ], [ %call.i.i.i827, %if.end.i.i.i828 ]
  %call1.i830 = tail call noundef nonnull align 8 dereferenceable(8) ptr @_ZNSo3putEc(ptr noundef nonnull align 8 dereferenceable(8) %call2.i386, i8 noundef signext %retval.0.i.i.i829)
  %call.i.i831 = tail call noundef nonnull align 8 dereferenceable(8) ptr @_ZNSo5flushEv(ptr noundef nonnull align 8 dereferenceable(8) %call1.i830)
  %call1.i389 = tail call noundef nonnull align 8 dereferenceable(8) ptr @_ZSt16__ostream_insertIcSt11char_traitsIcEERSt13basic_ostreamIT_T0_ES6_PKS3_l(ptr noundef nonnull align 8 dereferenceable(8) %add.ptr82, ptr noundef nonnull @.str.12, i64 noundef 49)
  %vtable.i833 = load ptr, ptr %add.ptr82, align 8, !tbaa !42
  %vbase.offset.ptr.i834 = getelementptr i8, ptr %vtable.i833, i64 -24
  %vbase.offset.i835 = load i64, ptr %vbase.offset.ptr.i834, align 8
  %add.ptr.i836 = getelementptr inbounds i8, ptr %add.ptr82, i64 %vbase.offset.i835
  %_M_ctype.i.i837 = getelementptr inbounds %"class.std::basic_ios", ptr %add.ptr.i836, i64 0, i32 5
  %114 = load ptr, ptr %_M_ctype.i.i837, align 8, !tbaa !44
  %tobool.not.i.i.i838 = icmp eq ptr %114, null
  br i1 %tobool.not.i.i.i838, label %if.then.i.i.i839, label %_ZSt13__check_facetISt5ctypeIcEERKT_PS3_.exit.i.i842

if.then.i.i.i839:                                 ; preds = %_ZSt4endlIcSt11char_traitsIcEERSt13basic_ostreamIT_T0_ES6_.exit832
  tail call void @_ZSt16__throw_bad_castv() #18
  unreachable

_ZSt13__check_facetISt5ctypeIcEERKT_PS3_.exit.i.i842: ; preds = %_ZSt4endlIcSt11char_traitsIcEERSt13basic_ostreamIT_T0_ES6_.exit832
  %_M_widen_ok.i.i.i840 = getelementptr inbounds %"class.std::ctype", ptr %114, i64 0, i32 8
  %115 = load i8, ptr %_M_widen_ok.i.i.i840, align 8, !tbaa !51
  %tobool.not.i3.i.i841 = icmp eq i8 %115, 0
  br i1 %tobool.not.i3.i.i841, label %if.end.i.i.i848, label %if.then.i4.i.i844

if.then.i4.i.i844:                                ; preds = %_ZSt13__check_facetISt5ctypeIcEERKT_PS3_.exit.i.i842
  %arrayidx.i.i.i843 = getelementptr inbounds %"class.std::ctype", ptr %114, i64 0, i32 9, i64 10
  %116 = load i8, ptr %arrayidx.i.i.i843, align 1, !tbaa !13
  br label %_ZSt4endlIcSt11char_traitsIcEERSt13basic_ostreamIT_T0_ES6_.exit852

if.end.i.i.i848:                                  ; preds = %_ZSt13__check_facetISt5ctypeIcEERKT_PS3_.exit.i.i842
  tail call void @_ZNKSt5ctypeIcE13_M_widen_initEv(ptr noundef nonnull align 8 dereferenceable(570) %114)
  %vtable.i.i.i845 = load ptr, ptr %114, align 8, !tbaa !42
  %vfn.i.i.i846 = getelementptr inbounds ptr, ptr %vtable.i.i.i845, i64 6
  %117 = load ptr, ptr %vfn.i.i.i846, align 8
  %call.i.i.i847 = tail call noundef signext i8 %117(ptr noundef nonnull align 8 dereferenceable(570) %114, i8 noundef signext 10)
  br label %_ZSt4endlIcSt11char_traitsIcEERSt13basic_ostreamIT_T0_ES6_.exit852

_ZSt4endlIcSt11char_traitsIcEERSt13basic_ostreamIT_T0_ES6_.exit852: ; preds = %if.then.i4.i.i844, %if.end.i.i.i848
  %retval.0.i.i.i849 = phi i8 [ %116, %if.then.i4.i.i844 ], [ %call.i.i.i847, %if.end.i.i.i848 ]
  %call1.i850 = tail call noundef nonnull align 8 dereferenceable(8) ptr @_ZNSo3putEc(ptr noundef nonnull align 8 dereferenceable(8) %add.ptr82, i8 noundef signext %retval.0.i.i.i849)
  %call.i.i851 = tail call noundef nonnull align 8 dereferenceable(8) ptr @_ZNSo5flushEv(ptr noundef nonnull align 8 dereferenceable(8) %call1.i850)
  %lnum_bounds = getelementptr inbounds %"class.PP::Variable", ptr %this, i64 0, i32 3
  %118 = load i32, ptr %lnum_bounds, align 4, !tbaa !32
  %cmp103 = icmp sgt i32 %118, 0
  br i1 %cmp103, label %if.then104, label %if.end119

if.then104:                                       ; preds = %_ZSt4endlIcSt11char_traitsIcEERSt13basic_ostreamIT_T0_ES6_.exit852
  %call1.i392 = tail call noundef nonnull align 8 dereferenceable(8) ptr @_ZSt16__ostream_insertIcSt11char_traitsIcEERSt13basic_ostreamIT_T0_ES6_PKS3_l(ptr noundef nonnull align 8 dereferenceable(8) %add.ptr82, ptr noundef nonnull @.str.13, i64 noundef 34)
  %119 = load i32, ptr %lnum_bounds, align 4, !tbaa !32
  %call108 = tail call noundef nonnull align 8 dereferenceable(8) ptr @_ZNSolsEi(ptr noundef nonnull align 8 dereferenceable(8) %add.ptr82, i32 noundef %119)
  %call1.i394 = tail call noundef nonnull align 8 dereferenceable(8) ptr @_ZSt16__ostream_insertIcSt11char_traitsIcEERSt13basic_ostreamIT_T0_ES6_PKS3_l(ptr noundef nonnull align 8 dereferenceable(8) %call108, ptr noundef nonnull @.str.4, i64 noundef 1)
  %vtable.i853 = load ptr, ptr %call108, align 8, !tbaa !42
  %vbase.offset.ptr.i854 = getelementptr i8, ptr %vtable.i853, i64 -24
  %vbase.offset.i855 = load i64, ptr %vbase.offset.ptr.i854, align 8
  %add.ptr.i856 = getelementptr inbounds i8, ptr %call108, i64 %vbase.offset.i855
  %_M_ctype.i.i857 = getelementptr inbounds %"class.std::basic_ios", ptr %add.ptr.i856, i64 0, i32 5
  %120 = load ptr, ptr %_M_ctype.i.i857, align 8, !tbaa !44
  %tobool.not.i.i.i858 = icmp eq ptr %120, null
  br i1 %tobool.not.i.i.i858, label %if.then.i.i.i859, label %_ZSt13__check_facetISt5ctypeIcEERKT_PS3_.exit.i.i862

if.then.i.i.i859:                                 ; preds = %if.then104
  tail call void @_ZSt16__throw_bad_castv() #18
  unreachable

_ZSt13__check_facetISt5ctypeIcEERKT_PS3_.exit.i.i862: ; preds = %if.then104
  %_M_widen_ok.i.i.i860 = getelementptr inbounds %"class.std::ctype", ptr %120, i64 0, i32 8
  %121 = load i8, ptr %_M_widen_ok.i.i.i860, align 8, !tbaa !51
  %tobool.not.i3.i.i861 = icmp eq i8 %121, 0
  br i1 %tobool.not.i3.i.i861, label %if.end.i.i.i868, label %if.then.i4.i.i864

if.then.i4.i.i864:                                ; preds = %_ZSt13__check_facetISt5ctypeIcEERKT_PS3_.exit.i.i862
  %arrayidx.i.i.i863 = getelementptr inbounds %"class.std::ctype", ptr %120, i64 0, i32 9, i64 10
  %122 = load i8, ptr %arrayidx.i.i.i863, align 1, !tbaa !13
  br label %_ZSt4endlIcSt11char_traitsIcEERSt13basic_ostreamIT_T0_ES6_.exit872

if.end.i.i.i868:                                  ; preds = %_ZSt13__check_facetISt5ctypeIcEERKT_PS3_.exit.i.i862
  tail call void @_ZNKSt5ctypeIcE13_M_widen_initEv(ptr noundef nonnull align 8 dereferenceable(570) %120)
  %vtable.i.i.i865 = load ptr, ptr %120, align 8, !tbaa !42
  %vfn.i.i.i866 = getelementptr inbounds ptr, ptr %vtable.i.i.i865, i64 6
  %123 = load ptr, ptr %vfn.i.i.i866, align 8
  %call.i.i.i867 = tail call noundef signext i8 %123(ptr noundef nonnull align 8 dereferenceable(570) %120, i8 noundef signext 10)
  br label %_ZSt4endlIcSt11char_traitsIcEERSt13basic_ostreamIT_T0_ES6_.exit872

_ZSt4endlIcSt11char_traitsIcEERSt13basic_ostreamIT_T0_ES6_.exit872: ; preds = %if.then.i4.i.i864, %if.end.i.i.i868
  %retval.0.i.i.i869 = phi i8 [ %122, %if.then.i4.i.i864 ], [ %call.i.i.i867, %if.end.i.i.i868 ]
  %call1.i870 = tail call noundef nonnull align 8 dereferenceable(8) ptr @_ZNSo3putEc(ptr noundef nonnull align 8 dereferenceable(8) %call108, i8 noundef signext %retval.0.i.i.i869)
  %call.i.i871 = tail call noundef nonnull align 8 dereferenceable(8) ptr @_ZNSo5flushEv(ptr noundef nonnull align 8 dereferenceable(8) %call1.i870)
  %call1.i397 = tail call noundef nonnull align 8 dereferenceable(8) ptr @_ZSt16__ostream_insertIcSt11char_traitsIcEERSt13basic_ostreamIT_T0_ES6_PKS3_l(ptr noundef nonnull align 8 dereferenceable(8) %add.ptr82, ptr noundef nonnull @.str.5, i64 noundef 4)
  %124 = load i32, ptr %lnum_bounds, align 4, !tbaa !32
  %sub114 = add nsw i32 %124, -1
  %conv115 = sext i32 %sub114 to i64
  %125 = load ptr, ptr %_M_start.i358, align 8, !tbaa !54, !noalias !71
  %126 = load ptr, ptr %_M_first3.i.i.i.i359, align 8, !tbaa !59, !noalias !71
  %sub.ptr.lhs.cast.i.i.i.i400 = ptrtoint ptr %125 to i64
  %sub.ptr.rhs.cast.i.i.i.i401 = ptrtoint ptr %126 to i64
  %sub.ptr.sub.i.i.i.i402 = sub i64 %sub.ptr.lhs.cast.i.i.i.i400, %sub.ptr.rhs.cast.i.i.i.i401
  %sub.ptr.div.i.i.i.i403 = ashr exact i64 %sub.ptr.sub.i.i.i.i402, 5
  %add.i.i.i.i404 = add nsw i64 %sub.ptr.div.i.i.i.i403, %conv115
  %or.cond.i.i.i.i405 = icmp ult i64 %add.i.i.i.i404, 16
  br i1 %or.cond.i.i.i.i405, label %if.then.i.i.i.i407, label %if.else.i.i.i.i417

if.then.i.i.i.i407:                               ; preds = %_ZSt4endlIcSt11char_traitsIcEERSt13basic_ostreamIT_T0_ES6_.exit872
  %add.ptr.i.i.i.i406 = getelementptr inbounds %"class.std::__cxx11::basic_string", ptr %125, i64 %conv115
  br label %_ZNSt5dequeINSt7__cxx1112basic_stringIcSt11char_traitsIcESaIcEEESaIS5_EEixEm.exit419

if.else.i.i.i.i417:                               ; preds = %_ZSt4endlIcSt11char_traitsIcEERSt13basic_ostreamIT_T0_ES6_.exit872
  %_M_node5.i.i.i.i408 = getelementptr inbounds %"struct.std::_Deque_base<std::__cxx11::basic_string<char>, std::allocator<std::__cxx11::basic_string<char>>>::_Deque_impl_data", ptr %lines, i64 0, i32 2, i32 3
  %127 = load ptr, ptr %_M_node5.i.i.i.i408, align 8, !tbaa !60, !noalias !71
  %cmp4.i.i.i.i409 = icmp sgt i64 %add.i.i.i.i404, 0
  %div2627.i.i.i.i410 = lshr i64 %add.i.i.i.i404, 4
  %sub1025.i.i.i.i411 = or i64 %div2627.i.i.i.i410, -1152921504606846976
  %cond.i.i.i.i412 = select i1 %cmp4.i.i.i.i409, i64 %div2627.i.i.i.i410, i64 %sub1025.i.i.i.i411
  %add.ptr11.i.i.i.i413 = getelementptr inbounds ptr, ptr %127, i64 %cond.i.i.i.i412
  %128 = load ptr, ptr %add.ptr11.i.i.i.i413, align 8, !tbaa !16, !noalias !71
  %mul.i.i.i.i414 = shl nsw i64 %cond.i.i.i.i412, 4
  %sub14.i.i.i.i415 = sub nsw i64 %add.i.i.i.i404, %mul.i.i.i.i414
  %add.ptr15.i.i.i.i416 = getelementptr inbounds %"class.std::__cxx11::basic_string", ptr %128, i64 %sub14.i.i.i.i415
  br label %_ZNSt5dequeINSt7__cxx1112basic_stringIcSt11char_traitsIcESaIcEEESaIS5_EEixEm.exit419

_ZNSt5dequeINSt7__cxx1112basic_stringIcSt11char_traitsIcESaIcEEESaIS5_EEixEm.exit419: ; preds = %if.then.i.i.i.i407, %if.else.i.i.i.i417
  %storemerge.i.i.i.i418 = phi ptr [ %add.ptr15.i.i.i.i416, %if.else.i.i.i.i417 ], [ %add.ptr.i.i.i.i406, %if.then.i.i.i.i407 ]
  %129 = load ptr, ptr %storemerge.i.i.i.i418, align 8, !tbaa !15
  %_M_string_length.i.i420 = getelementptr inbounds %"class.std::__cxx11::basic_string", ptr %storemerge.i.i.i.i418, i64 0, i32 1
  %130 = load i64, ptr %_M_string_length.i.i420, align 8, !tbaa !10
  %call2.i421 = tail call noundef nonnull align 8 dereferenceable(8) ptr @_ZSt16__ostream_insertIcSt11char_traitsIcEERSt13basic_ostreamIT_T0_ES6_PKS3_l(ptr noundef nonnull align 8 dereferenceable(8) %add.ptr82, ptr noundef %129, i64 noundef %130)
  %vtable.i873 = load ptr, ptr %call2.i421, align 8, !tbaa !42
  %vbase.offset.ptr.i874 = getelementptr i8, ptr %vtable.i873, i64 -24
  %vbase.offset.i875 = load i64, ptr %vbase.offset.ptr.i874, align 8
  %add.ptr.i876 = getelementptr inbounds i8, ptr %call2.i421, i64 %vbase.offset.i875
  %_M_ctype.i.i877 = getelementptr inbounds %"class.std::basic_ios", ptr %add.ptr.i876, i64 0, i32 5
  %131 = load ptr, ptr %_M_ctype.i.i877, align 8, !tbaa !44
  %tobool.not.i.i.i878 = icmp eq ptr %131, null
  br i1 %tobool.not.i.i.i878, label %if.then.i.i.i879, label %_ZSt13__check_facetISt5ctypeIcEERKT_PS3_.exit.i.i882

if.then.i.i.i879:                                 ; preds = %_ZNSt5dequeINSt7__cxx1112basic_stringIcSt11char_traitsIcESaIcEEESaIS5_EEixEm.exit419
  tail call void @_ZSt16__throw_bad_castv() #18
  unreachable

_ZSt13__check_facetISt5ctypeIcEERKT_PS3_.exit.i.i882: ; preds = %_ZNSt5dequeINSt7__cxx1112basic_stringIcSt11char_traitsIcESaIcEEESaIS5_EEixEm.exit419
  %_M_widen_ok.i.i.i880 = getelementptr inbounds %"class.std::ctype", ptr %131, i64 0, i32 8
  %132 = load i8, ptr %_M_widen_ok.i.i.i880, align 8, !tbaa !51
  %tobool.not.i3.i.i881 = icmp eq i8 %132, 0
  br i1 %tobool.not.i3.i.i881, label %if.end.i.i.i888, label %if.then.i4.i.i884

if.then.i4.i.i884:                                ; preds = %_ZSt13__check_facetISt5ctypeIcEERKT_PS3_.exit.i.i882
  %arrayidx.i.i.i883 = getelementptr inbounds %"class.std::ctype", ptr %131, i64 0, i32 9, i64 10
  %133 = load i8, ptr %arrayidx.i.i.i883, align 1, !tbaa !13
  br label %_ZSt4endlIcSt11char_traitsIcEERSt13basic_ostreamIT_T0_ES6_.exit892

if.end.i.i.i888:                                  ; preds = %_ZSt13__check_facetISt5ctypeIcEERKT_PS3_.exit.i.i882
  tail call void @_ZNKSt5ctypeIcE13_M_widen_initEv(ptr noundef nonnull align 8 dereferenceable(570) %131)
  %vtable.i.i.i885 = load ptr, ptr %131, align 8, !tbaa !42
  %vfn.i.i.i886 = getelementptr inbounds ptr, ptr %vtable.i.i.i885, i64 6
  %134 = load ptr, ptr %vfn.i.i.i886, align 8
  %call.i.i.i887 = tail call noundef signext i8 %134(ptr noundef nonnull align 8 dereferenceable(570) %131, i8 noundef signext 10)
  br label %_ZSt4endlIcSt11char_traitsIcEERSt13basic_ostreamIT_T0_ES6_.exit892

_ZSt4endlIcSt11char_traitsIcEERSt13basic_ostreamIT_T0_ES6_.exit892: ; preds = %if.then.i4.i.i884, %if.end.i.i.i888
  %retval.0.i.i.i889 = phi i8 [ %133, %if.then.i4.i.i884 ], [ %call.i.i.i887, %if.end.i.i.i888 ]
  %call1.i890 = tail call noundef nonnull align 8 dereferenceable(8) ptr @_ZNSo3putEc(ptr noundef nonnull align 8 dereferenceable(8) %call2.i421, i8 noundef signext %retval.0.i.i.i889)
  %call.i.i891 = tail call noundef nonnull align 8 dereferenceable(8) ptr @_ZNSo5flushEv(ptr noundef nonnull align 8 dereferenceable(8) %call1.i890)
  br label %if.end119

if.end119:                                        ; preds = %_ZSt4endlIcSt11char_traitsIcEERSt13basic_ostreamIT_T0_ES6_.exit892, %_ZSt4endlIcSt11char_traitsIcEERSt13basic_ostreamIT_T0_ES6_.exit852
  store i32 2, ptr %ierr, align 4, !tbaa !39
  br label %cleanup.cont

if.end120:                                        ; preds = %if.end75
  %cmp122 = icmp sgt i32 %conv20, 0
  br i1 %cmp122, label %if.then123, label %if.end159

if.then123:                                       ; preds = %if.end120
  %add = add nsw i32 %conv77, 1
  %cmp125.not = icmp eq i32 %add, %conv20
  br i1 %cmp125.not, label %if.end159, label %if.then126

if.then126:                                       ; preds = %if.then123
  %add.ptr127 = getelementptr inbounds i8, ptr %serr, i64 16
  %vtable.i893 = load ptr, ptr %add.ptr127, align 8, !tbaa !42
  %vbase.offset.ptr.i894 = getelementptr i8, ptr %vtable.i893, i64 -24
  %vbase.offset.i895 = load i64, ptr %vbase.offset.ptr.i894, align 8
  %add.ptr.i896 = getelementptr inbounds i8, ptr %add.ptr127, i64 %vbase.offset.i895
  %_M_ctype.i.i897 = getelementptr inbounds %"class.std::basic_ios", ptr %add.ptr.i896, i64 0, i32 5
  %135 = load ptr, ptr %_M_ctype.i.i897, align 8, !tbaa !44
  %tobool.not.i.i.i898 = icmp eq ptr %135, null
  br i1 %tobool.not.i.i.i898, label %if.then.i.i.i899, label %_ZSt13__check_facetISt5ctypeIcEERKT_PS3_.exit.i.i902

if.then.i.i.i899:                                 ; preds = %if.then126
  tail call void @_ZSt16__throw_bad_castv() #18
  unreachable

_ZSt13__check_facetISt5ctypeIcEERKT_PS3_.exit.i.i902: ; preds = %if.then126
  %_M_widen_ok.i.i.i900 = getelementptr inbounds %"class.std::ctype", ptr %135, i64 0, i32 8
  %136 = load i8, ptr %_M_widen_ok.i.i.i900, align 8, !tbaa !51
  %tobool.not.i3.i.i901 = icmp eq i8 %136, 0
  br i1 %tobool.not.i3.i.i901, label %if.end.i.i.i908, label %if.then.i4.i.i904

if.then.i4.i.i904:                                ; preds = %_ZSt13__check_facetISt5ctypeIcEERKT_PS3_.exit.i.i902
  %arrayidx.i.i.i903 = getelementptr inbounds %"class.std::ctype", ptr %135, i64 0, i32 9, i64 10
  %137 = load i8, ptr %arrayidx.i.i.i903, align 1, !tbaa !13
  br label %_ZSt4endlIcSt11char_traitsIcEERSt13basic_ostreamIT_T0_ES6_.exit912

if.end.i.i.i908:                                  ; preds = %_ZSt13__check_facetISt5ctypeIcEERKT_PS3_.exit.i.i902
  tail call void @_ZNKSt5ctypeIcE13_M_widen_initEv(ptr noundef nonnull align 8 dereferenceable(570) %135)
  %vtable.i.i.i905 = load ptr, ptr %135, align 8, !tbaa !42
  %vfn.i.i.i906 = getelementptr inbounds ptr, ptr %vtable.i.i.i905, i64 6
  %138 = load ptr, ptr %vfn.i.i.i906, align 8
  %call.i.i.i907 = tail call noundef signext i8 %138(ptr noundef nonnull align 8 dereferenceable(570) %135, i8 noundef signext 10)
  br label %_ZSt4endlIcSt11char_traitsIcEERSt13basic_ostreamIT_T0_ES6_.exit912

_ZSt4endlIcSt11char_traitsIcEERSt13basic_ostreamIT_T0_ES6_.exit912: ; preds = %if.then.i4.i.i904, %if.end.i.i.i908
  %retval.0.i.i.i909 = phi i8 [ %137, %if.then.i4.i.i904 ], [ %call.i.i.i907, %if.end.i.i.i908 ]
  %call1.i910 = tail call noundef nonnull align 8 dereferenceable(8) ptr @_ZNSo3putEc(ptr noundef nonnull align 8 dereferenceable(8) %add.ptr127, i8 noundef signext %retval.0.i.i.i909)
  %call.i.i911 = tail call noundef nonnull align 8 dereferenceable(8) ptr @_ZNSo5flushEv(ptr noundef nonnull align 8 dereferenceable(8) %call1.i910)
  %call1.i425 = tail call noundef nonnull align 8 dereferenceable(8) ptr @_ZSt16__ostream_insertIcSt11char_traitsIcEERSt13basic_ostreamIT_T0_ES6_PKS3_l(ptr noundef nonnull align 8 dereferenceable(8) %add.ptr127, ptr noundef nonnull @.str.3, i64 noundef 24)
  %call131 = tail call noundef nonnull align 8 dereferenceable(8) ptr @_ZNSolsEi(ptr noundef nonnull align 8 dereferenceable(8) %add.ptr127, i32 noundef %file_lnum)
  %call1.i427 = tail call noundef nonnull align 8 dereferenceable(8) ptr @_ZSt16__ostream_insertIcSt11char_traitsIcEERSt13basic_ostreamIT_T0_ES6_PKS3_l(ptr noundef nonnull align 8 dereferenceable(8) %call131, ptr noundef nonnull @.str.4, i64 noundef 1)
  %vtable.i913 = load ptr, ptr %call131, align 8, !tbaa !42
  %vbase.offset.ptr.i914 = getelementptr i8, ptr %vtable.i913, i64 -24
  %vbase.offset.i915 = load i64, ptr %vbase.offset.ptr.i914, align 8
  %add.ptr.i916 = getelementptr inbounds i8, ptr %call131, i64 %vbase.offset.i915
  %_M_ctype.i.i917 = getelementptr inbounds %"class.std::basic_ios", ptr %add.ptr.i916, i64 0, i32 5
  %139 = load ptr, ptr %_M_ctype.i.i917, align 8, !tbaa !44
  %tobool.not.i.i.i918 = icmp eq ptr %139, null
  br i1 %tobool.not.i.i.i918, label %if.then.i.i.i919, label %_ZSt13__check_facetISt5ctypeIcEERKT_PS3_.exit.i.i922

if.then.i.i.i919:                                 ; preds = %_ZSt4endlIcSt11char_traitsIcEERSt13basic_ostreamIT_T0_ES6_.exit912
  tail call void @_ZSt16__throw_bad_castv() #18
  unreachable

_ZSt13__check_facetISt5ctypeIcEERKT_PS3_.exit.i.i922: ; preds = %_ZSt4endlIcSt11char_traitsIcEERSt13basic_ostreamIT_T0_ES6_.exit912
  %_M_widen_ok.i.i.i920 = getelementptr inbounds %"class.std::ctype", ptr %139, i64 0, i32 8
  %140 = load i8, ptr %_M_widen_ok.i.i.i920, align 8, !tbaa !51
  %tobool.not.i3.i.i921 = icmp eq i8 %140, 0
  br i1 %tobool.not.i3.i.i921, label %if.end.i.i.i928, label %if.then.i4.i.i924

if.then.i4.i.i924:                                ; preds = %_ZSt13__check_facetISt5ctypeIcEERKT_PS3_.exit.i.i922
  %arrayidx.i.i.i923 = getelementptr inbounds %"class.std::ctype", ptr %139, i64 0, i32 9, i64 10
  %141 = load i8, ptr %arrayidx.i.i.i923, align 1, !tbaa !13
  br label %_ZSt4endlIcSt11char_traitsIcEERSt13basic_ostreamIT_T0_ES6_.exit932

if.end.i.i.i928:                                  ; preds = %_ZSt13__check_facetISt5ctypeIcEERKT_PS3_.exit.i.i922
  tail call void @_ZNKSt5ctypeIcE13_M_widen_initEv(ptr noundef nonnull align 8 dereferenceable(570) %139)
  %vtable.i.i.i925 = load ptr, ptr %139, align 8, !tbaa !42
  %vfn.i.i.i926 = getelementptr inbounds ptr, ptr %vtable.i.i.i925, i64 6
  %142 = load ptr, ptr %vfn.i.i.i926, align 8
  %call.i.i.i927 = tail call noundef signext i8 %142(ptr noundef nonnull align 8 dereferenceable(570) %139, i8 noundef signext 10)
  br label %_ZSt4endlIcSt11char_traitsIcEERSt13basic_ostreamIT_T0_ES6_.exit932

_ZSt4endlIcSt11char_traitsIcEERSt13basic_ostreamIT_T0_ES6_.exit932: ; preds = %if.then.i4.i.i924, %if.end.i.i.i928
  %retval.0.i.i.i929 = phi i8 [ %141, %if.then.i4.i.i924 ], [ %call.i.i.i927, %if.end.i.i.i928 ]
  %call1.i930 = tail call noundef nonnull align 8 dereferenceable(8) ptr @_ZNSo3putEc(ptr noundef nonnull align 8 dereferenceable(8) %call131, i8 noundef signext %retval.0.i.i.i929)
  %call.i.i931 = tail call noundef nonnull align 8 dereferenceable(8) ptr @_ZNSo5flushEv(ptr noundef nonnull align 8 dereferenceable(8) %call1.i930)
  %call1.i430 = tail call noundef nonnull align 8 dereferenceable(8) ptr @_ZSt16__ostream_insertIcSt11char_traitsIcEERSt13basic_ostreamIT_T0_ES6_PKS3_l(ptr noundef nonnull align 8 dereferenceable(8) %add.ptr127, ptr noundef nonnull @.str.5, i64 noundef 4)
  %sub136 = add nsw i32 %lnum, -1
  %conv137 = sext i32 %sub136 to i64
  %_M_start.i431 = getelementptr inbounds %"struct.std::_Deque_base<std::__cxx11::basic_string<char>, std::allocator<std::__cxx11::basic_string<char>>>::_Deque_impl_data", ptr %lines, i64 0, i32 2
  %143 = load ptr, ptr %_M_start.i431, align 8, !tbaa !54, !noalias !74
  %_M_first3.i.i.i.i432 = getelementptr inbounds %"struct.std::_Deque_base<std::__cxx11::basic_string<char>, std::allocator<std::__cxx11::basic_string<char>>>::_Deque_impl_data", ptr %lines, i64 0, i32 2, i32 1
  %144 = load ptr, ptr %_M_first3.i.i.i.i432, align 8, !tbaa !59, !noalias !74
  %sub.ptr.lhs.cast.i.i.i.i433 = ptrtoint ptr %143 to i64
  %sub.ptr.rhs.cast.i.i.i.i434 = ptrtoint ptr %144 to i64
  %sub.ptr.sub.i.i.i.i435 = sub i64 %sub.ptr.lhs.cast.i.i.i.i433, %sub.ptr.rhs.cast.i.i.i.i434
  %sub.ptr.div.i.i.i.i436 = ashr exact i64 %sub.ptr.sub.i.i.i.i435, 5
  %add.i.i.i.i437 = add nsw i64 %sub.ptr.div.i.i.i.i436, %conv137
  %or.cond.i.i.i.i438 = icmp ult i64 %add.i.i.i.i437, 16
  br i1 %or.cond.i.i.i.i438, label %if.then.i.i.i.i440, label %if.else.i.i.i.i450

if.then.i.i.i.i440:                               ; preds = %_ZSt4endlIcSt11char_traitsIcEERSt13basic_ostreamIT_T0_ES6_.exit932
  %add.ptr.i.i.i.i439 = getelementptr inbounds %"class.std::__cxx11::basic_string", ptr %143, i64 %conv137
  br label %_ZNSt5dequeINSt7__cxx1112basic_stringIcSt11char_traitsIcESaIcEEESaIS5_EEixEm.exit452

if.else.i.i.i.i450:                               ; preds = %_ZSt4endlIcSt11char_traitsIcEERSt13basic_ostreamIT_T0_ES6_.exit932
  %_M_node5.i.i.i.i441 = getelementptr inbounds %"struct.std::_Deque_base<std::__cxx11::basic_string<char>, std::allocator<std::__cxx11::basic_string<char>>>::_Deque_impl_data", ptr %lines, i64 0, i32 2, i32 3
  %145 = load ptr, ptr %_M_node5.i.i.i.i441, align 8, !tbaa !60, !noalias !74
  %cmp4.i.i.i.i442 = icmp sgt i64 %add.i.i.i.i437, 0
  %div2627.i.i.i.i443 = lshr i64 %add.i.i.i.i437, 4
  %sub1025.i.i.i.i444 = or i64 %div2627.i.i.i.i443, -1152921504606846976
  %cond.i.i.i.i445 = select i1 %cmp4.i.i.i.i442, i64 %div2627.i.i.i.i443, i64 %sub1025.i.i.i.i444
  %add.ptr11.i.i.i.i446 = getelementptr inbounds ptr, ptr %145, i64 %cond.i.i.i.i445
  %146 = load ptr, ptr %add.ptr11.i.i.i.i446, align 8, !tbaa !16, !noalias !74
  %mul.i.i.i.i447 = shl nsw i64 %cond.i.i.i.i445, 4
  %sub14.i.i.i.i448 = sub nsw i64 %add.i.i.i.i437, %mul.i.i.i.i447
  %add.ptr15.i.i.i.i449 = getelementptr inbounds %"class.std::__cxx11::basic_string", ptr %146, i64 %sub14.i.i.i.i448
  br label %_ZNSt5dequeINSt7__cxx1112basic_stringIcSt11char_traitsIcESaIcEEESaIS5_EEixEm.exit452

_ZNSt5dequeINSt7__cxx1112basic_stringIcSt11char_traitsIcESaIcEEESaIS5_EEixEm.exit452: ; preds = %if.then.i.i.i.i440, %if.else.i.i.i.i450
  %storemerge.i.i.i.i451 = phi ptr [ %add.ptr15.i.i.i.i449, %if.else.i.i.i.i450 ], [ %add.ptr.i.i.i.i439, %if.then.i.i.i.i440 ]
  %147 = load ptr, ptr %storemerge.i.i.i.i451, align 8, !tbaa !15
  %_M_string_length.i.i453 = getelementptr inbounds %"class.std::__cxx11::basic_string", ptr %storemerge.i.i.i.i451, i64 0, i32 1
  %148 = load i64, ptr %_M_string_length.i.i453, align 8, !tbaa !10
  %call2.i454 = tail call noundef nonnull align 8 dereferenceable(8) ptr @_ZSt16__ostream_insertIcSt11char_traitsIcEERSt13basic_ostreamIT_T0_ES6_PKS3_l(ptr noundef nonnull align 8 dereferenceable(8) %add.ptr127, ptr noundef %147, i64 noundef %148)
  %vtable.i933 = load ptr, ptr %call2.i454, align 8, !tbaa !42
  %vbase.offset.ptr.i934 = getelementptr i8, ptr %vtable.i933, i64 -24
  %vbase.offset.i935 = load i64, ptr %vbase.offset.ptr.i934, align 8
  %add.ptr.i936 = getelementptr inbounds i8, ptr %call2.i454, i64 %vbase.offset.i935
  %_M_ctype.i.i937 = getelementptr inbounds %"class.std::basic_ios", ptr %add.ptr.i936, i64 0, i32 5
  %149 = load ptr, ptr %_M_ctype.i.i937, align 8, !tbaa !44
  %tobool.not.i.i.i938 = icmp eq ptr %149, null
  br i1 %tobool.not.i.i.i938, label %if.then.i.i.i939, label %_ZSt13__check_facetISt5ctypeIcEERKT_PS3_.exit.i.i942

if.then.i.i.i939:                                 ; preds = %_ZNSt5dequeINSt7__cxx1112basic_stringIcSt11char_traitsIcESaIcEEESaIS5_EEixEm.exit452
  tail call void @_ZSt16__throw_bad_castv() #18
  unreachable

_ZSt13__check_facetISt5ctypeIcEERKT_PS3_.exit.i.i942: ; preds = %_ZNSt5dequeINSt7__cxx1112basic_stringIcSt11char_traitsIcESaIcEEESaIS5_EEixEm.exit452
  %_M_widen_ok.i.i.i940 = getelementptr inbounds %"class.std::ctype", ptr %149, i64 0, i32 8
  %150 = load i8, ptr %_M_widen_ok.i.i.i940, align 8, !tbaa !51
  %tobool.not.i3.i.i941 = icmp eq i8 %150, 0
  br i1 %tobool.not.i3.i.i941, label %if.end.i.i.i948, label %if.then.i4.i.i944

if.then.i4.i.i944:                                ; preds = %_ZSt13__check_facetISt5ctypeIcEERKT_PS3_.exit.i.i942
  %arrayidx.i.i.i943 = getelementptr inbounds %"class.std::ctype", ptr %149, i64 0, i32 9, i64 10
  %151 = load i8, ptr %arrayidx.i.i.i943, align 1, !tbaa !13
  br label %_ZSt4endlIcSt11char_traitsIcEERSt13basic_ostreamIT_T0_ES6_.exit952

if.end.i.i.i948:                                  ; preds = %_ZSt13__check_facetISt5ctypeIcEERKT_PS3_.exit.i.i942
  tail call void @_ZNKSt5ctypeIcE13_M_widen_initEv(ptr noundef nonnull align 8 dereferenceable(570) %149)
  %vtable.i.i.i945 = load ptr, ptr %149, align 8, !tbaa !42
  %vfn.i.i.i946 = getelementptr inbounds ptr, ptr %vtable.i.i.i945, i64 6
  %152 = load ptr, ptr %vfn.i.i.i946, align 8
  %call.i.i.i947 = tail call noundef signext i8 %152(ptr noundef nonnull align 8 dereferenceable(570) %149, i8 noundef signext 10)
  br label %_ZSt4endlIcSt11char_traitsIcEERSt13basic_ostreamIT_T0_ES6_.exit952

_ZSt4endlIcSt11char_traitsIcEERSt13basic_ostreamIT_T0_ES6_.exit952: ; preds = %if.then.i4.i.i944, %if.end.i.i.i948
  %retval.0.i.i.i949 = phi i8 [ %151, %if.then.i4.i.i944 ], [ %call.i.i.i947, %if.end.i.i.i948 ]
  %call1.i950 = tail call noundef nonnull align 8 dereferenceable(8) ptr @_ZNSo3putEc(ptr noundef nonnull align 8 dereferenceable(8) %call2.i454, i8 noundef signext %retval.0.i.i.i949)
  %call.i.i951 = tail call noundef nonnull align 8 dereferenceable(8) ptr @_ZNSo5flushEv(ptr noundef nonnull align 8 dereferenceable(8) %call1.i950)
  %call1.i457 = tail call noundef nonnull align 8 dereferenceable(8) ptr @_ZSt16__ostream_insertIcSt11char_traitsIcEERSt13basic_ostreamIT_T0_ES6_PKS3_l(ptr noundef nonnull align 8 dereferenceable(8) %add.ptr127, ptr noundef nonnull @.str.6, i64 noundef 9)
  %153 = load ptr, ptr %fname, align 8, !tbaa !15
  %_M_string_length.i.i458 = getelementptr inbounds %"class.std::__cxx11::basic_string", ptr %fname, i64 0, i32 1
  %154 = load i64, ptr %_M_string_length.i.i458, align 8, !tbaa !10
  %call2.i459 = tail call noundef nonnull align 8 dereferenceable(8) ptr @_ZSt16__ostream_insertIcSt11char_traitsIcEERSt13basic_ostreamIT_T0_ES6_PKS3_l(ptr noundef nonnull align 8 dereferenceable(8) %add.ptr127, ptr noundef %153, i64 noundef %154)
  %vtable.i953 = load ptr, ptr %call2.i459, align 8, !tbaa !42
  %vbase.offset.ptr.i954 = getelementptr i8, ptr %vtable.i953, i64 -24
  %vbase.offset.i955 = load i64, ptr %vbase.offset.ptr.i954, align 8
  %add.ptr.i956 = getelementptr inbounds i8, ptr %call2.i459, i64 %vbase.offset.i955
  %_M_ctype.i.i957 = getelementptr inbounds %"class.std::basic_ios", ptr %add.ptr.i956, i64 0, i32 5
  %155 = load ptr, ptr %_M_ctype.i.i957, align 8, !tbaa !44
  %tobool.not.i.i.i958 = icmp eq ptr %155, null
  br i1 %tobool.not.i.i.i958, label %if.then.i.i.i959, label %_ZSt13__check_facetISt5ctypeIcEERKT_PS3_.exit.i.i962

if.then.i.i.i959:                                 ; preds = %_ZSt4endlIcSt11char_traitsIcEERSt13basic_ostreamIT_T0_ES6_.exit952
  tail call void @_ZSt16__throw_bad_castv() #18
  unreachable

_ZSt13__check_facetISt5ctypeIcEERKT_PS3_.exit.i.i962: ; preds = %_ZSt4endlIcSt11char_traitsIcEERSt13basic_ostreamIT_T0_ES6_.exit952
  %_M_widen_ok.i.i.i960 = getelementptr inbounds %"class.std::ctype", ptr %155, i64 0, i32 8
  %156 = load i8, ptr %_M_widen_ok.i.i.i960, align 8, !tbaa !51
  %tobool.not.i3.i.i961 = icmp eq i8 %156, 0
  br i1 %tobool.not.i3.i.i961, label %if.end.i.i.i968, label %if.then.i4.i.i964

if.then.i4.i.i964:                                ; preds = %_ZSt13__check_facetISt5ctypeIcEERKT_PS3_.exit.i.i962
  %arrayidx.i.i.i963 = getelementptr inbounds %"class.std::ctype", ptr %155, i64 0, i32 9, i64 10
  %157 = load i8, ptr %arrayidx.i.i.i963, align 1, !tbaa !13
  br label %_ZSt4endlIcSt11char_traitsIcEERSt13basic_ostreamIT_T0_ES6_.exit972

if.end.i.i.i968:                                  ; preds = %_ZSt13__check_facetISt5ctypeIcEERKT_PS3_.exit.i.i962
  tail call void @_ZNKSt5ctypeIcE13_M_widen_initEv(ptr noundef nonnull align 8 dereferenceable(570) %155)
  %vtable.i.i.i965 = load ptr, ptr %155, align 8, !tbaa !42
  %vfn.i.i.i966 = getelementptr inbounds ptr, ptr %vtable.i.i.i965, i64 6
  %158 = load ptr, ptr %vfn.i.i.i966, align 8
  %call.i.i.i967 = tail call noundef signext i8 %158(ptr noundef nonnull align 8 dereferenceable(570) %155, i8 noundef signext 10)
  br label %_ZSt4endlIcSt11char_traitsIcEERSt13basic_ostreamIT_T0_ES6_.exit972

_ZSt4endlIcSt11char_traitsIcEERSt13basic_ostreamIT_T0_ES6_.exit972: ; preds = %if.then.i4.i.i964, %if.end.i.i.i968
  %retval.0.i.i.i969 = phi i8 [ %157, %if.then.i4.i.i964 ], [ %call.i.i.i967, %if.end.i.i.i968 ]
  %call1.i970 = tail call noundef nonnull align 8 dereferenceable(8) ptr @_ZNSo3putEc(ptr noundef nonnull align 8 dereferenceable(8) %call2.i459, i8 noundef signext %retval.0.i.i.i969)
  %call.i.i971 = tail call noundef nonnull align 8 dereferenceable(8) ptr @_ZNSo5flushEv(ptr noundef nonnull align 8 dereferenceable(8) %call1.i970)
  %call1.i462 = tail call noundef nonnull align 8 dereferenceable(8) ptr @_ZSt16__ostream_insertIcSt11char_traitsIcEERSt13basic_ostreamIT_T0_ES6_PKS3_l(ptr noundef nonnull align 8 dereferenceable(8) %add.ptr127, ptr noundef nonnull @.str.14, i64 noundef 23)
  %159 = load i32, ptr %ndim, align 8, !tbaa !20
  %call148 = tail call noundef nonnull align 8 dereferenceable(8) ptr @_ZNSolsEi(ptr noundef nonnull align 8 dereferenceable(8) %add.ptr127, i32 noundef %159)
  %vtable.i973 = load ptr, ptr %call148, align 8, !tbaa !42
  %vbase.offset.ptr.i974 = getelementptr i8, ptr %vtable.i973, i64 -24
  %vbase.offset.i975 = load i64, ptr %vbase.offset.ptr.i974, align 8
  %add.ptr.i976 = getelementptr inbounds i8, ptr %call148, i64 %vbase.offset.i975
  %_M_ctype.i.i977 = getelementptr inbounds %"class.std::basic_ios", ptr %add.ptr.i976, i64 0, i32 5
  %160 = load ptr, ptr %_M_ctype.i.i977, align 8, !tbaa !44
  %tobool.not.i.i.i978 = icmp eq ptr %160, null
  br i1 %tobool.not.i.i.i978, label %if.then.i.i.i979, label %_ZSt13__check_facetISt5ctypeIcEERKT_PS3_.exit.i.i982

if.then.i.i.i979:                                 ; preds = %_ZSt4endlIcSt11char_traitsIcEERSt13basic_ostreamIT_T0_ES6_.exit972
  tail call void @_ZSt16__throw_bad_castv() #18
  unreachable

_ZSt13__check_facetISt5ctypeIcEERKT_PS3_.exit.i.i982: ; preds = %_ZSt4endlIcSt11char_traitsIcEERSt13basic_ostreamIT_T0_ES6_.exit972
  %_M_widen_ok.i.i.i980 = getelementptr inbounds %"class.std::ctype", ptr %160, i64 0, i32 8
  %161 = load i8, ptr %_M_widen_ok.i.i.i980, align 8, !tbaa !51
  %tobool.not.i3.i.i981 = icmp eq i8 %161, 0
  br i1 %tobool.not.i3.i.i981, label %if.end.i.i.i988, label %if.then.i4.i.i984

if.then.i4.i.i984:                                ; preds = %_ZSt13__check_facetISt5ctypeIcEERKT_PS3_.exit.i.i982
  %arrayidx.i.i.i983 = getelementptr inbounds %"class.std::ctype", ptr %160, i64 0, i32 9, i64 10
  %162 = load i8, ptr %arrayidx.i.i.i983, align 1, !tbaa !13
  br label %_ZSt4endlIcSt11char_traitsIcEERSt13basic_ostreamIT_T0_ES6_.exit992

if.end.i.i.i988:                                  ; preds = %_ZSt13__check_facetISt5ctypeIcEERKT_PS3_.exit.i.i982
  tail call void @_ZNKSt5ctypeIcE13_M_widen_initEv(ptr noundef nonnull align 8 dereferenceable(570) %160)
  %vtable.i.i.i985 = load ptr, ptr %160, align 8, !tbaa !42
  %vfn.i.i.i986 = getelementptr inbounds ptr, ptr %vtable.i.i.i985, i64 6
  %163 = load ptr, ptr %vfn.i.i.i986, align 8
  %call.i.i.i987 = tail call noundef signext i8 %163(ptr noundef nonnull align 8 dereferenceable(570) %160, i8 noundef signext 10)
  br label %_ZSt4endlIcSt11char_traitsIcEERSt13basic_ostreamIT_T0_ES6_.exit992

_ZSt4endlIcSt11char_traitsIcEERSt13basic_ostreamIT_T0_ES6_.exit992: ; preds = %if.then.i4.i.i984, %if.end.i.i.i988
  %retval.0.i.i.i989 = phi i8 [ %162, %if.then.i4.i.i984 ], [ %call.i.i.i987, %if.end.i.i.i988 ]
  %call1.i990 = tail call noundef nonnull align 8 dereferenceable(8) ptr @_ZNSo3putEc(ptr noundef nonnull align 8 dereferenceable(8) %call148, i8 noundef signext %retval.0.i.i.i989)
  %call.i.i991 = tail call noundef nonnull align 8 dereferenceable(8) ptr @_ZNSo5flushEv(ptr noundef nonnull align 8 dereferenceable(8) %call1.i990)
  %call1.i465 = tail call noundef nonnull align 8 dereferenceable(8) ptr @_ZSt16__ostream_insertIcSt11char_traitsIcEERSt13basic_ostreamIT_T0_ES6_PKS3_l(ptr noundef nonnull align 8 dereferenceable(8) %add.ptr127, ptr noundef nonnull @.str.15, i64 noundef 33)
  %call153 = tail call noundef nonnull align 8 dereferenceable(8) ptr @_ZNSolsEi(ptr noundef nonnull align 8 dereferenceable(8) %add.ptr127, i32 noundef %add)
  %vtable.i993 = load ptr, ptr %call153, align 8, !tbaa !42
  %vbase.offset.ptr.i994 = getelementptr i8, ptr %vtable.i993, i64 -24
  %vbase.offset.i995 = load i64, ptr %vbase.offset.ptr.i994, align 8
  %add.ptr.i996 = getelementptr inbounds i8, ptr %call153, i64 %vbase.offset.i995
  %_M_ctype.i.i997 = getelementptr inbounds %"class.std::basic_ios", ptr %add.ptr.i996, i64 0, i32 5
  %164 = load ptr, ptr %_M_ctype.i.i997, align 8, !tbaa !44
  %tobool.not.i.i.i998 = icmp eq ptr %164, null
  br i1 %tobool.not.i.i.i998, label %if.then.i.i.i999, label %_ZSt13__check_facetISt5ctypeIcEERKT_PS3_.exit.i.i1002

if.then.i.i.i999:                                 ; preds = %_ZSt4endlIcSt11char_traitsIcEERSt13basic_ostreamIT_T0_ES6_.exit992
  tail call void @_ZSt16__throw_bad_castv() #18
  unreachable

_ZSt13__check_facetISt5ctypeIcEERKT_PS3_.exit.i.i1002: ; preds = %_ZSt4endlIcSt11char_traitsIcEERSt13basic_ostreamIT_T0_ES6_.exit992
  %_M_widen_ok.i.i.i1000 = getelementptr inbounds %"class.std::ctype", ptr %164, i64 0, i32 8
  %165 = load i8, ptr %_M_widen_ok.i.i.i1000, align 8, !tbaa !51
  %tobool.not.i3.i.i1001 = icmp eq i8 %165, 0
  br i1 %tobool.not.i3.i.i1001, label %if.end.i.i.i1008, label %if.then.i4.i.i1004

if.then.i4.i.i1004:                               ; preds = %_ZSt13__check_facetISt5ctypeIcEERKT_PS3_.exit.i.i1002
  %arrayidx.i.i.i1003 = getelementptr inbounds %"class.std::ctype", ptr %164, i64 0, i32 9, i64 10
  %166 = load i8, ptr %arrayidx.i.i.i1003, align 1, !tbaa !13
  br label %_ZSt4endlIcSt11char_traitsIcEERSt13basic_ostreamIT_T0_ES6_.exit1012

if.end.i.i.i1008:                                 ; preds = %_ZSt13__check_facetISt5ctypeIcEERKT_PS3_.exit.i.i1002
  tail call void @_ZNKSt5ctypeIcE13_M_widen_initEv(ptr noundef nonnull align 8 dereferenceable(570) %164)
  %vtable.i.i.i1005 = load ptr, ptr %164, align 8, !tbaa !42
  %vfn.i.i.i1006 = getelementptr inbounds ptr, ptr %vtable.i.i.i1005, i64 6
  %167 = load ptr, ptr %vfn.i.i.i1006, align 8
  %call.i.i.i1007 = tail call noundef signext i8 %167(ptr noundef nonnull align 8 dereferenceable(570) %164, i8 noundef signext 10)
  br label %_ZSt4endlIcSt11char_traitsIcEERSt13basic_ostreamIT_T0_ES6_.exit1012

_ZSt4endlIcSt11char_traitsIcEERSt13basic_ostreamIT_T0_ES6_.exit1012: ; preds = %if.then.i4.i.i1004, %if.end.i.i.i1008
  %retval.0.i.i.i1009 = phi i8 [ %166, %if.then.i4.i.i1004 ], [ %call.i.i.i1007, %if.end.i.i.i1008 ]
  %call1.i1010 = tail call noundef nonnull align 8 dereferenceable(8) ptr @_ZNSo3putEc(ptr noundef nonnull align 8 dereferenceable(8) %call153, i8 noundef signext %retval.0.i.i.i1009)
  %call.i.i1011 = tail call noundef nonnull align 8 dereferenceable(8) ptr @_ZNSo5flushEv(ptr noundef nonnull align 8 dereferenceable(8) %call1.i1010)
  %call1.i468 = tail call noundef nonnull align 8 dereferenceable(8) ptr @_ZSt16__ostream_insertIcSt11char_traitsIcEERSt13basic_ostreamIT_T0_ES6_PKS3_l(ptr noundef nonnull align 8 dereferenceable(8) %add.ptr127, ptr noundef nonnull @.str.16, i64 noundef 30)
  %vtable.i1013 = load ptr, ptr %add.ptr127, align 8, !tbaa !42
  %vbase.offset.ptr.i1014 = getelementptr i8, ptr %vtable.i1013, i64 -24
  %vbase.offset.i1015 = load i64, ptr %vbase.offset.ptr.i1014, align 8
  %add.ptr.i1016 = getelementptr inbounds i8, ptr %add.ptr127, i64 %vbase.offset.i1015
  %_M_ctype.i.i1017 = getelementptr inbounds %"class.std::basic_ios", ptr %add.ptr.i1016, i64 0, i32 5
  %168 = load ptr, ptr %_M_ctype.i.i1017, align 8, !tbaa !44
  %tobool.not.i.i.i1018 = icmp eq ptr %168, null
  br i1 %tobool.not.i.i.i1018, label %if.then.i.i.i1019, label %_ZSt13__check_facetISt5ctypeIcEERKT_PS3_.exit.i.i1022

if.then.i.i.i1019:                                ; preds = %_ZSt4endlIcSt11char_traitsIcEERSt13basic_ostreamIT_T0_ES6_.exit1012
  tail call void @_ZSt16__throw_bad_castv() #18
  unreachable

_ZSt13__check_facetISt5ctypeIcEERKT_PS3_.exit.i.i1022: ; preds = %_ZSt4endlIcSt11char_traitsIcEERSt13basic_ostreamIT_T0_ES6_.exit1012
  %_M_widen_ok.i.i.i1020 = getelementptr inbounds %"class.std::ctype", ptr %168, i64 0, i32 8
  %169 = load i8, ptr %_M_widen_ok.i.i.i1020, align 8, !tbaa !51
  %tobool.not.i3.i.i1021 = icmp eq i8 %169, 0
  br i1 %tobool.not.i3.i.i1021, label %if.end.i.i.i1028, label %if.then.i4.i.i1024

if.then.i4.i.i1024:                               ; preds = %_ZSt13__check_facetISt5ctypeIcEERKT_PS3_.exit.i.i1022
  %arrayidx.i.i.i1023 = getelementptr inbounds %"class.std::ctype", ptr %168, i64 0, i32 9, i64 10
  %170 = load i8, ptr %arrayidx.i.i.i1023, align 1, !tbaa !13
  br label %_ZSt4endlIcSt11char_traitsIcEERSt13basic_ostreamIT_T0_ES6_.exit1032

if.end.i.i.i1028:                                 ; preds = %_ZSt13__check_facetISt5ctypeIcEERKT_PS3_.exit.i.i1022
  tail call void @_ZNKSt5ctypeIcE13_M_widen_initEv(ptr noundef nonnull align 8 dereferenceable(570) %168)
  %vtable.i.i.i1025 = load ptr, ptr %168, align 8, !tbaa !42
  %vfn.i.i.i1026 = getelementptr inbounds ptr, ptr %vtable.i.i.i1025, i64 6
  %171 = load ptr, ptr %vfn.i.i.i1026, align 8
  %call.i.i.i1027 = tail call noundef signext i8 %171(ptr noundef nonnull align 8 dereferenceable(570) %168, i8 noundef signext 10)
  br label %_ZSt4endlIcSt11char_traitsIcEERSt13basic_ostreamIT_T0_ES6_.exit1032

_ZSt4endlIcSt11char_traitsIcEERSt13basic_ostreamIT_T0_ES6_.exit1032: ; preds = %if.then.i4.i.i1024, %if.end.i.i.i1028
  %retval.0.i.i.i1029 = phi i8 [ %170, %if.then.i4.i.i1024 ], [ %call.i.i.i1027, %if.end.i.i.i1028 ]
  %call1.i1030 = tail call noundef nonnull align 8 dereferenceable(8) ptr @_ZNSo3putEc(ptr noundef nonnull align 8 dereferenceable(8) %add.ptr127, i8 noundef signext %retval.0.i.i.i1029)
  %call.i.i1031 = tail call noundef nonnull align 8 dereferenceable(8) ptr @_ZNSo5flushEv(ptr noundef nonnull align 8 dereferenceable(8) %call1.i1030)
  store i32 2, ptr %ierr, align 4, !tbaa !39
  br label %cleanup.cont

if.end159:                                        ; preds = %if.then123, %if.end120
  call void @llvm.lifetime.start.p0(i64 1, ptr nonnull %putils) #16
  %172 = load i32, ptr @_ZN2PPL10index_baseE, align 4, !tbaa !39
  call void @_ZN2PP12Parser_utilsC1Ei(ptr noundef nonnull align 1 dereferenceable(1) %putils, i32 noundef %172)
  %call161 = call noundef i32 @_ZN2PP12Parser_utils9start_dexERSt6vectorIiSaIiEERKS3_(ptr noundef nonnull align 1 dereferenceable(1) %putils, ptr noundef nonnull align 8 dereferenceable(24) %istart, ptr noundef nonnull align 8 dereferenceable(24) %maxdim)
  %_M_finish.i470 = getelementptr inbounds %"struct.std::_Vector_base<std::__cxx11::basic_string<char>, std::allocator<std::__cxx11::basic_string<char>>>::_Vector_impl_data", ptr %valvec, i64 0, i32 1
  %173 = load ptr, ptr %_M_finish.i470, align 8, !tbaa !19
  %174 = load ptr, ptr %valvec, align 8, !tbaa !36
  %sub.ptr.lhs.cast.i471 = ptrtoint ptr %173 to i64
  %sub.ptr.rhs.cast.i472 = ptrtoint ptr %174 to i64
  %sub.ptr.sub.i473 = sub i64 %sub.ptr.lhs.cast.i471, %sub.ptr.rhs.cast.i472
  %175 = lshr exact i64 %sub.ptr.sub.i473, 5
  %conv163 = trunc i64 %175 to i32
  %add164 = add nsw i32 %call161, %conv163
  %value = getelementptr inbounds %"class.PP::Variable", ptr %this, i64 0, i32 1
  %_M_finish.i475 = getelementptr inbounds %"class.PP::Variable", ptr %this, i64 0, i32 1, i32 0, i32 0, i32 0, i32 1
  %176 = load ptr, ptr %_M_finish.i475, align 8, !tbaa !16
  %177 = load ptr, ptr %value, align 8, !tbaa !36
  %sub.ptr.lhs.cast.i476 = ptrtoint ptr %176 to i64
  %sub.ptr.rhs.cast.i477 = ptrtoint ptr %177 to i64
  %sub.ptr.sub.i478 = sub i64 %sub.ptr.lhs.cast.i476, %sub.ptr.rhs.cast.i477
  %178 = lshr exact i64 %sub.ptr.sub.i478, 5
  %conv166 = trunc i64 %178 to i32
  %cmp167 = icmp sgt i32 %add164, %conv166
  br i1 %cmp167, label %if.then168, label %if.end177

if.then168:                                       ; preds = %if.end159
  %conv171 = sext i32 %add164 to i64
  call void @llvm.lifetime.start.p0(i64 32, ptr nonnull %ref.tmp) #16
  %179 = getelementptr inbounds %"class.std::__cxx11::basic_string", ptr %ref.tmp, i64 0, i32 2
  store ptr %179, ptr %ref.tmp, align 8, !tbaa !5
  %_M_string_length.i.i.i.i = getelementptr inbounds %"class.std::__cxx11::basic_string", ptr %ref.tmp, i64 0, i32 1
  store i64 0, ptr %_M_string_length.i.i.i.i, align 8, !tbaa !10
  store i8 0, ptr %179, align 8, !tbaa !13
  %sub.ptr.div.i.i = ashr exact i64 %sub.ptr.sub.i478, 5
  %cmp.i = icmp ult i64 %sub.ptr.div.i.i, %conv171
  br i1 %cmp.i, label %if.then.i, label %if.else.i

if.then.i:                                        ; preds = %if.then168
  %sub.i = sub nsw i64 %conv171, %sub.ptr.div.i.i
  invoke void @_ZNSt6vectorINSt7__cxx1112basic_stringIcSt11char_traitsIcESaIcEEESaIS5_EE14_M_fill_insertEN9__gnu_cxx17__normal_iteratorIPS5_S7_EEmRKS5_(ptr noundef nonnull align 8 dereferenceable(24) %value, ptr %176, i64 noundef %sub.i, ptr noundef nonnull align 8 dereferenceable(32) %ref.tmp)
          to label %invoke.cont174 unwind label %lpad173

if.else.i:                                        ; preds = %if.then168
  %cmp6.i = icmp ugt i64 %sub.ptr.div.i.i, %conv171
  br i1 %cmp6.i, label %if.then7.i, label %invoke.cont174

if.then7.i:                                       ; preds = %if.else.i
  %add.ptr.i = getelementptr inbounds %"class.std::__cxx11::basic_string", ptr %177, i64 %conv171
  %tobool.not.i.i = icmp eq ptr %176, %add.ptr.i
  br i1 %tobool.not.i.i, label %invoke.cont174, label %for.body.i.i.i.i.i

for.body.i.i.i.i.i:                               ; preds = %if.then7.i, %_ZSt8_DestroyINSt7__cxx1112basic_stringIcSt11char_traitsIcESaIcEEEEvPT_.exit.i.i.i.i.i
  %__first.addr.04.i.i.i.i.i = phi ptr [ %incdec.ptr.i.i.i.i.i, %_ZSt8_DestroyINSt7__cxx1112basic_stringIcSt11char_traitsIcESaIcEEEEvPT_.exit.i.i.i.i.i ], [ %add.ptr.i, %if.then7.i ]
  %180 = load ptr, ptr %__first.addr.04.i.i.i.i.i, align 8, !tbaa !15
  %181 = getelementptr inbounds %"class.std::__cxx11::basic_string", ptr %__first.addr.04.i.i.i.i.i, i64 0, i32 2
  %cmp.i.i.i.i.i.i.i.i.i = icmp eq ptr %180, %181
  br i1 %cmp.i.i.i.i.i.i.i.i.i, label %_ZSt8_DestroyINSt7__cxx1112basic_stringIcSt11char_traitsIcESaIcEEEEvPT_.exit.i.i.i.i.i, label %if.then.i.i.i.i.i.i.i.i

if.then.i.i.i.i.i.i.i.i:                          ; preds = %for.body.i.i.i.i.i
  call void @_ZdlPv(ptr noundef %180) #17
  br label %_ZSt8_DestroyINSt7__cxx1112basic_stringIcSt11char_traitsIcESaIcEEEEvPT_.exit.i.i.i.i.i

_ZSt8_DestroyINSt7__cxx1112basic_stringIcSt11char_traitsIcESaIcEEEEvPT_.exit.i.i.i.i.i: ; preds = %if.then.i.i.i.i.i.i.i.i, %for.body.i.i.i.i.i
  %incdec.ptr.i.i.i.i.i = getelementptr inbounds %"class.std::__cxx11::basic_string", ptr %__first.addr.04.i.i.i.i.i, i64 1
  %cmp.not.i.i.i.i.i = icmp eq ptr %incdec.ptr.i.i.i.i.i, %176
  br i1 %cmp.not.i.i.i.i.i, label %invoke.cont.i.i, label %for.body.i.i.i.i.i, !llvm.loop !37

invoke.cont.i.i:                                  ; preds = %_ZSt8_DestroyINSt7__cxx1112basic_stringIcSt11char_traitsIcESaIcEEEEvPT_.exit.i.i.i.i.i
  store ptr %add.ptr.i, ptr %_M_finish.i475, align 8, !tbaa !19
  br label %invoke.cont174

invoke.cont174:                                   ; preds = %invoke.cont.i.i, %if.then7.i, %if.else.i, %if.then.i
  %182 = load ptr, ptr %ref.tmp, align 8, !tbaa !15
  %cmp.i.i.i = icmp eq ptr %182, %179
  br i1 %cmp.i.i.i, label %_ZNSt7__cxx1112basic_stringIcSt11char_traitsIcESaIcEED2Ev.exit, label %if.then.i.i483

if.then.i.i483:                                   ; preds = %invoke.cont174
  call void @_ZdlPv(ptr noundef %182) #17
  br label %_ZNSt7__cxx1112basic_stringIcSt11char_traitsIcESaIcEED2Ev.exit

_ZNSt7__cxx1112basic_stringIcSt11char_traitsIcESaIcEED2Ev.exit: ; preds = %invoke.cont174, %if.then.i.i483
  call void @llvm.lifetime.end.p0(i64 32, ptr nonnull %ref.tmp) #16
  br label %if.end177

lpad173:                                          ; preds = %if.then.i
  %183 = landingpad { ptr, i32 }
          cleanup
  %184 = load ptr, ptr %ref.tmp, align 8, !tbaa !15
  %cmp.i.i.i484 = icmp eq ptr %184, %179
  br i1 %cmp.i.i.i484, label %ehcleanup, label %if.then.i.i485

if.then.i.i485:                                   ; preds = %lpad173
  call void @_ZdlPv(ptr noundef %184) #17
  br label %ehcleanup

ehcleanup:                                        ; preds = %if.then.i.i485, %lpad173
  call void @llvm.lifetime.end.p0(i64 32, ptr nonnull %ref.tmp) #16
  call void @llvm.lifetime.end.p0(i64 1, ptr nonnull %putils) #16
  resume { ptr, i32 } %183

if.end177:                                        ; preds = %_ZNSt7__cxx1112basic_stringIcSt11char_traitsIcESaIcEED2Ev.exit, %if.end159
  %cmp1791034 = icmp sgt i32 %conv163, 0
  br i1 %cmp1791034, label %for.body.preheader, label %for.cond.cleanup

for.body.preheader:                               ; preds = %if.end177
  %185 = sext i32 %call161 to i64
  %186 = sext i32 %add164 to i64
  br label %for.body

for.cond.cleanup:                                 ; preds = %for.body, %if.end177
  call void @llvm.lifetime.end.p0(i64 1, ptr nonnull %putils) #16
  br label %cleanup.cont

for.body:                                         ; preds = %for.body.preheader, %for.body
  %indvars.iv = phi i64 [ %185, %for.body.preheader ], [ %indvars.iv.next, %for.body ]
  %187 = sub nsw i64 %indvars.iv, %185
  %188 = load ptr, ptr %valvec, align 8, !tbaa !36
  %add.ptr.i487 = getelementptr inbounds %"class.std::__cxx11::basic_string", ptr %188, i64 %187
  %189 = load ptr, ptr %value, align 8, !tbaa !36
  %add.ptr.i488 = getelementptr inbounds %"class.std::__cxx11::basic_string", ptr %189, i64 %indvars.iv
  call void @_ZNSt7__cxx1112basic_stringIcSt11char_traitsIcESaIcEE9_M_assignERKS4_(ptr noundef nonnull align 8 dereferenceable(32) %add.ptr.i488, ptr noundef nonnull align 8 dereferenceable(32) %add.ptr.i487)
  %indvars.iv.next = add nsw i64 %indvars.iv, 1
  %cmp179 = icmp slt i64 %indvars.iv.next, %186
  br i1 %cmp179, label %for.body, label %for.cond.cleanup, !llvm.loop !77

cleanup.cont:                                     ; preds = %if.end71, %for.cond.cleanup, %_ZSt4endlIcSt11char_traitsIcEERSt13basic_ostreamIT_T0_ES6_.exit1032, %if.end119, %_ZSt4endlIcSt11char_traitsIcEERSt13basic_ostreamIT_T0_ES6_.exit572
  ret void
}

declare noundef nonnull align 8 dereferenceable(8) ptr @_ZNSolsEi(ptr noundef nonnull align 8 dereferenceable(8), i32 noundef) local_unnamed_addr #0

declare void @_ZN2PP12Parser_utilsC1Ei(ptr noundef nonnull align 1 dereferenceable(1), i32 noundef) unnamed_addr #0

declare noundef i32 @_ZN2PP12Parser_utils9start_dexERSt6vectorIiSaIiEERKS3_(ptr noundef nonnull align 1 dereferenceable(1), ptr noundef nonnull align 8 dereferenceable(24), ptr noundef nonnull align 8 dereferenceable(24)) local_unnamed_addr #0

; Function Attrs: uwtable
define dso_local void @_ZN2PP8Variable8bump_varERSt6vectorIiSaIiEEiiiNSt7__cxx1112basic_stringIcSt11char_traitsIcESaIcEEEPSt5dequeISA_SaISA_EERNS5_18basic_stringstreamIcS8_S9_EERi(ptr noundef nonnull align 8 dereferenceable(136) %this, ptr noundef nonnull align 8 dereferenceable(24) %istart, i32 noundef %increment, i32 noundef %lnum, i32 noundef %file_lnum, ptr nocapture noundef readonly %fname, ptr noundef %lines, ptr noundef nonnull align 8 dereferenceable(128) %serr, ptr noundef nonnull align 4 dereferenceable(4) %ierr) local_unnamed_addr #3 align 2 personality ptr @__gxx_personality_v0 {
entry:
  %__dnew.i.i65 = alloca i64, align 8
  %__dnew.i.i = alloca i64, align 8
  %putils = alloca %"class.PP::Parser_utils", align 1
  %w1 = alloca %"class.PP::Word", align 8
  %agg.tmp = alloca %"class.std::__cxx11::basic_string", align 8
  %agg.tmp6 = alloca %"class.std::__cxx11::basic_string", align 8
  %ss = alloca %"class.std::__cxx11::basic_stringstream", align 8
  %ref.tmp = alloca %"class.std::__cxx11::basic_string", align 8
  call void @llvm.lifetime.start.p0(i64 1, ptr nonnull %putils) #16
  %0 = load i32, ptr @_ZN2PPL10index_baseE, align 4, !tbaa !39
  call void @_ZN2PP12Parser_utilsC1Ei(ptr noundef nonnull align 1 dereferenceable(1) %putils, i32 noundef %0)
  %maxdim = getelementptr inbounds %"class.PP::Variable", ptr %this, i64 0, i32 5
  %call = call noundef i32 @_ZN2PP12Parser_utils9start_dexERSt6vectorIiSaIiEERKS3_(ptr noundef nonnull align 1 dereferenceable(1) %putils, ptr noundef nonnull align 8 dereferenceable(24) %istart, ptr noundef nonnull align 8 dereferenceable(24) %maxdim)
  %value = getelementptr inbounds %"class.PP::Variable", ptr %this, i64 0, i32 1
  call void @llvm.lifetime.start.p0(i64 128, ptr nonnull %w1) #16
  %conv4 = sext i32 %call to i64
  %1 = load ptr, ptr %value, align 8, !tbaa !36
  %add.ptr.i = getelementptr inbounds %"class.std::__cxx11::basic_string", ptr %1, i64 %conv4
  %2 = getelementptr inbounds %"class.std::__cxx11::basic_string", ptr %agg.tmp, i64 0, i32 2
  store ptr %2, ptr %agg.tmp, align 8, !tbaa !5
  %3 = load ptr, ptr %add.ptr.i, align 8, !tbaa !15
  %_M_string_length.i.i = getelementptr inbounds %"class.std::__cxx11::basic_string", ptr %1, i64 %conv4, i32 1
  %4 = load i64, ptr %_M_string_length.i.i, align 8, !tbaa !10
  call void @llvm.lifetime.start.p0(i64 8, ptr nonnull %__dnew.i.i) #16
  store i64 %4, ptr %__dnew.i.i, align 8, !tbaa !14
  %cmp.i.i = icmp ugt i64 %4, 15
  br i1 %cmp.i.i, label %if.then.i.i, label %if.end.i.i

if.then.i.i:                                      ; preds = %entry
  %call2.i12.i = call noundef ptr @_ZNSt7__cxx1112basic_stringIcSt11char_traitsIcESaIcEE9_M_createERmm(ptr noundef nonnull align 8 dereferenceable(32) %agg.tmp, ptr noundef nonnull align 8 dereferenceable(8) %__dnew.i.i, i64 noundef 0)
  store ptr %call2.i12.i, ptr %agg.tmp, align 8, !tbaa !15
  %5 = load i64, ptr %__dnew.i.i, align 8, !tbaa !14
  store i64 %5, ptr %2, align 8, !tbaa !13
  br label %if.end.i.i

if.end.i.i:                                       ; preds = %if.then.i.i, %entry
  %6 = phi ptr [ %call2.i12.i, %if.then.i.i ], [ %2, %entry ]
  switch i64 %4, label %if.end.i.i.i.i.i [
    i64 1, label %if.then.i.i.i.i
    i64 0, label %_ZNSt7__cxx1112basic_stringIcSt11char_traitsIcESaIcEEC2ERKS4_.exit
  ]

if.then.i.i.i.i:                                  ; preds = %if.end.i.i
  %7 = load i8, ptr %3, align 1, !tbaa !13
  store i8 %7, ptr %6, align 1, !tbaa !13
  br label %_ZNSt7__cxx1112basic_stringIcSt11char_traitsIcESaIcEEC2ERKS4_.exit

if.end.i.i.i.i.i:                                 ; preds = %if.end.i.i
  call void @llvm.memcpy.p0.p0.i64(ptr align 1 %6, ptr align 1 %3, i64 %4, i1 false)
  br label %_ZNSt7__cxx1112basic_stringIcSt11char_traitsIcESaIcEEC2ERKS4_.exit

_ZNSt7__cxx1112basic_stringIcSt11char_traitsIcESaIcEEC2ERKS4_.exit: ; preds = %if.end.i.i, %if.then.i.i.i.i, %if.end.i.i.i.i.i
  %8 = load i64, ptr %__dnew.i.i, align 8, !tbaa !14
  %_M_string_length.i.i.i.i = getelementptr inbounds %"class.std::__cxx11::basic_string", ptr %agg.tmp, i64 0, i32 1
  store i64 %8, ptr %_M_string_length.i.i.i.i, align 8, !tbaa !10
  %9 = load ptr, ptr %agg.tmp, align 8, !tbaa !15
  %arrayidx.i.i.i = getelementptr inbounds i8, ptr %9, i64 %8
  store i8 0, ptr %arrayidx.i.i.i, align 1, !tbaa !13
  call void @llvm.lifetime.end.p0(i64 8, ptr nonnull %__dnew.i.i) #16
  %10 = getelementptr inbounds %"class.std::__cxx11::basic_string", ptr %agg.tmp6, i64 0, i32 2
  store ptr %10, ptr %agg.tmp6, align 8, !tbaa !5
  %11 = load ptr, ptr %fname, align 8, !tbaa !15
  %_M_string_length.i.i66 = getelementptr inbounds %"class.std::__cxx11::basic_string", ptr %fname, i64 0, i32 1
  %12 = load i64, ptr %_M_string_length.i.i66, align 8, !tbaa !10
  call void @llvm.lifetime.start.p0(i64 8, ptr nonnull %__dnew.i.i65) #16
  store i64 %12, ptr %__dnew.i.i65, align 8, !tbaa !14
  %cmp.i.i67 = icmp ugt i64 %12, 15
  br i1 %cmp.i.i67, label %if.then.i.i69, label %if.end.i.i70

if.then.i.i69:                                    ; preds = %_ZNSt7__cxx1112basic_stringIcSt11char_traitsIcESaIcEEC2ERKS4_.exit
  %call2.i12.i6875 = invoke noundef ptr @_ZNSt7__cxx1112basic_stringIcSt11char_traitsIcESaIcEE9_M_createERmm(ptr noundef nonnull align 8 dereferenceable(32) %agg.tmp6, ptr noundef nonnull align 8 dereferenceable(8) %__dnew.i.i65, i64 noundef 0)
          to label %call2.i12.i68.noexc unwind label %lpad

call2.i12.i68.noexc:                              ; preds = %if.then.i.i69
  store ptr %call2.i12.i6875, ptr %agg.tmp6, align 8, !tbaa !15
  %13 = load i64, ptr %__dnew.i.i65, align 8, !tbaa !14
  store i64 %13, ptr %10, align 8, !tbaa !13
  br label %if.end.i.i70

if.end.i.i70:                                     ; preds = %call2.i12.i68.noexc, %_ZNSt7__cxx1112basic_stringIcSt11char_traitsIcESaIcEEC2ERKS4_.exit
  %14 = phi ptr [ %call2.i12.i6875, %call2.i12.i68.noexc ], [ %10, %_ZNSt7__cxx1112basic_stringIcSt11char_traitsIcESaIcEEC2ERKS4_.exit ]
  switch i64 %12, label %if.end.i.i.i.i.i72 [
    i64 1, label %if.then.i.i.i.i71
    i64 0, label %_ZNSt7__cxx1112basic_stringIcSt11char_traitsIcESaIcEEC2ERKS4_.exit76
  ]

if.then.i.i.i.i71:                                ; preds = %if.end.i.i70
  %15 = load i8, ptr %11, align 1, !tbaa !13
  store i8 %15, ptr %14, align 1, !tbaa !13
  br label %_ZNSt7__cxx1112basic_stringIcSt11char_traitsIcESaIcEEC2ERKS4_.exit76

if.end.i.i.i.i.i72:                               ; preds = %if.end.i.i70
  call void @llvm.memcpy.p0.p0.i64(ptr align 1 %14, ptr align 1 %11, i64 %12, i1 false)
  br label %_ZNSt7__cxx1112basic_stringIcSt11char_traitsIcESaIcEEC2ERKS4_.exit76

_ZNSt7__cxx1112basic_stringIcSt11char_traitsIcESaIcEEC2ERKS4_.exit76: ; preds = %if.end.i.i70, %if.then.i.i.i.i71, %if.end.i.i.i.i.i72
  %16 = load i64, ptr %__dnew.i.i65, align 8, !tbaa !14
  %_M_string_length.i.i.i.i73 = getelementptr inbounds %"class.std::__cxx11::basic_string", ptr %agg.tmp6, i64 0, i32 1
  store i64 %16, ptr %_M_string_length.i.i.i.i73, align 8, !tbaa !10
  %17 = load ptr, ptr %agg.tmp6, align 8, !tbaa !15
  %arrayidx.i.i.i74 = getelementptr inbounds i8, ptr %17, i64 %16
  store i8 0, ptr %arrayidx.i.i.i74, align 1, !tbaa !13
  call void @llvm.lifetime.end.p0(i64 8, ptr nonnull %__dnew.i.i65) #16
  invoke void @_ZN2PP4WordC1ENSt7__cxx1112basic_stringIcSt11char_traitsIcESaIcEEEiiS6_PSt5dequeIS6_SaIS6_EE(ptr noundef nonnull align 8 dereferenceable(128) %w1, ptr noundef nonnull %agg.tmp, i32 noundef %lnum, i32 noundef %file_lnum, ptr noundef nonnull %agg.tmp6, ptr noundef %lines)
          to label %invoke.cont8 unwind label %lpad7

invoke.cont8:                                     ; preds = %_ZNSt7__cxx1112basic_stringIcSt11char_traitsIcESaIcEEC2ERKS4_.exit76
  %18 = load ptr, ptr %agg.tmp6, align 8, !tbaa !15
  %cmp.i.i.i = icmp eq ptr %18, %10
  br i1 %cmp.i.i.i, label %_ZNSt7__cxx1112basic_stringIcSt11char_traitsIcESaIcEED2Ev.exit, label %if.then.i.i77

if.then.i.i77:                                    ; preds = %invoke.cont8
  call void @_ZdlPv(ptr noundef %18) #17
  br label %_ZNSt7__cxx1112basic_stringIcSt11char_traitsIcESaIcEED2Ev.exit

_ZNSt7__cxx1112basic_stringIcSt11char_traitsIcESaIcEED2Ev.exit: ; preds = %invoke.cont8, %if.then.i.i77
  %19 = load ptr, ptr %agg.tmp, align 8, !tbaa !15
  %cmp.i.i.i78 = icmp eq ptr %19, %2
  br i1 %cmp.i.i.i78, label %_ZNSt7__cxx1112basic_stringIcSt11char_traitsIcESaIcEED2Ev.exit80, label %if.then.i.i79

if.then.i.i79:                                    ; preds = %_ZNSt7__cxx1112basic_stringIcSt11char_traitsIcESaIcEED2Ev.exit
  call void @_ZdlPv(ptr noundef %19) #17
  br label %_ZNSt7__cxx1112basic_stringIcSt11char_traitsIcESaIcEED2Ev.exit80

_ZNSt7__cxx1112basic_stringIcSt11char_traitsIcESaIcEED2Ev.exit80: ; preds = %_ZNSt7__cxx1112basic_stringIcSt11char_traitsIcESaIcEED2Ev.exit, %if.then.i.i79
  call void @llvm.lifetime.start.p0(i64 392, ptr nonnull %ss) #16
  invoke void @_ZNSt7__cxx1118basic_stringstreamIcSt11char_traitsIcESaIcEEC1Ev(ptr noundef nonnull align 8 dereferenceable(128) %ss)
          to label %invoke.cont15 unwind label %lpad14

lpad:                                             ; preds = %if.then.i.i69
  %20 = landingpad { ptr, i32 }
          cleanup
  br label %ehcleanup

lpad7:                                            ; preds = %_ZNSt7__cxx1112basic_stringIcSt11char_traitsIcESaIcEEC2ERKS4_.exit76
  %21 = landingpad { ptr, i32 }
          cleanup
  %22 = load ptr, ptr %agg.tmp6, align 8, !tbaa !15
  %cmp.i.i.i81 = icmp eq ptr %22, %10
  br i1 %cmp.i.i.i81, label %ehcleanup, label %if.then.i.i82

if.then.i.i82:                                    ; preds = %lpad7
  call void @_ZdlPv(ptr noundef %22) #17
  br label %ehcleanup

ehcleanup:                                        ; preds = %if.then.i.i82, %lpad7, %lpad
  %.pn = phi { ptr, i32 } [ %20, %lpad ], [ %21, %lpad7 ], [ %21, %if.then.i.i82 ]
  %23 = load ptr, ptr %agg.tmp, align 8, !tbaa !15
  %cmp.i.i.i84 = icmp eq ptr %23, %2
  br i1 %cmp.i.i.i84, label %ehcleanup56, label %if.then.i.i85

if.then.i.i85:                                    ; preds = %ehcleanup
  call void @_ZdlPv(ptr noundef %23) #17
  br label %ehcleanup56

invoke.cont15:                                    ; preds = %_ZNSt7__cxx1112basic_stringIcSt11char_traitsIcESaIcEED2Ev.exit80
  %type.i87 = getelementptr inbounds %"class.PP::Word", ptr %w1, i64 0, i32 1
  %24 = load i32, ptr %type.i87, align 8, !tbaa !78
  %cmp.i = icmp eq i32 %24, 2
  br i1 %cmp.i, label %if.then19, label %if.else

if.then19:                                        ; preds = %invoke.cont15
  %call22 = invoke noundef i32 @_ZN2PP4Word7get_intERNSt7__cxx1118basic_stringstreamIcSt11char_traitsIcESaIcEEERi(ptr noundef nonnull align 8 dereferenceable(128) %w1, ptr noundef nonnull align 8 dereferenceable(128) %serr, ptr noundef nonnull align 4 dereferenceable(4) %ierr)
          to label %invoke.cont21 unwind label %lpad20

invoke.cont21:                                    ; preds = %if.then19
  %add = add nsw i32 %call22, %increment
  %add.ptr = getelementptr inbounds i8, ptr %ss, i64 16
  %call25 = invoke noundef nonnull align 8 dereferenceable(8) ptr @_ZNSolsEi(ptr noundef nonnull align 8 dereferenceable(8) %add.ptr, i32 noundef %add)
          to label %if.end45 unwind label %lpad23

lpad14:                                           ; preds = %_ZNSt7__cxx1112basic_stringIcSt11char_traitsIcESaIcEED2Ev.exit80
  %25 = landingpad { ptr, i32 }
          cleanup
  br label %ehcleanup54

lpad20:                                           ; preds = %if.then19
  %26 = landingpad { ptr, i32 }
          cleanup
  br label %ehcleanup53

lpad23:                                           ; preds = %invoke.cont21
  %27 = landingpad { ptr, i32 }
          cleanup
  br label %ehcleanup53

if.else:                                          ; preds = %invoke.cont15
  %call30 = invoke noundef double @_ZN2PP4Word10get_doubleERNSt7__cxx1118basic_stringstreamIcSt11char_traitsIcESaIcEEERi(ptr noundef nonnull align 8 dereferenceable(128) %w1, ptr noundef nonnull align 8 dereferenceable(128) %serr, ptr noundef nonnull align 4 dereferenceable(4) %ierr)
          to label %invoke.cont29 unwind label %lpad28

invoke.cont29:                                    ; preds = %if.else
  %add.ptr33 = getelementptr inbounds i8, ptr %ss, i64 16
  %vtable.i = load ptr, ptr %add.ptr33, align 8, !tbaa !42
  %vbase.offset.ptr.i = getelementptr i8, ptr %vtable.i, i64 -24
  %vbase.offset.i = load i64, ptr %vbase.offset.ptr.i, align 8
  %add.ptr.i88 = getelementptr inbounds i8, ptr %add.ptr33, i64 %vbase.offset.i
  %_M_precision.i.i = getelementptr inbounds %"class.std::ios_base", ptr %add.ptr.i88, i64 0, i32 1
  store i64 15, ptr %_M_precision.i.i, align 8, !tbaa !81
  %conv31 = sitofp i32 %increment to double
  %add32 = fadd double %call30, %conv31
  %call.i89 = invoke noundef nonnull align 8 dereferenceable(8) ptr @_ZNSo9_M_insertIdEERSoT_(ptr noundef nonnull align 8 dereferenceable(8) %add.ptr33, double noundef %add32)
          to label %if.end45 unwind label %lpad35

lpad28:                                           ; preds = %if.else
  %28 = landingpad { ptr, i32 }
          cleanup
  br label %ehcleanup53

lpad35:                                           ; preds = %invoke.cont29
  %29 = landingpad { ptr, i32 }
          cleanup
  br label %ehcleanup53

if.end45:                                         ; preds = %invoke.cont29, %invoke.cont21
  call void @llvm.lifetime.start.p0(i64 32, ptr nonnull %ref.tmp) #16
  call void @llvm.experimental.noalias.scope.decl(metadata !82)
  call void @llvm.experimental.noalias.scope.decl(metadata !85)
  %30 = getelementptr inbounds %"class.std::__cxx11::basic_string", ptr %ref.tmp, i64 0, i32 2
  store ptr %30, ptr %ref.tmp, align 8, !tbaa !5, !alias.scope !88
  %_M_string_length.i.i.i.i.i = getelementptr inbounds %"class.std::__cxx11::basic_string", ptr %ref.tmp, i64 0, i32 1
  store i64 0, ptr %_M_string_length.i.i.i.i.i, align 8, !tbaa !10, !alias.scope !88
  store i8 0, ptr %30, align 8, !tbaa !13, !alias.scope !88
  %_M_out_cur.i.i.i.i = getelementptr inbounds %"class.std::__cxx11::basic_stringstream", ptr %ss, i64 0, i32 1, i32 0, i32 5
  %31 = load ptr, ptr %_M_out_cur.i.i.i.i, align 8, !tbaa !89, !noalias !88
  %tobool.not.not.i.i.i = icmp eq ptr %31, null
  %_M_in_end.i.i.i.i = getelementptr inbounds %"class.std::__cxx11::basic_stringstream", ptr %ss, i64 0, i32 1, i32 0, i32 3
  %32 = load ptr, ptr %_M_in_end.i.i.i.i, align 8, !noalias !88
  %cmp.i.i.i90 = icmp ugt ptr %31, %32
  %retval.0.i.i.i = select i1 %cmp.i.i.i90, ptr %31, ptr %32
  %tobool.not11.i.i = icmp eq ptr %retval.0.i.i.i, null
  %tobool.not.i.i = select i1 %tobool.not.not.i.i.i, i1 true, i1 %tobool.not11.i.i
  br i1 %tobool.not.i.i, label %if.else.i.i, label %if.then.i.i91

if.then.i.i91:                                    ; preds = %if.end45
  %_M_out_beg.i.i.i = getelementptr inbounds %"class.std::__cxx11::basic_stringstream", ptr %ss, i64 0, i32 1, i32 0, i32 4
  %33 = load ptr, ptr %_M_out_beg.i.i.i, align 8, !tbaa !91, !noalias !88
  %sub.ptr.lhs.cast.i.i.i.i = ptrtoint ptr %retval.0.i.i.i to i64
  %sub.ptr.rhs.cast.i.i.i.i = ptrtoint ptr %33 to i64
  %sub.ptr.sub.i.i.i.i = sub i64 %sub.ptr.lhs.cast.i.i.i.i, %sub.ptr.rhs.cast.i.i.i.i
  %call3.i.i.i10.i.i = invoke noundef nonnull align 8 dereferenceable(32) ptr @_ZNSt7__cxx1112basic_stringIcSt11char_traitsIcESaIcEE10_M_replaceEmmPKcm(ptr noundef nonnull align 8 dereferenceable(32) %ref.tmp, i64 noundef 0, i64 noundef 0, ptr noundef %33, i64 noundef %sub.ptr.sub.i.i.i.i)
          to label %invoke.cont47 unwind label %lpad.i.i

lpad.i.i:                                         ; preds = %if.else.i.i, %if.then.i.i91
  %34 = landingpad { ptr, i32 }
          cleanup
  %35 = load ptr, ptr %ref.tmp, align 8, !tbaa !15, !alias.scope !88
  %cmp.i.i.i.i.i = icmp eq ptr %35, %30
  br i1 %cmp.i.i.i.i.i, label %lpad46.body, label %if.then.i.i.i.i92

if.then.i.i.i.i92:                                ; preds = %lpad.i.i
  call void @_ZdlPv(ptr noundef %35) #17
  br label %lpad46.body

if.else.i.i:                                      ; preds = %if.end45
  %_M_string.i.i = getelementptr inbounds %"class.std::__cxx11::basic_stringstream", ptr %ss, i64 0, i32 1, i32 2
  invoke void @_ZNSt7__cxx1112basic_stringIcSt11char_traitsIcESaIcEE9_M_assignERKS4_(ptr noundef nonnull align 8 dereferenceable(32) %ref.tmp, ptr noundef nonnull align 8 dereferenceable(32) %_M_string.i.i)
          to label %invoke.cont47 unwind label %lpad.i.i

invoke.cont47:                                    ; preds = %if.else.i.i, %if.then.i.i91
  %36 = load ptr, ptr %value, align 8, !tbaa !36
  %add.ptr.i93 = getelementptr inbounds %"class.std::__cxx11::basic_string", ptr %36, i64 %conv4
  %37 = load ptr, ptr %add.ptr.i93, align 8
  %38 = load ptr, ptr %ref.tmp, align 8, !tbaa !15
  %cmp.i56.i = icmp eq ptr %38, %30
  br i1 %cmp.i56.i, label %if.then15.i, label %invoke.cont28.i

if.then15.i:                                      ; preds = %invoke.cont47
  %cmp.not.i = icmp eq ptr %ref.tmp, %add.ptr.i93
  br i1 %cmp.not.i, label %_ZNSt7__cxx1112basic_stringIcSt11char_traitsIcESaIcEEaSEOS4_.exit, label %if.then16.i, !prof !92

if.then16.i:                                      ; preds = %if.then15.i
  %39 = load i64, ptr %_M_string_length.i.i.i.i.i, align 8, !tbaa !10
  switch i64 %39, label %if.end.i.i.i [
    i64 0, label %if.end24.i
    i64 1, label %if.then.i.i95
  ]

if.then.i.i95:                                    ; preds = %if.then16.i
  %40 = load i8, ptr %30, align 8, !tbaa !13
  store i8 %40, ptr %37, align 1, !tbaa !13
  br label %if.end24.i

if.end.i.i.i:                                     ; preds = %if.then16.i
  call void @llvm.memcpy.p0.p0.i64(ptr align 1 %37, ptr nonnull align 8 %30, i64 %39, i1 false)
  br label %if.end24.i

if.end24.i:                                       ; preds = %if.end.i.i.i, %if.then.i.i95, %if.then16.i
  %41 = load i64, ptr %_M_string_length.i.i.i.i.i, align 8, !tbaa !10
  %_M_string_length.i.i59.i = getelementptr inbounds %"class.std::__cxx11::basic_string", ptr %36, i64 %conv4, i32 1
  store i64 %41, ptr %_M_string_length.i.i59.i, align 8, !tbaa !10
  %42 = load ptr, ptr %add.ptr.i93, align 8, !tbaa !15
  %arrayidx.i.i = getelementptr inbounds i8, ptr %42, i64 %41
  store i8 0, ptr %arrayidx.i.i, align 1, !tbaa !13
  %.pre.i = load ptr, ptr %ref.tmp, align 8, !tbaa !15
  br label %_ZNSt7__cxx1112basic_stringIcSt11char_traitsIcESaIcEEaSEOS4_.exit

invoke.cont28.i:                                  ; preds = %invoke.cont47
  %43 = getelementptr inbounds %"class.std::__cxx11::basic_string", ptr %36, i64 %conv4, i32 2
  %cmp.i60.i = icmp eq ptr %37, %43
  %44 = load i64, ptr %43, align 8
  store ptr %38, ptr %add.ptr.i93, align 8, !tbaa !15
  %45 = load i64, ptr %_M_string_length.i.i.i.i.i, align 8, !tbaa !10
  %_M_string_length.i62.i = getelementptr inbounds %"class.std::__cxx11::basic_string", ptr %36, i64 %conv4, i32 1
  store i64 %45, ptr %_M_string_length.i62.i, align 8, !tbaa !10
  %46 = load i64, ptr %30, align 8, !tbaa !13
  store i64 %46, ptr %43, align 8, !tbaa !13
  %tobool35.not63.i = icmp eq ptr %37, null
  %tobool35.not.i = or i1 %cmp.i60.i, %tobool35.not63.i
  br i1 %tobool35.not.i, label %if.else37.i, label %if.then36.i

if.then36.i:                                      ; preds = %invoke.cont28.i
  store ptr %37, ptr %ref.tmp, align 8, !tbaa !15
  store i64 %44, ptr %30, align 8, !tbaa !13
  br label %_ZNSt7__cxx1112basic_stringIcSt11char_traitsIcESaIcEEaSEOS4_.exit

if.else37.i:                                      ; preds = %invoke.cont28.i
  store ptr %30, ptr %ref.tmp, align 8, !tbaa !15
  br label %_ZNSt7__cxx1112basic_stringIcSt11char_traitsIcESaIcEEaSEOS4_.exit

_ZNSt7__cxx1112basic_stringIcSt11char_traitsIcESaIcEEaSEOS4_.exit: ; preds = %if.then15.i, %if.end24.i, %if.then36.i, %if.else37.i
  %47 = phi ptr [ %37, %if.then36.i ], [ %30, %if.else37.i ], [ %.pre.i, %if.end24.i ], [ %30, %if.then15.i ]
  store i64 0, ptr %_M_string_length.i.i.i.i.i, align 8, !tbaa !10
  store i8 0, ptr %47, align 1, !tbaa !13
  %48 = load ptr, ptr %ref.tmp, align 8, !tbaa !15
  %cmp.i.i.i97 = icmp eq ptr %48, %30
  br i1 %cmp.i.i.i97, label %_ZNSt7__cxx1112basic_stringIcSt11char_traitsIcESaIcEED2Ev.exit99, label %if.then.i.i98

if.then.i.i98:                                    ; preds = %_ZNSt7__cxx1112basic_stringIcSt11char_traitsIcESaIcEEaSEOS4_.exit
  call void @_ZdlPv(ptr noundef %48) #17
  br label %_ZNSt7__cxx1112basic_stringIcSt11char_traitsIcESaIcEED2Ev.exit99

_ZNSt7__cxx1112basic_stringIcSt11char_traitsIcESaIcEED2Ev.exit99: ; preds = %_ZNSt7__cxx1112basic_stringIcSt11char_traitsIcESaIcEEaSEOS4_.exit, %if.then.i.i98
  call void @llvm.lifetime.end.p0(i64 32, ptr nonnull %ref.tmp) #16
  %49 = load ptr, ptr @_ZTTNSt7__cxx1118basic_stringstreamIcSt11char_traitsIcESaIcEEE, align 8
  store ptr %49, ptr %ss, align 8, !tbaa !42
  %50 = load ptr, ptr getelementptr inbounds ([10 x ptr], ptr @_ZTTNSt7__cxx1118basic_stringstreamIcSt11char_traitsIcESaIcEEE, i64 0, i64 8), align 8
  %vbase.offset.ptr.i.i = getelementptr i8, ptr %49, i64 -24
  %vbase.offset.i.i = load i64, ptr %vbase.offset.ptr.i.i, align 8
  %add.ptr.i.i = getelementptr inbounds i8, ptr %ss, i64 %vbase.offset.i.i
  store ptr %50, ptr %add.ptr.i.i, align 8, !tbaa !42
  %51 = load ptr, ptr getelementptr inbounds ([10 x ptr], ptr @_ZTTNSt7__cxx1118basic_stringstreamIcSt11char_traitsIcESaIcEEE, i64 0, i64 9), align 8
  %add.ptr3.i.i = getelementptr inbounds i8, ptr %ss, i64 16
  store ptr %51, ptr %add.ptr3.i.i, align 8, !tbaa !42
  %_M_stringbuf.i.i = getelementptr inbounds %"class.std::__cxx11::basic_stringstream", ptr %ss, i64 0, i32 1
  store ptr getelementptr inbounds ({ [16 x ptr] }, ptr @_ZTVNSt7__cxx1115basic_stringbufIcSt11char_traitsIcESaIcEEE, i64 0, inrange i32 0, i64 2), ptr %_M_stringbuf.i.i, align 8, !tbaa !42
  %_M_string.i.i.i = getelementptr inbounds %"class.std::__cxx11::basic_stringstream", ptr %ss, i64 0, i32 1, i32 2
  %52 = load ptr, ptr %_M_string.i.i.i, align 8, !tbaa !15
  %53 = getelementptr inbounds %"class.std::__cxx11::basic_stringstream", ptr %ss, i64 0, i32 1, i32 2, i32 2
  %cmp.i.i.i.i.i.i = icmp eq ptr %52, %53
  br i1 %cmp.i.i.i.i.i.i, label %_ZNSt7__cxx1118basic_stringstreamIcSt11char_traitsIcESaIcEED1Ev.exit, label %if.then.i.i.i.i.i

if.then.i.i.i.i.i:                                ; preds = %_ZNSt7__cxx1112basic_stringIcSt11char_traitsIcESaIcEED2Ev.exit99
  call void @_ZdlPv(ptr noundef %52) #17
  br label %_ZNSt7__cxx1118basic_stringstreamIcSt11char_traitsIcESaIcEED1Ev.exit

_ZNSt7__cxx1118basic_stringstreamIcSt11char_traitsIcESaIcEED1Ev.exit: ; preds = %_ZNSt7__cxx1112basic_stringIcSt11char_traitsIcESaIcEED2Ev.exit99, %if.then.i.i.i.i.i
  store ptr getelementptr inbounds ({ [16 x ptr] }, ptr @_ZTVSt15basic_streambufIcSt11char_traitsIcEE, i64 0, inrange i32 0, i64 2), ptr %_M_stringbuf.i.i, align 8, !tbaa !42
  %_M_buf_locale.i.i.i.i = getelementptr inbounds %"class.std::__cxx11::basic_stringstream", ptr %ss, i64 0, i32 1, i32 0, i32 7
  call void @_ZNSt6localeD1Ev(ptr noundef nonnull align 8 dereferenceable(8) %_M_buf_locale.i.i.i.i) #16
  %54 = load ptr, ptr getelementptr inbounds ([10 x ptr], ptr @_ZTTNSt7__cxx1118basic_stringstreamIcSt11char_traitsIcESaIcEEE, i64 0, i64 2), align 8
  store ptr %54, ptr %ss, align 8, !tbaa !42
  %55 = load ptr, ptr getelementptr inbounds ([10 x ptr], ptr @_ZTTNSt7__cxx1118basic_stringstreamIcSt11char_traitsIcESaIcEEE, i64 0, i64 3), align 8
  %vbase.offset.ptr.i.i.i.i = getelementptr i8, ptr %54, i64 -24
  %vbase.offset.i.i.i.i = load i64, ptr %vbase.offset.ptr.i.i.i.i, align 8
  %add.ptr.i.i.i.i = getelementptr inbounds i8, ptr %ss, i64 %vbase.offset.i.i.i.i
  store ptr %55, ptr %add.ptr.i.i.i.i, align 8, !tbaa !42
  %_M_gcount.i.i.i.i = getelementptr inbounds %"class.std::basic_istream", ptr %ss, i64 0, i32 1
  store i64 0, ptr %_M_gcount.i.i.i.i, align 8, !tbaa !93
  %56 = getelementptr inbounds i8, ptr %ss, i64 128
  call void @_ZNSt8ios_baseD2Ev(ptr noundef nonnull align 8 dereferenceable(264) %56) #16
  call void @llvm.lifetime.end.p0(i64 392, ptr nonnull %ss) #16
  call void @_ZN2PP4WordD1Ev(ptr noundef nonnull align 8 dereferenceable(128) %w1) #16
  call void @llvm.lifetime.end.p0(i64 128, ptr nonnull %w1) #16
  call void @llvm.lifetime.end.p0(i64 1, ptr nonnull %putils) #16
  ret void

lpad46.body:                                      ; preds = %lpad.i.i, %if.then.i.i.i.i92
  call void @llvm.lifetime.end.p0(i64 32, ptr nonnull %ref.tmp) #16
  br label %ehcleanup53

ehcleanup53:                                      ; preds = %lpad28, %lpad35, %lpad20, %lpad23, %lpad46.body
  %.pn104 = phi { ptr, i32 } [ %34, %lpad46.body ], [ %27, %lpad23 ], [ %26, %lpad20 ], [ %29, %lpad35 ], [ %28, %lpad28 ]
  call void @_ZNSt7__cxx1118basic_stringstreamIcSt11char_traitsIcESaIcEED1Ev(ptr noundef nonnull align 8 dereferenceable(128) %ss) #16
  br label %ehcleanup54

ehcleanup54:                                      ; preds = %ehcleanup53, %lpad14
  %.pn104.pn = phi { ptr, i32 } [ %.pn104, %ehcleanup53 ], [ %25, %lpad14 ]
  call void @llvm.lifetime.end.p0(i64 392, ptr nonnull %ss) #16
  call void @_ZN2PP4WordD1Ev(ptr noundef nonnull align 8 dereferenceable(128) %w1) #16
  br label %ehcleanup56

ehcleanup56:                                      ; preds = %if.then.i.i85, %ehcleanup, %ehcleanup54
  %.pn104.pn.pn = phi { ptr, i32 } [ %.pn104.pn, %ehcleanup54 ], [ %.pn, %ehcleanup ], [ %.pn, %if.then.i.i85 ]
  call void @llvm.lifetime.end.p0(i64 128, ptr nonnull %w1) #16
  call void @llvm.lifetime.end.p0(i64 1, ptr nonnull %putils) #16
  resume { ptr, i32 } %.pn104.pn.pn
}

declare void @_ZN2PP4WordC1ENSt7__cxx1112basic_stringIcSt11char_traitsIcESaIcEEEiiS6_PSt5dequeIS6_SaIS6_EE(ptr noundef nonnull align 8 dereferenceable(128), ptr noundef, i32 noundef, i32 noundef, ptr noundef, ptr noundef) unnamed_addr #0

; Function Attrs: uwtable
declare void @_ZNSt7__cxx1118basic_stringstreamIcSt11char_traitsIcESaIcEEC1Ev(ptr noundef nonnull align 8 dereferenceable(128)) unnamed_addr #3 align 2

declare noundef i32 @_ZN2PP4Word7get_intERNSt7__cxx1118basic_stringstreamIcSt11char_traitsIcESaIcEEERi(ptr noundef nonnull align 8 dereferenceable(128), ptr noundef nonnull align 8 dereferenceable(128), ptr noundef nonnull align 4 dereferenceable(4)) local_unnamed_addr #0

declare noundef double @_ZN2PP4Word10get_doubleERNSt7__cxx1118basic_stringstreamIcSt11char_traitsIcESaIcEEERi(ptr noundef nonnull align 8 dereferenceable(128), ptr noundef nonnull align 8 dereferenceable(128), ptr noundef nonnull align 4 dereferenceable(4)) local_unnamed_addr #0

; Function Attrs: nounwind uwtable
declare void @_ZNSt7__cxx1118basic_stringstreamIcSt11char_traitsIcESaIcEED1Ev(ptr noundef nonnull align 8 dereferenceable(128)) unnamed_addr #5 align 2

; Function Attrs: nounwind
declare void @_ZN2PP4WordD1Ev(ptr noundef nonnull align 8 dereferenceable(128)) unnamed_addr #1

; Function Attrs: uwtable
define dso_local void @_ZN2PP8Variable10set_boundsERSt6vectorIiSaIiEEiiNSt7__cxx1112basic_stringIcSt11char_traitsIcESaIcEEEPSt5dequeISA_SaISA_EERNS5_18basic_stringstreamIcS8_S9_EERi(ptr nocapture noundef nonnull align 8 dereferenceable(136) %this, ptr nocapture noundef nonnull readonly align 8 dereferenceable(24) %bounds, i32 noundef %lnum, i32 noundef %file_lnum, ptr nocapture noundef readonly %fname, ptr nocapture noundef readonly %lines, ptr noundef nonnull align 8 dereferenceable(128) %serr, ptr nocapture noundef nonnull writeonly align 4 dereferenceable(4) %ierr) local_unnamed_addr #3 align 2 personality ptr @__gxx_personality_v0 {
entry:
  %pre_defined = getelementptr inbounds %"class.PP::Variable", ptr %this, i64 0, i32 6
  %0 = load i8, ptr %pre_defined, align 8, !tbaa !33, !range !40, !noundef !41
  %tobool.not = icmp eq i8 %0, 0
  br i1 %tobool.not, label %if.end, label %if.then

if.then:                                          ; preds = %entry
  %add.ptr = getelementptr inbounds i8, ptr %serr, i64 16
  %vtable.i = load ptr, ptr %add.ptr, align 8, !tbaa !42
  %vbase.offset.ptr.i = getelementptr i8, ptr %vtable.i, i64 -24
  %vbase.offset.i = load i64, ptr %vbase.offset.ptr.i, align 8
  %add.ptr.i353 = getelementptr inbounds i8, ptr %add.ptr, i64 %vbase.offset.i
  %_M_ctype.i.i = getelementptr inbounds %"class.std::basic_ios", ptr %add.ptr.i353, i64 0, i32 5
  %1 = load ptr, ptr %_M_ctype.i.i, align 8, !tbaa !44
  %tobool.not.i.i.i354 = icmp eq ptr %1, null
  br i1 %tobool.not.i.i.i354, label %if.then.i.i.i355, label %_ZSt13__check_facetISt5ctypeIcEERKT_PS3_.exit.i.i

if.then.i.i.i355:                                 ; preds = %if.then
  tail call void @_ZSt16__throw_bad_castv() #18
  unreachable

_ZSt13__check_facetISt5ctypeIcEERKT_PS3_.exit.i.i: ; preds = %if.then
  %_M_widen_ok.i.i.i = getelementptr inbounds %"class.std::ctype", ptr %1, i64 0, i32 8
  %2 = load i8, ptr %_M_widen_ok.i.i.i, align 8, !tbaa !51
  %tobool.not.i3.i.i = icmp eq i8 %2, 0
  br i1 %tobool.not.i3.i.i, label %if.end.i.i.i, label %if.then.i4.i.i

if.then.i4.i.i:                                   ; preds = %_ZSt13__check_facetISt5ctypeIcEERKT_PS3_.exit.i.i
  %arrayidx.i.i.i = getelementptr inbounds %"class.std::ctype", ptr %1, i64 0, i32 9, i64 10
  %3 = load i8, ptr %arrayidx.i.i.i, align 1, !tbaa !13
  br label %_ZSt4endlIcSt11char_traitsIcEERSt13basic_ostreamIT_T0_ES6_.exit

if.end.i.i.i:                                     ; preds = %_ZSt13__check_facetISt5ctypeIcEERKT_PS3_.exit.i.i
  tail call void @_ZNKSt5ctypeIcE13_M_widen_initEv(ptr noundef nonnull align 8 dereferenceable(570) %1)
  %vtable.i.i.i = load ptr, ptr %1, align 8, !tbaa !42
  %vfn.i.i.i = getelementptr inbounds ptr, ptr %vtable.i.i.i, i64 6
  %4 = load ptr, ptr %vfn.i.i.i, align 8
  %call.i.i.i = tail call noundef signext i8 %4(ptr noundef nonnull align 8 dereferenceable(570) %1, i8 noundef signext 10)
  br label %_ZSt4endlIcSt11char_traitsIcEERSt13basic_ostreamIT_T0_ES6_.exit

_ZSt4endlIcSt11char_traitsIcEERSt13basic_ostreamIT_T0_ES6_.exit: ; preds = %if.then.i4.i.i, %if.end.i.i.i
  %retval.0.i.i.i = phi i8 [ %3, %if.then.i4.i.i ], [ %call.i.i.i, %if.end.i.i.i ]
  %call1.i356 = tail call noundef nonnull align 8 dereferenceable(8) ptr @_ZNSo3putEc(ptr noundef nonnull align 8 dereferenceable(8) %add.ptr, i8 noundef signext %retval.0.i.i.i)
  %call.i.i357 = tail call noundef nonnull align 8 dereferenceable(8) ptr @_ZNSo5flushEv(ptr noundef nonnull align 8 dereferenceable(8) %call1.i356)
  %call1.i = tail call noundef nonnull align 8 dereferenceable(8) ptr @_ZSt16__ostream_insertIcSt11char_traitsIcEERSt13basic_ostreamIT_T0_ES6_PKS3_l(ptr noundef nonnull align 8 dereferenceable(8) %add.ptr, ptr noundef nonnull @.str.3, i64 noundef 24)
  %call4 = tail call noundef nonnull align 8 dereferenceable(8) ptr @_ZNSolsEi(ptr noundef nonnull align 8 dereferenceable(8) %add.ptr, i32 noundef %file_lnum)
  %call1.i170 = tail call noundef nonnull align 8 dereferenceable(8) ptr @_ZSt16__ostream_insertIcSt11char_traitsIcEERSt13basic_ostreamIT_T0_ES6_PKS3_l(ptr noundef nonnull align 8 dereferenceable(8) %call4, ptr noundef nonnull @.str.4, i64 noundef 1)
  %vtable.i358 = load ptr, ptr %call4, align 8, !tbaa !42
  %vbase.offset.ptr.i359 = getelementptr i8, ptr %vtable.i358, i64 -24
  %vbase.offset.i360 = load i64, ptr %vbase.offset.ptr.i359, align 8
  %add.ptr.i361 = getelementptr inbounds i8, ptr %call4, i64 %vbase.offset.i360
  %_M_ctype.i.i362 = getelementptr inbounds %"class.std::basic_ios", ptr %add.ptr.i361, i64 0, i32 5
  %5 = load ptr, ptr %_M_ctype.i.i362, align 8, !tbaa !44
  %tobool.not.i.i.i363 = icmp eq ptr %5, null
  br i1 %tobool.not.i.i.i363, label %if.then.i.i.i364, label %_ZSt13__check_facetISt5ctypeIcEERKT_PS3_.exit.i.i367

if.then.i.i.i364:                                 ; preds = %_ZSt4endlIcSt11char_traitsIcEERSt13basic_ostreamIT_T0_ES6_.exit
  tail call void @_ZSt16__throw_bad_castv() #18
  unreachable

_ZSt13__check_facetISt5ctypeIcEERKT_PS3_.exit.i.i367: ; preds = %_ZSt4endlIcSt11char_traitsIcEERSt13basic_ostreamIT_T0_ES6_.exit
  %_M_widen_ok.i.i.i365 = getelementptr inbounds %"class.std::ctype", ptr %5, i64 0, i32 8
  %6 = load i8, ptr %_M_widen_ok.i.i.i365, align 8, !tbaa !51
  %tobool.not.i3.i.i366 = icmp eq i8 %6, 0
  br i1 %tobool.not.i3.i.i366, label %if.end.i.i.i373, label %if.then.i4.i.i369

if.then.i4.i.i369:                                ; preds = %_ZSt13__check_facetISt5ctypeIcEERKT_PS3_.exit.i.i367
  %arrayidx.i.i.i368 = getelementptr inbounds %"class.std::ctype", ptr %5, i64 0, i32 9, i64 10
  %7 = load i8, ptr %arrayidx.i.i.i368, align 1, !tbaa !13
  br label %_ZSt4endlIcSt11char_traitsIcEERSt13basic_ostreamIT_T0_ES6_.exit377

if.end.i.i.i373:                                  ; preds = %_ZSt13__check_facetISt5ctypeIcEERKT_PS3_.exit.i.i367
  tail call void @_ZNKSt5ctypeIcE13_M_widen_initEv(ptr noundef nonnull align 8 dereferenceable(570) %5)
  %vtable.i.i.i370 = load ptr, ptr %5, align 8, !tbaa !42
  %vfn.i.i.i371 = getelementptr inbounds ptr, ptr %vtable.i.i.i370, i64 6
  %8 = load ptr, ptr %vfn.i.i.i371, align 8
  %call.i.i.i372 = tail call noundef signext i8 %8(ptr noundef nonnull align 8 dereferenceable(570) %5, i8 noundef signext 10)
  br label %_ZSt4endlIcSt11char_traitsIcEERSt13basic_ostreamIT_T0_ES6_.exit377

_ZSt4endlIcSt11char_traitsIcEERSt13basic_ostreamIT_T0_ES6_.exit377: ; preds = %if.then.i4.i.i369, %if.end.i.i.i373
  %retval.0.i.i.i374 = phi i8 [ %7, %if.then.i4.i.i369 ], [ %call.i.i.i372, %if.end.i.i.i373 ]
  %call1.i375 = tail call noundef nonnull align 8 dereferenceable(8) ptr @_ZNSo3putEc(ptr noundef nonnull align 8 dereferenceable(8) %call4, i8 noundef signext %retval.0.i.i.i374)
  %call.i.i376 = tail call noundef nonnull align 8 dereferenceable(8) ptr @_ZNSo5flushEv(ptr noundef nonnull align 8 dereferenceable(8) %call1.i375)
  %call1.i173 = tail call noundef nonnull align 8 dereferenceable(8) ptr @_ZSt16__ostream_insertIcSt11char_traitsIcEERSt13basic_ostreamIT_T0_ES6_PKS3_l(ptr noundef nonnull align 8 dereferenceable(8) %add.ptr, ptr noundef nonnull @.str.5, i64 noundef 4)
  %sub = add nsw i32 %lnum, -1
  %conv = sext i32 %sub to i64
  %_M_start.i = getelementptr inbounds %"struct.std::_Deque_base<std::__cxx11::basic_string<char>, std::allocator<std::__cxx11::basic_string<char>>>::_Deque_impl_data", ptr %lines, i64 0, i32 2
  %9 = load ptr, ptr %_M_start.i, align 8, !tbaa !54, !noalias !95
  %_M_first3.i.i.i.i = getelementptr inbounds %"struct.std::_Deque_base<std::__cxx11::basic_string<char>, std::allocator<std::__cxx11::basic_string<char>>>::_Deque_impl_data", ptr %lines, i64 0, i32 2, i32 1
  %10 = load ptr, ptr %_M_first3.i.i.i.i, align 8, !tbaa !59, !noalias !95
  %sub.ptr.lhs.cast.i.i.i.i = ptrtoint ptr %9 to i64
  %sub.ptr.rhs.cast.i.i.i.i = ptrtoint ptr %10 to i64
  %sub.ptr.sub.i.i.i.i = sub i64 %sub.ptr.lhs.cast.i.i.i.i, %sub.ptr.rhs.cast.i.i.i.i
  %sub.ptr.div.i.i.i.i = ashr exact i64 %sub.ptr.sub.i.i.i.i, 5
  %add.i.i.i.i = add nsw i64 %sub.ptr.div.i.i.i.i, %conv
  %or.cond.i.i.i.i = icmp ult i64 %add.i.i.i.i, 16
  br i1 %or.cond.i.i.i.i, label %if.then.i.i.i.i, label %if.else.i.i.i.i

if.then.i.i.i.i:                                  ; preds = %_ZSt4endlIcSt11char_traitsIcEERSt13basic_ostreamIT_T0_ES6_.exit377
  %add.ptr.i.i.i.i = getelementptr inbounds %"class.std::__cxx11::basic_string", ptr %9, i64 %conv
  br label %_ZNSt5dequeINSt7__cxx1112basic_stringIcSt11char_traitsIcESaIcEEESaIS5_EEixEm.exit

if.else.i.i.i.i:                                  ; preds = %_ZSt4endlIcSt11char_traitsIcEERSt13basic_ostreamIT_T0_ES6_.exit377
  %_M_node5.i.i.i.i = getelementptr inbounds %"struct.std::_Deque_base<std::__cxx11::basic_string<char>, std::allocator<std::__cxx11::basic_string<char>>>::_Deque_impl_data", ptr %lines, i64 0, i32 2, i32 3
  %11 = load ptr, ptr %_M_node5.i.i.i.i, align 8, !tbaa !60, !noalias !95
  %cmp4.i.i.i.i = icmp sgt i64 %add.i.i.i.i, 0
  %div2627.i.i.i.i = lshr i64 %add.i.i.i.i, 4
  %sub1025.i.i.i.i = or i64 %div2627.i.i.i.i, -1152921504606846976
  %cond.i.i.i.i = select i1 %cmp4.i.i.i.i, i64 %div2627.i.i.i.i, i64 %sub1025.i.i.i.i
  %add.ptr11.i.i.i.i = getelementptr inbounds ptr, ptr %11, i64 %cond.i.i.i.i
  %12 = load ptr, ptr %add.ptr11.i.i.i.i, align 8, !tbaa !16, !noalias !95
  %mul.i.i.i.i = shl nsw i64 %cond.i.i.i.i, 4
  %sub14.i.i.i.i = sub nsw i64 %add.i.i.i.i, %mul.i.i.i.i
  %add.ptr15.i.i.i.i = getelementptr inbounds %"class.std::__cxx11::basic_string", ptr %12, i64 %sub14.i.i.i.i
  br label %_ZNSt5dequeINSt7__cxx1112basic_stringIcSt11char_traitsIcESaIcEEESaIS5_EEixEm.exit

_ZNSt5dequeINSt7__cxx1112basic_stringIcSt11char_traitsIcESaIcEEESaIS5_EEixEm.exit: ; preds = %if.then.i.i.i.i, %if.else.i.i.i.i
  %storemerge.i.i.i.i = phi ptr [ %add.ptr15.i.i.i.i, %if.else.i.i.i.i ], [ %add.ptr.i.i.i.i, %if.then.i.i.i.i ]
  %13 = load ptr, ptr %storemerge.i.i.i.i, align 8, !tbaa !15
  %_M_string_length.i.i = getelementptr inbounds %"class.std::__cxx11::basic_string", ptr %storemerge.i.i.i.i, i64 0, i32 1
  %14 = load i64, ptr %_M_string_length.i.i, align 8, !tbaa !10
  %call2.i = tail call noundef nonnull align 8 dereferenceable(8) ptr @_ZSt16__ostream_insertIcSt11char_traitsIcEERSt13basic_ostreamIT_T0_ES6_PKS3_l(ptr noundef nonnull align 8 dereferenceable(8) %add.ptr, ptr noundef %13, i64 noundef %14)
  %vtable.i378 = load ptr, ptr %call2.i, align 8, !tbaa !42
  %vbase.offset.ptr.i379 = getelementptr i8, ptr %vtable.i378, i64 -24
  %vbase.offset.i380 = load i64, ptr %vbase.offset.ptr.i379, align 8
  %add.ptr.i381 = getelementptr inbounds i8, ptr %call2.i, i64 %vbase.offset.i380
  %_M_ctype.i.i382 = getelementptr inbounds %"class.std::basic_ios", ptr %add.ptr.i381, i64 0, i32 5
  %15 = load ptr, ptr %_M_ctype.i.i382, align 8, !tbaa !44
  %tobool.not.i.i.i383 = icmp eq ptr %15, null
  br i1 %tobool.not.i.i.i383, label %if.then.i.i.i384, label %_ZSt13__check_facetISt5ctypeIcEERKT_PS3_.exit.i.i387

if.then.i.i.i384:                                 ; preds = %_ZNSt5dequeINSt7__cxx1112basic_stringIcSt11char_traitsIcESaIcEEESaIS5_EEixEm.exit
  tail call void @_ZSt16__throw_bad_castv() #18
  unreachable

_ZSt13__check_facetISt5ctypeIcEERKT_PS3_.exit.i.i387: ; preds = %_ZNSt5dequeINSt7__cxx1112basic_stringIcSt11char_traitsIcESaIcEEESaIS5_EEixEm.exit
  %_M_widen_ok.i.i.i385 = getelementptr inbounds %"class.std::ctype", ptr %15, i64 0, i32 8
  %16 = load i8, ptr %_M_widen_ok.i.i.i385, align 8, !tbaa !51
  %tobool.not.i3.i.i386 = icmp eq i8 %16, 0
  br i1 %tobool.not.i3.i.i386, label %if.end.i.i.i393, label %if.then.i4.i.i389

if.then.i4.i.i389:                                ; preds = %_ZSt13__check_facetISt5ctypeIcEERKT_PS3_.exit.i.i387
  %arrayidx.i.i.i388 = getelementptr inbounds %"class.std::ctype", ptr %15, i64 0, i32 9, i64 10
  %17 = load i8, ptr %arrayidx.i.i.i388, align 1, !tbaa !13
  br label %_ZSt4endlIcSt11char_traitsIcEERSt13basic_ostreamIT_T0_ES6_.exit397

if.end.i.i.i393:                                  ; preds = %_ZSt13__check_facetISt5ctypeIcEERKT_PS3_.exit.i.i387
  tail call void @_ZNKSt5ctypeIcE13_M_widen_initEv(ptr noundef nonnull align 8 dereferenceable(570) %15)
  %vtable.i.i.i390 = load ptr, ptr %15, align 8, !tbaa !42
  %vfn.i.i.i391 = getelementptr inbounds ptr, ptr %vtable.i.i.i390, i64 6
  %18 = load ptr, ptr %vfn.i.i.i391, align 8
  %call.i.i.i392 = tail call noundef signext i8 %18(ptr noundef nonnull align 8 dereferenceable(570) %15, i8 noundef signext 10)
  br label %_ZSt4endlIcSt11char_traitsIcEERSt13basic_ostreamIT_T0_ES6_.exit397

_ZSt4endlIcSt11char_traitsIcEERSt13basic_ostreamIT_T0_ES6_.exit397: ; preds = %if.then.i4.i.i389, %if.end.i.i.i393
  %retval.0.i.i.i394 = phi i8 [ %17, %if.then.i4.i.i389 ], [ %call.i.i.i392, %if.end.i.i.i393 ]
  %call1.i395 = tail call noundef nonnull align 8 dereferenceable(8) ptr @_ZNSo3putEc(ptr noundef nonnull align 8 dereferenceable(8) %call2.i, i8 noundef signext %retval.0.i.i.i394)
  %call.i.i396 = tail call noundef nonnull align 8 dereferenceable(8) ptr @_ZNSo5flushEv(ptr noundef nonnull align 8 dereferenceable(8) %call1.i395)
  %call1.i176 = tail call noundef nonnull align 8 dereferenceable(8) ptr @_ZSt16__ostream_insertIcSt11char_traitsIcEERSt13basic_ostreamIT_T0_ES6_PKS3_l(ptr noundef nonnull align 8 dereferenceable(8) %add.ptr, ptr noundef nonnull @.str.6, i64 noundef 9)
  %19 = load ptr, ptr %fname, align 8, !tbaa !15
  %_M_string_length.i.i177 = getelementptr inbounds %"class.std::__cxx11::basic_string", ptr %fname, i64 0, i32 1
  %20 = load i64, ptr %_M_string_length.i.i177, align 8, !tbaa !10
  %call2.i178 = tail call noundef nonnull align 8 dereferenceable(8) ptr @_ZSt16__ostream_insertIcSt11char_traitsIcEERSt13basic_ostreamIT_T0_ES6_PKS3_l(ptr noundef nonnull align 8 dereferenceable(8) %add.ptr, ptr noundef %19, i64 noundef %20)
  %vtable.i398 = load ptr, ptr %call2.i178, align 8, !tbaa !42
  %vbase.offset.ptr.i399 = getelementptr i8, ptr %vtable.i398, i64 -24
  %vbase.offset.i400 = load i64, ptr %vbase.offset.ptr.i399, align 8
  %add.ptr.i401 = getelementptr inbounds i8, ptr %call2.i178, i64 %vbase.offset.i400
  %_M_ctype.i.i402 = getelementptr inbounds %"class.std::basic_ios", ptr %add.ptr.i401, i64 0, i32 5
  %21 = load ptr, ptr %_M_ctype.i.i402, align 8, !tbaa !44
  %tobool.not.i.i.i403 = icmp eq ptr %21, null
  br i1 %tobool.not.i.i.i403, label %if.then.i.i.i404, label %_ZSt13__check_facetISt5ctypeIcEERKT_PS3_.exit.i.i407

if.then.i.i.i404:                                 ; preds = %_ZSt4endlIcSt11char_traitsIcEERSt13basic_ostreamIT_T0_ES6_.exit397
  tail call void @_ZSt16__throw_bad_castv() #18
  unreachable

_ZSt13__check_facetISt5ctypeIcEERKT_PS3_.exit.i.i407: ; preds = %_ZSt4endlIcSt11char_traitsIcEERSt13basic_ostreamIT_T0_ES6_.exit397
  %_M_widen_ok.i.i.i405 = getelementptr inbounds %"class.std::ctype", ptr %21, i64 0, i32 8
  %22 = load i8, ptr %_M_widen_ok.i.i.i405, align 8, !tbaa !51
  %tobool.not.i3.i.i406 = icmp eq i8 %22, 0
  br i1 %tobool.not.i3.i.i406, label %if.end.i.i.i413, label %if.then.i4.i.i409

if.then.i4.i.i409:                                ; preds = %_ZSt13__check_facetISt5ctypeIcEERKT_PS3_.exit.i.i407
  %arrayidx.i.i.i408 = getelementptr inbounds %"class.std::ctype", ptr %21, i64 0, i32 9, i64 10
  %23 = load i8, ptr %arrayidx.i.i.i408, align 1, !tbaa !13
  br label %_ZSt4endlIcSt11char_traitsIcEERSt13basic_ostreamIT_T0_ES6_.exit417

if.end.i.i.i413:                                  ; preds = %_ZSt13__check_facetISt5ctypeIcEERKT_PS3_.exit.i.i407
  tail call void @_ZNKSt5ctypeIcE13_M_widen_initEv(ptr noundef nonnull align 8 dereferenceable(570) %21)
  %vtable.i.i.i410 = load ptr, ptr %21, align 8, !tbaa !42
  %vfn.i.i.i411 = getelementptr inbounds ptr, ptr %vtable.i.i.i410, i64 6
  %24 = load ptr, ptr %vfn.i.i.i411, align 8
  %call.i.i.i412 = tail call noundef signext i8 %24(ptr noundef nonnull align 8 dereferenceable(570) %21, i8 noundef signext 10)
  br label %_ZSt4endlIcSt11char_traitsIcEERSt13basic_ostreamIT_T0_ES6_.exit417

_ZSt4endlIcSt11char_traitsIcEERSt13basic_ostreamIT_T0_ES6_.exit417: ; preds = %if.then.i4.i.i409, %if.end.i.i.i413
  %retval.0.i.i.i414 = phi i8 [ %23, %if.then.i4.i.i409 ], [ %call.i.i.i412, %if.end.i.i.i413 ]
  %call1.i415 = tail call noundef nonnull align 8 dereferenceable(8) ptr @_ZNSo3putEc(ptr noundef nonnull align 8 dereferenceable(8) %call2.i178, i8 noundef signext %retval.0.i.i.i414)
  %call.i.i416 = tail call noundef nonnull align 8 dereferenceable(8) ptr @_ZNSo5flushEv(ptr noundef nonnull align 8 dereferenceable(8) %call1.i415)
  %call1.i181 = tail call noundef nonnull align 8 dereferenceable(8) ptr @_ZSt16__ostream_insertIcSt11char_traitsIcEERSt13basic_ostreamIT_T0_ES6_PKS3_l(ptr noundef nonnull align 8 dereferenceable(8) %add.ptr, ptr noundef nonnull @.str.7, i64 noundef 39)
  %vtable.i418 = load ptr, ptr %add.ptr, align 8, !tbaa !42
  %vbase.offset.ptr.i419 = getelementptr i8, ptr %vtable.i418, i64 -24
  %vbase.offset.i420 = load i64, ptr %vbase.offset.ptr.i419, align 8
  %add.ptr.i421 = getelementptr inbounds i8, ptr %add.ptr, i64 %vbase.offset.i420
  %_M_ctype.i.i422 = getelementptr inbounds %"class.std::basic_ios", ptr %add.ptr.i421, i64 0, i32 5
  %25 = load ptr, ptr %_M_ctype.i.i422, align 8, !tbaa !44
  %tobool.not.i.i.i423 = icmp eq ptr %25, null
  br i1 %tobool.not.i.i.i423, label %if.then.i.i.i424, label %_ZSt13__check_facetISt5ctypeIcEERKT_PS3_.exit.i.i427

if.then.i.i.i424:                                 ; preds = %_ZSt4endlIcSt11char_traitsIcEERSt13basic_ostreamIT_T0_ES6_.exit417
  tail call void @_ZSt16__throw_bad_castv() #18
  unreachable

_ZSt13__check_facetISt5ctypeIcEERKT_PS3_.exit.i.i427: ; preds = %_ZSt4endlIcSt11char_traitsIcEERSt13basic_ostreamIT_T0_ES6_.exit417
  %_M_widen_ok.i.i.i425 = getelementptr inbounds %"class.std::ctype", ptr %25, i64 0, i32 8
  %26 = load i8, ptr %_M_widen_ok.i.i.i425, align 8, !tbaa !51
  %tobool.not.i3.i.i426 = icmp eq i8 %26, 0
  br i1 %tobool.not.i3.i.i426, label %if.end.i.i.i433, label %if.then.i4.i.i429

if.then.i4.i.i429:                                ; preds = %_ZSt13__check_facetISt5ctypeIcEERKT_PS3_.exit.i.i427
  %arrayidx.i.i.i428 = getelementptr inbounds %"class.std::ctype", ptr %25, i64 0, i32 9, i64 10
  %27 = load i8, ptr %arrayidx.i.i.i428, align 1, !tbaa !13
  br label %_ZSt4endlIcSt11char_traitsIcEERSt13basic_ostreamIT_T0_ES6_.exit437

if.end.i.i.i433:                                  ; preds = %_ZSt13__check_facetISt5ctypeIcEERKT_PS3_.exit.i.i427
  tail call void @_ZNKSt5ctypeIcE13_M_widen_initEv(ptr noundef nonnull align 8 dereferenceable(570) %25)
  %vtable.i.i.i430 = load ptr, ptr %25, align 8, !tbaa !42
  %vfn.i.i.i431 = getelementptr inbounds ptr, ptr %vtable.i.i.i430, i64 6
  %28 = load ptr, ptr %vfn.i.i.i431, align 8
  %call.i.i.i432 = tail call noundef signext i8 %28(ptr noundef nonnull align 8 dereferenceable(570) %25, i8 noundef signext 10)
  br label %_ZSt4endlIcSt11char_traitsIcEERSt13basic_ostreamIT_T0_ES6_.exit437

_ZSt4endlIcSt11char_traitsIcEERSt13basic_ostreamIT_T0_ES6_.exit437: ; preds = %if.then.i4.i.i429, %if.end.i.i.i433
  %retval.0.i.i.i434 = phi i8 [ %27, %if.then.i4.i.i429 ], [ %call.i.i.i432, %if.end.i.i.i433 ]
  %call1.i435 = tail call noundef nonnull align 8 dereferenceable(8) ptr @_ZNSo3putEc(ptr noundef nonnull align 8 dereferenceable(8) %add.ptr, i8 noundef signext %retval.0.i.i.i434)
  br label %cleanup.cont.sink.split.sink.split

if.end:                                           ; preds = %entry
  %_M_finish.i = getelementptr inbounds %"struct.std::_Vector_base<int, std::allocator<int>>::_Vector_impl_data", ptr %bounds, i64 0, i32 1
  %29 = load ptr, ptr %_M_finish.i, align 8, !tbaa !61
  %30 = load ptr, ptr %bounds, align 8, !tbaa !35
  %sub.ptr.lhs.cast.i = ptrtoint ptr %29 to i64
  %sub.ptr.rhs.cast.i = ptrtoint ptr %30 to i64
  %sub.ptr.sub.i = sub i64 %sub.ptr.lhs.cast.i, %sub.ptr.rhs.cast.i
  %31 = lshr exact i64 %sub.ptr.sub.i, 2
  %conv20 = trunc i64 %31 to i32
  %add = add nsw i32 %conv20, 1
  %ndim = getelementptr inbounds %"class.PP::Variable", ptr %this, i64 0, i32 2
  %32 = load i32, ptr %ndim, align 8, !tbaa !20
  %cmp = icmp sgt i32 %32, -1
  br i1 %cmp, label %if.then21, label %if.else

if.then21:                                        ; preds = %if.end
  %cmp23.not = icmp eq i32 %32, %add
  br i1 %cmp23.not, label %if.end75, label %if.then24

if.then24:                                        ; preds = %if.then21
  %add.ptr25 = getelementptr inbounds i8, ptr %serr, i64 16
  %vtable.i438 = load ptr, ptr %add.ptr25, align 8, !tbaa !42
  %vbase.offset.ptr.i439 = getelementptr i8, ptr %vtable.i438, i64 -24
  %vbase.offset.i440 = load i64, ptr %vbase.offset.ptr.i439, align 8
  %add.ptr.i441 = getelementptr inbounds i8, ptr %add.ptr25, i64 %vbase.offset.i440
  %_M_ctype.i.i442 = getelementptr inbounds %"class.std::basic_ios", ptr %add.ptr.i441, i64 0, i32 5
  %33 = load ptr, ptr %_M_ctype.i.i442, align 8, !tbaa !44
  %tobool.not.i.i.i443 = icmp eq ptr %33, null
  br i1 %tobool.not.i.i.i443, label %if.then.i.i.i444, label %_ZSt13__check_facetISt5ctypeIcEERKT_PS3_.exit.i.i447

if.then.i.i.i444:                                 ; preds = %if.then24
  tail call void @_ZSt16__throw_bad_castv() #18
  unreachable

_ZSt13__check_facetISt5ctypeIcEERKT_PS3_.exit.i.i447: ; preds = %if.then24
  %_M_widen_ok.i.i.i445 = getelementptr inbounds %"class.std::ctype", ptr %33, i64 0, i32 8
  %34 = load i8, ptr %_M_widen_ok.i.i.i445, align 8, !tbaa !51
  %tobool.not.i3.i.i446 = icmp eq i8 %34, 0
  br i1 %tobool.not.i3.i.i446, label %if.end.i.i.i453, label %if.then.i4.i.i449

if.then.i4.i.i449:                                ; preds = %_ZSt13__check_facetISt5ctypeIcEERKT_PS3_.exit.i.i447
  %arrayidx.i.i.i448 = getelementptr inbounds %"class.std::ctype", ptr %33, i64 0, i32 9, i64 10
  %35 = load i8, ptr %arrayidx.i.i.i448, align 1, !tbaa !13
  br label %_ZSt4endlIcSt11char_traitsIcEERSt13basic_ostreamIT_T0_ES6_.exit457

if.end.i.i.i453:                                  ; preds = %_ZSt13__check_facetISt5ctypeIcEERKT_PS3_.exit.i.i447
  tail call void @_ZNKSt5ctypeIcE13_M_widen_initEv(ptr noundef nonnull align 8 dereferenceable(570) %33)
  %vtable.i.i.i450 = load ptr, ptr %33, align 8, !tbaa !42
  %vfn.i.i.i451 = getelementptr inbounds ptr, ptr %vtable.i.i.i450, i64 6
  %36 = load ptr, ptr %vfn.i.i.i451, align 8
  %call.i.i.i452 = tail call noundef signext i8 %36(ptr noundef nonnull align 8 dereferenceable(570) %33, i8 noundef signext 10)
  br label %_ZSt4endlIcSt11char_traitsIcEERSt13basic_ostreamIT_T0_ES6_.exit457

_ZSt4endlIcSt11char_traitsIcEERSt13basic_ostreamIT_T0_ES6_.exit457: ; preds = %if.then.i4.i.i449, %if.end.i.i.i453
  %retval.0.i.i.i454 = phi i8 [ %35, %if.then.i4.i.i449 ], [ %call.i.i.i452, %if.end.i.i.i453 ]
  %call1.i455 = tail call noundef nonnull align 8 dereferenceable(8) ptr @_ZNSo3putEc(ptr noundef nonnull align 8 dereferenceable(8) %add.ptr25, i8 noundef signext %retval.0.i.i.i454)
  %call.i.i456 = tail call noundef nonnull align 8 dereferenceable(8) ptr @_ZNSo5flushEv(ptr noundef nonnull align 8 dereferenceable(8) %call1.i455)
  %call1.i185 = tail call noundef nonnull align 8 dereferenceable(8) ptr @_ZSt16__ostream_insertIcSt11char_traitsIcEERSt13basic_ostreamIT_T0_ES6_PKS3_l(ptr noundef nonnull align 8 dereferenceable(8) %add.ptr25, ptr noundef nonnull @.str.3, i64 noundef 24)
  %call29 = tail call noundef nonnull align 8 dereferenceable(8) ptr @_ZNSolsEi(ptr noundef nonnull align 8 dereferenceable(8) %add.ptr25, i32 noundef %file_lnum)
  %call1.i187 = tail call noundef nonnull align 8 dereferenceable(8) ptr @_ZSt16__ostream_insertIcSt11char_traitsIcEERSt13basic_ostreamIT_T0_ES6_PKS3_l(ptr noundef nonnull align 8 dereferenceable(8) %call29, ptr noundef nonnull @.str.4, i64 noundef 1)
  %vtable.i458 = load ptr, ptr %call29, align 8, !tbaa !42
  %vbase.offset.ptr.i459 = getelementptr i8, ptr %vtable.i458, i64 -24
  %vbase.offset.i460 = load i64, ptr %vbase.offset.ptr.i459, align 8
  %add.ptr.i461 = getelementptr inbounds i8, ptr %call29, i64 %vbase.offset.i460
  %_M_ctype.i.i462 = getelementptr inbounds %"class.std::basic_ios", ptr %add.ptr.i461, i64 0, i32 5
  %37 = load ptr, ptr %_M_ctype.i.i462, align 8, !tbaa !44
  %tobool.not.i.i.i463 = icmp eq ptr %37, null
  br i1 %tobool.not.i.i.i463, label %if.then.i.i.i464, label %_ZSt13__check_facetISt5ctypeIcEERKT_PS3_.exit.i.i467

if.then.i.i.i464:                                 ; preds = %_ZSt4endlIcSt11char_traitsIcEERSt13basic_ostreamIT_T0_ES6_.exit457
  tail call void @_ZSt16__throw_bad_castv() #18
  unreachable

_ZSt13__check_facetISt5ctypeIcEERKT_PS3_.exit.i.i467: ; preds = %_ZSt4endlIcSt11char_traitsIcEERSt13basic_ostreamIT_T0_ES6_.exit457
  %_M_widen_ok.i.i.i465 = getelementptr inbounds %"class.std::ctype", ptr %37, i64 0, i32 8
  %38 = load i8, ptr %_M_widen_ok.i.i.i465, align 8, !tbaa !51
  %tobool.not.i3.i.i466 = icmp eq i8 %38, 0
  br i1 %tobool.not.i3.i.i466, label %if.end.i.i.i473, label %if.then.i4.i.i469

if.then.i4.i.i469:                                ; preds = %_ZSt13__check_facetISt5ctypeIcEERKT_PS3_.exit.i.i467
  %arrayidx.i.i.i468 = getelementptr inbounds %"class.std::ctype", ptr %37, i64 0, i32 9, i64 10
  %39 = load i8, ptr %arrayidx.i.i.i468, align 1, !tbaa !13
  br label %_ZSt4endlIcSt11char_traitsIcEERSt13basic_ostreamIT_T0_ES6_.exit477

if.end.i.i.i473:                                  ; preds = %_ZSt13__check_facetISt5ctypeIcEERKT_PS3_.exit.i.i467
  tail call void @_ZNKSt5ctypeIcE13_M_widen_initEv(ptr noundef nonnull align 8 dereferenceable(570) %37)
  %vtable.i.i.i470 = load ptr, ptr %37, align 8, !tbaa !42
  %vfn.i.i.i471 = getelementptr inbounds ptr, ptr %vtable.i.i.i470, i64 6
  %40 = load ptr, ptr %vfn.i.i.i471, align 8
  %call.i.i.i472 = tail call noundef signext i8 %40(ptr noundef nonnull align 8 dereferenceable(570) %37, i8 noundef signext 10)
  br label %_ZSt4endlIcSt11char_traitsIcEERSt13basic_ostreamIT_T0_ES6_.exit477

_ZSt4endlIcSt11char_traitsIcEERSt13basic_ostreamIT_T0_ES6_.exit477: ; preds = %if.then.i4.i.i469, %if.end.i.i.i473
  %retval.0.i.i.i474 = phi i8 [ %39, %if.then.i4.i.i469 ], [ %call.i.i.i472, %if.end.i.i.i473 ]
  %call1.i475 = tail call noundef nonnull align 8 dereferenceable(8) ptr @_ZNSo3putEc(ptr noundef nonnull align 8 dereferenceable(8) %call29, i8 noundef signext %retval.0.i.i.i474)
  %call.i.i476 = tail call noundef nonnull align 8 dereferenceable(8) ptr @_ZNSo5flushEv(ptr noundef nonnull align 8 dereferenceable(8) %call1.i475)
  %call1.i190 = tail call noundef nonnull align 8 dereferenceable(8) ptr @_ZSt16__ostream_insertIcSt11char_traitsIcEERSt13basic_ostreamIT_T0_ES6_PKS3_l(ptr noundef nonnull align 8 dereferenceable(8) %add.ptr25, ptr noundef nonnull @.str.5, i64 noundef 4)
  %sub34 = add nsw i32 %lnum, -1
  %conv35 = sext i32 %sub34 to i64
  %_M_start.i191 = getelementptr inbounds %"struct.std::_Deque_base<std::__cxx11::basic_string<char>, std::allocator<std::__cxx11::basic_string<char>>>::_Deque_impl_data", ptr %lines, i64 0, i32 2
  %41 = load ptr, ptr %_M_start.i191, align 8, !tbaa !54, !noalias !98
  %_M_first3.i.i.i.i192 = getelementptr inbounds %"struct.std::_Deque_base<std::__cxx11::basic_string<char>, std::allocator<std::__cxx11::basic_string<char>>>::_Deque_impl_data", ptr %lines, i64 0, i32 2, i32 1
  %42 = load ptr, ptr %_M_first3.i.i.i.i192, align 8, !tbaa !59, !noalias !98
  %sub.ptr.lhs.cast.i.i.i.i193 = ptrtoint ptr %41 to i64
  %sub.ptr.rhs.cast.i.i.i.i194 = ptrtoint ptr %42 to i64
  %sub.ptr.sub.i.i.i.i195 = sub i64 %sub.ptr.lhs.cast.i.i.i.i193, %sub.ptr.rhs.cast.i.i.i.i194
  %sub.ptr.div.i.i.i.i196 = ashr exact i64 %sub.ptr.sub.i.i.i.i195, 5
  %add.i.i.i.i197 = add nsw i64 %sub.ptr.div.i.i.i.i196, %conv35
  %or.cond.i.i.i.i198 = icmp ult i64 %add.i.i.i.i197, 16
  br i1 %or.cond.i.i.i.i198, label %if.then.i.i.i.i200, label %if.else.i.i.i.i210

if.then.i.i.i.i200:                               ; preds = %_ZSt4endlIcSt11char_traitsIcEERSt13basic_ostreamIT_T0_ES6_.exit477
  %add.ptr.i.i.i.i199 = getelementptr inbounds %"class.std::__cxx11::basic_string", ptr %41, i64 %conv35
  br label %_ZNSt5dequeINSt7__cxx1112basic_stringIcSt11char_traitsIcESaIcEEESaIS5_EEixEm.exit212

if.else.i.i.i.i210:                               ; preds = %_ZSt4endlIcSt11char_traitsIcEERSt13basic_ostreamIT_T0_ES6_.exit477
  %_M_node5.i.i.i.i201 = getelementptr inbounds %"struct.std::_Deque_base<std::__cxx11::basic_string<char>, std::allocator<std::__cxx11::basic_string<char>>>::_Deque_impl_data", ptr %lines, i64 0, i32 2, i32 3
  %43 = load ptr, ptr %_M_node5.i.i.i.i201, align 8, !tbaa !60, !noalias !98
  %cmp4.i.i.i.i202 = icmp sgt i64 %add.i.i.i.i197, 0
  %div2627.i.i.i.i203 = lshr i64 %add.i.i.i.i197, 4
  %sub1025.i.i.i.i204 = or i64 %div2627.i.i.i.i203, -1152921504606846976
  %cond.i.i.i.i205 = select i1 %cmp4.i.i.i.i202, i64 %div2627.i.i.i.i203, i64 %sub1025.i.i.i.i204
  %add.ptr11.i.i.i.i206 = getelementptr inbounds ptr, ptr %43, i64 %cond.i.i.i.i205
  %44 = load ptr, ptr %add.ptr11.i.i.i.i206, align 8, !tbaa !16, !noalias !98
  %mul.i.i.i.i207 = shl nsw i64 %cond.i.i.i.i205, 4
  %sub14.i.i.i.i208 = sub nsw i64 %add.i.i.i.i197, %mul.i.i.i.i207
  %add.ptr15.i.i.i.i209 = getelementptr inbounds %"class.std::__cxx11::basic_string", ptr %44, i64 %sub14.i.i.i.i208
  br label %_ZNSt5dequeINSt7__cxx1112basic_stringIcSt11char_traitsIcESaIcEEESaIS5_EEixEm.exit212

_ZNSt5dequeINSt7__cxx1112basic_stringIcSt11char_traitsIcESaIcEEESaIS5_EEixEm.exit212: ; preds = %if.then.i.i.i.i200, %if.else.i.i.i.i210
  %storemerge.i.i.i.i211 = phi ptr [ %add.ptr15.i.i.i.i209, %if.else.i.i.i.i210 ], [ %add.ptr.i.i.i.i199, %if.then.i.i.i.i200 ]
  %45 = load ptr, ptr %storemerge.i.i.i.i211, align 8, !tbaa !15
  %_M_string_length.i.i213 = getelementptr inbounds %"class.std::__cxx11::basic_string", ptr %storemerge.i.i.i.i211, i64 0, i32 1
  %46 = load i64, ptr %_M_string_length.i.i213, align 8, !tbaa !10
  %call2.i214 = tail call noundef nonnull align 8 dereferenceable(8) ptr @_ZSt16__ostream_insertIcSt11char_traitsIcEERSt13basic_ostreamIT_T0_ES6_PKS3_l(ptr noundef nonnull align 8 dereferenceable(8) %add.ptr25, ptr noundef %45, i64 noundef %46)
  %vtable.i478 = load ptr, ptr %call2.i214, align 8, !tbaa !42
  %vbase.offset.ptr.i479 = getelementptr i8, ptr %vtable.i478, i64 -24
  %vbase.offset.i480 = load i64, ptr %vbase.offset.ptr.i479, align 8
  %add.ptr.i481 = getelementptr inbounds i8, ptr %call2.i214, i64 %vbase.offset.i480
  %_M_ctype.i.i482 = getelementptr inbounds %"class.std::basic_ios", ptr %add.ptr.i481, i64 0, i32 5
  %47 = load ptr, ptr %_M_ctype.i.i482, align 8, !tbaa !44
  %tobool.not.i.i.i483 = icmp eq ptr %47, null
  br i1 %tobool.not.i.i.i483, label %if.then.i.i.i484, label %_ZSt13__check_facetISt5ctypeIcEERKT_PS3_.exit.i.i487

if.then.i.i.i484:                                 ; preds = %_ZNSt5dequeINSt7__cxx1112basic_stringIcSt11char_traitsIcESaIcEEESaIS5_EEixEm.exit212
  tail call void @_ZSt16__throw_bad_castv() #18
  unreachable

_ZSt13__check_facetISt5ctypeIcEERKT_PS3_.exit.i.i487: ; preds = %_ZNSt5dequeINSt7__cxx1112basic_stringIcSt11char_traitsIcESaIcEEESaIS5_EEixEm.exit212
  %_M_widen_ok.i.i.i485 = getelementptr inbounds %"class.std::ctype", ptr %47, i64 0, i32 8
  %48 = load i8, ptr %_M_widen_ok.i.i.i485, align 8, !tbaa !51
  %tobool.not.i3.i.i486 = icmp eq i8 %48, 0
  br i1 %tobool.not.i3.i.i486, label %if.end.i.i.i493, label %if.then.i4.i.i489

if.then.i4.i.i489:                                ; preds = %_ZSt13__check_facetISt5ctypeIcEERKT_PS3_.exit.i.i487
  %arrayidx.i.i.i488 = getelementptr inbounds %"class.std::ctype", ptr %47, i64 0, i32 9, i64 10
  %49 = load i8, ptr %arrayidx.i.i.i488, align 1, !tbaa !13
  br label %_ZSt4endlIcSt11char_traitsIcEERSt13basic_ostreamIT_T0_ES6_.exit497

if.end.i.i.i493:                                  ; preds = %_ZSt13__check_facetISt5ctypeIcEERKT_PS3_.exit.i.i487
  tail call void @_ZNKSt5ctypeIcE13_M_widen_initEv(ptr noundef nonnull align 8 dereferenceable(570) %47)
  %vtable.i.i.i490 = load ptr, ptr %47, align 8, !tbaa !42
  %vfn.i.i.i491 = getelementptr inbounds ptr, ptr %vtable.i.i.i490, i64 6
  %50 = load ptr, ptr %vfn.i.i.i491, align 8
  %call.i.i.i492 = tail call noundef signext i8 %50(ptr noundef nonnull align 8 dereferenceable(570) %47, i8 noundef signext 10)
  br label %_ZSt4endlIcSt11char_traitsIcEERSt13basic_ostreamIT_T0_ES6_.exit497

_ZSt4endlIcSt11char_traitsIcEERSt13basic_ostreamIT_T0_ES6_.exit497: ; preds = %if.then.i4.i.i489, %if.end.i.i.i493
  %retval.0.i.i.i494 = phi i8 [ %49, %if.then.i4.i.i489 ], [ %call.i.i.i492, %if.end.i.i.i493 ]
  %call1.i495 = tail call noundef nonnull align 8 dereferenceable(8) ptr @_ZNSo3putEc(ptr noundef nonnull align 8 dereferenceable(8) %call2.i214, i8 noundef signext %retval.0.i.i.i494)
  %call.i.i496 = tail call noundef nonnull align 8 dereferenceable(8) ptr @_ZNSo5flushEv(ptr noundef nonnull align 8 dereferenceable(8) %call1.i495)
  %call1.i217 = tail call noundef nonnull align 8 dereferenceable(8) ptr @_ZSt16__ostream_insertIcSt11char_traitsIcEERSt13basic_ostreamIT_T0_ES6_PKS3_l(ptr noundef nonnull align 8 dereferenceable(8) %add.ptr25, ptr noundef nonnull @.str.6, i64 noundef 9)
  %51 = load ptr, ptr %fname, align 8, !tbaa !15
  %_M_string_length.i.i218 = getelementptr inbounds %"class.std::__cxx11::basic_string", ptr %fname, i64 0, i32 1
  %52 = load i64, ptr %_M_string_length.i.i218, align 8, !tbaa !10
  %call2.i219 = tail call noundef nonnull align 8 dereferenceable(8) ptr @_ZSt16__ostream_insertIcSt11char_traitsIcEERSt13basic_ostreamIT_T0_ES6_PKS3_l(ptr noundef nonnull align 8 dereferenceable(8) %add.ptr25, ptr noundef %51, i64 noundef %52)
  %vtable.i498 = load ptr, ptr %call2.i219, align 8, !tbaa !42
  %vbase.offset.ptr.i499 = getelementptr i8, ptr %vtable.i498, i64 -24
  %vbase.offset.i500 = load i64, ptr %vbase.offset.ptr.i499, align 8
  %add.ptr.i501 = getelementptr inbounds i8, ptr %call2.i219, i64 %vbase.offset.i500
  %_M_ctype.i.i502 = getelementptr inbounds %"class.std::basic_ios", ptr %add.ptr.i501, i64 0, i32 5
  %53 = load ptr, ptr %_M_ctype.i.i502, align 8, !tbaa !44
  %tobool.not.i.i.i503 = icmp eq ptr %53, null
  br i1 %tobool.not.i.i.i503, label %if.then.i.i.i504, label %_ZSt13__check_facetISt5ctypeIcEERKT_PS3_.exit.i.i507

if.then.i.i.i504:                                 ; preds = %_ZSt4endlIcSt11char_traitsIcEERSt13basic_ostreamIT_T0_ES6_.exit497
  tail call void @_ZSt16__throw_bad_castv() #18
  unreachable

_ZSt13__check_facetISt5ctypeIcEERKT_PS3_.exit.i.i507: ; preds = %_ZSt4endlIcSt11char_traitsIcEERSt13basic_ostreamIT_T0_ES6_.exit497
  %_M_widen_ok.i.i.i505 = getelementptr inbounds %"class.std::ctype", ptr %53, i64 0, i32 8
  %54 = load i8, ptr %_M_widen_ok.i.i.i505, align 8, !tbaa !51
  %tobool.not.i3.i.i506 = icmp eq i8 %54, 0
  br i1 %tobool.not.i3.i.i506, label %if.end.i.i.i513, label %if.then.i4.i.i509

if.then.i4.i.i509:                                ; preds = %_ZSt13__check_facetISt5ctypeIcEERKT_PS3_.exit.i.i507
  %arrayidx.i.i.i508 = getelementptr inbounds %"class.std::ctype", ptr %53, i64 0, i32 9, i64 10
  %55 = load i8, ptr %arrayidx.i.i.i508, align 1, !tbaa !13
  br label %_ZSt4endlIcSt11char_traitsIcEERSt13basic_ostreamIT_T0_ES6_.exit517

if.end.i.i.i513:                                  ; preds = %_ZSt13__check_facetISt5ctypeIcEERKT_PS3_.exit.i.i507
  tail call void @_ZNKSt5ctypeIcE13_M_widen_initEv(ptr noundef nonnull align 8 dereferenceable(570) %53)
  %vtable.i.i.i510 = load ptr, ptr %53, align 8, !tbaa !42
  %vfn.i.i.i511 = getelementptr inbounds ptr, ptr %vtable.i.i.i510, i64 6
  %56 = load ptr, ptr %vfn.i.i.i511, align 8
  %call.i.i.i512 = tail call noundef signext i8 %56(ptr noundef nonnull align 8 dereferenceable(570) %53, i8 noundef signext 10)
  br label %_ZSt4endlIcSt11char_traitsIcEERSt13basic_ostreamIT_T0_ES6_.exit517

_ZSt4endlIcSt11char_traitsIcEERSt13basic_ostreamIT_T0_ES6_.exit517: ; preds = %if.then.i4.i.i509, %if.end.i.i.i513
  %retval.0.i.i.i514 = phi i8 [ %55, %if.then.i4.i.i509 ], [ %call.i.i.i512, %if.end.i.i.i513 ]
  %call1.i515 = tail call noundef nonnull align 8 dereferenceable(8) ptr @_ZNSo3putEc(ptr noundef nonnull align 8 dereferenceable(8) %call2.i219, i8 noundef signext %retval.0.i.i.i514)
  %call.i.i516 = tail call noundef nonnull align 8 dereferenceable(8) ptr @_ZNSo5flushEv(ptr noundef nonnull align 8 dereferenceable(8) %call1.i515)
  %call1.i222 = tail call noundef nonnull align 8 dereferenceable(8) ptr @_ZSt16__ostream_insertIcSt11char_traitsIcEERSt13basic_ostreamIT_T0_ES6_PKS3_l(ptr noundef nonnull align 8 dereferenceable(8) %add.ptr25, ptr noundef nonnull @.str.17, i64 noundef 62)
  %vtable.i518 = load ptr, ptr %add.ptr25, align 8, !tbaa !42
  %vbase.offset.ptr.i519 = getelementptr i8, ptr %vtable.i518, i64 -24
  %vbase.offset.i520 = load i64, ptr %vbase.offset.ptr.i519, align 8
  %add.ptr.i521 = getelementptr inbounds i8, ptr %add.ptr25, i64 %vbase.offset.i520
  %_M_ctype.i.i522 = getelementptr inbounds %"class.std::basic_ios", ptr %add.ptr.i521, i64 0, i32 5
  %57 = load ptr, ptr %_M_ctype.i.i522, align 8, !tbaa !44
  %tobool.not.i.i.i523 = icmp eq ptr %57, null
  br i1 %tobool.not.i.i.i523, label %if.then.i.i.i524, label %_ZSt13__check_facetISt5ctypeIcEERKT_PS3_.exit.i.i527

if.then.i.i.i524:                                 ; preds = %_ZSt4endlIcSt11char_traitsIcEERSt13basic_ostreamIT_T0_ES6_.exit517
  tail call void @_ZSt16__throw_bad_castv() #18
  unreachable

_ZSt13__check_facetISt5ctypeIcEERKT_PS3_.exit.i.i527: ; preds = %_ZSt4endlIcSt11char_traitsIcEERSt13basic_ostreamIT_T0_ES6_.exit517
  %_M_widen_ok.i.i.i525 = getelementptr inbounds %"class.std::ctype", ptr %57, i64 0, i32 8
  %58 = load i8, ptr %_M_widen_ok.i.i.i525, align 8, !tbaa !51
  %tobool.not.i3.i.i526 = icmp eq i8 %58, 0
  br i1 %tobool.not.i3.i.i526, label %if.end.i.i.i533, label %if.then.i4.i.i529

if.then.i4.i.i529:                                ; preds = %_ZSt13__check_facetISt5ctypeIcEERKT_PS3_.exit.i.i527
  %arrayidx.i.i.i528 = getelementptr inbounds %"class.std::ctype", ptr %57, i64 0, i32 9, i64 10
  %59 = load i8, ptr %arrayidx.i.i.i528, align 1, !tbaa !13
  br label %_ZSt4endlIcSt11char_traitsIcEERSt13basic_ostreamIT_T0_ES6_.exit537

if.end.i.i.i533:                                  ; preds = %_ZSt13__check_facetISt5ctypeIcEERKT_PS3_.exit.i.i527
  tail call void @_ZNKSt5ctypeIcE13_M_widen_initEv(ptr noundef nonnull align 8 dereferenceable(570) %57)
  %vtable.i.i.i530 = load ptr, ptr %57, align 8, !tbaa !42
  %vfn.i.i.i531 = getelementptr inbounds ptr, ptr %vtable.i.i.i530, i64 6
  %60 = load ptr, ptr %vfn.i.i.i531, align 8
  %call.i.i.i532 = tail call noundef signext i8 %60(ptr noundef nonnull align 8 dereferenceable(570) %57, i8 noundef signext 10)
  br label %_ZSt4endlIcSt11char_traitsIcEERSt13basic_ostreamIT_T0_ES6_.exit537

_ZSt4endlIcSt11char_traitsIcEERSt13basic_ostreamIT_T0_ES6_.exit537: ; preds = %if.then.i4.i.i529, %if.end.i.i.i533
  %retval.0.i.i.i534 = phi i8 [ %59, %if.then.i4.i.i529 ], [ %call.i.i.i532, %if.end.i.i.i533 ]
  %call1.i535 = tail call noundef nonnull align 8 dereferenceable(8) ptr @_ZNSo3putEc(ptr noundef nonnull align 8 dereferenceable(8) %add.ptr25, i8 noundef signext %retval.0.i.i.i534)
  %call.i.i536 = tail call noundef nonnull align 8 dereferenceable(8) ptr @_ZNSo5flushEv(ptr noundef nonnull align 8 dereferenceable(8) %call1.i535)
  %call1.i225 = tail call noundef nonnull align 8 dereferenceable(8) ptr @_ZSt16__ostream_insertIcSt11char_traitsIcEERSt13basic_ostreamIT_T0_ES6_PKS3_l(ptr noundef nonnull align 8 dereferenceable(8) %add.ptr25, ptr noundef nonnull @.str.9, i64 noundef 32)
  %61 = load i32, ptr %ndim, align 8, !tbaa !20
  %call49 = tail call noundef nonnull align 8 dereferenceable(8) ptr @_ZNSolsEi(ptr noundef nonnull align 8 dereferenceable(8) %add.ptr25, i32 noundef %61)
  %vtable.i538 = load ptr, ptr %call49, align 8, !tbaa !42
  %vbase.offset.ptr.i539 = getelementptr i8, ptr %vtable.i538, i64 -24
  %vbase.offset.i540 = load i64, ptr %vbase.offset.ptr.i539, align 8
  %add.ptr.i541 = getelementptr inbounds i8, ptr %call49, i64 %vbase.offset.i540
  %_M_ctype.i.i542 = getelementptr inbounds %"class.std::basic_ios", ptr %add.ptr.i541, i64 0, i32 5
  %62 = load ptr, ptr %_M_ctype.i.i542, align 8, !tbaa !44
  %tobool.not.i.i.i543 = icmp eq ptr %62, null
  br i1 %tobool.not.i.i.i543, label %if.then.i.i.i544, label %_ZSt13__check_facetISt5ctypeIcEERKT_PS3_.exit.i.i547

if.then.i.i.i544:                                 ; preds = %_ZSt4endlIcSt11char_traitsIcEERSt13basic_ostreamIT_T0_ES6_.exit537
  tail call void @_ZSt16__throw_bad_castv() #18
  unreachable

_ZSt13__check_facetISt5ctypeIcEERKT_PS3_.exit.i.i547: ; preds = %_ZSt4endlIcSt11char_traitsIcEERSt13basic_ostreamIT_T0_ES6_.exit537
  %_M_widen_ok.i.i.i545 = getelementptr inbounds %"class.std::ctype", ptr %62, i64 0, i32 8
  %63 = load i8, ptr %_M_widen_ok.i.i.i545, align 8, !tbaa !51
  %tobool.not.i3.i.i546 = icmp eq i8 %63, 0
  br i1 %tobool.not.i3.i.i546, label %if.end.i.i.i553, label %if.then.i4.i.i549

if.then.i4.i.i549:                                ; preds = %_ZSt13__check_facetISt5ctypeIcEERKT_PS3_.exit.i.i547
  %arrayidx.i.i.i548 = getelementptr inbounds %"class.std::ctype", ptr %62, i64 0, i32 9, i64 10
  %64 = load i8, ptr %arrayidx.i.i.i548, align 1, !tbaa !13
  br label %_ZSt4endlIcSt11char_traitsIcEERSt13basic_ostreamIT_T0_ES6_.exit557

if.end.i.i.i553:                                  ; preds = %_ZSt13__check_facetISt5ctypeIcEERKT_PS3_.exit.i.i547
  tail call void @_ZNKSt5ctypeIcE13_M_widen_initEv(ptr noundef nonnull align 8 dereferenceable(570) %62)
  %vtable.i.i.i550 = load ptr, ptr %62, align 8, !tbaa !42
  %vfn.i.i.i551 = getelementptr inbounds ptr, ptr %vtable.i.i.i550, i64 6
  %65 = load ptr, ptr %vfn.i.i.i551, align 8
  %call.i.i.i552 = tail call noundef signext i8 %65(ptr noundef nonnull align 8 dereferenceable(570) %62, i8 noundef signext 10)
  br label %_ZSt4endlIcSt11char_traitsIcEERSt13basic_ostreamIT_T0_ES6_.exit557

_ZSt4endlIcSt11char_traitsIcEERSt13basic_ostreamIT_T0_ES6_.exit557: ; preds = %if.then.i4.i.i549, %if.end.i.i.i553
  %retval.0.i.i.i554 = phi i8 [ %64, %if.then.i4.i.i549 ], [ %call.i.i.i552, %if.end.i.i.i553 ]
  %call1.i555 = tail call noundef nonnull align 8 dereferenceable(8) ptr @_ZNSo3putEc(ptr noundef nonnull align 8 dereferenceable(8) %call49, i8 noundef signext %retval.0.i.i.i554)
  %call.i.i556 = tail call noundef nonnull align 8 dereferenceable(8) ptr @_ZNSo5flushEv(ptr noundef nonnull align 8 dereferenceable(8) %call1.i555)
  %call1.i228 = tail call noundef nonnull align 8 dereferenceable(8) ptr @_ZSt16__ostream_insertIcSt11char_traitsIcEERSt13basic_ostreamIT_T0_ES6_PKS3_l(ptr noundef nonnull align 8 dereferenceable(8) %add.ptr25, ptr noundef nonnull @.str.10, i64 noundef 27)
  %call53 = tail call noundef nonnull align 8 dereferenceable(8) ptr @_ZNSolsEi(ptr noundef nonnull align 8 dereferenceable(8) %add.ptr25, i32 noundef %add)
  %vtable.i558 = load ptr, ptr %call53, align 8, !tbaa !42
  %vbase.offset.ptr.i559 = getelementptr i8, ptr %vtable.i558, i64 -24
  %vbase.offset.i560 = load i64, ptr %vbase.offset.ptr.i559, align 8
  %add.ptr.i561 = getelementptr inbounds i8, ptr %call53, i64 %vbase.offset.i560
  %_M_ctype.i.i562 = getelementptr inbounds %"class.std::basic_ios", ptr %add.ptr.i561, i64 0, i32 5
  %66 = load ptr, ptr %_M_ctype.i.i562, align 8, !tbaa !44
  %tobool.not.i.i.i563 = icmp eq ptr %66, null
  br i1 %tobool.not.i.i.i563, label %if.then.i.i.i564, label %_ZSt13__check_facetISt5ctypeIcEERKT_PS3_.exit.i.i567

if.then.i.i.i564:                                 ; preds = %_ZSt4endlIcSt11char_traitsIcEERSt13basic_ostreamIT_T0_ES6_.exit557
  tail call void @_ZSt16__throw_bad_castv() #18
  unreachable

_ZSt13__check_facetISt5ctypeIcEERKT_PS3_.exit.i.i567: ; preds = %_ZSt4endlIcSt11char_traitsIcEERSt13basic_ostreamIT_T0_ES6_.exit557
  %_M_widen_ok.i.i.i565 = getelementptr inbounds %"class.std::ctype", ptr %66, i64 0, i32 8
  %67 = load i8, ptr %_M_widen_ok.i.i.i565, align 8, !tbaa !51
  %tobool.not.i3.i.i566 = icmp eq i8 %67, 0
  br i1 %tobool.not.i3.i.i566, label %if.end.i.i.i573, label %if.then.i4.i.i569

if.then.i4.i.i569:                                ; preds = %_ZSt13__check_facetISt5ctypeIcEERKT_PS3_.exit.i.i567
  %arrayidx.i.i.i568 = getelementptr inbounds %"class.std::ctype", ptr %66, i64 0, i32 9, i64 10
  %68 = load i8, ptr %arrayidx.i.i.i568, align 1, !tbaa !13
  br label %_ZSt4endlIcSt11char_traitsIcEERSt13basic_ostreamIT_T0_ES6_.exit577

if.end.i.i.i573:                                  ; preds = %_ZSt13__check_facetISt5ctypeIcEERKT_PS3_.exit.i.i567
  tail call void @_ZNKSt5ctypeIcE13_M_widen_initEv(ptr noundef nonnull align 8 dereferenceable(570) %66)
  %vtable.i.i.i570 = load ptr, ptr %66, align 8, !tbaa !42
  %vfn.i.i.i571 = getelementptr inbounds ptr, ptr %vtable.i.i.i570, i64 6
  %69 = load ptr, ptr %vfn.i.i.i571, align 8
  %call.i.i.i572 = tail call noundef signext i8 %69(ptr noundef nonnull align 8 dereferenceable(570) %66, i8 noundef signext 10)
  br label %_ZSt4endlIcSt11char_traitsIcEERSt13basic_ostreamIT_T0_ES6_.exit577

_ZSt4endlIcSt11char_traitsIcEERSt13basic_ostreamIT_T0_ES6_.exit577: ; preds = %if.then.i4.i.i569, %if.end.i.i.i573
  %retval.0.i.i.i574 = phi i8 [ %68, %if.then.i4.i.i569 ], [ %call.i.i.i572, %if.end.i.i.i573 ]
  %call1.i575 = tail call noundef nonnull align 8 dereferenceable(8) ptr @_ZNSo3putEc(ptr noundef nonnull align 8 dereferenceable(8) %call53, i8 noundef signext %retval.0.i.i.i574)
  %call.i.i576 = tail call noundef nonnull align 8 dereferenceable(8) ptr @_ZNSo5flushEv(ptr noundef nonnull align 8 dereferenceable(8) %call1.i575)
  %lnum_ndim = getelementptr inbounds %"class.PP::Variable", ptr %this, i64 0, i32 4
  %70 = load i32, ptr %lnum_ndim, align 8, !tbaa !31
  %cmp55 = icmp sgt i32 %70, 0
  br i1 %cmp55, label %if.then56, label %cleanup.cont.sink.split

if.then56:                                        ; preds = %_ZSt4endlIcSt11char_traitsIcEERSt13basic_ostreamIT_T0_ES6_.exit577
  %call1.i231 = tail call noundef nonnull align 8 dereferenceable(8) ptr @_ZSt16__ostream_insertIcSt11char_traitsIcEERSt13basic_ostreamIT_T0_ES6_PKS3_l(ptr noundef nonnull align 8 dereferenceable(8) %add.ptr25, ptr noundef nonnull @.str.11, i64 noundef 23)
  %71 = load i32, ptr %lnum_ndim, align 8, !tbaa !31
