; ModuleID = '/usr/local/google/home/aeubanks/repos/test-suite/MicroBenchmarks/libs/benchmark/test/repetitions_test.cc'
source_filename = "/usr/local/google/home/aeubanks/repos/test-suite/MicroBenchmarks/libs/benchmark/test/repetitions_test.cc"
target datalayout = "e-m:e-p270:32:32-p271:32:32-p272:64:64-i64:64-f80:128-n8:16:32:64-S128"
target triple = "x86_64-unknown-linux-gnu"

%"class.std::ios_base::Init" = type { i8 }
%"class.std::_Sp_counted_base" = type { ptr, i32, i32 }
%struct.TestCase = type { %"class.std::__cxx11::basic_string", i32, %"class.std::__cxx11::basic_string", %"class.std::shared_ptr" }
%"class.std::__cxx11::basic_string" = type { %"struct.std::__cxx11::basic_string<char>::_Alloc_hider", i64, %union.anon }
%"struct.std::__cxx11::basic_string<char>::_Alloc_hider" = type { ptr }
%union.anon = type { i64, [8 x i8] }
%"class.std::shared_ptr" = type { %"class.std::__shared_ptr" }
%"class.std::__shared_ptr" = type { ptr, %"class.std::__shared_count" }
%"class.std::__shared_count" = type { ptr }
%"class.benchmark::internal::FunctionBenchmark" = type { %"class.benchmark::internal::Benchmark", ptr }
%"class.benchmark::internal::Benchmark" = type { ptr, %"class.std::__cxx11::basic_string", i32, %"class.std::vector", %"class.std::vector.3", i32, i8, i32, double, i64, i32, i8, i8, i8, i32, ptr, %"class.std::vector.13", %"class.std::vector.23", ptr, ptr }
%"class.std::vector" = type { %"struct.std::_Vector_base" }
%"struct.std::_Vector_base" = type { %"struct.std::_Vector_base<std::__cxx11::basic_string<char>, std::allocator<std::__cxx11::basic_string<char>>>::_Vector_impl" }
%"struct.std::_Vector_base<std::__cxx11::basic_string<char>, std::allocator<std::__cxx11::basic_string<char>>>::_Vector_impl" = type { %"struct.std::_Vector_base<std::__cxx11::basic_string<char>, std::allocator<std::__cxx11::basic_string<char>>>::_Vector_impl_data" }
%"struct.std::_Vector_base<std::__cxx11::basic_string<char>, std::allocator<std::__cxx11::basic_string<char>>>::_Vector_impl_data" = type { ptr, ptr, ptr }
%"class.std::vector.3" = type { %"struct.std::_Vector_base.4" }
%"struct.std::_Vector_base.4" = type { %"struct.std::_Vector_base<std::vector<long>, std::allocator<std::vector<long>>>::_Vector_impl" }
%"struct.std::_Vector_base<std::vector<long>, std::allocator<std::vector<long>>>::_Vector_impl" = type { %"struct.std::_Vector_base<std::vector<long>, std::allocator<std::vector<long>>>::_Vector_impl_data" }
%"struct.std::_Vector_base<std::vector<long>, std::allocator<std::vector<long>>>::_Vector_impl_data" = type { ptr, ptr, ptr }
%"class.std::vector.13" = type { %"struct.std::_Vector_base.14" }
%"struct.std::_Vector_base.14" = type { %"struct.std::_Vector_base<benchmark::internal::Statistics, std::allocator<benchmark::internal::Statistics>>::_Vector_impl" }
%"struct.std::_Vector_base<benchmark::internal::Statistics, std::allocator<benchmark::internal::Statistics>>::_Vector_impl" = type { %"struct.std::_Vector_base<benchmark::internal::Statistics, std::allocator<benchmark::internal::Statistics>>::_Vector_impl_data" }
%"struct.std::_Vector_base<benchmark::internal::Statistics, std::allocator<benchmark::internal::Statistics>>::_Vector_impl_data" = type { ptr, ptr, ptr }
%"class.std::vector.23" = type { %"struct.std::_Vector_base.24" }
%"struct.std::_Vector_base.24" = type { %"struct.std::_Vector_base<int, std::allocator<int>>::_Vector_impl" }
%"struct.std::_Vector_base<int, std::allocator<int>>::_Vector_impl" = type { %"struct.std::_Vector_base<int, std::allocator<int>>::_Vector_impl_data" }
%"struct.std::_Vector_base<int, std::allocator<int>>::_Vector_impl_data" = type { ptr, ptr, ptr }

$_ZNSt16_Sp_counted_baseILN9__gnu_cxx12_Lock_policyE2EE24_M_release_last_use_coldEv = comdat any

@_ZStL8__ioinit = internal global %"class.std::ios_base::Init" zeroinitializer, align 1
@__dso_handle = external hidden global i8
@_ZL27benchmark_uniq_2_benchmark_ = internal unnamed_addr global ptr null, align 8
@.str = private unnamed_addr constant [23 x i8] c"BM_ExplicitRepetitions\00", align 1
@dummy16 = hidden local_unnamed_addr global i32 0, align 4
@.str.4 = private unnamed_addr constant [51 x i8] c"^BM_ExplicitRepetitions/repeats:2 %console_report$\00", align 1
@dummy18 = hidden local_unnamed_addr global i32 0, align 4
@dummy20 = hidden local_unnamed_addr global i32 0, align 4
@.str.7 = private unnamed_addr constant [56 x i8] c"^BM_ExplicitRepetitions/repeats:2_mean %console_report$\00", align 1
@dummy22 = hidden local_unnamed_addr global i32 0, align 4
@.str.9 = private unnamed_addr constant [58 x i8] c"^BM_ExplicitRepetitions/repeats:2_median %console_report$\00", align 1
@dummy24 = hidden local_unnamed_addr global i32 0, align 4
@.str.11 = private unnamed_addr constant [58 x i8] c"^BM_ExplicitRepetitions/repeats:2_stddev %console_report$\00", align 1
@dummy38 = hidden local_unnamed_addr global i32 0, align 4
@.str.13 = private unnamed_addr constant [45 x i8] c"\22name\22: \22BM_ExplicitRepetitions/repeats:2\22,$\00", align 1
@.str.14 = private unnamed_addr constant [20 x i8] c"\22family_index\22: 0,$\00", align 1
@.str.15 = private unnamed_addr constant [33 x i8] c"\22per_family_instance_index\22: 0,$\00", align 1
@.str.16 = private unnamed_addr constant [49 x i8] c"\22run_name\22: \22BM_ExplicitRepetitions/repeats:2\22,$\00", align 1
@.str.17 = private unnamed_addr constant [26 x i8] c"\22run_type\22: \22iteration\22,$\00", align 1
@.str.18 = private unnamed_addr constant [19 x i8] c"\22repetitions\22: 2,$\00", align 1
@.str.19 = private unnamed_addr constant [24 x i8] c"\22repetition_index\22: 0,$\00", align 1
@.str.20 = private unnamed_addr constant [15 x i8] c"\22threads\22: 1,$\00", align 1
@.str.21 = private unnamed_addr constant [21 x i8] c"\22iterations\22: %int,$\00", align 1
@.str.22 = private unnamed_addr constant [22 x i8] c"\22real_time\22: %float,$\00", align 1
@.str.23 = private unnamed_addr constant [21 x i8] c"\22cpu_time\22: %float,$\00", align 1
@.str.24 = private unnamed_addr constant [19 x i8] c"\22time_unit\22: \22ns\22$\00", align 1
@dummy52 = hidden local_unnamed_addr global i32 0, align 4
@.str.27 = private unnamed_addr constant [24 x i8] c"\22repetition_index\22: 1,$\00", align 1
@dummy67 = hidden local_unnamed_addr global i32 0, align 4
@.str.29 = private unnamed_addr constant [50 x i8] c"\22name\22: \22BM_ExplicitRepetitions/repeats:2_mean\22,$\00", align 1
@.str.30 = private unnamed_addr constant [26 x i8] c"\22run_type\22: \22aggregate\22,$\00", align 1
@.str.31 = private unnamed_addr constant [27 x i8] c"\22aggregate_name\22: \22mean\22,$\00", align 1
@.str.32 = private unnamed_addr constant [27 x i8] c"\22aggregate_unit\22: \22time\22,$\00", align 1
@dummy82 = hidden local_unnamed_addr global i32 0, align 4
@.str.34 = private unnamed_addr constant [52 x i8] c"\22name\22: \22BM_ExplicitRepetitions/repeats:2_median\22,$\00", align 1
@.str.35 = private unnamed_addr constant [29 x i8] c"\22aggregate_name\22: \22median\22,$\00", align 1
@dummy97 = hidden local_unnamed_addr global i32 0, align 4
@.str.37 = private unnamed_addr constant [52 x i8] c"\22name\22: \22BM_ExplicitRepetitions/repeats:2_stddev\22,$\00", align 1
@.str.38 = private unnamed_addr constant [29 x i8] c"\22aggregate_name\22: \22stddev\22,$\00", align 1
@dummy98 = hidden local_unnamed_addr global i32 0, align 4
@.str.40 = private unnamed_addr constant [49 x i8] c"^\22BM_ExplicitRepetitions/repeats:2\22,%csv_report$\00", align 1
@dummy99 = hidden local_unnamed_addr global i32 0, align 4
@dummy101 = hidden local_unnamed_addr global i32 0, align 4
@.str.43 = private unnamed_addr constant [54 x i8] c"^\22BM_ExplicitRepetitions/repeats:2_mean\22,%csv_report$\00", align 1
@dummy103 = hidden local_unnamed_addr global i32 0, align 4
@.str.45 = private unnamed_addr constant [56 x i8] c"^\22BM_ExplicitRepetitions/repeats:2_median\22,%csv_report$\00", align 1
@dummy105 = hidden local_unnamed_addr global i32 0, align 4
@.str.47 = private unnamed_addr constant [56 x i8] c"^\22BM_ExplicitRepetitions/repeats:2_stddev\22,%csv_report$\00", align 1
@_ZL27benchmark_uniq_3_benchmark_ = internal unnamed_addr global ptr null, align 8
@.str.49 = private unnamed_addr constant [23 x i8] c"BM_ImplicitRepetitions\00", align 1
@dummy117 = hidden local_unnamed_addr global i32 0, align 4
@.str.51 = private unnamed_addr constant [41 x i8] c"^BM_ImplicitRepetitions %console_report$\00", align 1
@dummy118 = hidden local_unnamed_addr global i32 0, align 4
@dummy119 = hidden local_unnamed_addr global i32 0, align 4
@dummy120 = hidden local_unnamed_addr global i32 0, align 4
@.str.55 = private unnamed_addr constant [46 x i8] c"^BM_ImplicitRepetitions_mean %console_report$\00", align 1
@dummy121 = hidden local_unnamed_addr global i32 0, align 4
@.str.57 = private unnamed_addr constant [48 x i8] c"^BM_ImplicitRepetitions_median %console_report$\00", align 1
@dummy122 = hidden local_unnamed_addr global i32 0, align 4
@.str.59 = private unnamed_addr constant [48 x i8] c"^BM_ImplicitRepetitions_stddev %console_report$\00", align 1
@dummy135 = hidden local_unnamed_addr global i32 0, align 4
@.str.61 = private unnamed_addr constant [35 x i8] c"\22name\22: \22BM_ImplicitRepetitions\22,$\00", align 1
@.str.62 = private unnamed_addr constant [20 x i8] c"\22family_index\22: 1,$\00", align 1
@.str.63 = private unnamed_addr constant [39 x i8] c"\22run_name\22: \22BM_ImplicitRepetitions\22,$\00", align 1
@.str.64 = private unnamed_addr constant [19 x i8] c"\22repetitions\22: 3,$\00", align 1
@dummy148 = hidden local_unnamed_addr global i32 0, align 4
@dummy161 = hidden local_unnamed_addr global i32 0, align 4
@.str.67 = private unnamed_addr constant [24 x i8] c"\22repetition_index\22: 2,$\00", align 1
@dummy175 = hidden local_unnamed_addr global i32 0, align 4
@.str.69 = private unnamed_addr constant [40 x i8] c"\22name\22: \22BM_ImplicitRepetitions_mean\22,$\00", align 1
@dummy189 = hidden local_unnamed_addr global i32 0, align 4
@.str.71 = private unnamed_addr constant [42 x i8] c"\22name\22: \22BM_ImplicitRepetitions_median\22,$\00", align 1
@dummy203 = hidden local_unnamed_addr global i32 0, align 4
@.str.73 = private unnamed_addr constant [42 x i8] c"\22name\22: \22BM_ImplicitRepetitions_stddev\22,$\00", align 1
@dummy204 = hidden local_unnamed_addr global i32 0, align 4
@.str.75 = private unnamed_addr constant [39 x i8] c"^\22BM_ImplicitRepetitions\22,%csv_report$\00", align 1
@dummy205 = hidden local_unnamed_addr global i32 0, align 4
@dummy206 = hidden local_unnamed_addr global i32 0, align 4
@.str.78 = private unnamed_addr constant [44 x i8] c"^\22BM_ImplicitRepetitions_mean\22,%csv_report$\00", align 1
@dummy207 = hidden local_unnamed_addr global i32 0, align 4
@.str.80 = private unnamed_addr constant [46 x i8] c"^\22BM_ImplicitRepetitions_median\22,%csv_report$\00", align 1
@dummy208 = hidden local_unnamed_addr global i32 0, align 4
@.str.82 = private unnamed_addr constant [46 x i8] c"^\22BM_ImplicitRepetitions_stddev\22,%csv_report$\00", align 1
@_ZTVN9benchmark8internal17FunctionBenchmarkE = external unnamed_addr constant { [5 x ptr] }, align 8
@__libc_single_threaded = external local_unnamed_addr global i8, align 1
@llvm.global_ctors = appending global [1 x { i32, ptr, ptr }] [{ i32, ptr, ptr } { i32 65535, ptr @_GLOBAL__sub_I_repetitions_test.cc, ptr null }]

declare noundef i32 @_ZN9benchmark8internal17InitializeStreamsEv() local_unnamed_addr #0

declare void @_ZNSt8ios_base4InitC1Ev(ptr noundef nonnull align 1 dereferenceable(1)) unnamed_addr #0

; Function Attrs: nounwind
declare void @_ZNSt8ios_base4InitD1Ev(ptr noundef nonnull align 1 dereferenceable(1)) unnamed_addr #1

; Function Attrs: nofree nounwind
declare i32 @__cxa_atexit(ptr, ptr, ptr) local_unnamed_addr #2

declare noundef ptr @_ZN9benchmark8internal25RegisterBenchmarkInternalEPNS0_9BenchmarkE(ptr noundef) local_unnamed_addr #0

; Function Attrs: nobuiltin allocsize(0)
declare noundef nonnull ptr @_Znwm(i64 noundef) local_unnamed_addr #3

; Function Attrs: uwtable
define internal void @_ZL22BM_ExplicitRepetitionsRN9benchmark5StateE(ptr noundef nonnull align 8 dereferenceable(144) %state) #4 {
entry:
  tail call void @_ZN9benchmark5State16StartKeepRunningEv(ptr noundef nonnull align 8 dereferenceable(144) %state)
  tail call void @_ZN9benchmark5State17FinishKeepRunningEv(ptr noundef nonnull align 8 dereferenceable(144) %state)
  ret void
}

declare i32 @__gxx_personality_v0(...)

; Function Attrs: nobuiltin nounwind
declare void @_ZdlPv(ptr noundef) local_unnamed_addr #5

declare noundef ptr @_ZN9benchmark8internal9Benchmark11RepetitionsEi(ptr noundef nonnull align 8 dereferenceable(216), i32 noundef) local_unnamed_addr #0

declare noundef i32 @_Z8AddCases10TestCaseIDSt16initializer_listI8TestCaseE(i32 noundef, ptr, i64) local_unnamed_addr #0

; Function Attrs: mustprogress nocallback nofree nosync nounwind willreturn memory(argmem: readwrite)
declare void @llvm.lifetime.start.p0(i64 immarg, ptr nocapture) #6

declare void @_ZN8TestCaseC1ENSt7__cxx1112basic_stringIcSt11char_traitsIcESaIcEEEi(ptr noundef nonnull align 8 dereferenceable(88), ptr noundef, i32 noundef) unnamed_addr #0

; Function Attrs: mustprogress nocallback nofree nosync nounwind willreturn memory(argmem: readwrite)
declare void @llvm.lifetime.end.p0(i64 immarg, ptr nocapture) #6

; Function Attrs: uwtable
define internal void @_ZL22BM_ImplicitRepetitionsRN9benchmark5StateE(ptr noundef nonnull align 8 dereferenceable(144) %state) #4 {
entry:
  tail call void @_ZN9benchmark5State16StartKeepRunningEv(ptr noundef nonnull align 8 dereferenceable(144) %state)
  tail call void @_ZN9benchmark5State17FinishKeepRunningEv(ptr noundef nonnull align 8 dereferenceable(144) %state)
  ret void
}

; Function Attrs: mustprogress norecurse uwtable
define hidden noundef i32 @main(i32 noundef %argc, ptr noundef %argv) local_unnamed_addr #7 {
entry:
  tail call void @_Z14RunOutputTestsiPPc(i32 noundef %argc, ptr noundef %argv)
  ret i32 0
}

declare void @_Z14RunOutputTestsiPPc(i32 noundef, ptr noundef) local_unnamed_addr #0

declare void @_ZN9benchmark5State16StartKeepRunningEv(ptr noundef nonnull align 8 dereferenceable(144)) local_unnamed_addr #0

declare void @_ZN9benchmark5State17FinishKeepRunningEv(ptr noundef nonnull align 8 dereferenceable(144)) local_unnamed_addr #0

declare void @_ZN9benchmark8internal9BenchmarkC2EPKc(ptr noundef nonnull align 8 dereferenceable(216), ptr noundef) unnamed_addr #0

; Function Attrs: mustprogress noinline nounwind uwtable
define linkonce_odr hidden void @_ZNSt16_Sp_counted_baseILN9__gnu_cxx12_Lock_policyE2EE24_M_release_last_use_coldEv(ptr noundef nonnull align 8 dereferenceable(16) %this) local_unnamed_addr #8 comdat align 2 personality ptr @__gxx_personality_v0 {
entry:
  %vtable.i = load ptr, ptr %this, align 8, !tbaa !5
  %vfn.i = getelementptr inbounds ptr, ptr %vtable.i, i64 2
  %0 = load ptr, ptr %vfn.i, align 8
  tail call void %0(ptr noundef nonnull align 8 dereferenceable(16) %this) #10
  %_M_weak_count.i = getelementptr inbounds %"class.std::_Sp_counted_base", ptr %this, i64 0, i32 2
  %1 = load i8, ptr @__libc_single_threaded, align 1, !tbaa !8
  %tobool.i.not.i.i = icmp eq i8 %1, 0
  br i1 %tobool.i.not.i.i, label %if.else.i.i, label %if.then.i.i

if.then.i.i:                                      ; preds = %entry
  %2 = load i32, ptr %_M_weak_count.i, align 4, !tbaa !10
  %add.i.i.i = add nsw i32 %2, -1
  store i32 %add.i.i.i, ptr %_M_weak_count.i, align 4, !tbaa !10
  br label %invoke.cont.i

if.else.i.i:                                      ; preds = %entry
  %3 = atomicrmw volatile add ptr %_M_weak_count.i, i32 -1 acq_rel, align 4
  br label %invoke.cont.i

invoke.cont.i:                                    ; preds = %if.else.i.i, %if.then.i.i
  %retval.0.i.i = phi i32 [ %2, %if.then.i.i ], [ %3, %if.else.i.i ]
  %cmp.i = icmp eq i32 %retval.0.i.i, 1
  br i1 %cmp.i, label %if.then.i, label %_ZNSt16_Sp_counted_baseILN9__gnu_cxx12_Lock_policyE2EE19_M_release_last_useEv.exit

if.then.i:                                        ; preds = %invoke.cont.i
  %vtable2.i = load ptr, ptr %this, align 8, !tbaa !5
  %vfn3.i = getelementptr inbounds ptr, ptr %vtable2.i, i64 3
  %4 = load ptr, ptr %vfn3.i, align 8
  tail call void %4(ptr noundef nonnull align 8 dereferenceable(16) %this) #10
  br label %_ZNSt16_Sp_counted_baseILN9__gnu_cxx12_Lock_policyE2EE19_M_release_last_useEv.exit

_ZNSt16_Sp_counted_baseILN9__gnu_cxx12_Lock_policyE2EE19_M_release_last_useEv.exit: ; preds = %invoke.cont.i, %if.then.i
  ret void
}

declare noundef ptr @_ZNSt7__cxx1112basic_stringIcSt11char_traitsIcESaIcEE9_M_createERmm(ptr noundef nonnull align 8 dereferenceable(32), ptr noundef nonnull align 8 dereferenceable(8), i64 noundef) local_unnamed_addr #0

; Function Attrs: mustprogress nocallback nofree nounwind willreturn memory(argmem: readwrite)
declare void @llvm.memcpy.p0.p0.i64(ptr noalias nocapture writeonly, ptr noalias nocapture readonly, i64, i1 immarg) #9

; Function Attrs: uwtable
define internal void @_GLOBAL__sub_I_repetitions_test.cc() #4 section ".text.startup" personality ptr @__gxx_personality_v0 {
entry:
  %__dnew.i.i.i3883 = alloca i64, align 8
  %ref.tmp.i3884 = alloca [1 x %struct.TestCase], align 8
  %agg.tmp1.i3885 = alloca %"class.std::__cxx11::basic_string", align 8
  %__dnew.i.i.i3836 = alloca i64, align 8
  %ref.tmp.i3837 = alloca [1 x %struct.TestCase], align 8
  %agg.tmp1.i3838 = alloca %"class.std::__cxx11::basic_string", align 8
  %__dnew.i.i.i3789 = alloca i64, align 8
  %ref.tmp.i3790 = alloca [1 x %struct.TestCase], align 8
  %agg.tmp1.i3791 = alloca %"class.std::__cxx11::basic_string", align 8
  %__dnew.i.i.i3742 = alloca i64, align 8
  %ref.tmp.i3743 = alloca [1 x %struct.TestCase], align 8
  %agg.tmp1.i3744 = alloca %"class.std::__cxx11::basic_string", align 8
  %__dnew.i.i.i3695 = alloca i64, align 8
  %ref.tmp.i3696 = alloca [1 x %struct.TestCase], align 8
  %agg.tmp1.i3697 = alloca %"class.std::__cxx11::basic_string", align 8
  %__dnew.i.i314.i3384 = alloca i64, align 8
  %__dnew.i.i302.i3385 = alloca i64, align 8
  %__dnew.i.i290.i3386 = alloca i64, align 8
  %__dnew.i.i278.i3387 = alloca i64, align 8
  %__dnew.i.i266.i3388 = alloca i64, align 8
  %__dnew.i.i254.i3389 = alloca i64, align 8
  %__dnew.i.i230.i3390 = alloca i64, align 8
  %__dnew.i.i218.i3391 = alloca i64, align 8
  %__dnew.i.i206.i3392 = alloca i64, align 8
  %__dnew.i.i194.i3393 = alloca i64, align 8
  %__dnew.i.i182.i3394 = alloca i64, align 8
  %__dnew.i.i.i3395 = alloca i64, align 8
  %ref.tmp.i3396 = alloca [14 x %struct.TestCase], align 8
  %agg.tmp1.i3397 = alloca %"class.std::__cxx11::basic_string", align 8
  %agg.tmp5.i3398 = alloca %"class.std::__cxx11::basic_string", align 8
  %agg.tmp12.i3399 = alloca %"class.std::__cxx11::basic_string", align 8
  %agg.tmp19.i3400 = alloca %"class.std::__cxx11::basic_string", align 8
  %agg.tmp26.i3401 = alloca %"class.std::__cxx11::basic_string", align 8
  %agg.tmp33.i3402 = alloca %"class.std::__cxx11::basic_string", align 8
  %agg.tmp40.i3403 = alloca %"class.std::__cxx11::basic_string", align 8
  %agg.tmp47.i3404 = alloca %"class.std::__cxx11::basic_string", align 8
  %agg.tmp54.i3405 = alloca %"class.std::__cxx11::basic_string", align 8
  %agg.tmp61.i3406 = alloca %"class.std::__cxx11::basic_string", align 8
  %agg.tmp68.i3407 = alloca %"class.std::__cxx11::basic_string", align 8
  %agg.tmp75.i3408 = alloca %"class.std::__cxx11::basic_string", align 8
  %agg.tmp82.i3409 = alloca %"class.std::__cxx11::basic_string", align 8
  %agg.tmp89.i3410 = alloca %"class.std::__cxx11::basic_string", align 8
  %__dnew.i.i314.i3073 = alloca i64, align 8
  %__dnew.i.i302.i3074 = alloca i64, align 8
  %__dnew.i.i290.i3075 = alloca i64, align 8
  %__dnew.i.i278.i3076 = alloca i64, align 8
  %__dnew.i.i266.i3077 = alloca i64, align 8
  %__dnew.i.i254.i3078 = alloca i64, align 8
  %__dnew.i.i230.i3079 = alloca i64, align 8
  %__dnew.i.i218.i3080 = alloca i64, align 8
  %__dnew.i.i206.i3081 = alloca i64, align 8
  %__dnew.i.i194.i3082 = alloca i64, align 8
  %__dnew.i.i182.i3083 = alloca i64, align 8
  %__dnew.i.i.i3084 = alloca i64, align 8
  %ref.tmp.i3085 = alloca [14 x %struct.TestCase], align 8
  %agg.tmp1.i3086 = alloca %"class.std::__cxx11::basic_string", align 8
  %agg.tmp5.i3087 = alloca %"class.std::__cxx11::basic_string", align 8
  %agg.tmp12.i3088 = alloca %"class.std::__cxx11::basic_string", align 8
  %agg.tmp19.i3089 = alloca %"class.std::__cxx11::basic_string", align 8
  %agg.tmp26.i3090 = alloca %"class.std::__cxx11::basic_string", align 8
  %agg.tmp33.i3091 = alloca %"class.std::__cxx11::basic_string", align 8
  %agg.tmp40.i3092 = alloca %"class.std::__cxx11::basic_string", align 8
  %agg.tmp47.i3093 = alloca %"class.std::__cxx11::basic_string", align 8
  %agg.tmp54.i3094 = alloca %"class.std::__cxx11::basic_string", align 8
  %agg.tmp61.i3095 = alloca %"class.std::__cxx11::basic_string", align 8
  %agg.tmp68.i3096 = alloca %"class.std::__cxx11::basic_string", align 8
  %agg.tmp75.i3097 = alloca %"class.std::__cxx11::basic_string", align 8
  %agg.tmp82.i3098 = alloca %"class.std::__cxx11::basic_string", align 8
  %agg.tmp89.i3099 = alloca %"class.std::__cxx11::basic_string", align 8
  %__dnew.i.i314.i2762 = alloca i64, align 8
  %__dnew.i.i302.i2763 = alloca i64, align 8
  %__dnew.i.i290.i2764 = alloca i64, align 8
  %__dnew.i.i278.i2765 = alloca i64, align 8
  %__dnew.i.i266.i2766 = alloca i64, align 8
  %__dnew.i.i254.i2767 = alloca i64, align 8
  %__dnew.i.i230.i2768 = alloca i64, align 8
  %__dnew.i.i218.i2769 = alloca i64, align 8
  %__dnew.i.i206.i2770 = alloca i64, align 8
  %__dnew.i.i194.i2771 = alloca i64, align 8
  %__dnew.i.i182.i2772 = alloca i64, align 8
  %__dnew.i.i.i2773 = alloca i64, align 8
  %ref.tmp.i2774 = alloca [14 x %struct.TestCase], align 8
  %agg.tmp1.i2775 = alloca %"class.std::__cxx11::basic_string", align 8
  %agg.tmp5.i2776 = alloca %"class.std::__cxx11::basic_string", align 8
  %agg.tmp12.i2777 = alloca %"class.std::__cxx11::basic_string", align 8
  %agg.tmp19.i2778 = alloca %"class.std::__cxx11::basic_string", align 8
  %agg.tmp26.i2779 = alloca %"class.std::__cxx11::basic_string", align 8
  %agg.tmp33.i2780 = alloca %"class.std::__cxx11::basic_string", align 8
  %agg.tmp40.i2781 = alloca %"class.std::__cxx11::basic_string", align 8
  %agg.tmp47.i2782 = alloca %"class.std::__cxx11::basic_string", align 8
  %agg.tmp54.i2783 = alloca %"class.std::__cxx11::basic_string", align 8
  %agg.tmp61.i2784 = alloca %"class.std::__cxx11::basic_string", align 8
  %agg.tmp68.i2785 = alloca %"class.std::__cxx11::basic_string", align 8
  %agg.tmp75.i2786 = alloca %"class.std::__cxx11::basic_string", align 8
  %agg.tmp82.i2787 = alloca %"class.std::__cxx11::basic_string", align 8
  %agg.tmp89.i2788 = alloca %"class.std::__cxx11::basic_string", align 8
  %__dnew.i.i290.i2470 = alloca i64, align 8
  %__dnew.i.i278.i2471 = alloca i64, align 8
  %__dnew.i.i266.i2472 = alloca i64, align 8
  %__dnew.i.i254.i2473 = alloca i64, align 8
  %__dnew.i.i230.i2474 = alloca i64, align 8
  %__dnew.i.i218.i2475 = alloca i64, align 8
  %__dnew.i.i206.i2476 = alloca i64, align 8
  %__dnew.i.i194.i2477 = alloca i64, align 8
  %__dnew.i.i182.i2478 = alloca i64, align 8
  %__dnew.i.i170.i2479 = alloca i64, align 8
  %__dnew.i.i.i2480 = alloca i64, align 8
  %ref.tmp.i2481 = alloca [13 x %struct.TestCase], align 8
  %agg.tmp1.i2482 = alloca %"class.std::__cxx11::basic_string", align 8
  %agg.tmp5.i2483 = alloca %"class.std::__cxx11::basic_string", align 8
  %agg.tmp12.i2484 = alloca %"class.std::__cxx11::basic_string", align 8
  %agg.tmp19.i2485 = alloca %"class.std::__cxx11::basic_string", align 8
  %agg.tmp26.i2486 = alloca %"class.std::__cxx11::basic_string", align 8
  %agg.tmp33.i2487 = alloca %"class.std::__cxx11::basic_string", align 8
  %agg.tmp40.i2488 = alloca %"class.std::__cxx11::basic_string", align 8
  %agg.tmp47.i2489 = alloca %"class.std::__cxx11::basic_string", align 8
  %agg.tmp54.i2490 = alloca %"class.std::__cxx11::basic_string", align 8
  %agg.tmp61.i2491 = alloca %"class.std::__cxx11::basic_string", align 8
  %agg.tmp68.i2492 = alloca %"class.std::__cxx11::basic_string", align 8
  %agg.tmp75.i2493 = alloca %"class.std::__cxx11::basic_string", align 8
  %agg.tmp82.i2494 = alloca %"class.std::__cxx11::basic_string", align 8
  %__dnew.i.i290.i2178 = alloca i64, align 8
  %__dnew.i.i278.i2179 = alloca i64, align 8
  %__dnew.i.i266.i2180 = alloca i64, align 8
  %__dnew.i.i254.i2181 = alloca i64, align 8
  %__dnew.i.i230.i2182 = alloca i64, align 8
  %__dnew.i.i218.i2183 = alloca i64, align 8
  %__dnew.i.i206.i2184 = alloca i64, align 8
  %__dnew.i.i194.i2185 = alloca i64, align 8
  %__dnew.i.i182.i2186 = alloca i64, align 8
  %__dnew.i.i170.i2187 = alloca i64, align 8
  %__dnew.i.i.i2188 = alloca i64, align 8
  %ref.tmp.i2189 = alloca [13 x %struct.TestCase], align 8
  %agg.tmp1.i2190 = alloca %"class.std::__cxx11::basic_string", align 8
  %agg.tmp5.i2191 = alloca %"class.std::__cxx11::basic_string", align 8
  %agg.tmp12.i2192 = alloca %"class.std::__cxx11::basic_string", align 8
  %agg.tmp19.i2193 = alloca %"class.std::__cxx11::basic_string", align 8
  %agg.tmp26.i2194 = alloca %"class.std::__cxx11::basic_string", align 8
  %agg.tmp33.i2195 = alloca %"class.std::__cxx11::basic_string", align 8
  %agg.tmp40.i2196 = alloca %"class.std::__cxx11::basic_string", align 8
  %agg.tmp47.i2197 = alloca %"class.std::__cxx11::basic_string", align 8
  %agg.tmp54.i2198 = alloca %"class.std::__cxx11::basic_string", align 8
  %agg.tmp61.i2199 = alloca %"class.std::__cxx11::basic_string", align 8
  %agg.tmp68.i2200 = alloca %"class.std::__cxx11::basic_string", align 8
  %agg.tmp75.i2201 = alloca %"class.std::__cxx11::basic_string", align 8
  %agg.tmp82.i2202 = alloca %"class.std::__cxx11::basic_string", align 8
  %__dnew.i.i290.i1886 = alloca i64, align 8
  %__dnew.i.i278.i1887 = alloca i64, align 8
  %__dnew.i.i266.i1888 = alloca i64, align 8
  %__dnew.i.i254.i1889 = alloca i64, align 8
  %__dnew.i.i230.i1890 = alloca i64, align 8
  %__dnew.i.i218.i1891 = alloca i64, align 8
  %__dnew.i.i206.i1892 = alloca i64, align 8
  %__dnew.i.i194.i1893 = alloca i64, align 8
  %__dnew.i.i182.i1894 = alloca i64, align 8
  %__dnew.i.i170.i1895 = alloca i64, align 8
  %__dnew.i.i.i1896 = alloca i64, align 8
  %ref.tmp.i1897 = alloca [13 x %struct.TestCase], align 8
  %agg.tmp1.i1898 = alloca %"class.std::__cxx11::basic_string", align 8
  %agg.tmp5.i1899 = alloca %"class.std::__cxx11::basic_string", align 8
  %agg.tmp12.i1900 = alloca %"class.std::__cxx11::basic_string", align 8
  %agg.tmp19.i1901 = alloca %"class.std::__cxx11::basic_string", align 8
  %agg.tmp26.i1902 = alloca %"class.std::__cxx11::basic_string", align 8
  %agg.tmp33.i1903 = alloca %"class.std::__cxx11::basic_string", align 8
  %agg.tmp40.i1904 = alloca %"class.std::__cxx11::basic_string", align 8
  %agg.tmp47.i1905 = alloca %"class.std::__cxx11::basic_string", align 8
  %agg.tmp54.i1906 = alloca %"class.std::__cxx11::basic_string", align 8
  %agg.tmp61.i1907 = alloca %"class.std::__cxx11::basic_string", align 8
  %agg.tmp68.i1908 = alloca %"class.std::__cxx11::basic_string", align 8
  %agg.tmp75.i1909 = alloca %"class.std::__cxx11::basic_string", align 8
  %agg.tmp82.i1910 = alloca %"class.std::__cxx11::basic_string", align 8
  %__dnew.i.i.i1839 = alloca i64, align 8
  %ref.tmp.i1840 = alloca [1 x %struct.TestCase], align 8
  %agg.tmp1.i1841 = alloca %"class.std::__cxx11::basic_string", align 8
  %__dnew.i.i.i1792 = alloca i64, align 8
  %ref.tmp.i1793 = alloca [1 x %struct.TestCase], align 8
  %agg.tmp1.i1794 = alloca %"class.std::__cxx11::basic_string", align 8
  %__dnew.i.i.i1745 = alloca i64, align 8
  %ref.tmp.i1746 = alloca [1 x %struct.TestCase], align 8
  %agg.tmp1.i1747 = alloca %"class.std::__cxx11::basic_string", align 8
  %__dnew.i.i.i1698 = alloca i64, align 8
  %ref.tmp.i1699 = alloca [1 x %struct.TestCase], align 8
  %agg.tmp1.i1700 = alloca %"class.std::__cxx11::basic_string", align 8
  %__dnew.i.i.i1651 = alloca i64, align 8
  %ref.tmp.i1652 = alloca [1 x %struct.TestCase], align 8
  %agg.tmp1.i1653 = alloca %"class.std::__cxx11::basic_string", align 8
  %__dnew.i.i.i1604 = alloca i64, align 8
  %ref.tmp.i1605 = alloca [1 x %struct.TestCase], align 8
  %agg.tmp1.i1606 = alloca %"class.std::__cxx11::basic_string", align 8
  %__dnew.i.i.i1553 = alloca i64, align 8
  %ref.tmp.i1554 = alloca [1 x %struct.TestCase], align 8
  %agg.tmp1.i1555 = alloca %"class.std::__cxx11::basic_string", align 8
  %__dnew.i.i.i1506 = alloca i64, align 8
  %ref.tmp.i1507 = alloca [1 x %struct.TestCase], align 8
  %agg.tmp1.i1508 = alloca %"class.std::__cxx11::basic_string", align 8
  %__dnew.i.i.i1459 = alloca i64, align 8
  %ref.tmp.i1460 = alloca [1 x %struct.TestCase], align 8
  %agg.tmp1.i1461 = alloca %"class.std::__cxx11::basic_string", align 8
  %__dnew.i.i.i1412 = alloca i64, align 8
  %ref.tmp.i1413 = alloca [1 x %struct.TestCase], align 8
  %agg.tmp1.i1414 = alloca %"class.std::__cxx11::basic_string", align 8
  %__dnew.i.i.i1365 = alloca i64, align 8
  %ref.tmp.i1366 = alloca [1 x %struct.TestCase], align 8
  %agg.tmp1.i1367 = alloca %"class.std::__cxx11::basic_string", align 8
  %__dnew.i.i314.i1054 = alloca i64, align 8
  %__dnew.i.i302.i1055 = alloca i64, align 8
  %__dnew.i.i290.i1056 = alloca i64, align 8
  %__dnew.i.i278.i1057 = alloca i64, align 8
  %__dnew.i.i266.i1058 = alloca i64, align 8
  %__dnew.i.i254.i1059 = alloca i64, align 8
  %__dnew.i.i230.i1060 = alloca i64, align 8
  %__dnew.i.i218.i1061 = alloca i64, align 8
  %__dnew.i.i206.i1062 = alloca i64, align 8
  %__dnew.i.i194.i1063 = alloca i64, align 8
  %__dnew.i.i182.i1064 = alloca i64, align 8
  %__dnew.i.i.i1065 = alloca i64, align 8
  %ref.tmp.i1066 = alloca [14 x %struct.TestCase], align 8
  %agg.tmp1.i1067 = alloca %"class.std::__cxx11::basic_string", align 8
  %agg.tmp5.i1068 = alloca %"class.std::__cxx11::basic_string", align 8
  %agg.tmp12.i1069 = alloca %"class.std::__cxx11::basic_string", align 8
  %agg.tmp19.i1070 = alloca %"class.std::__cxx11::basic_string", align 8
  %agg.tmp26.i1071 = alloca %"class.std::__cxx11::basic_string", align 8
  %agg.tmp33.i1072 = alloca %"class.std::__cxx11::basic_string", align 8
  %agg.tmp40.i1073 = alloca %"class.std::__cxx11::basic_string", align 8
  %agg.tmp47.i1074 = alloca %"class.std::__cxx11::basic_string", align 8
  %agg.tmp54.i1075 = alloca %"class.std::__cxx11::basic_string", align 8
  %agg.tmp61.i1076 = alloca %"class.std::__cxx11::basic_string", align 8
  %agg.tmp68.i1077 = alloca %"class.std::__cxx11::basic_string", align 8
  %agg.tmp75.i1078 = alloca %"class.std::__cxx11::basic_string", align 8
  %agg.tmp82.i1079 = alloca %"class.std::__cxx11::basic_string", align 8
  %agg.tmp89.i1080 = alloca %"class.std::__cxx11::basic_string", align 8
  %__dnew.i.i314.i743 = alloca i64, align 8
  %__dnew.i.i302.i744 = alloca i64, align 8
  %__dnew.i.i290.i745 = alloca i64, align 8
  %__dnew.i.i278.i746 = alloca i64, align 8
  %__dnew.i.i266.i747 = alloca i64, align 8
  %__dnew.i.i254.i748 = alloca i64, align 8
  %__dnew.i.i230.i749 = alloca i64, align 8
  %__dnew.i.i218.i750 = alloca i64, align 8
  %__dnew.i.i206.i751 = alloca i64, align 8
  %__dnew.i.i194.i752 = alloca i64, align 8
  %__dnew.i.i182.i753 = alloca i64, align 8
  %__dnew.i.i.i754 = alloca i64, align 8
  %ref.tmp.i755 = alloca [14 x %struct.TestCase], align 8
  %agg.tmp1.i756 = alloca %"class.std::__cxx11::basic_string", align 8
  %agg.tmp5.i757 = alloca %"class.std::__cxx11::basic_string", align 8
  %agg.tmp12.i758 = alloca %"class.std::__cxx11::basic_string", align 8
  %agg.tmp19.i759 = alloca %"class.std::__cxx11::basic_string", align 8
  %agg.tmp26.i760 = alloca %"class.std::__cxx11::basic_string", align 8
  %agg.tmp33.i761 = alloca %"class.std::__cxx11::basic_string", align 8
  %agg.tmp40.i762 = alloca %"class.std::__cxx11::basic_string", align 8
  %agg.tmp47.i763 = alloca %"class.std::__cxx11::basic_string", align 8
  %agg.tmp54.i764 = alloca %"class.std::__cxx11::basic_string", align 8
  %agg.tmp61.i765 = alloca %"class.std::__cxx11::basic_string", align 8
  %agg.tmp68.i766 = alloca %"class.std::__cxx11::basic_string", align 8
  %agg.tmp75.i767 = alloca %"class.std::__cxx11::basic_string", align 8
  %agg.tmp82.i768 = alloca %"class.std::__cxx11::basic_string", align 8
  %agg.tmp89.i769 = alloca %"class.std::__cxx11::basic_string", align 8
  %__dnew.i.i314.i = alloca i64, align 8
  %__dnew.i.i302.i = alloca i64, align 8
  %__dnew.i.i290.i516 = alloca i64, align 8
  %__dnew.i.i278.i517 = alloca i64, align 8
  %__dnew.i.i266.i518 = alloca i64, align 8
  %__dnew.i.i254.i519 = alloca i64, align 8
  %__dnew.i.i230.i520 = alloca i64, align 8
  %__dnew.i.i218.i521 = alloca i64, align 8
  %__dnew.i.i206.i522 = alloca i64, align 8
  %__dnew.i.i194.i523 = alloca i64, align 8
  %__dnew.i.i182.i524 = alloca i64, align 8
  %__dnew.i.i.i525 = alloca i64, align 8
  %ref.tmp.i526 = alloca [14 x %struct.TestCase], align 8
  %agg.tmp1.i527 = alloca %"class.std::__cxx11::basic_string", align 8
  %agg.tmp5.i528 = alloca %"class.std::__cxx11::basic_string", align 8
  %agg.tmp12.i529 = alloca %"class.std::__cxx11::basic_string", align 8
  %agg.tmp19.i530 = alloca %"class.std::__cxx11::basic_string", align 8
  %agg.tmp26.i531 = alloca %"class.std::__cxx11::basic_string", align 8
  %agg.tmp33.i532 = alloca %"class.std::__cxx11::basic_string", align 8
  %agg.tmp40.i533 = alloca %"class.std::__cxx11::basic_string", align 8
  %agg.tmp47.i534 = alloca %"class.std::__cxx11::basic_string", align 8
  %agg.tmp54.i535 = alloca %"class.std::__cxx11::basic_string", align 8
  %agg.tmp61.i536 = alloca %"class.std::__cxx11::basic_string", align 8
  %agg.tmp68.i537 = alloca %"class.std::__cxx11::basic_string", align 8
  %agg.tmp75.i538 = alloca %"class.std::__cxx11::basic_string", align 8
  %agg.tmp82.i539 = alloca %"class.std::__cxx11::basic_string", align 8
  %agg.tmp89.i = alloca %"class.std::__cxx11::basic_string", align 8
  %__dnew.i.i290.i225 = alloca i64, align 8
  %__dnew.i.i278.i226 = alloca i64, align 8
  %__dnew.i.i266.i227 = alloca i64, align 8
  %__dnew.i.i254.i228 = alloca i64, align 8
  %__dnew.i.i230.i229 = alloca i64, align 8
  %__dnew.i.i218.i230 = alloca i64, align 8
  %__dnew.i.i206.i231 = alloca i64, align 8
  %__dnew.i.i194.i232 = alloca i64, align 8
  %__dnew.i.i182.i233 = alloca i64, align 8
  %__dnew.i.i170.i234 = alloca i64, align 8
  %__dnew.i.i.i235 = alloca i64, align 8
  %ref.tmp.i236 = alloca [13 x %struct.TestCase], align 8
  %agg.tmp1.i237 = alloca %"class.std::__cxx11::basic_string", align 8
  %agg.tmp5.i238 = alloca %"class.std::__cxx11::basic_string", align 8
  %agg.tmp12.i239 = alloca %"class.std::__cxx11::basic_string", align 8
  %agg.tmp19.i240 = alloca %"class.std::__cxx11::basic_string", align 8
  %agg.tmp26.i241 = alloca %"class.std::__cxx11::basic_string", align 8
  %agg.tmp33.i242 = alloca %"class.std::__cxx11::basic_string", align 8
  %agg.tmp40.i243 = alloca %"class.std::__cxx11::basic_string", align 8
  %agg.tmp47.i244 = alloca %"class.std::__cxx11::basic_string", align 8
  %agg.tmp54.i245 = alloca %"class.std::__cxx11::basic_string", align 8
  %agg.tmp61.i246 = alloca %"class.std::__cxx11::basic_string", align 8
  %agg.tmp68.i247 = alloca %"class.std::__cxx11::basic_string", align 8
  %agg.tmp75.i248 = alloca %"class.std::__cxx11::basic_string", align 8
  %agg.tmp82.i249 = alloca %"class.std::__cxx11::basic_string", align 8
  %__dnew.i.i290.i = alloca i64, align 8
  %__dnew.i.i278.i = alloca i64, align 8
  %__dnew.i.i266.i = alloca i64, align 8
  %__dnew.i.i254.i = alloca i64, align 8
  %__dnew.i.i230.i = alloca i64, align 8
  %__dnew.i.i218.i = alloca i64, align 8
  %__dnew.i.i206.i = alloca i64, align 8
  %__dnew.i.i194.i = alloca i64, align 8
  %__dnew.i.i182.i = alloca i64, align 8
  %__dnew.i.i170.i = alloca i64, align 8
  %__dnew.i.i.i187 = alloca i64, align 8
  %ref.tmp.i188 = alloca [13 x %struct.TestCase], align 8
  %agg.tmp1.i189 = alloca %"class.std::__cxx11::basic_string", align 8
  %agg.tmp5.i = alloca %"class.std::__cxx11::basic_string", align 8
  %agg.tmp12.i = alloca %"class.std::__cxx11::basic_string", align 8
  %agg.tmp19.i = alloca %"class.std::__cxx11::basic_string", align 8
  %agg.tmp26.i = alloca %"class.std::__cxx11::basic_string", align 8
  %agg.tmp33.i = alloca %"class.std::__cxx11::basic_string", align 8
  %agg.tmp40.i = alloca %"class.std::__cxx11::basic_string", align 8
  %agg.tmp47.i = alloca %"class.std::__cxx11::basic_string", align 8
  %agg.tmp54.i = alloca %"class.std::__cxx11::basic_string", align 8
  %agg.tmp61.i = alloca %"class.std::__cxx11::basic_string", align 8
  %agg.tmp68.i = alloca %"class.std::__cxx11::basic_string", align 8
  %agg.tmp75.i = alloca %"class.std::__cxx11::basic_string", align 8
  %agg.tmp82.i = alloca %"class.std::__cxx11::basic_string", align 8
  %__dnew.i.i.i141 = alloca i64, align 8
  %ref.tmp.i142 = alloca [1 x %struct.TestCase], align 8
  %agg.tmp1.i143 = alloca %"class.std::__cxx11::basic_string", align 8
  %__dnew.i.i.i95 = alloca i64, align 8
  %ref.tmp.i96 = alloca [1 x %struct.TestCase], align 8
  %agg.tmp1.i97 = alloca %"class.std::__cxx11::basic_string", align 8
  %__dnew.i.i.i49 = alloca i64, align 8
  %ref.tmp.i50 = alloca [1 x %struct.TestCase], align 8
  %agg.tmp1.i51 = alloca %"class.std::__cxx11::basic_string", align 8
  %__dnew.i.i.i3 = alloca i64, align 8
  %ref.tmp.i4 = alloca [1 x %struct.TestCase], align 8
  %agg.tmp1.i5 = alloca %"class.std::__cxx11::basic_string", align 8
  %__dnew.i.i.i = alloca i64, align 8
  %ref.tmp.i = alloca [1 x %struct.TestCase], align 8
  %agg.tmp1.i = alloca %"class.std::__cxx11::basic_string", align 8
  %call.i = tail call noundef i32 @_ZN9benchmark8internal17InitializeStreamsEv()
  tail call void @_ZNSt8ios_base4InitC1Ev(ptr noundef nonnull align 1 dereferenceable(1) @_ZStL8__ioinit)
  %0 = tail call i32 @__cxa_atexit(ptr nonnull @_ZNSt8ios_base4InitD1Ev, ptr nonnull @_ZStL8__ioinit, ptr nonnull @__dso_handle) #10
  %call.i1 = tail call noalias noundef nonnull dereferenceable(224) ptr @_Znwm(i64 noundef 224) #11
  invoke void @_ZN9benchmark8internal9BenchmarkC2EPKc(ptr noundef nonnull align 8 dereferenceable(216) %call.i1, ptr noundef nonnull @.str)
          to label %__cxx_global_var_init.2.exit unwind label %lpad.i

common.resume:                                    ; preds = %ehcleanup14.i3929, %ehcleanup14.i3882, %ehcleanup14.i3835, %ehcleanup14.i3788, %ehcleanup14.i3741, %cleanup.done.i3694, %cleanup.done.i3383, %cleanup.done.i3072, %cleanup.done.i2761, %cleanup.done.i2469, %cleanup.done.i2177, %ehcleanup14.i1885, %ehcleanup14.i1838, %ehcleanup14.i1791, %ehcleanup14.i1744, %ehcleanup14.i1697, %ehcleanup14.i1650, %lpad.i1603, %ehcleanup14.i1599, %ehcleanup14.i1552, %ehcleanup14.i1505, %ehcleanup14.i1458, %ehcleanup14.i1411, %cleanup.done.i1364, %cleanup.done.i1053, %cleanup.done.i742, %cleanup.done.i515, %cleanup.done.i, %ehcleanup14.i186, %ehcleanup14.i140, %ehcleanup14.i94, %ehcleanup14.i48, %ehcleanup14.i, %lpad.i
  %common.resume.op = phi { ptr, i32 } [ %1, %lpad.i ], [ %.pn.i, %ehcleanup14.i ], [ %.pn.i44, %ehcleanup14.i48 ], [ %.pn.i90, %ehcleanup14.i94 ], [ %.pn.i136, %ehcleanup14.i140 ], [ %.pn.i182, %ehcleanup14.i186 ], [ %.pn.pn.pn.pn.pn.pn.pn.pn.pn.pn.pn.pn.pn.pn.pn.pn.pn.pn.pn.pn.pn.pn.pn.pn.pn.i, %cleanup.done.i ], [ %.pn.pn.pn.pn.pn.pn.pn.pn.pn.pn.pn.pn.pn.pn.pn.pn.pn.pn.pn.pn.pn.pn.pn.pn.pn.i503, %cleanup.done.i515 ], [ %.pn.pn.pn.pn.pn.pn.pn.pn.pn.pn.pn.pn.pn.pn.pn.pn.pn.pn.pn.pn.pn.pn.pn.pn.pn.pn.pn.i, %cleanup.done.i742 ], [ %.pn.pn.pn.pn.pn.pn.pn.pn.pn.pn.pn.pn.pn.pn.pn.pn.pn.pn.pn.pn.pn.pn.pn.pn.pn.pn.pn.i1041, %cleanup.done.i1053 ], [ %.pn.pn.pn.pn.pn.pn.pn.pn.pn.pn.pn.pn.pn.pn.pn.pn.pn.pn.pn.pn.pn.pn.pn.pn.pn.pn.pn.i1352, %cleanup.done.i1364 ], [ %.pn.i1407, %ehcleanup14.i1411 ], [ %.pn.i1454, %ehcleanup14.i1458 ], [ %.pn.i1501, %ehcleanup14.i1505 ], [ %.pn.i1548, %ehcleanup14.i1552 ], [ %.pn.i1595, %ehcleanup14.i1599 ], [ %1581, %lpad.i1603 ], [ %.pn.i1646, %ehcleanup14.i1650 ], [ %.pn.i1693, %ehcleanup14.i1697 ], [ %.pn.i1740, %ehcleanup14.i1744 ], [ %.pn.i1787, %ehcleanup14.i1791 ], [ %.pn.i1834, %ehcleanup14.i1838 ], [ %.pn.i1881, %ehcleanup14.i1885 ], [ %.pn.pn.pn.pn.pn.pn.pn.pn.pn.pn.pn.pn.pn.pn.pn.pn.pn.pn.pn.pn.pn.pn.pn.pn.pn.i2165, %cleanup.done.i2177 ], [ %.pn.pn.pn.pn.pn.pn.pn.pn.pn.pn.pn.pn.pn.pn.pn.pn.pn.pn.pn.pn.pn.pn.pn.pn.pn.i2457, %cleanup.done.i2469 ], [ %.pn.pn.pn.pn.pn.pn.pn.pn.pn.pn.pn.pn.pn.pn.pn.pn.pn.pn.pn.pn.pn.pn.pn.pn.pn.i2749, %cleanup.done.i2761 ], [ %.pn.pn.pn.pn.pn.pn.pn.pn.pn.pn.pn.pn.pn.pn.pn.pn.pn.pn.pn.pn.pn.pn.pn.pn.pn.pn.pn.i3060, %cleanup.done.i3072 ], [ %.pn.pn.pn.pn.pn.pn.pn.pn.pn.pn.pn.pn.pn.pn.pn.pn.pn.pn.pn.pn.pn.pn.pn.pn.pn.pn.pn.i3371, %cleanup.done.i3383 ], [ %.pn.pn.pn.pn.pn.pn.pn.pn.pn.pn.pn.pn.pn.pn.pn.pn.pn.pn.pn.pn.pn.pn.pn.pn.pn.pn.pn.i3682, %cleanup.done.i3694 ], [ %.pn.i3737, %ehcleanup14.i3741 ], [ %.pn.i3784, %ehcleanup14.i3788 ], [ %.pn.i3831, %ehcleanup14.i3835 ], [ %.pn.i3878, %ehcleanup14.i3882 ], [ %.pn.i3925, %ehcleanup14.i3929 ]
  resume { ptr, i32 } %common.resume.op

lpad.i:                                           ; preds = %entry
  %1 = landingpad { ptr, i32 }
          cleanup
  tail call void @_ZdlPv(ptr noundef nonnull %call.i1) #12
  br label %common.resume

__cxx_global_var_init.2.exit:                     ; preds = %entry
  store ptr getelementptr inbounds ({ [5 x ptr] }, ptr @_ZTVN9benchmark8internal17FunctionBenchmarkE, i64 0, inrange i32 0, i64 2), ptr %call.i1, align 8, !tbaa !5
  %func_.i.i = getelementptr inbounds %"class.benchmark::internal::FunctionBenchmark", ptr %call.i1, i64 0, i32 1
  store ptr @_ZL22BM_ExplicitRepetitionsRN9benchmark5StateE, ptr %func_.i.i, align 8, !tbaa !12
  %call1.i = tail call noundef ptr @_ZN9benchmark8internal25RegisterBenchmarkInternalEPNS0_9BenchmarkE(ptr noundef nonnull %call.i1)
  %call2.i = tail call noundef ptr @_ZN9benchmark8internal9Benchmark11RepetitionsEi(ptr noundef nonnull align 8 dereferenceable(216) %call1.i, i32 noundef 2)
  store ptr %call2.i, ptr @_ZL27benchmark_uniq_2_benchmark_, align 8, !tbaa !40
  call void @llvm.lifetime.start.p0(i64 32, ptr nonnull %agg.tmp1.i)
  call void @llvm.lifetime.start.p0(i64 88, ptr nonnull %ref.tmp.i) #10
  %2 = getelementptr inbounds %"class.std::__cxx11::basic_string", ptr %agg.tmp1.i, i64 0, i32 2
  store ptr %2, ptr %agg.tmp1.i, align 8, !tbaa !41
  call void @llvm.lifetime.start.p0(i64 8, ptr nonnull %__dnew.i.i.i) #10
  store i64 50, ptr %__dnew.i.i.i, align 8, !tbaa !42
  %call2.i11.i26.i = call noundef ptr @_ZNSt7__cxx1112basic_stringIcSt11char_traitsIcESaIcEE9_M_createERmm(ptr noundef nonnull align 8 dereferenceable(32) %agg.tmp1.i, ptr noundef nonnull align 8 dereferenceable(8) %__dnew.i.i.i, i64 noundef 0)
  store ptr %call2.i11.i26.i, ptr %agg.tmp1.i, align 8, !tbaa !43
  %3 = load i64, ptr %__dnew.i.i.i, align 8, !tbaa !42
  store i64 %3, ptr %2, align 8, !tbaa !8
  call void @llvm.memcpy.p0.p0.i64(ptr noundef nonnull align 1 dereferenceable(50) %call2.i11.i26.i, ptr noundef nonnull align 1 dereferenceable(50) @.str.4, i64 50, i1 false)
  %_M_string_length.i.i.i.i.i = getelementptr inbounds %"class.std::__cxx11::basic_string", ptr %agg.tmp1.i, i64 0, i32 1
  store i64 %3, ptr %_M_string_length.i.i.i.i.i, align 8, !tbaa !44
  %arrayidx.i.i.i.i = getelementptr inbounds i8, ptr %call2.i11.i26.i, i64 %3
  store i8 0, ptr %arrayidx.i.i.i.i, align 1, !tbaa !8
  call void @llvm.lifetime.end.p0(i64 8, ptr nonnull %__dnew.i.i.i) #10
  invoke void @_ZN8TestCaseC1ENSt7__cxx1112basic_stringIcSt11char_traitsIcESaIcEEEi(ptr noundef nonnull align 8 dereferenceable(88) %ref.tmp.i, ptr noundef nonnull %agg.tmp1.i, i32 noundef 0)
          to label %invoke.cont4.i unwind label %lpad3.i

invoke.cont4.i:                                   ; preds = %__cxx_global_var_init.2.exit
  %call.i2 = invoke noundef i32 @_Z8AddCases10TestCaseIDSt16initializer_listI8TestCaseE(i32 noundef 0, ptr nonnull %ref.tmp.i, i64 1)
          to label %invoke.cont6.i unwind label %lpad5.i

invoke.cont6.i:                                   ; preds = %invoke.cont4.i
  %_M_refcount.i.i.i = getelementptr inbounds %struct.TestCase, ptr %ref.tmp.i, i64 0, i32 3, i32 0, i32 1
  %4 = load ptr, ptr %_M_refcount.i.i.i, align 8, !tbaa !45
  %cmp.not.i.i.i.i = icmp eq ptr %4, null
  br i1 %cmp.not.i.i.i.i, label %_ZNSt12__shared_ptrIN9benchmark5RegexELN9__gnu_cxx12_Lock_policyE2EED2Ev.exit.i.i, label %if.then.i.i.i.i

if.then.i.i.i.i:                                  ; preds = %invoke.cont6.i
  %_M_use_count.i.i.i.i.i = getelementptr inbounds %"class.std::_Sp_counted_base", ptr %4, i64 0, i32 1
  %5 = load atomic i64, ptr %_M_use_count.i.i.i.i.i acquire, align 8
  %cmp.i.i.i.i.i = icmp eq i64 %5, 4294967297
  %6 = trunc i64 %5 to i32
  br i1 %cmp.i.i.i.i.i, label %if.then.i.i.i.i27.i, label %if.end.i.i.i.i.i

if.then.i.i.i.i27.i:                              ; preds = %if.then.i.i.i.i
  store i32 0, ptr %_M_use_count.i.i.i.i.i, align 8, !tbaa !47
  %_M_weak_count.i.i.i.i.i = getelementptr inbounds %"class.std::_Sp_counted_base", ptr %4, i64 0, i32 2
  store i32 0, ptr %_M_weak_count.i.i.i.i.i, align 4, !tbaa !49
  %vtable.i.i.i.i.i = load ptr, ptr %4, align 8, !tbaa !5
  %vfn.i.i.i.i.i = getelementptr inbounds ptr, ptr %vtable.i.i.i.i.i, i64 2
  %7 = load ptr, ptr %vfn.i.i.i.i.i, align 8
  call void %7(ptr noundef nonnull align 8 dereferenceable(16) %4) #10
  %vtable3.i.i.i.i.i = load ptr, ptr %4, align 8, !tbaa !5
  %vfn4.i.i.i.i.i = getelementptr inbounds ptr, ptr %vtable3.i.i.i.i.i, i64 3
  %8 = load ptr, ptr %vfn4.i.i.i.i.i, align 8
  call void %8(ptr noundef nonnull align 8 dereferenceable(16) %4) #10
  br label %_ZNSt12__shared_ptrIN9benchmark5RegexELN9__gnu_cxx12_Lock_policyE2EED2Ev.exit.i.i

if.end.i.i.i.i.i:                                 ; preds = %if.then.i.i.i.i
  %9 = load i8, ptr @__libc_single_threaded, align 1, !tbaa !8
  %tobool.i.not.i.i.i.i.i.i = icmp eq i8 %9, 0
  br i1 %tobool.i.not.i.i.i.i.i.i, label %if.else.i.i.i.i.i.i, label %if.then.i.i.i.i.i.i

if.then.i.i.i.i.i.i:                              ; preds = %if.end.i.i.i.i.i
  %add.i.i.i.i.i.i.i = add nsw i32 %6, -1
  store i32 %add.i.i.i.i.i.i.i, ptr %_M_use_count.i.i.i.i.i, align 8, !tbaa !10
  br label %invoke.cont.i.i.i.i.i

if.else.i.i.i.i.i.i:                              ; preds = %if.end.i.i.i.i.i
  %10 = atomicrmw volatile add ptr %_M_use_count.i.i.i.i.i, i32 -1 acq_rel, align 4
  br label %invoke.cont.i.i.i.i.i

invoke.cont.i.i.i.i.i:                            ; preds = %if.else.i.i.i.i.i.i, %if.then.i.i.i.i.i.i
  %retval.0.i.i.i.i.i.i = phi i32 [ %6, %if.then.i.i.i.i.i.i ], [ %10, %if.else.i.i.i.i.i.i ]
  %cmp6.i.i.i.i.i = icmp eq i32 %retval.0.i.i.i.i.i.i, 1
  br i1 %cmp6.i.i.i.i.i, label %if.then7.i.i.i.i.i, label %_ZNSt12__shared_ptrIN9benchmark5RegexELN9__gnu_cxx12_Lock_policyE2EED2Ev.exit.i.i, !prof !50

if.then7.i.i.i.i.i:                               ; preds = %invoke.cont.i.i.i.i.i
  call void @_ZNSt16_Sp_counted_baseILN9__gnu_cxx12_Lock_policyE2EE24_M_release_last_use_coldEv(ptr noundef nonnull align 8 dereferenceable(16) %4) #10
  br label %_ZNSt12__shared_ptrIN9benchmark5RegexELN9__gnu_cxx12_Lock_policyE2EED2Ev.exit.i.i

_ZNSt12__shared_ptrIN9benchmark5RegexELN9__gnu_cxx12_Lock_policyE2EED2Ev.exit.i.i: ; preds = %if.then7.i.i.i.i.i, %invoke.cont.i.i.i.i.i, %if.then.i.i.i.i27.i, %invoke.cont6.i
  %substituted_regex.i.i = getelementptr inbounds %struct.TestCase, ptr %ref.tmp.i, i64 0, i32 2
  %11 = load ptr, ptr %substituted_regex.i.i, align 8, !tbaa !43
  %12 = getelementptr inbounds %struct.TestCase, ptr %ref.tmp.i, i64 0, i32 2, i32 2
  %cmp.i.i.i2.i.i = icmp eq ptr %11, %12
  br i1 %cmp.i.i.i2.i.i, label %_ZNSt7__cxx1112basic_stringIcSt11char_traitsIcESaIcEED2Ev.exit.i.i, label %if.then.i.i3.i.i

if.then.i.i3.i.i:                                 ; preds = %_ZNSt12__shared_ptrIN9benchmark5RegexELN9__gnu_cxx12_Lock_policyE2EED2Ev.exit.i.i
  call void @_ZdlPv(ptr noundef %11) #12
  br label %_ZNSt7__cxx1112basic_stringIcSt11char_traitsIcESaIcEED2Ev.exit.i.i

_ZNSt7__cxx1112basic_stringIcSt11char_traitsIcESaIcEED2Ev.exit.i.i: ; preds = %if.then.i.i3.i.i, %_ZNSt12__shared_ptrIN9benchmark5RegexELN9__gnu_cxx12_Lock_policyE2EED2Ev.exit.i.i
  %13 = load ptr, ptr %ref.tmp.i, align 8, !tbaa !43
  %14 = getelementptr inbounds %struct.TestCase, ptr %ref.tmp.i, i64 0, i32 0, i32 2
  %cmp.i.i.i4.i.i = icmp eq ptr %13, %14
  br i1 %cmp.i.i.i4.i.i, label %_ZN8TestCaseD2Ev.exit.i, label %if.then.i.i5.i.i

if.then.i.i5.i.i:                                 ; preds = %_ZNSt7__cxx1112basic_stringIcSt11char_traitsIcESaIcEED2Ev.exit.i.i
  call void @_ZdlPv(ptr noundef %13) #12
  br label %_ZN8TestCaseD2Ev.exit.i

_ZN8TestCaseD2Ev.exit.i:                          ; preds = %if.then.i.i5.i.i, %_ZNSt7__cxx1112basic_stringIcSt11char_traitsIcESaIcEED2Ev.exit.i.i
  %15 = load ptr, ptr %agg.tmp1.i, align 8, !tbaa !43
  %cmp.i.i.i.i = icmp eq ptr %15, %2
  br i1 %cmp.i.i.i.i, label %__cxx_global_var_init.3.exit, label %if.then.i.i28.i

if.then.i.i28.i:                                  ; preds = %_ZN8TestCaseD2Ev.exit.i
  call void @_ZdlPv(ptr noundef %15) #12
  br label %__cxx_global_var_init.3.exit

lpad3.i:                                          ; preds = %__cxx_global_var_init.2.exit
  %16 = landingpad { ptr, i32 }
          cleanup
  br label %ehcleanup.i

lpad5.i:                                          ; preds = %invoke.cont4.i
  %17 = landingpad { ptr, i32 }
          cleanup
  %_M_refcount.i.i = getelementptr inbounds %struct.TestCase, ptr %ref.tmp.i, i64 0, i32 3, i32 0, i32 1
  %18 = load ptr, ptr %_M_refcount.i.i, align 8, !tbaa !45
  %cmp.not.i.i.i = icmp eq ptr %18, null
  br i1 %cmp.not.i.i.i, label %_ZNSt12__shared_ptrIN9benchmark5RegexELN9__gnu_cxx12_Lock_policyE2EED2Ev.exit.i, label %if.then.i.i.i

if.then.i.i.i:                                    ; preds = %lpad5.i
  %_M_use_count.i.i.i.i = getelementptr inbounds %"class.std::_Sp_counted_base", ptr %18, i64 0, i32 1
  %19 = load atomic i64, ptr %_M_use_count.i.i.i.i acquire, align 8
  %cmp.i.i.i.i3930 = icmp eq i64 %19, 4294967297
  %20 = trunc i64 %19 to i32
  br i1 %cmp.i.i.i.i3930, label %if.then.i.i.i.i3931, label %if.end.i.i.i.i

if.then.i.i.i.i3931:                              ; preds = %if.then.i.i.i
  store i32 0, ptr %_M_use_count.i.i.i.i, align 8, !tbaa !47
  %_M_weak_count.i.i.i.i = getelementptr inbounds %"class.std::_Sp_counted_base", ptr %18, i64 0, i32 2
  store i32 0, ptr %_M_weak_count.i.i.i.i, align 4, !tbaa !49
  %vtable.i.i.i.i = load ptr, ptr %18, align 8, !tbaa !5
  %vfn.i.i.i.i = getelementptr inbounds ptr, ptr %vtable.i.i.i.i, i64 2
  %21 = load ptr, ptr %vfn.i.i.i.i, align 8
  call void %21(ptr noundef nonnull align 8 dereferenceable(16) %18) #10
  %vtable3.i.i.i.i = load ptr, ptr %18, align 8, !tbaa !5
  %vfn4.i.i.i.i = getelementptr inbounds ptr, ptr %vtable3.i.i.i.i, i64 3
  %22 = load ptr, ptr %vfn4.i.i.i.i, align 8
  call void %22(ptr noundef nonnull align 8 dereferenceable(16) %18) #10
  br label %_ZNSt12__shared_ptrIN9benchmark5RegexELN9__gnu_cxx12_Lock_policyE2EED2Ev.exit.i

if.end.i.i.i.i:                                   ; preds = %if.then.i.i.i
  %23 = load i8, ptr @__libc_single_threaded, align 1, !tbaa !8
  %tobool.i.not.i.i.i.i.i = icmp eq i8 %23, 0
  br i1 %tobool.i.not.i.i.i.i.i, label %if.else.i.i.i.i.i, label %if.then.i.i.i.i.i

if.then.i.i.i.i.i:                                ; preds = %if.end.i.i.i.i
  %add.i.i.i.i.i.i = add nsw i32 %20, -1
  store i32 %add.i.i.i.i.i.i, ptr %_M_use_count.i.i.i.i, align 8, !tbaa !10
  br label %invoke.cont.i.i.i.i

if.else.i.i.i.i.i:                                ; preds = %if.end.i.i.i.i
  %24 = atomicrmw volatile add ptr %_M_use_count.i.i.i.i, i32 -1 acq_rel, align 4
  br label %invoke.cont.i.i.i.i

invoke.cont.i.i.i.i:                              ; preds = %if.else.i.i.i.i.i, %if.then.i.i.i.i.i
  %retval.0.i.i.i.i.i = phi i32 [ %20, %if.then.i.i.i.i.i ], [ %24, %if.else.i.i.i.i.i ]
  %cmp6.i.i.i.i = icmp eq i32 %retval.0.i.i.i.i.i, 1
  br i1 %cmp6.i.i.i.i, label %if.then7.i.i.i.i, label %_ZNSt12__shared_ptrIN9benchmark5RegexELN9__gnu_cxx12_Lock_policyE2EED2Ev.exit.i, !prof !50

if.then7.i.i.i.i:                                 ; preds = %invoke.cont.i.i.i.i
  call void @_ZNSt16_Sp_counted_baseILN9__gnu_cxx12_Lock_policyE2EE24_M_release_last_use_coldEv(ptr noundef nonnull align 8 dereferenceable(16) %18) #10
  br label %_ZNSt12__shared_ptrIN9benchmark5RegexELN9__gnu_cxx12_Lock_policyE2EED2Ev.exit.i

_ZNSt12__shared_ptrIN9benchmark5RegexELN9__gnu_cxx12_Lock_policyE2EED2Ev.exit.i: ; preds = %if.then7.i.i.i.i, %invoke.cont.i.i.i.i, %if.then.i.i.i.i3931, %lpad5.i
  %substituted_regex.i = getelementptr inbounds %struct.TestCase, ptr %ref.tmp.i, i64 0, i32 2
  %25 = load ptr, ptr %substituted_regex.i, align 8, !tbaa !43
  %26 = getelementptr inbounds %struct.TestCase, ptr %ref.tmp.i, i64 0, i32 2, i32 2
  %cmp.i.i.i2.i = icmp eq ptr %25, %26
  br i1 %cmp.i.i.i2.i, label %_ZNSt7__cxx1112basic_stringIcSt11char_traitsIcESaIcEED2Ev.exit.i3932, label %if.then.i.i3.i

if.then.i.i3.i:                                   ; preds = %_ZNSt12__shared_ptrIN9benchmark5RegexELN9__gnu_cxx12_Lock_policyE2EED2Ev.exit.i
  call void @_ZdlPv(ptr noundef %25) #12
  br label %_ZNSt7__cxx1112basic_stringIcSt11char_traitsIcESaIcEED2Ev.exit.i3932

_ZNSt7__cxx1112basic_stringIcSt11char_traitsIcESaIcEED2Ev.exit.i3932: ; preds = %if.then.i.i3.i, %_ZNSt12__shared_ptrIN9benchmark5RegexELN9__gnu_cxx12_Lock_policyE2EED2Ev.exit.i
  %27 = load ptr, ptr %ref.tmp.i, align 8, !tbaa !43
  %28 = getelementptr inbounds %"class.std::__cxx11::basic_string", ptr %ref.tmp.i, i64 0, i32 2
  %cmp.i.i.i4.i = icmp eq ptr %27, %28
  br i1 %cmp.i.i.i4.i, label %ehcleanup.i, label %if.then.i.i5.i

if.then.i.i5.i:                                   ; preds = %_ZNSt7__cxx1112basic_stringIcSt11char_traitsIcESaIcEED2Ev.exit.i3932
  call void @_ZdlPv(ptr noundef %27) #12
  br label %ehcleanup.i

ehcleanup.i:                                      ; preds = %if.then.i.i5.i, %_ZNSt7__cxx1112basic_stringIcSt11char_traitsIcESaIcEED2Ev.exit.i3932, %lpad3.i
  %.pn.i = phi { ptr, i32 } [ %16, %lpad3.i ], [ %17, %_ZNSt7__cxx1112basic_stringIcSt11char_traitsIcESaIcEED2Ev.exit.i3932 ], [ %17, %if.then.i.i5.i ]
  %29 = load ptr, ptr %agg.tmp1.i, align 8, !tbaa !43
  %cmp.i.i.i29.i = icmp eq ptr %29, %2
  br i1 %cmp.i.i.i29.i, label %ehcleanup14.i, label %if.then.i.i30.i

if.then.i.i30.i:                                  ; preds = %ehcleanup.i
  call void @_ZdlPv(ptr noundef %29) #12
  br label %ehcleanup14.i

ehcleanup14.i:                                    ; preds = %if.then.i.i30.i, %ehcleanup.i
  call void @llvm.lifetime.end.p0(i64 88, ptr nonnull %ref.tmp.i) #10
  br label %common.resume

__cxx_global_var_init.3.exit:                     ; preds = %_ZN8TestCaseD2Ev.exit.i, %if.then.i.i28.i
  call void @llvm.lifetime.end.p0(i64 88, ptr nonnull %ref.tmp.i) #10
  store i32 %call.i2, ptr @dummy16, align 4, !tbaa !10
  call void @llvm.lifetime.end.p0(i64 32, ptr nonnull %agg.tmp1.i)
  call void @llvm.lifetime.start.p0(i64 32, ptr nonnull %agg.tmp1.i5)
  call void @llvm.lifetime.start.p0(i64 88, ptr nonnull %ref.tmp.i4) #10
  %30 = getelementptr inbounds %"class.std::__cxx11::basic_string", ptr %agg.tmp1.i5, i64 0, i32 2
  store ptr %30, ptr %agg.tmp1.i5, align 8, !tbaa !41
  call void @llvm.lifetime.start.p0(i64 8, ptr nonnull %__dnew.i.i.i3) #10
  store i64 50, ptr %__dnew.i.i.i3, align 8, !tbaa !42
  %call2.i11.i26.i6 = call noundef ptr @_ZNSt7__cxx1112basic_stringIcSt11char_traitsIcESaIcEE9_M_createERmm(ptr noundef nonnull align 8 dereferenceable(32) %agg.tmp1.i5, ptr noundef nonnull align 8 dereferenceable(8) %__dnew.i.i.i3, i64 noundef 0)
  store ptr %call2.i11.i26.i6, ptr %agg.tmp1.i5, align 8, !tbaa !43
  %31 = load i64, ptr %__dnew.i.i.i3, align 8, !tbaa !42
  store i64 %31, ptr %30, align 8, !tbaa !8
  call void @llvm.memcpy.p0.p0.i64(ptr noundef nonnull align 1 dereferenceable(50) %call2.i11.i26.i6, ptr noundef nonnull align 1 dereferenceable(50) @.str.4, i64 50, i1 false)
  %_M_string_length.i.i.i.i.i7 = getelementptr inbounds %"class.std::__cxx11::basic_string", ptr %agg.tmp1.i5, i64 0, i32 1
  store i64 %31, ptr %_M_string_length.i.i.i.i.i7, align 8, !tbaa !44
  %arrayidx.i.i.i.i8 = getelementptr inbounds i8, ptr %call2.i11.i26.i6, i64 %31
  store i8 0, ptr %arrayidx.i.i.i.i8, align 1, !tbaa !8
  call void @llvm.lifetime.end.p0(i64 8, ptr nonnull %__dnew.i.i.i3) #10
  invoke void @_ZN8TestCaseC1ENSt7__cxx1112basic_stringIcSt11char_traitsIcESaIcEEEi(ptr noundef nonnull align 8 dereferenceable(88) %ref.tmp.i4, ptr noundef nonnull %agg.tmp1.i5, i32 noundef 0)
          to label %invoke.cont4.i10 unwind label %lpad3.i42

invoke.cont4.i10:                                 ; preds = %__cxx_global_var_init.3.exit
  %call.i9 = invoke noundef i32 @_Z8AddCases10TestCaseIDSt16initializer_listI8TestCaseE(i32 noundef 0, ptr nonnull %ref.tmp.i4, i64 1)
          to label %invoke.cont6.i13 unwind label %lpad5.i43

invoke.cont6.i13:                                 ; preds = %invoke.cont4.i10
  %_M_refcount.i.i.i11 = getelementptr inbounds %struct.TestCase, ptr %ref.tmp.i4, i64 0, i32 3, i32 0, i32 1
  %32 = load ptr, ptr %_M_refcount.i.i.i11, align 8, !tbaa !45
  %cmp.not.i.i.i.i12 = icmp eq ptr %32, null
  br i1 %cmp.not.i.i.i.i12, label %_ZNSt12__shared_ptrIN9benchmark5RegexELN9__gnu_cxx12_Lock_policyE2EED2Ev.exit.i.i34, label %if.then.i.i.i.i16

if.then.i.i.i.i16:                                ; preds = %invoke.cont6.i13
  %_M_use_count.i.i.i.i.i14 = getelementptr inbounds %"class.std::_Sp_counted_base", ptr %32, i64 0, i32 1
  %33 = load atomic i64, ptr %_M_use_count.i.i.i.i.i14 acquire, align 8
  %cmp.i.i.i.i.i15 = icmp eq i64 %33, 4294967297
  %34 = trunc i64 %33 to i32
  br i1 %cmp.i.i.i.i.i15, label %if.then.i.i.i.i27.i22, label %if.end.i.i.i.i.i24

if.then.i.i.i.i27.i22:                            ; preds = %if.then.i.i.i.i16
  store i32 0, ptr %_M_use_count.i.i.i.i.i14, align 8, !tbaa !47
  %_M_weak_count.i.i.i.i.i17 = getelementptr inbounds %"class.std::_Sp_counted_base", ptr %32, i64 0, i32 2
  store i32 0, ptr %_M_weak_count.i.i.i.i.i17, align 4, !tbaa !49
  %vtable.i.i.i.i.i18 = load ptr, ptr %32, align 8, !tbaa !5
  %vfn.i.i.i.i.i19 = getelementptr inbounds ptr, ptr %vtable.i.i.i.i.i18, i64 2
  %35 = load ptr, ptr %vfn.i.i.i.i.i19, align 8
  call void %35(ptr noundef nonnull align 8 dereferenceable(16) %32) #10
  %vtable3.i.i.i.i.i20 = load ptr, ptr %32, align 8, !tbaa !5
  %vfn4.i.i.i.i.i21 = getelementptr inbounds ptr, ptr %vtable3.i.i.i.i.i20, i64 3
  %36 = load ptr, ptr %vfn4.i.i.i.i.i21, align 8
  call void %36(ptr noundef nonnull align 8 dereferenceable(16) %32) #10
  br label %_ZNSt12__shared_ptrIN9benchmark5RegexELN9__gnu_cxx12_Lock_policyE2EED2Ev.exit.i.i34

if.end.i.i.i.i.i24:                               ; preds = %if.then.i.i.i.i16
  %37 = load i8, ptr @__libc_single_threaded, align 1, !tbaa !8
  %tobool.i.not.i.i.i.i.i.i23 = icmp eq i8 %37, 0
  br i1 %tobool.i.not.i.i.i.i.i.i23, label %if.else.i.i.i.i.i.i27, label %if.then.i.i.i.i.i.i26

if.then.i.i.i.i.i.i26:                            ; preds = %if.end.i.i.i.i.i24
  %add.i.i.i.i.i.i.i25 = add nsw i32 %34, -1
  store i32 %add.i.i.i.i.i.i.i25, ptr %_M_use_count.i.i.i.i.i14, align 8, !tbaa !10
  br label %invoke.cont.i.i.i.i.i30

if.else.i.i.i.i.i.i27:                            ; preds = %if.end.i.i.i.i.i24
  %38 = atomicrmw volatile add ptr %_M_use_count.i.i.i.i.i14, i32 -1 acq_rel, align 4
  br label %invoke.cont.i.i.i.i.i30

invoke.cont.i.i.i.i.i30:                          ; preds = %if.else.i.i.i.i.i.i27, %if.then.i.i.i.i.i.i26
  %retval.0.i.i.i.i.i.i28 = phi i32 [ %34, %if.then.i.i.i.i.i.i26 ], [ %38, %if.else.i.i.i.i.i.i27 ]
  %cmp6.i.i.i.i.i29 = icmp eq i32 %retval.0.i.i.i.i.i.i28, 1
  br i1 %cmp6.i.i.i.i.i29, label %if.then7.i.i.i.i.i31, label %_ZNSt12__shared_ptrIN9benchmark5RegexELN9__gnu_cxx12_Lock_policyE2EED2Ev.exit.i.i34, !prof !50

if.then7.i.i.i.i.i31:                             ; preds = %invoke.cont.i.i.i.i.i30
  call void @_ZNSt16_Sp_counted_baseILN9__gnu_cxx12_Lock_policyE2EE24_M_release_last_use_coldEv(ptr noundef nonnull align 8 dereferenceable(16) %32) #10
  br label %_ZNSt12__shared_ptrIN9benchmark5RegexELN9__gnu_cxx12_Lock_policyE2EED2Ev.exit.i.i34

_ZNSt12__shared_ptrIN9benchmark5RegexELN9__gnu_cxx12_Lock_policyE2EED2Ev.exit.i.i34: ; preds = %if.then7.i.i.i.i.i31, %invoke.cont.i.i.i.i.i30, %if.then.i.i.i.i27.i22, %invoke.cont6.i13
  %substituted_regex.i.i32 = getelementptr inbounds %struct.TestCase, ptr %ref.tmp.i4, i64 0, i32 2
  %39 = load ptr, ptr %substituted_regex.i.i32, align 8, !tbaa !43
  %40 = getelementptr inbounds %struct.TestCase, ptr %ref.tmp.i4, i64 0, i32 2, i32 2
  %cmp.i.i.i2.i.i33 = icmp eq ptr %39, %40
  br i1 %cmp.i.i.i2.i.i33, label %_ZNSt7__cxx1112basic_stringIcSt11char_traitsIcESaIcEED2Ev.exit.i.i37, label %if.then.i.i3.i.i35

if.then.i.i3.i.i35:                               ; preds = %_ZNSt12__shared_ptrIN9benchmark5RegexELN9__gnu_cxx12_Lock_policyE2EED2Ev.exit.i.i34
  call void @_ZdlPv(ptr noundef %39) #12
  br label %_ZNSt7__cxx1112basic_stringIcSt11char_traitsIcESaIcEED2Ev.exit.i.i37

_ZNSt7__cxx1112basic_stringIcSt11char_traitsIcESaIcEED2Ev.exit.i.i37: ; preds = %if.then.i.i3.i.i35, %_ZNSt12__shared_ptrIN9benchmark5RegexELN9__gnu_cxx12_Lock_policyE2EED2Ev.exit.i.i34
  %41 = load ptr, ptr %ref.tmp.i4, align 8, !tbaa !43
  %42 = getelementptr inbounds %struct.TestCase, ptr %ref.tmp.i4, i64 0, i32 0, i32 2
  %cmp.i.i.i4.i.i36 = icmp eq ptr %41, %42
  br i1 %cmp.i.i.i4.i.i36, label %_ZN8TestCaseD2Ev.exit.i40, label %if.then.i.i5.i.i38

if.then.i.i5.i.i38:                               ; preds = %_ZNSt7__cxx1112basic_stringIcSt11char_traitsIcESaIcEED2Ev.exit.i.i37
  call void @_ZdlPv(ptr noundef %41) #12
  br label %_ZN8TestCaseD2Ev.exit.i40

_ZN8TestCaseD2Ev.exit.i40:                        ; preds = %if.then.i.i5.i.i38, %_ZNSt7__cxx1112basic_stringIcSt11char_traitsIcESaIcEED2Ev.exit.i.i37
  %43 = load ptr, ptr %agg.tmp1.i5, align 8, !tbaa !43
  %cmp.i.i.i.i39 = icmp eq ptr %43, %30
  br i1 %cmp.i.i.i.i39, label %__cxx_global_var_init.5.exit, label %if.then.i.i28.i41

if.then.i.i28.i41:                                ; preds = %_ZN8TestCaseD2Ev.exit.i40
  call void @_ZdlPv(ptr noundef %43) #12
  br label %__cxx_global_var_init.5.exit

lpad3.i42:                                        ; preds = %__cxx_global_var_init.3.exit
  %44 = landingpad { ptr, i32 }
          cleanup
  br label %ehcleanup.i46

lpad5.i43:                                        ; preds = %invoke.cont4.i10
  %45 = landingpad { ptr, i32 }
          cleanup
  %_M_refcount.i.i3933 = getelementptr inbounds %struct.TestCase, ptr %ref.tmp.i4, i64 0, i32 3, i32 0, i32 1
  %46 = load ptr, ptr %_M_refcount.i.i3933, align 8, !tbaa !45
  %cmp.not.i.i.i3934 = icmp eq ptr %46, null
  br i1 %cmp.not.i.i.i3934, label %_ZNSt12__shared_ptrIN9benchmark5RegexELN9__gnu_cxx12_Lock_policyE2EED2Ev.exit.i3955, label %if.then.i.i.i3937

if.then.i.i.i3937:                                ; preds = %lpad5.i43
  %_M_use_count.i.i.i.i3935 = getelementptr inbounds %"class.std::_Sp_counted_base", ptr %46, i64 0, i32 1
  %47 = load atomic i64, ptr %_M_use_count.i.i.i.i3935 acquire, align 8
  %cmp.i.i.i.i3936 = icmp eq i64 %47, 4294967297
  %48 = trunc i64 %47 to i32
  br i1 %cmp.i.i.i.i3936, label %if.then.i.i.i.i3943, label %if.end.i.i.i.i3945

if.then.i.i.i.i3943:                              ; preds = %if.then.i.i.i3937
  store i32 0, ptr %_M_use_count.i.i.i.i3935, align 8, !tbaa !47
  %_M_weak_count.i.i.i.i3938 = getelementptr inbounds %"class.std::_Sp_counted_base", ptr %46, i64 0, i32 2
  store i32 0, ptr %_M_weak_count.i.i.i.i3938, align 4, !tbaa !49
  %vtable.i.i.i.i3939 = load ptr, ptr %46, align 8, !tbaa !5
  %vfn.i.i.i.i3940 = getelementptr inbounds ptr, ptr %vtable.i.i.i.i3939, i64 2
  %49 = load ptr, ptr %vfn.i.i.i.i3940, align 8
  call void %49(ptr noundef nonnull align 8 dereferenceable(16) %46) #10
  %vtable3.i.i.i.i3941 = load ptr, ptr %46, align 8, !tbaa !5
  %vfn4.i.i.i.i3942 = getelementptr inbounds ptr, ptr %vtable3.i.i.i.i3941, i64 3
  %50 = load ptr, ptr %vfn4.i.i.i.i3942, align 8
  call void %50(ptr noundef nonnull align 8 dereferenceable(16) %46) #10
  br label %_ZNSt12__shared_ptrIN9benchmark5RegexELN9__gnu_cxx12_Lock_policyE2EED2Ev.exit.i3955

if.end.i.i.i.i3945:                               ; preds = %if.then.i.i.i3937
  %51 = load i8, ptr @__libc_single_threaded, align 1, !tbaa !8
  %tobool.i.not.i.i.i.i.i3944 = icmp eq i8 %51, 0
  br i1 %tobool.i.not.i.i.i.i.i3944, label %if.else.i.i.i.i.i3948, label %if.then.i.i.i.i.i3947

if.then.i.i.i.i.i3947:                            ; preds = %if.end.i.i.i.i3945
  %add.i.i.i.i.i.i3946 = add nsw i32 %48, -1
  store i32 %add.i.i.i.i.i.i3946, ptr %_M_use_count.i.i.i.i3935, align 8, !tbaa !10
  br label %invoke.cont.i.i.i.i3951

if.else.i.i.i.i.i3948:                            ; preds = %if.end.i.i.i.i3945
  %52 = atomicrmw volatile add ptr %_M_use_count.i.i.i.i3935, i32 -1 acq_rel, align 4
  br label %invoke.cont.i.i.i.i3951

invoke.cont.i.i.i.i3951:                          ; preds = %if.else.i.i.i.i.i3948, %if.then.i.i.i.i.i3947
  %retval.0.i.i.i.i.i3949 = phi i32 [ %48, %if.then.i.i.i.i.i3947 ], [ %52, %if.else.i.i.i.i.i3948 ]
  %cmp6.i.i.i.i3950 = icmp eq i32 %retval.0.i.i.i.i.i3949, 1
  br i1 %cmp6.i.i.i.i3950, label %if.then7.i.i.i.i3952, label %_ZNSt12__shared_ptrIN9benchmark5RegexELN9__gnu_cxx12_Lock_policyE2EED2Ev.exit.i3955, !prof !50

if.then7.i.i.i.i3952:                             ; preds = %invoke.cont.i.i.i.i3951
  call void @_ZNSt16_Sp_counted_baseILN9__gnu_cxx12_Lock_policyE2EE24_M_release_last_use_coldEv(ptr noundef nonnull align 8 dereferenceable(16) %46) #10
  br label %_ZNSt12__shared_ptrIN9benchmark5RegexELN9__gnu_cxx12_Lock_policyE2EED2Ev.exit.i3955

_ZNSt12__shared_ptrIN9benchmark5RegexELN9__gnu_cxx12_Lock_policyE2EED2Ev.exit.i3955: ; preds = %if.then7.i.i.i.i3952, %invoke.cont.i.i.i.i3951, %if.then.i.i.i.i3943, %lpad5.i43
  %substituted_regex.i3953 = getelementptr inbounds %struct.TestCase, ptr %ref.tmp.i4, i64 0, i32 2
  %53 = load ptr, ptr %substituted_regex.i3953, align 8, !tbaa !43
  %54 = getelementptr inbounds %struct.TestCase, ptr %ref.tmp.i4, i64 0, i32 2, i32 2
  %cmp.i.i.i2.i3954 = icmp eq ptr %53, %54
  br i1 %cmp.i.i.i2.i3954, label %_ZNSt7__cxx1112basic_stringIcSt11char_traitsIcESaIcEED2Ev.exit.i3958, label %if.then.i.i3.i3956

if.then.i.i3.i3956:                               ; preds = %_ZNSt12__shared_ptrIN9benchmark5RegexELN9__gnu_cxx12_Lock_policyE2EED2Ev.exit.i3955
  call void @_ZdlPv(ptr noundef %53) #12
  br label %_ZNSt7__cxx1112basic_stringIcSt11char_traitsIcESaIcEED2Ev.exit.i3958

_ZNSt7__cxx1112basic_stringIcSt11char_traitsIcESaIcEED2Ev.exit.i3958: ; preds = %if.then.i.i3.i3956, %_ZNSt12__shared_ptrIN9benchmark5RegexELN9__gnu_cxx12_Lock_policyE2EED2Ev.exit.i3955
  %55 = load ptr, ptr %ref.tmp.i4, align 8, !tbaa !43
  %56 = getelementptr inbounds %"class.std::__cxx11::basic_string", ptr %ref.tmp.i4, i64 0, i32 2
  %cmp.i.i.i4.i3957 = icmp eq ptr %55, %56
  br i1 %cmp.i.i.i4.i3957, label %ehcleanup.i46, label %if.then.i.i5.i3959

if.then.i.i5.i3959:                               ; preds = %_ZNSt7__cxx1112basic_stringIcSt11char_traitsIcESaIcEED2Ev.exit.i3958
  call void @_ZdlPv(ptr noundef %55) #12
  br label %ehcleanup.i46

ehcleanup.i46:                                    ; preds = %if.then.i.i5.i3959, %_ZNSt7__cxx1112basic_stringIcSt11char_traitsIcESaIcEED2Ev.exit.i3958, %lpad3.i42
  %.pn.i44 = phi { ptr, i32 } [ %44, %lpad3.i42 ], [ %45, %_ZNSt7__cxx1112basic_stringIcSt11char_traitsIcESaIcEED2Ev.exit.i3958 ], [ %45, %if.then.i.i5.i3959 ]
  %57 = load ptr, ptr %agg.tmp1.i5, align 8, !tbaa !43
  %cmp.i.i.i29.i45 = icmp eq ptr %57, %30
  br i1 %cmp.i.i.i29.i45, label %ehcleanup14.i48, label %if.then.i.i30.i47

if.then.i.i30.i47:                                ; preds = %ehcleanup.i46
  call void @_ZdlPv(ptr noundef %57) #12
  br label %ehcleanup14.i48

ehcleanup14.i48:                                  ; preds = %if.then.i.i30.i47, %ehcleanup.i46
  call void @llvm.lifetime.end.p0(i64 88, ptr nonnull %ref.tmp.i4) #10
  br label %common.resume

__cxx_global_var_init.5.exit:                     ; preds = %_ZN8TestCaseD2Ev.exit.i40, %if.then.i.i28.i41
  call void @llvm.lifetime.end.p0(i64 88, ptr nonnull %ref.tmp.i4) #10
  store i32 %call.i9, ptr @dummy18, align 4, !tbaa !10
  call void @llvm.lifetime.end.p0(i64 32, ptr nonnull %agg.tmp1.i5)
  call void @llvm.lifetime.start.p0(i64 32, ptr nonnull %agg.tmp1.i51)
  call void @llvm.lifetime.start.p0(i64 88, ptr nonnull %ref.tmp.i50) #10
  %58 = getelementptr inbounds %"class.std::__cxx11::basic_string", ptr %agg.tmp1.i51, i64 0, i32 2
  store ptr %58, ptr %agg.tmp1.i51, align 8, !tbaa !41
  call void @llvm.lifetime.start.p0(i64 8, ptr nonnull %__dnew.i.i.i49) #10
  store i64 55, ptr %__dnew.i.i.i49, align 8, !tbaa !42
  %call2.i11.i26.i52 = call noundef ptr @_ZNSt7__cxx1112basic_stringIcSt11char_traitsIcESaIcEE9_M_createERmm(ptr noundef nonnull align 8 dereferenceable(32) %agg.tmp1.i51, ptr noundef nonnull align 8 dereferenceable(8) %__dnew.i.i.i49, i64 noundef 0)
  store ptr %call2.i11.i26.i52, ptr %agg.tmp1.i51, align 8, !tbaa !43
  %59 = load i64, ptr %__dnew.i.i.i49, align 8, !tbaa !42
  store i64 %59, ptr %58, align 8, !tbaa !8
  call void @llvm.memcpy.p0.p0.i64(ptr noundef nonnull align 1 dereferenceable(55) %call2.i11.i26.i52, ptr noundef nonnull align 1 dereferenceable(55) @.str.7, i64 55, i1 false)
  %_M_string_length.i.i.i.i.i53 = getelementptr inbounds %"class.std::__cxx11::basic_string", ptr %agg.tmp1.i51, i64 0, i32 1
  store i64 %59, ptr %_M_string_length.i.i.i.i.i53, align 8, !tbaa !44
  %arrayidx.i.i.i.i54 = getelementptr inbounds i8, ptr %call2.i11.i26.i52, i64 %59
  store i8 0, ptr %arrayidx.i.i.i.i54, align 1, !tbaa !8
  call void @llvm.lifetime.end.p0(i64 8, ptr nonnull %__dnew.i.i.i49) #10
  invoke void @_ZN8TestCaseC1ENSt7__cxx1112basic_stringIcSt11char_traitsIcESaIcEEEi(ptr noundef nonnull align 8 dereferenceable(88) %ref.tmp.i50, ptr noundef nonnull %agg.tmp1.i51, i32 noundef 0)
          to label %invoke.cont4.i56 unwind label %lpad3.i88

invoke.cont4.i56:                                 ; preds = %__cxx_global_var_init.5.exit
  %call.i55 = invoke noundef i32 @_Z8AddCases10TestCaseIDSt16initializer_listI8TestCaseE(i32 noundef 0, ptr nonnull %ref.tmp.i50, i64 1)
          to label %invoke.cont6.i59 unwind label %lpad5.i89

invoke.cont6.i59:                                 ; preds = %invoke.cont4.i56
  %_M_refcount.i.i.i57 = getelementptr inbounds %struct.TestCase, ptr %ref.tmp.i50, i64 0, i32 3, i32 0, i32 1
  %60 = load ptr, ptr %_M_refcount.i.i.i57, align 8, !tbaa !45
  %cmp.not.i.i.i.i58 = icmp eq ptr %60, null
  br i1 %cmp.not.i.i.i.i58, label %_ZNSt12__shared_ptrIN9benchmark5RegexELN9__gnu_cxx12_Lock_policyE2EED2Ev.exit.i.i80, label %if.then.i.i.i.i62

if.then.i.i.i.i62:                                ; preds = %invoke.cont6.i59
  %_M_use_count.i.i.i.i.i60 = getelementptr inbounds %"class.std::_Sp_counted_base", ptr %60, i64 0, i32 1
  %61 = load atomic i64, ptr %_M_use_count.i.i.i.i.i60 acquire, align 8
  %cmp.i.i.i.i.i61 = icmp eq i64 %61, 4294967297
  %62 = trunc i64 %61 to i32
  br i1 %cmp.i.i.i.i.i61, label %if.then.i.i.i.i27.i68, label %if.end.i.i.i.i.i70

if.then.i.i.i.i27.i68:                            ; preds = %if.then.i.i.i.i62
  store i32 0, ptr %_M_use_count.i.i.i.i.i60, align 8, !tbaa !47
  %_M_weak_count.i.i.i.i.i63 = getelementptr inbounds %"class.std::_Sp_counted_base", ptr %60, i64 0, i32 2
  store i32 0, ptr %_M_weak_count.i.i.i.i.i63, align 4, !tbaa !49
  %vtable.i.i.i.i.i64 = load ptr, ptr %60, align 8, !tbaa !5
  %vfn.i.i.i.i.i65 = getelementptr inbounds ptr, ptr %vtable.i.i.i.i.i64, i64 2
  %63 = load ptr, ptr %vfn.i.i.i.i.i65, align 8
  call void %63(ptr noundef nonnull align 8 dereferenceable(16) %60) #10
  %vtable3.i.i.i.i.i66 = load ptr, ptr %60, align 8, !tbaa !5
  %vfn4.i.i.i.i.i67 = getelementptr inbounds ptr, ptr %vtable3.i.i.i.i.i66, i64 3
  %64 = load ptr, ptr %vfn4.i.i.i.i.i67, align 8
  call void %64(ptr noundef nonnull align 8 dereferenceable(16) %60) #10
  br label %_ZNSt12__shared_ptrIN9benchmark5RegexELN9__gnu_cxx12_Lock_policyE2EED2Ev.exit.i.i80

if.end.i.i.i.i.i70:                               ; preds = %if.then.i.i.i.i62
  %65 = load i8, ptr @__libc_single_threaded, align 1, !tbaa !8
  %tobool.i.not.i.i.i.i.i.i69 = icmp eq i8 %65, 0
  br i1 %tobool.i.not.i.i.i.i.i.i69, label %if.else.i.i.i.i.i.i73, label %if.then.i.i.i.i.i.i72

if.then.i.i.i.i.i.i72:                            ; preds = %if.end.i.i.i.i.i70
  %add.i.i.i.i.i.i.i71 = add nsw i32 %62, -1
  store i32 %add.i.i.i.i.i.i.i71, ptr %_M_use_count.i.i.i.i.i60, align 8, !tbaa !10
  br label %invoke.cont.i.i.i.i.i76

if.else.i.i.i.i.i.i73:                            ; preds = %if.end.i.i.i.i.i70
  %66 = atomicrmw volatile add ptr %_M_use_count.i.i.i.i.i60, i32 -1 acq_rel, align 4
  br label %invoke.cont.i.i.i.i.i76

invoke.cont.i.i.i.i.i76:                          ; preds = %if.else.i.i.i.i.i.i73, %if.then.i.i.i.i.i.i72
  %retval.0.i.i.i.i.i.i74 = phi i32 [ %62, %if.then.i.i.i.i.i.i72 ], [ %66, %if.else.i.i.i.i.i.i73 ]
  %cmp6.i.i.i.i.i75 = icmp eq i32 %retval.0.i.i.i.i.i.i74, 1
  br i1 %cmp6.i.i.i.i.i75, label %if.then7.i.i.i.i.i77, label %_ZNSt12__shared_ptrIN9benchmark5RegexELN9__gnu_cxx12_Lock_policyE2EED2Ev.exit.i.i80, !prof !50

if.then7.i.i.i.i.i77:                             ; preds = %invoke.cont.i.i.i.i.i76
  call void @_ZNSt16_Sp_counted_baseILN9__gnu_cxx12_Lock_policyE2EE24_M_release_last_use_coldEv(ptr noundef nonnull align 8 dereferenceable(16) %60) #10
  br label %_ZNSt12__shared_ptrIN9benchmark5RegexELN9__gnu_cxx12_Lock_policyE2EED2Ev.exit.i.i80

_ZNSt12__shared_ptrIN9benchmark5RegexELN9__gnu_cxx12_Lock_policyE2EED2Ev.exit.i.i80: ; preds = %if.then7.i.i.i.i.i77, %invoke.cont.i.i.i.i.i76, %if.then.i.i.i.i27.i68, %invoke.cont6.i59
  %substituted_regex.i.i78 = getelementptr inbounds %struct.TestCase, ptr %ref.tmp.i50, i64 0, i32 2
  %67 = load ptr, ptr %substituted_regex.i.i78, align 8, !tbaa !43
  %68 = getelementptr inbounds %struct.TestCase, ptr %ref.tmp.i50, i64 0, i32 2, i32 2
  %cmp.i.i.i2.i.i79 = icmp eq ptr %67, %68
  br i1 %cmp.i.i.i2.i.i79, label %_ZNSt7__cxx1112basic_stringIcSt11char_traitsIcESaIcEED2Ev.exit.i.i83, label %if.then.i.i3.i.i81

if.then.i.i3.i.i81:                               ; preds = %_ZNSt12__shared_ptrIN9benchmark5RegexELN9__gnu_cxx12_Lock_policyE2EED2Ev.exit.i.i80
  call void @_ZdlPv(ptr noundef %67) #12
  br label %_ZNSt7__cxx1112basic_stringIcSt11char_traitsIcESaIcEED2Ev.exit.i.i83

_ZNSt7__cxx1112basic_stringIcSt11char_traitsIcESaIcEED2Ev.exit.i.i83: ; preds = %if.then.i.i3.i.i81, %_ZNSt12__shared_ptrIN9benchmark5RegexELN9__gnu_cxx12_Lock_policyE2EED2Ev.exit.i.i80
  %69 = load ptr, ptr %ref.tmp.i50, align 8, !tbaa !43
  %70 = getelementptr inbounds %struct.TestCase, ptr %ref.tmp.i50, i64 0, i32 0, i32 2
  %cmp.i.i.i4.i.i82 = icmp eq ptr %69, %70
  br i1 %cmp.i.i.i4.i.i82, label %_ZN8TestCaseD2Ev.exit.i86, label %if.then.i.i5.i.i84

if.then.i.i5.i.i84:                               ; preds = %_ZNSt7__cxx1112basic_stringIcSt11char_traitsIcESaIcEED2Ev.exit.i.i83
  call void @_ZdlPv(ptr noundef %69) #12
  br label %_ZN8TestCaseD2Ev.exit.i86

_ZN8TestCaseD2Ev.exit.i86:                        ; preds = %if.then.i.i5.i.i84, %_ZNSt7__cxx1112basic_stringIcSt11char_traitsIcESaIcEED2Ev.exit.i.i83
  %71 = load ptr, ptr %agg.tmp1.i51, align 8, !tbaa !43
  %cmp.i.i.i.i85 = icmp eq ptr %71, %58
  br i1 %cmp.i.i.i.i85, label %__cxx_global_var_init.6.exit, label %if.then.i.i28.i87

if.then.i.i28.i87:                                ; preds = %_ZN8TestCaseD2Ev.exit.i86
  call void @_ZdlPv(ptr noundef %71) #12
  br label %__cxx_global_var_init.6.exit

lpad3.i88:                                        ; preds = %__cxx_global_var_init.5.exit
  %72 = landingpad { ptr, i32 }
          cleanup
  br label %ehcleanup.i92

lpad5.i89:                                        ; preds = %invoke.cont4.i56
  %73 = landingpad { ptr, i32 }
          cleanup
  %_M_refcount.i.i3961 = getelementptr inbounds %struct.TestCase, ptr %ref.tmp.i50, i64 0, i32 3, i32 0, i32 1
  %74 = load ptr, ptr %_M_refcount.i.i3961, align 8, !tbaa !45
  %cmp.not.i.i.i3962 = icmp eq ptr %74, null
  br i1 %cmp.not.i.i.i3962, label %_ZNSt12__shared_ptrIN9benchmark5RegexELN9__gnu_cxx12_Lock_policyE2EED2Ev.exit.i3983, label %if.then.i.i.i3965

if.then.i.i.i3965:                                ; preds = %lpad5.i89
  %_M_use_count.i.i.i.i3963 = getelementptr inbounds %"class.std::_Sp_counted_base", ptr %74, i64 0, i32 1
  %75 = load atomic i64, ptr %_M_use_count.i.i.i.i3963 acquire, align 8
  %cmp.i.i.i.i3964 = icmp eq i64 %75, 4294967297
  %76 = trunc i64 %75 to i32
  br i1 %cmp.i.i.i.i3964, label %if.then.i.i.i.i3971, label %if.end.i.i.i.i3973

if.then.i.i.i.i3971:                              ; preds = %if.then.i.i.i3965
  store i32 0, ptr %_M_use_count.i.i.i.i3963, align 8, !tbaa !47
  %_M_weak_count.i.i.i.i3966 = getelementptr inbounds %"class.std::_Sp_counted_base", ptr %74, i64 0, i32 2
  store i32 0, ptr %_M_weak_count.i.i.i.i3966, align 4, !tbaa !49
  %vtable.i.i.i.i3967 = load ptr, ptr %74, align 8, !tbaa !5
  %vfn.i.i.i.i3968 = getelementptr inbounds ptr, ptr %vtable.i.i.i.i3967, i64 2
  %77 = load ptr, ptr %vfn.i.i.i.i3968, align 8
  call void %77(ptr noundef nonnull align 8 dereferenceable(16) %74) #10
  %vtable3.i.i.i.i3969 = load ptr, ptr %74, align 8, !tbaa !5
  %vfn4.i.i.i.i3970 = getelementptr inbounds ptr, ptr %vtable3.i.i.i.i3969, i64 3
  %78 = load ptr, ptr %vfn4.i.i.i.i3970, align 8
  call void %78(ptr noundef nonnull align 8 dereferenceable(16) %74) #10
  br label %_ZNSt12__shared_ptrIN9benchmark5RegexELN9__gnu_cxx12_Lock_policyE2EED2Ev.exit.i3983

if.end.i.i.i.i3973:                               ; preds = %if.then.i.i.i3965
  %79 = load i8, ptr @__libc_single_threaded, align 1, !tbaa !8
  %tobool.i.not.i.i.i.i.i3972 = icmp eq i8 %79, 0
  br i1 %tobool.i.not.i.i.i.i.i3972, label %if.else.i.i.i.i.i3976, label %if.then.i.i.i.i.i3975

if.then.i.i.i.i.i3975:                            ; preds = %if.end.i.i.i.i3973
  %add.i.i.i.i.i.i3974 = add nsw i32 %76, -1
  store i32 %add.i.i.i.i.i.i3974, ptr %_M_use_count.i.i.i.i3963, align 8, !tbaa !10
  br label %invoke.cont.i.i.i.i3979

if.else.i.i.i.i.i3976:                            ; preds = %if.end.i.i.i.i3973
  %80 = atomicrmw volatile add ptr %_M_use_count.i.i.i.i3963, i32 -1 acq_rel, align 4
  br label %invoke.cont.i.i.i.i3979

invoke.cont.i.i.i.i3979:                          ; preds = %if.else.i.i.i.i.i3976, %if.then.i.i.i.i.i3975
  %retval.0.i.i.i.i.i3977 = phi i32 [ %76, %if.then.i.i.i.i.i3975 ], [ %80, %if.else.i.i.i.i.i3976 ]
  %cmp6.i.i.i.i3978 = icmp eq i32 %retval.0.i.i.i.i.i3977, 1
  br i1 %cmp6.i.i.i.i3978, label %if.then7.i.i.i.i3980, label %_ZNSt12__shared_ptrIN9benchmark5RegexELN9__gnu_cxx12_Lock_policyE2EED2Ev.exit.i3983, !prof !50

if.then7.i.i.i.i3980:                             ; preds = %invoke.cont.i.i.i.i3979
  call void @_ZNSt16_Sp_counted_baseILN9__gnu_cxx12_Lock_policyE2EE24_M_release_last_use_coldEv(ptr noundef nonnull align 8 dereferenceable(16) %74) #10
  br label %_ZNSt12__shared_ptrIN9benchmark5RegexELN9__gnu_cxx12_Lock_policyE2EED2Ev.exit.i3983

_ZNSt12__shared_ptrIN9benchmark5RegexELN9__gnu_cxx12_Lock_policyE2EED2Ev.exit.i3983: ; preds = %if.then7.i.i.i.i3980, %invoke.cont.i.i.i.i3979, %if.then.i.i.i.i3971, %lpad5.i89
  %substituted_regex.i3981 = getelementptr inbounds %struct.TestCase, ptr %ref.tmp.i50, i64 0, i32 2
  %81 = load ptr, ptr %substituted_regex.i3981, align 8, !tbaa !43
  %82 = getelementptr inbounds %struct.TestCase, ptr %ref.tmp.i50, i64 0, i32 2, i32 2
  %cmp.i.i.i2.i3982 = icmp eq ptr %81, %82
  br i1 %cmp.i.i.i2.i3982, label %_ZNSt7__cxx1112basic_stringIcSt11char_traitsIcESaIcEED2Ev.exit.i3986, label %if.then.i.i3.i3984

if.then.i.i3.i3984:                               ; preds = %_ZNSt12__shared_ptrIN9benchmark5RegexELN9__gnu_cxx12_Lock_policyE2EED2Ev.exit.i3983
  call void @_ZdlPv(ptr noundef %81) #12
  br label %_ZNSt7__cxx1112basic_stringIcSt11char_traitsIcESaIcEED2Ev.exit.i3986

_ZNSt7__cxx1112basic_stringIcSt11char_traitsIcESaIcEED2Ev.exit.i3986: ; preds = %if.then.i.i3.i3984, %_ZNSt12__shared_ptrIN9benchmark5RegexELN9__gnu_cxx12_Lock_policyE2EED2Ev.exit.i3983
  %83 = load ptr, ptr %ref.tmp.i50, align 8, !tbaa !43
  %84 = getelementptr inbounds %"class.std::__cxx11::basic_string", ptr %ref.tmp.i50, i64 0, i32 2
  %cmp.i.i.i4.i3985 = icmp eq ptr %83, %84
  br i1 %cmp.i.i.i4.i3985, label %ehcleanup.i92, label %if.then.i.i5.i3987

if.then.i.i5.i3987:                               ; preds = %_ZNSt7__cxx1112basic_stringIcSt11char_traitsIcESaIcEED2Ev.exit.i3986
  call void @_ZdlPv(ptr noundef %83) #12
  br label %ehcleanup.i92

ehcleanup.i92:                                    ; preds = %if.then.i.i5.i3987, %_ZNSt7__cxx1112basic_stringIcSt11char_traitsIcESaIcEED2Ev.exit.i3986, %lpad3.i88
  %.pn.i90 = phi { ptr, i32 } [ %72, %lpad3.i88 ], [ %73, %_ZNSt7__cxx1112basic_stringIcSt11char_traitsIcESaIcEED2Ev.exit.i3986 ], [ %73, %if.then.i.i5.i3987 ]
  %85 = load ptr, ptr %agg.tmp1.i51, align 8, !tbaa !43
  %cmp.i.i.i29.i91 = icmp eq ptr %85, %58
  br i1 %cmp.i.i.i29.i91, label %ehcleanup14.i94, label %if.then.i.i30.i93

if.then.i.i30.i93:                                ; preds = %ehcleanup.i92
  call void @_ZdlPv(ptr noundef %85) #12
  br label %ehcleanup14.i94

ehcleanup14.i94:                                  ; preds = %if.then.i.i30.i93, %ehcleanup.i92
  call void @llvm.lifetime.end.p0(i64 88, ptr nonnull %ref.tmp.i50) #10
  br label %common.resume

__cxx_global_var_init.6.exit:                     ; preds = %_ZN8TestCaseD2Ev.exit.i86, %if.then.i.i28.i87
  call void @llvm.lifetime.end.p0(i64 88, ptr nonnull %ref.tmp.i50) #10
  store i32 %call.i55, ptr @dummy20, align 4, !tbaa !10
  call void @llvm.lifetime.end.p0(i64 32, ptr nonnull %agg.tmp1.i51)
  call void @llvm.lifetime.start.p0(i64 32, ptr nonnull %agg.tmp1.i97)
  call void @llvm.lifetime.start.p0(i64 88, ptr nonnull %ref.tmp.i96) #10
  %86 = getelementptr inbounds %"class.std::__cxx11::basic_string", ptr %agg.tmp1.i97, i64 0, i32 2
  store ptr %86, ptr %agg.tmp1.i97, align 8, !tbaa !41
  call void @llvm.lifetime.start.p0(i64 8, ptr nonnull %__dnew.i.i.i95) #10
  store i64 57, ptr %__dnew.i.i.i95, align 8, !tbaa !42
  %call2.i11.i26.i98 = call noundef ptr @_ZNSt7__cxx1112basic_stringIcSt11char_traitsIcESaIcEE9_M_createERmm(ptr noundef nonnull align 8 dereferenceable(32) %agg.tmp1.i97, ptr noundef nonnull align 8 dereferenceable(8) %__dnew.i.i.i95, i64 noundef 0)
  store ptr %call2.i11.i26.i98, ptr %agg.tmp1.i97, align 8, !tbaa !43
  %87 = load i64, ptr %__dnew.i.i.i95, align 8, !tbaa !42
  store i64 %87, ptr %86, align 8, !tbaa !8
  call void @llvm.memcpy.p0.p0.i64(ptr noundef nonnull align 1 dereferenceable(57) %call2.i11.i26.i98, ptr noundef nonnull align 1 dereferenceable(57) @.str.9, i64 57, i1 false)
  %_M_string_length.i.i.i.i.i99 = getelementptr inbounds %"class.std::__cxx11::basic_string", ptr %agg.tmp1.i97, i64 0, i32 1
  store i64 %87, ptr %_M_string_length.i.i.i.i.i99, align 8, !tbaa !44
  %arrayidx.i.i.i.i100 = getelementptr inbounds i8, ptr %call2.i11.i26.i98, i64 %87
  store i8 0, ptr %arrayidx.i.i.i.i100, align 1, !tbaa !8
  call void @llvm.lifetime.end.p0(i64 8, ptr nonnull %__dnew.i.i.i95) #10
  invoke void @_ZN8TestCaseC1ENSt7__cxx1112basic_stringIcSt11char_traitsIcESaIcEEEi(ptr noundef nonnull align 8 dereferenceable(88) %ref.tmp.i96, ptr noundef nonnull %agg.tmp1.i97, i32 noundef 0)
          to label %invoke.cont4.i102 unwind label %lpad3.i134

invoke.cont4.i102:                                ; preds = %__cxx_global_var_init.6.exit
  %call.i101 = invoke noundef i32 @_Z8AddCases10TestCaseIDSt16initializer_listI8TestCaseE(i32 noundef 0, ptr nonnull %ref.tmp.i96, i64 1)
          to label %invoke.cont6.i105 unwind label %lpad5.i135

invoke.cont6.i105:                                ; preds = %invoke.cont4.i102
  %_M_refcount.i.i.i103 = getelementptr inbounds %struct.TestCase, ptr %ref.tmp.i96, i64 0, i32 3, i32 0, i32 1
  %88 = load ptr, ptr %_M_refcount.i.i.i103, align 8, !tbaa !45
  %cmp.not.i.i.i.i104 = icmp eq ptr %88, null
  br i1 %cmp.not.i.i.i.i104, label %_ZNSt12__shared_ptrIN9benchmark5RegexELN9__gnu_cxx12_Lock_policyE2EED2Ev.exit.i.i126, label %if.then.i.i.i.i108

if.then.i.i.i.i108:                               ; preds = %invoke.cont6.i105
  %_M_use_count.i.i.i.i.i106 = getelementptr inbounds %"class.std::_Sp_counted_base", ptr %88, i64 0, i32 1
  %89 = load atomic i64, ptr %_M_use_count.i.i.i.i.i106 acquire, align 8
  %cmp.i.i.i.i.i107 = icmp eq i64 %89, 4294967297
  %90 = trunc i64 %89 to i32
  br i1 %cmp.i.i.i.i.i107, label %if.then.i.i.i.i27.i114, label %if.end.i.i.i.i.i116

if.then.i.i.i.i27.i114:                           ; preds = %if.then.i.i.i.i108
  store i32 0, ptr %_M_use_count.i.i.i.i.i106, align 8, !tbaa !47
  %_M_weak_count.i.i.i.i.i109 = getelementptr inbounds %"class.std::_Sp_counted_base", ptr %88, i64 0, i32 2
  store i32 0, ptr %_M_weak_count.i.i.i.i.i109, align 4, !tbaa !49
  %vtable.i.i.i.i.i110 = load ptr, ptr %88, align 8, !tbaa !5
  %vfn.i.i.i.i.i111 = getelementptr inbounds ptr, ptr %vtable.i.i.i.i.i110, i64 2
  %91 = load ptr, ptr %vfn.i.i.i.i.i111, align 8
  call void %91(ptr noundef nonnull align 8 dereferenceable(16) %88) #10
  %vtable3.i.i.i.i.i112 = load ptr, ptr %88, align 8, !tbaa !5
  %vfn4.i.i.i.i.i113 = getelementptr inbounds ptr, ptr %vtable3.i.i.i.i.i112, i64 3
  %92 = load ptr, ptr %vfn4.i.i.i.i.i113, align 8
  call void %92(ptr noundef nonnull align 8 dereferenceable(16) %88) #10
  br label %_ZNSt12__shared_ptrIN9benchmark5RegexELN9__gnu_cxx12_Lock_policyE2EED2Ev.exit.i.i126

if.end.i.i.i.i.i116:                              ; preds = %if.then.i.i.i.i108
  %93 = load i8, ptr @__libc_single_threaded, align 1, !tbaa !8
  %tobool.i.not.i.i.i.i.i.i115 = icmp eq i8 %93, 0
  br i1 %tobool.i.not.i.i.i.i.i.i115, label %if.else.i.i.i.i.i.i119, label %if.then.i.i.i.i.i.i118

if.then.i.i.i.i.i.i118:                           ; preds = %if.end.i.i.i.i.i116
  %add.i.i.i.i.i.i.i117 = add nsw i32 %90, -1
  store i32 %add.i.i.i.i.i.i.i117, ptr %_M_use_count.i.i.i.i.i106, align 8, !tbaa !10
  br label %invoke.cont.i.i.i.i.i122

if.else.i.i.i.i.i.i119:                           ; preds = %if.end.i.i.i.i.i116
  %94 = atomicrmw volatile add ptr %_M_use_count.i.i.i.i.i106, i32 -1 acq_rel, align 4
  br label %invoke.cont.i.i.i.i.i122

invoke.cont.i.i.i.i.i122:                         ; preds = %if.else.i.i.i.i.i.i119, %if.then.i.i.i.i.i.i118
  %retval.0.i.i.i.i.i.i120 = phi i32 [ %90, %if.then.i.i.i.i.i.i118 ], [ %94, %if.else.i.i.i.i.i.i119 ]
  %cmp6.i.i.i.i.i121 = icmp eq i32 %retval.0.i.i.i.i.i.i120, 1
  br i1 %cmp6.i.i.i.i.i121, label %if.then7.i.i.i.i.i123, label %_ZNSt12__shared_ptrIN9benchmark5RegexELN9__gnu_cxx12_Lock_policyE2EED2Ev.exit.i.i126, !prof !50

if.then7.i.i.i.i.i123:                            ; preds = %invoke.cont.i.i.i.i.i122
  call void @_ZNSt16_Sp_counted_baseILN9__gnu_cxx12_Lock_policyE2EE24_M_release_last_use_coldEv(ptr noundef nonnull align 8 dereferenceable(16) %88) #10
  br label %_ZNSt12__shared_ptrIN9benchmark5RegexELN9__gnu_cxx12_Lock_policyE2EED2Ev.exit.i.i126

_ZNSt12__shared_ptrIN9benchmark5RegexELN9__gnu_cxx12_Lock_policyE2EED2Ev.exit.i.i126: ; preds = %if.then7.i.i.i.i.i123, %invoke.cont.i.i.i.i.i122, %if.then.i.i.i.i27.i114, %invoke.cont6.i105
  %substituted_regex.i.i124 = getelementptr inbounds %struct.TestCase, ptr %ref.tmp.i96, i64 0, i32 2
  %95 = load ptr, ptr %substituted_regex.i.i124, align 8, !tbaa !43
  %96 = getelementptr inbounds %struct.TestCase, ptr %ref.tmp.i96, i64 0, i32 2, i32 2
  %cmp.i.i.i2.i.i125 = icmp eq ptr %95, %96
  br i1 %cmp.i.i.i2.i.i125, label %_ZNSt7__cxx1112basic_stringIcSt11char_traitsIcESaIcEED2Ev.exit.i.i129, label %if.then.i.i3.i.i127

if.then.i.i3.i.i127:                              ; preds = %_ZNSt12__shared_ptrIN9benchmark5RegexELN9__gnu_cxx12_Lock_policyE2EED2Ev.exit.i.i126
  call void @_ZdlPv(ptr noundef %95) #12
  br label %_ZNSt7__cxx1112basic_stringIcSt11char_traitsIcESaIcEED2Ev.exit.i.i129

_ZNSt7__cxx1112basic_stringIcSt11char_traitsIcESaIcEED2Ev.exit.i.i129: ; preds = %if.then.i.i3.i.i127, %_ZNSt12__shared_ptrIN9benchmark5RegexELN9__gnu_cxx12_Lock_policyE2EED2Ev.exit.i.i126
  %97 = load ptr, ptr %ref.tmp.i96, align 8, !tbaa !43
  %98 = getelementptr inbounds %struct.TestCase, ptr %ref.tmp.i96, i64 0, i32 0, i32 2
  %cmp.i.i.i4.i.i128 = icmp eq ptr %97, %98
  br i1 %cmp.i.i.i4.i.i128, label %_ZN8TestCaseD2Ev.exit.i132, label %if.then.i.i5.i.i130

if.then.i.i5.i.i130:                              ; preds = %_ZNSt7__cxx1112basic_stringIcSt11char_traitsIcESaIcEED2Ev.exit.i.i129
  call void @_ZdlPv(ptr noundef %97) #12
  br label %_ZN8TestCaseD2Ev.exit.i132

_ZN8TestCaseD2Ev.exit.i132:                       ; preds = %if.then.i.i5.i.i130, %_ZNSt7__cxx1112basic_stringIcSt11char_traitsIcESaIcEED2Ev.exit.i.i129
  %99 = load ptr, ptr %agg.tmp1.i97, align 8, !tbaa !43
  %cmp.i.i.i.i131 = icmp eq ptr %99, %86
  br i1 %cmp.i.i.i.i131, label %__cxx_global_var_init.8.exit, label %if.then.i.i28.i133

if.then.i.i28.i133:                               ; preds = %_ZN8TestCaseD2Ev.exit.i132
  call void @_ZdlPv(ptr noundef %99) #12
  br label %__cxx_global_var_init.8.exit

lpad3.i134:                                       ; preds = %__cxx_global_var_init.6.exit
  %100 = landingpad { ptr, i32 }
          cleanup
  br label %ehcleanup.i138

lpad5.i135:                                       ; preds = %invoke.cont4.i102
  %101 = landingpad { ptr, i32 }
          cleanup
  %_M_refcount.i.i3989 = getelementptr inbounds %struct.TestCase, ptr %ref.tmp.i96, i64 0, i32 3, i32 0, i32 1
  %102 = load ptr, ptr %_M_refcount.i.i3989, align 8, !tbaa !45
  %cmp.not.i.i.i3990 = icmp eq ptr %102, null
  br i1 %cmp.not.i.i.i3990, label %_ZNSt12__shared_ptrIN9benchmark5RegexELN9__gnu_cxx12_Lock_policyE2EED2Ev.exit.i4011, label %if.then.i.i.i3993

if.then.i.i.i3993:                                ; preds = %lpad5.i135
  %_M_use_count.i.i.i.i3991 = getelementptr inbounds %"class.std::_Sp_counted_base", ptr %102, i64 0, i32 1
  %103 = load atomic i64, ptr %_M_use_count.i.i.i.i3991 acquire, align 8
  %cmp.i.i.i.i3992 = icmp eq i64 %103, 4294967297
  %104 = trunc i64 %103 to i32
  br i1 %cmp.i.i.i.i3992, label %if.then.i.i.i.i3999, label %if.end.i.i.i.i4001

if.then.i.i.i.i3999:                              ; preds = %if.then.i.i.i3993
  store i32 0, ptr %_M_use_count.i.i.i.i3991, align 8, !tbaa !47
  %_M_weak_count.i.i.i.i3994 = getelementptr inbounds %"class.std::_Sp_counted_base", ptr %102, i64 0, i32 2
  store i32 0, ptr %_M_weak_count.i.i.i.i3994, align 4, !tbaa !49
  %vtable.i.i.i.i3995 = load ptr, ptr %102, align 8, !tbaa !5
  %vfn.i.i.i.i3996 = getelementptr inbounds ptr, ptr %vtable.i.i.i.i3995, i64 2
  %105 = load ptr, ptr %vfn.i.i.i.i3996, align 8
  call void %105(ptr noundef nonnull align 8 dereferenceable(16) %102) #10
  %vtable3.i.i.i.i3997 = load ptr, ptr %102, align 8, !tbaa !5
  %vfn4.i.i.i.i3998 = getelementptr inbounds ptr, ptr %vtable3.i.i.i.i3997, i64 3
  %106 = load ptr, ptr %vfn4.i.i.i.i3998, align 8
  call void %106(ptr noundef nonnull align 8 dereferenceable(16) %102) #10
  br label %_ZNSt12__shared_ptrIN9benchmark5RegexELN9__gnu_cxx12_Lock_policyE2EED2Ev.exit.i4011

if.end.i.i.i.i4001:                               ; preds = %if.then.i.i.i3993
  %107 = load i8, ptr @__libc_single_threaded, align 1, !tbaa !8
  %tobool.i.not.i.i.i.i.i4000 = icmp eq i8 %107, 0
  br i1 %tobool.i.not.i.i.i.i.i4000, label %if.else.i.i.i.i.i4004, label %if.then.i.i.i.i.i4003

if.then.i.i.i.i.i4003:                            ; preds = %if.end.i.i.i.i4001
  %add.i.i.i.i.i.i4002 = add nsw i32 %104, -1
  store i32 %add.i.i.i.i.i.i4002, ptr %_M_use_count.i.i.i.i3991, align 8, !tbaa !10
  br label %invoke.cont.i.i.i.i4007

if.else.i.i.i.i.i4004:                            ; preds = %if.end.i.i.i.i4001
  %108 = atomicrmw volatile add ptr %_M_use_count.i.i.i.i3991, i32 -1 acq_rel, align 4
  br label %invoke.cont.i.i.i.i4007

invoke.cont.i.i.i.i4007:                          ; preds = %if.else.i.i.i.i.i4004, %if.then.i.i.i.i.i4003
  %retval.0.i.i.i.i.i4005 = phi i32 [ %104, %if.then.i.i.i.i.i4003 ], [ %108, %if.else.i.i.i.i.i4004 ]
  %cmp6.i.i.i.i4006 = icmp eq i32 %retval.0.i.i.i.i.i4005, 1
  br i1 %cmp6.i.i.i.i4006, label %if.then7.i.i.i.i4008, label %_ZNSt12__shared_ptrIN9benchmark5RegexELN9__gnu_cxx12_Lock_policyE2EED2Ev.exit.i4011, !prof !50

if.then7.i.i.i.i4008:                             ; preds = %invoke.cont.i.i.i.i4007
  call void @_ZNSt16_Sp_counted_baseILN9__gnu_cxx12_Lock_policyE2EE24_M_release_last_use_coldEv(ptr noundef nonnull align 8 dereferenceable(16) %102) #10
  br label %_ZNSt12__shared_ptrIN9benchmark5RegexELN9__gnu_cxx12_Lock_policyE2EED2Ev.exit.i4011

_ZNSt12__shared_ptrIN9benchmark5RegexELN9__gnu_cxx12_Lock_policyE2EED2Ev.exit.i4011: ; preds = %if.then7.i.i.i.i4008, %invoke.cont.i.i.i.i4007, %if.then.i.i.i.i3999, %lpad5.i135
  %substituted_regex.i4009 = getelementptr inbounds %struct.TestCase, ptr %ref.tmp.i96, i64 0, i32 2
  %109 = load ptr, ptr %substituted_regex.i4009, align 8, !tbaa !43
  %110 = getelementptr inbounds %struct.TestCase, ptr %ref.tmp.i96, i64 0, i32 2, i32 2
  %cmp.i.i.i2.i4010 = icmp eq ptr %109, %110
  br i1 %cmp.i.i.i2.i4010, label %_ZNSt7__cxx1112basic_stringIcSt11char_traitsIcESaIcEED2Ev.exit.i4014, label %if.then.i.i3.i4012

if.then.i.i3.i4012:                               ; preds = %_ZNSt12__shared_ptrIN9benchmark5RegexELN9__gnu_cxx12_Lock_policyE2EED2Ev.exit.i4011
  call void @_ZdlPv(ptr noundef %109) #12
  br label %_ZNSt7__cxx1112basic_stringIcSt11char_traitsIcESaIcEED2Ev.exit.i4014

_ZNSt7__cxx1112basic_stringIcSt11char_traitsIcESaIcEED2Ev.exit.i4014: ; preds = %if.then.i.i3.i4012, %_ZNSt12__shared_ptrIN9benchmark5RegexELN9__gnu_cxx12_Lock_policyE2EED2Ev.exit.i4011
  %111 = load ptr, ptr %ref.tmp.i96, align 8, !tbaa !43
  %112 = getelementptr inbounds %"class.std::__cxx11::basic_string", ptr %ref.tmp.i96, i64 0, i32 2
  %cmp.i.i.i4.i4013 = icmp eq ptr %111, %112
  br i1 %cmp.i.i.i4.i4013, label %ehcleanup.i138, label %if.then.i.i5.i4015

if.then.i.i5.i4015:                               ; preds = %_ZNSt7__cxx1112basic_stringIcSt11char_traitsIcESaIcEED2Ev.exit.i4014
  call void @_ZdlPv(ptr noundef %111) #12
  br label %ehcleanup.i138

ehcleanup.i138:                                   ; preds = %if.then.i.i5.i4015, %_ZNSt7__cxx1112basic_stringIcSt11char_traitsIcESaIcEED2Ev.exit.i4014, %lpad3.i134
  %.pn.i136 = phi { ptr, i32 } [ %100, %lpad3.i134 ], [ %101, %_ZNSt7__cxx1112basic_stringIcSt11char_traitsIcESaIcEED2Ev.exit.i4014 ], [ %101, %if.then.i.i5.i4015 ]
  %113 = load ptr, ptr %agg.tmp1.i97, align 8, !tbaa !43
  %cmp.i.i.i29.i137 = icmp eq ptr %113, %86
  br i1 %cmp.i.i.i29.i137, label %ehcleanup14.i140, label %if.then.i.i30.i139

if.then.i.i30.i139:                               ; preds = %ehcleanup.i138
  call void @_ZdlPv(ptr noundef %113) #12
  br label %ehcleanup14.i140

ehcleanup14.i140:                                 ; preds = %if.then.i.i30.i139, %ehcleanup.i138
  call void @llvm.lifetime.end.p0(i64 88, ptr nonnull %ref.tmp.i96) #10
  br label %common.resume

__cxx_global_var_init.8.exit:                     ; preds = %_ZN8TestCaseD2Ev.exit.i132, %if.then.i.i28.i133
  call void @llvm.lifetime.end.p0(i64 88, ptr nonnull %ref.tmp.i96) #10
  store i32 %call.i101, ptr @dummy22, align 4, !tbaa !10
  call void @llvm.lifetime.end.p0(i64 32, ptr nonnull %agg.tmp1.i97)
  call void @llvm.lifetime.start.p0(i64 32, ptr nonnull %agg.tmp1.i143)
  call void @llvm.lifetime.start.p0(i64 88, ptr nonnull %ref.tmp.i142) #10
  %114 = getelementptr inbounds %"class.std::__cxx11::basic_string", ptr %agg.tmp1.i143, i64 0, i32 2
  store ptr %114, ptr %agg.tmp1.i143, align 8, !tbaa !41
  call void @llvm.lifetime.start.p0(i64 8, ptr nonnull %__dnew.i.i.i141) #10
  store i64 57, ptr %__dnew.i.i.i141, align 8, !tbaa !42
  %call2.i11.i26.i144 = call noundef ptr @_ZNSt7__cxx1112basic_stringIcSt11char_traitsIcESaIcEE9_M_createERmm(ptr noundef nonnull align 8 dereferenceable(32) %agg.tmp1.i143, ptr noundef nonnull align 8 dereferenceable(8) %__dnew.i.i.i141, i64 noundef 0)
  store ptr %call2.i11.i26.i144, ptr %agg.tmp1.i143, align 8, !tbaa !43
  %115 = load i64, ptr %__dnew.i.i.i141, align 8, !tbaa !42
  store i64 %115, ptr %114, align 8, !tbaa !8
  call void @llvm.memcpy.p0.p0.i64(ptr noundef nonnull align 1 dereferenceable(57) %call2.i11.i26.i144, ptr noundef nonnull align 1 dereferenceable(57) @.str.11, i64 57, i1 false)
  %_M_string_length.i.i.i.i.i145 = getelementptr inbounds %"class.std::__cxx11::basic_string", ptr %agg.tmp1.i143, i64 0, i32 1
  store i64 %115, ptr %_M_string_length.i.i.i.i.i145, align 8, !tbaa !44
  %arrayidx.i.i.i.i146 = getelementptr inbounds i8, ptr %call2.i11.i26.i144, i64 %115
  store i8 0, ptr %arrayidx.i.i.i.i146, align 1, !tbaa !8
  call void @llvm.lifetime.end.p0(i64 8, ptr nonnull %__dnew.i.i.i141) #10
  invoke void @_ZN8TestCaseC1ENSt7__cxx1112basic_stringIcSt11char_traitsIcESaIcEEEi(ptr noundef nonnull align 8 dereferenceable(88) %ref.tmp.i142, ptr noundef nonnull %agg.tmp1.i143, i32 noundef 0)
          to label %invoke.cont4.i148 unwind label %lpad3.i180

invoke.cont4.i148:                                ; preds = %__cxx_global_var_init.8.exit
  %call.i147 = invoke noundef i32 @_Z8AddCases10TestCaseIDSt16initializer_listI8TestCaseE(i32 noundef 0, ptr nonnull %ref.tmp.i142, i64 1)
          to label %invoke.cont6.i151 unwind label %lpad5.i181

invoke.cont6.i151:                                ; preds = %invoke.cont4.i148
  %_M_refcount.i.i.i149 = getelementptr inbounds %struct.TestCase, ptr %ref.tmp.i142, i64 0, i32 3, i32 0, i32 1
  %116 = load ptr, ptr %_M_refcount.i.i.i149, align 8, !tbaa !45
  %cmp.not.i.i.i.i150 = icmp eq ptr %116, null
  br i1 %cmp.not.i.i.i.i150, label %_ZNSt12__shared_ptrIN9benchmark5RegexELN9__gnu_cxx12_Lock_policyE2EED2Ev.exit.i.i172, label %if.then.i.i.i.i154

if.then.i.i.i.i154:                               ; preds = %invoke.cont6.i151
  %_M_use_count.i.i.i.i.i152 = getelementptr inbounds %"class.std::_Sp_counted_base", ptr %116, i64 0, i32 1
  %117 = load atomic i64, ptr %_M_use_count.i.i.i.i.i152 acquire, align 8
  %cmp.i.i.i.i.i153 = icmp eq i64 %117, 4294967297
  %118 = trunc i64 %117 to i32
  br i1 %cmp.i.i.i.i.i153, label %if.then.i.i.i.i27.i160, label %if.end.i.i.i.i.i162

if.then.i.i.i.i27.i160:                           ; preds = %if.then.i.i.i.i154
  store i32 0, ptr %_M_use_count.i.i.i.i.i152, align 8, !tbaa !47
  %_M_weak_count.i.i.i.i.i155 = getelementptr inbounds %"class.std::_Sp_counted_base", ptr %116, i64 0, i32 2
  store i32 0, ptr %_M_weak_count.i.i.i.i.i155, align 4, !tbaa !49
  %vtable.i.i.i.i.i156 = load ptr, ptr %116, align 8, !tbaa !5
  %vfn.i.i.i.i.i157 = getelementptr inbounds ptr, ptr %vtable.i.i.i.i.i156, i64 2
  %119 = load ptr, ptr %vfn.i.i.i.i.i157, align 8
  call void %119(ptr noundef nonnull align 8 dereferenceable(16) %116) #10
  %vtable3.i.i.i.i.i158 = load ptr, ptr %116, align 8, !tbaa !5
  %vfn4.i.i.i.i.i159 = getelementptr inbounds ptr, ptr %vtable3.i.i.i.i.i158, i64 3
  %120 = load ptr, ptr %vfn4.i.i.i.i.i159, align 8
  call void %120(ptr noundef nonnull align 8 dereferenceable(16) %116) #10
  br label %_ZNSt12__shared_ptrIN9benchmark5RegexELN9__gnu_cxx12_Lock_policyE2EED2Ev.exit.i.i172

if.end.i.i.i.i.i162:                              ; preds = %if.then.i.i.i.i154
  %121 = load i8, ptr @__libc_single_threaded, align 1, !tbaa !8
  %tobool.i.not.i.i.i.i.i.i161 = icmp eq i8 %121, 0
  br i1 %tobool.i.not.i.i.i.i.i.i161, label %if.else.i.i.i.i.i.i165, label %if.then.i.i.i.i.i.i164

if.then.i.i.i.i.i.i164:                           ; preds = %if.end.i.i.i.i.i162
  %add.i.i.i.i.i.i.i163 = add nsw i32 %118, -1
  store i32 %add.i.i.i.i.i.i.i163, ptr %_M_use_count.i.i.i.i.i152, align 8, !tbaa !10
  br label %invoke.cont.i.i.i.i.i168

if.else.i.i.i.i.i.i165:                           ; preds = %if.end.i.i.i.i.i162
  %122 = atomicrmw volatile add ptr %_M_use_count.i.i.i.i.i152, i32 -1 acq_rel, align 4
  br label %invoke.cont.i.i.i.i.i168

invoke.cont.i.i.i.i.i168:                         ; preds = %if.else.i.i.i.i.i.i165, %if.then.i.i.i.i.i.i164
  %retval.0.i.i.i.i.i.i166 = phi i32 [ %118, %if.then.i.i.i.i.i.i164 ], [ %122, %if.else.i.i.i.i.i.i165 ]
  %cmp6.i.i.i.i.i167 = icmp eq i32 %retval.0.i.i.i.i.i.i166, 1
  br i1 %cmp6.i.i.i.i.i167, label %if.then7.i.i.i.i.i169, label %_ZNSt12__shared_ptrIN9benchmark5RegexELN9__gnu_cxx12_Lock_policyE2EED2Ev.exit.i.i172, !prof !50

if.then7.i.i.i.i.i169:                            ; preds = %invoke.cont.i.i.i.i.i168
  call void @_ZNSt16_Sp_counted_baseILN9__gnu_cxx12_Lock_policyE2EE24_M_release_last_use_coldEv(ptr noundef nonnull align 8 dereferenceable(16) %116) #10
  br label %_ZNSt12__shared_ptrIN9benchmark5RegexELN9__gnu_cxx12_Lock_policyE2EED2Ev.exit.i.i172

_ZNSt12__shared_ptrIN9benchmark5RegexELN9__gnu_cxx12_Lock_policyE2EED2Ev.exit.i.i172: ; preds = %if.then7.i.i.i.i.i169, %invoke.cont.i.i.i.i.i168, %if.then.i.i.i.i27.i160, %invoke.cont6.i151
  %substituted_regex.i.i170 = getelementptr inbounds %struct.TestCase, ptr %ref.tmp.i142, i64 0, i32 2
  %123 = load ptr, ptr %substituted_regex.i.i170, align 8, !tbaa !43
  %124 = getelementptr inbounds %struct.TestCase, ptr %ref.tmp.i142, i64 0, i32 2, i32 2
  %cmp.i.i.i2.i.i171 = icmp eq ptr %123, %124
  br i1 %cmp.i.i.i2.i.i171, label %_ZNSt7__cxx1112basic_stringIcSt11char_traitsIcESaIcEED2Ev.exit.i.i175, label %if.then.i.i3.i.i173

if.then.i.i3.i.i173:                              ; preds = %_ZNSt12__shared_ptrIN9benchmark5RegexELN9__gnu_cxx12_Lock_policyE2EED2Ev.exit.i.i172
  call void @_ZdlPv(ptr noundef %123) #12
  br label %_ZNSt7__cxx1112basic_stringIcSt11char_traitsIcESaIcEED2Ev.exit.i.i175

_ZNSt7__cxx1112basic_stringIcSt11char_traitsIcESaIcEED2Ev.exit.i.i175: ; preds = %if.then.i.i3.i.i173, %_ZNSt12__shared_ptrIN9benchmark5RegexELN9__gnu_cxx12_Lock_policyE2EED2Ev.exit.i.i172
  %125 = load ptr, ptr %ref.tmp.i142, align 8, !tbaa !43
  %126 = getelementptr inbounds %struct.TestCase, ptr %ref.tmp.i142, i64 0, i32 0, i32 2
  %cmp.i.i.i4.i.i174 = icmp eq ptr %125, %126
  br i1 %cmp.i.i.i4.i.i174, label %_ZN8TestCaseD2Ev.exit.i178, label %if.then.i.i5.i.i176

if.then.i.i5.i.i176:                              ; preds = %_ZNSt7__cxx1112basic_stringIcSt11char_traitsIcESaIcEED2Ev.exit.i.i175
  call void @_ZdlPv(ptr noundef %125) #12
  br label %_ZN8TestCaseD2Ev.exit.i178

_ZN8TestCaseD2Ev.exit.i178:                       ; preds = %if.then.i.i5.i.i176, %_ZNSt7__cxx1112basic_stringIcSt11char_traitsIcESaIcEED2Ev.exit.i.i175
  %127 = load ptr, ptr %agg.tmp1.i143, align 8, !tbaa !43
  %cmp.i.i.i.i177 = icmp eq ptr %127, %114
  br i1 %cmp.i.i.i.i177, label %__cxx_global_var_init.10.exit, label %if.then.i.i28.i179

if.then.i.i28.i179:                               ; preds = %_ZN8TestCaseD2Ev.exit.i178
  call void @_ZdlPv(ptr noundef %127) #12
  br label %__cxx_global_var_init.10.exit

lpad3.i180:                                       ; preds = %__cxx_global_var_init.8.exit
  %128 = landingpad { ptr, i32 }
          cleanup
  br label %ehcleanup.i184

lpad5.i181:                                       ; preds = %invoke.cont4.i148
  %129 = landingpad { ptr, i32 }
          cleanup
  %_M_refcount.i.i4017 = getelementptr inbounds %struct.TestCase, ptr %ref.tmp.i142, i64 0, i32 3, i32 0, i32 1
  %130 = load ptr, ptr %_M_refcount.i.i4017, align 8, !tbaa !45
  %cmp.not.i.i.i4018 = icmp eq ptr %130, null
  br i1 %cmp.not.i.i.i4018, label %_ZNSt12__shared_ptrIN9benchmark5RegexELN9__gnu_cxx12_Lock_policyE2EED2Ev.exit.i4039, label %if.then.i.i.i4021

if.then.i.i.i4021:                                ; preds = %lpad5.i181
  %_M_use_count.i.i.i.i4019 = getelementptr inbounds %"class.std::_Sp_counted_base", ptr %130, i64 0, i32 1
  %131 = load atomic i64, ptr %_M_use_count.i.i.i.i4019 acquire, align 8
  %cmp.i.i.i.i4020 = icmp eq i64 %131, 4294967297
  %132 = trunc i64 %131 to i32
  br i1 %cmp.i.i.i.i4020, label %if.then.i.i.i.i4027, label %if.end.i.i.i.i4029

if.then.i.i.i.i4027:                              ; preds = %if.then.i.i.i4021
  store i32 0, ptr %_M_use_count.i.i.i.i4019, align 8, !tbaa !47
  %_M_weak_count.i.i.i.i4022 = getelementptr inbounds %"class.std::_Sp_counted_base", ptr %130, i64 0, i32 2
  store i32 0, ptr %_M_weak_count.i.i.i.i4022, align 4, !tbaa !49
  %vtable.i.i.i.i4023 = load ptr, ptr %130, align 8, !tbaa !5
  %vfn.i.i.i.i4024 = getelementptr inbounds ptr, ptr %vtable.i.i.i.i4023, i64 2
  %133 = load ptr, ptr %vfn.i.i.i.i4024, align 8
  call void %133(ptr noundef nonnull align 8 dereferenceable(16) %130) #10
  %vtable3.i.i.i.i4025 = load ptr, ptr %130, align 8, !tbaa !5
  %vfn4.i.i.i.i4026 = getelementptr inbounds ptr, ptr %vtable3.i.i.i.i4025, i64 3
  %134 = load ptr, ptr %vfn4.i.i.i.i4026, align 8
  call void %134(ptr noundef nonnull align 8 dereferenceable(16) %130) #10
  br label %_ZNSt12__shared_ptrIN9benchmark5RegexELN9__gnu_cxx12_Lock_policyE2EED2Ev.exit.i4039

if.end.i.i.i.i4029:                               ; preds = %if.then.i.i.i4021
  %135 = load i8, ptr @__libc_single_threaded, align 1, !tbaa !8
  %tobool.i.not.i.i.i.i.i4028 = icmp eq i8 %135, 0
  br i1 %tobool.i.not.i.i.i.i.i4028, label %if.else.i.i.i.i.i4032, label %if.then.i.i.i.i.i4031

if.then.i.i.i.i.i4031:                            ; preds = %if.end.i.i.i.i4029
  %add.i.i.i.i.i.i4030 = add nsw i32 %132, -1
  store i32 %add.i.i.i.i.i.i4030, ptr %_M_use_count.i.i.i.i4019, align 8, !tbaa !10
  br label %invoke.cont.i.i.i.i4035

if.else.i.i.i.i.i4032:                            ; preds = %if.end.i.i.i.i4029
  %136 = atomicrmw volatile add ptr %_M_use_count.i.i.i.i4019, i32 -1 acq_rel, align 4
  br label %invoke.cont.i.i.i.i4035

invoke.cont.i.i.i.i4035:                          ; preds = %if.else.i.i.i.i.i4032, %if.then.i.i.i.i.i4031
  %retval.0.i.i.i.i.i4033 = phi i32 [ %132, %if.then.i.i.i.i.i4031 ], [ %136, %if.else.i.i.i.i.i4032 ]
  %cmp6.i.i.i.i4034 = icmp eq i32 %retval.0.i.i.i.i.i4033, 1
  br i1 %cmp6.i.i.i.i4034, label %if.then7.i.i.i.i4036, label %_ZNSt12__shared_ptrIN9benchmark5RegexELN9__gnu_cxx12_Lock_policyE2EED2Ev.exit.i4039, !prof !50

if.then7.i.i.i.i4036:                             ; preds = %invoke.cont.i.i.i.i4035
  call void @_ZNSt16_Sp_counted_baseILN9__gnu_cxx12_Lock_policyE2EE24_M_release_last_use_coldEv(ptr noundef nonnull align 8 dereferenceable(16) %130) #10
  br label %_ZNSt12__shared_ptrIN9benchmark5RegexELN9__gnu_cxx12_Lock_policyE2EED2Ev.exit.i4039

_ZNSt12__shared_ptrIN9benchmark5RegexELN9__gnu_cxx12_Lock_policyE2EED2Ev.exit.i4039: ; preds = %if.then7.i.i.i.i4036, %invoke.cont.i.i.i.i4035, %if.then.i.i.i.i4027, %lpad5.i181
  %substituted_regex.i4037 = getelementptr inbounds %struct.TestCase, ptr %ref.tmp.i142, i64 0, i32 2
  %137 = load ptr, ptr %substituted_regex.i4037, align 8, !tbaa !43
  %138 = getelementptr inbounds %struct.TestCase, ptr %ref.tmp.i142, i64 0, i32 2, i32 2
  %cmp.i.i.i2.i4038 = icmp eq ptr %137, %138
  br i1 %cmp.i.i.i2.i4038, label %_ZNSt7__cxx1112basic_stringIcSt11char_traitsIcESaIcEED2Ev.exit.i4042, label %if.then.i.i3.i4040

if.then.i.i3.i4040:                               ; preds = %_ZNSt12__shared_ptrIN9benchmark5RegexELN9__gnu_cxx12_Lock_policyE2EED2Ev.exit.i4039
  call void @_ZdlPv(ptr noundef %137) #12
  br label %_ZNSt7__cxx1112basic_stringIcSt11char_traitsIcESaIcEED2Ev.exit.i4042

_ZNSt7__cxx1112basic_stringIcSt11char_traitsIcESaIcEED2Ev.exit.i4042: ; preds = %if.then.i.i3.i4040, %_ZNSt12__shared_ptrIN9benchmark5RegexELN9__gnu_cxx12_Lock_policyE2EED2Ev.exit.i4039
  %139 = load ptr, ptr %ref.tmp.i142, align 8, !tbaa !43
  %140 = getelementptr inbounds %"class.std::__cxx11::basic_string", ptr %ref.tmp.i142, i64 0, i32 2
  %cmp.i.i.i4.i4041 = icmp eq ptr %139, %140
  br i1 %cmp.i.i.i4.i4041, label %ehcleanup.i184, label %if.then.i.i5.i4043

if.then.i.i5.i4043:                               ; preds = %_ZNSt7__cxx1112basic_stringIcSt11char_traitsIcESaIcEED2Ev.exit.i4042
  call void @_ZdlPv(ptr noundef %139) #12
  br label %ehcleanup.i184

ehcleanup.i184:                                   ; preds = %if.then.i.i5.i4043, %_ZNSt7__cxx1112basic_stringIcSt11char_traitsIcESaIcEED2Ev.exit.i4042, %lpad3.i180
  %.pn.i182 = phi { ptr, i32 } [ %128, %lpad3.i180 ], [ %129, %_ZNSt7__cxx1112basic_stringIcSt11char_traitsIcESaIcEED2Ev.exit.i4042 ], [ %129, %if.then.i.i5.i4043 ]
  %141 = load ptr, ptr %agg.tmp1.i143, align 8, !tbaa !43
  %cmp.i.i.i29.i183 = icmp eq ptr %141, %114
  br i1 %cmp.i.i.i29.i183, label %ehcleanup14.i186, label %if.then.i.i30.i185

if.then.i.i30.i185:                               ; preds = %ehcleanup.i184
  call void @_ZdlPv(ptr noundef %141) #12
  br label %ehcleanup14.i186

ehcleanup14.i186:                                 ; preds = %if.then.i.i30.i185, %ehcleanup.i184
  call void @llvm.lifetime.end.p0(i64 88, ptr nonnull %ref.tmp.i142) #10
  br label %common.resume

__cxx_global_var_init.10.exit:                    ; preds = %_ZN8TestCaseD2Ev.exit.i178, %if.then.i.i28.i179
  call void @llvm.lifetime.end.p0(i64 88, ptr nonnull %ref.tmp.i142) #10
  store i32 %call.i147, ptr @dummy24, align 4, !tbaa !10
  call void @llvm.lifetime.end.p0(i64 32, ptr nonnull %agg.tmp1.i143)
  call void @llvm.lifetime.start.p0(i64 32, ptr nonnull %agg.tmp1.i189)
  call void @llvm.lifetime.start.p0(i64 32, ptr nonnull %agg.tmp5.i)
  call void @llvm.lifetime.start.p0(i64 32, ptr nonnull %agg.tmp12.i)
  call void @llvm.lifetime.start.p0(i64 32, ptr nonnull %agg.tmp19.i)
  call void @llvm.lifetime.start.p0(i64 32, ptr nonnull %agg.tmp26.i)
  call void @llvm.lifetime.start.p0(i64 32, ptr nonnull %agg.tmp33.i)
  call void @llvm.lifetime.start.p0(i64 32, ptr nonnull %agg.tmp40.i)
  call void @llvm.lifetime.start.p0(i64 32, ptr nonnull %agg.tmp47.i)
  call void @llvm.lifetime.start.p0(i64 32, ptr nonnull %agg.tmp54.i)
  call void @llvm.lifetime.start.p0(i64 32, ptr nonnull %agg.tmp61.i)
  call void @llvm.lifetime.start.p0(i64 32, ptr nonnull %agg.tmp68.i)
  call void @llvm.lifetime.start.p0(i64 32, ptr nonnull %agg.tmp75.i)
  call void @llvm.lifetime.start.p0(i64 32, ptr nonnull %agg.tmp82.i)
  call void @llvm.lifetime.start.p0(i64 1144, ptr nonnull %ref.tmp.i188) #10
  %142 = getelementptr inbounds %"class.std::__cxx11::basic_string", ptr %agg.tmp1.i189, i64 0, i32 2
  store ptr %142, ptr %agg.tmp1.i189, align 8, !tbaa !41
  call void @llvm.lifetime.start.p0(i64 8, ptr nonnull %__dnew.i.i.i187) #10
  store i64 44, ptr %__dnew.i.i.i187, align 8, !tbaa !42
  %call2.i11.i169.i = call noundef ptr @_ZNSt7__cxx1112basic_stringIcSt11char_traitsIcESaIcEE9_M_createERmm(ptr noundef nonnull align 8 dereferenceable(32) %agg.tmp1.i189, ptr noundef nonnull align 8 dereferenceable(8) %__dnew.i.i.i187, i64 noundef 0)
  store ptr %call2.i11.i169.i, ptr %agg.tmp1.i189, align 8, !tbaa !43
  %143 = load i64, ptr %__dnew.i.i.i187, align 8, !tbaa !42
  store i64 %143, ptr %142, align 8, !tbaa !8
  call void @llvm.memcpy.p0.p0.i64(ptr noundef nonnull align 1 dereferenceable(44) %call2.i11.i169.i, ptr noundef nonnull align 1 dereferenceable(44) @.str.13, i64 44, i1 false)
  %_M_string_length.i.i.i.i.i190 = getelementptr inbounds %"class.std::__cxx11::basic_string", ptr %agg.tmp1.i189, i64 0, i32 1
  store i64 %143, ptr %_M_string_length.i.i.i.i.i190, align 8, !tbaa !44
  %arrayidx.i.i.i.i191 = getelementptr inbounds i8, ptr %call2.i11.i169.i, i64 %143
  store i8 0, ptr %arrayidx.i.i.i.i191, align 1, !tbaa !8
  call void @llvm.lifetime.end.p0(i64 8, ptr nonnull %__dnew.i.i.i187) #10
  invoke void @_ZN8TestCaseC1ENSt7__cxx1112basic_stringIcSt11char_traitsIcESaIcEEEi(ptr noundef nonnull align 8 dereferenceable(88) %ref.tmp.i188, ptr noundef nonnull %agg.tmp1.i189, i32 noundef 0)
          to label %invoke.cont4.i192 unwind label %lpad3.i222

invoke.cont4.i192:                                ; preds = %__cxx_global_var_init.10.exit
  %arrayinit.element.i = getelementptr inbounds %struct.TestCase, ptr %ref.tmp.i188, i64 1
  %144 = getelementptr inbounds %"class.std::__cxx11::basic_string", ptr %agg.tmp5.i, i64 0, i32 2
  store ptr %144, ptr %agg.tmp5.i, align 8, !tbaa !41
  call void @llvm.lifetime.start.p0(i64 8, ptr nonnull %__dnew.i.i170.i) #10
  store i64 19, ptr %__dnew.i.i170.i, align 8, !tbaa !42
  %call2.i11.i180.i = invoke noundef ptr @_ZNSt7__cxx1112basic_stringIcSt11char_traitsIcESaIcEE9_M_createERmm(ptr noundef nonnull align 8 dereferenceable(32) %agg.tmp5.i, ptr noundef nonnull align 8 dereferenceable(8) %__dnew.i.i170.i, i64 noundef 0)
          to label %call2.i11.i.noexc179.i unwind label %lpad7.i

call2.i11.i.noexc179.i:                           ; preds = %invoke.cont4.i192
  store ptr %call2.i11.i180.i, ptr %agg.tmp5.i, align 8, !tbaa !43
  %145 = load i64, ptr %__dnew.i.i170.i, align 8, !tbaa !42
  store i64 %145, ptr %144, align 8, !tbaa !8
  call void @llvm.memcpy.p0.p0.i64(ptr noundef nonnull align 1 dereferenceable(19) %call2.i11.i180.i, ptr noundef nonnull align 1 dereferenceable(19) @.str.14, i64 19, i1 false)
  %_M_string_length.i.i.i.i177.i = getelementptr inbounds %"class.std::__cxx11::basic_string", ptr %agg.tmp5.i, i64 0, i32 1
  store i64 %145, ptr %_M_string_length.i.i.i.i177.i, align 8, !tbaa !44
  %146 = load ptr, ptr %agg.tmp5.i, align 8, !tbaa !43
  %arrayidx.i.i.i178.i = getelementptr inbounds i8, ptr %146, i64 %145
  store i8 0, ptr %arrayidx.i.i.i178.i, align 1, !tbaa !8
  call void @llvm.lifetime.end.p0(i64 8, ptr nonnull %__dnew.i.i170.i) #10
  invoke void @_ZN8TestCaseC1ENSt7__cxx1112basic_stringIcSt11char_traitsIcESaIcEEEi(ptr noundef nonnull align 8 dereferenceable(88) %arrayinit.element.i, ptr noundef nonnull %agg.tmp5.i, i32 noundef 1)
          to label %invoke.cont10.i unwind label %lpad9.i

invoke.cont10.i:                                  ; preds = %call2.i11.i.noexc179.i
  %arrayinit.element11.i = getelementptr inbounds %struct.TestCase, ptr %ref.tmp.i188, i64 2
  %147 = getelementptr inbounds %"class.std::__cxx11::basic_string", ptr %agg.tmp12.i, i64 0, i32 2
  store ptr %147, ptr %agg.tmp12.i, align 8, !tbaa !41
  call void @llvm.lifetime.start.p0(i64 8, ptr nonnull %__dnew.i.i182.i) #10
  store i64 32, ptr %__dnew.i.i182.i, align 8, !tbaa !42
  %call2.i11.i192.i = invoke noundef ptr @_ZNSt7__cxx1112basic_stringIcSt11char_traitsIcESaIcEE9_M_createERmm(ptr noundef nonnull align 8 dereferenceable(32) %agg.tmp12.i, ptr noundef nonnull align 8 dereferenceable(8) %__dnew.i.i182.i, i64 noundef 0)
          to label %call2.i11.i.noexc191.i unwind label %lpad14.i

call2.i11.i.noexc191.i:                           ; preds = %invoke.cont10.i
  store ptr %call2.i11.i192.i, ptr %agg.tmp12.i, align 8, !tbaa !43
  %148 = load i64, ptr %__dnew.i.i182.i, align 8, !tbaa !42
  store i64 %148, ptr %147, align 8, !tbaa !8
  call void @llvm.memcpy.p0.p0.i64(ptr noundef nonnull align 1 dereferenceable(32) %call2.i11.i192.i, ptr noundef nonnull align 1 dereferenceable(32) @.str.15, i64 32, i1 false)
  %_M_string_length.i.i.i.i189.i = getelementptr inbounds %"class.std::__cxx11::basic_string", ptr %agg.tmp12.i, i64 0, i32 1
  store i64 %148, ptr %_M_string_length.i.i.i.i189.i, align 8, !tbaa !44
  %149 = load ptr, ptr %agg.tmp12.i, align 8, !tbaa !43
  %arrayidx.i.i.i190.i = getelementptr inbounds i8, ptr %149, i64 %148
  store i8 0, ptr %arrayidx.i.i.i190.i, align 1, !tbaa !8
  call void @llvm.lifetime.end.p0(i64 8, ptr nonnull %__dnew.i.i182.i) #10
  invoke void @_ZN8TestCaseC1ENSt7__cxx1112basic_stringIcSt11char_traitsIcESaIcEEEi(ptr noundef nonnull align 8 dereferenceable(88) %arrayinit.element11.i, ptr noundef nonnull %agg.tmp12.i, i32 noundef 1)
          to label %invoke.cont17.i unwind label %lpad16.i

invoke.cont17.i:                                  ; preds = %call2.i11.i.noexc191.i
  %arrayinit.element18.i = getelementptr inbounds %struct.TestCase, ptr %ref.tmp.i188, i64 3
  %150 = getelementptr inbounds %"class.std::__cxx11::basic_string", ptr %agg.tmp19.i, i64 0, i32 2
  store ptr %150, ptr %agg.tmp19.i, align 8, !tbaa !41
  call void @llvm.lifetime.start.p0(i64 8, ptr nonnull %__dnew.i.i194.i) #10
  store i64 48, ptr %__dnew.i.i194.i, align 8, !tbaa !42
  %call2.i11.i204.i = invoke noundef ptr @_ZNSt7__cxx1112basic_stringIcSt11char_traitsIcESaIcEE9_M_createERmm(ptr noundef nonnull align 8 dereferenceable(32) %agg.tmp19.i, ptr noundef nonnull align 8 dereferenceable(8) %__dnew.i.i194.i, i64 noundef 0)
          to label %call2.i11.i.noexc203.i unwind label %lpad21.i

call2.i11.i.noexc203.i:                           ; preds = %invoke.cont17.i
  store ptr %call2.i11.i204.i, ptr %agg.tmp19.i, align 8, !tbaa !43
  %151 = load i64, ptr %__dnew.i.i194.i, align 8, !tbaa !42
  store i64 %151, ptr %150, align 8, !tbaa !8
  call void @llvm.memcpy.p0.p0.i64(ptr noundef nonnull align 1 dereferenceable(48) %call2.i11.i204.i, ptr noundef nonnull align 1 dereferenceable(48) @.str.16, i64 48, i1 false)
  %_M_string_length.i.i.i.i201.i = getelementptr inbounds %"class.std::__cxx11::basic_string", ptr %agg.tmp19.i, i64 0, i32 1
  store i64 %151, ptr %_M_string_length.i.i.i.i201.i, align 8, !tbaa !44
  %arrayidx.i.i.i202.i = getelementptr inbounds i8, ptr %call2.i11.i204.i, i64 %151
  store i8 0, ptr %arrayidx.i.i.i202.i, align 1, !tbaa !8
  call void @llvm.lifetime.end.p0(i64 8, ptr nonnull %__dnew.i.i194.i) #10
  invoke void @_ZN8TestCaseC1ENSt7__cxx1112basic_stringIcSt11char_traitsIcESaIcEEEi(ptr noundef nonnull align 8 dereferenceable(88) %arrayinit.element18.i, ptr noundef nonnull %agg.tmp19.i, i32 noundef 1)
          to label %invoke.cont24.i unwind label %lpad23.i

invoke.cont24.i:                                  ; preds = %call2.i11.i.noexc203.i
  %arrayinit.element25.i = getelementptr inbounds %struct.TestCase, ptr %ref.tmp.i188, i64 4
  %152 = getelementptr inbounds %"class.std::__cxx11::basic_string", ptr %agg.tmp26.i, i64 0, i32 2
  store ptr %152, ptr %agg.tmp26.i, align 8, !tbaa !41
  call void @llvm.lifetime.start.p0(i64 8, ptr nonnull %__dnew.i.i206.i) #10
  store i64 25, ptr %__dnew.i.i206.i, align 8, !tbaa !42
  %call2.i11.i216.i = invoke noundef ptr @_ZNSt7__cxx1112basic_stringIcSt11char_traitsIcESaIcEE9_M_createERmm(ptr noundef nonnull align 8 dereferenceable(32) %agg.tmp26.i, ptr noundef nonnull align 8 dereferenceable(8) %__dnew.i.i206.i, i64 noundef 0)
          to label %call2.i11.i.noexc215.i unwind label %lpad28.i

call2.i11.i.noexc215.i:                           ; preds = %invoke.cont24.i
  store ptr %call2.i11.i216.i, ptr %agg.tmp26.i, align 8, !tbaa !43
  %153 = load i64, ptr %__dnew.i.i206.i, align 8, !tbaa !42
  store i64 %153, ptr %152, align 8, !tbaa !8
  call void @llvm.memcpy.p0.p0.i64(ptr noundef nonnull align 1 dereferenceable(25) %call2.i11.i216.i, ptr noundef nonnull align 1 dereferenceable(25) @.str.17, i64 25, i1 false)
  %_M_string_length.i.i.i.i213.i = getelementptr inbounds %"class.std::__cxx11::basic_string", ptr %agg.tmp26.i, i64 0, i32 1
  store i64 %153, ptr %_M_string_length.i.i.i.i213.i, align 8, !tbaa !44
  %154 = load ptr, ptr %agg.tmp26.i, align 8, !tbaa !43
  %arrayidx.i.i.i214.i = getelementptr inbounds i8, ptr %154, i64 %153
  store i8 0, ptr %arrayidx.i.i.i214.i, align 1, !tbaa !8
  call void @llvm.lifetime.end.p0(i64 8, ptr nonnull %__dnew.i.i206.i) #10
  invoke void @_ZN8TestCaseC1ENSt7__cxx1112basic_stringIcSt11char_traitsIcESaIcEEEi(ptr noundef nonnull align 8 dereferenceable(88) %arrayinit.element25.i, ptr noundef nonnull %agg.tmp26.i, i32 noundef 1)
          to label %invoke.cont31.i unwind label %lpad30.i

invoke.cont31.i:                                  ; preds = %call2.i11.i.noexc215.i
  %arrayinit.element32.i = getelementptr inbounds %struct.TestCase, ptr %ref.tmp.i188, i64 5
  %155 = getelementptr inbounds %"class.std::__cxx11::basic_string", ptr %agg.tmp33.i, i64 0, i32 2
  store ptr %155, ptr %agg.tmp33.i, align 8, !tbaa !41
  call void @llvm.lifetime.start.p0(i64 8, ptr nonnull %__dnew.i.i218.i) #10
  store i64 18, ptr %__dnew.i.i218.i, align 8, !tbaa !42
  %call2.i11.i228.i = invoke noundef ptr @_ZNSt7__cxx1112basic_stringIcSt11char_traitsIcESaIcEE9_M_createERmm(ptr noundef nonnull align 8 dereferenceable(32) %agg.tmp33.i, ptr noundef nonnull align 8 dereferenceable(8) %__dnew.i.i218.i, i64 noundef 0)
          to label %call2.i11.i.noexc227.i unwind label %lpad35.i

call2.i11.i.noexc227.i:                           ; preds = %invoke.cont31.i
  store ptr %call2.i11.i228.i, ptr %agg.tmp33.i, align 8, !tbaa !43
  %156 = load i64, ptr %__dnew.i.i218.i, align 8, !tbaa !42
  store i64 %156, ptr %155, align 8, !tbaa !8
  call void @llvm.memcpy.p0.p0.i64(ptr noundef nonnull align 1 dereferenceable(18) %call2.i11.i228.i, ptr noundef nonnull align 1 dereferenceable(18) @.str.18, i64 18, i1 false)
  %_M_string_length.i.i.i.i225.i = getelementptr inbounds %"class.std::__cxx11::basic_string", ptr %agg.tmp33.i, i64 0, i32 1
  store i64 %156, ptr %_M_string_length.i.i.i.i225.i, align 8, !tbaa !44
  %157 = load ptr, ptr %agg.tmp33.i, align 8, !tbaa !43
  %arrayidx.i.i.i226.i = getelementptr inbounds i8, ptr %157, i64 %156
  store i8 0, ptr %arrayidx.i.i.i226.i, align 1, !tbaa !8
  call void @llvm.lifetime.end.p0(i64 8, ptr nonnull %__dnew.i.i218.i) #10
  invoke void @_ZN8TestCaseC1ENSt7__cxx1112basic_stringIcSt11char_traitsIcESaIcEEEi(ptr noundef nonnull align 8 dereferenceable(88) %arrayinit.element32.i, ptr noundef nonnull %agg.tmp33.i, i32 noundef 1)
          to label %invoke.cont38.i unwind label %lpad37.i

invoke.cont38.i:                                  ; preds = %call2.i11.i.noexc227.i
  %arrayinit.element39.i = getelementptr inbounds %struct.TestCase, ptr %ref.tmp.i188, i64 6
  %158 = getelementptr inbounds %"class.std::__cxx11::basic_string", ptr %agg.tmp40.i, i64 0, i32 2
  store ptr %158, ptr %agg.tmp40.i, align 8, !tbaa !41
  call void @llvm.lifetime.start.p0(i64 8, ptr nonnull %__dnew.i.i230.i) #10
  store i64 23, ptr %__dnew.i.i230.i, align 8, !tbaa !42
  %call2.i11.i240.i = invoke noundef ptr @_ZNSt7__cxx1112basic_stringIcSt11char_traitsIcESaIcEE9_M_createERmm(ptr noundef nonnull align 8 dereferenceable(32) %agg.tmp40.i, ptr noundef nonnull align 8 dereferenceable(8) %__dnew.i.i230.i, i64 noundef 0)
          to label %call2.i11.i.noexc239.i unwind label %lpad42.i

call2.i11.i.noexc239.i:                           ; preds = %invoke.cont38.i
  store ptr %call2.i11.i240.i, ptr %agg.tmp40.i, align 8, !tbaa !43
  %159 = load i64, ptr %__dnew.i.i230.i, align 8, !tbaa !42
  store i64 %159, ptr %158, align 8, !tbaa !8
  call void @llvm.memcpy.p0.p0.i64(ptr noundef nonnull align 1 dereferenceable(23) %call2.i11.i240.i, ptr noundef nonnull align 1 dereferenceable(23) @.str.19, i64 23, i1 false)
  %_M_string_length.i.i.i.i237.i = getelementptr inbounds %"class.std::__cxx11::basic_string", ptr %agg.tmp40.i, i64 0, i32 1
  store i64 %159, ptr %_M_string_length.i.i.i.i237.i, align 8, !tbaa !44
  %160 = load ptr, ptr %agg.tmp40.i, align 8, !tbaa !43
  %arrayidx.i.i.i238.i = getelementptr inbounds i8, ptr %160, i64 %159
  store i8 0, ptr %arrayidx.i.i.i238.i, align 1, !tbaa !8
  call void @llvm.lifetime.end.p0(i64 8, ptr nonnull %__dnew.i.i230.i) #10
  invoke void @_ZN8TestCaseC1ENSt7__cxx1112basic_stringIcSt11char_traitsIcESaIcEEEi(ptr noundef nonnull align 8 dereferenceable(88) %arrayinit.element39.i, ptr noundef nonnull %agg.tmp40.i, i32 noundef 1)
          to label %invoke.cont45.i unwind label %lpad44.i

invoke.cont45.i:                                  ; preds = %call2.i11.i.noexc239.i
  %arrayinit.element46.i = getelementptr inbounds %struct.TestCase, ptr %ref.tmp.i188, i64 7
  %161 = getelementptr inbounds %"class.std::__cxx11::basic_string", ptr %agg.tmp47.i, i64 0, i32 2
  store ptr %161, ptr %agg.tmp47.i, align 8, !tbaa !41
  call void @llvm.memcpy.p0.p0.i64(ptr noundef nonnull align 8 dereferenceable(14) %161, ptr noundef nonnull align 1 dereferenceable(14) @.str.20, i64 14, i1 false)
  %_M_string_length.i.i.i.i249.i = getelementptr inbounds %"class.std::__cxx11::basic_string", ptr %agg.tmp47.i, i64 0, i32 1
  store i64 14, ptr %_M_string_length.i.i.i.i249.i, align 8, !tbaa !44
  %arrayidx.i.i.i250.i = getelementptr inbounds %"class.std::__cxx11::basic_string", ptr %agg.tmp47.i, i64 0, i32 2, i32 1, i64 6
  store i8 0, ptr %arrayidx.i.i.i250.i, align 2, !tbaa !8
  invoke void @_ZN8TestCaseC1ENSt7__cxx1112basic_stringIcSt11char_traitsIcESaIcEEEi(ptr noundef nonnull align 8 dereferenceable(88) %arrayinit.element46.i, ptr noundef nonnull %agg.tmp47.i, i32 noundef 1)
          to label %invoke.cont52.i unwind label %lpad51.i

invoke.cont52.i:                                  ; preds = %invoke.cont45.i
  %arrayinit.element53.i = getelementptr inbounds %struct.TestCase, ptr %ref.tmp.i188, i64 8
  %162 = getelementptr inbounds %"class.std::__cxx11::basic_string", ptr %agg.tmp54.i, i64 0, i32 2
  store ptr %162, ptr %agg.tmp54.i, align 8, !tbaa !41
  call void @llvm.lifetime.start.p0(i64 8, ptr nonnull %__dnew.i.i254.i) #10
  store i64 20, ptr %__dnew.i.i254.i, align 8, !tbaa !42
  %call2.i11.i264.i = invoke noundef ptr @_ZNSt7__cxx1112basic_stringIcSt11char_traitsIcESaIcEE9_M_createERmm(ptr noundef nonnull align 8 dereferenceable(32) %agg.tmp54.i, ptr noundef nonnull align 8 dereferenceable(8) %__dnew.i.i254.i, i64 noundef 0)
          to label %call2.i11.i.noexc263.i unwind label %lpad56.i

call2.i11.i.noexc263.i:                           ; preds = %invoke.cont52.i
  store ptr %call2.i11.i264.i, ptr %agg.tmp54.i, align 8, !tbaa !43
  %163 = load i64, ptr %__dnew.i.i254.i, align 8, !tbaa !42
  store i64 %163, ptr %162, align 8, !tbaa !8
  call void @llvm.memcpy.p0.p0.i64(ptr noundef nonnull align 1 dereferenceable(20) %call2.i11.i264.i, ptr noundef nonnull align 1 dereferenceable(20) @.str.21, i64 20, i1 false)
  %_M_string_length.i.i.i.i261.i = getelementptr inbounds %"class.std::__cxx11::basic_string", ptr %agg.tmp54.i, i64 0, i32 1
  store i64 %163, ptr %_M_string_length.i.i.i.i261.i, align 8, !tbaa !44
  %164 = load ptr, ptr %agg.tmp54.i, align 8, !tbaa !43
  %arrayidx.i.i.i262.i = getelementptr inbounds i8, ptr %164, i64 %163
  store i8 0, ptr %arrayidx.i.i.i262.i, align 1, !tbaa !8
  call void @llvm.lifetime.end.p0(i64 8, ptr nonnull %__dnew.i.i254.i) #10
  invoke void @_ZN8TestCaseC1ENSt7__cxx1112basic_stringIcSt11char_traitsIcESaIcEEEi(ptr noundef nonnull align 8 dereferenceable(88) %arrayinit.element53.i, ptr noundef nonnull %agg.tmp54.i, i32 noundef 1)
          to label %invoke.cont59.i unwind label %lpad58.i

invoke.cont59.i:                                  ; preds = %call2.i11.i.noexc263.i
  %arrayinit.element60.i = getelementptr inbounds %struct.TestCase, ptr %ref.tmp.i188, i64 9
  %165 = getelementptr inbounds %"class.std::__cxx11::basic_string", ptr %agg.tmp61.i, i64 0, i32 2
  store ptr %165, ptr %agg.tmp61.i, align 8, !tbaa !41
  call void @llvm.lifetime.start.p0(i64 8, ptr nonnull %__dnew.i.i266.i) #10
  store i64 21, ptr %__dnew.i.i266.i, align 8, !tbaa !42
  %call2.i11.i276.i = invoke noundef ptr @_ZNSt7__cxx1112basic_stringIcSt11char_traitsIcESaIcEE9_M_createERmm(ptr noundef nonnull align 8 dereferenceable(32) %agg.tmp61.i, ptr noundef nonnull align 8 dereferenceable(8) %__dnew.i.i266.i, i64 noundef 0)
          to label %call2.i11.i.noexc275.i unwind label %lpad63.i

call2.i11.i.noexc275.i:                           ; preds = %invoke.cont59.i
  store ptr %call2.i11.i276.i, ptr %agg.tmp61.i, align 8, !tbaa !43
  %166 = load i64, ptr %__dnew.i.i266.i, align 8, !tbaa !42
  store i64 %166, ptr %165, align 8, !tbaa !8
  call void @llvm.memcpy.p0.p0.i64(ptr noundef nonnull align 1 dereferenceable(21) %call2.i11.i276.i, ptr noundef nonnull align 1 dereferenceable(21) @.str.22, i64 21, i1 false)
  %_M_string_length.i.i.i.i273.i = getelementptr inbounds %"class.std::__cxx11::basic_string", ptr %agg.tmp61.i, i64 0, i32 1
  store i64 %166, ptr %_M_string_length.i.i.i.i273.i, align 8, !tbaa !44
  %167 = load ptr, ptr %agg.tmp61.i, align 8, !tbaa !43
  %arrayidx.i.i.i274.i = getelementptr inbounds i8, ptr %167, i64 %166
  store i8 0, ptr %arrayidx.i.i.i274.i, align 1, !tbaa !8
  call void @llvm.lifetime.end.p0(i64 8, ptr nonnull %__dnew.i.i266.i) #10
  invoke void @_ZN8TestCaseC1ENSt7__cxx1112basic_stringIcSt11char_traitsIcESaIcEEEi(ptr noundef nonnull align 8 dereferenceable(88) %arrayinit.element60.i, ptr noundef nonnull %agg.tmp61.i, i32 noundef 1)
          to label %invoke.cont66.i unwind label %lpad65.i

invoke.cont66.i:                                  ; preds = %call2.i11.i.noexc275.i
  %arrayinit.element67.i = getelementptr inbounds %struct.TestCase, ptr %ref.tmp.i188, i64 10
  %168 = getelementptr inbounds %"class.std::__cxx11::basic_string", ptr %agg.tmp68.i, i64 0, i32 2
  store ptr %168, ptr %agg.tmp68.i, align 8, !tbaa !41
  call void @llvm.lifetime.start.p0(i64 8, ptr nonnull %__dnew.i.i278.i) #10
  store i64 20, ptr %__dnew.i.i278.i, align 8, !tbaa !42
  %call2.i11.i288.i = invoke noundef ptr @_ZNSt7__cxx1112basic_stringIcSt11char_traitsIcESaIcEE9_M_createERmm(ptr noundef nonnull align 8 dereferenceable(32) %agg.tmp68.i, ptr noundef nonnull align 8 dereferenceable(8) %__dnew.i.i278.i, i64 noundef 0)
          to label %call2.i11.i.noexc287.i unwind label %lpad70.i

call2.i11.i.noexc287.i:                           ; preds = %invoke.cont66.i
  store ptr %call2.i11.i288.i, ptr %agg.tmp68.i, align 8, !tbaa !43
  %169 = load i64, ptr %__dnew.i.i278.i, align 8, !tbaa !42
  store i64 %169, ptr %168, align 8, !tbaa !8
  call void @llvm.memcpy.p0.p0.i64(ptr noundef nonnull align 1 dereferenceable(20) %call2.i11.i288.i, ptr noundef nonnull align 1 dereferenceable(20) @.str.23, i64 20, i1 false)
  %_M_string_length.i.i.i.i285.i = getelementptr inbounds %"class.std::__cxx11::basic_string", ptr %agg.tmp68.i, i64 0, i32 1
  store i64 %169, ptr %_M_string_length.i.i.i.i285.i, align 8, !tbaa !44
  %170 = load ptr, ptr %agg.tmp68.i, align 8, !tbaa !43
  %arrayidx.i.i.i286.i = getelementptr inbounds i8, ptr %170, i64 %169
  store i8 0, ptr %arrayidx.i.i.i286.i, align 1, !tbaa !8
  call void @llvm.lifetime.end.p0(i64 8, ptr nonnull %__dnew.i.i278.i) #10
  invoke void @_ZN8TestCaseC1ENSt7__cxx1112basic_stringIcSt11char_traitsIcESaIcEEEi(ptr noundef nonnull align 8 dereferenceable(88) %arrayinit.element67.i, ptr noundef nonnull %agg.tmp68.i, i32 noundef 1)
          to label %invoke.cont73.i unwind label %lpad72.i

invoke.cont73.i:                                  ; preds = %call2.i11.i.noexc287.i
  %arrayinit.element74.i = getelementptr inbounds %struct.TestCase, ptr %ref.tmp.i188, i64 11
  %171 = getelementptr inbounds %"class.std::__cxx11::basic_string", ptr %agg.tmp75.i, i64 0, i32 2
  store ptr %171, ptr %agg.tmp75.i, align 8, !tbaa !41
  call void @llvm.lifetime.start.p0(i64 8, ptr nonnull %__dnew.i.i290.i) #10
  store i64 18, ptr %__dnew.i.i290.i, align 8, !tbaa !42
  %call2.i11.i300.i = invoke noundef ptr @_ZNSt7__cxx1112basic_stringIcSt11char_traitsIcESaIcEE9_M_createERmm(ptr noundef nonnull align 8 dereferenceable(32) %agg.tmp75.i, ptr noundef nonnull align 8 dereferenceable(8) %__dnew.i.i290.i, i64 noundef 0)
          to label %call2.i11.i.noexc299.i unwind label %lpad77.i

call2.i11.i.noexc299.i:                           ; preds = %invoke.cont73.i
  store ptr %call2.i11.i300.i, ptr %agg.tmp75.i, align 8, !tbaa !43
  %172 = load i64, ptr %__dnew.i.i290.i, align 8, !tbaa !42
  store i64 %172, ptr %171, align 8, !tbaa !8
  call void @llvm.memcpy.p0.p0.i64(ptr noundef nonnull align 1 dereferenceable(18) %call2.i11.i300.i, ptr noundef nonnull align 1 dereferenceable(18) @.str.24, i64 18, i1 false)
  %_M_string_length.i.i.i.i297.i = getelementptr inbounds %"class.std::__cxx11::basic_string", ptr %agg.tmp75.i, i64 0, i32 1
  store i64 %172, ptr %_M_string_length.i.i.i.i297.i, align 8, !tbaa !44
  %173 = load ptr, ptr %agg.tmp75.i, align 8, !tbaa !43
  %arrayidx.i.i.i298.i = getelementptr inbounds i8, ptr %173, i64 %172
  store i8 0, ptr %arrayidx.i.i.i298.i, align 1, !tbaa !8
  call void @llvm.lifetime.end.p0(i64 8, ptr nonnull %__dnew.i.i290.i) #10
  invoke void @_ZN8TestCaseC1ENSt7__cxx1112basic_stringIcSt11char_traitsIcESaIcEEEi(ptr noundef nonnull align 8 dereferenceable(88) %arrayinit.element74.i, ptr noundef nonnull %agg.tmp75.i, i32 noundef 1)
          to label %invoke.cont80.i unwind label %lpad79.i

invoke.cont80.i:                                  ; preds = %call2.i11.i.noexc299.i
  %arrayinit.element81.i = getelementptr inbounds %struct.TestCase, ptr %ref.tmp.i188, i64 12
  %174 = getelementptr inbounds %"class.std::__cxx11::basic_string", ptr %agg.tmp82.i, i64 0, i32 2
  store ptr %174, ptr %agg.tmp82.i, align 8, !tbaa !41
  store i8 125, ptr %174, align 8, !tbaa !8
  %_M_string_length.i.i.i.i309.i = getelementptr inbounds %"class.std::__cxx11::basic_string", ptr %agg.tmp82.i, i64 0, i32 1
  store i64 1, ptr %_M_string_length.i.i.i.i309.i, align 8, !tbaa !44
  %arrayidx.i.i.i310.i = getelementptr inbounds i8, ptr %agg.tmp82.i, i64 17
  store i8 0, ptr %arrayidx.i.i.i310.i, align 1, !tbaa !8
  invoke void @_ZN8TestCaseC1ENSt7__cxx1112basic_stringIcSt11char_traitsIcESaIcEEEi(ptr noundef nonnull align 8 dereferenceable(88) %arrayinit.element81.i, ptr noundef nonnull %agg.tmp82.i, i32 noundef 1)
          to label %invoke.cont87.i unwind label %lpad86.i

invoke.cont87.i:                                  ; preds = %invoke.cont80.i
  %call.i193 = invoke noundef i32 @_Z8AddCases10TestCaseIDSt16initializer_listI8TestCaseE(i32 noundef 2, ptr nonnull %ref.tmp.i188, i64 13)
          to label %invoke.cont89.i unwind label %lpad88.i

invoke.cont89.i:                                  ; preds = %invoke.cont87.i
  %175 = getelementptr inbounds %struct.TestCase, ptr %ref.tmp.i188, i64 13
  br label %arraydestroy.body.i

arraydestroy.body.i:                              ; preds = %_ZN8TestCaseD2Ev.exit.i220, %invoke.cont89.i
  %arraydestroy.elementPast.i = phi ptr [ %175, %invoke.cont89.i ], [ %arraydestroy.element.i, %_ZN8TestCaseD2Ev.exit.i220 ]
  %arraydestroy.element.i = getelementptr inbounds %struct.TestCase, ptr %arraydestroy.elementPast.i, i64 -1
  %_M_refcount.i.i.i194 = getelementptr %struct.TestCase, ptr %arraydestroy.elementPast.i, i64 -1, i32 3, i32 0, i32 1
  %176 = load ptr, ptr %_M_refcount.i.i.i194, align 8, !tbaa !45
  %cmp.not.i.i.i.i195 = icmp eq ptr %176, null
  br i1 %cmp.not.i.i.i.i195, label %_ZNSt12__shared_ptrIN9benchmark5RegexELN9__gnu_cxx12_Lock_policyE2EED2Ev.exit.i.i215, label %if.then.i.i.i.i198

if.then.i.i.i.i198:                               ; preds = %arraydestroy.body.i
  %_M_use_count.i.i.i.i.i196 = getelementptr inbounds %"class.std::_Sp_counted_base", ptr %176, i64 0, i32 1
  %177 = load atomic i64, ptr %_M_use_count.i.i.i.i.i196 acquire, align 8
  %cmp.i.i.i.i.i197 = icmp eq i64 %177, 4294967297
  %178 = trunc i64 %177 to i32
  br i1 %cmp.i.i.i.i.i197, label %if.then.i.i.i.i314.i, label %if.end.i.i.i.i.i205

if.then.i.i.i.i314.i:                             ; preds = %if.then.i.i.i.i198
  store i32 0, ptr %_M_use_count.i.i.i.i.i196, align 8, !tbaa !47
  %_M_weak_count.i.i.i.i.i199 = getelementptr inbounds %"class.std::_Sp_counted_base", ptr %176, i64 0, i32 2
  store i32 0, ptr %_M_weak_count.i.i.i.i.i199, align 4, !tbaa !49
  %vtable.i.i.i.i.i200 = load ptr, ptr %176, align 8, !tbaa !5
  %vfn.i.i.i.i.i201 = getelementptr inbounds ptr, ptr %vtable.i.i.i.i.i200, i64 2
  %179 = load ptr, ptr %vfn.i.i.i.i.i201, align 8
  call void %179(ptr noundef nonnull align 8 dereferenceable(16) %176) #10
  %vtable3.i.i.i.i.i202 = load ptr, ptr %176, align 8, !tbaa !5
  %vfn4.i.i.i.i.i203 = getelementptr inbounds ptr, ptr %vtable3.i.i.i.i.i202, i64 3
  %180 = load ptr, ptr %vfn4.i.i.i.i.i203, align 8
  call void %180(ptr noundef nonnull align 8 dereferenceable(16) %176) #10
  br label %_ZNSt12__shared_ptrIN9benchmark5RegexELN9__gnu_cxx12_Lock_policyE2EED2Ev.exit.i.i215

if.end.i.i.i.i.i205:                              ; preds = %if.then.i.i.i.i198
  %181 = load i8, ptr @__libc_single_threaded, align 1, !tbaa !8
  %tobool.i.not.i.i.i.i.i.i204 = icmp eq i8 %181, 0
  br i1 %tobool.i.not.i.i.i.i.i.i204, label %if.else.i.i.i.i.i.i208, label %if.then.i.i.i.i.i.i207

if.then.i.i.i.i.i.i207:                           ; preds = %if.end.i.i.i.i.i205
  %add.i.i.i.i.i.i.i206 = add nsw i32 %178, -1
  store i32 %add.i.i.i.i.i.i.i206, ptr %_M_use_count.i.i.i.i.i196, align 8, !tbaa !10
  br label %invoke.cont.i.i.i.i.i211

if.else.i.i.i.i.i.i208:                           ; preds = %if.end.i.i.i.i.i205
  %182 = atomicrmw volatile add ptr %_M_use_count.i.i.i.i.i196, i32 -1 acq_rel, align 4
  br label %invoke.cont.i.i.i.i.i211

invoke.cont.i.i.i.i.i211:                         ; preds = %if.else.i.i.i.i.i.i208, %if.then.i.i.i.i.i.i207
  %retval.0.i.i.i.i.i.i209 = phi i32 [ %178, %if.then.i.i.i.i.i.i207 ], [ %182, %if.else.i.i.i.i.i.i208 ]
  %cmp6.i.i.i.i.i210 = icmp eq i32 %retval.0.i.i.i.i.i.i209, 1
  br i1 %cmp6.i.i.i.i.i210, label %if.then7.i.i.i.i.i212, label %_ZNSt12__shared_ptrIN9benchmark5RegexELN9__gnu_cxx12_Lock_policyE2EED2Ev.exit.i.i215, !prof !50

if.then7.i.i.i.i.i212:                            ; preds = %invoke.cont.i.i.i.i.i211
  call void @_ZNSt16_Sp_counted_baseILN9__gnu_cxx12_Lock_policyE2EE24_M_release_last_use_coldEv(ptr noundef nonnull align 8 dereferenceable(16) %176) #10
  br label %_ZNSt12__shared_ptrIN9benchmark5RegexELN9__gnu_cxx12_Lock_policyE2EED2Ev.exit.i.i215

_ZNSt12__shared_ptrIN9benchmark5RegexELN9__gnu_cxx12_Lock_policyE2EED2Ev.exit.i.i215: ; preds = %if.then7.i.i.i.i.i212, %invoke.cont.i.i.i.i.i211, %if.then.i.i.i.i314.i, %arraydestroy.body.i
  %substituted_regex.i.i213 = getelementptr %struct.TestCase, ptr %arraydestroy.elementPast.i, i64 -1, i32 2
  %183 = load ptr, ptr %substituted_regex.i.i213, align 8, !tbaa !43
  %184 = getelementptr %struct.TestCase, ptr %arraydestroy.elementPast.i, i64 -1, i32 2, i32 2
  %cmp.i.i.i2.i.i214 = icmp eq ptr %183, %184
  br i1 %cmp.i.i.i2.i.i214, label %_ZNSt7__cxx1112basic_stringIcSt11char_traitsIcESaIcEED2Ev.exit.i.i218, label %if.then.i.i3.i.i216

if.then.i.i3.i.i216:                              ; preds = %_ZNSt12__shared_ptrIN9benchmark5RegexELN9__gnu_cxx12_Lock_policyE2EED2Ev.exit.i.i215
  call void @_ZdlPv(ptr noundef %183) #12
  br label %_ZNSt7__cxx1112basic_stringIcSt11char_traitsIcESaIcEED2Ev.exit.i.i218

_ZNSt7__cxx1112basic_stringIcSt11char_traitsIcESaIcEED2Ev.exit.i.i218: ; preds = %if.then.i.i3.i.i216, %_ZNSt12__shared_ptrIN9benchmark5RegexELN9__gnu_cxx12_Lock_policyE2EED2Ev.exit.i.i215
  %185 = load ptr, ptr %arraydestroy.element.i, align 8, !tbaa !43
  %186 = getelementptr %struct.TestCase, ptr %arraydestroy.elementPast.i, i64 -1, i32 0, i32 2
  %cmp.i.i.i4.i.i217 = icmp eq ptr %185, %186
  br i1 %cmp.i.i.i4.i.i217, label %_ZN8TestCaseD2Ev.exit.i220, label %if.then.i.i5.i.i219

if.then.i.i5.i.i219:                              ; preds = %_ZNSt7__cxx1112basic_stringIcSt11char_traitsIcESaIcEED2Ev.exit.i.i218
  call void @_ZdlPv(ptr noundef %185) #12
  br label %_ZN8TestCaseD2Ev.exit.i220

_ZN8TestCaseD2Ev.exit.i220:                       ; preds = %if.then.i.i5.i.i219, %_ZNSt7__cxx1112basic_stringIcSt11char_traitsIcESaIcEED2Ev.exit.i.i218
  %arraydestroy.done.i = icmp eq ptr %arraydestroy.element.i, %ref.tmp.i188
  br i1 %arraydestroy.done.i, label %arraydestroy.done90.i, label %arraydestroy.body.i

arraydestroy.done90.i:                            ; preds = %_ZN8TestCaseD2Ev.exit.i220
  %187 = load ptr, ptr %agg.tmp82.i, align 8, !tbaa !43
  %cmp.i.i.i.i221 = icmp eq ptr %187, %174
  br i1 %cmp.i.i.i.i221, label %_ZNSt7__cxx1112basic_stringIcSt11char_traitsIcESaIcEED2Ev.exit.i, label %if.then.i.i315.i

if.then.i.i315.i:                                 ; preds = %arraydestroy.done90.i
  call void @_ZdlPv(ptr noundef %187) #12
  br label %_ZNSt7__cxx1112basic_stringIcSt11char_traitsIcESaIcEED2Ev.exit.i

_ZNSt7__cxx1112basic_stringIcSt11char_traitsIcESaIcEED2Ev.exit.i: ; preds = %if.then.i.i315.i, %arraydestroy.done90.i
  %188 = load ptr, ptr %agg.tmp75.i, align 8, !tbaa !43
  %cmp.i.i.i316.i = icmp eq ptr %188, %171
  br i1 %cmp.i.i.i316.i, label %_ZNSt7__cxx1112basic_stringIcSt11char_traitsIcESaIcEED2Ev.exit318.i, label %if.then.i.i317.i

if.then.i.i317.i:                                 ; preds = %_ZNSt7__cxx1112basic_stringIcSt11char_traitsIcESaIcEED2Ev.exit.i
  call void @_ZdlPv(ptr noundef %188) #12
  br label %_ZNSt7__cxx1112basic_stringIcSt11char_traitsIcESaIcEED2Ev.exit318.i

_ZNSt7__cxx1112basic_stringIcSt11char_traitsIcESaIcEED2Ev.exit318.i: ; preds = %if.then.i.i317.i, %_ZNSt7__cxx1112basic_stringIcSt11char_traitsIcESaIcEED2Ev.exit.i
  %189 = load ptr, ptr %agg.tmp68.i, align 8, !tbaa !43
  %cmp.i.i.i319.i = icmp eq ptr %189, %168
  br i1 %cmp.i.i.i319.i, label %_ZNSt7__cxx1112basic_stringIcSt11char_traitsIcESaIcEED2Ev.exit321.i, label %if.then.i.i320.i

if.then.i.i320.i:                                 ; preds = %_ZNSt7__cxx1112basic_stringIcSt11char_traitsIcESaIcEED2Ev.exit318.i
  call void @_ZdlPv(ptr noundef %189) #12
  br label %_ZNSt7__cxx1112basic_stringIcSt11char_traitsIcESaIcEED2Ev.exit321.i

_ZNSt7__cxx1112basic_stringIcSt11char_traitsIcESaIcEED2Ev.exit321.i: ; preds = %if.then.i.i320.i, %_ZNSt7__cxx1112basic_stringIcSt11char_traitsIcESaIcEED2Ev.exit318.i
  %190 = load ptr, ptr %agg.tmp61.i, align 8, !tbaa !43
  %cmp.i.i.i322.i = icmp eq ptr %190, %165
  br i1 %cmp.i.i.i322.i, label %_ZNSt7__cxx1112basic_stringIcSt11char_traitsIcESaIcEED2Ev.exit324.i, label %if.then.i.i323.i

if.then.i.i323.i:                                 ; preds = %_ZNSt7__cxx1112basic_stringIcSt11char_traitsIcESaIcEED2Ev.exit321.i
  call void @_ZdlPv(ptr noundef %190) #12
  br label %_ZNSt7__cxx1112basic_stringIcSt11char_traitsIcESaIcEED2Ev.exit324.i

_ZNSt7__cxx1112basic_stringIcSt11char_traitsIcESaIcEED2Ev.exit324.i: ; preds = %if.then.i.i323.i, %_ZNSt7__cxx1112basic_stringIcSt11char_traitsIcESaIcEED2Ev.exit321.i
  %191 = load ptr, ptr %agg.tmp54.i, align 8, !tbaa !43
  %cmp.i.i.i325.i = icmp eq ptr %191, %162
  br i1 %cmp.i.i.i325.i, label %_ZNSt7__cxx1112basic_stringIcSt11char_traitsIcESaIcEED2Ev.exit327.i, label %if.then.i.i326.i

if.then.i.i326.i:                                 ; preds = %_ZNSt7__cxx1112basic_stringIcSt11char_traitsIcESaIcEED2Ev.exit324.i
  call void @_ZdlPv(ptr noundef %191) #12
  br label %_ZNSt7__cxx1112basic_stringIcSt11char_traitsIcESaIcEED2Ev.exit327.i

_ZNSt7__cxx1112basic_stringIcSt11char_traitsIcESaIcEED2Ev.exit327.i: ; preds = %if.then.i.i326.i, %_ZNSt7__cxx1112basic_stringIcSt11char_traitsIcESaIcEED2Ev.exit324.i
  %192 = load ptr, ptr %agg.tmp47.i, align 8, !tbaa !43
  %cmp.i.i.i328.i = icmp eq ptr %192, %161
  br i1 %cmp.i.i.i328.i, label %_ZNSt7__cxx1112basic_stringIcSt11char_traitsIcESaIcEED2Ev.exit330.i, label %if.then.i.i329.i

if.then.i.i329.i:                                 ; preds = %_ZNSt7__cxx1112basic_stringIcSt11char_traitsIcESaIcEED2Ev.exit327.i
  call void @_ZdlPv(ptr noundef %192) #12
  br label %_ZNSt7__cxx1112basic_stringIcSt11char_traitsIcESaIcEED2Ev.exit330.i

_ZNSt7__cxx1112basic_stringIcSt11char_traitsIcESaIcEED2Ev.exit330.i: ; preds = %if.then.i.i329.i, %_ZNSt7__cxx1112basic_stringIcSt11char_traitsIcESaIcEED2Ev.exit327.i
  %193 = load ptr, ptr %agg.tmp40.i, align 8, !tbaa !43
  %cmp.i.i.i331.i = icmp eq ptr %193, %158
  br i1 %cmp.i.i.i331.i, label %_ZNSt7__cxx1112basic_stringIcSt11char_traitsIcESaIcEED2Ev.exit333.i, label %if.then.i.i332.i

if.then.i.i332.i:                                 ; preds = %_ZNSt7__cxx1112basic_stringIcSt11char_traitsIcESaIcEED2Ev.exit330.i
  call void @_ZdlPv(ptr noundef %193) #12
  br label %_ZNSt7__cxx1112basic_stringIcSt11char_traitsIcESaIcEED2Ev.exit333.i

_ZNSt7__cxx1112basic_stringIcSt11char_traitsIcESaIcEED2Ev.exit333.i: ; preds = %if.then.i.i332.i, %_ZNSt7__cxx1112basic_stringIcSt11char_traitsIcESaIcEED2Ev.exit330.i
  %194 = load ptr, ptr %agg.tmp33.i, align 8, !tbaa !43
  %cmp.i.i.i334.i = icmp eq ptr %194, %155
  br i1 %cmp.i.i.i334.i, label %_ZNSt7__cxx1112basic_stringIcSt11char_traitsIcESaIcEED2Ev.exit336.i, label %if.then.i.i335.i

if.then.i.i335.i:                                 ; preds = %_ZNSt7__cxx1112basic_stringIcSt11char_traitsIcESaIcEED2Ev.exit333.i
  call void @_ZdlPv(ptr noundef %194) #12
  br label %_ZNSt7__cxx1112basic_stringIcSt11char_traitsIcESaIcEED2Ev.exit336.i

_ZNSt7__cxx1112basic_stringIcSt11char_traitsIcESaIcEED2Ev.exit336.i: ; preds = %if.then.i.i335.i, %_ZNSt7__cxx1112basic_stringIcSt11char_traitsIcESaIcEED2Ev.exit333.i
  %195 = load ptr, ptr %agg.tmp26.i, align 8, !tbaa !43
  %cmp.i.i.i337.i = icmp eq ptr %195, %152
  br i1 %cmp.i.i.i337.i, label %_ZNSt7__cxx1112basic_stringIcSt11char_traitsIcESaIcEED2Ev.exit339.i, label %if.then.i.i338.i

if.then.i.i338.i:                                 ; preds = %_ZNSt7__cxx1112basic_stringIcSt11char_traitsIcESaIcEED2Ev.exit336.i
  call void @_ZdlPv(ptr noundef %195) #12
  br label %_ZNSt7__cxx1112basic_stringIcSt11char_traitsIcESaIcEED2Ev.exit339.i

_ZNSt7__cxx1112basic_stringIcSt11char_traitsIcESaIcEED2Ev.exit339.i: ; preds = %if.then.i.i338.i, %_ZNSt7__cxx1112basic_stringIcSt11char_traitsIcESaIcEED2Ev.exit336.i
  %196 = load ptr, ptr %agg.tmp19.i, align 8, !tbaa !43
  %cmp.i.i.i340.i = icmp eq ptr %196, %150
  br i1 %cmp.i.i.i340.i, label %_ZNSt7__cxx1112basic_stringIcSt11char_traitsIcESaIcEED2Ev.exit342.i, label %if.then.i.i341.i

if.then.i.i341.i:                                 ; preds = %_ZNSt7__cxx1112basic_stringIcSt11char_traitsIcESaIcEED2Ev.exit339.i
  call void @_ZdlPv(ptr noundef %196) #12
  br label %_ZNSt7__cxx1112basic_stringIcSt11char_traitsIcESaIcEED2Ev.exit342.i

_ZNSt7__cxx1112basic_stringIcSt11char_traitsIcESaIcEED2Ev.exit342.i: ; preds = %if.then.i.i341.i, %_ZNSt7__cxx1112basic_stringIcSt11char_traitsIcESaIcEED2Ev.exit339.i
  %197 = load ptr, ptr %agg.tmp12.i, align 8, !tbaa !43
  %cmp.i.i.i343.i = icmp eq ptr %197, %147
  br i1 %cmp.i.i.i343.i, label %_ZNSt7__cxx1112basic_stringIcSt11char_traitsIcESaIcEED2Ev.exit345.i, label %if.then.i.i344.i

if.then.i.i344.i:                                 ; preds = %_ZNSt7__cxx1112basic_stringIcSt11char_traitsIcESaIcEED2Ev.exit342.i
  call void @_ZdlPv(ptr noundef %197) #12
  br label %_ZNSt7__cxx1112basic_stringIcSt11char_traitsIcESaIcEED2Ev.exit345.i

_ZNSt7__cxx1112basic_stringIcSt11char_traitsIcESaIcEED2Ev.exit345.i: ; preds = %if.then.i.i344.i, %_ZNSt7__cxx1112basic_stringIcSt11char_traitsIcESaIcEED2Ev.exit342.i
  %198 = load ptr, ptr %agg.tmp5.i, align 8, !tbaa !43
  %cmp.i.i.i346.i = icmp eq ptr %198, %144
  br i1 %cmp.i.i.i346.i, label %_ZNSt7__cxx1112basic_stringIcSt11char_traitsIcESaIcEED2Ev.exit348.i, label %if.then.i.i347.i

if.then.i.i347.i:                                 ; preds = %_ZNSt7__cxx1112basic_stringIcSt11char_traitsIcESaIcEED2Ev.exit345.i
  call void @_ZdlPv(ptr noundef %198) #12
  br label %_ZNSt7__cxx1112basic_stringIcSt11char_traitsIcESaIcEED2Ev.exit348.i

_ZNSt7__cxx1112basic_stringIcSt11char_traitsIcESaIcEED2Ev.exit348.i: ; preds = %if.then.i.i347.i, %_ZNSt7__cxx1112basic_stringIcSt11char_traitsIcESaIcEED2Ev.exit345.i
  %199 = load ptr, ptr %agg.tmp1.i189, align 8, !tbaa !43
  %cmp.i.i.i349.i = icmp eq ptr %199, %142
  br i1 %cmp.i.i.i349.i, label %__cxx_global_var_init.12.exit, label %if.then.i.i350.i

if.then.i.i350.i:                                 ; preds = %_ZNSt7__cxx1112basic_stringIcSt11char_traitsIcESaIcEED2Ev.exit348.i
  call void @_ZdlPv(ptr noundef %199) #12
  br label %__cxx_global_var_init.12.exit

lpad3.i222:                                       ; preds = %__cxx_global_var_init.10.exit
  %200 = landingpad { ptr, i32 }
          cleanup
  br label %ehcleanup132.i

lpad7.i:                                          ; preds = %invoke.cont4.i192
  %201 = landingpad { ptr, i32 }
          cleanup
  br label %ehcleanup132.i

lpad9.i:                                          ; preds = %call2.i11.i.noexc179.i
  %202 = landingpad { ptr, i32 }
          cleanup
  br label %ehcleanup129.i

lpad14.i:                                         ; preds = %invoke.cont10.i
  %203 = landingpad { ptr, i32 }
          cleanup
  br label %ehcleanup129.i

lpad16.i:                                         ; preds = %call2.i11.i.noexc191.i
  %204 = landingpad { ptr, i32 }
          cleanup
  br label %ehcleanup126.i

lpad21.i:                                         ; preds = %invoke.cont17.i
  %205 = landingpad { ptr, i32 }
          cleanup
  br label %ehcleanup126.i

lpad23.i:                                         ; preds = %call2.i11.i.noexc203.i
  %206 = landingpad { ptr, i32 }
          cleanup
  br label %ehcleanup123.i

lpad28.i:                                         ; preds = %invoke.cont24.i
  %207 = landingpad { ptr, i32 }
          cleanup
  br label %ehcleanup123.i

lpad30.i:                                         ; preds = %call2.i11.i.noexc215.i
  %208 = landingpad { ptr, i32 }
          cleanup
  br label %ehcleanup120.i

lpad35.i:                                         ; preds = %invoke.cont31.i
  %209 = landingpad { ptr, i32 }
          cleanup
  br label %ehcleanup120.i

lpad37.i:                                         ; preds = %call2.i11.i.noexc227.i
  %210 = landingpad { ptr, i32 }
          cleanup
  br label %ehcleanup117.i

lpad42.i:                                         ; preds = %invoke.cont38.i
  %211 = landingpad { ptr, i32 }
          cleanup
  br label %ehcleanup117.i

lpad44.i:                                         ; preds = %call2.i11.i.noexc239.i
  %212 = landingpad { ptr, i32 }
          cleanup
  br label %ehcleanup114.i

lpad51.i:                                         ; preds = %invoke.cont45.i
  %213 = landingpad { ptr, i32 }
          cleanup
  br label %ehcleanup111.i

lpad56.i:                                         ; preds = %invoke.cont52.i
  %214 = landingpad { ptr, i32 }
          cleanup
  br label %ehcleanup111.i

lpad58.i:                                         ; preds = %call2.i11.i.noexc263.i
  %215 = landingpad { ptr, i32 }
          cleanup
  br label %ehcleanup108.i

lpad63.i:                                         ; preds = %invoke.cont59.i
  %216 = landingpad { ptr, i32 }
          cleanup
  br label %ehcleanup108.i

lpad65.i:                                         ; preds = %call2.i11.i.noexc275.i
  %217 = landingpad { ptr, i32 }
          cleanup
  br label %ehcleanup105.i

lpad70.i:                                         ; preds = %invoke.cont66.i
  %218 = landingpad { ptr, i32 }
          cleanup
  br label %ehcleanup105.i

lpad72.i:                                         ; preds = %call2.i11.i.noexc287.i
  %219 = landingpad { ptr, i32 }
          cleanup
  br label %ehcleanup102.i

lpad77.i:                                         ; preds = %invoke.cont73.i
  %220 = landingpad { ptr, i32 }
          cleanup
  br label %ehcleanup102.i

lpad79.i:                                         ; preds = %call2.i11.i.noexc299.i
  %221 = landingpad { ptr, i32 }
          cleanup
  br label %ehcleanup99.i

lpad86.i:                                         ; preds = %invoke.cont80.i
  %222 = landingpad { ptr, i32 }
          cleanup
  br label %ehcleanup.i224

lpad88.i:                                         ; preds = %invoke.cont87.i
  %223 = landingpad { ptr, i32 }
          cleanup
  %_M_refcount.i.i4409 = getelementptr inbounds %struct.TestCase, ptr %ref.tmp.i188, i64 12, i32 3, i32 0, i32 1
  %224 = load ptr, ptr %_M_refcount.i.i4409, align 8, !tbaa !45
  %cmp.not.i.i.i4410 = icmp eq ptr %224, null
  br i1 %cmp.not.i.i.i4410, label %_ZNSt12__shared_ptrIN9benchmark5RegexELN9__gnu_cxx12_Lock_policyE2EED2Ev.exit.i4431, label %if.then.i.i.i4413

if.then.i.i.i4413:                                ; preds = %lpad88.i
  %_M_use_count.i.i.i.i4411 = getelementptr inbounds %"class.std::_Sp_counted_base", ptr %224, i64 0, i32 1
  %225 = load atomic i64, ptr %_M_use_count.i.i.i.i4411 acquire, align 8
  %cmp.i.i.i.i4412 = icmp eq i64 %225, 4294967297
  %226 = trunc i64 %225 to i32
  br i1 %cmp.i.i.i.i4412, label %if.then.i.i.i.i4419, label %if.end.i.i.i.i4421

if.then.i.i.i.i4419:                              ; preds = %if.then.i.i.i4413
  store i32 0, ptr %_M_use_count.i.i.i.i4411, align 8, !tbaa !47
  %_M_weak_count.i.i.i.i4414 = getelementptr inbounds %"class.std::_Sp_counted_base", ptr %224, i64 0, i32 2
  store i32 0, ptr %_M_weak_count.i.i.i.i4414, align 4, !tbaa !49
  %vtable.i.i.i.i4415 = load ptr, ptr %224, align 8, !tbaa !5
  %vfn.i.i.i.i4416 = getelementptr inbounds ptr, ptr %vtable.i.i.i.i4415, i64 2
  %227 = load ptr, ptr %vfn.i.i.i.i4416, align 8
  call void %227(ptr noundef nonnull align 8 dereferenceable(16) %224) #10
  %vtable3.i.i.i.i4417 = load ptr, ptr %224, align 8, !tbaa !5
  %vfn4.i.i.i.i4418 = getelementptr inbounds ptr, ptr %vtable3.i.i.i.i4417, i64 3
  %228 = load ptr, ptr %vfn4.i.i.i.i4418, align 8
  call void %228(ptr noundef nonnull align 8 dereferenceable(16) %224) #10
  br label %_ZNSt12__shared_ptrIN9benchmark5RegexELN9__gnu_cxx12_Lock_policyE2EED2Ev.exit.i4431

if.end.i.i.i.i4421:                               ; preds = %if.then.i.i.i4413
  %229 = load i8, ptr @__libc_single_threaded, align 1, !tbaa !8
  %tobool.i.not.i.i.i.i.i4420 = icmp eq i8 %229, 0
  br i1 %tobool.i.not.i.i.i.i.i4420, label %if.else.i.i.i.i.i4424, label %if.then.i.i.i.i.i4423

if.then.i.i.i.i.i4423:                            ; preds = %if.end.i.i.i.i4421
  %add.i.i.i.i.i.i4422 = add nsw i32 %226, -1
  store i32 %add.i.i.i.i.i.i4422, ptr %_M_use_count.i.i.i.i4411, align 8, !tbaa !10
  br label %invoke.cont.i.i.i.i4427

if.else.i.i.i.i.i4424:                            ; preds = %if.end.i.i.i.i4421
  %230 = atomicrmw volatile add ptr %_M_use_count.i.i.i.i4411, i32 -1 acq_rel, align 4
  br label %invoke.cont.i.i.i.i4427

invoke.cont.i.i.i.i4427:                          ; preds = %if.else.i.i.i.i.i4424, %if.then.i.i.i.i.i4423
  %retval.0.i.i.i.i.i4425 = phi i32 [ %226, %if.then.i.i.i.i.i4423 ], [ %230, %if.else.i.i.i.i.i4424 ]
  %cmp6.i.i.i.i4426 = icmp eq i32 %retval.0.i.i.i.i.i4425, 1
  br i1 %cmp6.i.i.i.i4426, label %if.then7.i.i.i.i4428, label %_ZNSt12__shared_ptrIN9benchmark5RegexELN9__gnu_cxx12_Lock_policyE2EED2Ev.exit.i4431, !prof !50

if.then7.i.i.i.i4428:                             ; preds = %invoke.cont.i.i.i.i4427
  call void @_ZNSt16_Sp_counted_baseILN9__gnu_cxx12_Lock_policyE2EE24_M_release_last_use_coldEv(ptr noundef nonnull align 8 dereferenceable(16) %224) #10
  br label %_ZNSt12__shared_ptrIN9benchmark5RegexELN9__gnu_cxx12_Lock_policyE2EED2Ev.exit.i4431

_ZNSt12__shared_ptrIN9benchmark5RegexELN9__gnu_cxx12_Lock_policyE2EED2Ev.exit.i4431: ; preds = %if.then7.i.i.i.i4428, %invoke.cont.i.i.i.i4427, %if.then.i.i.i.i4419, %lpad88.i
  %substituted_regex.i4429 = getelementptr inbounds %struct.TestCase, ptr %ref.tmp.i188, i64 12, i32 2
  %231 = load ptr, ptr %substituted_regex.i4429, align 8, !tbaa !43
  %232 = getelementptr inbounds %struct.TestCase, ptr %ref.tmp.i188, i64 12, i32 2, i32 2
  %cmp.i.i.i2.i4430 = icmp eq ptr %231, %232
  br i1 %cmp.i.i.i2.i4430, label %_ZNSt7__cxx1112basic_stringIcSt11char_traitsIcESaIcEED2Ev.exit.i4434, label %if.then.i.i3.i4432

if.then.i.i3.i4432:                               ; preds = %_ZNSt12__shared_ptrIN9benchmark5RegexELN9__gnu_cxx12_Lock_policyE2EED2Ev.exit.i4431
  call void @_ZdlPv(ptr noundef %231) #12
  br label %_ZNSt7__cxx1112basic_stringIcSt11char_traitsIcESaIcEED2Ev.exit.i4434

_ZNSt7__cxx1112basic_stringIcSt11char_traitsIcESaIcEED2Ev.exit.i4434: ; preds = %if.then.i.i3.i4432, %_ZNSt12__shared_ptrIN9benchmark5RegexELN9__gnu_cxx12_Lock_policyE2EED2Ev.exit.i4431
  %233 = load ptr, ptr %arrayinit.element81.i, align 8, !tbaa !43
  %234 = getelementptr inbounds %struct.TestCase, ptr %ref.tmp.i188, i64 12, i32 0, i32 2
  %cmp.i.i.i4.i4433 = icmp eq ptr %233, %234
  br i1 %cmp.i.i.i4.i4433, label %_ZN8TestCaseD2Ev.exit4436, label %if.then.i.i5.i4435

if.then.i.i5.i4435:                               ; preds = %_ZNSt7__cxx1112basic_stringIcSt11char_traitsIcESaIcEED2Ev.exit.i4434
  call void @_ZdlPv(ptr noundef %233) #12
  br label %_ZN8TestCaseD2Ev.exit4436

_ZN8TestCaseD2Ev.exit4436:                        ; preds = %_ZNSt7__cxx1112basic_stringIcSt11char_traitsIcESaIcEED2Ev.exit.i4434, %if.then.i.i5.i4435
  %_M_refcount.i.i4381 = getelementptr inbounds %struct.TestCase, ptr %ref.tmp.i188, i64 11, i32 3, i32 0, i32 1
  %235 = load ptr, ptr %_M_refcount.i.i4381, align 8, !tbaa !45
  %cmp.not.i.i.i4382 = icmp eq ptr %235, null
  br i1 %cmp.not.i.i.i4382, label %_ZNSt12__shared_ptrIN9benchmark5RegexELN9__gnu_cxx12_Lock_policyE2EED2Ev.exit.i4403, label %if.then.i.i.i4385

if.then.i.i.i4385:                                ; preds = %_ZN8TestCaseD2Ev.exit4436
  %_M_use_count.i.i.i.i4383 = getelementptr inbounds %"class.std::_Sp_counted_base", ptr %235, i64 0, i32 1
  %236 = load atomic i64, ptr %_M_use_count.i.i.i.i4383 acquire, align 8
  %cmp.i.i.i.i4384 = icmp eq i64 %236, 4294967297
  %237 = trunc i64 %236 to i32
  br i1 %cmp.i.i.i.i4384, label %if.then.i.i.i.i4391, label %if.end.i.i.i.i4393

if.then.i.i.i.i4391:                              ; preds = %if.then.i.i.i4385
  store i32 0, ptr %_M_use_count.i.i.i.i4383, align 8, !tbaa !47
  %_M_weak_count.i.i.i.i4386 = getelementptr inbounds %"class.std::_Sp_counted_base", ptr %235, i64 0, i32 2
  store i32 0, ptr %_M_weak_count.i.i.i.i4386, align 4, !tbaa !49
  %vtable.i.i.i.i4387 = load ptr, ptr %235, align 8, !tbaa !5
  %vfn.i.i.i.i4388 = getelementptr inbounds ptr, ptr %vtable.i.i.i.i4387, i64 2
  %238 = load ptr, ptr %vfn.i.i.i.i4388, align 8
  call void %238(ptr noundef nonnull align 8 dereferenceable(16) %235) #10
  %vtable3.i.i.i.i4389 = load ptr, ptr %235, align 8, !tbaa !5
  %vfn4.i.i.i.i4390 = getelementptr inbounds ptr, ptr %vtable3.i.i.i.i4389, i64 3
  %239 = load ptr, ptr %vfn4.i.i.i.i4390, align 8
  call void %239(ptr noundef nonnull align 8 dereferenceable(16) %235) #10
  br label %_ZNSt12__shared_ptrIN9benchmark5RegexELN9__gnu_cxx12_Lock_policyE2EED2Ev.exit.i4403

if.end.i.i.i.i4393:                               ; preds = %if.then.i.i.i4385
  %240 = load i8, ptr @__libc_single_threaded, align 1, !tbaa !8
  %tobool.i.not.i.i.i.i.i4392 = icmp eq i8 %240, 0
  br i1 %tobool.i.not.i.i.i.i.i4392, label %if.else.i.i.i.i.i4396, label %if.then.i.i.i.i.i4395

if.then.i.i.i.i.i4395:                            ; preds = %if.end.i.i.i.i4393
  %add.i.i.i.i.i.i4394 = add nsw i32 %237, -1
  store i32 %add.i.i.i.i.i.i4394, ptr %_M_use_count.i.i.i.i4383, align 8, !tbaa !10
  br label %invoke.cont.i.i.i.i4399

if.else.i.i.i.i.i4396:                            ; preds = %if.end.i.i.i.i4393
  %241 = atomicrmw volatile add ptr %_M_use_count.i.i.i.i4383, i32 -1 acq_rel, align 4
  br label %invoke.cont.i.i.i.i4399

invoke.cont.i.i.i.i4399:                          ; preds = %if.else.i.i.i.i.i4396, %if.then.i.i.i.i.i4395
  %retval.0.i.i.i.i.i4397 = phi i32 [ %237, %if.then.i.i.i.i.i4395 ], [ %241, %if.else.i.i.i.i.i4396 ]
  %cmp6.i.i.i.i4398 = icmp eq i32 %retval.0.i.i.i.i.i4397, 1
  br i1 %cmp6.i.i.i.i4398, label %if.then7.i.i.i.i4400, label %_ZNSt12__shared_ptrIN9benchmark5RegexELN9__gnu_cxx12_Lock_policyE2EED2Ev.exit.i4403, !prof !50

if.then7.i.i.i.i4400:                             ; preds = %invoke.cont.i.i.i.i4399
  call void @_ZNSt16_Sp_counted_baseILN9__gnu_cxx12_Lock_policyE2EE24_M_release_last_use_coldEv(ptr noundef nonnull align 8 dereferenceable(16) %235) #10
  br label %_ZNSt12__shared_ptrIN9benchmark5RegexELN9__gnu_cxx12_Lock_policyE2EED2Ev.exit.i4403

_ZNSt12__shared_ptrIN9benchmark5RegexELN9__gnu_cxx12_Lock_policyE2EED2Ev.exit.i4403: ; preds = %if.then7.i.i.i.i4400, %invoke.cont.i.i.i.i4399, %if.then.i.i.i.i4391, %_ZN8TestCaseD2Ev.exit4436
  %substituted_regex.i4401 = getelementptr inbounds %struct.TestCase, ptr %ref.tmp.i188, i64 11, i32 2
  %242 = load ptr, ptr %substituted_regex.i4401, align 8, !tbaa !43
  %243 = getelementptr inbounds %struct.TestCase, ptr %ref.tmp.i188, i64 11, i32 2, i32 2
  %cmp.i.i.i2.i4402 = icmp eq ptr %242, %243
  br i1 %cmp.i.i.i2.i4402, label %_ZNSt7__cxx1112basic_stringIcSt11char_traitsIcESaIcEED2Ev.exit.i4406, label %if.then.i.i3.i4404

if.then.i.i3.i4404:                               ; preds = %_ZNSt12__shared_ptrIN9benchmark5RegexELN9__gnu_cxx12_Lock_policyE2EED2Ev.exit.i4403
  call void @_ZdlPv(ptr noundef %242) #12
  br label %_ZNSt7__cxx1112basic_stringIcSt11char_traitsIcESaIcEED2Ev.exit.i4406

_ZNSt7__cxx1112basic_stringIcSt11char_traitsIcESaIcEED2Ev.exit.i4406: ; preds = %if.then.i.i3.i4404, %_ZNSt12__shared_ptrIN9benchmark5RegexELN9__gnu_cxx12_Lock_policyE2EED2Ev.exit.i4403
  %244 = load ptr, ptr %arrayinit.element74.i, align 8, !tbaa !43
  %245 = getelementptr inbounds %struct.TestCase, ptr %ref.tmp.i188, i64 11, i32 0, i32 2
  %cmp.i.i.i4.i4405 = icmp eq ptr %244, %245
  br i1 %cmp.i.i.i4.i4405, label %_ZN8TestCaseD2Ev.exit4408, label %if.then.i.i5.i4407

if.then.i.i5.i4407:                               ; preds = %_ZNSt7__cxx1112basic_stringIcSt11char_traitsIcESaIcEED2Ev.exit.i4406
  call void @_ZdlPv(ptr noundef %244) #12
  br label %_ZN8TestCaseD2Ev.exit4408

_ZN8TestCaseD2Ev.exit4408:                        ; preds = %_ZNSt7__cxx1112basic_stringIcSt11char_traitsIcESaIcEED2Ev.exit.i4406, %if.then.i.i5.i4407
  %_M_refcount.i.i4353 = getelementptr inbounds %struct.TestCase, ptr %ref.tmp.i188, i64 10, i32 3, i32 0, i32 1
  %246 = load ptr, ptr %_M_refcount.i.i4353, align 8, !tbaa !45
  %cmp.not.i.i.i4354 = icmp eq ptr %246, null
  br i1 %cmp.not.i.i.i4354, label %_ZNSt12__shared_ptrIN9benchmark5RegexELN9__gnu_cxx12_Lock_policyE2EED2Ev.exit.i4375, label %if.then.i.i.i4357

if.then.i.i.i4357:                                ; preds = %_ZN8TestCaseD2Ev.exit4408
  %_M_use_count.i.i.i.i4355 = getelementptr inbounds %"class.std::_Sp_counted_base", ptr %246, i64 0, i32 1
  %247 = load atomic i64, ptr %_M_use_count.i.i.i.i4355 acquire, align 8
  %cmp.i.i.i.i4356 = icmp eq i64 %247, 4294967297
  %248 = trunc i64 %247 to i32
  br i1 %cmp.i.i.i.i4356, label %if.then.i.i.i.i4363, label %if.end.i.i.i.i4365

if.then.i.i.i.i4363:                              ; preds = %if.then.i.i.i4357
  store i32 0, ptr %_M_use_count.i.i.i.i4355, align 8, !tbaa !47
  %_M_weak_count.i.i.i.i4358 = getelementptr inbounds %"class.std::_Sp_counted_base", ptr %246, i64 0, i32 2
  store i32 0, ptr %_M_weak_count.i.i.i.i4358, align 4, !tbaa !49
  %vtable.i.i.i.i4359 = load ptr, ptr %246, align 8, !tbaa !5
  %vfn.i.i.i.i4360 = getelementptr inbounds ptr, ptr %vtable.i.i.i.i4359, i64 2
  %249 = load ptr, ptr %vfn.i.i.i.i4360, align 8
  call void %249(ptr noundef nonnull align 8 dereferenceable(16) %246) #10
  %vtable3.i.i.i.i4361 = load ptr, ptr %246, align 8, !tbaa !5
  %vfn4.i.i.i.i4362 = getelementptr inbounds ptr, ptr %vtable3.i.i.i.i4361, i64 3
  %250 = load ptr, ptr %vfn4.i.i.i.i4362, align 8
  call void %250(ptr noundef nonnull align 8 dereferenceable(16) %246) #10
  br label %_ZNSt12__shared_ptrIN9benchmark5RegexELN9__gnu_cxx12_Lock_policyE2EED2Ev.exit.i4375

if.end.i.i.i.i4365:                               ; preds = %if.then.i.i.i4357
  %251 = load i8, ptr @__libc_single_threaded, align 1, !tbaa !8
  %tobool.i.not.i.i.i.i.i4364 = icmp eq i8 %251, 0
  br i1 %tobool.i.not.i.i.i.i.i4364, label %if.else.i.i.i.i.i4368, label %if.then.i.i.i.i.i4367

if.then.i.i.i.i.i4367:                            ; preds = %if.end.i.i.i.i4365
  %add.i.i.i.i.i.i4366 = add nsw i32 %248, -1
  store i32 %add.i.i.i.i.i.i4366, ptr %_M_use_count.i.i.i.i4355, align 8, !tbaa !10
  br label %invoke.cont.i.i.i.i4371

if.else.i.i.i.i.i4368:                            ; preds = %if.end.i.i.i.i4365
  %252 = atomicrmw volatile add ptr %_M_use_count.i.i.i.i4355, i32 -1 acq_rel, align 4
  br label %invoke.cont.i.i.i.i4371

invoke.cont.i.i.i.i4371:                          ; preds = %if.else.i.i.i.i.i4368, %if.then.i.i.i.i.i4367
  %retval.0.i.i.i.i.i4369 = phi i32 [ %248, %if.then.i.i.i.i.i4367 ], [ %252, %if.else.i.i.i.i.i4368 ]
  %cmp6.i.i.i.i4370 = icmp eq i32 %retval.0.i.i.i.i.i4369, 1
  br i1 %cmp6.i.i.i.i4370, label %if.then7.i.i.i.i4372, label %_ZNSt12__shared_ptrIN9benchmark5RegexELN9__gnu_cxx12_Lock_policyE2EED2Ev.exit.i4375, !prof !50

if.then7.i.i.i.i4372:                             ; preds = %invoke.cont.i.i.i.i4371
  call void @_ZNSt16_Sp_counted_baseILN9__gnu_cxx12_Lock_policyE2EE24_M_release_last_use_coldEv(ptr noundef nonnull align 8 dereferenceable(16) %246) #10
  br label %_ZNSt12__shared_ptrIN9benchmark5RegexELN9__gnu_cxx12_Lock_policyE2EED2Ev.exit.i4375

_ZNSt12__shared_ptrIN9benchmark5RegexELN9__gnu_cxx12_Lock_policyE2EED2Ev.exit.i4375: ; preds = %if.then7.i.i.i.i4372, %invoke.cont.i.i.i.i4371, %if.then.i.i.i.i4363, %_ZN8TestCaseD2Ev.exit4408
  %substituted_regex.i4373 = getelementptr inbounds %struct.TestCase, ptr %ref.tmp.i188, i64 10, i32 2
  %253 = load ptr, ptr %substituted_regex.i4373, align 8, !tbaa !43
  %254 = getelementptr inbounds %struct.TestCase, ptr %ref.tmp.i188, i64 10, i32 2, i32 2
  %cmp.i.i.i2.i4374 = icmp eq ptr %253, %254
  br i1 %cmp.i.i.i2.i4374, label %_ZNSt7__cxx1112basic_stringIcSt11char_traitsIcESaIcEED2Ev.exit.i4378, label %if.then.i.i3.i4376

if.then.i.i3.i4376:                               ; preds = %_ZNSt12__shared_ptrIN9benchmark5RegexELN9__gnu_cxx12_Lock_policyE2EED2Ev.exit.i4375
  call void @_ZdlPv(ptr noundef %253) #12
  br label %_ZNSt7__cxx1112basic_stringIcSt11char_traitsIcESaIcEED2Ev.exit.i4378

_ZNSt7__cxx1112basic_stringIcSt11char_traitsIcESaIcEED2Ev.exit.i4378: ; preds = %if.then.i.i3.i4376, %_ZNSt12__shared_ptrIN9benchmark5RegexELN9__gnu_cxx12_Lock_policyE2EED2Ev.exit.i4375
  %255 = load ptr, ptr %arrayinit.element67.i, align 8, !tbaa !43
  %256 = getelementptr inbounds %struct.TestCase, ptr %ref.tmp.i188, i64 10, i32 0, i32 2
  %cmp.i.i.i4.i4377 = icmp eq ptr %255, %256
  br i1 %cmp.i.i.i4.i4377, label %_ZN8TestCaseD2Ev.exit4380, label %if.then.i.i5.i4379

if.then.i.i5.i4379:                               ; preds = %_ZNSt7__cxx1112basic_stringIcSt11char_traitsIcESaIcEED2Ev.exit.i4378
  call void @_ZdlPv(ptr noundef %255) #12
  br label %_ZN8TestCaseD2Ev.exit4380

_ZN8TestCaseD2Ev.exit4380:                        ; preds = %_ZNSt7__cxx1112basic_stringIcSt11char_traitsIcESaIcEED2Ev.exit.i4378, %if.then.i.i5.i4379
  %_M_refcount.i.i4325 = getelementptr inbounds %struct.TestCase, ptr %ref.tmp.i188, i64 9, i32 3, i32 0, i32 1
  %257 = load ptr, ptr %_M_refcount.i.i4325, align 8, !tbaa !45
  %cmp.not.i.i.i4326 = icmp eq ptr %257, null
  br i1 %cmp.not.i.i.i4326, label %_ZNSt12__shared_ptrIN9benchmark5RegexELN9__gnu_cxx12_Lock_policyE2EED2Ev.exit.i4347, label %if.then.i.i.i4329

if.then.i.i.i4329:                                ; preds = %_ZN8TestCaseD2Ev.exit4380
  %_M_use_count.i.i.i.i4327 = getelementptr inbounds %"class.std::_Sp_counted_base", ptr %257, i64 0, i32 1
  %258 = load atomic i64, ptr %_M_use_count.i.i.i.i4327 acquire, align 8
  %cmp.i.i.i.i4328 = icmp eq i64 %258, 4294967297
  %259 = trunc i64 %258 to i32
  br i1 %cmp.i.i.i.i4328, label %if.then.i.i.i.i4335, label %if.end.i.i.i.i4337

if.then.i.i.i.i4335:                              ; preds = %if.then.i.i.i4329
  store i32 0, ptr %_M_use_count.i.i.i.i4327, align 8, !tbaa !47
  %_M_weak_count.i.i.i.i4330 = getelementptr inbounds %"class.std::_Sp_counted_base", ptr %257, i64 0, i32 2
  store i32 0, ptr %_M_weak_count.i.i.i.i4330, align 4, !tbaa !49
  %vtable.i.i.i.i4331 = load ptr, ptr %257, align 8, !tbaa !5
  %vfn.i.i.i.i4332 = getelementptr inbounds ptr, ptr %vtable.i.i.i.i4331, i64 2
  %260 = load ptr, ptr %vfn.i.i.i.i4332, align 8
  call void %260(ptr noundef nonnull align 8 dereferenceable(16) %257) #10
  %vtable3.i.i.i.i4333 = load ptr, ptr %257, align 8, !tbaa !5
  %vfn4.i.i.i.i4334 = getelementptr inbounds ptr, ptr %vtable3.i.i.i.i4333, i64 3
  %261 = load ptr, ptr %vfn4.i.i.i.i4334, align 8
  call void %261(ptr noundef nonnull align 8 dereferenceable(16) %257) #10
  br label %_ZNSt12__shared_ptrIN9benchmark5RegexELN9__gnu_cxx12_Lock_policyE2EED2Ev.exit.i4347

if.end.i.i.i.i4337:                               ; preds = %if.then.i.i.i4329
  %262 = load i8, ptr @__libc_single_threaded, align 1, !tbaa !8
  %tobool.i.not.i.i.i.i.i4336 = icmp eq i8 %262, 0
  br i1 %tobool.i.not.i.i.i.i.i4336, label %if.else.i.i.i.i.i4340, label %if.then.i.i.i.i.i4339

if.then.i.i.i.i.i4339:                            ; preds = %if.end.i.i.i.i4337
  %add.i.i.i.i.i.i4338 = add nsw i32 %259, -1
  store i32 %add.i.i.i.i.i.i4338, ptr %_M_use_count.i.i.i.i4327, align 8, !tbaa !10
  br label %invoke.cont.i.i.i.i4343

if.else.i.i.i.i.i4340:                            ; preds = %if.end.i.i.i.i4337
  %263 = atomicrmw volatile add ptr %_M_use_count.i.i.i.i4327, i32 -1 acq_rel, align 4
  br label %invoke.cont.i.i.i.i4343

invoke.cont.i.i.i.i4343:                          ; preds = %if.else.i.i.i.i.i4340, %if.then.i.i.i.i.i4339
  %retval.0.i.i.i.i.i4341 = phi i32 [ %259, %if.then.i.i.i.i.i4339 ], [ %263, %if.else.i.i.i.i.i4340 ]
  %cmp6.i.i.i.i4342 = icmp eq i32 %retval.0.i.i.i.i.i4341, 1
  br i1 %cmp6.i.i.i.i4342, label %if.then7.i.i.i.i4344, label %_ZNSt12__shared_ptrIN9benchmark5RegexELN9__gnu_cxx12_Lock_policyE2EED2Ev.exit.i4347, !prof !50

if.then7.i.i.i.i4344:                             ; preds = %invoke.cont.i.i.i.i4343
  call void @_ZNSt16_Sp_counted_baseILN9__gnu_cxx12_Lock_policyE2EE24_M_release_last_use_coldEv(ptr noundef nonnull align 8 dereferenceable(16) %257) #10
  br label %_ZNSt12__shared_ptrIN9benchmark5RegexELN9__gnu_cxx12_Lock_policyE2EED2Ev.exit.i4347

_ZNSt12__shared_ptrIN9benchmark5RegexELN9__gnu_cxx12_Lock_policyE2EED2Ev.exit.i4347: ; preds = %if.then7.i.i.i.i4344, %invoke.cont.i.i.i.i4343, %if.then.i.i.i.i4335, %_ZN8TestCaseD2Ev.exit4380
  %substituted_regex.i4345 = getelementptr inbounds %struct.TestCase, ptr %ref.tmp.i188, i64 9, i32 2
  %264 = load ptr, ptr %substituted_regex.i4345, align 8, !tbaa !43
  %265 = getelementptr inbounds %struct.TestCase, ptr %ref.tmp.i188, i64 9, i32 2, i32 2
  %cmp.i.i.i2.i4346 = icmp eq ptr %264, %265
  br i1 %cmp.i.i.i2.i4346, label %_ZNSt7__cxx1112basic_stringIcSt11char_traitsIcESaIcEED2Ev.exit.i4350, label %if.then.i.i3.i4348

if.then.i.i3.i4348:                               ; preds = %_ZNSt12__shared_ptrIN9benchmark5RegexELN9__gnu_cxx12_Lock_policyE2EED2Ev.exit.i4347
  call void @_ZdlPv(ptr noundef %264) #12
  br label %_ZNSt7__cxx1112basic_stringIcSt11char_traitsIcESaIcEED2Ev.exit.i4350

_ZNSt7__cxx1112basic_stringIcSt11char_traitsIcESaIcEED2Ev.exit.i4350: ; preds = %if.then.i.i3.i4348, %_ZNSt12__shared_ptrIN9benchmark5RegexELN9__gnu_cxx12_Lock_policyE2EED2Ev.exit.i4347
  %266 = load ptr, ptr %arrayinit.element60.i, align 8, !tbaa !43
  %267 = getelementptr inbounds %struct.TestCase, ptr %ref.tmp.i188, i64 9, i32 0, i32 2
  %cmp.i.i.i4.i4349 = icmp eq ptr %266, %267
  br i1 %cmp.i.i.i4.i4349, label %_ZN8TestCaseD2Ev.exit4352, label %if.then.i.i5.i4351

if.then.i.i5.i4351:                               ; preds = %_ZNSt7__cxx1112basic_stringIcSt11char_traitsIcESaIcEED2Ev.exit.i4350
  call void @_ZdlPv(ptr noundef %266) #12
  br label %_ZN8TestCaseD2Ev.exit4352

_ZN8TestCaseD2Ev.exit4352:                        ; preds = %_ZNSt7__cxx1112basic_stringIcSt11char_traitsIcESaIcEED2Ev.exit.i4350, %if.then.i.i5.i4351
  %_M_refcount.i.i4297 = getelementptr inbounds %struct.TestCase, ptr %ref.tmp.i188, i64 8, i32 3, i32 0, i32 1
  %268 = load ptr, ptr %_M_refcount.i.i4297, align 8, !tbaa !45
  %cmp.not.i.i.i4298 = icmp eq ptr %268, null
  br i1 %cmp.not.i.i.i4298, label %_ZNSt12__shared_ptrIN9benchmark5RegexELN9__gnu_cxx12_Lock_policyE2EED2Ev.exit.i4319, label %if.then.i.i.i4301

if.then.i.i.i4301:                                ; preds = %_ZN8TestCaseD2Ev.exit4352
  %_M_use_count.i.i.i.i4299 = getelementptr inbounds %"class.std::_Sp_counted_base", ptr %268, i64 0, i32 1
  %269 = load atomic i64, ptr %_M_use_count.i.i.i.i4299 acquire, align 8
  %cmp.i.i.i.i4300 = icmp eq i64 %269, 4294967297
  %270 = trunc i64 %269 to i32
  br i1 %cmp.i.i.i.i4300, label %if.then.i.i.i.i4307, label %if.end.i.i.i.i4309

if.then.i.i.i.i4307:                              ; preds = %if.then.i.i.i4301
  store i32 0, ptr %_M_use_count.i.i.i.i4299, align 8, !tbaa !47
  %_M_weak_count.i.i.i.i4302 = getelementptr inbounds %"class.std::_Sp_counted_base", ptr %268, i64 0, i32 2
  store i32 0, ptr %_M_weak_count.i.i.i.i4302, align 4, !tbaa !49
  %vtable.i.i.i.i4303 = load ptr, ptr %268, align 8, !tbaa !5
  %vfn.i.i.i.i4304 = getelementptr inbounds ptr, ptr %vtable.i.i.i.i4303, i64 2
  %271 = load ptr, ptr %vfn.i.i.i.i4304, align 8
  call void %271(ptr noundef nonnull align 8 dereferenceable(16) %268) #10
  %vtable3.i.i.i.i4305 = load ptr, ptr %268, align 8, !tbaa !5
  %vfn4.i.i.i.i4306 = getelementptr inbounds ptr, ptr %vtable3.i.i.i.i4305, i64 3
  %272 = load ptr, ptr %vfn4.i.i.i.i4306, align 8
  call void %272(ptr noundef nonnull align 8 dereferenceable(16) %268) #10
  br label %_ZNSt12__shared_ptrIN9benchmark5RegexELN9__gnu_cxx12_Lock_policyE2EED2Ev.exit.i4319

if.end.i.i.i.i4309:                               ; preds = %if.then.i.i.i4301
  %273 = load i8, ptr @__libc_single_threaded, align 1, !tbaa !8
  %tobool.i.not.i.i.i.i.i4308 = icmp eq i8 %273, 0
  br i1 %tobool.i.not.i.i.i.i.i4308, label %if.else.i.i.i.i.i4312, label %if.then.i.i.i.i.i4311

if.then.i.i.i.i.i4311:                            ; preds = %if.end.i.i.i.i4309
  %add.i.i.i.i.i.i4310 = add nsw i32 %270, -1
  store i32 %add.i.i.i.i.i.i4310, ptr %_M_use_count.i.i.i.i4299, align 8, !tbaa !10
  br label %invoke.cont.i.i.i.i4315

if.else.i.i.i.i.i4312:                            ; preds = %if.end.i.i.i.i4309
  %274 = atomicrmw volatile add ptr %_M_use_count.i.i.i.i4299, i32 -1 acq_rel, align 4
  br label %invoke.cont.i.i.i.i4315

invoke.cont.i.i.i.i4315:                          ; preds = %if.else.i.i.i.i.i4312, %if.then.i.i.i.i.i4311
  %retval.0.i.i.i.i.i4313 = phi i32 [ %270, %if.then.i.i.i.i.i4311 ], [ %274, %if.else.i.i.i.i.i4312 ]
  %cmp6.i.i.i.i4314 = icmp eq i32 %retval.0.i.i.i.i.i4313, 1
  br i1 %cmp6.i.i.i.i4314, label %if.then7.i.i.i.i4316, label %_ZNSt12__shared_ptrIN9benchmark5RegexELN9__gnu_cxx12_Lock_policyE2EED2Ev.exit.i4319, !prof !50

if.then7.i.i.i.i4316:                             ; preds = %invoke.cont.i.i.i.i4315
  call void @_ZNSt16_Sp_counted_baseILN9__gnu_cxx12_Lock_policyE2EE24_M_release_last_use_coldEv(ptr noundef nonnull align 8 dereferenceable(16) %268) #10
  br label %_ZNSt12__shared_ptrIN9benchmark5RegexELN9__gnu_cxx12_Lock_policyE2EED2Ev.exit.i4319

_ZNSt12__shared_ptrIN9benchmark5RegexELN9__gnu_cxx12_Lock_policyE2EED2Ev.exit.i4319: ; preds = %if.then7.i.i.i.i4316, %invoke.cont.i.i.i.i4315, %if.then.i.i.i.i4307, %_ZN8TestCaseD2Ev.exit4352
  %substituted_regex.i4317 = getelementptr inbounds %struct.TestCase, ptr %ref.tmp.i188, i64 8, i32 2
  %275 = load ptr, ptr %substituted_regex.i4317, align 8, !tbaa !43
  %276 = getelementptr inbounds %struct.TestCase, ptr %ref.tmp.i188, i64 8, i32 2, i32 2
  %cmp.i.i.i2.i4318 = icmp eq ptr %275, %276
  br i1 %cmp.i.i.i2.i4318, label %_ZNSt7__cxx1112basic_stringIcSt11char_traitsIcESaIcEED2Ev.exit.i4322, label %if.then.i.i3.i4320

if.then.i.i3.i4320:                               ; preds = %_ZNSt12__shared_ptrIN9benchmark5RegexELN9__gnu_cxx12_Lock_policyE2EED2Ev.exit.i4319
  call void @_ZdlPv(ptr noundef %275) #12
  br label %_ZNSt7__cxx1112basic_stringIcSt11char_traitsIcESaIcEED2Ev.exit.i4322

_ZNSt7__cxx1112basic_stringIcSt11char_traitsIcESaIcEED2Ev.exit.i4322: ; preds = %if.then.i.i3.i4320, %_ZNSt12__shared_ptrIN9benchmark5RegexELN9__gnu_cxx12_Lock_policyE2EED2Ev.exit.i4319
  %277 = load ptr, ptr %arrayinit.element53.i, align 8, !tbaa !43
  %278 = getelementptr inbounds %struct.TestCase, ptr %ref.tmp.i188, i64 8, i32 0, i32 2
  %cmp.i.i.i4.i4321 = icmp eq ptr %277, %278
  br i1 %cmp.i.i.i4.i4321, label %_ZN8TestCaseD2Ev.exit4324, label %if.then.i.i5.i4323

if.then.i.i5.i4323:                               ; preds = %_ZNSt7__cxx1112basic_stringIcSt11char_traitsIcESaIcEED2Ev.exit.i4322
  call void @_ZdlPv(ptr noundef %277) #12
  br label %_ZN8TestCaseD2Ev.exit4324

_ZN8TestCaseD2Ev.exit4324:                        ; preds = %_ZNSt7__cxx1112basic_stringIcSt11char_traitsIcESaIcEED2Ev.exit.i4322, %if.then.i.i5.i4323
  %_M_refcount.i.i4269 = getelementptr inbounds %struct.TestCase, ptr %ref.tmp.i188, i64 7, i32 3, i32 0, i32 1
  %279 = load ptr, ptr %_M_refcount.i.i4269, align 8, !tbaa !45
  %cmp.not.i.i.i4270 = icmp eq ptr %279, null
  br i1 %cmp.not.i.i.i4270, label %_ZNSt12__shared_ptrIN9benchmark5RegexELN9__gnu_cxx12_Lock_policyE2EED2Ev.exit.i4291, label %if.then.i.i.i4273

if.then.i.i.i4273:                                ; preds = %_ZN8TestCaseD2Ev.exit4324
  %_M_use_count.i.i.i.i4271 = getelementptr inbounds %"class.std::_Sp_counted_base", ptr %279, i64 0, i32 1
  %280 = load atomic i64, ptr %_M_use_count.i.i.i.i4271 acquire, align 8
  %cmp.i.i.i.i4272 = icmp eq i64 %280, 4294967297
  %281 = trunc i64 %280 to i32
  br i1 %cmp.i.i.i.i4272, label %if.then.i.i.i.i4279, label %if.end.i.i.i.i4281

if.then.i.i.i.i4279:                              ; preds = %if.then.i.i.i4273
  store i32 0, ptr %_M_use_count.i.i.i.i4271, align 8, !tbaa !47
  %_M_weak_count.i.i.i.i4274 = getelementptr inbounds %"class.std::_Sp_counted_base", ptr %279, i64 0, i32 2
  store i32 0, ptr %_M_weak_count.i.i.i.i4274, align 4, !tbaa !49
  %vtable.i.i.i.i4275 = load ptr, ptr %279, align 8, !tbaa !5
  %vfn.i.i.i.i4276 = getelementptr inbounds ptr, ptr %vtable.i.i.i.i4275, i64 2
  %282 = load ptr, ptr %vfn.i.i.i.i4276, align 8
  call void %282(ptr noundef nonnull align 8 dereferenceable(16) %279) #10
  %vtable3.i.i.i.i4277 = load ptr, ptr %279, align 8, !tbaa !5
  %vfn4.i.i.i.i4278 = getelementptr inbounds ptr, ptr %vtable3.i.i.i.i4277, i64 3
  %283 = load ptr, ptr %vfn4.i.i.i.i4278, align 8
  call void %283(ptr noundef nonnull align 8 dereferenceable(16) %279) #10
  br label %_ZNSt12__shared_ptrIN9benchmark5RegexELN9__gnu_cxx12_Lock_policyE2EED2Ev.exit.i4291

if.end.i.i.i.i4281:                               ; preds = %if.then.i.i.i4273
  %284 = load i8, ptr @__libc_single_threaded, align 1, !tbaa !8
  %tobool.i.not.i.i.i.i.i4280 = icmp eq i8 %284, 0
  br i1 %tobool.i.not.i.i.i.i.i4280, label %if.else.i.i.i.i.i4284, label %if.then.i.i.i.i.i4283

if.then.i.i.i.i.i4283:                            ; preds = %if.end.i.i.i.i4281
  %add.i.i.i.i.i.i4282 = add nsw i32 %281, -1
  store i32 %add.i.i.i.i.i.i4282, ptr %_M_use_count.i.i.i.i4271, align 8, !tbaa !10
  br label %invoke.cont.i.i.i.i4287

if.else.i.i.i.i.i4284:                            ; preds = %if.end.i.i.i.i4281
  %285 = atomicrmw volatile add ptr %_M_use_count.i.i.i.i4271, i32 -1 acq_rel, align 4
  br label %invoke.cont.i.i.i.i4287

invoke.cont.i.i.i.i4287:                          ; preds = %if.else.i.i.i.i.i4284, %if.then.i.i.i.i.i4283
  %retval.0.i.i.i.i.i4285 = phi i32 [ %281, %if.then.i.i.i.i.i4283 ], [ %285, %if.else.i.i.i.i.i4284 ]
  %cmp6.i.i.i.i4286 = icmp eq i32 %retval.0.i.i.i.i.i4285, 1
  br i1 %cmp6.i.i.i.i4286, label %if.then7.i.i.i.i4288, label %_ZNSt12__shared_ptrIN9benchmark5RegexELN9__gnu_cxx12_Lock_policyE2EED2Ev.exit.i4291, !prof !50

if.then7.i.i.i.i4288:                             ; preds = %invoke.cont.i.i.i.i4287
  call void @_ZNSt16_Sp_counted_baseILN9__gnu_cxx12_Lock_policyE2EE24_M_release_last_use_coldEv(ptr noundef nonnull align 8 dereferenceable(16) %279) #10
  br label %_ZNSt12__shared_ptrIN9benchmark5RegexELN9__gnu_cxx12_Lock_policyE2EED2Ev.exit.i4291

_ZNSt12__shared_ptrIN9benchmark5RegexELN9__gnu_cxx12_Lock_policyE2EED2Ev.exit.i4291: ; preds = %if.then7.i.i.i.i4288, %invoke.cont.i.i.i.i4287, %if.then.i.i.i.i4279, %_ZN8TestCaseD2Ev.exit4324
  %substituted_regex.i4289 = getelementptr inbounds %struct.TestCase, ptr %ref.tmp.i188, i64 7, i32 2
  %286 = load ptr, ptr %substituted_regex.i4289, align 8, !tbaa !43
  %287 = getelementptr inbounds %struct.TestCase, ptr %ref.tmp.i188, i64 7, i32 2, i32 2
  %cmp.i.i.i2.i4290 = icmp eq ptr %286, %287
  br i1 %cmp.i.i.i2.i4290, label %_ZNSt7__cxx1112basic_stringIcSt11char_traitsIcESaIcEED2Ev.exit.i4294, label %if.then.i.i3.i4292

if.then.i.i3.i4292:                               ; preds = %_ZNSt12__shared_ptrIN9benchmark5RegexELN9__gnu_cxx12_Lock_policyE2EED2Ev.exit.i4291
  call void @_ZdlPv(ptr noundef %286) #12
  br label %_ZNSt7__cxx1112basic_stringIcSt11char_traitsIcESaIcEED2Ev.exit.i4294

_ZNSt7__cxx1112basic_stringIcSt11char_traitsIcESaIcEED2Ev.exit.i4294: ; preds = %if.then.i.i3.i4292, %_ZNSt12__shared_ptrIN9benchmark5RegexELN9__gnu_cxx12_Lock_policyE2EED2Ev.exit.i4291
  %288 = load ptr, ptr %arrayinit.element46.i, align 8, !tbaa !43
  %289 = getelementptr inbounds %struct.TestCase, ptr %ref.tmp.i188, i64 7, i32 0, i32 2
  %cmp.i.i.i4.i4293 = icmp eq ptr %288, %289
  br i1 %cmp.i.i.i4.i4293, label %_ZN8TestCaseD2Ev.exit4296, label %if.then.i.i5.i4295

if.then.i.i5.i4295:                               ; preds = %_ZNSt7__cxx1112basic_stringIcSt11char_traitsIcESaIcEED2Ev.exit.i4294
  call void @_ZdlPv(ptr noundef %288) #12
  br label %_ZN8TestCaseD2Ev.exit4296

_ZN8TestCaseD2Ev.exit4296:                        ; preds = %_ZNSt7__cxx1112basic_stringIcSt11char_traitsIcESaIcEED2Ev.exit.i4294, %if.then.i.i5.i4295
  %_M_refcount.i.i4241 = getelementptr inbounds %struct.TestCase, ptr %ref.tmp.i188, i64 6, i32 3, i32 0, i32 1
  %290 = load ptr, ptr %_M_refcount.i.i4241, align 8, !tbaa !45
  %cmp.not.i.i.i4242 = icmp eq ptr %290, null
  br i1 %cmp.not.i.i.i4242, label %_ZNSt12__shared_ptrIN9benchmark5RegexELN9__gnu_cxx12_Lock_policyE2EED2Ev.exit.i4263, label %if.then.i.i.i4245

if.then.i.i.i4245:                                ; preds = %_ZN8TestCaseD2Ev.exit4296
  %_M_use_count.i.i.i.i4243 = getelementptr inbounds %"class.std::_Sp_counted_base", ptr %290, i64 0, i32 1
  %291 = load atomic i64, ptr %_M_use_count.i.i.i.i4243 acquire, align 8
  %cmp.i.i.i.i4244 = icmp eq i64 %291, 4294967297
  %292 = trunc i64 %291 to i32
  br i1 %cmp.i.i.i.i4244, label %if.then.i.i.i.i4251, label %if.end.i.i.i.i4253

if.then.i.i.i.i4251:                              ; preds = %if.then.i.i.i4245
  store i32 0, ptr %_M_use_count.i.i.i.i4243, align 8, !tbaa !47
  %_M_weak_count.i.i.i.i4246 = getelementptr inbounds %"class.std::_Sp_counted_base", ptr %290, i64 0, i32 2
  store i32 0, ptr %_M_weak_count.i.i.i.i4246, align 4, !tbaa !49
  %vtable.i.i.i.i4247 = load ptr, ptr %290, align 8, !tbaa !5
  %vfn.i.i.i.i4248 = getelementptr inbounds ptr, ptr %vtable.i.i.i.i4247, i64 2
  %293 = load ptr, ptr %vfn.i.i.i.i4248, align 8
  call void %293(ptr noundef nonnull align 8 dereferenceable(16) %290) #10
  %vtable3.i.i.i.i4249 = load ptr, ptr %290, align 8, !tbaa !5
  %vfn4.i.i.i.i4250 = getelementptr inbounds ptr, ptr %vtable3.i.i.i.i4249, i64 3
  %294 = load ptr, ptr %vfn4.i.i.i.i4250, align 8
  call void %294(ptr noundef nonnull align 8 dereferenceable(16) %290) #10
  br label %_ZNSt12__shared_ptrIN9benchmark5RegexELN9__gnu_cxx12_Lock_policyE2EED2Ev.exit.i4263

if.end.i.i.i.i4253:                               ; preds = %if.then.i.i.i4245
  %295 = load i8, ptr @__libc_single_threaded, align 1, !tbaa !8
  %tobool.i.not.i.i.i.i.i4252 = icmp eq i8 %295, 0
  br i1 %tobool.i.not.i.i.i.i.i4252, label %if.else.i.i.i.i.i4256, label %if.then.i.i.i.i.i4255

if.then.i.i.i.i.i4255:                            ; preds = %if.end.i.i.i.i4253
  %add.i.i.i.i.i.i4254 = add nsw i32 %292, -1
  store i32 %add.i.i.i.i.i.i4254, ptr %_M_use_count.i.i.i.i4243, align 8, !tbaa !10
  br label %invoke.cont.i.i.i.i4259

if.else.i.i.i.i.i4256:                            ; preds = %if.end.i.i.i.i4253
  %296 = atomicrmw volatile add ptr %_M_use_count.i.i.i.i4243, i32 -1 acq_rel, align 4
  br label %invoke.cont.i.i.i.i4259

invoke.cont.i.i.i.i4259:                          ; preds = %if.else.i.i.i.i.i4256, %if.then.i.i.i.i.i4255
  %retval.0.i.i.i.i.i4257 = phi i32 [ %292, %if.then.i.i.i.i.i4255 ], [ %296, %if.else.i.i.i.i.i4256 ]
  %cmp6.i.i.i.i4258 = icmp eq i32 %retval.0.i.i.i.i.i4257, 1
  br i1 %cmp6.i.i.i.i4258, label %if.then7.i.i.i.i4260, label %_ZNSt12__shared_ptrIN9benchmark5RegexELN9__gnu_cxx12_Lock_policyE2EED2Ev.exit.i4263, !prof !50

if.then7.i.i.i.i4260:                             ; preds = %invoke.cont.i.i.i.i4259
  call void @_ZNSt16_Sp_counted_baseILN9__gnu_cxx12_Lock_policyE2EE24_M_release_last_use_coldEv(ptr noundef nonnull align 8 dereferenceable(16) %290) #10
  br label %_ZNSt12__shared_ptrIN9benchmark5RegexELN9__gnu_cxx12_Lock_policyE2EED2Ev.exit.i4263

_ZNSt12__shared_ptrIN9benchmark5RegexELN9__gnu_cxx12_Lock_policyE2EED2Ev.exit.i4263: ; preds = %if.then7.i.i.i.i4260, %invoke.cont.i.i.i.i4259, %if.then.i.i.i.i4251, %_ZN8TestCaseD2Ev.exit4296
  %substituted_regex.i4261 = getelementptr inbounds %struct.TestCase, ptr %ref.tmp.i188, i64 6, i32 2
  %297 = load ptr, ptr %substituted_regex.i4261, align 8, !tbaa !43
  %298 = getelementptr inbounds %struct.TestCase, ptr %ref.tmp.i188, i64 6, i32 2, i32 2
  %cmp.i.i.i2.i4262 = icmp eq ptr %297, %298
  br i1 %cmp.i.i.i2.i4262, label %_ZNSt7__cxx1112basic_stringIcSt11char_traitsIcESaIcEED2Ev.exit.i4266, label %if.then.i.i3.i4264

if.then.i.i3.i4264:                               ; preds = %_ZNSt12__shared_ptrIN9benchmark5RegexELN9__gnu_cxx12_Lock_policyE2EED2Ev.exit.i4263
  call void @_ZdlPv(ptr noundef %297) #12
  br label %_ZNSt7__cxx1112basic_stringIcSt11char_traitsIcESaIcEED2Ev.exit.i4266

_ZNSt7__cxx1112basic_stringIcSt11char_traitsIcESaIcEED2Ev.exit.i4266: ; preds = %if.then.i.i3.i4264, %_ZNSt12__shared_ptrIN9benchmark5RegexELN9__gnu_cxx12_Lock_policyE2EED2Ev.exit.i4263
  %299 = load ptr, ptr %arrayinit.element39.i, align 8, !tbaa !43
  %300 = getelementptr inbounds %struct.TestCase, ptr %ref.tmp.i188, i64 6, i32 0, i32 2
  %cmp.i.i.i4.i4265 = icmp eq ptr %299, %300
  br i1 %cmp.i.i.i4.i4265, label %_ZN8TestCaseD2Ev.exit4268, label %if.then.i.i5.i4267

if.then.i.i5.i4267:                               ; preds = %_ZNSt7__cxx1112basic_stringIcSt11char_traitsIcESaIcEED2Ev.exit.i4266
  call void @_ZdlPv(ptr noundef %299) #12
  br label %_ZN8TestCaseD2Ev.exit4268

_ZN8TestCaseD2Ev.exit4268:                        ; preds = %_ZNSt7__cxx1112basic_stringIcSt11char_traitsIcESaIcEED2Ev.exit.i4266, %if.then.i.i5.i4267
  %_M_refcount.i.i4213 = getelementptr inbounds %struct.TestCase, ptr %ref.tmp.i188, i64 5, i32 3, i32 0, i32 1
  %301 = load ptr, ptr %_M_refcount.i.i4213, align 8, !tbaa !45
  %cmp.not.i.i.i4214 = icmp eq ptr %301, null
  br i1 %cmp.not.i.i.i4214, label %_ZNSt12__shared_ptrIN9benchmark5RegexELN9__gnu_cxx12_Lock_policyE2EED2Ev.exit.i4235, label %if.then.i.i.i4217

if.then.i.i.i4217:                                ; preds = %_ZN8TestCaseD2Ev.exit4268
  %_M_use_count.i.i.i.i4215 = getelementptr inbounds %"class.std::_Sp_counted_base", ptr %301, i64 0, i32 1
  %302 = load atomic i64, ptr %_M_use_count.i.i.i.i4215 acquire, align 8
  %cmp.i.i.i.i4216 = icmp eq i64 %302, 4294967297
  %303 = trunc i64 %302 to i32
  br i1 %cmp.i.i.i.i4216, label %if.then.i.i.i.i4223, label %if.end.i.i.i.i4225

if.then.i.i.i.i4223:                              ; preds = %if.then.i.i.i4217
  store i32 0, ptr %_M_use_count.i.i.i.i4215, align 8, !tbaa !47
  %_M_weak_count.i.i.i.i4218 = getelementptr inbounds %"class.std::_Sp_counted_base", ptr %301, i64 0, i32 2
  store i32 0, ptr %_M_weak_count.i.i.i.i4218, align 4, !tbaa !49
  %vtable.i.i.i.i4219 = load ptr, ptr %301, align 8, !tbaa !5
  %vfn.i.i.i.i4220 = getelementptr inbounds ptr, ptr %vtable.i.i.i.i4219, i64 2
  %304 = load ptr, ptr %vfn.i.i.i.i4220, align 8
  call void %304(ptr noundef nonnull align 8 dereferenceable(16) %301) #10
  %vtable3.i.i.i.i4221 = load ptr, ptr %301, align 8, !tbaa !5
  %vfn4.i.i.i.i4222 = getelementptr inbounds ptr, ptr %vtable3.i.i.i.i4221, i64 3
  %305 = load ptr, ptr %vfn4.i.i.i.i4222, align 8
  call void %305(ptr noundef nonnull align 8 dereferenceable(16) %301) #10
  br label %_ZNSt12__shared_ptrIN9benchmark5RegexELN9__gnu_cxx12_Lock_policyE2EED2Ev.exit.i4235

if.end.i.i.i.i4225:                               ; preds = %if.then.i.i.i4217
  %306 = load i8, ptr @__libc_single_threaded, align 1, !tbaa !8
  %tobool.i.not.i.i.i.i.i4224 = icmp eq i8 %306, 0
  br i1 %tobool.i.not.i.i.i.i.i4224, label %if.else.i.i.i.i.i4228, label %if.then.i.i.i.i.i4227

if.then.i.i.i.i.i4227:                            ; preds = %if.end.i.i.i.i4225
  %add.i.i.i.i.i.i4226 = add nsw i32 %303, -1
  store i32 %add.i.i.i.i.i.i4226, ptr %_M_use_count.i.i.i.i4215, align 8, !tbaa !10
  br label %invoke.cont.i.i.i.i4231

if.else.i.i.i.i.i4228:                            ; preds = %if.end.i.i.i.i4225
  %307 = atomicrmw volatile add ptr %_M_use_count.i.i.i.i4215, i32 -1 acq_rel, align 4
  br label %invoke.cont.i.i.i.i4231

invoke.cont.i.i.i.i4231:                          ; preds = %if.else.i.i.i.i.i4228, %if.then.i.i.i.i.i4227
  %retval.0.i.i.i.i.i4229 = phi i32 [ %303, %if.then.i.i.i.i.i4227 ], [ %307, %if.else.i.i.i.i.i4228 ]
  %cmp6.i.i.i.i4230 = icmp eq i32 %retval.0.i.i.i.i.i4229, 1
  br i1 %cmp6.i.i.i.i4230, label %if.then7.i.i.i.i4232, label %_ZNSt12__shared_ptrIN9benchmark5RegexELN9__gnu_cxx12_Lock_policyE2EED2Ev.exit.i4235, !prof !50

if.then7.i.i.i.i4232:                             ; preds = %invoke.cont.i.i.i.i4231
  call void @_ZNSt16_Sp_counted_baseILN9__gnu_cxx12_Lock_policyE2EE24_M_release_last_use_coldEv(ptr noundef nonnull align 8 dereferenceable(16) %301) #10
  br label %_ZNSt12__shared_ptrIN9benchmark5RegexELN9__gnu_cxx12_Lock_policyE2EED2Ev.exit.i4235

_ZNSt12__shared_ptrIN9benchmark5RegexELN9__gnu_cxx12_Lock_policyE2EED2Ev.exit.i4235: ; preds = %if.then7.i.i.i.i4232, %invoke.cont.i.i.i.i4231, %if.then.i.i.i.i4223, %_ZN8TestCaseD2Ev.exit4268
  %substituted_regex.i4233 = getelementptr inbounds %struct.TestCase, ptr %ref.tmp.i188, i64 5, i32 2
  %308 = load ptr, ptr %substituted_regex.i4233, align 8, !tbaa !43
  %309 = getelementptr inbounds %struct.TestCase, ptr %ref.tmp.i188, i64 5, i32 2, i32 2
  %cmp.i.i.i2.i4234 = icmp eq ptr %308, %309
  br i1 %cmp.i.i.i2.i4234, label %_ZNSt7__cxx1112basic_stringIcSt11char_traitsIcESaIcEED2Ev.exit.i4238, label %if.then.i.i3.i4236

if.then.i.i3.i4236:                               ; preds = %_ZNSt12__shared_ptrIN9benchmark5RegexELN9__gnu_cxx12_Lock_policyE2EED2Ev.exit.i4235
  call void @_ZdlPv(ptr noundef %308) #12
  br label %_ZNSt7__cxx1112basic_stringIcSt11char_traitsIcESaIcEED2Ev.exit.i4238

_ZNSt7__cxx1112basic_stringIcSt11char_traitsIcESaIcEED2Ev.exit.i4238: ; preds = %if.then.i.i3.i4236, %_ZNSt12__shared_ptrIN9benchmark5RegexELN9__gnu_cxx12_Lock_policyE2EED2Ev.exit.i4235
  %310 = load ptr, ptr %arrayinit.element32.i, align 8, !tbaa !43
  %311 = getelementptr inbounds %struct.TestCase, ptr %ref.tmp.i188, i64 5, i32 0, i32 2
  %cmp.i.i.i4.i4237 = icmp eq ptr %310, %311
  br i1 %cmp.i.i.i4.i4237, label %_ZN8TestCaseD2Ev.exit4240, label %if.then.i.i5.i4239

if.then.i.i5.i4239:                               ; preds = %_ZNSt7__cxx1112basic_stringIcSt11char_traitsIcESaIcEED2Ev.exit.i4238
  call void @_ZdlPv(ptr noundef %310) #12
  br label %_ZN8TestCaseD2Ev.exit4240

_ZN8TestCaseD2Ev.exit4240:                        ; preds = %_ZNSt7__cxx1112basic_stringIcSt11char_traitsIcESaIcEED2Ev.exit.i4238, %if.then.i.i5.i4239
  %_M_refcount.i.i4185 = getelementptr inbounds %struct.TestCase, ptr %ref.tmp.i188, i64 4, i32 3, i32 0, i32 1
  %312 = load ptr, ptr %_M_refcount.i.i4185, align 8, !tbaa !45
  %cmp.not.i.i.i4186 = icmp eq ptr %312, null
  br i1 %cmp.not.i.i.i4186, label %_ZNSt12__shared_ptrIN9benchmark5RegexELN9__gnu_cxx12_Lock_policyE2EED2Ev.exit.i4207, label %if.then.i.i.i4189

if.then.i.i.i4189:                                ; preds = %_ZN8TestCaseD2Ev.exit4240
  %_M_use_count.i.i.i.i4187 = getelementptr inbounds %"class.std::_Sp_counted_base", ptr %312, i64 0, i32 1
  %313 = load atomic i64, ptr %_M_use_count.i.i.i.i4187 acquire, align 8
  %cmp.i.i.i.i4188 = icmp eq i64 %313, 4294967297
  %314 = trunc i64 %313 to i32
  br i1 %cmp.i.i.i.i4188, label %if.then.i.i.i.i4195, label %if.end.i.i.i.i4197

if.then.i.i.i.i4195:                              ; preds = %if.then.i.i.i4189
  store i32 0, ptr %_M_use_count.i.i.i.i4187, align 8, !tbaa !47
  %_M_weak_count.i.i.i.i4190 = getelementptr inbounds %"class.std::_Sp_counted_base", ptr %312, i64 0, i32 2
  store i32 0, ptr %_M_weak_count.i.i.i.i4190, align 4, !tbaa !49
  %vtable.i.i.i.i4191 = load ptr, ptr %312, align 8, !tbaa !5
  %vfn.i.i.i.i4192 = getelementptr inbounds ptr, ptr %vtable.i.i.i.i4191, i64 2
  %315 = load ptr, ptr %vfn.i.i.i.i4192, align 8
  call void %315(ptr noundef nonnull align 8 dereferenceable(16) %312) #10
  %vtable3.i.i.i.i4193 = load ptr, ptr %312, align 8, !tbaa !5
  %vfn4.i.i.i.i4194 = getelementptr inbounds ptr, ptr %vtable3.i.i.i.i4193, i64 3
  %316 = load ptr, ptr %vfn4.i.i.i.i4194, align 8
  call void %316(ptr noundef nonnull align 8 dereferenceable(16) %312) #10
  br label %_ZNSt12__shared_ptrIN9benchmark5RegexELN9__gnu_cxx12_Lock_policyE2EED2Ev.exit.i4207

if.end.i.i.i.i4197:                               ; preds = %if.then.i.i.i4189
  %317 = load i8, ptr @__libc_single_threaded, align 1, !tbaa !8
  %tobool.i.not.i.i.i.i.i4196 = icmp eq i8 %317, 0
  br i1 %tobool.i.not.i.i.i.i.i4196, label %if.else.i.i.i.i.i4200, label %if.then.i.i.i.i.i4199

if.then.i.i.i.i.i4199:                            ; preds = %if.end.i.i.i.i4197
  %add.i.i.i.i.i.i4198 = add nsw i32 %314, -1
  store i32 %add.i.i.i.i.i.i4198, ptr %_M_use_count.i.i.i.i4187, align 8, !tbaa !10
  br label %invoke.cont.i.i.i.i4203

if.else.i.i.i.i.i4200:                            ; preds = %if.end.i.i.i.i4197
  %318 = atomicrmw volatile add ptr %_M_use_count.i.i.i.i4187, i32 -1 acq_rel, align 4
  br label %invoke.cont.i.i.i.i4203

invoke.cont.i.i.i.i4203:                          ; preds = %if.else.i.i.i.i.i4200, %if.then.i.i.i.i.i4199
  %retval.0.i.i.i.i.i4201 = phi i32 [ %314, %if.then.i.i.i.i.i4199 ], [ %318, %if.else.i.i.i.i.i4200 ]
  %cmp6.i.i.i.i4202 = icmp eq i32 %retval.0.i.i.i.i.i4201, 1
  br i1 %cmp6.i.i.i.i4202, label %if.then7.i.i.i.i4204, label %_ZNSt12__shared_ptrIN9benchmark5RegexELN9__gnu_cxx12_Lock_policyE2EED2Ev.exit.i4207, !prof !50

if.then7.i.i.i.i4204:                             ; preds = %invoke.cont.i.i.i.i4203
  call void @_ZNSt16_Sp_counted_baseILN9__gnu_cxx12_Lock_policyE2EE24_M_release_last_use_coldEv(ptr noundef nonnull align 8 dereferenceable(16) %312) #10
  br label %_ZNSt12__shared_ptrIN9benchmark5RegexELN9__gnu_cxx12_Lock_policyE2EED2Ev.exit.i4207

_ZNSt12__shared_ptrIN9benchmark5RegexELN9__gnu_cxx12_Lock_policyE2EED2Ev.exit.i4207: ; preds = %if.then7.i.i.i.i4204, %invoke.cont.i.i.i.i4203, %if.then.i.i.i.i4195, %_ZN8TestCaseD2Ev.exit4240
  %substituted_regex.i4205 = getelementptr inbounds %struct.TestCase, ptr %ref.tmp.i188, i64 4, i32 2
  %319 = load ptr, ptr %substituted_regex.i4205, align 8, !tbaa !43
  %320 = getelementptr inbounds %struct.TestCase, ptr %ref.tmp.i188, i64 4, i32 2, i32 2
  %cmp.i.i.i2.i4206 = icmp eq ptr %319, %320
  br i1 %cmp.i.i.i2.i4206, label %_ZNSt7__cxx1112basic_stringIcSt11char_traitsIcESaIcEED2Ev.exit.i4210, label %if.then.i.i3.i4208

if.then.i.i3.i4208:                               ; preds = %_ZNSt12__shared_ptrIN9benchmark5RegexELN9__gnu_cxx12_Lock_policyE2EED2Ev.exit.i4207
  call void @_ZdlPv(ptr noundef %319) #12
  br label %_ZNSt7__cxx1112basic_stringIcSt11char_traitsIcESaIcEED2Ev.exit.i4210

_ZNSt7__cxx1112basic_stringIcSt11char_traitsIcESaIcEED2Ev.exit.i4210: ; preds = %if.then.i.i3.i4208, %_ZNSt12__shared_ptrIN9benchmark5RegexELN9__gnu_cxx12_Lock_policyE2EED2Ev.exit.i4207
  %321 = load ptr, ptr %arrayinit.element25.i, align 8, !tbaa !43
  %322 = getelementptr inbounds %struct.TestCase, ptr %ref.tmp.i188, i64 4, i32 0, i32 2
  %cmp.i.i.i4.i4209 = icmp eq ptr %321, %322
  br i1 %cmp.i.i.i4.i4209, label %_ZN8TestCaseD2Ev.exit4212, label %if.then.i.i5.i4211

if.then.i.i5.i4211:                               ; preds = %_ZNSt7__cxx1112basic_stringIcSt11char_traitsIcESaIcEED2Ev.exit.i4210
  call void @_ZdlPv(ptr noundef %321) #12
  br label %_ZN8TestCaseD2Ev.exit4212

_ZN8TestCaseD2Ev.exit4212:                        ; preds = %_ZNSt7__cxx1112basic_stringIcSt11char_traitsIcESaIcEED2Ev.exit.i4210, %if.then.i.i5.i4211
  %_M_refcount.i.i4157 = getelementptr inbounds %struct.TestCase, ptr %ref.tmp.i188, i64 3, i32 3, i32 0, i32 1
  %323 = load ptr, ptr %_M_refcount.i.i4157, align 8, !tbaa !45
  %cmp.not.i.i.i4158 = icmp eq ptr %323, null
  br i1 %cmp.not.i.i.i4158, label %_ZNSt12__shared_ptrIN9benchmark5RegexELN9__gnu_cxx12_Lock_policyE2EED2Ev.exit.i4179, label %if.then.i.i.i4161

if.then.i.i.i4161:                                ; preds = %_ZN8TestCaseD2Ev.exit4212
  %_M_use_count.i.i.i.i4159 = getelementptr inbounds %"class.std::_Sp_counted_base", ptr %323, i64 0, i32 1
  %324 = load atomic i64, ptr %_M_use_count.i.i.i.i4159 acquire, align 8
  %cmp.i.i.i.i4160 = icmp eq i64 %324, 4294967297
  %325 = trunc i64 %324 to i32
  br i1 %cmp.i.i.i.i4160, label %if.then.i.i.i.i4167, label %if.end.i.i.i.i4169

if.then.i.i.i.i4167:                              ; preds = %if.then.i.i.i4161
  store i32 0, ptr %_M_use_count.i.i.i.i4159, align 8, !tbaa !47
  %_M_weak_count.i.i.i.i4162 = getelementptr inbounds %"class.std::_Sp_counted_base", ptr %323, i64 0, i32 2
  store i32 0, ptr %_M_weak_count.i.i.i.i4162, align 4, !tbaa !49
  %vtable.i.i.i.i4163 = load ptr, ptr %323, align 8, !tbaa !5
  %vfn.i.i.i.i4164 = getelementptr inbounds ptr, ptr %vtable.i.i.i.i4163, i64 2
  %326 = load ptr, ptr %vfn.i.i.i.i4164, align 8
  call void %326(ptr noundef nonnull align 8 dereferenceable(16) %323) #10
  %vtable3.i.i.i.i4165 = load ptr, ptr %323, align 8, !tbaa !5
  %vfn4.i.i.i.i4166 = getelementptr inbounds ptr, ptr %vtable3.i.i.i.i4165, i64 3
  %327 = load ptr, ptr %vfn4.i.i.i.i4166, align 8
  call void %327(ptr noundef nonnull align 8 dereferenceable(16) %323) #10
  br label %_ZNSt12__shared_ptrIN9benchmark5RegexELN9__gnu_cxx12_Lock_policyE2EED2Ev.exit.i4179

if.end.i.i.i.i4169:                               ; preds = %if.then.i.i.i4161
  %328 = load i8, ptr @__libc_single_threaded, align 1, !tbaa !8
  %tobool.i.not.i.i.i.i.i4168 = icmp eq i8 %328, 0
  br i1 %tobool.i.not.i.i.i.i.i4168, label %if.else.i.i.i.i.i4172, label %if.then.i.i.i.i.i4171

if.then.i.i.i.i.i4171:                            ; preds = %if.end.i.i.i.i4169
  %add.i.i.i.i.i.i4170 = add nsw i32 %325, -1
  store i32 %add.i.i.i.i.i.i4170, ptr %_M_use_count.i.i.i.i4159, align 8, !tbaa !10
  br label %invoke.cont.i.i.i.i4175

if.else.i.i.i.i.i4172:                            ; preds = %if.end.i.i.i.i4169
  %329 = atomicrmw volatile add ptr %_M_use_count.i.i.i.i4159, i32 -1 acq_rel, align 4
  br label %invoke.cont.i.i.i.i4175

invoke.cont.i.i.i.i4175:                          ; preds = %if.else.i.i.i.i.i4172, %if.then.i.i.i.i.i4171
  %retval.0.i.i.i.i.i4173 = phi i32 [ %325, %if.then.i.i.i.i.i4171 ], [ %329, %if.else.i.i.i.i.i4172 ]
  %cmp6.i.i.i.i4174 = icmp eq i32 %retval.0.i.i.i.i.i4173, 1
  br i1 %cmp6.i.i.i.i4174, label %if.then7.i.i.i.i4176, label %_ZNSt12__shared_ptrIN9benchmark5RegexELN9__gnu_cxx12_Lock_policyE2EED2Ev.exit.i4179, !prof !50

if.then7.i.i.i.i4176:                             ; preds = %invoke.cont.i.i.i.i4175
  call void @_ZNSt16_Sp_counted_baseILN9__gnu_cxx12_Lock_policyE2EE24_M_release_last_use_coldEv(ptr noundef nonnull align 8 dereferenceable(16) %323) #10
  br label %_ZNSt12__shared_ptrIN9benchmark5RegexELN9__gnu_cxx12_Lock_policyE2EED2Ev.exit.i4179

_ZNSt12__shared_ptrIN9benchmark5RegexELN9__gnu_cxx12_Lock_policyE2EED2Ev.exit.i4179: ; preds = %if.then7.i.i.i.i4176, %invoke.cont.i.i.i.i4175, %if.then.i.i.i.i4167, %_ZN8TestCaseD2Ev.exit4212
  %substituted_regex.i4177 = getelementptr inbounds %struct.TestCase, ptr %ref.tmp.i188, i64 3, i32 2
  %330 = load ptr, ptr %substituted_regex.i4177, align 8, !tbaa !43
  %331 = getelementptr inbounds %struct.TestCase, ptr %ref.tmp.i188, i64 3, i32 2, i32 2
  %cmp.i.i.i2.i4178 = icmp eq ptr %330, %331
  br i1 %cmp.i.i.i2.i4178, label %_ZNSt7__cxx1112basic_stringIcSt11char_traitsIcESaIcEED2Ev.exit.i4182, label %if.then.i.i3.i4180

if.then.i.i3.i4180:                               ; preds = %_ZNSt12__shared_ptrIN9benchmark5RegexELN9__gnu_cxx12_Lock_policyE2EED2Ev.exit.i4179
  call void @_ZdlPv(ptr noundef %330) #12
  br label %_ZNSt7__cxx1112basic_stringIcSt11char_traitsIcESaIcEED2Ev.exit.i4182

_ZNSt7__cxx1112basic_stringIcSt11char_traitsIcESaIcEED2Ev.exit.i4182: ; preds = %if.then.i.i3.i4180, %_ZNSt12__shared_ptrIN9benchmark5RegexELN9__gnu_cxx12_Lock_policyE2EED2Ev.exit.i4179
  %332 = load ptr, ptr %arrayinit.element18.i, align 8, !tbaa !43
  %333 = getelementptr inbounds %struct.TestCase, ptr %ref.tmp.i188, i64 3, i32 0, i32 2
  %cmp.i.i.i4.i4181 = icmp eq ptr %332, %333
  br i1 %cmp.i.i.i4.i4181, label %_ZN8TestCaseD2Ev.exit4184, label %if.then.i.i5.i4183

if.then.i.i5.i4183:                               ; preds = %_ZNSt7__cxx1112basic_stringIcSt11char_traitsIcESaIcEED2Ev.exit.i4182
  call void @_ZdlPv(ptr noundef %332) #12
  br label %_ZN8TestCaseD2Ev.exit4184

_ZN8TestCaseD2Ev.exit4184:                        ; preds = %_ZNSt7__cxx1112basic_stringIcSt11char_traitsIcESaIcEED2Ev.exit.i4182, %if.then.i.i5.i4183
  %_M_refcount.i.i4129 = getelementptr inbounds %struct.TestCase, ptr %ref.tmp.i188, i64 2, i32 3, i32 0, i32 1
  %334 = load ptr, ptr %_M_refcount.i.i4129, align 8, !tbaa !45
  %cmp.not.i.i.i4130 = icmp eq ptr %334, null
  br i1 %cmp.not.i.i.i4130, label %_ZNSt12__shared_ptrIN9benchmark5RegexELN9__gnu_cxx12_Lock_policyE2EED2Ev.exit.i4151, label %if.then.i.i.i4133

if.then.i.i.i4133:                                ; preds = %_ZN8TestCaseD2Ev.exit4184
  %_M_use_count.i.i.i.i4131 = getelementptr inbounds %"class.std::_Sp_counted_base", ptr %334, i64 0, i32 1
  %335 = load atomic i64, ptr %_M_use_count.i.i.i.i4131 acquire, align 8
  %cmp.i.i.i.i4132 = icmp eq i64 %335, 4294967297
  %336 = trunc i64 %335 to i32
  br i1 %cmp.i.i.i.i4132, label %if.then.i.i.i.i4139, label %if.end.i.i.i.i4141

if.then.i.i.i.i4139:                              ; preds = %if.then.i.i.i4133
  store i32 0, ptr %_M_use_count.i.i.i.i4131, align 8, !tbaa !47
  %_M_weak_count.i.i.i.i4134 = getelementptr inbounds %"class.std::_Sp_counted_base", ptr %334, i64 0, i32 2
  store i32 0, ptr %_M_weak_count.i.i.i.i4134, align 4, !tbaa !49
  %vtable.i.i.i.i4135 = load ptr, ptr %334, align 8, !tbaa !5
  %vfn.i.i.i.i4136 = getelementptr inbounds ptr, ptr %vtable.i.i.i.i4135, i64 2
  %337 = load ptr, ptr %vfn.i.i.i.i4136, align 8
  call void %337(ptr noundef nonnull align 8 dereferenceable(16) %334) #10
  %vtable3.i.i.i.i4137 = load ptr, ptr %334, align 8, !tbaa !5
  %vfn4.i.i.i.i4138 = getelementptr inbounds ptr, ptr %vtable3.i.i.i.i4137, i64 3
  %338 = load ptr, ptr %vfn4.i.i.i.i4138, align 8
  call void %338(ptr noundef nonnull align 8 dereferenceable(16) %334) #10
  br label %_ZNSt12__shared_ptrIN9benchmark5RegexELN9__gnu_cxx12_Lock_policyE2EED2Ev.exit.i4151

if.end.i.i.i.i4141:                               ; preds = %if.then.i.i.i4133
  %339 = load i8, ptr @__libc_single_threaded, align 1, !tbaa !8
  %tobool.i.not.i.i.i.i.i4140 = icmp eq i8 %339, 0
  br i1 %tobool.i.not.i.i.i.i.i4140, label %if.else.i.i.i.i.i4144, label %if.then.i.i.i.i.i4143

if.then.i.i.i.i.i4143:                            ; preds = %if.end.i.i.i.i4141
  %add.i.i.i.i.i.i4142 = add nsw i32 %336, -1
  store i32 %add.i.i.i.i.i.i4142, ptr %_M_use_count.i.i.i.i4131, align 8, !tbaa !10
  br label %invoke.cont.i.i.i.i4147

if.else.i.i.i.i.i4144:                            ; preds = %if.end.i.i.i.i4141
  %340 = atomicrmw volatile add ptr %_M_use_count.i.i.i.i4131, i32 -1 acq_rel, align 4
  br label %invoke.cont.i.i.i.i4147

invoke.cont.i.i.i.i4147:                          ; preds = %if.else.i.i.i.i.i4144, %if.then.i.i.i.i.i4143
  %retval.0.i.i.i.i.i4145 = phi i32 [ %336, %if.then.i.i.i.i.i4143 ], [ %340, %if.else.i.i.i.i.i4144 ]
  %cmp6.i.i.i.i4146 = icmp eq i32 %retval.0.i.i.i.i.i4145, 1
  br i1 %cmp6.i.i.i.i4146, label %if.then7.i.i.i.i4148, label %_ZNSt12__shared_ptrIN9benchmark5RegexELN9__gnu_cxx12_Lock_policyE2EED2Ev.exit.i4151, !prof !50

if.then7.i.i.i.i4148:                             ; preds = %invoke.cont.i.i.i.i4147
  call void @_ZNSt16_Sp_counted_baseILN9__gnu_cxx12_Lock_policyE2EE24_M_release_last_use_coldEv(ptr noundef nonnull align 8 dereferenceable(16) %334) #10
  br label %_ZNSt12__shared_ptrIN9benchmark5RegexELN9__gnu_cxx12_Lock_policyE2EED2Ev.exit.i4151

_ZNSt12__shared_ptrIN9benchmark5RegexELN9__gnu_cxx12_Lock_policyE2EED2Ev.exit.i4151: ; preds = %if.then7.i.i.i.i4148, %invoke.cont.i.i.i.i4147, %if.then.i.i.i.i4139, %_ZN8TestCaseD2Ev.exit4184
  %substituted_regex.i4149 = getelementptr inbounds %struct.TestCase, ptr %ref.tmp.i188, i64 2, i32 2
  %341 = load ptr, ptr %substituted_regex.i4149, align 8, !tbaa !43
  %342 = getelementptr inbounds %struct.TestCase, ptr %ref.tmp.i188, i64 2, i32 2, i32 2
  %cmp.i.i.i2.i4150 = icmp eq ptr %341, %342
  br i1 %cmp.i.i.i2.i4150, label %_ZNSt7__cxx1112basic_stringIcSt11char_traitsIcESaIcEED2Ev.exit.i4154, label %if.then.i.i3.i4152

if.then.i.i3.i4152:                               ; preds = %_ZNSt12__shared_ptrIN9benchmark5RegexELN9__gnu_cxx12_Lock_policyE2EED2Ev.exit.i4151
  call void @_ZdlPv(ptr noundef %341) #12
  br label %_ZNSt7__cxx1112basic_stringIcSt11char_traitsIcESaIcEED2Ev.exit.i4154

_ZNSt7__cxx1112basic_stringIcSt11char_traitsIcESaIcEED2Ev.exit.i4154: ; preds = %if.then.i.i3.i4152, %_ZNSt12__shared_ptrIN9benchmark5RegexELN9__gnu_cxx12_Lock_policyE2EED2Ev.exit.i4151
  %343 = load ptr, ptr %arrayinit.element11.i, align 8, !tbaa !43
  %344 = getelementptr inbounds %struct.TestCase, ptr %ref.tmp.i188, i64 2, i32 0, i32 2
  %cmp.i.i.i4.i4153 = icmp eq ptr %343, %344
  br i1 %cmp.i.i.i4.i4153, label %_ZN8TestCaseD2Ev.exit4156, label %if.then.i.i5.i4155

if.then.i.i5.i4155:                               ; preds = %_ZNSt7__cxx1112basic_stringIcSt11char_traitsIcESaIcEED2Ev.exit.i4154
  call void @_ZdlPv(ptr noundef %343) #12
  br label %_ZN8TestCaseD2Ev.exit4156

_ZN8TestCaseD2Ev.exit4156:                        ; preds = %_ZNSt7__cxx1112basic_stringIcSt11char_traitsIcESaIcEED2Ev.exit.i4154, %if.then.i.i5.i4155
  %_M_refcount.i.i4101 = getelementptr inbounds %struct.TestCase, ptr %ref.tmp.i188, i64 1, i32 3, i32 0, i32 1
  %345 = load ptr, ptr %_M_refcount.i.i4101, align 8, !tbaa !45
  %cmp.not.i.i.i4102 = icmp eq ptr %345, null
  br i1 %cmp.not.i.i.i4102, label %_ZNSt12__shared_ptrIN9benchmark5RegexELN9__gnu_cxx12_Lock_policyE2EED2Ev.exit.i4123, label %if.then.i.i.i4105

if.then.i.i.i4105:                                ; preds = %_ZN8TestCaseD2Ev.exit4156
  %_M_use_count.i.i.i.i4103 = getelementptr inbounds %"class.std::_Sp_counted_base", ptr %345, i64 0, i32 1
  %346 = load atomic i64, ptr %_M_use_count.i.i.i.i4103 acquire, align 8
  %cmp.i.i.i.i4104 = icmp eq i64 %346, 4294967297
  %347 = trunc i64 %346 to i32
  br i1 %cmp.i.i.i.i4104, label %if.then.i.i.i.i4111, label %if.end.i.i.i.i4113

if.then.i.i.i.i4111:                              ; preds = %if.then.i.i.i4105
  store i32 0, ptr %_M_use_count.i.i.i.i4103, align 8, !tbaa !47
  %_M_weak_count.i.i.i.i4106 = getelementptr inbounds %"class.std::_Sp_counted_base", ptr %345, i64 0, i32 2
  store i32 0, ptr %_M_weak_count.i.i.i.i4106, align 4, !tbaa !49
  %vtable.i.i.i.i4107 = load ptr, ptr %345, align 8, !tbaa !5
  %vfn.i.i.i.i4108 = getelementptr inbounds ptr, ptr %vtable.i.i.i.i4107, i64 2
  %348 = load ptr, ptr %vfn.i.i.i.i4108, align 8
  call void %348(ptr noundef nonnull align 8 dereferenceable(16) %345) #10
  %vtable3.i.i.i.i4109 = load ptr, ptr %345, align 8, !tbaa !5
  %vfn4.i.i.i.i4110 = getelementptr inbounds ptr, ptr %vtable3.i.i.i.i4109, i64 3
  %349 = load ptr, ptr %vfn4.i.i.i.i4110, align 8
  call void %349(ptr noundef nonnull align 8 dereferenceable(16) %345) #10
  br label %_ZNSt12__shared_ptrIN9benchmark5RegexELN9__gnu_cxx12_Lock_policyE2EED2Ev.exit.i4123

if.end.i.i.i.i4113:                               ; preds = %if.then.i.i.i4105
  %350 = load i8, ptr @__libc_single_threaded, align 1, !tbaa !8
  %tobool.i.not.i.i.i.i.i4112 = icmp eq i8 %350, 0
  br i1 %tobool.i.not.i.i.i.i.i4112, label %if.else.i.i.i.i.i4116, label %if.then.i.i.i.i.i4115

if.then.i.i.i.i.i4115:                            ; preds = %if.end.i.i.i.i4113
  %add.i.i.i.i.i.i4114 = add nsw i32 %347, -1
  store i32 %add.i.i.i.i.i.i4114, ptr %_M_use_count.i.i.i.i4103, align 8, !tbaa !10
  br label %invoke.cont.i.i.i.i4119

if.else.i.i.i.i.i4116:                            ; preds = %if.end.i.i.i.i4113
  %351 = atomicrmw volatile add ptr %_M_use_count.i.i.i.i4103, i32 -1 acq_rel, align 4
  br label %invoke.cont.i.i.i.i4119

invoke.cont.i.i.i.i4119:                          ; preds = %if.else.i.i.i.i.i4116, %if.then.i.i.i.i.i4115
  %retval.0.i.i.i.i.i4117 = phi i32 [ %347, %if.then.i.i.i.i.i4115 ], [ %351, %if.else.i.i.i.i.i4116 ]
  %cmp6.i.i.i.i4118 = icmp eq i32 %retval.0.i.i.i.i.i4117, 1
  br i1 %cmp6.i.i.i.i4118, label %if.then7.i.i.i.i4120, label %_ZNSt12__shared_ptrIN9benchmark5RegexELN9__gnu_cxx12_Lock_policyE2EED2Ev.exit.i4123, !prof !50

if.then7.i.i.i.i4120:                             ; preds = %invoke.cont.i.i.i.i4119
  call void @_ZNSt16_Sp_counted_baseILN9__gnu_cxx12_Lock_policyE2EE24_M_release_last_use_coldEv(ptr noundef nonnull align 8 dereferenceable(16) %345) #10
  br label %_ZNSt12__shared_ptrIN9benchmark5RegexELN9__gnu_cxx12_Lock_policyE2EED2Ev.exit.i4123

_ZNSt12__shared_ptrIN9benchmark5RegexELN9__gnu_cxx12_Lock_policyE2EED2Ev.exit.i4123: ; preds = %if.then7.i.i.i.i4120, %invoke.cont.i.i.i.i4119, %if.then.i.i.i.i4111, %_ZN8TestCaseD2Ev.exit4156
  %substituted_regex.i4121 = getelementptr inbounds %struct.TestCase, ptr %ref.tmp.i188, i64 1, i32 2
  %352 = load ptr, ptr %substituted_regex.i4121, align 8, !tbaa !43
  %353 = getelementptr inbounds %struct.TestCase, ptr %ref.tmp.i188, i64 1, i32 2, i32 2
  %cmp.i.i.i2.i4122 = icmp eq ptr %352, %353
  br i1 %cmp.i.i.i2.i4122, label %_ZNSt7__cxx1112basic_stringIcSt11char_traitsIcESaIcEED2Ev.exit.i4126, label %if.then.i.i3.i4124

if.then.i.i3.i4124:                               ; preds = %_ZNSt12__shared_ptrIN9benchmark5RegexELN9__gnu_cxx12_Lock_policyE2EED2Ev.exit.i4123
  call void @_ZdlPv(ptr noundef %352) #12
  br label %_ZNSt7__cxx1112basic_stringIcSt11char_traitsIcESaIcEED2Ev.exit.i4126

_ZNSt7__cxx1112basic_stringIcSt11char_traitsIcESaIcEED2Ev.exit.i4126: ; preds = %if.then.i.i3.i4124, %_ZNSt12__shared_ptrIN9benchmark5RegexELN9__gnu_cxx12_Lock_policyE2EED2Ev.exit.i4123
  %354 = load ptr, ptr %arrayinit.element.i, align 8, !tbaa !43
  %355 = getelementptr inbounds %struct.TestCase, ptr %ref.tmp.i188, i64 1, i32 0, i32 2
  %cmp.i.i.i4.i4125 = icmp eq ptr %354, %355
  br i1 %cmp.i.i.i4.i4125, label %_ZN8TestCaseD2Ev.exit4128, label %if.then.i.i5.i4127

if.then.i.i5.i4127:                               ; preds = %_ZNSt7__cxx1112basic_stringIcSt11char_traitsIcESaIcEED2Ev.exit.i4126
  call void @_ZdlPv(ptr noundef %354) #12
  br label %_ZN8TestCaseD2Ev.exit4128

_ZN8TestCaseD2Ev.exit4128:                        ; preds = %_ZNSt7__cxx1112basic_stringIcSt11char_traitsIcESaIcEED2Ev.exit.i4126, %if.then.i.i5.i4127
  %_M_refcount.i.i4073 = getelementptr inbounds %struct.TestCase, ptr %ref.tmp.i188, i64 0, i32 3, i32 0, i32 1
  %356 = load ptr, ptr %_M_refcount.i.i4073, align 8, !tbaa !45
  %cmp.not.i.i.i4074 = icmp eq ptr %356, null
  br i1 %cmp.not.i.i.i4074, label %_ZNSt12__shared_ptrIN9benchmark5RegexELN9__gnu_cxx12_Lock_policyE2EED2Ev.exit.i4095, label %if.then.i.i.i4077

if.then.i.i.i4077:                                ; preds = %_ZN8TestCaseD2Ev.exit4128
  %_M_use_count.i.i.i.i4075 = getelementptr inbounds %"class.std::_Sp_counted_base", ptr %356, i64 0, i32 1
  %357 = load atomic i64, ptr %_M_use_count.i.i.i.i4075 acquire, align 8
  %cmp.i.i.i.i4076 = icmp eq i64 %357, 4294967297
  %358 = trunc i64 %357 to i32
  br i1 %cmp.i.i.i.i4076, label %if.then.i.i.i.i4083, label %if.end.i.i.i.i4085

if.then.i.i.i.i4083:                              ; preds = %if.then.i.i.i4077
  store i32 0, ptr %_M_use_count.i.i.i.i4075, align 8, !tbaa !47
  %_M_weak_count.i.i.i.i4078 = getelementptr inbounds %"class.std::_Sp_counted_base", ptr %356, i64 0, i32 2
  store i32 0, ptr %_M_weak_count.i.i.i.i4078, align 4, !tbaa !49
  %vtable.i.i.i.i4079 = load ptr, ptr %356, align 8, !tbaa !5
  %vfn.i.i.i.i4080 = getelementptr inbounds ptr, ptr %vtable.i.i.i.i4079, i64 2
  %359 = load ptr, ptr %vfn.i.i.i.i4080, align 8
  call void %359(ptr noundef nonnull align 8 dereferenceable(16) %356) #10
  %vtable3.i.i.i.i4081 = load ptr, ptr %356, align 8, !tbaa !5
  %vfn4.i.i.i.i4082 = getelementptr inbounds ptr, ptr %vtable3.i.i.i.i4081, i64 3
  %360 = load ptr, ptr %vfn4.i.i.i.i4082, align 8
  call void %360(ptr noundef nonnull align 8 dereferenceable(16) %356) #10
  br label %_ZNSt12__shared_ptrIN9benchmark5RegexELN9__gnu_cxx12_Lock_policyE2EED2Ev.exit.i4095

if.end.i.i.i.i4085:                               ; preds = %if.then.i.i.i4077
  %361 = load i8, ptr @__libc_single_threaded, align 1, !tbaa !8
  %tobool.i.not.i.i.i.i.i4084 = icmp eq i8 %361, 0
  br i1 %tobool.i.not.i.i.i.i.i4084, label %if.else.i.i.i.i.i4088, label %if.then.i.i.i.i.i4087

if.then.i.i.i.i.i4087:                            ; preds = %if.end.i.i.i.i4085
  %add.i.i.i.i.i.i4086 = add nsw i32 %358, -1
  store i32 %add.i.i.i.i.i.i4086, ptr %_M_use_count.i.i.i.i4075, align 8, !tbaa !10
  br label %invoke.cont.i.i.i.i4091

if.else.i.i.i.i.i4088:                            ; preds = %if.end.i.i.i.i4085
  %362 = atomicrmw volatile add ptr %_M_use_count.i.i.i.i4075, i32 -1 acq_rel, align 4
  br label %invoke.cont.i.i.i.i4091

invoke.cont.i.i.i.i4091:                          ; preds = %if.else.i.i.i.i.i4088, %if.then.i.i.i.i.i4087
  %retval.0.i.i.i.i.i4089 = phi i32 [ %358, %if.then.i.i.i.i.i4087 ], [ %362, %if.else.i.i.i.i.i4088 ]
  %cmp6.i.i.i.i4090 = icmp eq i32 %retval.0.i.i.i.i.i4089, 1
  br i1 %cmp6.i.i.i.i4090, label %if.then7.i.i.i.i4092, label %_ZNSt12__shared_ptrIN9benchmark5RegexELN9__gnu_cxx12_Lock_policyE2EED2Ev.exit.i4095, !prof !50

if.then7.i.i.i.i4092:                             ; preds = %invoke.cont.i.i.i.i4091
  call void @_ZNSt16_Sp_counted_baseILN9__gnu_cxx12_Lock_policyE2EE24_M_release_last_use_coldEv(ptr noundef nonnull align 8 dereferenceable(16) %356) #10
  br label %_ZNSt12__shared_ptrIN9benchmark5RegexELN9__gnu_cxx12_Lock_policyE2EED2Ev.exit.i4095

_ZNSt12__shared_ptrIN9benchmark5RegexELN9__gnu_cxx12_Lock_policyE2EED2Ev.exit.i4095: ; preds = %if.then7.i.i.i.i4092, %invoke.cont.i.i.i.i4091, %if.then.i.i.i.i4083, %_ZN8TestCaseD2Ev.exit4128
  %substituted_regex.i4093 = getelementptr inbounds %struct.TestCase, ptr %ref.tmp.i188, i64 0, i32 2
  %363 = load ptr, ptr %substituted_regex.i4093, align 8, !tbaa !43
  %364 = getelementptr inbounds %struct.TestCase, ptr %ref.tmp.i188, i64 0, i32 2, i32 2
  %cmp.i.i.i2.i4094 = icmp eq ptr %363, %364
  br i1 %cmp.i.i.i2.i4094, label %_ZNSt7__cxx1112basic_stringIcSt11char_traitsIcESaIcEED2Ev.exit.i4098, label %if.then.i.i3.i4096

if.then.i.i3.i4096:                               ; preds = %_ZNSt12__shared_ptrIN9benchmark5RegexELN9__gnu_cxx12_Lock_policyE2EED2Ev.exit.i4095
  call void @_ZdlPv(ptr noundef %363) #12
  br label %_ZNSt7__cxx1112basic_stringIcSt11char_traitsIcESaIcEED2Ev.exit.i4098

_ZNSt7__cxx1112basic_stringIcSt11char_traitsIcESaIcEED2Ev.exit.i4098: ; preds = %if.then.i.i3.i4096, %_ZNSt12__shared_ptrIN9benchmark5RegexELN9__gnu_cxx12_Lock_policyE2EED2Ev.exit.i4095
  %365 = load ptr, ptr %ref.tmp.i188, align 8, !tbaa !43
  %366 = getelementptr inbounds %"class.std::__cxx11::basic_string", ptr %ref.tmp.i188, i64 0, i32 2
  %cmp.i.i.i4.i4097 = icmp eq ptr %365, %366
  br i1 %cmp.i.i.i4.i4097, label %ehcleanup.i224, label %if.then.i.i5.i4099

if.then.i.i5.i4099:                               ; preds = %_ZNSt7__cxx1112basic_stringIcSt11char_traitsIcESaIcEED2Ev.exit.i4098
  call void @_ZdlPv(ptr noundef %365) #12
  br label %ehcleanup.i224

ehcleanup.i224:                                   ; preds = %if.then.i.i5.i4099, %_ZNSt7__cxx1112basic_stringIcSt11char_traitsIcESaIcEED2Ev.exit.i4098, %lpad86.i
  %.pn.i223 = phi { ptr, i32 } [ %222, %lpad86.i ], [ %223, %_ZNSt7__cxx1112basic_stringIcSt11char_traitsIcESaIcEED2Ev.exit.i4098 ], [ %223, %if.then.i.i5.i4099 ]
  %cleanup.isactive.0.i = phi i1 [ true, %lpad86.i ], [ false, %_ZNSt7__cxx1112basic_stringIcSt11char_traitsIcESaIcEED2Ev.exit.i4098 ], [ false, %if.then.i.i5.i4099 ]
  %367 = load ptr, ptr %agg.tmp82.i, align 8, !tbaa !43
  %cmp.i.i.i352.i = icmp eq ptr %367, %174
  br i1 %cmp.i.i.i352.i, label %ehcleanup99.i, label %if.then.i.i353.i

if.then.i.i353.i:                                 ; preds = %ehcleanup.i224
  call void @_ZdlPv(ptr noundef %367) #12
  br label %ehcleanup99.i

ehcleanup99.i:                                    ; preds = %if.then.i.i353.i, %ehcleanup.i224, %lpad79.i
  %arrayinit.endOfInit.0.i = phi ptr [ %arrayinit.element74.i, %lpad79.i ], [ %arrayinit.element81.i, %if.then.i.i353.i ], [ %arrayinit.element81.i, %ehcleanup.i224 ]
  %.pn.pn.pn.i = phi { ptr, i32 } [ %221, %lpad79.i ], [ %.pn.i223, %if.then.i.i353.i ], [ %.pn.i223, %ehcleanup.i224 ]
  %cleanup.isactive.2.i = phi i1 [ true, %lpad79.i ], [ %cleanup.isactive.0.i, %if.then.i.i353.i ], [ %cleanup.isactive.0.i, %ehcleanup.i224 ]
  %368 = load ptr, ptr %agg.tmp75.i, align 8, !tbaa !43
  %cmp.i.i.i355.i = icmp eq ptr %368, %171
  br i1 %cmp.i.i.i355.i, label %ehcleanup102.i, label %if.then.i.i356.i

if.then.i.i356.i:                                 ; preds = %ehcleanup99.i
  call void @_ZdlPv(ptr noundef %368) #12
  br label %ehcleanup102.i

ehcleanup102.i:                                   ; preds = %if.then.i.i356.i, %ehcleanup99.i, %lpad77.i, %lpad72.i
  %arrayinit.endOfInit.2.i = phi ptr [ %arrayinit.element67.i, %lpad72.i ], [ %arrayinit.element74.i, %lpad77.i ], [ %arrayinit.endOfInit.0.i, %ehcleanup99.i ], [ %arrayinit.endOfInit.0.i, %if.then.i.i356.i ]
  %.pn.pn.pn.pn.pn.i = phi { ptr, i32 } [ %219, %lpad72.i ], [ %220, %lpad77.i ], [ %.pn.pn.pn.i, %ehcleanup99.i ], [ %.pn.pn.pn.i, %if.then.i.i356.i ]
  %cleanup.isactive.4.i = phi i1 [ true, %lpad72.i ], [ true, %lpad77.i ], [ %cleanup.isactive.2.i, %ehcleanup99.i ], [ %cleanup.isactive.2.i, %if.then.i.i356.i ]
  %369 = load ptr, ptr %agg.tmp68.i, align 8, !tbaa !43
  %cmp.i.i.i358.i = icmp eq ptr %369, %168
  br i1 %cmp.i.i.i358.i, label %ehcleanup105.i, label %if.then.i.i359.i

if.then.i.i359.i:                                 ; preds = %ehcleanup102.i
  call void @_ZdlPv(ptr noundef %369) #12
  br label %ehcleanup105.i

ehcleanup105.i:                                   ; preds = %if.then.i.i359.i, %ehcleanup102.i, %lpad70.i, %lpad65.i
  %arrayinit.endOfInit.4.i = phi ptr [ %arrayinit.element60.i, %lpad65.i ], [ %arrayinit.element67.i, %lpad70.i ], [ %arrayinit.endOfInit.2.i, %ehcleanup102.i ], [ %arrayinit.endOfInit.2.i, %if.then.i.i359.i ]
  %.pn.pn.pn.pn.pn.pn.pn.i = phi { ptr, i32 } [ %217, %lpad65.i ], [ %218, %lpad70.i ], [ %.pn.pn.pn.pn.pn.i, %ehcleanup102.i ], [ %.pn.pn.pn.pn.pn.i, %if.then.i.i359.i ]
  %cleanup.isactive.6.i = phi i1 [ true, %lpad65.i ], [ true, %lpad70.i ], [ %cleanup.isactive.4.i, %ehcleanup102.i ], [ %cleanup.isactive.4.i, %if.then.i.i359.i ]
  %370 = load ptr, ptr %agg.tmp61.i, align 8, !tbaa !43
  %cmp.i.i.i361.i = icmp eq ptr %370, %165
  br i1 %cmp.i.i.i361.i, label %ehcleanup108.i, label %if.then.i.i362.i

if.then.i.i362.i:                                 ; preds = %ehcleanup105.i
  call void @_ZdlPv(ptr noundef %370) #12
  br label %ehcleanup108.i

ehcleanup108.i:                                   ; preds = %if.then.i.i362.i, %ehcleanup105.i, %lpad63.i, %lpad58.i
  %arrayinit.endOfInit.6.i = phi ptr [ %arrayinit.element53.i, %lpad58.i ], [ %arrayinit.element60.i, %lpad63.i ], [ %arrayinit.endOfInit.4.i, %ehcleanup105.i ], [ %arrayinit.endOfInit.4.i, %if.then.i.i362.i ]
  %.pn.pn.pn.pn.pn.pn.pn.pn.pn.i = phi { ptr, i32 } [ %215, %lpad58.i ], [ %216, %lpad63.i ], [ %.pn.pn.pn.pn.pn.pn.pn.i, %ehcleanup105.i ], [ %.pn.pn.pn.pn.pn.pn.pn.i, %if.then.i.i362.i ]
  %cleanup.isactive.8.i = phi i1 [ true, %lpad58.i ], [ true, %lpad63.i ], [ %cleanup.isactive.6.i, %ehcleanup105.i ], [ %cleanup.isactive.6.i, %if.then.i.i362.i ]
  %371 = load ptr, ptr %agg.tmp54.i, align 8, !tbaa !43
  %cmp.i.i.i364.i = icmp eq ptr %371, %162
  br i1 %cmp.i.i.i364.i, label %ehcleanup111.i, label %if.then.i.i365.i

if.then.i.i365.i:                                 ; preds = %ehcleanup108.i
  call void @_ZdlPv(ptr noundef %371) #12
  br label %ehcleanup111.i

ehcleanup111.i:                                   ; preds = %if.then.i.i365.i, %ehcleanup108.i, %lpad56.i, %lpad51.i
  %arrayinit.endOfInit.8.i = phi ptr [ %arrayinit.element46.i, %lpad51.i ], [ %arrayinit.element53.i, %lpad56.i ], [ %arrayinit.endOfInit.6.i, %ehcleanup108.i ], [ %arrayinit.endOfInit.6.i, %if.then.i.i365.i ]
  %.pn.pn.pn.pn.pn.pn.pn.pn.pn.pn.pn.i = phi { ptr, i32 } [ %213, %lpad51.i ], [ %214, %lpad56.i ], [ %.pn.pn.pn.pn.pn.pn.pn.pn.pn.i, %ehcleanup108.i ], [ %.pn.pn.pn.pn.pn.pn.pn.pn.pn.i, %if.then.i.i365.i ]
  %cleanup.isactive.10.i = phi i1 [ true, %lpad51.i ], [ true, %lpad56.i ], [ %cleanup.isactive.8.i, %ehcleanup108.i ], [ %cleanup.isactive.8.i, %if.then.i.i365.i ]
  %372 = load ptr, ptr %agg.tmp47.i, align 8, !tbaa !43
  %cmp.i.i.i367.i = icmp eq ptr %372, %161
  br i1 %cmp.i.i.i367.i, label %ehcleanup114.i, label %if.then.i.i368.i

if.then.i.i368.i:                                 ; preds = %ehcleanup111.i
  call void @_ZdlPv(ptr noundef %372) #12
  br label %ehcleanup114.i

ehcleanup114.i:                                   ; preds = %if.then.i.i368.i, %ehcleanup111.i, %lpad44.i
  %arrayinit.endOfInit.10.i = phi ptr [ %arrayinit.element39.i, %lpad44.i ], [ %arrayinit.endOfInit.8.i, %ehcleanup111.i ], [ %arrayinit.endOfInit.8.i, %if.then.i.i368.i ]
  %.pn.pn.pn.pn.pn.pn.pn.pn.pn.pn.pn.pn.pn.i = phi { ptr, i32 } [ %212, %lpad44.i ], [ %.pn.pn.pn.pn.pn.pn.pn.pn.pn.pn.pn.i, %ehcleanup111.i ], [ %.pn.pn.pn.pn.pn.pn.pn.pn.pn.pn.pn.i, %if.then.i.i368.i ]
  %cleanup.isactive.12.i = phi i1 [ true, %lpad44.i ], [ %cleanup.isactive.10.i, %ehcleanup111.i ], [ %cleanup.isactive.10.i, %if.then.i.i368.i ]
  %373 = load ptr, ptr %agg.tmp40.i, align 8, !tbaa !43
  %cmp.i.i.i370.i = icmp eq ptr %373, %158
  br i1 %cmp.i.i.i370.i, label %ehcleanup117.i, label %if.then.i.i371.i

if.then.i.i371.i:                                 ; preds = %ehcleanup114.i
  call void @_ZdlPv(ptr noundef %373) #12
  br label %ehcleanup117.i

ehcleanup117.i:                                   ; preds = %if.then.i.i371.i, %ehcleanup114.i, %lpad42.i, %lpad37.i
  %arrayinit.endOfInit.12.i = phi ptr [ %arrayinit.element32.i, %lpad37.i ], [ %arrayinit.element39.i, %lpad42.i ], [ %arrayinit.endOfInit.10.i, %ehcleanup114.i ], [ %arrayinit.endOfInit.10.i, %if.then.i.i371.i ]
  %.pn.pn.pn.pn.pn.pn.pn.pn.pn.pn.pn.pn.pn.pn.pn.i = phi { ptr, i32 } [ %210, %lpad37.i ], [ %211, %lpad42.i ], [ %.pn.pn.pn.pn.pn.pn.pn.pn.pn.pn.pn.pn.pn.i, %ehcleanup114.i ], [ %.pn.pn.pn.pn.pn.pn.pn.pn.pn.pn.pn.pn.pn.i, %if.then.i.i371.i ]
  %cleanup.isactive.14.i = phi i1 [ true, %lpad37.i ], [ true, %lpad42.i ], [ %cleanup.isactive.12.i, %ehcleanup114.i ], [ %cleanup.isactive.12.i, %if.then.i.i371.i ]
  %374 = load ptr, ptr %agg.tmp33.i, align 8, !tbaa !43
  %cmp.i.i.i373.i = icmp eq ptr %374, %155
  br i1 %cmp.i.i.i373.i, label %ehcleanup120.i, label %if.then.i.i374.i

if.then.i.i374.i:                                 ; preds = %ehcleanup117.i
  call void @_ZdlPv(ptr noundef %374) #12
  br label %ehcleanup120.i

ehcleanup120.i:                                   ; preds = %if.then.i.i374.i, %ehcleanup117.i, %lpad35.i, %lpad30.i
  %arrayinit.endOfInit.14.i = phi ptr [ %arrayinit.element25.i, %lpad30.i ], [ %arrayinit.element32.i, %lpad35.i ], [ %arrayinit.endOfInit.12.i, %ehcleanup117.i ], [ %arrayinit.endOfInit.12.i, %if.then.i.i374.i ]
  %.pn.pn.pn.pn.pn.pn.pn.pn.pn.pn.pn.pn.pn.pn.pn.pn.pn.i = phi { ptr, i32 } [ %208, %lpad30.i ], [ %209, %lpad35.i ], [ %.pn.pn.pn.pn.pn.pn.pn.pn.pn.pn.pn.pn.pn.pn.pn.i, %ehcleanup117.i ], [ %.pn.pn.pn.pn.pn.pn.pn.pn.pn.pn.pn.pn.pn.pn.pn.i, %if.then.i.i374.i ]
  %cleanup.isactive.16.i = phi i1 [ true, %lpad30.i ], [ true, %lpad35.i ], [ %cleanup.isactive.14.i, %ehcleanup117.i ], [ %cleanup.isactive.14.i, %if.then.i.i374.i ]
  %375 = load ptr, ptr %agg.tmp26.i, align 8, !tbaa !43
  %cmp.i.i.i376.i = icmp eq ptr %375, %152
  br i1 %cmp.i.i.i376.i, label %ehcleanup123.i, label %if.then.i.i377.i

if.then.i.i377.i:                                 ; preds = %ehcleanup120.i
  call void @_ZdlPv(ptr noundef %375) #12
  br label %ehcleanup123.i

ehcleanup123.i:                                   ; preds = %if.then.i.i377.i, %ehcleanup120.i, %lpad28.i, %lpad23.i
  %arrayinit.endOfInit.16.i = phi ptr [ %arrayinit.element18.i, %lpad23.i ], [ %arrayinit.element25.i, %lpad28.i ], [ %arrayinit.endOfInit.14.i, %ehcleanup120.i ], [ %arrayinit.endOfInit.14.i, %if.then.i.i377.i ]
  %.pn.pn.pn.pn.pn.pn.pn.pn.pn.pn.pn.pn.pn.pn.pn.pn.pn.pn.pn.i = phi { ptr, i32 } [ %206, %lpad23.i ], [ %207, %lpad28.i ], [ %.pn.pn.pn.pn.pn.pn.pn.pn.pn.pn.pn.pn.pn.pn.pn.pn.pn.i, %ehcleanup120.i ], [ %.pn.pn.pn.pn.pn.pn.pn.pn.pn.pn.pn.pn.pn.pn.pn.pn.pn.i, %if.then.i.i377.i ]
  %cleanup.isactive.18.i = phi i1 [ true, %lpad23.i ], [ true, %lpad28.i ], [ %cleanup.isactive.16.i, %ehcleanup120.i ], [ %cleanup.isactive.16.i, %if.then.i.i377.i ]
  %376 = load ptr, ptr %agg.tmp19.i, align 8, !tbaa !43
  %cmp.i.i.i379.i = icmp eq ptr %376, %150
  br i1 %cmp.i.i.i379.i, label %ehcleanup126.i, label %if.then.i.i380.i

if.then.i.i380.i:                                 ; preds = %ehcleanup123.i
  call void @_ZdlPv(ptr noundef %376) #12
  br label %ehcleanup126.i

ehcleanup126.i:                                   ; preds = %if.then.i.i380.i, %ehcleanup123.i, %lpad21.i, %lpad16.i
  %arrayinit.endOfInit.18.i = phi ptr [ %arrayinit.element11.i, %lpad16.i ], [ %arrayinit.element18.i, %lpad21.i ], [ %arrayinit.endOfInit.16.i, %ehcleanup123.i ], [ %arrayinit.endOfInit.16.i, %if.then.i.i380.i ]
  %.pn.pn.pn.pn.pn.pn.pn.pn.pn.pn.pn.pn.pn.pn.pn.pn.pn.pn.pn.pn.pn.i = phi { ptr, i32 } [ %204, %lpad16.i ], [ %205, %lpad21.i ], [ %.pn.pn.pn.pn.pn.pn.pn.pn.pn.pn.pn.pn.pn.pn.pn.pn.pn.pn.pn.i, %ehcleanup123.i ], [ %.pn.pn.pn.pn.pn.pn.pn.pn.pn.pn.pn.pn.pn.pn.pn.pn.pn.pn.pn.i, %if.then.i.i380.i ]
  %cleanup.isactive.20.i = phi i1 [ true, %lpad16.i ], [ true, %lpad21.i ], [ %cleanup.isactive.18.i, %ehcleanup123.i ], [ %cleanup.isactive.18.i, %if.then.i.i380.i ]
  %377 = load ptr, ptr %agg.tmp12.i, align 8, !tbaa !43
  %cmp.i.i.i382.i = icmp eq ptr %377, %147
  br i1 %cmp.i.i.i382.i, label %ehcleanup129.i, label %if.then.i.i383.i

if.then.i.i383.i:                                 ; preds = %ehcleanup126.i
  call void @_ZdlPv(ptr noundef %377) #12
  br label %ehcleanup129.i

ehcleanup129.i:                                   ; preds = %if.then.i.i383.i, %ehcleanup126.i, %lpad14.i, %lpad9.i
  %arrayinit.endOfInit.20.i = phi ptr [ %arrayinit.element.i, %lpad9.i ], [ %arrayinit.element11.i, %lpad14.i ], [ %arrayinit.endOfInit.18.i, %ehcleanup126.i ], [ %arrayinit.endOfInit.18.i, %if.then.i.i383.i ]
  %.pn.pn.pn.pn.pn.pn.pn.pn.pn.pn.pn.pn.pn.pn.pn.pn.pn.pn.pn.pn.pn.pn.pn.i = phi { ptr, i32 } [ %202, %lpad9.i ], [ %203, %lpad14.i ], [ %.pn.pn.pn.pn.pn.pn.pn.pn.pn.pn.pn.pn.pn.pn.pn.pn.pn.pn.pn.pn.pn.i, %ehcleanup126.i ], [ %.pn.pn.pn.pn.pn.pn.pn.pn.pn.pn.pn.pn.pn.pn.pn.pn.pn.pn.pn.pn.pn.i, %if.then.i.i383.i ]
  %cleanup.isactive.22.i = phi i1 [ true, %lpad9.i ], [ true, %lpad14.i ], [ %cleanup.isactive.20.i, %ehcleanup126.i ], [ %cleanup.isactive.20.i, %if.then.i.i383.i ]
  %378 = load ptr, ptr %agg.tmp5.i, align 8, !tbaa !43
  %cmp.i.i.i385.i = icmp eq ptr %378, %144
  br i1 %cmp.i.i.i385.i, label %ehcleanup132.i, label %if.then.i.i386.i

if.then.i.i386.i:                                 ; preds = %ehcleanup129.i
  call void @_ZdlPv(ptr noundef %378) #12
  br label %ehcleanup132.i

ehcleanup132.i:                                   ; preds = %if.then.i.i386.i, %ehcleanup129.i, %lpad7.i, %lpad3.i222
  %arrayinit.endOfInit.22.i = phi ptr [ %ref.tmp.i188, %lpad3.i222 ], [ %arrayinit.element.i, %lpad7.i ], [ %arrayinit.endOfInit.20.i, %ehcleanup129.i ], [ %arrayinit.endOfInit.20.i, %if.then.i.i386.i ]
  %.pn.pn.pn.pn.pn.pn.pn.pn.pn.pn.pn.pn.pn.pn.pn.pn.pn.pn.pn.pn.pn.pn.pn.pn.pn.i = phi { ptr, i32 } [ %200, %lpad3.i222 ], [ %201, %lpad7.i ], [ %.pn.pn.pn.pn.pn.pn.pn.pn.pn.pn.pn.pn.pn.pn.pn.pn.pn.pn.pn.pn.pn.pn.pn.i, %ehcleanup129.i ], [ %.pn.pn.pn.pn.pn.pn.pn.pn.pn.pn.pn.pn.pn.pn.pn.pn.pn.pn.pn.pn.pn.pn.pn.i, %if.then.i.i386.i ]
  %cleanup.isactive.24.i = phi i1 [ true, %lpad3.i222 ], [ true, %lpad7.i ], [ %cleanup.isactive.22.i, %ehcleanup129.i ], [ %cleanup.isactive.22.i, %if.then.i.i386.i ]
  %379 = load ptr, ptr %agg.tmp1.i189, align 8, !tbaa !43
  %cmp.i.i.i388.i = icmp eq ptr %379, %142
  br i1 %cmp.i.i.i388.i, label %ehcleanup133.i, label %if.then.i.i389.i

if.then.i.i389.i:                                 ; preds = %ehcleanup132.i
  call void @_ZdlPv(ptr noundef %379) #12
  br label %ehcleanup133.i

ehcleanup133.i:                                   ; preds = %if.then.i.i389.i, %ehcleanup132.i
  %arraydestroy.isempty.i = icmp ne ptr %ref.tmp.i188, %arrayinit.endOfInit.22.i
  %or.cond.not.i = select i1 %cleanup.isactive.24.i, i1 %arraydestroy.isempty.i, i1 false
  br i1 %or.cond.not.i, label %arraydestroy.body136.i, label %cleanup.done.i

arraydestroy.body136.i:                           ; preds = %ehcleanup133.i, %_ZN8TestCaseD2Ev.exit4072
  %arraydestroy.elementPast137.i = phi ptr [ %arraydestroy.element138.i, %_ZN8TestCaseD2Ev.exit4072 ], [ %arrayinit.endOfInit.22.i, %ehcleanup133.i ]
  %arraydestroy.element138.i = getelementptr inbounds %struct.TestCase, ptr %arraydestroy.elementPast137.i, i64 -1
  %_M_refcount.i.i4045 = getelementptr %struct.TestCase, ptr %arraydestroy.elementPast137.i, i64 -1, i32 3, i32 0, i32 1
  %380 = load ptr, ptr %_M_refcount.i.i4045, align 8, !tbaa !45
  %cmp.not.i.i.i4046 = icmp eq ptr %380, null
  br i1 %cmp.not.i.i.i4046, label %_ZNSt12__shared_ptrIN9benchmark5RegexELN9__gnu_cxx12_Lock_policyE2EED2Ev.exit.i4067, label %if.then.i.i.i4049

if.then.i.i.i4049:                                ; preds = %arraydestroy.body136.i
  %_M_use_count.i.i.i.i4047 = getelementptr inbounds %"class.std::_Sp_counted_base", ptr %380, i64 0, i32 1
  %381 = load atomic i64, ptr %_M_use_count.i.i.i.i4047 acquire, align 8
  %cmp.i.i.i.i4048 = icmp eq i64 %381, 4294967297
  %382 = trunc i64 %381 to i32
  br i1 %cmp.i.i.i.i4048, label %if.then.i.i.i.i4055, label %if.end.i.i.i.i4057

if.then.i.i.i.i4055:                              ; preds = %if.then.i.i.i4049
  store i32 0, ptr %_M_use_count.i.i.i.i4047, align 8, !tbaa !47
  %_M_weak_count.i.i.i.i4050 = getelementptr inbounds %"class.std::_Sp_counted_base", ptr %380, i64 0, i32 2
  store i32 0, ptr %_M_weak_count.i.i.i.i4050, align 4, !tbaa !49
  %vtable.i.i.i.i4051 = load ptr, ptr %380, align 8, !tbaa !5
  %vfn.i.i.i.i4052 = getelementptr inbounds ptr, ptr %vtable.i.i.i.i4051, i64 2
  %383 = load ptr, ptr %vfn.i.i.i.i4052, align 8
  call void %383(ptr noundef nonnull align 8 dereferenceable(16) %380) #10
  %vtable3.i.i.i.i4053 = load ptr, ptr %380, align 8, !tbaa !5
  %vfn4.i.i.i.i4054 = getelementptr inbounds ptr, ptr %vtable3.i.i.i.i4053, i64 3
  %384 = load ptr, ptr %vfn4.i.i.i.i4054, align 8
  call void %384(ptr noundef nonnull align 8 dereferenceable(16) %380) #10
  br label %_ZNSt12__shared_ptrIN9benchmark5RegexELN9__gnu_cxx12_Lock_policyE2EED2Ev.exit.i4067

if.end.i.i.i.i4057:                               ; preds = %if.then.i.i.i4049
  %385 = load i8, ptr @__libc_single_threaded, align 1, !tbaa !8
  %tobool.i.not.i.i.i.i.i4056 = icmp eq i8 %385, 0
  br i1 %tobool.i.not.i.i.i.i.i4056, label %if.else.i.i.i.i.i4060, label %if.then.i.i.i.i.i4059

if.then.i.i.i.i.i4059:                            ; preds = %if.end.i.i.i.i4057
  %add.i.i.i.i.i.i4058 = add nsw i32 %382, -1
  store i32 %add.i.i.i.i.i.i4058, ptr %_M_use_count.i.i.i.i4047, align 8, !tbaa !10
  br label %invoke.cont.i.i.i.i4063

if.else.i.i.i.i.i4060:                            ; preds = %if.end.i.i.i.i4057
  %386 = atomicrmw volatile add ptr %_M_use_count.i.i.i.i4047, i32 -1 acq_rel, align 4
  br label %invoke.cont.i.i.i.i4063

invoke.cont.i.i.i.i4063:                          ; preds = %if.else.i.i.i.i.i4060, %if.then.i.i.i.i.i4059
  %retval.0.i.i.i.i.i4061 = phi i32 [ %382, %if.then.i.i.i.i.i4059 ], [ %386, %if.else.i.i.i.i.i4060 ]
  %cmp6.i.i.i.i4062 = icmp eq i32 %retval.0.i.i.i.i.i4061, 1
  br i1 %cmp6.i.i.i.i4062, label %if.then7.i.i.i.i4064, label %_ZNSt12__shared_ptrIN9benchmark5RegexELN9__gnu_cxx12_Lock_policyE2EED2Ev.exit.i4067, !prof !50

if.then7.i.i.i.i4064:                             ; preds = %invoke.cont.i.i.i.i4063
  call void @_ZNSt16_Sp_counted_baseILN9__gnu_cxx12_Lock_policyE2EE24_M_release_last_use_coldEv(ptr noundef nonnull align 8 dereferenceable(16) %380) #10
  br label %_ZNSt12__shared_ptrIN9benchmark5RegexELN9__gnu_cxx12_Lock_policyE2EED2Ev.exit.i4067

_ZNSt12__shared_ptrIN9benchmark5RegexELN9__gnu_cxx12_Lock_policyE2EED2Ev.exit.i4067: ; preds = %if.then7.i.i.i.i4064, %invoke.cont.i.i.i.i4063, %if.then.i.i.i.i4055, %arraydestroy.body136.i
  %substituted_regex.i4065 = getelementptr %struct.TestCase, ptr %arraydestroy.elementPast137.i, i64 -1, i32 2
  %387 = load ptr, ptr %substituted_regex.i4065, align 8, !tbaa !43
  %388 = getelementptr %struct.TestCase, ptr %arraydestroy.elementPast137.i, i64 -1, i32 2, i32 2
  %cmp.i.i.i2.i4066 = icmp eq ptr %387, %388
  br i1 %cmp.i.i.i2.i4066, label %_ZNSt7__cxx1112basic_stringIcSt11char_traitsIcESaIcEED2Ev.exit.i4070, label %if.then.i.i3.i4068

if.then.i.i3.i4068:                               ; preds = %_ZNSt12__shared_ptrIN9benchmark5RegexELN9__gnu_cxx12_Lock_policyE2EED2Ev.exit.i4067
  call void @_ZdlPv(ptr noundef %387) #12
  br label %_ZNSt7__cxx1112basic_stringIcSt11char_traitsIcESaIcEED2Ev.exit.i4070

_ZNSt7__cxx1112basic_stringIcSt11char_traitsIcESaIcEED2Ev.exit.i4070: ; preds = %if.then.i.i3.i4068, %_ZNSt12__shared_ptrIN9benchmark5RegexELN9__gnu_cxx12_Lock_policyE2EED2Ev.exit.i4067
  %389 = load ptr, ptr %arraydestroy.element138.i, align 8, !tbaa !43
  %390 = getelementptr %struct.TestCase, ptr %arraydestroy.elementPast137.i, i64 -1, i32 0, i32 2
  %cmp.i.i.i4.i4069 = icmp eq ptr %389, %390
  br i1 %cmp.i.i.i4.i4069, label %_ZN8TestCaseD2Ev.exit4072, label %if.then.i.i5.i4071

if.then.i.i5.i4071:                               ; preds = %_ZNSt7__cxx1112basic_stringIcSt11char_traitsIcESaIcEED2Ev.exit.i4070
  call void @_ZdlPv(ptr noundef %389) #12
  br label %_ZN8TestCaseD2Ev.exit4072

_ZN8TestCaseD2Ev.exit4072:                        ; preds = %_ZNSt7__cxx1112basic_stringIcSt11char_traitsIcESaIcEED2Ev.exit.i4070, %if.then.i.i5.i4071
  %arraydestroy.done139.i = icmp eq ptr %arraydestroy.element138.i, %ref.tmp.i188
  br i1 %arraydestroy.done139.i, label %cleanup.done.i, label %arraydestroy.body136.i

cleanup.done.i:                                   ; preds = %_ZN8TestCaseD2Ev.exit4072, %ehcleanup133.i
  call void @llvm.lifetime.end.p0(i64 1144, ptr nonnull %ref.tmp.i188) #10
  br label %common.resume

__cxx_global_var_init.12.exit:                    ; preds = %_ZNSt7__cxx1112basic_stringIcSt11char_traitsIcESaIcEED2Ev.exit348.i, %if.then.i.i350.i
  call void @llvm.lifetime.end.p0(i64 1144, ptr nonnull %ref.tmp.i188) #10
  store i32 %call.i193, ptr @dummy38, align 4, !tbaa !10
  call void @llvm.lifetime.end.p0(i64 32, ptr nonnull %agg.tmp1.i189)
  call void @llvm.lifetime.end.p0(i64 32, ptr nonnull %agg.tmp5.i)
  call void @llvm.lifetime.end.p0(i64 32, ptr nonnull %agg.tmp12.i)
  call void @llvm.lifetime.end.p0(i64 32, ptr nonnull %agg.tmp19.i)
  call void @llvm.lifetime.end.p0(i64 32, ptr nonnull %agg.tmp26.i)
  call void @llvm.lifetime.end.p0(i64 32, ptr nonnull %agg.tmp33.i)
  call void @llvm.lifetime.end.p0(i64 32, ptr nonnull %agg.tmp40.i)
  call void @llvm.lifetime.end.p0(i64 32, ptr nonnull %agg.tmp47.i)
  call void @llvm.lifetime.end.p0(i64 32, ptr nonnull %agg.tmp54.i)
  call void @llvm.lifetime.end.p0(i64 32, ptr nonnull %agg.tmp61.i)
  call void @llvm.lifetime.end.p0(i64 32, ptr nonnull %agg.tmp68.i)
  call void @llvm.lifetime.end.p0(i64 32, ptr nonnull %agg.tmp75.i)
  call void @llvm.lifetime.end.p0(i64 32, ptr nonnull %agg.tmp82.i)
  call void @llvm.lifetime.start.p0(i64 32, ptr nonnull %agg.tmp1.i237)
  call void @llvm.lifetime.start.p0(i64 32, ptr nonnull %agg.tmp5.i238)
  call void @llvm.lifetime.start.p0(i64 32, ptr nonnull %agg.tmp12.i239)
  call void @llvm.lifetime.start.p0(i64 32, ptr nonnull %agg.tmp19.i240)
  call void @llvm.lifetime.start.p0(i64 32, ptr nonnull %agg.tmp26.i241)
  call void @llvm.lifetime.start.p0(i64 32, ptr nonnull %agg.tmp33.i242)
  call void @llvm.lifetime.start.p0(i64 32, ptr nonnull %agg.tmp40.i243)
  call void @llvm.lifetime.start.p0(i64 32, ptr nonnull %agg.tmp47.i244)
  call void @llvm.lifetime.start.p0(i64 32, ptr nonnull %agg.tmp54.i245)
  call void @llvm.lifetime.start.p0(i64 32, ptr nonnull %agg.tmp61.i246)
  call void @llvm.lifetime.start.p0(i64 32, ptr nonnull %agg.tmp68.i247)
  call void @llvm.lifetime.start.p0(i64 32, ptr nonnull %agg.tmp75.i248)
  call void @llvm.lifetime.start.p0(i64 32, ptr nonnull %agg.tmp82.i249)
  call void @llvm.lifetime.start.p0(i64 1144, ptr nonnull %ref.tmp.i236) #10
  %391 = getelementptr inbounds %"class.std::__cxx11::basic_string", ptr %agg.tmp1.i237, i64 0, i32 2
  store ptr %391, ptr %agg.tmp1.i237, align 8, !tbaa !41
  call void @llvm.lifetime.start.p0(i64 8, ptr nonnull %__dnew.i.i.i235) #10
  store i64 44, ptr %__dnew.i.i.i235, align 8, !tbaa !42
  %call2.i11.i169.i250 = call noundef ptr @_ZNSt7__cxx1112basic_stringIcSt11char_traitsIcESaIcEE9_M_createERmm(ptr noundef nonnull align 8 dereferenceable(32) %agg.tmp1.i237, ptr noundef nonnull align 8 dereferenceable(8) %__dnew.i.i.i235, i64 noundef 0)
  store ptr %call2.i11.i169.i250, ptr %agg.tmp1.i237, align 8, !tbaa !43
  %392 = load i64, ptr %__dnew.i.i.i235, align 8, !tbaa !42
  store i64 %392, ptr %391, align 8, !tbaa !8
  call void @llvm.memcpy.p0.p0.i64(ptr noundef nonnull align 1 dereferenceable(44) %call2.i11.i169.i250, ptr noundef nonnull align 1 dereferenceable(44) @.str.13, i64 44, i1 false)
  %_M_string_length.i.i.i.i.i251 = getelementptr inbounds %"class.std::__cxx11::basic_string", ptr %agg.tmp1.i237, i64 0, i32 1
  store i64 %392, ptr %_M_string_length.i.i.i.i.i251, align 8, !tbaa !44
  %arrayidx.i.i.i.i252 = getelementptr inbounds i8, ptr %call2.i11.i169.i250, i64 %392
  store i8 0, ptr %arrayidx.i.i.i.i252, align 1, !tbaa !8
  call void @llvm.lifetime.end.p0(i64 8, ptr nonnull %__dnew.i.i.i235) #10
  invoke void @_ZN8TestCaseC1ENSt7__cxx1112basic_stringIcSt11char_traitsIcESaIcEEEi(ptr noundef nonnull align 8 dereferenceable(88) %ref.tmp.i236, ptr noundef nonnull %agg.tmp1.i237, i32 noundef 0)
          to label %invoke.cont4.i255 unwind label %lpad3.i395

invoke.cont4.i255:                                ; preds = %__cxx_global_var_init.12.exit
  %arrayinit.element.i253 = getelementptr inbounds %struct.TestCase, ptr %ref.tmp.i236, i64 1
  %393 = getelementptr inbounds %"class.std::__cxx11::basic_string", ptr %agg.tmp5.i238, i64 0, i32 2
  store ptr %393, ptr %agg.tmp5.i238, align 8, !tbaa !41
  call void @llvm.lifetime.start.p0(i64 8, ptr nonnull %__dnew.i.i170.i234) #10
  store i64 19, ptr %__dnew.i.i170.i234, align 8, !tbaa !42
  %call2.i11.i180.i254 = invoke noundef ptr @_ZNSt7__cxx1112basic_stringIcSt11char_traitsIcESaIcEE9_M_createERmm(ptr noundef nonnull align 8 dereferenceable(32) %agg.tmp5.i238, ptr noundef nonnull align 8 dereferenceable(8) %__dnew.i.i170.i234, i64 noundef 0)
          to label %call2.i11.i.noexc179.i258 unwind label %lpad7.i396

call2.i11.i.noexc179.i258:                        ; preds = %invoke.cont4.i255
  store ptr %call2.i11.i180.i254, ptr %agg.tmp5.i238, align 8, !tbaa !43
  %394 = load i64, ptr %__dnew.i.i170.i234, align 8, !tbaa !42
  store i64 %394, ptr %393, align 8, !tbaa !8
  call void @llvm.memcpy.p0.p0.i64(ptr noundef nonnull align 1 dereferenceable(19) %call2.i11.i180.i254, ptr noundef nonnull align 1 dereferenceable(19) @.str.14, i64 19, i1 false)
  %_M_string_length.i.i.i.i177.i256 = getelementptr inbounds %"class.std::__cxx11::basic_string", ptr %agg.tmp5.i238, i64 0, i32 1
  store i64 %394, ptr %_M_string_length.i.i.i.i177.i256, align 8, !tbaa !44
  %395 = load ptr, ptr %agg.tmp5.i238, align 8, !tbaa !43
  %arrayidx.i.i.i178.i257 = getelementptr inbounds i8, ptr %395, i64 %394
  store i8 0, ptr %arrayidx.i.i.i178.i257, align 1, !tbaa !8
  call void @llvm.lifetime.end.p0(i64 8, ptr nonnull %__dnew.i.i170.i234) #10
  invoke void @_ZN8TestCaseC1ENSt7__cxx1112basic_stringIcSt11char_traitsIcESaIcEEEi(ptr noundef nonnull align 8 dereferenceable(88) %arrayinit.element.i253, ptr noundef nonnull %agg.tmp5.i238, i32 noundef 1)
          to label %invoke.cont10.i261 unwind label %lpad9.i397

invoke.cont10.i261:                               ; preds = %call2.i11.i.noexc179.i258
  %arrayinit.element11.i259 = getelementptr inbounds %struct.TestCase, ptr %ref.tmp.i236, i64 2
  %396 = getelementptr inbounds %"class.std::__cxx11::basic_string", ptr %agg.tmp12.i239, i64 0, i32 2
  store ptr %396, ptr %agg.tmp12.i239, align 8, !tbaa !41
  call void @llvm.lifetime.start.p0(i64 8, ptr nonnull %__dnew.i.i182.i233) #10
  store i64 32, ptr %__dnew.i.i182.i233, align 8, !tbaa !42
  %call2.i11.i192.i260 = invoke noundef ptr @_ZNSt7__cxx1112basic_stringIcSt11char_traitsIcESaIcEE9_M_createERmm(ptr noundef nonnull align 8 dereferenceable(32) %agg.tmp12.i239, ptr noundef nonnull align 8 dereferenceable(8) %__dnew.i.i182.i233, i64 noundef 0)
          to label %call2.i11.i.noexc191.i264 unwind label %lpad14.i398

call2.i11.i.noexc191.i264:                        ; preds = %invoke.cont10.i261
  store ptr %call2.i11.i192.i260, ptr %agg.tmp12.i239, align 8, !tbaa !43
  %397 = load i64, ptr %__dnew.i.i182.i233, align 8, !tbaa !42
  store i64 %397, ptr %396, align 8, !tbaa !8
  call void @llvm.memcpy.p0.p0.i64(ptr noundef nonnull align 1 dereferenceable(32) %call2.i11.i192.i260, ptr noundef nonnull align 1 dereferenceable(32) @.str.15, i64 32, i1 false)
  %_M_string_length.i.i.i.i189.i262 = getelementptr inbounds %"class.std::__cxx11::basic_string", ptr %agg.tmp12.i239, i64 0, i32 1
  store i64 %397, ptr %_M_string_length.i.i.i.i189.i262, align 8, !tbaa !44
  %398 = load ptr, ptr %agg.tmp12.i239, align 8, !tbaa !43
  %arrayidx.i.i.i190.i263 = getelementptr inbounds i8, ptr %398, i64 %397
  store i8 0, ptr %arrayidx.i.i.i190.i263, align 1, !tbaa !8
  call void @llvm.lifetime.end.p0(i64 8, ptr nonnull %__dnew.i.i182.i233) #10
  invoke void @_ZN8TestCaseC1ENSt7__cxx1112basic_stringIcSt11char_traitsIcESaIcEEEi(ptr noundef nonnull align 8 dereferenceable(88) %arrayinit.element11.i259, ptr noundef nonnull %agg.tmp12.i239, i32 noundef 1)
          to label %invoke.cont17.i267 unwind label %lpad16.i399

invoke.cont17.i267:                               ; preds = %call2.i11.i.noexc191.i264
  %arrayinit.element18.i265 = getelementptr inbounds %struct.TestCase, ptr %ref.tmp.i236, i64 3
  %399 = getelementptr inbounds %"class.std::__cxx11::basic_string", ptr %agg.tmp19.i240, i64 0, i32 2
  store ptr %399, ptr %agg.tmp19.i240, align 8, !tbaa !41
  call void @llvm.lifetime.start.p0(i64 8, ptr nonnull %__dnew.i.i194.i232) #10
  store i64 48, ptr %__dnew.i.i194.i232, align 8, !tbaa !42
  %call2.i11.i204.i266 = invoke noundef ptr @_ZNSt7__cxx1112basic_stringIcSt11char_traitsIcESaIcEE9_M_createERmm(ptr noundef nonnull align 8 dereferenceable(32) %agg.tmp19.i240, ptr noundef nonnull align 8 dereferenceable(8) %__dnew.i.i194.i232, i64 noundef 0)
          to label %call2.i11.i.noexc203.i270 unwind label %lpad21.i400

call2.i11.i.noexc203.i270:                        ; preds = %invoke.cont17.i267
  store ptr %call2.i11.i204.i266, ptr %agg.tmp19.i240, align 8, !tbaa !43
  %400 = load i64, ptr %__dnew.i.i194.i232, align 8, !tbaa !42
  store i64 %400, ptr %399, align 8, !tbaa !8
  call void @llvm.memcpy.p0.p0.i64(ptr noundef nonnull align 1 dereferenceable(48) %call2.i11.i204.i266, ptr noundef nonnull align 1 dereferenceable(48) @.str.16, i64 48, i1 false)
  %_M_string_length.i.i.i.i201.i268 = getelementptr inbounds %"class.std::__cxx11::basic_string", ptr %agg.tmp19.i240, i64 0, i32 1
  store i64 %400, ptr %_M_string_length.i.i.i.i201.i268, align 8, !tbaa !44
  %arrayidx.i.i.i202.i269 = getelementptr inbounds i8, ptr %call2.i11.i204.i266, i64 %400
  store i8 0, ptr %arrayidx.i.i.i202.i269, align 1, !tbaa !8
  call void @llvm.lifetime.end.p0(i64 8, ptr nonnull %__dnew.i.i194.i232) #10
  invoke void @_ZN8TestCaseC1ENSt7__cxx1112basic_stringIcSt11char_traitsIcESaIcEEEi(ptr noundef nonnull align 8 dereferenceable(88) %arrayinit.element18.i265, ptr noundef nonnull %agg.tmp19.i240, i32 noundef 1)
          to label %invoke.cont24.i273 unwind label %lpad23.i401

invoke.cont24.i273:                               ; preds = %call2.i11.i.noexc203.i270
  %arrayinit.element25.i271 = getelementptr inbounds %struct.TestCase, ptr %ref.tmp.i236, i64 4
  %401 = getelementptr inbounds %"class.std::__cxx11::basic_string", ptr %agg.tmp26.i241, i64 0, i32 2
  store ptr %401, ptr %agg.tmp26.i241, align 8, !tbaa !41
  call void @llvm.lifetime.start.p0(i64 8, ptr nonnull %__dnew.i.i206.i231) #10
  store i64 25, ptr %__dnew.i.i206.i231, align 8, !tbaa !42
  %call2.i11.i216.i272 = invoke noundef ptr @_ZNSt7__cxx1112basic_stringIcSt11char_traitsIcESaIcEE9_M_createERmm(ptr noundef nonnull align 8 dereferenceable(32) %agg.tmp26.i241, ptr noundef nonnull align 8 dereferenceable(8) %__dnew.i.i206.i231, i64 noundef 0)
          to label %call2.i11.i.noexc215.i276 unwind label %lpad28.i402

call2.i11.i.noexc215.i276:                        ; preds = %invoke.cont24.i273
  store ptr %call2.i11.i216.i272, ptr %agg.tmp26.i241, align 8, !tbaa !43
  %402 = load i64, ptr %__dnew.i.i206.i231, align 8, !tbaa !42
  store i64 %402, ptr %401, align 8, !tbaa !8
  call void @llvm.memcpy.p0.p0.i64(ptr noundef nonnull align 1 dereferenceable(25) %call2.i11.i216.i272, ptr noundef nonnull align 1 dereferenceable(25) @.str.17, i64 25, i1 false)
  %_M_string_length.i.i.i.i213.i274 = getelementptr inbounds %"class.std::__cxx11::basic_string", ptr %agg.tmp26.i241, i64 0, i32 1
  store i64 %402, ptr %_M_string_length.i.i.i.i213.i274, align 8, !tbaa !44
  %403 = load ptr, ptr %agg.tmp26.i241, align 8, !tbaa !43
  %arrayidx.i.i.i214.i275 = getelementptr inbounds i8, ptr %403, i64 %402
  store i8 0, ptr %arrayidx.i.i.i214.i275, align 1, !tbaa !8
  call void @llvm.lifetime.end.p0(i64 8, ptr nonnull %__dnew.i.i206.i231) #10
  invoke void @_ZN8TestCaseC1ENSt7__cxx1112basic_stringIcSt11char_traitsIcESaIcEEEi(ptr noundef nonnull align 8 dereferenceable(88) %arrayinit.element25.i271, ptr noundef nonnull %agg.tmp26.i241, i32 noundef 1)
          to label %invoke.cont31.i279 unwind label %lpad30.i403

invoke.cont31.i279:                               ; preds = %call2.i11.i.noexc215.i276
  %arrayinit.element32.i277 = getelementptr inbounds %struct.TestCase, ptr %ref.tmp.i236, i64 5
  %404 = getelementptr inbounds %"class.std::__cxx11::basic_string", ptr %agg.tmp33.i242, i64 0, i32 2
  store ptr %404, ptr %agg.tmp33.i242, align 8, !tbaa !41
  call void @llvm.lifetime.start.p0(i64 8, ptr nonnull %__dnew.i.i218.i230) #10
  store i64 18, ptr %__dnew.i.i218.i230, align 8, !tbaa !42
  %call2.i11.i228.i278 = invoke noundef ptr @_ZNSt7__cxx1112basic_stringIcSt11char_traitsIcESaIcEE9_M_createERmm(ptr noundef nonnull align 8 dereferenceable(32) %agg.tmp33.i242, ptr noundef nonnull align 8 dereferenceable(8) %__dnew.i.i218.i230, i64 noundef 0)
          to label %call2.i11.i.noexc227.i282 unwind label %lpad35.i404

call2.i11.i.noexc227.i282:                        ; preds = %invoke.cont31.i279
  store ptr %call2.i11.i228.i278, ptr %agg.tmp33.i242, align 8, !tbaa !43
  %405 = load i64, ptr %__dnew.i.i218.i230, align 8, !tbaa !42
  store i64 %405, ptr %404, align 8, !tbaa !8
  call void @llvm.memcpy.p0.p0.i64(ptr noundef nonnull align 1 dereferenceable(18) %call2.i11.i228.i278, ptr noundef nonnull align 1 dereferenceable(18) @.str.18, i64 18, i1 false)
  %_M_string_length.i.i.i.i225.i280 = getelementptr inbounds %"class.std::__cxx11::basic_string", ptr %agg.tmp33.i242, i64 0, i32 1
  store i64 %405, ptr %_M_string_length.i.i.i.i225.i280, align 8, !tbaa !44
  %406 = load ptr, ptr %agg.tmp33.i242, align 8, !tbaa !43
  %arrayidx.i.i.i226.i281 = getelementptr inbounds i8, ptr %406, i64 %405
  store i8 0, ptr %arrayidx.i.i.i226.i281, align 1, !tbaa !8
  call void @llvm.lifetime.end.p0(i64 8, ptr nonnull %__dnew.i.i218.i230) #10
  invoke void @_ZN8TestCaseC1ENSt7__cxx1112basic_stringIcSt11char_traitsIcESaIcEEEi(ptr noundef nonnull align 8 dereferenceable(88) %arrayinit.element32.i277, ptr noundef nonnull %agg.tmp33.i242, i32 noundef 1)
          to label %invoke.cont38.i285 unwind label %lpad37.i405

invoke.cont38.i285:                               ; preds = %call2.i11.i.noexc227.i282
  %arrayinit.element39.i283 = getelementptr inbounds %struct.TestCase, ptr %ref.tmp.i236, i64 6
  %407 = getelementptr inbounds %"class.std::__cxx11::basic_string", ptr %agg.tmp40.i243, i64 0, i32 2
  store ptr %407, ptr %agg.tmp40.i243, align 8, !tbaa !41
  call void @llvm.lifetime.start.p0(i64 8, ptr nonnull %__dnew.i.i230.i229) #10
  store i64 23, ptr %__dnew.i.i230.i229, align 8, !tbaa !42
