; ModuleID = '/usr/local/google/home/aeubanks/repos/test-suite/MicroBenchmarks/libs/benchmark/test/complexity_test.cc'
source_filename = "/usr/local/google/home/aeubanks/repos/test-suite/MicroBenchmarks/libs/benchmark/test/complexity_test.cc"
target datalayout = "e-m:e-p270:32:32-p271:32:32-p272:64:64-i64:64-f80:128-n8:16:32:64-S128"
target triple = "x86_64-unknown-linux-gnu"

%"class.std::ios_base::Init" = type { i8 }
%"class.std::__cxx11::basic_string" = type { %"struct.std::__cxx11::basic_string<char>::_Alloc_hider", i64, %union.anon }
%"struct.std::__cxx11::basic_string<char>::_Alloc_hider" = type { ptr }
%union.anon = type { i64, [8 x i8] }
%"class.benchmark::State" = type { i64, i64, i64, i8, i8, i8, %"class.std::vector", i64, %"class.std::map", i32, i32, ptr, ptr, ptr }
%"class.std::vector" = type { %"struct.std::_Vector_base" }
%"struct.std::_Vector_base" = type { %"struct.std::_Vector_base<long, std::allocator<long>>::_Vector_impl" }
%"struct.std::_Vector_base<long, std::allocator<long>>::_Vector_impl" = type { %"struct.std::_Vector_base<long, std::allocator<long>>::_Vector_impl_data" }
%"struct.std::_Vector_base<long, std::allocator<long>>::_Vector_impl_data" = type { ptr, ptr, ptr }
%"class.std::map" = type { %"class.std::_Rb_tree" }
%"class.std::_Rb_tree" = type { %"struct.std::_Rb_tree<std::__cxx11::basic_string<char>, std::pair<const std::__cxx11::basic_string<char>, benchmark::Counter>, std::_Select1st<std::pair<const std::__cxx11::basic_string<char>, benchmark::Counter>>, std::less<std::__cxx11::basic_string<char>>>::_Rb_tree_impl" }
%"struct.std::_Rb_tree<std::__cxx11::basic_string<char>, std::pair<const std::__cxx11::basic_string<char>, benchmark::Counter>, std::_Select1st<std::pair<const std::__cxx11::basic_string<char>, benchmark::Counter>>, std::less<std::__cxx11::basic_string<char>>>::_Rb_tree_impl" = type { %"struct.std::_Rb_tree_key_compare", %"struct.std::_Rb_tree_header" }
%"struct.std::_Rb_tree_key_compare" = type { %"struct.std::less" }
%"struct.std::less" = type { i8 }
%"struct.std::_Rb_tree_header" = type { %"struct.std::_Rb_tree_node_base", i64 }
%"struct.std::_Rb_tree_node_base" = type { i32, ptr, ptr, ptr }
%"struct.std::pair.43" = type { %"class.std::__cxx11::basic_string", %"class.std::__cxx11::basic_string" }
%struct.TestCase = type { %"class.std::__cxx11::basic_string", i32, %"class.std::__cxx11::basic_string", %"class.std::shared_ptr" }
%"class.std::shared_ptr" = type { %"class.std::__shared_ptr" }
%"class.std::__shared_ptr" = type { ptr, %"class.std::__shared_count" }
%"class.std::__shared_count" = type { ptr }
%"class.std::_Sp_counted_base" = type { ptr, i32, i32 }
%"class.std::vector.26" = type { %"struct.std::_Vector_base.27" }
%"struct.std::_Vector_base.27" = type { %"struct.std::_Vector_base<int, std::allocator<int>>::_Vector_impl" }
%"struct.std::_Vector_base<int, std::allocator<int>>::_Vector_impl" = type { %"struct.std::_Vector_base<int, std::allocator<int>>::_Vector_impl_data" }
%"struct.std::_Vector_base<int, std::allocator<int>>::_Vector_impl_data" = type { ptr, ptr, ptr }
%"struct.__gnu_cxx::__ops::_Iter_less_iter" = type { i8 }
%"class.std::vector.37" = type { %"struct.std::_Vector_base.38" }
%"struct.std::_Vector_base.38" = type { %"struct.std::_Vector_base<std::pair<long, long>, std::allocator<std::pair<long, long>>>::_Vector_impl" }
%"struct.std::_Vector_base<std::pair<long, long>, std::allocator<std::pair<long, long>>>::_Vector_impl" = type { %"struct.std::_Vector_base<std::pair<long, long>, std::allocator<std::pair<long, long>>>::_Vector_impl_data" }
%"struct.std::_Vector_base<std::pair<long, long>, std::allocator<std::pair<long, long>>>::_Vector_impl_data" = type { ptr, ptr, ptr }
%"class.benchmark::internal::FunctionBenchmark" = type { %"class.benchmark::internal::Benchmark", ptr }
%"class.benchmark::internal::Benchmark" = type { ptr, %"class.std::__cxx11::basic_string", i32, %"class.std::vector.6", %"class.std::vector.11", i32, i8, i32, double, i64, i32, i8, i8, i8, i32, ptr, %"class.std::vector.16", %"class.std::vector.26", ptr, ptr }
%"class.std::vector.6" = type { %"struct.std::_Vector_base.7" }
%"struct.std::_Vector_base.7" = type { %"struct.std::_Vector_base<std::__cxx11::basic_string<char>, std::allocator<std::__cxx11::basic_string<char>>>::_Vector_impl" }
%"struct.std::_Vector_base<std::__cxx11::basic_string<char>, std::allocator<std::__cxx11::basic_string<char>>>::_Vector_impl" = type { %"struct.std::_Vector_base<std::__cxx11::basic_string<char>, std::allocator<std::__cxx11::basic_string<char>>>::_Vector_impl_data" }
%"struct.std::_Vector_base<std::__cxx11::basic_string<char>, std::allocator<std::__cxx11::basic_string<char>>>::_Vector_impl_data" = type { ptr, ptr, ptr }
%"class.std::vector.11" = type { %"struct.std::_Vector_base.12" }
%"struct.std::_Vector_base.12" = type { %"struct.std::_Vector_base<std::vector<long>, std::allocator<std::vector<long>>>::_Vector_impl" }
%"struct.std::_Vector_base<std::vector<long>, std::allocator<std::vector<long>>>::_Vector_impl" = type { %"struct.std::_Vector_base<std::vector<long>, std::allocator<std::vector<long>>>::_Vector_impl_data" }
%"struct.std::_Vector_base<std::vector<long>, std::allocator<std::vector<long>>>::_Vector_impl_data" = type { ptr, ptr, ptr }
%"class.std::vector.16" = type { %"struct.std::_Vector_base.17" }
%"struct.std::_Vector_base.17" = type { %"struct.std::_Vector_base<benchmark::internal::Statistics, std::allocator<benchmark::internal::Statistics>>::_Vector_impl" }
%"struct.std::_Vector_base<benchmark::internal::Statistics, std::allocator<benchmark::internal::Statistics>>::_Vector_impl" = type { %"struct.std::_Vector_base<benchmark::internal::Statistics, std::allocator<benchmark::internal::Statistics>>::_Vector_impl_data" }
%"struct.std::_Vector_base<benchmark::internal::Statistics, std::allocator<benchmark::internal::Statistics>>::_Vector_impl_data" = type { ptr, ptr, ptr }
%"struct.std::pair" = type { i64, i64 }

$_ZNSt4pairINSt7__cxx1112basic_stringIcSt11char_traitsIcESaIcEEES5_EC2IRA6_KcRKS5_Lb1EEEOT_OT0_ = comdat any

$_ZNSt4pairINSt7__cxx1112basic_stringIcSt11char_traitsIcESaIcEEES5_EC2IRA11_KcRKS5_Lb1EEEOT_OT0_ = comdat any

$_ZNSt4pairINSt7__cxx1112basic_stringIcSt11char_traitsIcESaIcEEES5_EC2IRA10_KcRKS5_Lb1EEEOT_OT0_ = comdat any

$_ZStplIcSt11char_traitsIcESaIcEENSt7__cxx1112basic_stringIT_T0_T1_EEPKS5_RKS8_ = comdat any

$_ZNSt4pairINSt7__cxx1112basic_stringIcSt11char_traitsIcESaIcEEES5_EC2IRA5_KcRA13_S8_Lb1EEEOT_OT0_ = comdat any

$_ZNSt4pairINSt7__cxx1112basic_stringIcSt11char_traitsIcESaIcEEES5_ED2Ev = comdat any

$_ZN8TestCaseD2Ev = comdat any

$__clang_call_terminate = comdat any

$_ZNSt16_Sp_counted_baseILN9__gnu_cxx12_Lock_policyE2EE24_M_release_last_use_coldEv = comdat any

$_ZSt16__introsort_loopIN9__gnu_cxx17__normal_iteratorIPiSt6vectorIiSaIiEEEElNS0_5__ops15_Iter_less_iterEEvT_S9_T0_T1_ = comdat any

$_ZSt22__final_insertion_sortIN9__gnu_cxx17__normal_iteratorIPiSt6vectorIiSaIiEEEENS0_5__ops15_Iter_less_iterEEvT_S9_T0_ = comdat any

$_ZSt11__make_heapIN9__gnu_cxx17__normal_iteratorIPiSt6vectorIiSaIiEEEENS0_5__ops15_Iter_less_iterEEvT_S9_RT0_ = comdat any

$_ZZNSt8__detail18__to_chars_10_implIjEEvPcjT_E8__digits = comdat any

@_ZStL8__ioinit = internal global %"class.std::ios_base::Init" zeroinitializer, align 1
@__dso_handle = external hidden global i8
@_ZL27benchmark_uniq_2_benchmark_ = internal unnamed_addr global ptr null, align 8
@.str = private unnamed_addr constant [17 x i8] c"BM_Complexity_O1\00", align 1
@_ZL27benchmark_uniq_3_benchmark_ = internal unnamed_addr global ptr null, align 8
@_ZL27benchmark_uniq_4_benchmark_ = internal unnamed_addr global ptr null, align 8
@one_test_name = hidden local_unnamed_addr global ptr @.str, align 8
@.str.5 = private unnamed_addr constant [22 x i8] c"BM_Complexity_O1_BigO\00", align 1
@big_o_1_test_name = hidden local_unnamed_addr global ptr @.str.5, align 8
@.str.6 = private unnamed_addr constant [21 x i8] c"BM_Complexity_O1_RMS\00", align 1
@rms_o_1_test_name = hidden local_unnamed_addr global ptr @.str.6, align 8
@.str.7 = private unnamed_addr constant [11 x i8] c"\\([0-9]+\\)\00", align 1
@enum_big_o_1 = hidden local_unnamed_addr global ptr @.str.7, align 8
@.str.8 = private unnamed_addr constant [19 x i8] c"(\\([0-9]+\\))|(lgN)\00", align 1
@auto_big_o_1 = hidden local_unnamed_addr global ptr @.str.8, align 8
@.str.9 = private unnamed_addr constant [7 x i8] c"f\\(N\\)\00", align 1
@lambda_big_o_1 = hidden local_unnamed_addr global ptr @.str.9, align 8
@dummy96 = hidden local_unnamed_addr global i32 0, align 4
@dummy100 = hidden local_unnamed_addr global i32 0, align 4
@dummy104 = hidden local_unnamed_addr global i32 0, align 4
@_ZL27benchmark_uniq_5_benchmark_ = internal unnamed_addr global ptr null, align 8
@.str.14 = private unnamed_addr constant [18 x i8] c"BM_Complexity_O_N\00", align 1
@_ZL27benchmark_uniq_6_benchmark_ = internal unnamed_addr global ptr null, align 8
@_ZL27benchmark_uniq_7_benchmark_ = internal unnamed_addr global ptr null, align 8
@n_test_name = hidden local_unnamed_addr global ptr @.str.14, align 8
@.str.17 = private unnamed_addr constant [23 x i8] c"BM_Complexity_O_N_BigO\00", align 1
@big_o_n_test_name = hidden local_unnamed_addr global ptr @.str.17, align 8
@.str.18 = private unnamed_addr constant [22 x i8] c"BM_Complexity_O_N_RMS\00", align 1
@rms_o_n_test_name = hidden local_unnamed_addr global ptr @.str.18, align 8
@.str.19 = private unnamed_addr constant [2 x i8] c"N\00", align 1
@enum_auto_big_o_n = hidden local_unnamed_addr global ptr @.str.19, align 8
@lambda_big_o_n = hidden local_unnamed_addr global ptr @.str.9, align 8
@dummy151 = hidden local_unnamed_addr global i32 0, align 4
@dummy155 = hidden local_unnamed_addr global i32 0, align 4
@_ZL27benchmark_uniq_8_benchmark_ = internal unnamed_addr global ptr null, align 8
@.str.23 = private unnamed_addr constant [24 x i8] c"BM_Complexity_O_N_log_N\00", align 1
@_ZL27benchmark_uniq_9_benchmark_ = internal unnamed_addr global ptr null, align 8
@_ZL28benchmark_uniq_10_benchmark_ = internal unnamed_addr global ptr null, align 8
@n_lg_n_test_name = hidden local_unnamed_addr global ptr @.str.23, align 8
@.str.26 = private unnamed_addr constant [29 x i8] c"BM_Complexity_O_N_log_N_BigO\00", align 1
@big_o_n_lg_n_test_name = hidden local_unnamed_addr global ptr @.str.26, align 8
@.str.27 = private unnamed_addr constant [28 x i8] c"BM_Complexity_O_N_log_N_RMS\00", align 1
@rms_o_n_lg_n_test_name = hidden local_unnamed_addr global ptr @.str.27, align 8
@.str.28 = private unnamed_addr constant [5 x i8] c"NlgN\00", align 1
@enum_auto_big_o_n_lg_n = hidden local_unnamed_addr global ptr @.str.28, align 8
@lambda_big_o_n_lg_n = hidden local_unnamed_addr global ptr @.str.9, align 8
@dummy193 = hidden local_unnamed_addr global i32 0, align 4
@dummy198 = hidden local_unnamed_addr global i32 0, align 4
@_ZL41benchmark_uniq_11BM_ComplexityCaptureArgs = internal unnamed_addr global ptr null, align 8
@.str.32 = private unnamed_addr constant [38 x i8] c"BM_ComplexityCaptureArgs/capture_test\00", align 1
@_ZL23complexity_capture_nameB5cxx11 = internal global %"class.std::__cxx11::basic_string" zeroinitializer, align 8
@dummy220 = hidden local_unnamed_addr global i32 0, align 4
@.str.35 = private unnamed_addr constant [6 x i8] c"_BigO\00", align 1
@.str.36 = private unnamed_addr constant [5 x i8] c"_RMS\00", align 1
@.str.38 = private unnamed_addr constant [110 x i8] c"/usr/local/google/home/aeubanks/repos/test-suite/MicroBenchmarks/libs/benchmark/include/benchmark/benchmark.h\00", align 1
@.str.39 = private unnamed_addr constant [20 x i8] c"range_.size() > pos\00", align 1
@__PRETTY_FUNCTION__._ZNK9benchmark5State5rangeEm = private unnamed_addr constant [51 x i8] c"int64_t benchmark::State::range(std::size_t) const\00", align 1
@_ZTVN9benchmark8internal17FunctionBenchmarkE = external unnamed_addr constant { [5 x ptr] }, align 8
@.str.40 = private unnamed_addr constant [6 x i8] c"%name\00", align 1
@.str.41 = private unnamed_addr constant [11 x i8] c"%bigo_name\00", align 1
@.str.42 = private unnamed_addr constant [10 x i8] c"%rms_name\00", align 1
@.str.43 = private unnamed_addr constant [10 x i8] c"%bigo_str\00", align 1
@.str.44 = private unnamed_addr constant [13 x i8] c"[ ]* %float \00", align 1
@.str.45 = private unnamed_addr constant [6 x i8] c"%bigo\00", align 1
@.str.46 = private unnamed_addr constant [5 x i8] c"%rms\00", align 1
@.str.47 = private unnamed_addr constant [13 x i8] c"[ ]*[0-9]+ %\00", align 1
@.str.48 = private unnamed_addr constant [37 x i8] c"^%bigo_name %bigo_str %bigo_str[ ]*$\00", align 1
@.str.49 = private unnamed_addr constant [12 x i8] c"^%bigo_name\00", align 1
@.str.50 = private unnamed_addr constant [26 x i8] c"^%rms_name %rms %rms[ ]*$\00", align 1
@.str.51 = private unnamed_addr constant [23 x i8] c"\22name\22: \22%bigo_name\22,$\00", align 1
@.str.52 = private unnamed_addr constant [17 x i8] c"\22family_index\22: \00", align 1
@.str.53 = private unnamed_addr constant [3 x i8] c",$\00", align 1
@.str.54 = private unnamed_addr constant [33 x i8] c"\22per_family_instance_index\22: 0,$\00", align 1
@.str.55 = private unnamed_addr constant [22 x i8] c"\22run_name\22: \22%name\22,$\00", align 1
@.str.56 = private unnamed_addr constant [26 x i8] c"\22run_type\22: \22aggregate\22,$\00", align 1
@.str.57 = private unnamed_addr constant [22 x i8] c"\22repetitions\22: %int,$\00", align 1
@.str.58 = private unnamed_addr constant [15 x i8] c"\22threads\22: 1,$\00", align 1
@.str.59 = private unnamed_addr constant [27 x i8] c"\22aggregate_name\22: \22BigO\22,$\00", align 1
@.str.60 = private unnamed_addr constant [27 x i8] c"\22aggregate_unit\22: \22time\22,$\00", align 1
@.str.61 = private unnamed_addr constant [28 x i8] c"\22cpu_coefficient\22: %float,$\00", align 1
@.str.62 = private unnamed_addr constant [29 x i8] c"\22real_coefficient\22: %float,$\00", align 1
@.str.63 = private unnamed_addr constant [19 x i8] c"\22big_o\22: \22%bigo\22,$\00", align 1
@.str.64 = private unnamed_addr constant [19 x i8] c"\22time_unit\22: \22ns\22$\00", align 1
@.str.66 = private unnamed_addr constant [22 x i8] c"\22name\22: \22%rms_name\22,$\00", align 1
@.str.67 = private unnamed_addr constant [26 x i8] c"\22aggregate_name\22: \22RMS\22,$\00", align 1
@.str.68 = private unnamed_addr constant [33 x i8] c"\22aggregate_unit\22: \22percentage\22,$\00", align 1
@.str.69 = private unnamed_addr constant [15 x i8] c"\22rms\22: %float$\00", align 1
@.str.70 = private unnamed_addr constant [41 x i8] c"^\22%bigo_name\22,,%float,%float,%bigo,,,,,$\00", align 1
@.str.71 = private unnamed_addr constant [14 x i8] c"^\22%bigo_name\22\00", align 1
@.str.72 = private unnamed_addr constant [35 x i8] c"^\22%rms_name\22,,%float,%float,,,,,,$\00", align 1
@.str.73 = private unnamed_addr constant [21 x i8] c"basic_string::append\00", align 1
@__libc_single_threaded = external local_unnamed_addr global i8, align 1
@_ZZNSt8__detail18__to_chars_10_implIjEEvPcjT_E8__digits = linkonce_odr dso_local local_unnamed_addr constant [201 x i8] c"00010203040506070809101112131415161718192021222324252627282930313233343536373839404142434445464748495051525354555657585960616263646566676869707172737475767778798081828384858687888990919293949596979899\00", comdat, align 16
@.str.76 = private unnamed_addr constant [50 x i8] c"basic_string: construction from null is not valid\00", align 1
@.str.77 = private unnamed_addr constant [16 x i8] c"vector::reserve\00", align 1
@.str.78 = private unnamed_addr constant [26 x i8] c"vector::_M_realloc_insert\00", align 1
@llvm.global_ctors = appending global [1 x { i32, ptr, ptr }] [{ i32, ptr, ptr } { i32 65535, ptr @_GLOBAL__sub_I_complexity_test.cc, ptr null }]

declare noundef i32 @_ZN9benchmark8internal17InitializeStreamsEv() local_unnamed_addr #0

declare void @_ZNSt8ios_base4InitC1Ev(ptr noundef nonnull align 1 dereferenceable(1)) unnamed_addr #0

; Function Attrs: nounwind
declare void @_ZNSt8ios_base4InitD1Ev(ptr noundef nonnull align 1 dereferenceable(1)) unnamed_addr #1

; Function Attrs: nofree nounwind
declare i32 @__cxa_atexit(ptr, ptr, ptr) local_unnamed_addr #2

; Function Attrs: uwtable
define hidden void @_Z16BM_Complexity_O1RN9benchmark5StateE(ptr noundef nonnull align 8 dereferenceable(144) %state) #3 {
entry:
  %i = alloca i32, align 4
  %error_occurred_.i.i = getelementptr inbounds %"class.benchmark::State", ptr %state, i64 0, i32 5
  %0 = load i8, ptr %error_occurred_.i.i, align 2, !tbaa !5, !range !25, !noundef !26
  %tobool.not.i.i = icmp ne i8 %0, 0
  %max_iterations.i.i = getelementptr inbounds %"class.benchmark::State", ptr %state, i64 0, i32 2
  %1 = load i64, ptr %max_iterations.i.i, align 8
  tail call void @_ZN9benchmark5State16StartKeepRunningEv(ptr noundef nonnull align 8 dereferenceable(144) %state)
  %cmp.not.i.not1618 = icmp eq i64 %1, 0
  %cmp.not.i.not16 = select i1 %tobool.not.i.i, i1 true, i1 %cmp.not.i.not1618
  br i1 %cmp.not.i.not16, label %if.end.i, label %for.body, !prof !27

if.end.i:                                         ; preds = %for.cond.cleanup4, %entry
  call void @_ZN9benchmark5State17FinishKeepRunningEv(ptr noundef nonnull align 8 dereferenceable(144) %state)
  %range_.i = getelementptr inbounds %"class.benchmark::State", ptr %state, i64 0, i32 6
  %_M_finish.i.i = getelementptr inbounds %"class.benchmark::State", ptr %state, i64 0, i32 6, i32 0, i32 0, i32 0, i32 1
  %2 = load ptr, ptr %_M_finish.i.i, align 8, !tbaa !28
  %3 = load ptr, ptr %range_.i, align 8, !tbaa !29
  %cmp.i.not = icmp eq ptr %2, %3
  br i1 %cmp.i.not, label %cond.false.i, label %_ZNK9benchmark5State5rangeEm.exit

cond.false.i:                                     ; preds = %if.end.i
  call void @__assert_fail(ptr noundef nonnull @.str.39, ptr noundef nonnull @.str.38, i32 noundef 762, ptr noundef nonnull @__PRETTY_FUNCTION__._ZNK9benchmark5State5rangeEm) #24
  unreachable

_ZNK9benchmark5State5rangeEm.exit:                ; preds = %if.end.i
  %4 = load i64, ptr %3, align 8, !tbaa !30
  %complexity_n_.i = getelementptr inbounds %"class.benchmark::State", ptr %state, i64 0, i32 7
  store i64 %4, ptr %complexity_n_.i, align 8, !tbaa !31
  ret void

for.body:                                         ; preds = %entry, %for.cond.cleanup4
  %__begin1.sroa.0.017 = phi i64 [ %dec.i, %for.cond.cleanup4 ], [ %1, %entry ]
  call void @llvm.lifetime.start.p0(i64 4, ptr nonnull %i) #25
  store i32 0, ptr %i, align 4, !tbaa !32
  br label %for.body5

for.cond.cleanup4:                                ; preds = %for.body5
  call void @llvm.lifetime.end.p0(i64 4, ptr nonnull %i) #25
  %dec.i = add i64 %__begin1.sroa.0.017, -1
  %cmp.not.i.not = icmp eq i64 %dec.i, 0
  br i1 %cmp.not.i.not, label %if.end.i, label %for.body, !prof !27

for.body5:                                        ; preds = %for.body, %for.body5
  call void asm sideeffect "", "r|m,~{memory},~{dirflag},~{fpsr},~{flags}"(ptr nonnull %i) #25, !srcloc !33
  %5 = load i32, ptr %i, align 4, !tbaa !32
  %inc = add nsw i32 %5, 1
  store i32 %inc, ptr %i, align 4, !tbaa !32
  %cmp = icmp slt i32 %5, 1023
  br i1 %cmp, label %for.body5, label %for.cond.cleanup4, !llvm.loop !34
}

; Function Attrs: mustprogress nocallback nofree nosync nounwind willreturn memory(argmem: readwrite)
declare void @llvm.lifetime.start.p0(i64 immarg, ptr nocapture) #4

; Function Attrs: mustprogress nocallback nofree nosync nounwind willreturn memory(argmem: readwrite)
declare void @llvm.lifetime.end.p0(i64 immarg, ptr nocapture) #4

declare noundef ptr @_ZN9benchmark8internal25RegisterBenchmarkInternalEPNS0_9BenchmarkE(ptr noundef) local_unnamed_addr #0

; Function Attrs: nobuiltin allocsize(0)
declare noundef nonnull ptr @_Znwm(i64 noundef) local_unnamed_addr #5

declare i32 @__gxx_personality_v0(...)

; Function Attrs: nobuiltin nounwind
declare void @_ZdlPv(ptr noundef) local_unnamed_addr #6

declare noundef ptr @_ZN9benchmark8internal9Benchmark5RangeEll(ptr noundef nonnull align 8 dereferenceable(216), i64 noundef, i64 noundef) local_unnamed_addr #0

declare noundef ptr @_ZN9benchmark8internal9Benchmark10ComplexityENS_4BigOE(ptr noundef nonnull align 8 dereferenceable(216), i32 noundef) local_unnamed_addr #0

declare noundef ptr @_ZN9benchmark8internal9Benchmark10ComplexityEPFdmE(ptr noundef nonnull align 8 dereferenceable(216), ptr noundef) local_unnamed_addr #0

; Function Attrs: uwtable
define internal fastcc void @_ZN12_GLOBAL__N_117AddComplexityTestERKNSt7__cxx1112basic_stringIcSt11char_traitsIcESaIcEEES7_S7_S7_i(ptr noundef nonnull align 8 dereferenceable(32) %test_name, ptr noundef nonnull align 8 dereferenceable(32) %big_o_test_name, ptr noundef nonnull align 8 dereferenceable(32) %rms_test_name, ptr noundef nonnull align 8 dereferenceable(32) %big_o, i32 noundef %family_index) unnamed_addr #3 personality ptr @__gxx_personality_v0 {
entry:
  %__dnew.i.i1075 = alloca i64, align 8
  %__dnew.i.i1051 = alloca i64, align 8
  %__dnew.i.i871 = alloca i64, align 8
  %__dnew.i.i859 = alloca i64, align 8
  %__dnew.i.i835 = alloca i64, align 8
  %__dnew.i.i823 = alloca i64, align 8
  %__dnew.i.i811 = alloca i64, align 8
  %__dnew.i.i799 = alloca i64, align 8
  %__dnew.i.i691 = alloca i64, align 8
  %__dnew.i.i667 = alloca i64, align 8
  %__dnew.i.i655 = alloca i64, align 8
  %__dnew.i.i643 = alloca i64, align 8
  %__dnew.i.i631 = alloca i64, align 8
  %__dnew.i.i619 = alloca i64, align 8
  %__dnew.i.i607 = alloca i64, align 8
  %__dnew.i.i583 = alloca i64, align 8
  %__dnew.i.i571 = alloca i64, align 8
  %__dnew.i.i559 = alloca i64, align 8
  %__dnew.i.i547 = alloca i64, align 8
  %__dnew.i.i506 = alloca i64, align 8
  %__dnew.i.i478 = alloca i64, align 8
  %__dnew.i.i = alloca i64, align 8
  %ref.tmp = alloca [6 x %"struct.std::pair.43"], align 8
  %ref.tmp5 = alloca %"class.std::__cxx11::basic_string", align 8
  %ref.tmp32 = alloca [3 x %struct.TestCase], align 8
  %agg.tmp35 = alloca %"class.std::__cxx11::basic_string", align 8
  %agg.tmp42 = alloca %"class.std::__cxx11::basic_string", align 8
  %agg.tmp49 = alloca %"class.std::__cxx11::basic_string", align 8
  %ref.tmp96 = alloca [25 x %struct.TestCase], align 8
  %agg.tmp99 = alloca %"class.std::__cxx11::basic_string", align 8
  %agg.tmp106 = alloca %"class.std::__cxx11::basic_string", align 8
  %ref.tmp107 = alloca %"class.std::__cxx11::basic_string", align 8
  %ref.tmp108 = alloca %"class.std::__cxx11::basic_string", align 8
  %agg.tmp116 = alloca %"class.std::__cxx11::basic_string", align 8
  %agg.tmp123 = alloca %"class.std::__cxx11::basic_string", align 8
  %agg.tmp130 = alloca %"class.std::__cxx11::basic_string", align 8
  %agg.tmp137 = alloca %"class.std::__cxx11::basic_string", align 8
  %agg.tmp144 = alloca %"class.std::__cxx11::basic_string", align 8
  %agg.tmp151 = alloca %"class.std::__cxx11::basic_string", align 8
  %agg.tmp158 = alloca %"class.std::__cxx11::basic_string", align 8
  %agg.tmp165 = alloca %"class.std::__cxx11::basic_string", align 8
  %agg.tmp172 = alloca %"class.std::__cxx11::basic_string", align 8
  %agg.tmp179 = alloca %"class.std::__cxx11::basic_string", align 8
  %agg.tmp186 = alloca %"class.std::__cxx11::basic_string", align 8
  %agg.tmp193 = alloca %"class.std::__cxx11::basic_string", align 8
  %agg.tmp200 = alloca %"class.std::__cxx11::basic_string", align 8
  %agg.tmp207 = alloca %"class.std::__cxx11::basic_string", align 8
  %ref.tmp208 = alloca %"class.std::__cxx11::basic_string", align 8
  %ref.tmp209 = alloca %"class.std::__cxx11::basic_string", align 8
  %agg.tmp217 = alloca %"class.std::__cxx11::basic_string", align 8
  %agg.tmp224 = alloca %"class.std::__cxx11::basic_string", align 8
  %agg.tmp231 = alloca %"class.std::__cxx11::basic_string", align 8
  %agg.tmp238 = alloca %"class.std::__cxx11::basic_string", align 8
  %agg.tmp245 = alloca %"class.std::__cxx11::basic_string", align 8
  %agg.tmp252 = alloca %"class.std::__cxx11::basic_string", align 8
  %agg.tmp259 = alloca %"class.std::__cxx11::basic_string", align 8
  %agg.tmp266 = alloca %"class.std::__cxx11::basic_string", align 8
  %agg.tmp273 = alloca %"class.std::__cxx11::basic_string", align 8
  %ref.tmp390 = alloca [3 x %struct.TestCase], align 8
  %agg.tmp393 = alloca %"class.std::__cxx11::basic_string", align 8
  %agg.tmp400 = alloca %"class.std::__cxx11::basic_string", align 8
  %agg.tmp407 = alloca %"class.std::__cxx11::basic_string", align 8
  call void @llvm.lifetime.start.p0(i64 384, ptr nonnull %ref.tmp) #25
  invoke void @_ZNSt4pairINSt7__cxx1112basic_stringIcSt11char_traitsIcESaIcEEES5_EC2IRA6_KcRKS5_Lb1EEEOT_OT0_(ptr noundef nonnull align 8 dereferenceable(64) %ref.tmp, ptr noundef nonnull align 1 dereferenceable(6) @.str.40, ptr noundef nonnull align 8 dereferenceable(32) %test_name)
          to label %invoke.cont unwind label %lpad

invoke.cont:                                      ; preds = %entry
  %arrayinit.element = getelementptr inbounds %"struct.std::pair.43", ptr %ref.tmp, i64 1
  invoke void @_ZNSt4pairINSt7__cxx1112basic_stringIcSt11char_traitsIcESaIcEEES5_EC2IRA11_KcRKS5_Lb1EEEOT_OT0_(ptr noundef nonnull align 8 dereferenceable(64) %arrayinit.element, ptr noundef nonnull align 1 dereferenceable(11) @.str.41, ptr noundef nonnull align 8 dereferenceable(32) %big_o_test_name)
          to label %invoke.cont1 unwind label %lpad

invoke.cont1:                                     ; preds = %invoke.cont
  %arrayinit.element2 = getelementptr inbounds %"struct.std::pair.43", ptr %ref.tmp, i64 2
  invoke void @_ZNSt4pairINSt7__cxx1112basic_stringIcSt11char_traitsIcESaIcEEES5_EC2IRA10_KcRKS5_Lb1EEEOT_OT0_(ptr noundef nonnull align 8 dereferenceable(64) %arrayinit.element2, ptr noundef nonnull align 1 dereferenceable(10) @.str.42, ptr noundef nonnull align 8 dereferenceable(32) %rms_test_name)
          to label %invoke.cont3 unwind label %lpad

invoke.cont3:                                     ; preds = %invoke.cont1
  %arrayinit.element4 = getelementptr inbounds %"struct.std::pair.43", ptr %ref.tmp, i64 3
  call void @llvm.lifetime.start.p0(i64 32, ptr nonnull %ref.tmp5) #25
  invoke void @_ZStplIcSt11char_traitsIcESaIcEENSt7__cxx1112basic_stringIT_T0_T1_EEPKS5_RKS8_(ptr nonnull sret(%"class.std::__cxx11::basic_string") align 8 %ref.tmp5, ptr noundef nonnull @.str.44, ptr noundef nonnull align 8 dereferenceable(32) %big_o)
          to label %invoke.cont7 unwind label %lpad6

invoke.cont7:                                     ; preds = %invoke.cont3
  %0 = getelementptr inbounds %"struct.std::pair.43", ptr %ref.tmp, i64 3, i32 0, i32 2
  store ptr %0, ptr %arrayinit.element4, align 8, !tbaa !36
  call void @llvm.memcpy.p0.p0.i64(ptr noundef nonnull align 8 dereferenceable(9) %0, ptr noundef nonnull align 1 dereferenceable(9) @.str.43, i64 9, i1 false)
  %_M_string_length.i.i.i.i.i = getelementptr inbounds %"struct.std::pair.43", ptr %ref.tmp, i64 3, i32 0, i32 1
  store i64 9, ptr %_M_string_length.i.i.i.i.i, align 8, !tbaa !38
  %arrayidx.i.i.i.i = getelementptr inbounds %"struct.std::pair.43", ptr %ref.tmp, i64 3, i32 0, i32 2, i32 1, i64 1
  store i8 0, ptr %arrayidx.i.i.i.i, align 1, !tbaa !40
  %second.i = getelementptr inbounds %"struct.std::pair.43", ptr %ref.tmp, i64 3, i32 1
  %1 = getelementptr inbounds %"struct.std::pair.43", ptr %ref.tmp, i64 3, i32 1, i32 2
  store ptr %1, ptr %second.i, align 8, !tbaa !36
  %2 = load ptr, ptr %ref.tmp5, align 8, !tbaa !41
  %3 = getelementptr inbounds %"class.std::__cxx11::basic_string", ptr %ref.tmp5, i64 0, i32 2
  %cmp.i.i4.i = icmp eq ptr %2, %3
  br i1 %cmp.i.i4.i, label %if.then.i.i, label %if.else.i.i

if.then.i.i:                                      ; preds = %invoke.cont7
  %_M_string_length.i.i.i = getelementptr inbounds %"class.std::__cxx11::basic_string", ptr %ref.tmp5, i64 0, i32 1
  %4 = load i64, ptr %_M_string_length.i.i.i, align 8, !tbaa !38
  %add.i.i = add i64 %4, 1
  %cmp.i21.i.i = icmp eq i64 %add.i.i, 0
  br i1 %cmp.i21.i.i, label %_ZNSt4pairINSt7__cxx1112basic_stringIcSt11char_traitsIcESaIcEEES5_EC2IRA10_KcS5_Lb1EEEOT_OT0_.exit, label %if.end.i.i5.i

if.end.i.i5.i:                                    ; preds = %if.then.i.i
  call void @llvm.memcpy.p0.p0.i64(ptr nonnull align 8 %1, ptr nonnull align 8 %2, i64 %add.i.i, i1 false)
  br label %_ZNSt4pairINSt7__cxx1112basic_stringIcSt11char_traitsIcESaIcEEES5_EC2IRA10_KcS5_Lb1EEEOT_OT0_.exit

if.else.i.i:                                      ; preds = %invoke.cont7
  store ptr %2, ptr %second.i, align 8, !tbaa !41
  %5 = load i64, ptr %3, align 8, !tbaa !40
  store i64 %5, ptr %1, align 8, !tbaa !40
  %_M_string_length.i22.i.i.phi.trans.insert = getelementptr inbounds %"class.std::__cxx11::basic_string", ptr %ref.tmp5, i64 0, i32 1
  %.pre = load i64, ptr %_M_string_length.i22.i.i.phi.trans.insert, align 8, !tbaa !38
  br label %_ZNSt4pairINSt7__cxx1112basic_stringIcSt11char_traitsIcESaIcEEES5_EC2IRA10_KcS5_Lb1EEEOT_OT0_.exit

_ZNSt4pairINSt7__cxx1112basic_stringIcSt11char_traitsIcESaIcEEES5_EC2IRA10_KcS5_Lb1EEEOT_OT0_.exit: ; preds = %if.then.i.i, %if.end.i.i5.i, %if.else.i.i
  %6 = phi i64 [ -1, %if.then.i.i ], [ %4, %if.end.i.i5.i ], [ %.pre, %if.else.i.i ]
  %_M_string_length.i22.i.i = getelementptr inbounds %"class.std::__cxx11::basic_string", ptr %ref.tmp5, i64 0, i32 1
  %_M_string_length.i23.i.i = getelementptr inbounds %"struct.std::pair.43", ptr %ref.tmp, i64 3, i32 1, i32 1
  store i64 %6, ptr %_M_string_length.i23.i.i, align 8, !tbaa !38
  store ptr %3, ptr %ref.tmp5, align 8, !tbaa !41
  store i64 0, ptr %_M_string_length.i22.i.i, align 8, !tbaa !38
  store i8 0, ptr %3, align 8, !tbaa !40
  %arrayinit.element10 = getelementptr inbounds %"struct.std::pair.43", ptr %ref.tmp, i64 4
  invoke void @_ZNSt4pairINSt7__cxx1112basic_stringIcSt11char_traitsIcESaIcEEES5_EC2IRA6_KcRKS5_Lb1EEEOT_OT0_(ptr noundef nonnull align 8 dereferenceable(64) %arrayinit.element10, ptr noundef nonnull align 1 dereferenceable(6) @.str.45, ptr noundef nonnull align 8 dereferenceable(32) %big_o)
          to label %invoke.cont11 unwind label %lpad8

invoke.cont11:                                    ; preds = %_ZNSt4pairINSt7__cxx1112basic_stringIcSt11char_traitsIcESaIcEEES5_EC2IRA10_KcS5_Lb1EEEOT_OT0_.exit
  %arrayinit.element12 = getelementptr inbounds %"struct.std::pair.43", ptr %ref.tmp, i64 5
  invoke void @_ZNSt4pairINSt7__cxx1112basic_stringIcSt11char_traitsIcESaIcEEES5_EC2IRA5_KcRA13_S8_Lb1EEEOT_OT0_(ptr noundef nonnull align 8 dereferenceable(64) %arrayinit.element12, ptr noundef nonnull align 1 dereferenceable(5) @.str.46, ptr noundef nonnull align 1 dereferenceable(13) @.str.47)
          to label %invoke.cont13 unwind label %lpad8

invoke.cont13:                                    ; preds = %invoke.cont11
  %call = invoke noundef i32 @_Z16SetSubstitutionsSt16initializer_listISt4pairINSt7__cxx1112basic_stringIcSt11char_traitsIcESaIcEEES6_EE(ptr nonnull %ref.tmp, i64 6)
          to label %invoke.cont15 unwind label %lpad14

invoke.cont15:                                    ; preds = %invoke.cont13
  %arraydestroy.element = getelementptr inbounds %"struct.std::pair.43", ptr %ref.tmp, i64 5
  %second.i460 = getelementptr inbounds %"struct.std::pair.43", ptr %ref.tmp, i64 5, i32 1
  %7 = load ptr, ptr %second.i460, align 8, !tbaa !41
  %8 = getelementptr inbounds %"struct.std::pair.43", ptr %ref.tmp, i64 5, i32 1, i32 2
  %cmp.i.i.i.i = icmp eq ptr %7, %8
  br i1 %cmp.i.i.i.i, label %_ZNSt7__cxx1112basic_stringIcSt11char_traitsIcESaIcEED2Ev.exit.i, label %if.then.i.i.i461

if.then.i.i.i461:                                 ; preds = %invoke.cont15
  call void @_ZdlPv(ptr noundef %7) #26
  br label %_ZNSt7__cxx1112basic_stringIcSt11char_traitsIcESaIcEED2Ev.exit.i

_ZNSt7__cxx1112basic_stringIcSt11char_traitsIcESaIcEED2Ev.exit.i: ; preds = %if.then.i.i.i461, %invoke.cont15
  %9 = load ptr, ptr %arraydestroy.element, align 8, !tbaa !41
  %10 = getelementptr inbounds %"struct.std::pair.43", ptr %ref.tmp, i64 5, i32 0, i32 2
  %cmp.i.i.i2.i = icmp eq ptr %9, %10
  br i1 %cmp.i.i.i2.i, label %_ZNSt4pairINSt7__cxx1112basic_stringIcSt11char_traitsIcESaIcEEES5_ED2Ev.exit, label %if.then.i.i3.i

if.then.i.i3.i:                                   ; preds = %_ZNSt7__cxx1112basic_stringIcSt11char_traitsIcESaIcEED2Ev.exit.i
  call void @_ZdlPv(ptr noundef %9) #26
  br label %_ZNSt4pairINSt7__cxx1112basic_stringIcSt11char_traitsIcESaIcEEES5_ED2Ev.exit

_ZNSt4pairINSt7__cxx1112basic_stringIcSt11char_traitsIcESaIcEEES5_ED2Ev.exit: ; preds = %_ZNSt7__cxx1112basic_stringIcSt11char_traitsIcESaIcEED2Ev.exit.i, %if.then.i.i3.i
  %arraydestroy.element.1 = getelementptr inbounds %"struct.std::pair.43", ptr %ref.tmp, i64 4
  %second.i460.1 = getelementptr inbounds %"struct.std::pair.43", ptr %ref.tmp, i64 4, i32 1
  %11 = load ptr, ptr %second.i460.1, align 8, !tbaa !41
  %12 = getelementptr inbounds %"struct.std::pair.43", ptr %ref.tmp, i64 4, i32 1, i32 2
  %cmp.i.i.i.i.1 = icmp eq ptr %11, %12
  br i1 %cmp.i.i.i.i.1, label %_ZNSt7__cxx1112basic_stringIcSt11char_traitsIcESaIcEED2Ev.exit.i.1, label %if.then.i.i.i461.1

if.then.i.i.i461.1:                               ; preds = %_ZNSt4pairINSt7__cxx1112basic_stringIcSt11char_traitsIcESaIcEEES5_ED2Ev.exit
  call void @_ZdlPv(ptr noundef %11) #26
  br label %_ZNSt7__cxx1112basic_stringIcSt11char_traitsIcESaIcEED2Ev.exit.i.1

_ZNSt7__cxx1112basic_stringIcSt11char_traitsIcESaIcEED2Ev.exit.i.1: ; preds = %if.then.i.i.i461.1, %_ZNSt4pairINSt7__cxx1112basic_stringIcSt11char_traitsIcESaIcEEES5_ED2Ev.exit
  %13 = load ptr, ptr %arraydestroy.element.1, align 8, !tbaa !41
  %14 = getelementptr inbounds %"struct.std::pair.43", ptr %ref.tmp, i64 4, i32 0, i32 2
  %cmp.i.i.i2.i.1 = icmp eq ptr %13, %14
  br i1 %cmp.i.i.i2.i.1, label %_ZNSt4pairINSt7__cxx1112basic_stringIcSt11char_traitsIcESaIcEEES5_ED2Ev.exit.1, label %if.then.i.i3.i.1

if.then.i.i3.i.1:                                 ; preds = %_ZNSt7__cxx1112basic_stringIcSt11char_traitsIcESaIcEED2Ev.exit.i.1
  call void @_ZdlPv(ptr noundef %13) #26
  br label %_ZNSt4pairINSt7__cxx1112basic_stringIcSt11char_traitsIcESaIcEEES5_ED2Ev.exit.1

_ZNSt4pairINSt7__cxx1112basic_stringIcSt11char_traitsIcESaIcEEES5_ED2Ev.exit.1: ; preds = %if.then.i.i3.i.1, %_ZNSt7__cxx1112basic_stringIcSt11char_traitsIcESaIcEED2Ev.exit.i.1
  %arraydestroy.element.2 = getelementptr inbounds %"struct.std::pair.43", ptr %ref.tmp, i64 3
  %second.i460.2 = getelementptr inbounds %"struct.std::pair.43", ptr %ref.tmp, i64 3, i32 1
  %15 = load ptr, ptr %second.i460.2, align 8, !tbaa !41
  %16 = getelementptr inbounds %"struct.std::pair.43", ptr %ref.tmp, i64 3, i32 1, i32 2
  %cmp.i.i.i.i.2 = icmp eq ptr %15, %16
  br i1 %cmp.i.i.i.i.2, label %_ZNSt7__cxx1112basic_stringIcSt11char_traitsIcESaIcEED2Ev.exit.i.2, label %if.then.i.i.i461.2

if.then.i.i.i461.2:                               ; preds = %_ZNSt4pairINSt7__cxx1112basic_stringIcSt11char_traitsIcESaIcEEES5_ED2Ev.exit.1
  call void @_ZdlPv(ptr noundef %15) #26
  br label %_ZNSt7__cxx1112basic_stringIcSt11char_traitsIcESaIcEED2Ev.exit.i.2

_ZNSt7__cxx1112basic_stringIcSt11char_traitsIcESaIcEED2Ev.exit.i.2: ; preds = %if.then.i.i.i461.2, %_ZNSt4pairINSt7__cxx1112basic_stringIcSt11char_traitsIcESaIcEEES5_ED2Ev.exit.1
  %17 = load ptr, ptr %arraydestroy.element.2, align 8, !tbaa !41
  %18 = getelementptr inbounds %"struct.std::pair.43", ptr %ref.tmp, i64 3, i32 0, i32 2
  %cmp.i.i.i2.i.2 = icmp eq ptr %17, %18
  br i1 %cmp.i.i.i2.i.2, label %_ZNSt4pairINSt7__cxx1112basic_stringIcSt11char_traitsIcESaIcEEES5_ED2Ev.exit.2, label %if.then.i.i3.i.2

if.then.i.i3.i.2:                                 ; preds = %_ZNSt7__cxx1112basic_stringIcSt11char_traitsIcESaIcEED2Ev.exit.i.2
  call void @_ZdlPv(ptr noundef %17) #26
  br label %_ZNSt4pairINSt7__cxx1112basic_stringIcSt11char_traitsIcESaIcEEES5_ED2Ev.exit.2

_ZNSt4pairINSt7__cxx1112basic_stringIcSt11char_traitsIcESaIcEEES5_ED2Ev.exit.2: ; preds = %if.then.i.i3.i.2, %_ZNSt7__cxx1112basic_stringIcSt11char_traitsIcESaIcEED2Ev.exit.i.2
  %arraydestroy.element.3 = getelementptr inbounds %"struct.std::pair.43", ptr %ref.tmp, i64 2
  %second.i460.3 = getelementptr inbounds %"struct.std::pair.43", ptr %ref.tmp, i64 2, i32 1
  %19 = load ptr, ptr %second.i460.3, align 8, !tbaa !41
  %20 = getelementptr inbounds %"struct.std::pair.43", ptr %ref.tmp, i64 2, i32 1, i32 2
  %cmp.i.i.i.i.3 = icmp eq ptr %19, %20
  br i1 %cmp.i.i.i.i.3, label %_ZNSt7__cxx1112basic_stringIcSt11char_traitsIcESaIcEED2Ev.exit.i.3, label %if.then.i.i.i461.3

if.then.i.i.i461.3:                               ; preds = %_ZNSt4pairINSt7__cxx1112basic_stringIcSt11char_traitsIcESaIcEEES5_ED2Ev.exit.2
  call void @_ZdlPv(ptr noundef %19) #26
  br label %_ZNSt7__cxx1112basic_stringIcSt11char_traitsIcESaIcEED2Ev.exit.i.3

_ZNSt7__cxx1112basic_stringIcSt11char_traitsIcESaIcEED2Ev.exit.i.3: ; preds = %if.then.i.i.i461.3, %_ZNSt4pairINSt7__cxx1112basic_stringIcSt11char_traitsIcESaIcEEES5_ED2Ev.exit.2
  %21 = load ptr, ptr %arraydestroy.element.3, align 8, !tbaa !41
  %22 = getelementptr inbounds %"struct.std::pair.43", ptr %ref.tmp, i64 2, i32 0, i32 2
  %cmp.i.i.i2.i.3 = icmp eq ptr %21, %22
  br i1 %cmp.i.i.i2.i.3, label %_ZNSt4pairINSt7__cxx1112basic_stringIcSt11char_traitsIcESaIcEEES5_ED2Ev.exit.3, label %if.then.i.i3.i.3

if.then.i.i3.i.3:                                 ; preds = %_ZNSt7__cxx1112basic_stringIcSt11char_traitsIcESaIcEED2Ev.exit.i.3
  call void @_ZdlPv(ptr noundef %21) #26
  br label %_ZNSt4pairINSt7__cxx1112basic_stringIcSt11char_traitsIcESaIcEEES5_ED2Ev.exit.3

_ZNSt4pairINSt7__cxx1112basic_stringIcSt11char_traitsIcESaIcEEES5_ED2Ev.exit.3: ; preds = %if.then.i.i3.i.3, %_ZNSt7__cxx1112basic_stringIcSt11char_traitsIcESaIcEED2Ev.exit.i.3
  %arraydestroy.element.4 = getelementptr inbounds %"struct.std::pair.43", ptr %ref.tmp, i64 1
  %second.i460.4 = getelementptr inbounds %"struct.std::pair.43", ptr %ref.tmp, i64 1, i32 1
  %23 = load ptr, ptr %second.i460.4, align 8, !tbaa !41
  %24 = getelementptr inbounds %"struct.std::pair.43", ptr %ref.tmp, i64 1, i32 1, i32 2
  %cmp.i.i.i.i.4 = icmp eq ptr %23, %24
  br i1 %cmp.i.i.i.i.4, label %_ZNSt7__cxx1112basic_stringIcSt11char_traitsIcESaIcEED2Ev.exit.i.4, label %if.then.i.i.i461.4

if.then.i.i.i461.4:                               ; preds = %_ZNSt4pairINSt7__cxx1112basic_stringIcSt11char_traitsIcESaIcEEES5_ED2Ev.exit.3
  call void @_ZdlPv(ptr noundef %23) #26
  br label %_ZNSt7__cxx1112basic_stringIcSt11char_traitsIcESaIcEED2Ev.exit.i.4

_ZNSt7__cxx1112basic_stringIcSt11char_traitsIcESaIcEED2Ev.exit.i.4: ; preds = %if.then.i.i.i461.4, %_ZNSt4pairINSt7__cxx1112basic_stringIcSt11char_traitsIcESaIcEEES5_ED2Ev.exit.3
  %25 = load ptr, ptr %arraydestroy.element.4, align 8, !tbaa !41
  %26 = getelementptr inbounds %"struct.std::pair.43", ptr %ref.tmp, i64 1, i32 0, i32 2
  %cmp.i.i.i2.i.4 = icmp eq ptr %25, %26
  br i1 %cmp.i.i.i2.i.4, label %_ZNSt4pairINSt7__cxx1112basic_stringIcSt11char_traitsIcESaIcEEES5_ED2Ev.exit.4, label %if.then.i.i3.i.4

if.then.i.i3.i.4:                                 ; preds = %_ZNSt7__cxx1112basic_stringIcSt11char_traitsIcESaIcEED2Ev.exit.i.4
  call void @_ZdlPv(ptr noundef %25) #26
  br label %_ZNSt4pairINSt7__cxx1112basic_stringIcSt11char_traitsIcESaIcEEES5_ED2Ev.exit.4

_ZNSt4pairINSt7__cxx1112basic_stringIcSt11char_traitsIcESaIcEEES5_ED2Ev.exit.4: ; preds = %if.then.i.i3.i.4, %_ZNSt7__cxx1112basic_stringIcSt11char_traitsIcESaIcEED2Ev.exit.i.4
  %second.i460.5 = getelementptr inbounds %"struct.std::pair.43", ptr %ref.tmp, i64 0, i32 1
  %27 = load ptr, ptr %second.i460.5, align 8, !tbaa !41
  %28 = getelementptr inbounds %"struct.std::pair.43", ptr %ref.tmp, i64 0, i32 1, i32 2
  %cmp.i.i.i.i.5 = icmp eq ptr %27, %28
  br i1 %cmp.i.i.i.i.5, label %_ZNSt7__cxx1112basic_stringIcSt11char_traitsIcESaIcEED2Ev.exit.i.5, label %if.then.i.i.i461.5

if.then.i.i.i461.5:                               ; preds = %_ZNSt4pairINSt7__cxx1112basic_stringIcSt11char_traitsIcESaIcEEES5_ED2Ev.exit.4
  call void @_ZdlPv(ptr noundef %27) #26
  br label %_ZNSt7__cxx1112basic_stringIcSt11char_traitsIcESaIcEED2Ev.exit.i.5

_ZNSt7__cxx1112basic_stringIcSt11char_traitsIcESaIcEED2Ev.exit.i.5: ; preds = %if.then.i.i.i461.5, %_ZNSt4pairINSt7__cxx1112basic_stringIcSt11char_traitsIcESaIcEEES5_ED2Ev.exit.4
  %29 = load ptr, ptr %ref.tmp, align 8, !tbaa !41
  %30 = getelementptr inbounds %"struct.std::pair.43", ptr %ref.tmp, i64 0, i32 0, i32 2
  %cmp.i.i.i2.i.5 = icmp eq ptr %29, %30
  br i1 %cmp.i.i.i2.i.5, label %_ZNSt4pairINSt7__cxx1112basic_stringIcSt11char_traitsIcESaIcEEES5_ED2Ev.exit.5, label %if.then.i.i3.i.5

if.then.i.i3.i.5:                                 ; preds = %_ZNSt7__cxx1112basic_stringIcSt11char_traitsIcESaIcEED2Ev.exit.i.5
  call void @_ZdlPv(ptr noundef %29) #26
  br label %_ZNSt4pairINSt7__cxx1112basic_stringIcSt11char_traitsIcESaIcEEES5_ED2Ev.exit.5

_ZNSt4pairINSt7__cxx1112basic_stringIcSt11char_traitsIcESaIcEEES5_ED2Ev.exit.5: ; preds = %if.then.i.i3.i.5, %_ZNSt7__cxx1112basic_stringIcSt11char_traitsIcESaIcEED2Ev.exit.i.5
  %31 = load ptr, ptr %ref.tmp5, align 8, !tbaa !41
  %cmp.i.i.i462 = icmp eq ptr %31, %3
  br i1 %cmp.i.i.i462, label %_ZNSt7__cxx1112basic_stringIcSt11char_traitsIcESaIcEED2Ev.exit, label %if.then.i.i463

if.then.i.i463:                                   ; preds = %_ZNSt4pairINSt7__cxx1112basic_stringIcSt11char_traitsIcESaIcEEES5_ED2Ev.exit.5
  call void @_ZdlPv(ptr noundef %31) #26
  br label %_ZNSt7__cxx1112basic_stringIcSt11char_traitsIcESaIcEED2Ev.exit

_ZNSt7__cxx1112basic_stringIcSt11char_traitsIcESaIcEED2Ev.exit: ; preds = %_ZNSt4pairINSt7__cxx1112basic_stringIcSt11char_traitsIcESaIcEEES5_ED2Ev.exit.5, %if.then.i.i463
  call void @llvm.lifetime.end.p0(i64 32, ptr nonnull %ref.tmp5) #25
  call void @llvm.lifetime.end.p0(i64 384, ptr nonnull %ref.tmp) #25
  call void @llvm.lifetime.start.p0(i64 264, ptr nonnull %ref.tmp32) #25
  %32 = getelementptr inbounds %"class.std::__cxx11::basic_string", ptr %agg.tmp35, i64 0, i32 2
  store ptr %32, ptr %agg.tmp35, align 8, !tbaa !36
  call void @llvm.lifetime.start.p0(i64 8, ptr nonnull %__dnew.i.i) #25
  store i64 36, ptr %__dnew.i.i, align 8, !tbaa !30
  %call2.i9.i465 = invoke noundef ptr @_ZNSt7__cxx1112basic_stringIcSt11char_traitsIcESaIcEE9_M_createERmm(ptr noundef nonnull align 8 dereferenceable(32) %agg.tmp35, ptr noundef nonnull align 8 dereferenceable(8) %__dnew.i.i, i64 noundef 0)
          to label %call2.i9.i.noexc unwind label %ehcleanup82.thread

call2.i9.i.noexc:                                 ; preds = %_ZNSt7__cxx1112basic_stringIcSt11char_traitsIcESaIcEED2Ev.exit
  store ptr %call2.i9.i465, ptr %agg.tmp35, align 8, !tbaa !41
  %33 = load i64, ptr %__dnew.i.i, align 8, !tbaa !30
  store i64 %33, ptr %32, align 8, !tbaa !40
  call void @llvm.memcpy.p0.p0.i64(ptr noundef nonnull align 1 dereferenceable(36) %call2.i9.i465, ptr noundef nonnull align 1 dereferenceable(36) @.str.48, i64 36, i1 false)
  %_M_string_length.i.i.i.i = getelementptr inbounds %"class.std::__cxx11::basic_string", ptr %agg.tmp35, i64 0, i32 1
  store i64 %33, ptr %_M_string_length.i.i.i.i, align 8, !tbaa !38
  %arrayidx.i.i.i = getelementptr inbounds i8, ptr %call2.i9.i465, i64 %33
  store i8 0, ptr %arrayidx.i.i.i, align 1, !tbaa !40
  call void @llvm.lifetime.end.p0(i64 8, ptr nonnull %__dnew.i.i) #25
  invoke void @_ZN8TestCaseC1ENSt7__cxx1112basic_stringIcSt11char_traitsIcESaIcEEEi(ptr noundef nonnull align 8 dereferenceable(88) %ref.tmp32, ptr noundef nonnull %agg.tmp35, i32 noundef 0)
          to label %invoke.cont40 unwind label %lpad39

invoke.cont40:                                    ; preds = %call2.i9.i.noexc
  %arrayinit.element41 = getelementptr inbounds %struct.TestCase, ptr %ref.tmp32, i64 1
  %34 = getelementptr inbounds %"class.std::__cxx11::basic_string", ptr %agg.tmp42, i64 0, i32 2
  store ptr %34, ptr %agg.tmp42, align 8, !tbaa !36
  call void @llvm.memcpy.p0.p0.i64(ptr noundef nonnull align 8 dereferenceable(11) %34, ptr noundef nonnull align 1 dereferenceable(11) @.str.49, i64 11, i1 false)
  %_M_string_length.i.i.i.i473 = getelementptr inbounds %"class.std::__cxx11::basic_string", ptr %agg.tmp42, i64 0, i32 1
  store i64 11, ptr %_M_string_length.i.i.i.i473, align 8, !tbaa !38
  %arrayidx.i.i.i474 = getelementptr inbounds %"class.std::__cxx11::basic_string", ptr %agg.tmp42, i64 0, i32 2, i32 1, i64 3
  store i8 0, ptr %arrayidx.i.i.i474, align 1, !tbaa !40
  invoke void @_ZN8TestCaseC1ENSt7__cxx1112basic_stringIcSt11char_traitsIcESaIcEEEi(ptr noundef nonnull align 8 dereferenceable(88) %arrayinit.element41, ptr noundef nonnull %agg.tmp42, i32 noundef 2)
          to label %invoke.cont47 unwind label %lpad46

invoke.cont47:                                    ; preds = %invoke.cont40
  %arrayinit.element48 = getelementptr inbounds %struct.TestCase, ptr %ref.tmp32, i64 2
  %35 = getelementptr inbounds %"class.std::__cxx11::basic_string", ptr %agg.tmp49, i64 0, i32 2
  store ptr %35, ptr %agg.tmp49, align 8, !tbaa !36
  call void @llvm.lifetime.start.p0(i64 8, ptr nonnull %__dnew.i.i478) #25
  store i64 25, ptr %__dnew.i.i478, align 8, !tbaa !30
  %call2.i9.i488 = invoke noundef ptr @_ZNSt7__cxx1112basic_stringIcSt11char_traitsIcESaIcEE9_M_createERmm(ptr noundef nonnull align 8 dereferenceable(32) %agg.tmp49, ptr noundef nonnull align 8 dereferenceable(8) %__dnew.i.i478, i64 noundef 0)
          to label %call2.i9.i.noexc487 unwind label %lpad51

call2.i9.i.noexc487:                              ; preds = %invoke.cont47
  store ptr %call2.i9.i488, ptr %agg.tmp49, align 8, !tbaa !41
  %36 = load i64, ptr %__dnew.i.i478, align 8, !tbaa !30
  store i64 %36, ptr %35, align 8, !tbaa !40
  call void @llvm.memcpy.p0.p0.i64(ptr noundef nonnull align 1 dereferenceable(25) %call2.i9.i488, ptr noundef nonnull align 1 dereferenceable(25) @.str.50, i64 25, i1 false)
  %_M_string_length.i.i.i.i485 = getelementptr inbounds %"class.std::__cxx11::basic_string", ptr %agg.tmp49, i64 0, i32 1
  store i64 %36, ptr %_M_string_length.i.i.i.i485, align 8, !tbaa !38
  %37 = load ptr, ptr %agg.tmp49, align 8, !tbaa !41
  %arrayidx.i.i.i486 = getelementptr inbounds i8, ptr %37, i64 %36
  store i8 0, ptr %arrayidx.i.i.i486, align 1, !tbaa !40
  call void @llvm.lifetime.end.p0(i64 8, ptr nonnull %__dnew.i.i478) #25
  invoke void @_ZN8TestCaseC1ENSt7__cxx1112basic_stringIcSt11char_traitsIcESaIcEEEi(ptr noundef nonnull align 8 dereferenceable(88) %arrayinit.element48, ptr noundef nonnull %agg.tmp49, i32 noundef 1)
          to label %invoke.cont54 unwind label %lpad53

invoke.cont54:                                    ; preds = %call2.i9.i.noexc487
  %call61 = invoke noundef i32 @_Z8AddCases10TestCaseIDSt16initializer_listI8TestCaseE(i32 noundef 0, ptr nonnull %ref.tmp32, i64 3)
          to label %invoke.cont60 unwind label %lpad59

invoke.cont60:                                    ; preds = %invoke.cont54
  %arraydestroy.element65 = getelementptr inbounds %struct.TestCase, ptr %ref.tmp32, i64 2
  %_M_refcount.i.i = getelementptr inbounds %struct.TestCase, ptr %ref.tmp32, i64 2, i32 3, i32 0, i32 1
  %38 = load ptr, ptr %_M_refcount.i.i, align 8, !tbaa !42
  %cmp.not.i.i.i = icmp eq ptr %38, null
  br i1 %cmp.not.i.i.i, label %_ZNSt12__shared_ptrIN9benchmark5RegexELN9__gnu_cxx12_Lock_policyE2EED2Ev.exit.i, label %if.then.i.i.i491

if.then.i.i.i491:                                 ; preds = %invoke.cont60
  %_M_use_count.i.i.i.i = getelementptr inbounds %"class.std::_Sp_counted_base", ptr %38, i64 0, i32 1
  %39 = load atomic i64, ptr %_M_use_count.i.i.i.i acquire, align 8
  %cmp.i.i.i.i490 = icmp eq i64 %39, 4294967297
  %40 = trunc i64 %39 to i32
  br i1 %cmp.i.i.i.i490, label %if.then.i.i.i.i492, label %if.end.i.i.i.i

if.then.i.i.i.i492:                               ; preds = %if.then.i.i.i491
  store i32 0, ptr %_M_use_count.i.i.i.i, align 8, !tbaa !44
  %_M_weak_count.i.i.i.i = getelementptr inbounds %"class.std::_Sp_counted_base", ptr %38, i64 0, i32 2
  store i32 0, ptr %_M_weak_count.i.i.i.i, align 4, !tbaa !46
  %vtable.i.i.i.i = load ptr, ptr %38, align 8, !tbaa !47
  %vfn.i.i.i.i = getelementptr inbounds ptr, ptr %vtable.i.i.i.i, i64 2
  %41 = load ptr, ptr %vfn.i.i.i.i, align 8
  call void %41(ptr noundef nonnull align 8 dereferenceable(16) %38) #25
  %vtable3.i.i.i.i = load ptr, ptr %38, align 8, !tbaa !47
  %vfn4.i.i.i.i = getelementptr inbounds ptr, ptr %vtable3.i.i.i.i, i64 3
  %42 = load ptr, ptr %vfn4.i.i.i.i, align 8
  call void %42(ptr noundef nonnull align 8 dereferenceable(16) %38) #25
  br label %_ZNSt12__shared_ptrIN9benchmark5RegexELN9__gnu_cxx12_Lock_policyE2EED2Ev.exit.i

if.end.i.i.i.i:                                   ; preds = %if.then.i.i.i491
  %43 = load i8, ptr @__libc_single_threaded, align 1, !tbaa !40
  %tobool.i.not.i.i.i.i.i = icmp eq i8 %43, 0
  br i1 %tobool.i.not.i.i.i.i.i, label %if.else.i.i.i.i.i, label %if.then.i.i.i.i.i493

if.then.i.i.i.i.i493:                             ; preds = %if.end.i.i.i.i
  %add.i.i.i.i.i.i = add nsw i32 %40, -1
  store i32 %add.i.i.i.i.i.i, ptr %_M_use_count.i.i.i.i, align 8, !tbaa !32
  br label %invoke.cont.i.i.i.i

if.else.i.i.i.i.i:                                ; preds = %if.end.i.i.i.i
  %44 = atomicrmw volatile add ptr %_M_use_count.i.i.i.i, i32 -1 acq_rel, align 4
  br label %invoke.cont.i.i.i.i

invoke.cont.i.i.i.i:                              ; preds = %if.else.i.i.i.i.i, %if.then.i.i.i.i.i493
  %retval.0.i.i.i.i.i = phi i32 [ %40, %if.then.i.i.i.i.i493 ], [ %44, %if.else.i.i.i.i.i ]
  %cmp6.i.i.i.i = icmp eq i32 %retval.0.i.i.i.i.i, 1
  br i1 %cmp6.i.i.i.i, label %if.then7.i.i.i.i, label %_ZNSt12__shared_ptrIN9benchmark5RegexELN9__gnu_cxx12_Lock_policyE2EED2Ev.exit.i, !prof !27

if.then7.i.i.i.i:                                 ; preds = %invoke.cont.i.i.i.i
  call void @_ZNSt16_Sp_counted_baseILN9__gnu_cxx12_Lock_policyE2EE24_M_release_last_use_coldEv(ptr noundef nonnull align 8 dereferenceable(16) %38) #25
  br label %_ZNSt12__shared_ptrIN9benchmark5RegexELN9__gnu_cxx12_Lock_policyE2EED2Ev.exit.i

_ZNSt12__shared_ptrIN9benchmark5RegexELN9__gnu_cxx12_Lock_policyE2EED2Ev.exit.i: ; preds = %if.then7.i.i.i.i, %invoke.cont.i.i.i.i, %if.then.i.i.i.i492, %invoke.cont60
  %substituted_regex.i = getelementptr inbounds %struct.TestCase, ptr %ref.tmp32, i64 2, i32 2
  %45 = load ptr, ptr %substituted_regex.i, align 8, !tbaa !41
  %46 = getelementptr inbounds %struct.TestCase, ptr %ref.tmp32, i64 2, i32 2, i32 2
  %cmp.i.i.i2.i494 = icmp eq ptr %45, %46
  br i1 %cmp.i.i.i2.i494, label %_ZNSt7__cxx1112basic_stringIcSt11char_traitsIcESaIcEED2Ev.exit.i496, label %if.then.i.i3.i495

if.then.i.i3.i495:                                ; preds = %_ZNSt12__shared_ptrIN9benchmark5RegexELN9__gnu_cxx12_Lock_policyE2EED2Ev.exit.i
  call void @_ZdlPv(ptr noundef %45) #26
  br label %_ZNSt7__cxx1112basic_stringIcSt11char_traitsIcESaIcEED2Ev.exit.i496

_ZNSt7__cxx1112basic_stringIcSt11char_traitsIcESaIcEED2Ev.exit.i496: ; preds = %if.then.i.i3.i495, %_ZNSt12__shared_ptrIN9benchmark5RegexELN9__gnu_cxx12_Lock_policyE2EED2Ev.exit.i
  %47 = load ptr, ptr %arraydestroy.element65, align 8, !tbaa !41
  %48 = getelementptr inbounds %struct.TestCase, ptr %ref.tmp32, i64 2, i32 0, i32 2
  %cmp.i.i.i4.i = icmp eq ptr %47, %48
  br i1 %cmp.i.i.i4.i, label %_ZN8TestCaseD2Ev.exit, label %if.then.i.i5.i

if.then.i.i5.i:                                   ; preds = %_ZNSt7__cxx1112basic_stringIcSt11char_traitsIcESaIcEED2Ev.exit.i496
  call void @_ZdlPv(ptr noundef %47) #26
  br label %_ZN8TestCaseD2Ev.exit

_ZN8TestCaseD2Ev.exit:                            ; preds = %_ZNSt7__cxx1112basic_stringIcSt11char_traitsIcESaIcEED2Ev.exit.i496, %if.then.i.i5.i
  %arraydestroy.element65.1 = getelementptr inbounds %struct.TestCase, ptr %ref.tmp32, i64 1
  %_M_refcount.i.i.1 = getelementptr inbounds %struct.TestCase, ptr %ref.tmp32, i64 1, i32 3, i32 0, i32 1
  %49 = load ptr, ptr %_M_refcount.i.i.1, align 8, !tbaa !42
  %cmp.not.i.i.i.1 = icmp eq ptr %49, null
  br i1 %cmp.not.i.i.i.1, label %_ZNSt12__shared_ptrIN9benchmark5RegexELN9__gnu_cxx12_Lock_policyE2EED2Ev.exit.i.1, label %if.then.i.i.i491.1

if.then.i.i.i491.1:                               ; preds = %_ZN8TestCaseD2Ev.exit
  %_M_use_count.i.i.i.i.1 = getelementptr inbounds %"class.std::_Sp_counted_base", ptr %49, i64 0, i32 1
  %50 = load atomic i64, ptr %_M_use_count.i.i.i.i.1 acquire, align 8
  %cmp.i.i.i.i490.1 = icmp eq i64 %50, 4294967297
  %51 = trunc i64 %50 to i32
  br i1 %cmp.i.i.i.i490.1, label %if.then.i.i.i.i492.1, label %if.end.i.i.i.i.1

if.end.i.i.i.i.1:                                 ; preds = %if.then.i.i.i491.1
  %52 = load i8, ptr @__libc_single_threaded, align 1, !tbaa !40
  %tobool.i.not.i.i.i.i.i.1 = icmp eq i8 %52, 0
  br i1 %tobool.i.not.i.i.i.i.i.1, label %if.else.i.i.i.i.i.1, label %if.then.i.i.i.i.i493.1

if.then.i.i.i.i.i493.1:                           ; preds = %if.end.i.i.i.i.1
  %add.i.i.i.i.i.i.1 = add nsw i32 %51, -1
  store i32 %add.i.i.i.i.i.i.1, ptr %_M_use_count.i.i.i.i.1, align 8, !tbaa !32
  br label %invoke.cont.i.i.i.i.1

if.else.i.i.i.i.i.1:                              ; preds = %if.end.i.i.i.i.1
  %53 = atomicrmw volatile add ptr %_M_use_count.i.i.i.i.1, i32 -1 acq_rel, align 4
  br label %invoke.cont.i.i.i.i.1

invoke.cont.i.i.i.i.1:                            ; preds = %if.else.i.i.i.i.i.1, %if.then.i.i.i.i.i493.1
  %retval.0.i.i.i.i.i.1 = phi i32 [ %51, %if.then.i.i.i.i.i493.1 ], [ %53, %if.else.i.i.i.i.i.1 ]
  %cmp6.i.i.i.i.1 = icmp eq i32 %retval.0.i.i.i.i.i.1, 1
  br i1 %cmp6.i.i.i.i.1, label %if.then7.i.i.i.i.1, label %_ZNSt12__shared_ptrIN9benchmark5RegexELN9__gnu_cxx12_Lock_policyE2EED2Ev.exit.i.1, !prof !27

if.then7.i.i.i.i.1:                               ; preds = %invoke.cont.i.i.i.i.1
  call void @_ZNSt16_Sp_counted_baseILN9__gnu_cxx12_Lock_policyE2EE24_M_release_last_use_coldEv(ptr noundef nonnull align 8 dereferenceable(16) %49) #25
  br label %_ZNSt12__shared_ptrIN9benchmark5RegexELN9__gnu_cxx12_Lock_policyE2EED2Ev.exit.i.1

if.then.i.i.i.i492.1:                             ; preds = %if.then.i.i.i491.1
  store i32 0, ptr %_M_use_count.i.i.i.i.1, align 8, !tbaa !44
  %_M_weak_count.i.i.i.i.1 = getelementptr inbounds %"class.std::_Sp_counted_base", ptr %49, i64 0, i32 2
  store i32 0, ptr %_M_weak_count.i.i.i.i.1, align 4, !tbaa !46
  %vtable.i.i.i.i.1 = load ptr, ptr %49, align 8, !tbaa !47
  %vfn.i.i.i.i.1 = getelementptr inbounds ptr, ptr %vtable.i.i.i.i.1, i64 2
  %54 = load ptr, ptr %vfn.i.i.i.i.1, align 8
  call void %54(ptr noundef nonnull align 8 dereferenceable(16) %49) #25
  %vtable3.i.i.i.i.1 = load ptr, ptr %49, align 8, !tbaa !47
  %vfn4.i.i.i.i.1 = getelementptr inbounds ptr, ptr %vtable3.i.i.i.i.1, i64 3
  %55 = load ptr, ptr %vfn4.i.i.i.i.1, align 8
  call void %55(ptr noundef nonnull align 8 dereferenceable(16) %49) #25
  br label %_ZNSt12__shared_ptrIN9benchmark5RegexELN9__gnu_cxx12_Lock_policyE2EED2Ev.exit.i.1

_ZNSt12__shared_ptrIN9benchmark5RegexELN9__gnu_cxx12_Lock_policyE2EED2Ev.exit.i.1: ; preds = %if.then.i.i.i.i492.1, %if.then7.i.i.i.i.1, %invoke.cont.i.i.i.i.1, %_ZN8TestCaseD2Ev.exit
  %substituted_regex.i.1 = getelementptr inbounds %struct.TestCase, ptr %ref.tmp32, i64 1, i32 2
  %56 = load ptr, ptr %substituted_regex.i.1, align 8, !tbaa !41
  %57 = getelementptr inbounds %struct.TestCase, ptr %ref.tmp32, i64 1, i32 2, i32 2
  %cmp.i.i.i2.i494.1 = icmp eq ptr %56, %57
  br i1 %cmp.i.i.i2.i494.1, label %_ZNSt7__cxx1112basic_stringIcSt11char_traitsIcESaIcEED2Ev.exit.i496.1, label %if.then.i.i3.i495.1

if.then.i.i3.i495.1:                              ; preds = %_ZNSt12__shared_ptrIN9benchmark5RegexELN9__gnu_cxx12_Lock_policyE2EED2Ev.exit.i.1
  call void @_ZdlPv(ptr noundef %56) #26
  br label %_ZNSt7__cxx1112basic_stringIcSt11char_traitsIcESaIcEED2Ev.exit.i496.1

_ZNSt7__cxx1112basic_stringIcSt11char_traitsIcESaIcEED2Ev.exit.i496.1: ; preds = %if.then.i.i3.i495.1, %_ZNSt12__shared_ptrIN9benchmark5RegexELN9__gnu_cxx12_Lock_policyE2EED2Ev.exit.i.1
  %58 = load ptr, ptr %arraydestroy.element65.1, align 8, !tbaa !41
  %59 = getelementptr inbounds %struct.TestCase, ptr %ref.tmp32, i64 1, i32 0, i32 2
  %cmp.i.i.i4.i.1 = icmp eq ptr %58, %59
  br i1 %cmp.i.i.i4.i.1, label %_ZN8TestCaseD2Ev.exit.1, label %if.then.i.i5.i.1

if.then.i.i5.i.1:                                 ; preds = %_ZNSt7__cxx1112basic_stringIcSt11char_traitsIcESaIcEED2Ev.exit.i496.1
  call void @_ZdlPv(ptr noundef %58) #26
  br label %_ZN8TestCaseD2Ev.exit.1

_ZN8TestCaseD2Ev.exit.1:                          ; preds = %if.then.i.i5.i.1, %_ZNSt7__cxx1112basic_stringIcSt11char_traitsIcESaIcEED2Ev.exit.i496.1
  %_M_refcount.i.i.2 = getelementptr inbounds %struct.TestCase, ptr %ref.tmp32, i64 0, i32 3, i32 0, i32 1
  %60 = load ptr, ptr %_M_refcount.i.i.2, align 8, !tbaa !42
  %cmp.not.i.i.i.2 = icmp eq ptr %60, null
  br i1 %cmp.not.i.i.i.2, label %_ZNSt12__shared_ptrIN9benchmark5RegexELN9__gnu_cxx12_Lock_policyE2EED2Ev.exit.i.2, label %if.then.i.i.i491.2

if.then.i.i.i491.2:                               ; preds = %_ZN8TestCaseD2Ev.exit.1
  %_M_use_count.i.i.i.i.2 = getelementptr inbounds %"class.std::_Sp_counted_base", ptr %60, i64 0, i32 1
  %61 = load atomic i64, ptr %_M_use_count.i.i.i.i.2 acquire, align 8
  %cmp.i.i.i.i490.2 = icmp eq i64 %61, 4294967297
  %62 = trunc i64 %61 to i32
  br i1 %cmp.i.i.i.i490.2, label %if.then.i.i.i.i492.2, label %if.end.i.i.i.i.2

if.end.i.i.i.i.2:                                 ; preds = %if.then.i.i.i491.2
  %63 = load i8, ptr @__libc_single_threaded, align 1, !tbaa !40
  %tobool.i.not.i.i.i.i.i.2 = icmp eq i8 %63, 0
  br i1 %tobool.i.not.i.i.i.i.i.2, label %if.else.i.i.i.i.i.2, label %if.then.i.i.i.i.i493.2

if.then.i.i.i.i.i493.2:                           ; preds = %if.end.i.i.i.i.2
  %add.i.i.i.i.i.i.2 = add nsw i32 %62, -1
  store i32 %add.i.i.i.i.i.i.2, ptr %_M_use_count.i.i.i.i.2, align 8, !tbaa !32
  br label %invoke.cont.i.i.i.i.2

if.else.i.i.i.i.i.2:                              ; preds = %if.end.i.i.i.i.2
  %64 = atomicrmw volatile add ptr %_M_use_count.i.i.i.i.2, i32 -1 acq_rel, align 4
  br label %invoke.cont.i.i.i.i.2

invoke.cont.i.i.i.i.2:                            ; preds = %if.else.i.i.i.i.i.2, %if.then.i.i.i.i.i493.2
  %retval.0.i.i.i.i.i.2 = phi i32 [ %62, %if.then.i.i.i.i.i493.2 ], [ %64, %if.else.i.i.i.i.i.2 ]
  %cmp6.i.i.i.i.2 = icmp eq i32 %retval.0.i.i.i.i.i.2, 1
  br i1 %cmp6.i.i.i.i.2, label %if.then7.i.i.i.i.2, label %_ZNSt12__shared_ptrIN9benchmark5RegexELN9__gnu_cxx12_Lock_policyE2EED2Ev.exit.i.2, !prof !27

if.then7.i.i.i.i.2:                               ; preds = %invoke.cont.i.i.i.i.2
  call void @_ZNSt16_Sp_counted_baseILN9__gnu_cxx12_Lock_policyE2EE24_M_release_last_use_coldEv(ptr noundef nonnull align 8 dereferenceable(16) %60) #25
  br label %_ZNSt12__shared_ptrIN9benchmark5RegexELN9__gnu_cxx12_Lock_policyE2EED2Ev.exit.i.2

if.then.i.i.i.i492.2:                             ; preds = %if.then.i.i.i491.2
  store i32 0, ptr %_M_use_count.i.i.i.i.2, align 8, !tbaa !44
  %_M_weak_count.i.i.i.i.2 = getelementptr inbounds %"class.std::_Sp_counted_base", ptr %60, i64 0, i32 2
  store i32 0, ptr %_M_weak_count.i.i.i.i.2, align 4, !tbaa !46
  %vtable.i.i.i.i.2 = load ptr, ptr %60, align 8, !tbaa !47
  %vfn.i.i.i.i.2 = getelementptr inbounds ptr, ptr %vtable.i.i.i.i.2, i64 2
  %65 = load ptr, ptr %vfn.i.i.i.i.2, align 8
  call void %65(ptr noundef nonnull align 8 dereferenceable(16) %60) #25
  %vtable3.i.i.i.i.2 = load ptr, ptr %60, align 8, !tbaa !47
  %vfn4.i.i.i.i.2 = getelementptr inbounds ptr, ptr %vtable3.i.i.i.i.2, i64 3
  %66 = load ptr, ptr %vfn4.i.i.i.i.2, align 8
  call void %66(ptr noundef nonnull align 8 dereferenceable(16) %60) #25
  br label %_ZNSt12__shared_ptrIN9benchmark5RegexELN9__gnu_cxx12_Lock_policyE2EED2Ev.exit.i.2

_ZNSt12__shared_ptrIN9benchmark5RegexELN9__gnu_cxx12_Lock_policyE2EED2Ev.exit.i.2: ; preds = %if.then.i.i.i.i492.2, %if.then7.i.i.i.i.2, %invoke.cont.i.i.i.i.2, %_ZN8TestCaseD2Ev.exit.1
  %substituted_regex.i.2 = getelementptr inbounds %struct.TestCase, ptr %ref.tmp32, i64 0, i32 2
  %67 = load ptr, ptr %substituted_regex.i.2, align 8, !tbaa !41
  %68 = getelementptr inbounds %struct.TestCase, ptr %ref.tmp32, i64 0, i32 2, i32 2
  %cmp.i.i.i2.i494.2 = icmp eq ptr %67, %68
  br i1 %cmp.i.i.i2.i494.2, label %_ZNSt7__cxx1112basic_stringIcSt11char_traitsIcESaIcEED2Ev.exit.i496.2, label %if.then.i.i3.i495.2

if.then.i.i3.i495.2:                              ; preds = %_ZNSt12__shared_ptrIN9benchmark5RegexELN9__gnu_cxx12_Lock_policyE2EED2Ev.exit.i.2
  call void @_ZdlPv(ptr noundef %67) #26
  br label %_ZNSt7__cxx1112basic_stringIcSt11char_traitsIcESaIcEED2Ev.exit.i496.2

_ZNSt7__cxx1112basic_stringIcSt11char_traitsIcESaIcEED2Ev.exit.i496.2: ; preds = %if.then.i.i3.i495.2, %_ZNSt12__shared_ptrIN9benchmark5RegexELN9__gnu_cxx12_Lock_policyE2EED2Ev.exit.i.2
  %69 = load ptr, ptr %ref.tmp32, align 8, !tbaa !41
  %70 = getelementptr inbounds %struct.TestCase, ptr %ref.tmp32, i64 0, i32 0, i32 2
  %cmp.i.i.i4.i.2 = icmp eq ptr %69, %70
  br i1 %cmp.i.i.i4.i.2, label %_ZN8TestCaseD2Ev.exit.2, label %if.then.i.i5.i.2

if.then.i.i5.i.2:                                 ; preds = %_ZNSt7__cxx1112basic_stringIcSt11char_traitsIcESaIcEED2Ev.exit.i496.2
  call void @_ZdlPv(ptr noundef %69) #26
  br label %_ZN8TestCaseD2Ev.exit.2

_ZN8TestCaseD2Ev.exit.2:                          ; preds = %if.then.i.i5.i.2, %_ZNSt7__cxx1112basic_stringIcSt11char_traitsIcESaIcEED2Ev.exit.i496.2
  %71 = load ptr, ptr %agg.tmp49, align 8, !tbaa !41
  %cmp.i.i.i497 = icmp eq ptr %71, %35
  br i1 %cmp.i.i.i497, label %_ZNSt7__cxx1112basic_stringIcSt11char_traitsIcESaIcEED2Ev.exit499, label %if.then.i.i498

if.then.i.i498:                                   ; preds = %_ZN8TestCaseD2Ev.exit.2
  call void @_ZdlPv(ptr noundef %71) #26
  br label %_ZNSt7__cxx1112basic_stringIcSt11char_traitsIcESaIcEED2Ev.exit499

_ZNSt7__cxx1112basic_stringIcSt11char_traitsIcESaIcEED2Ev.exit499: ; preds = %_ZN8TestCaseD2Ev.exit.2, %if.then.i.i498
  %72 = load ptr, ptr %agg.tmp42, align 8, !tbaa !41
  %cmp.i.i.i500 = icmp eq ptr %72, %34
  br i1 %cmp.i.i.i500, label %_ZNSt7__cxx1112basic_stringIcSt11char_traitsIcESaIcEED2Ev.exit502, label %if.then.i.i501

if.then.i.i501:                                   ; preds = %_ZNSt7__cxx1112basic_stringIcSt11char_traitsIcESaIcEED2Ev.exit499
  call void @_ZdlPv(ptr noundef %72) #26
  br label %_ZNSt7__cxx1112basic_stringIcSt11char_traitsIcESaIcEED2Ev.exit502

_ZNSt7__cxx1112basic_stringIcSt11char_traitsIcESaIcEED2Ev.exit502: ; preds = %_ZNSt7__cxx1112basic_stringIcSt11char_traitsIcESaIcEED2Ev.exit499, %if.then.i.i501
  %73 = load ptr, ptr %agg.tmp35, align 8, !tbaa !41
  %cmp.i.i.i503 = icmp eq ptr %73, %32
  br i1 %cmp.i.i.i503, label %_ZNSt7__cxx1112basic_stringIcSt11char_traitsIcESaIcEED2Ev.exit505, label %if.then.i.i504

if.then.i.i504:                                   ; preds = %_ZNSt7__cxx1112basic_stringIcSt11char_traitsIcESaIcEED2Ev.exit502
  call void @_ZdlPv(ptr noundef %73) #26
  br label %_ZNSt7__cxx1112basic_stringIcSt11char_traitsIcESaIcEED2Ev.exit505

_ZNSt7__cxx1112basic_stringIcSt11char_traitsIcESaIcEED2Ev.exit505: ; preds = %_ZNSt7__cxx1112basic_stringIcSt11char_traitsIcESaIcEED2Ev.exit502, %if.then.i.i504
  call void @llvm.lifetime.end.p0(i64 264, ptr nonnull %ref.tmp32) #25
  call void @llvm.lifetime.start.p0(i64 2200, ptr nonnull %ref.tmp96) #25
  %74 = getelementptr inbounds %"class.std::__cxx11::basic_string", ptr %agg.tmp99, i64 0, i32 2
  store ptr %74, ptr %agg.tmp99, align 8, !tbaa !36
  call void @llvm.lifetime.start.p0(i64 8, ptr nonnull %__dnew.i.i506) #25
  store i64 22, ptr %__dnew.i.i506, align 8, !tbaa !30
  %call2.i9.i516 = invoke noundef ptr @_ZNSt7__cxx1112basic_stringIcSt11char_traitsIcESaIcEE9_M_createERmm(ptr noundef nonnull align 8 dereferenceable(32) %agg.tmp99, ptr noundef nonnull align 8 dereferenceable(8) %__dnew.i.i506, i64 noundef 0)
          to label %call2.i9.i.noexc515 unwind label %ehcleanup376.thread

call2.i9.i.noexc515:                              ; preds = %_ZNSt7__cxx1112basic_stringIcSt11char_traitsIcESaIcEED2Ev.exit505
  store ptr %call2.i9.i516, ptr %agg.tmp99, align 8, !tbaa !41
  %75 = load i64, ptr %__dnew.i.i506, align 8, !tbaa !30
  store i64 %75, ptr %74, align 8, !tbaa !40
  call void @llvm.memcpy.p0.p0.i64(ptr noundef nonnull align 1 dereferenceable(22) %call2.i9.i516, ptr noundef nonnull align 1 dereferenceable(22) @.str.51, i64 22, i1 false)
  %_M_string_length.i.i.i.i513 = getelementptr inbounds %"class.std::__cxx11::basic_string", ptr %agg.tmp99, i64 0, i32 1
  store i64 %75, ptr %_M_string_length.i.i.i.i513, align 8, !tbaa !38
  %76 = load ptr, ptr %agg.tmp99, align 8, !tbaa !41
  %arrayidx.i.i.i514 = getelementptr inbounds i8, ptr %76, i64 %75
  store i8 0, ptr %arrayidx.i.i.i514, align 1, !tbaa !40
  call void @llvm.lifetime.end.p0(i64 8, ptr nonnull %__dnew.i.i506) #25
  invoke void @_ZN8TestCaseC1ENSt7__cxx1112basic_stringIcSt11char_traitsIcESaIcEEEi(ptr noundef nonnull align 8 dereferenceable(88) %ref.tmp96, ptr noundef nonnull %agg.tmp99, i32 noundef 0)
          to label %invoke.cont104 unwind label %lpad103

invoke.cont104:                                   ; preds = %call2.i9.i.noexc515
  %arrayinit.element105 = getelementptr inbounds %struct.TestCase, ptr %ref.tmp96, i64 1
  call void @llvm.lifetime.start.p0(i64 32, ptr nonnull %ref.tmp107) #25
  call void @llvm.lifetime.start.p0(i64 32, ptr nonnull %ref.tmp108) #25
  call void @llvm.experimental.noalias.scope.decl(metadata !49)
  %cond.i = call i32 @llvm.abs.i32(i32 %family_index, i1 false)
  %cmp39.i.i = icmp ult i32 %cond.i, 10
  br i1 %cmp39.i.i, label %_ZNSt8__detail14__to_chars_lenIjEEjT_i.exit.i, label %if.end.i.i518

if.end.i.i518:                                    ; preds = %invoke.cont104, %if.end14.i.i
  %__value.addr.041.i.i = phi i32 [ %77, %if.end14.i.i ], [ %cond.i, %invoke.cont104 ]
  %__n.040.i.i = phi i32 [ %add17.i.i, %if.end14.i.i ], [ 1, %invoke.cont104 ]
  %cmp3.i.i = icmp ult i32 %__value.addr.041.i.i, 100
  br i1 %cmp3.i.i, label %if.then4.i.i, label %if.end5.i.i

if.then4.i.i:                                     ; preds = %if.end.i.i518
  %add.i.i519 = add i32 %__n.040.i.i, 1
  br label %_ZNSt8__detail14__to_chars_lenIjEEjT_i.exit.i

if.end5.i.i:                                      ; preds = %if.end.i.i518
  %cmp6.i.i = icmp ult i32 %__value.addr.041.i.i, 1000
  br i1 %cmp6.i.i, label %if.then7.i.i, label %if.end9.i.i

if.then7.i.i:                                     ; preds = %if.end5.i.i
  %add8.i.i = add i32 %__n.040.i.i, 2
  br label %_ZNSt8__detail14__to_chars_lenIjEEjT_i.exit.i

if.end9.i.i:                                      ; preds = %if.end5.i.i
  %cmp11.i.i = icmp ult i32 %__value.addr.041.i.i, 10000
  br i1 %cmp11.i.i, label %if.then12.i.i, label %if.end14.i.i

if.then12.i.i:                                    ; preds = %if.end9.i.i
  %add13.i.i = add i32 %__n.040.i.i, 3
  br label %_ZNSt8__detail14__to_chars_lenIjEEjT_i.exit.i

if.end14.i.i:                                     ; preds = %if.end9.i.i
  %77 = udiv i32 %__value.addr.041.i.i, 10000
  %add17.i.i = add i32 %__n.040.i.i, 4
  %cmp.i.i520 = icmp ult i32 %__value.addr.041.i.i, 100000
  br i1 %cmp.i.i520, label %_ZNSt8__detail14__to_chars_lenIjEEjT_i.exit.i, label %if.end.i.i518, !llvm.loop !52

_ZNSt8__detail14__to_chars_lenIjEEjT_i.exit.i:    ; preds = %if.end14.i.i, %if.then12.i.i, %if.then7.i.i, %if.then4.i.i, %invoke.cont104
  %retval.0.i.i = phi i32 [ %add.i.i519, %if.then4.i.i ], [ %add8.i.i, %if.then7.i.i ], [ %add13.i.i, %if.then12.i.i ], [ 1, %invoke.cont104 ], [ %add17.i.i, %if.end14.i.i ]
  %__val.lobit.i = lshr i32 %family_index, 31
  %add2.i = add i32 %retval.0.i.i, %__val.lobit.i
  %conv3.i = zext i32 %add2.i to i64
  %78 = getelementptr inbounds %"class.std::__cxx11::basic_string", ptr %ref.tmp108, i64 0, i32 2
  store ptr %78, ptr %ref.tmp108, align 8, !tbaa !36, !alias.scope !49
  invoke void @_ZNSt7__cxx1112basic_stringIcSt11char_traitsIcESaIcEE12_M_constructEmc(ptr noundef nonnull align 8 dereferenceable(32) %ref.tmp108, i64 noundef %conv3.i, i8 noundef signext 45)
          to label %invoke.cont.i unwind label %terminate.lpad.i

invoke.cont.i:                                    ; preds = %_ZNSt8__detail14__to_chars_lenIjEEjT_i.exit.i
  %conv5.i = zext i32 %__val.lobit.i to i64
  %79 = load ptr, ptr %ref.tmp108, align 8, !tbaa !41, !alias.scope !49
  %arrayidx.i.i = getelementptr inbounds i8, ptr %79, i64 %conv5.i
  %cmp34.i.i = icmp ugt i32 %cond.i, 99
  br i1 %cmp34.i.i, label %while.body.preheader.i.i, label %while.end.i.i

while.body.preheader.i.i:                         ; preds = %invoke.cont.i
  %sub.i.i = add i32 %retval.0.i.i, -1
  br label %while.body.i.i

while.body.i.i:                                   ; preds = %while.body.i.i, %while.body.preheader.i.i
  %__val.addr.036.i.i = phi i32 [ %div.i.i, %while.body.i.i ], [ %cond.i, %while.body.preheader.i.i ]
  %__pos.035.i.i = phi i32 [ %sub8.i.i, %while.body.i.i ], [ %sub.i.i, %while.body.preheader.i.i ]
  %rem.i.i = urem i32 %__val.addr.036.i.i, 100
  %mul.i.i = shl nuw nsw i32 %rem.i.i, 1
  %div.i.i = udiv i32 %__val.addr.036.i.i, 100
  %add.i14.i = or i32 %mul.i.i, 1
  %idxprom.i.i = zext i32 %add.i14.i to i64
  %arrayidx.i15.i = getelementptr inbounds [201 x i8], ptr @_ZZNSt8__detail18__to_chars_10_implIjEEvPcjT_E8__digits, i64 0, i64 %idxprom.i.i
  %80 = load i8, ptr %arrayidx.i15.i, align 1, !tbaa !40, !noalias !49
  %idxprom1.i.i = zext i32 %__pos.035.i.i to i64
  %arrayidx2.i.i = getelementptr inbounds i8, ptr %arrayidx.i.i, i64 %idxprom1.i.i
  store i8 %80, ptr %arrayidx2.i.i, align 1, !tbaa !40
  %idxprom3.i.i = zext i32 %mul.i.i to i64
  %arrayidx4.i.i = getelementptr inbounds [201 x i8], ptr @_ZZNSt8__detail18__to_chars_10_implIjEEvPcjT_E8__digits, i64 0, i64 %idxprom3.i.i
  %81 = load i8, ptr %arrayidx4.i.i, align 2, !tbaa !40, !noalias !49
  %sub5.i.i = add i32 %__pos.035.i.i, -1
  %idxprom6.i.i = zext i32 %sub5.i.i to i64
  %arrayidx7.i.i = getelementptr inbounds i8, ptr %arrayidx.i.i, i64 %idxprom6.i.i
  store i8 %81, ptr %arrayidx7.i.i, align 1, !tbaa !40
  %sub8.i.i = add i32 %__pos.035.i.i, -2
  %cmp.i16.i = icmp ugt i32 %__val.addr.036.i.i, 9999
  br i1 %cmp.i16.i, label %while.body.i.i, label %while.end.i.i, !llvm.loop !53

while.end.i.i:                                    ; preds = %while.body.i.i, %invoke.cont.i
  %__val.addr.0.lcssa.i.i = phi i32 [ %cond.i, %invoke.cont.i ], [ %div.i.i, %while.body.i.i ]
  %cmp9.i.i = icmp ugt i32 %__val.addr.0.lcssa.i.i, 9
  br i1 %cmp9.i.i, label %if.then.i.i521, label %if.else.i.i522

if.then.i.i521:                                   ; preds = %while.end.i.i
  %mul11.i.i = shl nuw nsw i32 %__val.addr.0.lcssa.i.i, 1
  %add12.i.i = or i32 %mul11.i.i, 1
  %idxprom13.i.i = zext i32 %add12.i.i to i64
  %arrayidx14.i.i = getelementptr inbounds [201 x i8], ptr @_ZZNSt8__detail18__to_chars_10_implIjEEvPcjT_E8__digits, i64 0, i64 %idxprom13.i.i
  %82 = load i8, ptr %arrayidx14.i.i, align 1, !tbaa !40, !noalias !49
  %arrayidx15.i.i = getelementptr inbounds i8, ptr %arrayidx.i.i, i64 1
  store i8 %82, ptr %arrayidx15.i.i, align 1, !tbaa !40
  %idxprom16.i.i = zext i32 %mul11.i.i to i64
  %arrayidx17.i.i = getelementptr inbounds [201 x i8], ptr @_ZZNSt8__detail18__to_chars_10_implIjEEvPcjT_E8__digits, i64 0, i64 %idxprom16.i.i
  %83 = load i8, ptr %arrayidx17.i.i, align 2, !tbaa !40, !noalias !49
  br label %_ZNSt7__cxx119to_stringEi.exit

if.else.i.i522:                                   ; preds = %while.end.i.i
  %84 = trunc i32 %__val.addr.0.lcssa.i.i to i8
  %conv.i.i = add nuw nsw i8 %84, 48
  br label %_ZNSt7__cxx119to_stringEi.exit

terminate.lpad.i:                                 ; preds = %_ZNSt8__detail14__to_chars_lenIjEEjT_i.exit.i
  %85 = landingpad { ptr, i32 }
          catch ptr null
  %86 = extractvalue { ptr, i32 } %85, 0
  call void @__clang_call_terminate(ptr %86) #24
  unreachable

_ZNSt7__cxx119to_stringEi.exit:                   ; preds = %if.then.i.i521, %if.else.i.i522
  %storemerge.i.i = phi i8 [ %conv.i.i, %if.else.i.i522 ], [ %83, %if.then.i.i521 ]
  store i8 %storemerge.i.i, ptr %arrayidx.i.i, align 1, !tbaa !40
  %call3.i.i.i533 = invoke noundef nonnull align 8 dereferenceable(32) ptr @_ZNSt7__cxx1112basic_stringIcSt11char_traitsIcESaIcEE10_M_replaceEmmPKcm(ptr noundef nonnull align 8 dereferenceable(32) %ref.tmp108, i64 noundef 0, i64 noundef 0, ptr noundef nonnull @.str.52, i64 noundef 16)
          to label %call3.i.i.i.noexc unwind label %lpad109

call3.i.i.i.noexc:                                ; preds = %_ZNSt7__cxx119to_stringEi.exit
  %87 = getelementptr inbounds %"class.std::__cxx11::basic_string", ptr %ref.tmp107, i64 0, i32 2
  store ptr %87, ptr %ref.tmp107, align 8, !tbaa !36, !alias.scope !54
  %88 = load ptr, ptr %call3.i.i.i533, align 8, !tbaa !41
  %89 = getelementptr inbounds %"class.std::__cxx11::basic_string", ptr %call3.i.i.i533, i64 0, i32 2
  %cmp.i.i.i524 = icmp eq ptr %88, %89
  br i1 %cmp.i.i.i524, label %if.then.i.i528, label %if.else.i.i530

if.then.i.i528:                                   ; preds = %call3.i.i.i.noexc
  %_M_string_length.i.i.i525 = getelementptr inbounds %"class.std::__cxx11::basic_string", ptr %call3.i.i.i533, i64 0, i32 1
  %90 = load i64, ptr %_M_string_length.i.i.i525, align 8, !tbaa !38
  %add.i.i526 = add i64 %90, 1
  %cmp.i21.i.i527 = icmp eq i64 %add.i.i526, 0
  br i1 %cmp.i21.i.i527, label %_ZStplIcSt11char_traitsIcESaIcEENSt7__cxx1112basic_stringIT_T0_T1_EEPKS5_OS8_.exit, label %if.end.i.i.i529

if.end.i.i.i529:                                  ; preds = %if.then.i.i528
  call void @llvm.memcpy.p0.p0.i64(ptr nonnull align 8 %87, ptr nonnull align 8 %88, i64 %add.i.i526, i1 false)
  br label %_ZStplIcSt11char_traitsIcESaIcEENSt7__cxx1112basic_stringIT_T0_T1_EEPKS5_OS8_.exit

if.else.i.i530:                                   ; preds = %call3.i.i.i.noexc
  store ptr %88, ptr %ref.tmp107, align 8, !tbaa !41, !alias.scope !54
  %91 = load i64, ptr %89, align 8, !tbaa !40
  store i64 %91, ptr %87, align 8, !tbaa !40, !alias.scope !54
  br label %_ZStplIcSt11char_traitsIcESaIcEENSt7__cxx1112basic_stringIT_T0_T1_EEPKS5_OS8_.exit

_ZStplIcSt11char_traitsIcESaIcEENSt7__cxx1112basic_stringIT_T0_T1_EEPKS5_OS8_.exit: ; preds = %if.then.i.i528, %if.end.i.i.i529, %if.else.i.i530
  %_M_string_length.i22.i.i531 = getelementptr inbounds %"class.std::__cxx11::basic_string", ptr %call3.i.i.i533, i64 0, i32 1
  %92 = load i64, ptr %_M_string_length.i22.i.i531, align 8, !tbaa !38
  %_M_string_length.i23.i.i532 = getelementptr inbounds %"class.std::__cxx11::basic_string", ptr %ref.tmp107, i64 0, i32 1
  store i64 %92, ptr %_M_string_length.i23.i.i532, align 8, !tbaa !38, !alias.scope !54
  store ptr %89, ptr %call3.i.i.i533, align 8, !tbaa !41
  store i64 0, ptr %_M_string_length.i22.i.i531, align 8, !tbaa !38
  store i8 0, ptr %89, align 8, !tbaa !40
  call void @llvm.experimental.noalias.scope.decl(metadata !57)
  %93 = load i64, ptr %_M_string_length.i23.i.i532, align 8, !tbaa !38, !noalias !57
  %94 = and i64 %93, -2
  %cmp.i.i.i536 = icmp eq i64 %94, 4611686018427387902
  br i1 %cmp.i.i.i536, label %if.then.i.i.i537, label %_ZNSt7__cxx1112basic_stringIcSt11char_traitsIcESaIcEE6appendEPKc.exit.i

if.then.i.i.i537:                                 ; preds = %_ZStplIcSt11char_traitsIcESaIcEENSt7__cxx1112basic_stringIT_T0_T1_EEPKS5_OS8_.exit
  invoke void @_ZSt20__throw_length_errorPKc(ptr noundef nonnull @.str.73) #27
          to label %.noexc unwind label %lpad111

.noexc:                                           ; preds = %if.then.i.i.i537
  unreachable

_ZNSt7__cxx1112basic_stringIcSt11char_traitsIcESaIcEE6appendEPKc.exit.i: ; preds = %_ZStplIcSt11char_traitsIcESaIcEENSt7__cxx1112basic_stringIT_T0_T1_EEPKS5_OS8_.exit
  %call2.i.i546 = invoke noundef nonnull align 8 dereferenceable(32) ptr @_ZNSt7__cxx1112basic_stringIcSt11char_traitsIcESaIcEE9_M_appendEPKcm(ptr noundef nonnull align 8 dereferenceable(32) %ref.tmp107, ptr noundef nonnull @.str.53, i64 noundef 2)
          to label %call2.i.i.noexc unwind label %lpad111

call2.i.i.noexc:                                  ; preds = %_ZNSt7__cxx1112basic_stringIcSt11char_traitsIcESaIcEE6appendEPKc.exit.i
  %95 = getelementptr inbounds %"class.std::__cxx11::basic_string", ptr %agg.tmp106, i64 0, i32 2
  store ptr %95, ptr %agg.tmp106, align 8, !tbaa !36, !alias.scope !57
  %96 = load ptr, ptr %call2.i.i546, align 8, !tbaa !41
  %97 = getelementptr inbounds %"class.std::__cxx11::basic_string", ptr %call2.i.i546, i64 0, i32 2
  %cmp.i.i1.i = icmp eq ptr %96, %97
  br i1 %cmp.i.i1.i, label %if.then.i.i541, label %if.else.i.i543

if.then.i.i541:                                   ; preds = %call2.i.i.noexc
  %_M_string_length.i.i.i538 = getelementptr inbounds %"class.std::__cxx11::basic_string", ptr %call2.i.i546, i64 0, i32 1
  %98 = load i64, ptr %_M_string_length.i.i.i538, align 8, !tbaa !38
  %add.i.i539 = add i64 %98, 1
  %cmp.i21.i.i540 = icmp eq i64 %add.i.i539, 0
  br i1 %cmp.i21.i.i540, label %_ZStplIcSt11char_traitsIcESaIcEENSt7__cxx1112basic_stringIT_T0_T1_EEOS8_PKS5_.exit, label %if.end.i.i.i542

if.end.i.i.i542:                                  ; preds = %if.then.i.i541
  call void @llvm.memcpy.p0.p0.i64(ptr nonnull align 8 %95, ptr nonnull align 8 %96, i64 %add.i.i539, i1 false)
  br label %_ZStplIcSt11char_traitsIcESaIcEENSt7__cxx1112basic_stringIT_T0_T1_EEOS8_PKS5_.exit

if.else.i.i543:                                   ; preds = %call2.i.i.noexc
  store ptr %96, ptr %agg.tmp106, align 8, !tbaa !41, !alias.scope !57
  %99 = load i64, ptr %97, align 8, !tbaa !40
  store i64 %99, ptr %95, align 8, !tbaa !40, !alias.scope !57
  br label %_ZStplIcSt11char_traitsIcESaIcEENSt7__cxx1112basic_stringIT_T0_T1_EEOS8_PKS5_.exit

_ZStplIcSt11char_traitsIcESaIcEENSt7__cxx1112basic_stringIT_T0_T1_EEOS8_PKS5_.exit: ; preds = %if.then.i.i541, %if.end.i.i.i542, %if.else.i.i543
  %_M_string_length.i22.i.i544 = getelementptr inbounds %"class.std::__cxx11::basic_string", ptr %call2.i.i546, i64 0, i32 1
  %100 = load i64, ptr %_M_string_length.i22.i.i544, align 8, !tbaa !38
  %_M_string_length.i23.i.i545 = getelementptr inbounds %"class.std::__cxx11::basic_string", ptr %agg.tmp106, i64 0, i32 1
  store i64 %100, ptr %_M_string_length.i23.i.i545, align 8, !tbaa !38, !alias.scope !57
  store ptr %97, ptr %call2.i.i546, align 8, !tbaa !41
  store i64 0, ptr %_M_string_length.i22.i.i544, align 8, !tbaa !38
  store i8 0, ptr %97, align 8, !tbaa !40
  invoke void @_ZN8TestCaseC1ENSt7__cxx1112basic_stringIcSt11char_traitsIcESaIcEEEi(ptr noundef nonnull align 8 dereferenceable(88) %arrayinit.element105, ptr noundef nonnull %agg.tmp106, i32 noundef 1)
          to label %invoke.cont114 unwind label %lpad113

invoke.cont114:                                   ; preds = %_ZStplIcSt11char_traitsIcESaIcEENSt7__cxx1112basic_stringIT_T0_T1_EEOS8_PKS5_.exit
  %arrayinit.element115 = getelementptr inbounds %struct.TestCase, ptr %ref.tmp96, i64 2
  %101 = getelementptr inbounds %"class.std::__cxx11::basic_string", ptr %agg.tmp116, i64 0, i32 2
  store ptr %101, ptr %agg.tmp116, align 8, !tbaa !36
  call void @llvm.lifetime.start.p0(i64 8, ptr nonnull %__dnew.i.i547) #25
  store i64 32, ptr %__dnew.i.i547, align 8, !tbaa !30
  %call2.i9.i557 = invoke noundef ptr @_ZNSt7__cxx1112basic_stringIcSt11char_traitsIcESaIcEE9_M_createERmm(ptr noundef nonnull align 8 dereferenceable(32) %agg.tmp116, ptr noundef nonnull align 8 dereferenceable(8) %__dnew.i.i547, i64 noundef 0)
          to label %call2.i9.i.noexc556 unwind label %lpad118

call2.i9.i.noexc556:                              ; preds = %invoke.cont114
  store ptr %call2.i9.i557, ptr %agg.tmp116, align 8, !tbaa !41
  %102 = load i64, ptr %__dnew.i.i547, align 8, !tbaa !30
  store i64 %102, ptr %101, align 8, !tbaa !40
  call void @llvm.memcpy.p0.p0.i64(ptr noundef nonnull align 1 dereferenceable(32) %call2.i9.i557, ptr noundef nonnull align 1 dereferenceable(32) @.str.54, i64 32, i1 false)
  %_M_string_length.i.i.i.i554 = getelementptr inbounds %"class.std::__cxx11::basic_string", ptr %agg.tmp116, i64 0, i32 1
  store i64 %102, ptr %_M_string_length.i.i.i.i554, align 8, !tbaa !38
  %103 = load ptr, ptr %agg.tmp116, align 8, !tbaa !41
  %arrayidx.i.i.i555 = getelementptr inbounds i8, ptr %103, i64 %102
  store i8 0, ptr %arrayidx.i.i.i555, align 1, !tbaa !40
  call void @llvm.lifetime.end.p0(i64 8, ptr nonnull %__dnew.i.i547) #25
  invoke void @_ZN8TestCaseC1ENSt7__cxx1112basic_stringIcSt11char_traitsIcESaIcEEEi(ptr noundef nonnull align 8 dereferenceable(88) %arrayinit.element115, ptr noundef nonnull %agg.tmp116, i32 noundef 1)
          to label %invoke.cont121 unwind label %lpad120

invoke.cont121:                                   ; preds = %call2.i9.i.noexc556
  %arrayinit.element122 = getelementptr inbounds %struct.TestCase, ptr %ref.tmp96, i64 3
  %104 = getelementptr inbounds %"class.std::__cxx11::basic_string", ptr %agg.tmp123, i64 0, i32 2
  store ptr %104, ptr %agg.tmp123, align 8, !tbaa !36
  call void @llvm.lifetime.start.p0(i64 8, ptr nonnull %__dnew.i.i559) #25
  store i64 21, ptr %__dnew.i.i559, align 8, !tbaa !30
  %call2.i9.i569 = invoke noundef ptr @_ZNSt7__cxx1112basic_stringIcSt11char_traitsIcESaIcEE9_M_createERmm(ptr noundef nonnull align 8 dereferenceable(32) %agg.tmp123, ptr noundef nonnull align 8 dereferenceable(8) %__dnew.i.i559, i64 noundef 0)
          to label %call2.i9.i.noexc568 unwind label %lpad125

call2.i9.i.noexc568:                              ; preds = %invoke.cont121
  store ptr %call2.i9.i569, ptr %agg.tmp123, align 8, !tbaa !41
  %105 = load i64, ptr %__dnew.i.i559, align 8, !tbaa !30
  store i64 %105, ptr %104, align 8, !tbaa !40
  call void @llvm.memcpy.p0.p0.i64(ptr noundef nonnull align 1 dereferenceable(21) %call2.i9.i569, ptr noundef nonnull align 1 dereferenceable(21) @.str.55, i64 21, i1 false)
  %_M_string_length.i.i.i.i566 = getelementptr inbounds %"class.std::__cxx11::basic_string", ptr %agg.tmp123, i64 0, i32 1
  store i64 %105, ptr %_M_string_length.i.i.i.i566, align 8, !tbaa !38
  %106 = load ptr, ptr %agg.tmp123, align 8, !tbaa !41
  %arrayidx.i.i.i567 = getelementptr inbounds i8, ptr %106, i64 %105
  store i8 0, ptr %arrayidx.i.i.i567, align 1, !tbaa !40
  call void @llvm.lifetime.end.p0(i64 8, ptr nonnull %__dnew.i.i559) #25
  invoke void @_ZN8TestCaseC1ENSt7__cxx1112basic_stringIcSt11char_traitsIcESaIcEEEi(ptr noundef nonnull align 8 dereferenceable(88) %arrayinit.element122, ptr noundef nonnull %agg.tmp123, i32 noundef 1)
          to label %invoke.cont128 unwind label %lpad127

invoke.cont128:                                   ; preds = %call2.i9.i.noexc568
  %arrayinit.element129 = getelementptr inbounds %struct.TestCase, ptr %ref.tmp96, i64 4
  %107 = getelementptr inbounds %"class.std::__cxx11::basic_string", ptr %agg.tmp130, i64 0, i32 2
  store ptr %107, ptr %agg.tmp130, align 8, !tbaa !36
  call void @llvm.lifetime.start.p0(i64 8, ptr nonnull %__dnew.i.i571) #25
  store i64 25, ptr %__dnew.i.i571, align 8, !tbaa !30
  %call2.i9.i581 = invoke noundef ptr @_ZNSt7__cxx1112basic_stringIcSt11char_traitsIcESaIcEE9_M_createERmm(ptr noundef nonnull align 8 dereferenceable(32) %agg.tmp130, ptr noundef nonnull align 8 dereferenceable(8) %__dnew.i.i571, i64 noundef 0)
          to label %call2.i9.i.noexc580 unwind label %lpad132

call2.i9.i.noexc580:                              ; preds = %invoke.cont128
  store ptr %call2.i9.i581, ptr %agg.tmp130, align 8, !tbaa !41
  %108 = load i64, ptr %__dnew.i.i571, align 8, !tbaa !30
  store i64 %108, ptr %107, align 8, !tbaa !40
  call void @llvm.memcpy.p0.p0.i64(ptr noundef nonnull align 1 dereferenceable(25) %call2.i9.i581, ptr noundef nonnull align 1 dereferenceable(25) @.str.56, i64 25, i1 false)
  %_M_string_length.i.i.i.i578 = getelementptr inbounds %"class.std::__cxx11::basic_string", ptr %agg.tmp130, i64 0, i32 1
  store i64 %108, ptr %_M_string_length.i.i.i.i578, align 8, !tbaa !38
  %109 = load ptr, ptr %agg.tmp130, align 8, !tbaa !41
  %arrayidx.i.i.i579 = getelementptr inbounds i8, ptr %109, i64 %108
  store i8 0, ptr %arrayidx.i.i.i579, align 1, !tbaa !40
  call void @llvm.lifetime.end.p0(i64 8, ptr nonnull %__dnew.i.i571) #25
  invoke void @_ZN8TestCaseC1ENSt7__cxx1112basic_stringIcSt11char_traitsIcESaIcEEEi(ptr noundef nonnull align 8 dereferenceable(88) %arrayinit.element129, ptr noundef nonnull %agg.tmp130, i32 noundef 1)
          to label %invoke.cont135 unwind label %lpad134

invoke.cont135:                                   ; preds = %call2.i9.i.noexc580
  %arrayinit.element136 = getelementptr inbounds %struct.TestCase, ptr %ref.tmp96, i64 5
  %110 = getelementptr inbounds %"class.std::__cxx11::basic_string", ptr %agg.tmp137, i64 0, i32 2
  store ptr %110, ptr %agg.tmp137, align 8, !tbaa !36
  call void @llvm.lifetime.start.p0(i64 8, ptr nonnull %__dnew.i.i583) #25
  store i64 21, ptr %__dnew.i.i583, align 8, !tbaa !30
  %call2.i9.i593 = invoke noundef ptr @_ZNSt7__cxx1112basic_stringIcSt11char_traitsIcESaIcEE9_M_createERmm(ptr noundef nonnull align 8 dereferenceable(32) %agg.tmp137, ptr noundef nonnull align 8 dereferenceable(8) %__dnew.i.i583, i64 noundef 0)
          to label %call2.i9.i.noexc592 unwind label %lpad139

call2.i9.i.noexc592:                              ; preds = %invoke.cont135
  store ptr %call2.i9.i593, ptr %agg.tmp137, align 8, !tbaa !41
  %111 = load i64, ptr %__dnew.i.i583, align 8, !tbaa !30
  store i64 %111, ptr %110, align 8, !tbaa !40
  call void @llvm.memcpy.p0.p0.i64(ptr noundef nonnull align 1 dereferenceable(21) %call2.i9.i593, ptr noundef nonnull align 1 dereferenceable(21) @.str.57, i64 21, i1 false)
  %_M_string_length.i.i.i.i590 = getelementptr inbounds %"class.std::__cxx11::basic_string", ptr %agg.tmp137, i64 0, i32 1
  store i64 %111, ptr %_M_string_length.i.i.i.i590, align 8, !tbaa !38
  %112 = load ptr, ptr %agg.tmp137, align 8, !tbaa !41
  %arrayidx.i.i.i591 = getelementptr inbounds i8, ptr %112, i64 %111
  store i8 0, ptr %arrayidx.i.i.i591, align 1, !tbaa !40
  call void @llvm.lifetime.end.p0(i64 8, ptr nonnull %__dnew.i.i583) #25
  invoke void @_ZN8TestCaseC1ENSt7__cxx1112basic_stringIcSt11char_traitsIcESaIcEEEi(ptr noundef nonnull align 8 dereferenceable(88) %arrayinit.element136, ptr noundef nonnull %agg.tmp137, i32 noundef 1)
          to label %invoke.cont142 unwind label %lpad141

invoke.cont142:                                   ; preds = %call2.i9.i.noexc592
  %arrayinit.element143 = getelementptr inbounds %struct.TestCase, ptr %ref.tmp96, i64 6
  %113 = getelementptr inbounds %"class.std::__cxx11::basic_string", ptr %agg.tmp144, i64 0, i32 2
  store ptr %113, ptr %agg.tmp144, align 8, !tbaa !36
  call void @llvm.memcpy.p0.p0.i64(ptr noundef nonnull align 8 dereferenceable(14) %113, ptr noundef nonnull align 1 dereferenceable(14) @.str.58, i64 14, i1 false)
  %_M_string_length.i.i.i.i602 = getelementptr inbounds %"class.std::__cxx11::basic_string", ptr %agg.tmp144, i64 0, i32 1
  store i64 14, ptr %_M_string_length.i.i.i.i602, align 8, !tbaa !38
  %arrayidx.i.i.i603 = getelementptr inbounds %"class.std::__cxx11::basic_string", ptr %agg.tmp144, i64 0, i32 2, i32 1, i64 6
  store i8 0, ptr %arrayidx.i.i.i603, align 2, !tbaa !40
  invoke void @_ZN8TestCaseC1ENSt7__cxx1112basic_stringIcSt11char_traitsIcESaIcEEEi(ptr noundef nonnull align 8 dereferenceable(88) %arrayinit.element143, ptr noundef nonnull %agg.tmp144, i32 noundef 1)
          to label %invoke.cont149 unwind label %lpad148

invoke.cont149:                                   ; preds = %invoke.cont142
  %arrayinit.element150 = getelementptr inbounds %struct.TestCase, ptr %ref.tmp96, i64 7
  %114 = getelementptr inbounds %"class.std::__cxx11::basic_string", ptr %agg.tmp151, i64 0, i32 2
  store ptr %114, ptr %agg.tmp151, align 8, !tbaa !36
  call void @llvm.lifetime.start.p0(i64 8, ptr nonnull %__dnew.i.i607) #25
  store i64 26, ptr %__dnew.i.i607, align 8, !tbaa !30
  %call2.i9.i617 = invoke noundef ptr @_ZNSt7__cxx1112basic_stringIcSt11char_traitsIcESaIcEE9_M_createERmm(ptr noundef nonnull align 8 dereferenceable(32) %agg.tmp151, ptr noundef nonnull align 8 dereferenceable(8) %__dnew.i.i607, i64 noundef 0)
          to label %call2.i9.i.noexc616 unwind label %lpad153

call2.i9.i.noexc616:                              ; preds = %invoke.cont149
  store ptr %call2.i9.i617, ptr %agg.tmp151, align 8, !tbaa !41
  %115 = load i64, ptr %__dnew.i.i607, align 8, !tbaa !30
  store i64 %115, ptr %114, align 8, !tbaa !40
  call void @llvm.memcpy.p0.p0.i64(ptr noundef nonnull align 1 dereferenceable(26) %call2.i9.i617, ptr noundef nonnull align 1 dereferenceable(26) @.str.59, i64 26, i1 false)
  %_M_string_length.i.i.i.i614 = getelementptr inbounds %"class.std::__cxx11::basic_string", ptr %agg.tmp151, i64 0, i32 1
  store i64 %115, ptr %_M_string_length.i.i.i.i614, align 8, !tbaa !38
  %116 = load ptr, ptr %agg.tmp151, align 8, !tbaa !41
  %arrayidx.i.i.i615 = getelementptr inbounds i8, ptr %116, i64 %115
  store i8 0, ptr %arrayidx.i.i.i615, align 1, !tbaa !40
  call void @llvm.lifetime.end.p0(i64 8, ptr nonnull %__dnew.i.i607) #25
  invoke void @_ZN8TestCaseC1ENSt7__cxx1112basic_stringIcSt11char_traitsIcESaIcEEEi(ptr noundef nonnull align 8 dereferenceable(88) %arrayinit.element150, ptr noundef nonnull %agg.tmp151, i32 noundef 1)
          to label %invoke.cont156 unwind label %lpad155

invoke.cont156:                                   ; preds = %call2.i9.i.noexc616
  %arrayinit.element157 = getelementptr inbounds %struct.TestCase, ptr %ref.tmp96, i64 8
  %117 = getelementptr inbounds %"class.std::__cxx11::basic_string", ptr %agg.tmp158, i64 0, i32 2
  store ptr %117, ptr %agg.tmp158, align 8, !tbaa !36
  call void @llvm.lifetime.start.p0(i64 8, ptr nonnull %__dnew.i.i619) #25
  store i64 26, ptr %__dnew.i.i619, align 8, !tbaa !30
  %call2.i9.i629 = invoke noundef ptr @_ZNSt7__cxx1112basic_stringIcSt11char_traitsIcESaIcEE9_M_createERmm(ptr noundef nonnull align 8 dereferenceable(32) %agg.tmp158, ptr noundef nonnull align 8 dereferenceable(8) %__dnew.i.i619, i64 noundef 0)
          to label %call2.i9.i.noexc628 unwind label %lpad160

call2.i9.i.noexc628:                              ; preds = %invoke.cont156
  store ptr %call2.i9.i629, ptr %agg.tmp158, align 8, !tbaa !41
  %118 = load i64, ptr %__dnew.i.i619, align 8, !tbaa !30
  store i64 %118, ptr %117, align 8, !tbaa !40
  call void @llvm.memcpy.p0.p0.i64(ptr noundef nonnull align 1 dereferenceable(26) %call2.i9.i629, ptr noundef nonnull align 1 dereferenceable(26) @.str.60, i64 26, i1 false)
  %_M_string_length.i.i.i.i626 = getelementptr inbounds %"class.std::__cxx11::basic_string", ptr %agg.tmp158, i64 0, i32 1
  store i64 %118, ptr %_M_string_length.i.i.i.i626, align 8, !tbaa !38
  %119 = load ptr, ptr %agg.tmp158, align 8, !tbaa !41
  %arrayidx.i.i.i627 = getelementptr inbounds i8, ptr %119, i64 %118
  store i8 0, ptr %arrayidx.i.i.i627, align 1, !tbaa !40
  call void @llvm.lifetime.end.p0(i64 8, ptr nonnull %__dnew.i.i619) #25
  invoke void @_ZN8TestCaseC1ENSt7__cxx1112basic_stringIcSt11char_traitsIcESaIcEEEi(ptr noundef nonnull align 8 dereferenceable(88) %arrayinit.element157, ptr noundef nonnull %agg.tmp158, i32 noundef 1)
          to label %invoke.cont163 unwind label %lpad162

invoke.cont163:                                   ; preds = %call2.i9.i.noexc628
  %arrayinit.element164 = getelementptr inbounds %struct.TestCase, ptr %ref.tmp96, i64 9
  %120 = getelementptr inbounds %"class.std::__cxx11::basic_string", ptr %agg.tmp165, i64 0, i32 2
  store ptr %120, ptr %agg.tmp165, align 8, !tbaa !36
  call void @llvm.lifetime.start.p0(i64 8, ptr nonnull %__dnew.i.i631) #25
  store i64 27, ptr %__dnew.i.i631, align 8, !tbaa !30
  %call2.i9.i641 = invoke noundef ptr @_ZNSt7__cxx1112basic_stringIcSt11char_traitsIcESaIcEE9_M_createERmm(ptr noundef nonnull align 8 dereferenceable(32) %agg.tmp165, ptr noundef nonnull align 8 dereferenceable(8) %__dnew.i.i631, i64 noundef 0)
          to label %call2.i9.i.noexc640 unwind label %lpad167

call2.i9.i.noexc640:                              ; preds = %invoke.cont163
  store ptr %call2.i9.i641, ptr %agg.tmp165, align 8, !tbaa !41
  %121 = load i64, ptr %__dnew.i.i631, align 8, !tbaa !30
  store i64 %121, ptr %120, align 8, !tbaa !40
  call void @llvm.memcpy.p0.p0.i64(ptr noundef nonnull align 1 dereferenceable(27) %call2.i9.i641, ptr noundef nonnull align 1 dereferenceable(27) @.str.61, i64 27, i1 false)
  %_M_string_length.i.i.i.i638 = getelementptr inbounds %"class.std::__cxx11::basic_string", ptr %agg.tmp165, i64 0, i32 1
  store i64 %121, ptr %_M_string_length.i.i.i.i638, align 8, !tbaa !38
  %122 = load ptr, ptr %agg.tmp165, align 8, !tbaa !41
  %arrayidx.i.i.i639 = getelementptr inbounds i8, ptr %122, i64 %121
  store i8 0, ptr %arrayidx.i.i.i639, align 1, !tbaa !40
  call void @llvm.lifetime.end.p0(i64 8, ptr nonnull %__dnew.i.i631) #25
  invoke void @_ZN8TestCaseC1ENSt7__cxx1112basic_stringIcSt11char_traitsIcESaIcEEEi(ptr noundef nonnull align 8 dereferenceable(88) %arrayinit.element164, ptr noundef nonnull %agg.tmp165, i32 noundef 1)
          to label %invoke.cont170 unwind label %lpad169

invoke.cont170:                                   ; preds = %call2.i9.i.noexc640
  %arrayinit.element171 = getelementptr inbounds %struct.TestCase, ptr %ref.tmp96, i64 10
  %123 = getelementptr inbounds %"class.std::__cxx11::basic_string", ptr %agg.tmp172, i64 0, i32 2
  store ptr %123, ptr %agg.tmp172, align 8, !tbaa !36
  call void @llvm.lifetime.start.p0(i64 8, ptr nonnull %__dnew.i.i643) #25
  store i64 28, ptr %__dnew.i.i643, align 8, !tbaa !30
  %call2.i9.i653 = invoke noundef ptr @_ZNSt7__cxx1112basic_stringIcSt11char_traitsIcESaIcEE9_M_createERmm(ptr noundef nonnull align 8 dereferenceable(32) %agg.tmp172, ptr noundef nonnull align 8 dereferenceable(8) %__dnew.i.i643, i64 noundef 0)
          to label %call2.i9.i.noexc652 unwind label %lpad174

call2.i9.i.noexc652:                              ; preds = %invoke.cont170
  store ptr %call2.i9.i653, ptr %agg.tmp172, align 8, !tbaa !41
  %124 = load i64, ptr %__dnew.i.i643, align 8, !tbaa !30
  store i64 %124, ptr %123, align 8, !tbaa !40
  call void @llvm.memcpy.p0.p0.i64(ptr noundef nonnull align 1 dereferenceable(28) %call2.i9.i653, ptr noundef nonnull align 1 dereferenceable(28) @.str.62, i64 28, i1 false)
  %_M_string_length.i.i.i.i650 = getelementptr inbounds %"class.std::__cxx11::basic_string", ptr %agg.tmp172, i64 0, i32 1
  store i64 %124, ptr %_M_string_length.i.i.i.i650, align 8, !tbaa !38
  %125 = load ptr, ptr %agg.tmp172, align 8, !tbaa !41
  %arrayidx.i.i.i651 = getelementptr inbounds i8, ptr %125, i64 %124
  store i8 0, ptr %arrayidx.i.i.i651, align 1, !tbaa !40
  call void @llvm.lifetime.end.p0(i64 8, ptr nonnull %__dnew.i.i643) #25
  invoke void @_ZN8TestCaseC1ENSt7__cxx1112basic_stringIcSt11char_traitsIcESaIcEEEi(ptr noundef nonnull align 8 dereferenceable(88) %arrayinit.element171, ptr noundef nonnull %agg.tmp172, i32 noundef 1)
          to label %invoke.cont177 unwind label %lpad176

invoke.cont177:                                   ; preds = %call2.i9.i.noexc652
  %arrayinit.element178 = getelementptr inbounds %struct.TestCase, ptr %ref.tmp96, i64 11
  %126 = getelementptr inbounds %"class.std::__cxx11::basic_string", ptr %agg.tmp179, i64 0, i32 2
  store ptr %126, ptr %agg.tmp179, align 8, !tbaa !36
  call void @llvm.lifetime.start.p0(i64 8, ptr nonnull %__dnew.i.i655) #25
  store i64 18, ptr %__dnew.i.i655, align 8, !tbaa !30
  %call2.i9.i665 = invoke noundef ptr @_ZNSt7__cxx1112basic_stringIcSt11char_traitsIcESaIcEE9_M_createERmm(ptr noundef nonnull align 8 dereferenceable(32) %agg.tmp179, ptr noundef nonnull align 8 dereferenceable(8) %__dnew.i.i655, i64 noundef 0)
          to label %call2.i9.i.noexc664 unwind label %lpad181

call2.i9.i.noexc664:                              ; preds = %invoke.cont177
  store ptr %call2.i9.i665, ptr %agg.tmp179, align 8, !tbaa !41
  %127 = load i64, ptr %__dnew.i.i655, align 8, !tbaa !30
  store i64 %127, ptr %126, align 8, !tbaa !40
  call void @llvm.memcpy.p0.p0.i64(ptr noundef nonnull align 1 dereferenceable(18) %call2.i9.i665, ptr noundef nonnull align 1 dereferenceable(18) @.str.63, i64 18, i1 false)
  %_M_string_length.i.i.i.i662 = getelementptr inbounds %"class.std::__cxx11::basic_string", ptr %agg.tmp179, i64 0, i32 1
  store i64 %127, ptr %_M_string_length.i.i.i.i662, align 8, !tbaa !38
  %128 = load ptr, ptr %agg.tmp179, align 8, !tbaa !41
  %arrayidx.i.i.i663 = getelementptr inbounds i8, ptr %128, i64 %127
  store i8 0, ptr %arrayidx.i.i.i663, align 1, !tbaa !40
  call void @llvm.lifetime.end.p0(i64 8, ptr nonnull %__dnew.i.i655) #25
  invoke void @_ZN8TestCaseC1ENSt7__cxx1112basic_stringIcSt11char_traitsIcESaIcEEEi(ptr noundef nonnull align 8 dereferenceable(88) %arrayinit.element178, ptr noundef nonnull %agg.tmp179, i32 noundef 1)
          to label %invoke.cont184 unwind label %lpad183

invoke.cont184:                                   ; preds = %call2.i9.i.noexc664
  %arrayinit.element185 = getelementptr inbounds %struct.TestCase, ptr %ref.tmp96, i64 12
  %129 = getelementptr inbounds %"class.std::__cxx11::basic_string", ptr %agg.tmp186, i64 0, i32 2
  store ptr %129, ptr %agg.tmp186, align 8, !tbaa !36
  call void @llvm.lifetime.start.p0(i64 8, ptr nonnull %__dnew.i.i667) #25
  store i64 18, ptr %__dnew.i.i667, align 8, !tbaa !30
  %call2.i9.i677 = invoke noundef ptr @_ZNSt7__cxx1112basic_stringIcSt11char_traitsIcESaIcEE9_M_createERmm(ptr noundef nonnull align 8 dereferenceable(32) %agg.tmp186, ptr noundef nonnull align 8 dereferenceable(8) %__dnew.i.i667, i64 noundef 0)
          to label %call2.i9.i.noexc676 unwind label %lpad188

call2.i9.i.noexc676:                              ; preds = %invoke.cont184
  store ptr %call2.i9.i677, ptr %agg.tmp186, align 8, !tbaa !41
  %130 = load i64, ptr %__dnew.i.i667, align 8, !tbaa !30
  store i64 %130, ptr %129, align 8, !tbaa !40
  call void @llvm.memcpy.p0.p0.i64(ptr noundef nonnull align 1 dereferenceable(18) %call2.i9.i677, ptr noundef nonnull align 1 dereferenceable(18) @.str.64, i64 18, i1 false)
  %_M_string_length.i.i.i.i674 = getelementptr inbounds %"class.std::__cxx11::basic_string", ptr %agg.tmp186, i64 0, i32 1
  store i64 %130, ptr %_M_string_length.i.i.i.i674, align 8, !tbaa !38
  %131 = load ptr, ptr %agg.tmp186, align 8, !tbaa !41
  %arrayidx.i.i.i675 = getelementptr inbounds i8, ptr %131, i64 %130
  store i8 0, ptr %arrayidx.i.i.i675, align 1, !tbaa !40
  call void @llvm.lifetime.end.p0(i64 8, ptr nonnull %__dnew.i.i667) #25
  invoke void @_ZN8TestCaseC1ENSt7__cxx1112basic_stringIcSt11char_traitsIcESaIcEEEi(ptr noundef nonnull align 8 dereferenceable(88) %arrayinit.element185, ptr noundef nonnull %agg.tmp186, i32 noundef 1)
          to label %invoke.cont191 unwind label %lpad190

invoke.cont191:                                   ; preds = %call2.i9.i.noexc676
  %arrayinit.element192 = getelementptr inbounds %struct.TestCase, ptr %ref.tmp96, i64 13
  %132 = getelementptr inbounds %"class.std::__cxx11::basic_string", ptr %agg.tmp193, i64 0, i32 2
  store ptr %132, ptr %agg.tmp193, align 8, !tbaa !36
  store i8 125, ptr %132, align 8, !tbaa !40
  %_M_string_length.i.i.i.i686 = getelementptr inbounds %"class.std::__cxx11::basic_string", ptr %agg.tmp193, i64 0, i32 1
  store i64 1, ptr %_M_string_length.i.i.i.i686, align 8, !tbaa !38
  %arrayidx.i.i.i687 = getelementptr inbounds i8, ptr %agg.tmp193, i64 17
  store i8 0, ptr %arrayidx.i.i.i687, align 1, !tbaa !40
  invoke void @_ZN8TestCaseC1ENSt7__cxx1112basic_stringIcSt11char_traitsIcESaIcEEEi(ptr noundef nonnull align 8 dereferenceable(88) %arrayinit.element192, ptr noundef nonnull %agg.tmp193, i32 noundef 1)
          to label %invoke.cont198 unwind label %lpad197

invoke.cont198:                                   ; preds = %invoke.cont191
  %arrayinit.element199 = getelementptr inbounds %struct.TestCase, ptr %ref.tmp96, i64 14
  %133 = getelementptr inbounds %"class.std::__cxx11::basic_string", ptr %agg.tmp200, i64 0, i32 2
  store ptr %133, ptr %agg.tmp200, align 8, !tbaa !36
  call void @llvm.lifetime.start.p0(i64 8, ptr nonnull %__dnew.i.i691) #25
  store i64 21, ptr %__dnew.i.i691, align 8, !tbaa !30
  %call2.i9.i701 = invoke noundef ptr @_ZNSt7__cxx1112basic_stringIcSt11char_traitsIcESaIcEE9_M_createERmm(ptr noundef nonnull align 8 dereferenceable(32) %agg.tmp200, ptr noundef nonnull align 8 dereferenceable(8) %__dnew.i.i691, i64 noundef 0)
          to label %call2.i9.i.noexc700 unwind label %lpad202

call2.i9.i.noexc700:                              ; preds = %invoke.cont198
  store ptr %call2.i9.i701, ptr %agg.tmp200, align 8, !tbaa !41
  %134 = load i64, ptr %__dnew.i.i691, align 8, !tbaa !30
  store i64 %134, ptr %133, align 8, !tbaa !40
  call void @llvm.memcpy.p0.p0.i64(ptr noundef nonnull align 1 dereferenceable(21) %call2.i9.i701, ptr noundef nonnull align 1 dereferenceable(21) @.str.66, i64 21, i1 false)
  %_M_string_length.i.i.i.i698 = getelementptr inbounds %"class.std::__cxx11::basic_string", ptr %agg.tmp200, i64 0, i32 1
  store i64 %134, ptr %_M_string_length.i.i.i.i698, align 8, !tbaa !38
  %135 = load ptr, ptr %agg.tmp200, align 8, !tbaa !41
  %arrayidx.i.i.i699 = getelementptr inbounds i8, ptr %135, i64 %134
  store i8 0, ptr %arrayidx.i.i.i699, align 1, !tbaa !40
  call void @llvm.lifetime.end.p0(i64 8, ptr nonnull %__dnew.i.i691) #25
  invoke void @_ZN8TestCaseC1ENSt7__cxx1112basic_stringIcSt11char_traitsIcESaIcEEEi(ptr noundef nonnull align 8 dereferenceable(88) %arrayinit.element199, ptr noundef nonnull %agg.tmp200, i32 noundef 0)
          to label %invoke.cont205 unwind label %lpad204

invoke.cont205:                                   ; preds = %call2.i9.i.noexc700
  %arrayinit.element206 = getelementptr inbounds %struct.TestCase, ptr %ref.tmp96, i64 15
  call void @llvm.lifetime.start.p0(i64 32, ptr nonnull %ref.tmp208) #25
  call void @llvm.lifetime.start.p0(i64 32, ptr nonnull %ref.tmp209) #25
  call void @llvm.experimental.noalias.scope.decl(metadata !60)
  br i1 %cmp39.i.i, label %_ZNSt8__detail14__to_chars_lenIjEEjT_i.exit.i726, label %if.end.i.i708

if.end.i.i708:                                    ; preds = %invoke.cont205, %if.end14.i.i721
  %__value.addr.041.i.i705 = phi i32 [ %136, %if.end14.i.i721 ], [ %cond.i, %invoke.cont205 ]
  %__n.040.i.i706 = phi i32 [ %add17.i.i719, %if.end14.i.i721 ], [ 1, %invoke.cont205 ]
  %cmp3.i.i707 = icmp ult i32 %__value.addr.041.i.i705, 100
  br i1 %cmp3.i.i707, label %if.then4.i.i710, label %if.end5.i.i712

if.then4.i.i710:                                  ; preds = %if.end.i.i708
  %add.i.i709 = add i32 %__n.040.i.i706, 1
  br label %_ZNSt8__detail14__to_chars_lenIjEEjT_i.exit.i726

if.end5.i.i712:                                   ; preds = %if.end.i.i708
  %cmp6.i.i711 = icmp ult i32 %__value.addr.041.i.i705, 1000
  br i1 %cmp6.i.i711, label %if.then7.i.i714, label %if.end9.i.i716

if.then7.i.i714:                                  ; preds = %if.end5.i.i712
  %add8.i.i713 = add i32 %__n.040.i.i706, 2
  br label %_ZNSt8__detail14__to_chars_lenIjEEjT_i.exit.i726

if.end9.i.i716:                                   ; preds = %if.end5.i.i712
  %cmp11.i.i715 = icmp ult i32 %__value.addr.041.i.i705, 10000
  br i1 %cmp11.i.i715, label %if.then12.i.i718, label %if.end14.i.i721

if.then12.i.i718:                                 ; preds = %if.end9.i.i716
  %add13.i.i717 = add i32 %__n.040.i.i706, 3
  br label %_ZNSt8__detail14__to_chars_lenIjEEjT_i.exit.i726

if.end14.i.i721:                                  ; preds = %if.end9.i.i716
  %136 = udiv i32 %__value.addr.041.i.i705, 10000
  %add17.i.i719 = add i32 %__n.040.i.i706, 4
  %cmp.i.i720 = icmp ult i32 %__value.addr.041.i.i705, 100000
  br i1 %cmp.i.i720, label %_ZNSt8__detail14__to_chars_lenIjEEjT_i.exit.i726, label %if.end.i.i708, !llvm.loop !52

_ZNSt8__detail14__to_chars_lenIjEEjT_i.exit.i726: ; preds = %if.end14.i.i721, %if.then12.i.i718, %if.then7.i.i714, %if.then4.i.i710, %invoke.cont205
  %retval.0.i.i722 = phi i32 [ %add.i.i709, %if.then4.i.i710 ], [ %add8.i.i713, %if.then7.i.i714 ], [ %add13.i.i717, %if.then12.i.i718 ], [ 1, %invoke.cont205 ], [ %add17.i.i719, %if.end14.i.i721 ]
  %add2.i724 = add i32 %retval.0.i.i722, %__val.lobit.i
  %conv3.i725 = zext i32 %add2.i724 to i64
  %137 = getelementptr inbounds %"class.std::__cxx11::basic_string", ptr %ref.tmp209, i64 0, i32 2
  store ptr %137, ptr %ref.tmp209, align 8, !tbaa !36, !alias.scope !60
  invoke void @_ZNSt7__cxx1112basic_stringIcSt11char_traitsIcESaIcEE12_M_constructEmc(ptr noundef nonnull align 8 dereferenceable(32) %ref.tmp209, i64 noundef %conv3.i725, i8 noundef signext 45)
          to label %invoke.cont.i730 unwind label %terminate.lpad.i765

invoke.cont.i730:                                 ; preds = %_ZNSt8__detail14__to_chars_lenIjEEjT_i.exit.i726
  %138 = load ptr, ptr %ref.tmp209, align 8, !tbaa !41, !alias.scope !60
  %arrayidx.i.i728 = getelementptr inbounds i8, ptr %138, i64 %conv5.i
  br i1 %cmp34.i.i, label %while.body.preheader.i.i732, label %while.end.i.i753

while.body.preheader.i.i732:                      ; preds = %invoke.cont.i730
  %sub.i.i731 = add i32 %retval.0.i.i722, -1
  br label %while.body.i.i750

while.body.i.i750:                                ; preds = %while.body.i.i750, %while.body.preheader.i.i732
  %__val.addr.036.i.i733 = phi i32 [ %div.i.i737, %while.body.i.i750 ], [ %cond.i, %while.body.preheader.i.i732 ]
  %__pos.035.i.i734 = phi i32 [ %sub8.i.i748, %while.body.i.i750 ], [ %sub.i.i731, %while.body.preheader.i.i732 ]
  %rem.i.i735 = urem i32 %__val.addr.036.i.i733, 100
  %mul.i.i736 = shl nuw nsw i32 %rem.i.i735, 1
  %div.i.i737 = udiv i32 %__val.addr.036.i.i733, 100
  %add.i14.i738 = or i32 %mul.i.i736, 1
  %idxprom.i.i739 = zext i32 %add.i14.i738 to i64
  %arrayidx.i15.i740 = getelementptr inbounds [201 x i8], ptr @_ZZNSt8__detail18__to_chars_10_implIjEEvPcjT_E8__digits, i64 0, i64 %idxprom.i.i739
  %139 = load i8, ptr %arrayidx.i15.i740, align 1, !tbaa !40, !noalias !60
  %idxprom1.i.i741 = zext i32 %__pos.035.i.i734 to i64
  %arrayidx2.i.i742 = getelementptr inbounds i8, ptr %arrayidx.i.i728, i64 %idxprom1.i.i741
  store i8 %139, ptr %arrayidx2.i.i742, align 1, !tbaa !40
  %idxprom3.i.i743 = zext i32 %mul.i.i736 to i64
  %arrayidx4.i.i744 = getelementptr inbounds [201 x i8], ptr @_ZZNSt8__detail18__to_chars_10_implIjEEvPcjT_E8__digits, i64 0, i64 %idxprom3.i.i743
  %140 = load i8, ptr %arrayidx4.i.i744, align 2, !tbaa !40, !noalias !60
  %sub5.i.i745 = add i32 %__pos.035.i.i734, -1
  %idxprom6.i.i746 = zext i32 %sub5.i.i745 to i64
  %arrayidx7.i.i747 = getelementptr inbounds i8, ptr %arrayidx.i.i728, i64 %idxprom6.i.i746
  store i8 %140, ptr %arrayidx7.i.i747, align 1, !tbaa !40
  %sub8.i.i748 = add i32 %__pos.035.i.i734, -2
  %cmp.i16.i749 = icmp ugt i32 %__val.addr.036.i.i733, 9999
  br i1 %cmp.i16.i749, label %while.body.i.i750, label %while.end.i.i753, !llvm.loop !53

while.end.i.i753:                                 ; preds = %while.body.i.i750, %invoke.cont.i730
  %__val.addr.0.lcssa.i.i751 = phi i32 [ %cond.i, %invoke.cont.i730 ], [ %div.i.i737, %while.body.i.i750 ]
  %cmp9.i.i752 = icmp ugt i32 %__val.addr.0.lcssa.i.i751, 9
  br i1 %cmp9.i.i752, label %if.then.i.i761, label %if.else.i.i763

if.then.i.i761:                                   ; preds = %while.end.i.i753
  %mul11.i.i754 = shl nuw nsw i32 %__val.addr.0.lcssa.i.i751, 1
  %add12.i.i755 = or i32 %mul11.i.i754, 1
  %idxprom13.i.i756 = zext i32 %add12.i.i755 to i64
  %arrayidx14.i.i757 = getelementptr inbounds [201 x i8], ptr @_ZZNSt8__detail18__to_chars_10_implIjEEvPcjT_E8__digits, i64 0, i64 %idxprom13.i.i756
  %141 = load i8, ptr %arrayidx14.i.i757, align 1, !tbaa !40, !noalias !60
  %arrayidx15.i.i758 = getelementptr inbounds i8, ptr %arrayidx.i.i728, i64 1
  store i8 %141, ptr %arrayidx15.i.i758, align 1, !tbaa !40
  %idxprom16.i.i759 = zext i32 %mul11.i.i754 to i64
  %arrayidx17.i.i760 = getelementptr inbounds [201 x i8], ptr @_ZZNSt8__detail18__to_chars_10_implIjEEvPcjT_E8__digits, i64 0, i64 %idxprom16.i.i759
  %142 = load i8, ptr %arrayidx17.i.i760, align 2, !tbaa !40, !noalias !60
  br label %_ZNSt7__cxx119to_stringEi.exit766

if.else.i.i763:                                   ; preds = %while.end.i.i753
  %143 = trunc i32 %__val.addr.0.lcssa.i.i751 to i8
  %conv.i.i762 = add nuw nsw i8 %143, 48
  br label %_ZNSt7__cxx119to_stringEi.exit766

terminate.lpad.i765:                              ; preds = %_ZNSt8__detail14__to_chars_lenIjEEjT_i.exit.i726
  %144 = landingpad { ptr, i32 }
          catch ptr null
  %145 = extractvalue { ptr, i32 } %144, 0
  call void @__clang_call_terminate(ptr %145) #24
  unreachable

_ZNSt7__cxx119to_stringEi.exit766:                ; preds = %if.then.i.i761, %if.else.i.i763
  %storemerge.i.i764 = phi i8 [ %conv.i.i762, %if.else.i.i763 ], [ %142, %if.then.i.i761 ]
  store i8 %storemerge.i.i764, ptr %arrayidx.i.i728, align 1, !tbaa !40
  %call3.i.i.i778 = invoke noundef nonnull align 8 dereferenceable(32) ptr @_ZNSt7__cxx1112basic_stringIcSt11char_traitsIcESaIcEE10_M_replaceEmmPKcm(ptr noundef nonnull align 8 dereferenceable(32) %ref.tmp209, i64 noundef 0, i64 noundef 0, ptr noundef nonnull @.str.52, i64 noundef 16)
          to label %call3.i.i.i.noexc777 unwind label %lpad210

call3.i.i.i.noexc777:                             ; preds = %_ZNSt7__cxx119to_stringEi.exit766
  %146 = getelementptr inbounds %"class.std::__cxx11::basic_string", ptr %ref.tmp208, i64 0, i32 2
  store ptr %146, ptr %ref.tmp208, align 8, !tbaa !36, !alias.scope !63
  %147 = load ptr, ptr %call3.i.i.i778, align 8, !tbaa !41
  %148 = getelementptr inbounds %"class.std::__cxx11::basic_string", ptr %call3.i.i.i778, i64 0, i32 2
  %cmp.i.i.i768 = icmp eq ptr %147, %148
  br i1 %cmp.i.i.i768, label %if.then.i.i772, label %if.else.i.i774

if.then.i.i772:                                   ; preds = %call3.i.i.i.noexc777
  %_M_string_length.i.i.i769 = getelementptr inbounds %"class.std::__cxx11::basic_string", ptr %call3.i.i.i778, i64 0, i32 1
  %149 = load i64, ptr %_M_string_length.i.i.i769, align 8, !tbaa !38
  %add.i.i770 = add i64 %149, 1
  %cmp.i21.i.i771 = icmp eq i64 %add.i.i770, 0
  br i1 %cmp.i21.i.i771, label %_ZStplIcSt11char_traitsIcESaIcEENSt7__cxx1112basic_stringIT_T0_T1_EEPKS5_OS8_.exit779, label %if.end.i.i.i773

if.end.i.i.i773:                                  ; preds = %if.then.i.i772
  call void @llvm.memcpy.p0.p0.i64(ptr nonnull align 8 %146, ptr nonnull align 8 %147, i64 %add.i.i770, i1 false)
  br label %_ZStplIcSt11char_traitsIcESaIcEENSt7__cxx1112basic_stringIT_T0_T1_EEPKS5_OS8_.exit779

if.else.i.i774:                                   ; preds = %call3.i.i.i.noexc777
  store ptr %147, ptr %ref.tmp208, align 8, !tbaa !41, !alias.scope !63
  %150 = load i64, ptr %148, align 8, !tbaa !40
  store i64 %150, ptr %146, align 8, !tbaa !40, !alias.scope !63
  br label %_ZStplIcSt11char_traitsIcESaIcEENSt7__cxx1112basic_stringIT_T0_T1_EEPKS5_OS8_.exit779

_ZStplIcSt11char_traitsIcESaIcEENSt7__cxx1112basic_stringIT_T0_T1_EEPKS5_OS8_.exit779: ; preds = %if.then.i.i772, %if.end.i.i.i773, %if.else.i.i774
  %_M_string_length.i22.i.i775 = getelementptr inbounds %"class.std::__cxx11::basic_string", ptr %call3.i.i.i778, i64 0, i32 1
  %151 = load i64, ptr %_M_string_length.i22.i.i775, align 8, !tbaa !38
  %_M_string_length.i23.i.i776 = getelementptr inbounds %"class.std::__cxx11::basic_string", ptr %ref.tmp208, i64 0, i32 1
  store i64 %151, ptr %_M_string_length.i23.i.i776, align 8, !tbaa !38, !alias.scope !63
  store ptr %148, ptr %call3.i.i.i778, align 8, !tbaa !41
  store i64 0, ptr %_M_string_length.i22.i.i775, align 8, !tbaa !38
  store i8 0, ptr %148, align 8, !tbaa !40
  call void @llvm.experimental.noalias.scope.decl(metadata !66)
  %152 = load i64, ptr %_M_string_length.i23.i.i776, align 8, !tbaa !38, !noalias !66
  %153 = and i64 %152, -2
  %cmp.i.i.i783 = icmp eq i64 %153, 4611686018427387902
  br i1 %cmp.i.i.i783, label %if.then.i.i.i784, label %_ZNSt7__cxx1112basic_stringIcSt11char_traitsIcESaIcEE6appendEPKc.exit.i786

if.then.i.i.i784:                                 ; preds = %_ZStplIcSt11char_traitsIcESaIcEENSt7__cxx1112basic_stringIT_T0_T1_EEPKS5_OS8_.exit779
  invoke void @_ZSt20__throw_length_errorPKc(ptr noundef nonnull @.str.73) #27
          to label %.noexc795 unwind label %lpad212

.noexc795:                                        ; preds = %if.then.i.i.i784
  unreachable

_ZNSt7__cxx1112basic_stringIcSt11char_traitsIcESaIcEE6appendEPKc.exit.i786: ; preds = %_ZStplIcSt11char_traitsIcESaIcEENSt7__cxx1112basic_stringIT_T0_T1_EEPKS5_OS8_.exit779
  %call2.i.i797 = invoke noundef nonnull align 8 dereferenceable(32) ptr @_ZNSt7__cxx1112basic_stringIcSt11char_traitsIcESaIcEE9_M_appendEPKcm(ptr noundef nonnull align 8 dereferenceable(32) %ref.tmp208, ptr noundef nonnull @.str.53, i64 noundef 2)
          to label %call2.i.i.noexc796 unwind label %lpad212

call2.i.i.noexc796:                               ; preds = %_ZNSt7__cxx1112basic_stringIcSt11char_traitsIcESaIcEE6appendEPKc.exit.i786
  %154 = getelementptr inbounds %"class.std::__cxx11::basic_string", ptr %agg.tmp207, i64 0, i32 2
  store ptr %154, ptr %agg.tmp207, align 8, !tbaa !36, !alias.scope !66
  %155 = load ptr, ptr %call2.i.i797, align 8, !tbaa !41
  %156 = getelementptr inbounds %"class.std::__cxx11::basic_string", ptr %call2.i.i797, i64 0, i32 2
  %cmp.i.i1.i785 = icmp eq ptr %155, %156
  br i1 %cmp.i.i1.i785, label %if.then.i.i790, label %if.else.i.i792

if.then.i.i790:                                   ; preds = %call2.i.i.noexc796
  %_M_string_length.i.i.i787 = getelementptr inbounds %"class.std::__cxx11::basic_string", ptr %call2.i.i797, i64 0, i32 1
  %157 = load i64, ptr %_M_string_length.i.i.i787, align 8, !tbaa !38
  %add.i.i788 = add i64 %157, 1
  %cmp.i21.i.i789 = icmp eq i64 %add.i.i788, 0
  br i1 %cmp.i21.i.i789, label %_ZStplIcSt11char_traitsIcESaIcEENSt7__cxx1112basic_stringIT_T0_T1_EEOS8_PKS5_.exit798, label %if.end.i.i.i791

if.end.i.i.i791:                                  ; preds = %if.then.i.i790
  call void @llvm.memcpy.p0.p0.i64(ptr nonnull align 8 %154, ptr nonnull align 8 %155, i64 %add.i.i788, i1 false)
  br label %_ZStplIcSt11char_traitsIcESaIcEENSt7__cxx1112basic_stringIT_T0_T1_EEOS8_PKS5_.exit798

if.else.i.i792:                                   ; preds = %call2.i.i.noexc796
  store ptr %155, ptr %agg.tmp207, align 8, !tbaa !41, !alias.scope !66
  %158 = load i64, ptr %156, align 8, !tbaa !40
  store i64 %158, ptr %154, align 8, !tbaa !40, !alias.scope !66
  br label %_ZStplIcSt11char_traitsIcESaIcEENSt7__cxx1112basic_stringIT_T0_T1_EEOS8_PKS5_.exit798

_ZStplIcSt11char_traitsIcESaIcEENSt7__cxx1112basic_stringIT_T0_T1_EEOS8_PKS5_.exit798: ; preds = %if.then.i.i790, %if.end.i.i.i791, %if.else.i.i792
  %_M_string_length.i22.i.i793 = getelementptr inbounds %"class.std::__cxx11::basic_string", ptr %call2.i.i797, i64 0, i32 1
  %159 = load i64, ptr %_M_string_length.i22.i.i793, align 8, !tbaa !38
  %_M_string_length.i23.i.i794 = getelementptr inbounds %"class.std::__cxx11::basic_string", ptr %agg.tmp207, i64 0, i32 1
  store i64 %159, ptr %_M_string_length.i23.i.i794, align 8, !tbaa !38, !alias.scope !66
  store ptr %156, ptr %call2.i.i797, align 8, !tbaa !41
  store i64 0, ptr %_M_string_length.i22.i.i793, align 8, !tbaa !38
  store i8 0, ptr %156, align 8, !tbaa !40
  invoke void @_ZN8TestCaseC1ENSt7__cxx1112basic_stringIcSt11char_traitsIcESaIcEEEi(ptr noundef nonnull align 8 dereferenceable(88) %arrayinit.element206, ptr noundef nonnull %agg.tmp207, i32 noundef 1)
          to label %invoke.cont215 unwind label %lpad214

invoke.cont215:                                   ; preds = %_ZStplIcSt11char_traitsIcESaIcEENSt7__cxx1112basic_stringIT_T0_T1_EEOS8_PKS5_.exit798
  %arrayinit.element216 = getelementptr inbounds %struct.TestCase, ptr %ref.tmp96, i64 16
  %160 = getelementptr inbounds %"class.std::__cxx11::basic_string", ptr %agg.tmp217, i64 0, i32 2
  store ptr %160, ptr %agg.tmp217, align 8, !tbaa !36
  call void @llvm.lifetime.start.p0(i64 8, ptr nonnull %__dnew.i.i799) #25
  store i64 32, ptr %__dnew.i.i799, align 8, !tbaa !30
  %call2.i9.i809 = invoke noundef ptr @_ZNSt7__cxx1112basic_stringIcSt11char_traitsIcESaIcEE9_M_createERmm(ptr noundef nonnull align 8 dereferenceable(32) %agg.tmp217, ptr noundef nonnull align 8 dereferenceable(8) %__dnew.i.i799, i64 noundef 0)
          to label %call2.i9.i.noexc808 unwind label %lpad219

call2.i9.i.noexc808:                              ; preds = %invoke.cont215
  store ptr %call2.i9.i809, ptr %agg.tmp217, align 8, !tbaa !41
  %161 = load i64, ptr %__dnew.i.i799, align 8, !tbaa !30
  store i64 %161, ptr %160, align 8, !tbaa !40
  call void @llvm.memcpy.p0.p0.i64(ptr noundef nonnull align 1 dereferenceable(32) %call2.i9.i809, ptr noundef nonnull align 1 dereferenceable(32) @.str.54, i64 32, i1 false)
  %_M_string_length.i.i.i.i806 = getelementptr inbounds %"class.std::__cxx11::basic_string", ptr %agg.tmp217, i64 0, i32 1
  store i64 %161, ptr %_M_string_length.i.i.i.i806, align 8, !tbaa !38
  %162 = load ptr, ptr %agg.tmp217, align 8, !tbaa !41
  %arrayidx.i.i.i807 = getelementptr inbounds i8, ptr %162, i64 %161
  store i8 0, ptr %arrayidx.i.i.i807, align 1, !tbaa !40
  call void @llvm.lifetime.end.p0(i64 8, ptr nonnull %__dnew.i.i799) #25
  invoke void @_ZN8TestCaseC1ENSt7__cxx1112basic_stringIcSt11char_traitsIcESaIcEEEi(ptr noundef nonnull align 8 dereferenceable(88) %arrayinit.element216, ptr noundef nonnull %agg.tmp217, i32 noundef 1)
          to label %invoke.cont222 unwind label %lpad221

invoke.cont222:                                   ; preds = %call2.i9.i.noexc808
  %arrayinit.element223 = getelementptr inbounds %struct.TestCase, ptr %ref.tmp96, i64 17
  %163 = getelementptr inbounds %"class.std::__cxx11::basic_string", ptr %agg.tmp224, i64 0, i32 2
  store ptr %163, ptr %agg.tmp224, align 8, !tbaa !36
  call void @llvm.lifetime.start.p0(i64 8, ptr nonnull %__dnew.i.i811) #25
  store i64 21, ptr %__dnew.i.i811, align 8, !tbaa !30
  %call2.i9.i821 = invoke noundef ptr @_ZNSt7__cxx1112basic_stringIcSt11char_traitsIcESaIcEE9_M_createERmm(ptr noundef nonnull align 8 dereferenceable(32) %agg.tmp224, ptr noundef nonnull align 8 dereferenceable(8) %__dnew.i.i811, i64 noundef 0)
          to label %call2.i9.i.noexc820 unwind label %lpad226

call2.i9.i.noexc820:                              ; preds = %invoke.cont222
  store ptr %call2.i9.i821, ptr %agg.tmp224, align 8, !tbaa !41
  %164 = load i64, ptr %__dnew.i.i811, align 8, !tbaa !30
  store i64 %164, ptr %163, align 8, !tbaa !40
  call void @llvm.memcpy.p0.p0.i64(ptr noundef nonnull align 1 dereferenceable(21) %call2.i9.i821, ptr noundef nonnull align 1 dereferenceable(21) @.str.55, i64 21, i1 false)
  %_M_string_length.i.i.i.i818 = getelementptr inbounds %"class.std::__cxx11::basic_string", ptr %agg.tmp224, i64 0, i32 1
  store i64 %164, ptr %_M_string_length.i.i.i.i818, align 8, !tbaa !38
  %165 = load ptr, ptr %agg.tmp224, align 8, !tbaa !41
  %arrayidx.i.i.i819 = getelementptr inbounds i8, ptr %165, i64 %164
  store i8 0, ptr %arrayidx.i.i.i819, align 1, !tbaa !40
  call void @llvm.lifetime.end.p0(i64 8, ptr nonnull %__dnew.i.i811) #25
  invoke void @_ZN8TestCaseC1ENSt7__cxx1112basic_stringIcSt11char_traitsIcESaIcEEEi(ptr noundef nonnull align 8 dereferenceable(88) %arrayinit.element223, ptr noundef nonnull %agg.tmp224, i32 noundef 1)
          to label %invoke.cont229 unwind label %lpad228

invoke.cont229:                                   ; preds = %call2.i9.i.noexc820
  %arrayinit.element230 = getelementptr inbounds %struct.TestCase, ptr %ref.tmp96, i64 18
  %166 = getelementptr inbounds %"class.std::__cxx11::basic_string", ptr %agg.tmp231, i64 0, i32 2
  store ptr %166, ptr %agg.tmp231, align 8, !tbaa !36
  call void @llvm.lifetime.start.p0(i64 8, ptr nonnull %__dnew.i.i823) #25
  store i64 25, ptr %__dnew.i.i823, align 8, !tbaa !30
  %call2.i9.i833 = invoke noundef ptr @_ZNSt7__cxx1112basic_stringIcSt11char_traitsIcESaIcEE9_M_createERmm(ptr noundef nonnull align 8 dereferenceable(32) %agg.tmp231, ptr noundef nonnull align 8 dereferenceable(8) %__dnew.i.i823, i64 noundef 0)
          to label %call2.i9.i.noexc832 unwind label %lpad233

call2.i9.i.noexc832:                              ; preds = %invoke.cont229
  store ptr %call2.i9.i833, ptr %agg.tmp231, align 8, !tbaa !41
  %167 = load i64, ptr %__dnew.i.i823, align 8, !tbaa !30
  store i64 %167, ptr %166, align 8, !tbaa !40
  call void @llvm.memcpy.p0.p0.i64(ptr noundef nonnull align 1 dereferenceable(25) %call2.i9.i833, ptr noundef nonnull align 1 dereferenceable(25) @.str.56, i64 25, i1 false)
  %_M_string_length.i.i.i.i830 = getelementptr inbounds %"class.std::__cxx11::basic_string", ptr %agg.tmp231, i64 0, i32 1
  store i64 %167, ptr %_M_string_length.i.i.i.i830, align 8, !tbaa !38
  %168 = load ptr, ptr %agg.tmp231, align 8, !tbaa !41
  %arrayidx.i.i.i831 = getelementptr inbounds i8, ptr %168, i64 %167
  store i8 0, ptr %arrayidx.i.i.i831, align 1, !tbaa !40
  call void @llvm.lifetime.end.p0(i64 8, ptr nonnull %__dnew.i.i823) #25
  invoke void @_ZN8TestCaseC1ENSt7__cxx1112basic_stringIcSt11char_traitsIcESaIcEEEi(ptr noundef nonnull align 8 dereferenceable(88) %arrayinit.element230, ptr noundef nonnull %agg.tmp231, i32 noundef 1)
          to label %invoke.cont236 unwind label %lpad235

invoke.cont236:                                   ; preds = %call2.i9.i.noexc832
  %arrayinit.element237 = getelementptr inbounds %struct.TestCase, ptr %ref.tmp96, i64 19
  %169 = getelementptr inbounds %"class.std::__cxx11::basic_string", ptr %agg.tmp238, i64 0, i32 2
  store ptr %169, ptr %agg.tmp238, align 8, !tbaa !36
  call void @llvm.lifetime.start.p0(i64 8, ptr nonnull %__dnew.i.i835) #25
  store i64 21, ptr %__dnew.i.i835, align 8, !tbaa !30
  %call2.i9.i845 = invoke noundef ptr @_ZNSt7__cxx1112basic_stringIcSt11char_traitsIcESaIcEE9_M_createERmm(ptr noundef nonnull align 8 dereferenceable(32) %agg.tmp238, ptr noundef nonnull align 8 dereferenceable(8) %__dnew.i.i835, i64 noundef 0)
          to label %call2.i9.i.noexc844 unwind label %lpad240

call2.i9.i.noexc844:                              ; preds = %invoke.cont236
  store ptr %call2.i9.i845, ptr %agg.tmp238, align 8, !tbaa !41
  %170 = load i64, ptr %__dnew.i.i835, align 8, !tbaa !30
  store i64 %170, ptr %169, align 8, !tbaa !40
  call void @llvm.memcpy.p0.p0.i64(ptr noundef nonnull align 1 dereferenceable(21) %call2.i9.i845, ptr noundef nonnull align 1 dereferenceable(21) @.str.57, i64 21, i1 false)
  %_M_string_length.i.i.i.i842 = getelementptr inbounds %"class.std::__cxx11::basic_string", ptr %agg.tmp238, i64 0, i32 1
  store i64 %170, ptr %_M_string_length.i.i.i.i842, align 8, !tbaa !38
  %171 = load ptr, ptr %agg.tmp238, align 8, !tbaa !41
  %arrayidx.i.i.i843 = getelementptr inbounds i8, ptr %171, i64 %170
  store i8 0, ptr %arrayidx.i.i.i843, align 1, !tbaa !40
  call void @llvm.lifetime.end.p0(i64 8, ptr nonnull %__dnew.i.i835) #25
  invoke void @_ZN8TestCaseC1ENSt7__cxx1112basic_stringIcSt11char_traitsIcESaIcEEEi(ptr noundef nonnull align 8 dereferenceable(88) %arrayinit.element237, ptr noundef nonnull %agg.tmp238, i32 noundef 1)
          to label %invoke.cont243 unwind label %lpad242

invoke.cont243:                                   ; preds = %call2.i9.i.noexc844
  %arrayinit.element244 = getelementptr inbounds %struct.TestCase, ptr %ref.tmp96, i64 20
  %172 = getelementptr inbounds %"class.std::__cxx11::basic_string", ptr %agg.tmp245, i64 0, i32 2
  store ptr %172, ptr %agg.tmp245, align 8, !tbaa !36
  call void @llvm.memcpy.p0.p0.i64(ptr noundef nonnull align 8 dereferenceable(14) %172, ptr noundef nonnull align 1 dereferenceable(14) @.str.58, i64 14, i1 false)
  %_M_string_length.i.i.i.i854 = getelementptr inbounds %"class.std::__cxx11::basic_string", ptr %agg.tmp245, i64 0, i32 1
  store i64 14, ptr %_M_string_length.i.i.i.i854, align 8, !tbaa !38
  %arrayidx.i.i.i855 = getelementptr inbounds %"class.std::__cxx11::basic_string", ptr %agg.tmp245, i64 0, i32 2, i32 1, i64 6
  store i8 0, ptr %arrayidx.i.i.i855, align 2, !tbaa !40
  invoke void @_ZN8TestCaseC1ENSt7__cxx1112basic_stringIcSt11char_traitsIcESaIcEEEi(ptr noundef nonnull align 8 dereferenceable(88) %arrayinit.element244, ptr noundef nonnull %agg.tmp245, i32 noundef 1)
          to label %invoke.cont250 unwind label %lpad249

invoke.cont250:                                   ; preds = %invoke.cont243
  %arrayinit.element251 = getelementptr inbounds %struct.TestCase, ptr %ref.tmp96, i64 21
  %173 = getelementptr inbounds %"class.std::__cxx11::basic_string", ptr %agg.tmp252, i64 0, i32 2
  store ptr %173, ptr %agg.tmp252, align 8, !tbaa !36
  call void @llvm.lifetime.start.p0(i64 8, ptr nonnull %__dnew.i.i859) #25
  store i64 25, ptr %__dnew.i.i859, align 8, !tbaa !30
  %call2.i9.i869 = invoke noundef ptr @_ZNSt7__cxx1112basic_stringIcSt11char_traitsIcESaIcEE9_M_createERmm(ptr noundef nonnull align 8 dereferenceable(32) %agg.tmp252, ptr noundef nonnull align 8 dereferenceable(8) %__dnew.i.i859, i64 noundef 0)
          to label %call2.i9.i.noexc868 unwind label %lpad254

call2.i9.i.noexc868:                              ; preds = %invoke.cont250
  store ptr %call2.i9.i869, ptr %agg.tmp252, align 8, !tbaa !41
  %174 = load i64, ptr %__dnew.i.i859, align 8, !tbaa !30
  store i64 %174, ptr %173, align 8, !tbaa !40
  call void @llvm.memcpy.p0.p0.i64(ptr noundef nonnull align 1 dereferenceable(25) %call2.i9.i869, ptr noundef nonnull align 1 dereferenceable(25) @.str.67, i64 25, i1 false)
  %_M_string_length.i.i.i.i866 = getelementptr inbounds %"class.std::__cxx11::basic_string", ptr %agg.tmp252, i64 0, i32 1
  store i64 %174, ptr %_M_string_length.i.i.i.i866, align 8, !tbaa !38
  %175 = load ptr, ptr %agg.tmp252, align 8, !tbaa !41
  %arrayidx.i.i.i867 = getelementptr inbounds i8, ptr %175, i64 %174
  store i8 0, ptr %arrayidx.i.i.i867, align 1, !tbaa !40
  call void @llvm.lifetime.end.p0(i64 8, ptr nonnull %__dnew.i.i859) #25
  invoke void @_ZN8TestCaseC1ENSt7__cxx1112basic_stringIcSt11char_traitsIcESaIcEEEi(ptr noundef nonnull align 8 dereferenceable(88) %arrayinit.element251, ptr noundef nonnull %agg.tmp252, i32 noundef 1)
          to label %invoke.cont257 unwind label %lpad256

invoke.cont257:                                   ; preds = %call2.i9.i.noexc868
  %arrayinit.element258 = getelementptr inbounds %struct.TestCase, ptr %ref.tmp96, i64 22
  %176 = getelementptr inbounds %"class.std::__cxx11::basic_string", ptr %agg.tmp259, i64 0, i32 2
  store ptr %176, ptr %agg.tmp259, align 8, !tbaa !36
  call void @llvm.lifetime.start.p0(i64 8, ptr nonnull %__dnew.i.i871) #25
  store i64 32, ptr %__dnew.i.i871, align 8, !tbaa !30
  %call2.i9.i881 = invoke noundef ptr @_ZNSt7__cxx1112basic_stringIcSt11char_traitsIcESaIcEE9_M_createERmm(ptr noundef nonnull align 8 dereferenceable(32) %agg.tmp259, ptr noundef nonnull align 8 dereferenceable(8) %__dnew.i.i871, i64 noundef 0)
          to label %call2.i9.i.noexc880 unwind label %lpad261

call2.i9.i.noexc880:                              ; preds = %invoke.cont257
  store ptr %call2.i9.i881, ptr %agg.tmp259, align 8, !tbaa !41
  %177 = load i64, ptr %__dnew.i.i871, align 8, !tbaa !30
  store i64 %177, ptr %176, align 8, !tbaa !40
  call void @llvm.memcpy.p0.p0.i64(ptr noundef nonnull align 1 dereferenceable(32) %call2.i9.i881, ptr noundef nonnull align 1 dereferenceable(32) @.str.68, i64 32, i1 false)
  %_M_string_length.i.i.i.i878 = getelementptr inbounds %"class.std::__cxx11::basic_string", ptr %agg.tmp259, i64 0, i32 1
  store i64 %177, ptr %_M_string_length.i.i.i.i878, align 8, !tbaa !38
  %178 = load ptr, ptr %agg.tmp259, align 8, !tbaa !41
  %arrayidx.i.i.i879 = getelementptr inbounds i8, ptr %178, i64 %177
  store i8 0, ptr %arrayidx.i.i.i879, align 1, !tbaa !40
  call void @llvm.lifetime.end.p0(i64 8, ptr nonnull %__dnew.i.i871) #25
  invoke void @_ZN8TestCaseC1ENSt7__cxx1112basic_stringIcSt11char_traitsIcESaIcEEEi(ptr noundef nonnull align 8 dereferenceable(88) %arrayinit.element258, ptr noundef nonnull %agg.tmp259, i32 noundef 1)
          to label %invoke.cont264 unwind label %lpad263

invoke.cont264:                                   ; preds = %call2.i9.i.noexc880
  %arrayinit.element265 = getelementptr inbounds %struct.TestCase, ptr %ref.tmp96, i64 23
  %179 = getelementptr inbounds %"class.std::__cxx11::basic_string", ptr %agg.tmp266, i64 0, i32 2
  store ptr %179, ptr %agg.tmp266, align 8, !tbaa !36
  call void @llvm.memcpy.p0.p0.i64(ptr noundef nonnull align 8 dereferenceable(14) %179, ptr noundef nonnull align 1 dereferenceable(14) @.str.69, i64 14, i1 false)
  %_M_string_length.i.i.i.i890 = getelementptr inbounds %"class.std::__cxx11::basic_string", ptr %agg.tmp266, i64 0, i32 1
  store i64 14, ptr %_M_string_length.i.i.i.i890, align 8, !tbaa !38
  %arrayidx.i.i.i891 = getelementptr inbounds %"class.std::__cxx11::basic_string", ptr %agg.tmp266, i64 0, i32 2, i32 1, i64 6
  store i8 0, ptr %arrayidx.i.i.i891, align 2, !tbaa !40
  invoke void @_ZN8TestCaseC1ENSt7__cxx1112basic_stringIcSt11char_traitsIcESaIcEEEi(ptr noundef nonnull align 8 dereferenceable(88) %arrayinit.element265, ptr noundef nonnull %agg.tmp266, i32 noundef 1)
          to label %invoke.cont271 unwind label %lpad270

invoke.cont271:                                   ; preds = %invoke.cont264
  %arrayinit.element272 = getelementptr inbounds %struct.TestCase, ptr %ref.tmp96, i64 24
  %180 = getelementptr inbounds %"class.std::__cxx11::basic_string", ptr %agg.tmp273, i64 0, i32 2
  store ptr %180, ptr %agg.tmp273, align 8, !tbaa !36
  store i8 125, ptr %180, align 8, !tbaa !40
  %_M_string_length.i.i.i.i902 = getelementptr inbounds %"class.std::__cxx11::basic_string", ptr %agg.tmp273, i64 0, i32 1
  store i64 1, ptr %_M_string_length.i.i.i.i902, align 8, !tbaa !38
  %arrayidx.i.i.i903 = getelementptr inbounds i8, ptr %agg.tmp273, i64 17
  store i8 0, ptr %arrayidx.i.i.i903, align 1, !tbaa !40
  invoke void @_ZN8TestCaseC1ENSt7__cxx1112basic_stringIcSt11char_traitsIcESaIcEEEi(ptr noundef nonnull align 8 dereferenceable(88) %arrayinit.element272, ptr noundef nonnull %agg.tmp273, i32 noundef 1)
          to label %invoke.cont278 unwind label %lpad277

invoke.cont278:                                   ; preds = %invoke.cont271
  %call285 = invoke noundef i32 @_Z8AddCases10TestCaseIDSt16initializer_listI8TestCaseE(i32 noundef 2, ptr nonnull %ref.tmp96, i64 25)
          to label %invoke.cont284 unwind label %lpad283

invoke.cont284:                                   ; preds = %invoke.cont278
  %181 = getelementptr inbounds %struct.TestCase, ptr %ref.tmp96, i64 25
  br label %arraydestroy.body287

arraydestroy.body287:                             ; preds = %_ZN8TestCaseD2Ev.exit934, %invoke.cont284
  %arraydestroy.elementPast288 = phi ptr [ %181, %invoke.cont284 ], [ %arraydestroy.element289, %_ZN8TestCaseD2Ev.exit934 ]
  %arraydestroy.element289 = getelementptr inbounds %struct.TestCase, ptr %arraydestroy.elementPast288, i64 -1
  %_M_refcount.i.i907 = getelementptr %struct.TestCase, ptr %arraydestroy.elementPast288, i64 -1, i32 3, i32 0, i32 1
  %182 = load ptr, ptr %_M_refcount.i.i907, align 8, !tbaa !42
  %cmp.not.i.i.i908 = icmp eq ptr %182, null
  br i1 %cmp.not.i.i.i908, label %_ZNSt12__shared_ptrIN9benchmark5RegexELN9__gnu_cxx12_Lock_policyE2EED2Ev.exit.i929, label %if.then.i.i.i911

if.then.i.i.i911:                                 ; preds = %arraydestroy.body287
  %_M_use_count.i.i.i.i909 = getelementptr inbounds %"class.std::_Sp_counted_base", ptr %182, i64 0, i32 1
  %183 = load atomic i64, ptr %_M_use_count.i.i.i.i909 acquire, align 8
  %cmp.i.i.i.i910 = icmp eq i64 %183, 4294967297
  %184 = trunc i64 %183 to i32
  br i1 %cmp.i.i.i.i910, label %if.then.i.i.i.i917, label %if.end.i.i.i.i919

if.then.i.i.i.i917:                               ; preds = %if.then.i.i.i911
  store i32 0, ptr %_M_use_count.i.i.i.i909, align 8, !tbaa !44
  %_M_weak_count.i.i.i.i912 = getelementptr inbounds %"class.std::_Sp_counted_base", ptr %182, i64 0, i32 2
  store i32 0, ptr %_M_weak_count.i.i.i.i912, align 4, !tbaa !46
  %vtable.i.i.i.i913 = load ptr, ptr %182, align 8, !tbaa !47
  %vfn.i.i.i.i914 = getelementptr inbounds ptr, ptr %vtable.i.i.i.i913, i64 2
  %185 = load ptr, ptr %vfn.i.i.i.i914, align 8
  call void %185(ptr noundef nonnull align 8 dereferenceable(16) %182) #25
  %vtable3.i.i.i.i915 = load ptr, ptr %182, align 8, !tbaa !47
  %vfn4.i.i.i.i916 = getelementptr inbounds ptr, ptr %vtable3.i.i.i.i915, i64 3
  %186 = load ptr, ptr %vfn4.i.i.i.i916, align 8
  call void %186(ptr noundef nonnull align 8 dereferenceable(16) %182) #25
  br label %_ZNSt12__shared_ptrIN9benchmark5RegexELN9__gnu_cxx12_Lock_policyE2EED2Ev.exit.i929

if.end.i.i.i.i919:                                ; preds = %if.then.i.i.i911
  %187 = load i8, ptr @__libc_single_threaded, align 1, !tbaa !40
  %tobool.i.not.i.i.i.i.i918 = icmp eq i8 %187, 0
  br i1 %tobool.i.not.i.i.i.i.i918, label %if.else.i.i.i.i.i922, label %if.then.i.i.i.i.i921

if.then.i.i.i.i.i921:                             ; preds = %if.end.i.i.i.i919
  %add.i.i.i.i.i.i920 = add nsw i32 %184, -1
  store i32 %add.i.i.i.i.i.i920, ptr %_M_use_count.i.i.i.i909, align 8, !tbaa !32
  br label %invoke.cont.i.i.i.i925

if.else.i.i.i.i.i922:                             ; preds = %if.end.i.i.i.i919
  %188 = atomicrmw volatile add ptr %_M_use_count.i.i.i.i909, i32 -1 acq_rel, align 4
  br label %invoke.cont.i.i.i.i925

invoke.cont.i.i.i.i925:                           ; preds = %if.else.i.i.i.i.i922, %if.then.i.i.i.i.i921
  %retval.0.i.i.i.i.i923 = phi i32 [ %184, %if.then.i.i.i.i.i921 ], [ %188, %if.else.i.i.i.i.i922 ]
  %cmp6.i.i.i.i924 = icmp eq i32 %retval.0.i.i.i.i.i923, 1
  br i1 %cmp6.i.i.i.i924, label %if.then7.i.i.i.i926, label %_ZNSt12__shared_ptrIN9benchmark5RegexELN9__gnu_cxx12_Lock_policyE2EED2Ev.exit.i929, !prof !27

if.then7.i.i.i.i926:                              ; preds = %invoke.cont.i.i.i.i925
  call void @_ZNSt16_Sp_counted_baseILN9__gnu_cxx12_Lock_policyE2EE24_M_release_last_use_coldEv(ptr noundef nonnull align 8 dereferenceable(16) %182) #25
  br label %_ZNSt12__shared_ptrIN9benchmark5RegexELN9__gnu_cxx12_Lock_policyE2EED2Ev.exit.i929

_ZNSt12__shared_ptrIN9benchmark5RegexELN9__gnu_cxx12_Lock_policyE2EED2Ev.exit.i929: ; preds = %if.then7.i.i.i.i926, %invoke.cont.i.i.i.i925, %if.then.i.i.i.i917, %arraydestroy.body287
  %substituted_regex.i927 = getelementptr %struct.TestCase, ptr %arraydestroy.elementPast288, i64 -1, i32 2
  %189 = load ptr, ptr %substituted_regex.i927, align 8, !tbaa !41
  %190 = getelementptr %struct.TestCase, ptr %arraydestroy.elementPast288, i64 -1, i32 2, i32 2
  %cmp.i.i.i2.i928 = icmp eq ptr %189, %190
  br i1 %cmp.i.i.i2.i928, label %_ZNSt7__cxx1112basic_stringIcSt11char_traitsIcESaIcEED2Ev.exit.i932, label %if.then.i.i3.i930

if.then.i.i3.i930:                                ; preds = %_ZNSt12__shared_ptrIN9benchmark5RegexELN9__gnu_cxx12_Lock_policyE2EED2Ev.exit.i929
  call void @_ZdlPv(ptr noundef %189) #26
  br label %_ZNSt7__cxx1112basic_stringIcSt11char_traitsIcESaIcEED2Ev.exit.i932

_ZNSt7__cxx1112basic_stringIcSt11char_traitsIcESaIcEED2Ev.exit.i932: ; preds = %if.then.i.i3.i930, %_ZNSt12__shared_ptrIN9benchmark5RegexELN9__gnu_cxx12_Lock_policyE2EED2Ev.exit.i929
  %191 = load ptr, ptr %arraydestroy.element289, align 8, !tbaa !41
  %192 = getelementptr %struct.TestCase, ptr %arraydestroy.elementPast288, i64 -1, i32 0, i32 2
  %cmp.i.i.i4.i931 = icmp eq ptr %191, %192
  br i1 %cmp.i.i.i4.i931, label %_ZN8TestCaseD2Ev.exit934, label %if.then.i.i5.i933

if.then.i.i5.i933:                                ; preds = %_ZNSt7__cxx1112basic_stringIcSt11char_traitsIcESaIcEED2Ev.exit.i932
  call void @_ZdlPv(ptr noundef %191) #26
  br label %_ZN8TestCaseD2Ev.exit934

_ZN8TestCaseD2Ev.exit934:                         ; preds = %_ZNSt7__cxx1112basic_stringIcSt11char_traitsIcESaIcEED2Ev.exit.i932, %if.then.i.i5.i933
  %arraydestroy.done290 = icmp eq ptr %arraydestroy.element289, %ref.tmp96
  br i1 %arraydestroy.done290, label %arraydestroy.done291, label %arraydestroy.body287

arraydestroy.done291:                             ; preds = %_ZN8TestCaseD2Ev.exit934
  %193 = load ptr, ptr %agg.tmp273, align 8, !tbaa !41
  %cmp.i.i.i935 = icmp eq ptr %193, %180
  br i1 %cmp.i.i.i935, label %_ZNSt7__cxx1112basic_stringIcSt11char_traitsIcESaIcEED2Ev.exit938, label %if.then.i.i936

if.then.i.i936:                                   ; preds = %arraydestroy.done291
  call void @_ZdlPv(ptr noundef %193) #26
  br label %_ZNSt7__cxx1112basic_stringIcSt11char_traitsIcESaIcEED2Ev.exit938

_ZNSt7__cxx1112basic_stringIcSt11char_traitsIcESaIcEED2Ev.exit938: ; preds = %arraydestroy.done291, %if.then.i.i936
  %194 = load ptr, ptr %agg.tmp266, align 8, !tbaa !41
  %cmp.i.i.i939 = icmp eq ptr %194, %179
  br i1 %cmp.i.i.i939, label %_ZNSt7__cxx1112basic_stringIcSt11char_traitsIcESaIcEED2Ev.exit942, label %if.then.i.i940

if.then.i.i940:                                   ; preds = %_ZNSt7__cxx1112basic_stringIcSt11char_traitsIcESaIcEED2Ev.exit938
  call void @_ZdlPv(ptr noundef %194) #26
  br label %_ZNSt7__cxx1112basic_stringIcSt11char_traitsIcESaIcEED2Ev.exit942

_ZNSt7__cxx1112basic_stringIcSt11char_traitsIcESaIcEED2Ev.exit942: ; preds = %_ZNSt7__cxx1112basic_stringIcSt11char_traitsIcESaIcEED2Ev.exit938, %if.then.i.i940
  %195 = load ptr, ptr %agg.tmp259, align 8, !tbaa !41
  %cmp.i.i.i943 = icmp eq ptr %195, %176
  br i1 %cmp.i.i.i943, label %_ZNSt7__cxx1112basic_stringIcSt11char_traitsIcESaIcEED2Ev.exit946, label %if.then.i.i944

if.then.i.i944:                                   ; preds = %_ZNSt7__cxx1112basic_stringIcSt11char_traitsIcESaIcEED2Ev.exit942
  call void @_ZdlPv(ptr noundef %195) #26
  br label %_ZNSt7__cxx1112basic_stringIcSt11char_traitsIcESaIcEED2Ev.exit946

_ZNSt7__cxx1112basic_stringIcSt11char_traitsIcESaIcEED2Ev.exit946: ; preds = %_ZNSt7__cxx1112basic_stringIcSt11char_traitsIcESaIcEED2Ev.exit942, %if.then.i.i944
  %196 = load ptr, ptr %agg.tmp252, align 8, !tbaa !41
  %cmp.i.i.i947 = icmp eq ptr %196, %173
  br i1 %cmp.i.i.i947, label %_ZNSt7__cxx1112basic_stringIcSt11char_traitsIcESaIcEED2Ev.exit950, label %if.then.i.i948

if.then.i.i948:                                   ; preds = %_ZNSt7__cxx1112basic_stringIcSt11char_traitsIcESaIcEED2Ev.exit946
  call void @_ZdlPv(ptr noundef %196) #26
  br label %_ZNSt7__cxx1112basic_stringIcSt11char_traitsIcESaIcEED2Ev.exit950

_ZNSt7__cxx1112basic_stringIcSt11char_traitsIcESaIcEED2Ev.exit950: ; preds = %_ZNSt7__cxx1112basic_stringIcSt11char_traitsIcESaIcEED2Ev.exit946, %if.then.i.i948
  %197 = load ptr, ptr %agg.tmp245, align 8, !tbaa !41
  %cmp.i.i.i951 = icmp eq ptr %197, %172
  br i1 %cmp.i.i.i951, label %_ZNSt7__cxx1112basic_stringIcSt11char_traitsIcESaIcEED2Ev.exit954, label %if.then.i.i952

if.then.i.i952:                                   ; preds = %_ZNSt7__cxx1112basic_stringIcSt11char_traitsIcESaIcEED2Ev.exit950
  call void @_ZdlPv(ptr noundef %197) #26
  br label %_ZNSt7__cxx1112basic_stringIcSt11char_traitsIcESaIcEED2Ev.exit954

_ZNSt7__cxx1112basic_stringIcSt11char_traitsIcESaIcEED2Ev.exit954: ; preds = %_ZNSt7__cxx1112basic_stringIcSt11char_traitsIcESaIcEED2Ev.exit950, %if.then.i.i952
  %198 = load ptr, ptr %agg.tmp238, align 8, !tbaa !41
  %cmp.i.i.i955 = icmp eq ptr %198, %169
  br i1 %cmp.i.i.i955, label %_ZNSt7__cxx1112basic_stringIcSt11char_traitsIcESaIcEED2Ev.exit958, label %if.then.i.i956

if.then.i.i956:                                   ; preds = %_ZNSt7__cxx1112basic_stringIcSt11char_traitsIcESaIcEED2Ev.exit954
  call void @_ZdlPv(ptr noundef %198) #26
  br label %_ZNSt7__cxx1112basic_stringIcSt11char_traitsIcESaIcEED2Ev.exit958

_ZNSt7__cxx1112basic_stringIcSt11char_traitsIcESaIcEED2Ev.exit958: ; preds = %_ZNSt7__cxx1112basic_stringIcSt11char_traitsIcESaIcEED2Ev.exit954, %if.then.i.i956
  %199 = load ptr, ptr %agg.tmp231, align 8, !tbaa !41
  %cmp.i.i.i959 = icmp eq ptr %199, %166
  br i1 %cmp.i.i.i959, label %_ZNSt7__cxx1112basic_stringIcSt11char_traitsIcESaIcEED2Ev.exit962, label %if.then.i.i960

if.then.i.i960:                                   ; preds = %_ZNSt7__cxx1112basic_stringIcSt11char_traitsIcESaIcEED2Ev.exit958
  call void @_ZdlPv(ptr noundef %199) #26
  br label %_ZNSt7__cxx1112basic_stringIcSt11char_traitsIcESaIcEED2Ev.exit962

_ZNSt7__cxx1112basic_stringIcSt11char_traitsIcESaIcEED2Ev.exit962: ; preds = %_ZNSt7__cxx1112basic_stringIcSt11char_traitsIcESaIcEED2Ev.exit958, %if.then.i.i960
  %200 = load ptr, ptr %agg.tmp224, align 8, !tbaa !41
  %cmp.i.i.i963 = icmp eq ptr %200, %163
  br i1 %cmp.i.i.i963, label %_ZNSt7__cxx1112basic_stringIcSt11char_traitsIcESaIcEED2Ev.exit966, label %if.then.i.i964

if.then.i.i964:                                   ; preds = %_ZNSt7__cxx1112basic_stringIcSt11char_traitsIcESaIcEED2Ev.exit962
  call void @_ZdlPv(ptr noundef %200) #26
  br label %_ZNSt7__cxx1112basic_stringIcSt11char_traitsIcESaIcEED2Ev.exit966

_ZNSt7__cxx1112basic_stringIcSt11char_traitsIcESaIcEED2Ev.exit966: ; preds = %_ZNSt7__cxx1112basic_stringIcSt11char_traitsIcESaIcEED2Ev.exit962, %if.then.i.i964
  %201 = load ptr, ptr %agg.tmp217, align 8, !tbaa !41
  %cmp.i.i.i967 = icmp eq ptr %201, %160
  br i1 %cmp.i.i.i967, label %_ZNSt7__cxx1112basic_stringIcSt11char_traitsIcESaIcEED2Ev.exit970, label %if.then.i.i968

if.then.i.i968:                                   ; preds = %_ZNSt7__cxx1112basic_stringIcSt11char_traitsIcESaIcEED2Ev.exit966
  call void @_ZdlPv(ptr noundef %201) #26
  br label %_ZNSt7__cxx1112basic_stringIcSt11char_traitsIcESaIcEED2Ev.exit970

_ZNSt7__cxx1112basic_stringIcSt11char_traitsIcESaIcEED2Ev.exit970: ; preds = %_ZNSt7__cxx1112basic_stringIcSt11char_traitsIcESaIcEED2Ev.exit966, %if.then.i.i968
  %202 = load ptr, ptr %agg.tmp207, align 8, !tbaa !41
  %cmp.i.i.i971 = icmp eq ptr %202, %154
  br i1 %cmp.i.i.i971, label %_ZNSt7__cxx1112basic_stringIcSt11char_traitsIcESaIcEED2Ev.exit974, label %if.then.i.i972

if.then.i.i972:                                   ; preds = %_ZNSt7__cxx1112basic_stringIcSt11char_traitsIcESaIcEED2Ev.exit970
  call void @_ZdlPv(ptr noundef %202) #26
  br label %_ZNSt7__cxx1112basic_stringIcSt11char_traitsIcESaIcEED2Ev.exit974

_ZNSt7__cxx1112basic_stringIcSt11char_traitsIcESaIcEED2Ev.exit974: ; preds = %_ZNSt7__cxx1112basic_stringIcSt11char_traitsIcESaIcEED2Ev.exit970, %if.then.i.i972
  %203 = load ptr, ptr %ref.tmp208, align 8, !tbaa !41
  %cmp.i.i.i975 = icmp eq ptr %203, %146
  br i1 %cmp.i.i.i975, label %_ZNSt7__cxx1112basic_stringIcSt11char_traitsIcESaIcEED2Ev.exit978, label %if.then.i.i976

if.then.i.i976:                                   ; preds = %_ZNSt7__cxx1112basic_stringIcSt11char_traitsIcESaIcEED2Ev.exit974
  call void @_ZdlPv(ptr noundef %203) #26
  br label %_ZNSt7__cxx1112basic_stringIcSt11char_traitsIcESaIcEED2Ev.exit978

_ZNSt7__cxx1112basic_stringIcSt11char_traitsIcESaIcEED2Ev.exit978: ; preds = %_ZNSt7__cxx1112basic_stringIcSt11char_traitsIcESaIcEED2Ev.exit974, %if.then.i.i976
  %204 = load ptr, ptr %ref.tmp209, align 8, !tbaa !41
  %cmp.i.i.i979 = icmp eq ptr %204, %137
  br i1 %cmp.i.i.i979, label %_ZNSt7__cxx1112basic_stringIcSt11char_traitsIcESaIcEED2Ev.exit982, label %if.then.i.i980

if.then.i.i980:                                   ; preds = %_ZNSt7__cxx1112basic_stringIcSt11char_traitsIcESaIcEED2Ev.exit978
  call void @_ZdlPv(ptr noundef %204) #26
  br label %_ZNSt7__cxx1112basic_stringIcSt11char_traitsIcESaIcEED2Ev.exit982

_ZNSt7__cxx1112basic_stringIcSt11char_traitsIcESaIcEED2Ev.exit982: ; preds = %_ZNSt7__cxx1112basic_stringIcSt11char_traitsIcESaIcEED2Ev.exit978, %if.then.i.i980
  call void @llvm.lifetime.end.p0(i64 32, ptr nonnull %ref.tmp209) #25
  call void @llvm.lifetime.end.p0(i64 32, ptr nonnull %ref.tmp208) #25
  %205 = load ptr, ptr %agg.tmp200, align 8, !tbaa !41
  %cmp.i.i.i983 = icmp eq ptr %205, %133
  br i1 %cmp.i.i.i983, label %_ZNSt7__cxx1112basic_stringIcSt11char_traitsIcESaIcEED2Ev.exit986, label %if.then.i.i984

if.then.i.i984:                                   ; preds = %_ZNSt7__cxx1112basic_stringIcSt11char_traitsIcESaIcEED2Ev.exit982
  call void @_ZdlPv(ptr noundef %205) #26
  br label %_ZNSt7__cxx1112basic_stringIcSt11char_traitsIcESaIcEED2Ev.exit986

_ZNSt7__cxx1112basic_stringIcSt11char_traitsIcESaIcEED2Ev.exit986: ; preds = %_ZNSt7__cxx1112basic_stringIcSt11char_traitsIcESaIcEED2Ev.exit982, %if.then.i.i984
  %206 = load ptr, ptr %agg.tmp193, align 8, !tbaa !41
  %cmp.i.i.i987 = icmp eq ptr %206, %132
  br i1 %cmp.i.i.i987, label %_ZNSt7__cxx1112basic_stringIcSt11char_traitsIcESaIcEED2Ev.exit990, label %if.then.i.i988

if.then.i.i988:                                   ; preds = %_ZNSt7__cxx1112basic_stringIcSt11char_traitsIcESaIcEED2Ev.exit986
  call void @_ZdlPv(ptr noundef %206) #26
  br label %_ZNSt7__cxx1112basic_stringIcSt11char_traitsIcESaIcEED2Ev.exit990

_ZNSt7__cxx1112basic_stringIcSt11char_traitsIcESaIcEED2Ev.exit990: ; preds = %_ZNSt7__cxx1112basic_stringIcSt11char_traitsIcESaIcEED2Ev.exit986, %if.then.i.i988
  %207 = load ptr, ptr %agg.tmp186, align 8, !tbaa !41
  %cmp.i.i.i991 = icmp eq ptr %207, %129
  br i1 %cmp.i.i.i991, label %_ZNSt7__cxx1112basic_stringIcSt11char_traitsIcESaIcEED2Ev.exit994, label %if.then.i.i992

if.then.i.i992:                                   ; preds = %_ZNSt7__cxx1112basic_stringIcSt11char_traitsIcESaIcEED2Ev.exit990
  call void @_ZdlPv(ptr noundef %207) #26
  br label %_ZNSt7__cxx1112basic_stringIcSt11char_traitsIcESaIcEED2Ev.exit994

_ZNSt7__cxx1112basic_stringIcSt11char_traitsIcESaIcEED2Ev.exit994: ; preds = %_ZNSt7__cxx1112basic_stringIcSt11char_traitsIcESaIcEED2Ev.exit990, %if.then.i.i992
  %208 = load ptr, ptr %agg.tmp179, align 8, !tbaa !41
  %cmp.i.i.i995 = icmp eq ptr %208, %126
  br i1 %cmp.i.i.i995, label %_ZNSt7__cxx1112basic_stringIcSt11char_traitsIcESaIcEED2Ev.exit998, label %if.then.i.i996

if.then.i.i996:                                   ; preds = %_ZNSt7__cxx1112basic_stringIcSt11char_traitsIcESaIcEED2Ev.exit994
  call void @_ZdlPv(ptr noundef %208) #26
  br label %_ZNSt7__cxx1112basic_stringIcSt11char_traitsIcESaIcEED2Ev.exit998

_ZNSt7__cxx1112basic_stringIcSt11char_traitsIcESaIcEED2Ev.exit998: ; preds = %_ZNSt7__cxx1112basic_stringIcSt11char_traitsIcESaIcEED2Ev.exit994, %if.then.i.i996
  %209 = load ptr, ptr %agg.tmp172, align 8, !tbaa !41
  %cmp.i.i.i999 = icmp eq ptr %209, %123
  br i1 %cmp.i.i.i999, label %_ZNSt7__cxx1112basic_stringIcSt11char_traitsIcESaIcEED2Ev.exit1002, label %if.then.i.i1000

if.then.i.i1000:                                  ; preds = %_ZNSt7__cxx1112basic_stringIcSt11char_traitsIcESaIcEED2Ev.exit998
  call void @_ZdlPv(ptr noundef %209) #26
  br label %_ZNSt7__cxx1112basic_stringIcSt11char_traitsIcESaIcEED2Ev.exit1002

_ZNSt7__cxx1112basic_stringIcSt11char_traitsIcESaIcEED2Ev.exit1002: ; preds = %_ZNSt7__cxx1112basic_stringIcSt11char_traitsIcESaIcEED2Ev.exit998, %if.then.i.i1000
  %210 = load ptr, ptr %agg.tmp165, align 8, !tbaa !41
  %cmp.i.i.i1003 = icmp eq ptr %210, %120
  br i1 %cmp.i.i.i1003, label %_ZNSt7__cxx1112basic_stringIcSt11char_traitsIcESaIcEED2Ev.exit1006, label %if.then.i.i1004

if.then.i.i1004:                                  ; preds = %_ZNSt7__cxx1112basic_stringIcSt11char_traitsIcESaIcEED2Ev.exit1002
  call void @_ZdlPv(ptr noundef %210) #26
  br label %_ZNSt7__cxx1112basic_stringIcSt11char_traitsIcESaIcEED2Ev.exit1006

_ZNSt7__cxx1112basic_stringIcSt11char_traitsIcESaIcEED2Ev.exit1006: ; preds = %_ZNSt7__cxx1112basic_stringIcSt11char_traitsIcESaIcEED2Ev.exit1002, %if.then.i.i1004
  %211 = load ptr, ptr %agg.tmp158, align 8, !tbaa !41
  %cmp.i.i.i1007 = icmp eq ptr %211, %117
  br i1 %cmp.i.i.i1007, label %_ZNSt7__cxx1112basic_stringIcSt11char_traitsIcESaIcEED2Ev.exit1010, label %if.then.i.i1008

if.then.i.i1008:                                  ; preds = %_ZNSt7__cxx1112basic_stringIcSt11char_traitsIcESaIcEED2Ev.exit1006
  call void @_ZdlPv(ptr noundef %211) #26
  br label %_ZNSt7__cxx1112basic_stringIcSt11char_traitsIcESaIcEED2Ev.exit1010

_ZNSt7__cxx1112basic_stringIcSt11char_traitsIcESaIcEED2Ev.exit1010: ; preds = %_ZNSt7__cxx1112basic_stringIcSt11char_traitsIcESaIcEED2Ev.exit1006, %if.then.i.i1008
  %212 = load ptr, ptr %agg.tmp151, align 8, !tbaa !41
  %cmp.i.i.i1011 = icmp eq ptr %212, %114
  br i1 %cmp.i.i.i1011, label %_ZNSt7__cxx1112basic_stringIcSt11char_traitsIcESaIcEED2Ev.exit1014, label %if.then.i.i1012

if.then.i.i1012:                                  ; preds = %_ZNSt7__cxx1112basic_stringIcSt11char_traitsIcESaIcEED2Ev.exit1010
  call void @_ZdlPv(ptr noundef %212) #26
  br label %_ZNSt7__cxx1112basic_stringIcSt11char_traitsIcESaIcEED2Ev.exit1014

_ZNSt7__cxx1112basic_stringIcSt11char_traitsIcESaIcEED2Ev.exit1014: ; preds = %_ZNSt7__cxx1112basic_stringIcSt11char_traitsIcESaIcEED2Ev.exit1010, %if.then.i.i1012
  %213 = load ptr, ptr %agg.tmp144, align 8, !tbaa !41
  %cmp.i.i.i1015 = icmp eq ptr %213, %113
  br i1 %cmp.i.i.i1015, label %_ZNSt7__cxx1112basic_stringIcSt11char_traitsIcESaIcEED2Ev.exit1018, label %if.then.i.i1016

if.then.i.i1016:                                  ; preds = %_ZNSt7__cxx1112basic_stringIcSt11char_traitsIcESaIcEED2Ev.exit1014
  call void @_ZdlPv(ptr noundef %213) #26
  br label %_ZNSt7__cxx1112basic_stringIcSt11char_traitsIcESaIcEED2Ev.exit1018

_ZNSt7__cxx1112basic_stringIcSt11char_traitsIcESaIcEED2Ev.exit1018: ; preds = %_ZNSt7__cxx1112basic_stringIcSt11char_traitsIcESaIcEED2Ev.exit1014, %if.then.i.i1016
  %214 = load ptr, ptr %agg.tmp137, align 8, !tbaa !41
  %cmp.i.i.i1019 = icmp eq ptr %214, %110
  br i1 %cmp.i.i.i1019, label %_ZNSt7__cxx1112basic_stringIcSt11char_traitsIcESaIcEED2Ev.exit1022, label %if.then.i.i1020

if.then.i.i1020:                                  ; preds = %_ZNSt7__cxx1112basic_stringIcSt11char_traitsIcESaIcEED2Ev.exit1018
  call void @_ZdlPv(ptr noundef %214) #26
  br label %_ZNSt7__cxx1112basic_stringIcSt11char_traitsIcESaIcEED2Ev.exit1022

_ZNSt7__cxx1112basic_stringIcSt11char_traitsIcESaIcEED2Ev.exit1022: ; preds = %_ZNSt7__cxx1112basic_stringIcSt11char_traitsIcESaIcEED2Ev.exit1018, %if.then.i.i1020
  %215 = load ptr, ptr %agg.tmp130, align 8, !tbaa !41
  %cmp.i.i.i1023 = icmp eq ptr %215, %107
  br i1 %cmp.i.i.i1023, label %_ZNSt7__cxx1112basic_stringIcSt11char_traitsIcESaIcEED2Ev.exit1026, label %if.then.i.i1024

if.then.i.i1024:                                  ; preds = %_ZNSt7__cxx1112basic_stringIcSt11char_traitsIcESaIcEED2Ev.exit1022
  call void @_ZdlPv(ptr noundef %215) #26
  br label %_ZNSt7__cxx1112basic_stringIcSt11char_traitsIcESaIcEED2Ev.exit1026

_ZNSt7__cxx1112basic_stringIcSt11char_traitsIcESaIcEED2Ev.exit1026: ; preds = %_ZNSt7__cxx1112basic_stringIcSt11char_traitsIcESaIcEED2Ev.exit1022, %if.then.i.i1024
  %216 = load ptr, ptr %agg.tmp123, align 8, !tbaa !41
  %cmp.i.i.i1027 = icmp eq ptr %216, %104
  br i1 %cmp.i.i.i1027, label %_ZNSt7__cxx1112basic_stringIcSt11char_traitsIcESaIcEED2Ev.exit1030, label %if.then.i.i1028

if.then.i.i1028:                                  ; preds = %_ZNSt7__cxx1112basic_stringIcSt11char_traitsIcESaIcEED2Ev.exit1026
  call void @_ZdlPv(ptr noundef %216) #26
  br label %_ZNSt7__cxx1112basic_stringIcSt11char_traitsIcESaIcEED2Ev.exit1030

_ZNSt7__cxx1112basic_stringIcSt11char_traitsIcESaIcEED2Ev.exit1030: ; preds = %_ZNSt7__cxx1112basic_stringIcSt11char_traitsIcESaIcEED2Ev.exit1026, %if.then.i.i1028
  %217 = load ptr, ptr %agg.tmp116, align 8, !tbaa !41
  %cmp.i.i.i1031 = icmp eq ptr %217, %101
  br i1 %cmp.i.i.i1031, label %_ZNSt7__cxx1112basic_stringIcSt11char_traitsIcESaIcEED2Ev.exit1034, label %if.then.i.i1032

if.then.i.i1032:                                  ; preds = %_ZNSt7__cxx1112basic_stringIcSt11char_traitsIcESaIcEED2Ev.exit1030
  call void @_ZdlPv(ptr noundef %217) #26
  br label %_ZNSt7__cxx1112basic_stringIcSt11char_traitsIcESaIcEED2Ev.exit1034

_ZNSt7__cxx1112basic_stringIcSt11char_traitsIcESaIcEED2Ev.exit1034: ; preds = %_ZNSt7__cxx1112basic_stringIcSt11char_traitsIcESaIcEED2Ev.exit1030, %if.then.i.i1032
  %218 = load ptr, ptr %agg.tmp106, align 8, !tbaa !41
  %cmp.i.i.i1035 = icmp eq ptr %218, %95
  br i1 %cmp.i.i.i1035, label %_ZNSt7__cxx1112basic_stringIcSt11char_traitsIcESaIcEED2Ev.exit1038, label %if.then.i.i1036

if.then.i.i1036:                                  ; preds = %_ZNSt7__cxx1112basic_stringIcSt11char_traitsIcESaIcEED2Ev.exit1034
  call void @_ZdlPv(ptr noundef %218) #26
  br label %_ZNSt7__cxx1112basic_stringIcSt11char_traitsIcESaIcEED2Ev.exit1038

_ZNSt7__cxx1112basic_stringIcSt11char_traitsIcESaIcEED2Ev.exit1038: ; preds = %_ZNSt7__cxx1112basic_stringIcSt11char_traitsIcESaIcEED2Ev.exit1034, %if.then.i.i1036
  %219 = load ptr, ptr %ref.tmp107, align 8, !tbaa !41
  %cmp.i.i.i1039 = icmp eq ptr %219, %87
  br i1 %cmp.i.i.i1039, label %_ZNSt7__cxx1112basic_stringIcSt11char_traitsIcESaIcEED2Ev.exit1042, label %if.then.i.i1040

if.then.i.i1040:                                  ; preds = %_ZNSt7__cxx1112basic_stringIcSt11char_traitsIcESaIcEED2Ev.exit1038
  call void @_ZdlPv(ptr noundef %219) #26
  br label %_ZNSt7__cxx1112basic_stringIcSt11char_traitsIcESaIcEED2Ev.exit1042

_ZNSt7__cxx1112basic_stringIcSt11char_traitsIcESaIcEED2Ev.exit1042: ; preds = %_ZNSt7__cxx1112basic_stringIcSt11char_traitsIcESaIcEED2Ev.exit1038, %if.then.i.i1040
  %220 = load ptr, ptr %ref.tmp108, align 8, !tbaa !41
  %cmp.i.i.i1043 = icmp eq ptr %220, %78
  br i1 %cmp.i.i.i1043, label %_ZNSt7__cxx1112basic_stringIcSt11char_traitsIcESaIcEED2Ev.exit1046, label %if.then.i.i1044

if.then.i.i1044:                                  ; preds = %_ZNSt7__cxx1112basic_stringIcSt11char_traitsIcESaIcEED2Ev.exit1042
  call void @_ZdlPv(ptr noundef %220) #26
  br label %_ZNSt7__cxx1112basic_stringIcSt11char_traitsIcESaIcEED2Ev.exit1046

_ZNSt7__cxx1112basic_stringIcSt11char_traitsIcESaIcEED2Ev.exit1046: ; preds = %_ZNSt7__cxx1112basic_stringIcSt11char_traitsIcESaIcEED2Ev.exit1042, %if.then.i.i1044
  call void @llvm.lifetime.end.p0(i64 32, ptr nonnull %ref.tmp108) #25
  call void @llvm.lifetime.end.p0(i64 32, ptr nonnull %ref.tmp107) #25
  %221 = load ptr, ptr %agg.tmp99, align 8, !tbaa !41
  %cmp.i.i.i1047 = icmp eq ptr %221, %74
  br i1 %cmp.i.i.i1047, label %_ZNSt7__cxx1112basic_stringIcSt11char_traitsIcESaIcEED2Ev.exit1050, label %if.then.i.i1048

if.then.i.i1048:                                  ; preds = %_ZNSt7__cxx1112basic_stringIcSt11char_traitsIcESaIcEED2Ev.exit1046
  call void @_ZdlPv(ptr noundef %221) #26
  br label %_ZNSt7__cxx1112basic_stringIcSt11char_traitsIcESaIcEED2Ev.exit1050

_ZNSt7__cxx1112basic_stringIcSt11char_traitsIcESaIcEED2Ev.exit1050: ; preds = %_ZNSt7__cxx1112basic_stringIcSt11char_traitsIcESaIcEED2Ev.exit1046, %if.then.i.i1048
  call void @llvm.lifetime.end.p0(i64 2200, ptr nonnull %ref.tmp96) #25
  call void @llvm.lifetime.start.p0(i64 264, ptr nonnull %ref.tmp390) #25
  %222 = getelementptr inbounds %"class.std::__cxx11::basic_string", ptr %agg.tmp393, i64 0, i32 2
  store ptr %222, ptr %agg.tmp393, align 8, !tbaa !36
  call void @llvm.lifetime.start.p0(i64 8, ptr nonnull %__dnew.i.i1051) #25
  store i64 40, ptr %__dnew.i.i1051, align 8, !tbaa !30
  %call2.i9.i1061 = invoke noundef ptr @_ZNSt7__cxx1112basic_stringIcSt11char_traitsIcESaIcEE9_M_createERmm(ptr noundef nonnull align 8 dereferenceable(32) %agg.tmp393, ptr noundef nonnull align 8 dereferenceable(8) %__dnew.i.i1051, i64 noundef 0)
          to label %call2.i9.i.noexc1060 unwind label %ehcleanup440.thread

call2.i9.i.noexc1060:                             ; preds = %_ZNSt7__cxx1112basic_stringIcSt11char_traitsIcESaIcEED2Ev.exit1050
  store ptr %call2.i9.i1061, ptr %agg.tmp393, align 8, !tbaa !41
  %223 = load i64, ptr %__dnew.i.i1051, align 8, !tbaa !30
  store i64 %223, ptr %222, align 8, !tbaa !40
  call void @llvm.memcpy.p0.p0.i64(ptr noundef nonnull align 1 dereferenceable(40) %call2.i9.i1061, ptr noundef nonnull align 1 dereferenceable(40) @.str.70, i64 40, i1 false)
  %_M_string_length.i.i.i.i1058 = getelementptr inbounds %"class.std::__cxx11::basic_string", ptr %agg.tmp393, i64 0, i32 1
  store i64 %223, ptr %_M_string_length.i.i.i.i1058, align 8, !tbaa !38
  %arrayidx.i.i.i1059 = getelementptr inbounds i8, ptr %call2.i9.i1061, i64 %223
  store i8 0, ptr %arrayidx.i.i.i1059, align 1, !tbaa !40
  call void @llvm.lifetime.end.p0(i64 8, ptr nonnull %__dnew.i.i1051) #25
  invoke void @_ZN8TestCaseC1ENSt7__cxx1112basic_stringIcSt11char_traitsIcESaIcEEEi(ptr noundef nonnull align 8 dereferenceable(88) %ref.tmp390, ptr noundef nonnull %agg.tmp393, i32 noundef 0)
          to label %invoke.cont398 unwind label %lpad397

invoke.cont398:                                   ; preds = %call2.i9.i.noexc1060
  %arrayinit.element399 = getelementptr inbounds %struct.TestCase, ptr %ref.tmp390, i64 1
  %224 = getelementptr inbounds %"class.std::__cxx11::basic_string", ptr %agg.tmp400, i64 0, i32 2
  store ptr %224, ptr %agg.tmp400, align 8, !tbaa !36
  call void @llvm.memcpy.p0.p0.i64(ptr noundef nonnull align 8 dereferenceable(13) %224, ptr noundef nonnull align 1 dereferenceable(13) @.str.71, i64 13, i1 false)
  %_M_string_length.i.i.i.i1070 = getelementptr inbounds %"class.std::__cxx11::basic_string", ptr %agg.tmp400, i64 0, i32 1
  store i64 13, ptr %_M_string_length.i.i.i.i1070, align 8, !tbaa !38
  %arrayidx.i.i.i1071 = getelementptr inbounds %"class.std::__cxx11::basic_string", ptr %agg.tmp400, i64 0, i32 2, i32 1, i64 5
  store i8 0, ptr %arrayidx.i.i.i1071, align 1, !tbaa !40
  invoke void @_ZN8TestCaseC1ENSt7__cxx1112basic_stringIcSt11char_traitsIcESaIcEEEi(ptr noundef nonnull align 8 dereferenceable(88) %arrayinit.element399, ptr noundef nonnull %agg.tmp400, i32 noundef 2)
          to label %invoke.cont405 unwind label %lpad404

invoke.cont405:                                   ; preds = %invoke.cont398
  %arrayinit.element406 = getelementptr inbounds %struct.TestCase, ptr %ref.tmp390, i64 2
  %225 = getelementptr inbounds %"class.std::__cxx11::basic_string", ptr %agg.tmp407, i64 0, i32 2
  store ptr %225, ptr %agg.tmp407, align 8, !tbaa !36
  call void @llvm.lifetime.start.p0(i64 8, ptr nonnull %__dnew.i.i1075) #25
  store i64 34, ptr %__dnew.i.i1075, align 8, !tbaa !30
  %call2.i9.i1085 = invoke noundef ptr @_ZNSt7__cxx1112basic_stringIcSt11char_traitsIcESaIcEE9_M_createERmm(ptr noundef nonnull align 8 dereferenceable(32) %agg.tmp407, ptr noundef nonnull align 8 dereferenceable(8) %__dnew.i.i1075, i64 noundef 0)
          to label %call2.i9.i.noexc1084 unwind label %lpad409

call2.i9.i.noexc1084:                             ; preds = %invoke.cont405
  store ptr %call2.i9.i1085, ptr %agg.tmp407, align 8, !tbaa !41
  %226 = load i64, ptr %__dnew.i.i1075, align 8, !tbaa !30
  store i64 %226, ptr %225, align 8, !tbaa !40
  call void @llvm.memcpy.p0.p0.i64(ptr noundef nonnull align 1 dereferenceable(34) %call2.i9.i1085, ptr noundef nonnull align 1 dereferenceable(34) @.str.72, i64 34, i1 false)
  %_M_string_length.i.i.i.i1082 = getelementptr inbounds %"class.std::__cxx11::basic_string", ptr %agg.tmp407, i64 0, i32 1
  store i64 %226, ptr %_M_string_length.i.i.i.i1082, align 8, !tbaa !38
  %arrayidx.i.i.i1083 = getelementptr inbounds i8, ptr %call2.i9.i1085, i64 %226
  store i8 0, ptr %arrayidx.i.i.i1083, align 1, !tbaa !40
  call void @llvm.lifetime.end.p0(i64 8, ptr nonnull %__dnew.i.i1075) #25
  invoke void @_ZN8TestCaseC1ENSt7__cxx1112basic_stringIcSt11char_traitsIcESaIcEEEi(ptr noundef nonnull align 8 dereferenceable(88) %arrayinit.element406, ptr noundef nonnull %agg.tmp407, i32 noundef 1)
          to label %invoke.cont412 unwind label %lpad411

invoke.cont412:                                   ; preds = %call2.i9.i.noexc1084
  %call419 = invoke noundef i32 @_Z8AddCases10TestCaseIDSt16initializer_listI8TestCaseE(i32 noundef 4, ptr nonnull %ref.tmp390, i64 3)
          to label %invoke.cont418 unwind label %lpad417

invoke.cont418:                                   ; preds = %invoke.cont412
  %arraydestroy.element423 = getelementptr inbounds %struct.TestCase, ptr %ref.tmp390, i64 2
  %_M_refcount.i.i1087 = getelementptr inbounds %struct.TestCase, ptr %ref.tmp390, i64 2, i32 3, i32 0, i32 1
  %227 = load ptr, ptr %_M_refcount.i.i1087, align 8, !tbaa !42
  %cmp.not.i.i.i1088 = icmp eq ptr %227, null
  br i1 %cmp.not.i.i.i1088, label %_ZNSt12__shared_ptrIN9benchmark5RegexELN9__gnu_cxx12_Lock_policyE2EED2Ev.exit.i1109, label %if.then.i.i.i1091

if.then.i.i.i1091:                                ; preds = %invoke.cont418
  %_M_use_count.i.i.i.i1089 = getelementptr inbounds %"class.std::_Sp_counted_base", ptr %227, i64 0, i32 1
  %228 = load atomic i64, ptr %_M_use_count.i.i.i.i1089 acquire, align 8
  %cmp.i.i.i.i1090 = icmp eq i64 %228, 4294967297
  %229 = trunc i64 %228 to i32
  br i1 %cmp.i.i.i.i1090, label %if.then.i.i.i.i1097, label %if.end.i.i.i.i1099

if.then.i.i.i.i1097:                              ; preds = %if.then.i.i.i1091
  store i32 0, ptr %_M_use_count.i.i.i.i1089, align 8, !tbaa !44
  %_M_weak_count.i.i.i.i1092 = getelementptr inbounds %"class.std::_Sp_counted_base", ptr %227, i64 0, i32 2
  store i32 0, ptr %_M_weak_count.i.i.i.i1092, align 4, !tbaa !46
  %vtable.i.i.i.i1093 = load ptr, ptr %227, align 8, !tbaa !47
  %vfn.i.i.i.i1094 = getelementptr inbounds ptr, ptr %vtable.i.i.i.i1093, i64 2
  %230 = load ptr, ptr %vfn.i.i.i.i1094, align 8
  call void %230(ptr noundef nonnull align 8 dereferenceable(16) %227) #25
  %vtable3.i.i.i.i1095 = load ptr, ptr %227, align 8, !tbaa !47
  %vfn4.i.i.i.i1096 = getelementptr inbounds ptr, ptr %vtable3.i.i.i.i1095, i64 3
  %231 = load ptr, ptr %vfn4.i.i.i.i1096, align 8
  call void %231(ptr noundef nonnull align 8 dereferenceable(16) %227) #25
  br label %_ZNSt12__shared_ptrIN9benchmark5RegexELN9__gnu_cxx12_Lock_policyE2EED2Ev.exit.i1109

if.end.i.i.i.i1099:                               ; preds = %if.then.i.i.i1091
  %232 = load i8, ptr @__libc_single_threaded, align 1, !tbaa !40
  %tobool.i.not.i.i.i.i.i1098 = icmp eq i8 %232, 0
  br i1 %tobool.i.not.i.i.i.i.i1098, label %if.else.i.i.i.i.i1102, label %if.then.i.i.i.i.i1101

if.then.i.i.i.i.i1101:                            ; preds = %if.end.i.i.i.i1099
  %add.i.i.i.i.i.i1100 = add nsw i32 %229, -1
  store i32 %add.i.i.i.i.i.i1100, ptr %_M_use_count.i.i.i.i1089, align 8, !tbaa !32
  br label %invoke.cont.i.i.i.i1105

if.else.i.i.i.i.i1102:                            ; preds = %if.end.i.i.i.i1099
  %233 = atomicrmw volatile add ptr %_M_use_count.i.i.i.i1089, i32 -1 acq_rel, align 4
  br label %invoke.cont.i.i.i.i1105

invoke.cont.i.i.i.i1105:                          ; preds = %if.else.i.i.i.i.i1102, %if.then.i.i.i.i.i1101
  %retval.0.i.i.i.i.i1103 = phi i32 [ %229, %if.then.i.i.i.i.i1101 ], [ %233, %if.else.i.i.i.i.i1102 ]
  %cmp6.i.i.i.i1104 = icmp eq i32 %retval.0.i.i.i.i.i1103, 1
  br i1 %cmp6.i.i.i.i1104, label %if.then7.i.i.i.i1106, label %_ZNSt12__shared_ptrIN9benchmark5RegexELN9__gnu_cxx12_Lock_policyE2EED2Ev.exit.i1109, !prof !27

if.then7.i.i.i.i1106:                             ; preds = %invoke.cont.i.i.i.i1105
  call void @_ZNSt16_Sp_counted_baseILN9__gnu_cxx12_Lock_policyE2EE24_M_release_last_use_coldEv(ptr noundef nonnull align 8 dereferenceable(16) %227) #25
  br label %_ZNSt12__shared_ptrIN9benchmark5RegexELN9__gnu_cxx12_Lock_policyE2EED2Ev.exit.i1109

_ZNSt12__shared_ptrIN9benchmark5RegexELN9__gnu_cxx12_Lock_policyE2EED2Ev.exit.i1109: ; preds = %if.then7.i.i.i.i1106, %invoke.cont.i.i.i.i1105, %if.then.i.i.i.i1097, %invoke.cont418
  %substituted_regex.i1107 = getelementptr inbounds %struct.TestCase, ptr %ref.tmp390, i64 2, i32 2
  %234 = load ptr, ptr %substituted_regex.i1107, align 8, !tbaa !41
  %235 = getelementptr inbounds %struct.TestCase, ptr %ref.tmp390, i64 2, i32 2, i32 2
  %cmp.i.i.i2.i1108 = icmp eq ptr %234, %235
  br i1 %cmp.i.i.i2.i1108, label %_ZNSt7__cxx1112basic_stringIcSt11char_traitsIcESaIcEED2Ev.exit.i1112, label %if.then.i.i3.i1110

if.then.i.i3.i1110:                               ; preds = %_ZNSt12__shared_ptrIN9benchmark5RegexELN9__gnu_cxx12_Lock_policyE2EED2Ev.exit.i1109
  call void @_ZdlPv(ptr noundef %234) #26
  br label %_ZNSt7__cxx1112basic_stringIcSt11char_traitsIcESaIcEED2Ev.exit.i1112

_ZNSt7__cxx1112basic_stringIcSt11char_traitsIcESaIcEED2Ev.exit.i1112: ; preds = %if.then.i.i3.i1110, %_ZNSt12__shared_ptrIN9benchmark5RegexELN9__gnu_cxx12_Lock_policyE2EED2Ev.exit.i1109
  %236 = load ptr, ptr %arraydestroy.element423, align 8, !tbaa !41
  %237 = getelementptr inbounds %struct.TestCase, ptr %ref.tmp390, i64 2, i32 0, i32 2
  %cmp.i.i.i4.i1111 = icmp eq ptr %236, %237
  br i1 %cmp.i.i.i4.i1111, label %_ZN8TestCaseD2Ev.exit1114, label %if.then.i.i5.i1113

if.then.i.i5.i1113:                               ; preds = %_ZNSt7__cxx1112basic_stringIcSt11char_traitsIcESaIcEED2Ev.exit.i1112
  call void @_ZdlPv(ptr noundef %236) #26
  br label %_ZN8TestCaseD2Ev.exit1114

_ZN8TestCaseD2Ev.exit1114:                        ; preds = %_ZNSt7__cxx1112basic_stringIcSt11char_traitsIcESaIcEED2Ev.exit.i1112, %if.then.i.i5.i1113
  %arraydestroy.element423.1 = getelementptr inbounds %struct.TestCase, ptr %ref.tmp390, i64 1
  %_M_refcount.i.i1087.1 = getelementptr inbounds %struct.TestCase, ptr %ref.tmp390, i64 1, i32 3, i32 0, i32 1
  %238 = load ptr, ptr %_M_refcount.i.i1087.1, align 8, !tbaa !42
  %cmp.not.i.i.i1088.1 = icmp eq ptr %238, null
  br i1 %cmp.not.i.i.i1088.1, label %_ZNSt12__shared_ptrIN9benchmark5RegexELN9__gnu_cxx12_Lock_policyE2EED2Ev.exit.i1109.1, label %if.then.i.i.i1091.1

if.then.i.i.i1091.1:                              ; preds = %_ZN8TestCaseD2Ev.exit1114
  %_M_use_count.i.i.i.i1089.1 = getelementptr inbounds %"class.std::_Sp_counted_base", ptr %238, i64 0, i32 1
  %239 = load atomic i64, ptr %_M_use_count.i.i.i.i1089.1 acquire, align 8
  %cmp.i.i.i.i1090.1 = icmp eq i64 %239, 4294967297
  %240 = trunc i64 %239 to i32
  br i1 %cmp.i.i.i.i1090.1, label %if.then.i.i.i.i1097.1, label %if.end.i.i.i.i1099.1

if.end.i.i.i.i1099.1:                             ; preds = %if.then.i.i.i1091.1
  %241 = load i8, ptr @__libc_single_threaded, align 1, !tbaa !40
  %tobool.i.not.i.i.i.i.i1098.1 = icmp eq i8 %241, 0
  br i1 %tobool.i.not.i.i.i.i.i1098.1, label %if.else.i.i.i.i.i1102.1, label %if.then.i.i.i.i.i1101.1

if.then.i.i.i.i.i1101.1:                          ; preds = %if.end.i.i.i.i1099.1
  %add.i.i.i.i.i.i1100.1 = add nsw i32 %240, -1
  store i32 %add.i.i.i.i.i.i1100.1, ptr %_M_use_count.i.i.i.i1089.1, align 8, !tbaa !32
  br label %invoke.cont.i.i.i.i1105.1

if.else.i.i.i.i.i1102.1:                          ; preds = %if.end.i.i.i.i1099.1
  %242 = atomicrmw volatile add ptr %_M_use_count.i.i.i.i1089.1, i32 -1 acq_rel, align 4
  br label %invoke.cont.i.i.i.i1105.1

invoke.cont.i.i.i.i1105.1:                        ; preds = %if.else.i.i.i.i.i1102.1, %if.then.i.i.i.i.i1101.1
  %retval.0.i.i.i.i.i1103.1 = phi i32 [ %240, %if.then.i.i.i.i.i1101.1 ], [ %242, %if.else.i.i.i.i.i1102.1 ]
  %cmp6.i.i.i.i1104.1 = icmp eq i32 %retval.0.i.i.i.i.i1103.1, 1
  br i1 %cmp6.i.i.i.i1104.1, label %if.then7.i.i.i.i1106.1, label %_ZNSt12__shared_ptrIN9benchmark5RegexELN9__gnu_cxx12_Lock_policyE2EED2Ev.exit.i1109.1, !prof !27

if.then7.i.i.i.i1106.1:                           ; preds = %invoke.cont.i.i.i.i1105.1
  call void @_ZNSt16_Sp_counted_baseILN9__gnu_cxx12_Lock_policyE2EE24_M_release_last_use_coldEv(ptr noundef nonnull align 8 dereferenceable(16) %238) #25
  br label %_ZNSt12__shared_ptrIN9benchmark5RegexELN9__gnu_cxx12_Lock_policyE2EED2Ev.exit.i1109.1

if.then.i.i.i.i1097.1:                            ; preds = %if.then.i.i.i1091.1
  store i32 0, ptr %_M_use_count.i.i.i.i1089.1, align 8, !tbaa !44
  %_M_weak_count.i.i.i.i1092.1 = getelementptr inbounds %"class.std::_Sp_counted_base", ptr %238, i64 0, i32 2
  store i32 0, ptr %_M_weak_count.i.i.i.i1092.1, align 4, !tbaa !46
  %vtable.i.i.i.i1093.1 = load ptr, ptr %238, align 8, !tbaa !47
  %vfn.i.i.i.i1094.1 = getelementptr inbounds ptr, ptr %vtable.i.i.i.i1093.1, i64 2
  %243 = load ptr, ptr %vfn.i.i.i.i1094.1, align 8
  call void %243(ptr noundef nonnull align 8 dereferenceable(16) %238) #25
  %vtable3.i.i.i.i1095.1 = load ptr, ptr %238, align 8, !tbaa !47
  %vfn4.i.i.i.i1096.1 = getelementptr inbounds ptr, ptr %vtable3.i.i.i.i1095.1, i64 3
  %244 = load ptr, ptr %vfn4.i.i.i.i1096.1, align 8
  call void %244(ptr noundef nonnull align 8 dereferenceable(16) %238) #25
  br label %_ZNSt12__shared_ptrIN9benchmark5RegexELN9__gnu_cxx12_Lock_policyE2EED2Ev.exit.i1109.1

_ZNSt12__shared_ptrIN9benchmark5RegexELN9__gnu_cxx12_Lock_policyE2EED2Ev.exit.i1109.1: ; preds = %if.then.i.i.i.i1097.1, %if.then7.i.i.i.i1106.1, %invoke.cont.i.i.i.i1105.1, %_ZN8TestCaseD2Ev.exit1114
  %substituted_regex.i1107.1 = getelementptr inbounds %struct.TestCase, ptr %ref.tmp390, i64 1, i32 2
  %245 = load ptr, ptr %substituted_regex.i1107.1, align 8, !tbaa !41
  %246 = getelementptr inbounds %struct.TestCase, ptr %ref.tmp390, i64 1, i32 2, i32 2
  %cmp.i.i.i2.i1108.1 = icmp eq ptr %245, %246
  br i1 %cmp.i.i.i2.i1108.1, label %_ZNSt7__cxx1112basic_stringIcSt11char_traitsIcESaIcEED2Ev.exit.i1112.1, label %if.then.i.i3.i1110.1

if.then.i.i3.i1110.1:                             ; preds = %_ZNSt12__shared_ptrIN9benchmark5RegexELN9__gnu_cxx12_Lock_policyE2EED2Ev.exit.i1109.1
  call void @_ZdlPv(ptr noundef %245) #26
  br label %_ZNSt7__cxx1112basic_stringIcSt11char_traitsIcESaIcEED2Ev.exit.i1112.1

_ZNSt7__cxx1112basic_stringIcSt11char_traitsIcESaIcEED2Ev.exit.i1112.1: ; preds = %if.then.i.i3.i1110.1, %_ZNSt12__shared_ptrIN9benchmark5RegexELN9__gnu_cxx12_Lock_policyE2EED2Ev.exit.i1109.1
  %247 = load ptr, ptr %arraydestroy.element423.1, align 8, !tbaa !41
  %248 = getelementptr inbounds %struct.TestCase, ptr %ref.tmp390, i64 1, i32 0, i32 2
  %cmp.i.i.i4.i1111.1 = icmp eq ptr %247, %248
  br i1 %cmp.i.i.i4.i1111.1, label %_ZN8TestCaseD2Ev.exit1114.1, label %if.then.i.i5.i1113.1

if.then.i.i5.i1113.1:                             ; preds = %_ZNSt7__cxx1112basic_stringIcSt11char_traitsIcESaIcEED2Ev.exit.i1112.1
  call void @_ZdlPv(ptr noundef %247) #26
  br label %_ZN8TestCaseD2Ev.exit1114.1

_ZN8TestCaseD2Ev.exit1114.1:                      ; preds = %if.then.i.i5.i1113.1, %_ZNSt7__cxx1112basic_stringIcSt11char_traitsIcESaIcEED2Ev.exit.i1112.1
  %_M_refcount.i.i1087.2 = getelementptr inbounds %struct.TestCase, ptr %ref.tmp390, i64 0, i32 3, i32 0, i32 1
  %249 = load ptr, ptr %_M_refcount.i.i1087.2, align 8, !tbaa !42
  %cmp.not.i.i.i1088.2 = icmp eq ptr %249, null
  br i1 %cmp.not.i.i.i1088.2, label %_ZNSt12__shared_ptrIN9benchmark5RegexELN9__gnu_cxx12_Lock_policyE2EED2Ev.exit.i1109.2, label %if.then.i.i.i1091.2

if.then.i.i.i1091.2:                              ; preds = %_ZN8TestCaseD2Ev.exit1114.1
  %_M_use_count.i.i.i.i1089.2 = getelementptr inbounds %"class.std::_Sp_counted_base", ptr %249, i64 0, i32 1
  %250 = load atomic i64, ptr %_M_use_count.i.i.i.i1089.2 acquire, align 8
  %cmp.i.i.i.i1090.2 = icmp eq i64 %250, 4294967297
  %251 = trunc i64 %250 to i32
  br i1 %cmp.i.i.i.i1090.2, label %if.then.i.i.i.i1097.2, label %if.end.i.i.i.i1099.2

if.end.i.i.i.i1099.2:                             ; preds = %if.then.i.i.i1091.2
  %252 = load i8, ptr @__libc_single_threaded, align 1, !tbaa !40
  %tobool.i.not.i.i.i.i.i1098.2 = icmp eq i8 %252, 0
  br i1 %tobool.i.not.i.i.i.i.i1098.2, label %if.else.i.i.i.i.i1102.2, label %if.then.i.i.i.i.i1101.2

if.then.i.i.i.i.i1101.2:                          ; preds = %if.end.i.i.i.i1099.2
  %add.i.i.i.i.i.i1100.2 = add nsw i32 %251, -1
  store i32 %add.i.i.i.i.i.i1100.2, ptr %_M_use_count.i.i.i.i1089.2, align 8, !tbaa !32
  br label %invoke.cont.i.i.i.i1105.2

if.else.i.i.i.i.i1102.2:                          ; preds = %if.end.i.i.i.i1099.2
  %253 = atomicrmw volatile add ptr %_M_use_count.i.i.i.i1089.2, i32 -1 acq_rel, align 4
  br label %invoke.cont.i.i.i.i1105.2

invoke.cont.i.i.i.i1105.2:                        ; preds = %if.else.i.i.i.i.i1102.2, %if.then.i.i.i.i.i1101.2
  %retval.0.i.i.i.i.i1103.2 = phi i32 [ %251, %if.then.i.i.i.i.i1101.2 ], [ %253, %if.else.i.i.i.i.i1102.2 ]
  %cmp6.i.i.i.i1104.2 = icmp eq i32 %retval.0.i.i.i.i.i1103.2, 1
  br i1 %cmp6.i.i.i.i1104.2, label %if.then7.i.i.i.i1106.2, label %_ZNSt12__shared_ptrIN9benchmark5RegexELN9__gnu_cxx12_Lock_policyE2EED2Ev.exit.i1109.2, !prof !27

if.then7.i.i.i.i1106.2:                           ; preds = %invoke.cont.i.i.i.i1105.2
  call void @_ZNSt16_Sp_counted_baseILN9__gnu_cxx12_Lock_policyE2EE24_M_release_last_use_coldEv(ptr noundef nonnull align 8 dereferenceable(16) %249) #25
  br label %_ZNSt12__shared_ptrIN9benchmark5RegexELN9__gnu_cxx12_Lock_policyE2EED2Ev.exit.i1109.2

if.then.i.i.i.i1097.2:                            ; preds = %if.then.i.i.i1091.2
  store i32 0, ptr %_M_use_count.i.i.i.i1089.2, align 8, !tbaa !44
  %_M_weak_count.i.i.i.i1092.2 = getelementptr inbounds %"class.std::_Sp_counted_base", ptr %249, i64 0, i32 2
  store i32 0, ptr %_M_weak_count.i.i.i.i1092.2, align 4, !tbaa !46
  %vtable.i.i.i.i1093.2 = load ptr, ptr %249, align 8, !tbaa !47
  %vfn.i.i.i.i1094.2 = getelementptr inbounds ptr, ptr %vtable.i.i.i.i1093.2, i64 2
  %254 = load ptr, ptr %vfn.i.i.i.i1094.2, align 8
  call void %254(ptr noundef nonnull align 8 dereferenceable(16) %249) #25
  %vtable3.i.i.i.i1095.2 = load ptr, ptr %249, align 8, !tbaa !47
  %vfn4.i.i.i.i1096.2 = getelementptr inbounds ptr, ptr %vtable3.i.i.i.i1095.2, i64 3
  %255 = load ptr, ptr %vfn4.i.i.i.i1096.2, align 8
  call void %255(ptr noundef nonnull align 8 dereferenceable(16) %249) #25
  br label %_ZNSt12__shared_ptrIN9benchmark5RegexELN9__gnu_cxx12_Lock_policyE2EED2Ev.exit.i1109.2

_ZNSt12__shared_ptrIN9benchmark5RegexELN9__gnu_cxx12_Lock_policyE2EED2Ev.exit.i1109.2: ; preds = %if.then.i.i.i.i1097.2, %if.then7.i.i.i.i1106.2, %invoke.cont.i.i.i.i1105.2, %_ZN8TestCaseD2Ev.exit1114.1
  %substituted_regex.i1107.2 = getelementptr inbounds %struct.TestCase, ptr %ref.tmp390, i64 0, i32 2
  %256 = load ptr, ptr %substituted_regex.i1107.2, align 8, !tbaa !41
  %257 = getelementptr inbounds %struct.TestCase, ptr %ref.tmp390, i64 0, i32 2, i32 2
  %cmp.i.i.i2.i1108.2 = icmp eq ptr %256, %257
  br i1 %cmp.i.i.i2.i1108.2, label %_ZNSt7__cxx1112basic_stringIcSt11char_traitsIcESaIcEED2Ev.exit.i1112.2, label %if.then.i.i3.i1110.2

if.then.i.i3.i1110.2:                             ; preds = %_ZNSt12__shared_ptrIN9benchmark5RegexELN9__gnu_cxx12_Lock_policyE2EED2Ev.exit.i1109.2
  call void @_ZdlPv(ptr noundef %256) #26
  br label %_ZNSt7__cxx1112basic_stringIcSt11char_traitsIcESaIcEED2Ev.exit.i1112.2

_ZNSt7__cxx1112basic_stringIcSt11char_traitsIcESaIcEED2Ev.exit.i1112.2: ; preds = %if.then.i.i3.i1110.2, %_ZNSt12__shared_ptrIN9benchmark5RegexELN9__gnu_cxx12_Lock_policyE2EED2Ev.exit.i1109.2
  %258 = load ptr, ptr %ref.tmp390, align 8, !tbaa !41
  %259 = getelementptr inbounds %struct.TestCase, ptr %ref.tmp390, i64 0, i32 0, i32 2
  %cmp.i.i.i4.i1111.2 = icmp eq ptr %258, %259
  br i1 %cmp.i.i.i4.i1111.2, label %_ZN8TestCaseD2Ev.exit1114.2, label %if.then.i.i5.i1113.2

if.then.i.i5.i1113.2:                             ; preds = %_ZNSt7__cxx1112basic_stringIcSt11char_traitsIcESaIcEED2Ev.exit.i1112.2
  call void @_ZdlPv(ptr noundef %258) #26
  br label %_ZN8TestCaseD2Ev.exit1114.2

_ZN8TestCaseD2Ev.exit1114.2:                      ; preds = %if.then.i.i5.i1113.2, %_ZNSt7__cxx1112basic_stringIcSt11char_traitsIcESaIcEED2Ev.exit.i1112.2
  %260 = load ptr, ptr %agg.tmp407, align 8, !tbaa !41
  %cmp.i.i.i1115 = icmp eq ptr %260, %225
  br i1 %cmp.i.i.i1115, label %_ZNSt7__cxx1112basic_stringIcSt11char_traitsIcESaIcEED2Ev.exit1118, label %if.then.i.i1116

if.then.i.i1116:                                  ; preds = %_ZN8TestCaseD2Ev.exit1114.2
  call void @_ZdlPv(ptr noundef %260) #26
  br label %_ZNSt7__cxx1112basic_stringIcSt11char_traitsIcESaIcEED2Ev.exit1118

_ZNSt7__cxx1112basic_stringIcSt11char_traitsIcESaIcEED2Ev.exit1118: ; preds = %_ZN8TestCaseD2Ev.exit1114.2, %if.then.i.i1116
  %261 = load ptr, ptr %agg.tmp400, align 8, !tbaa !41
  %cmp.i.i.i1119 = icmp eq ptr %261, %224
  br i1 %cmp.i.i.i1119, label %_ZNSt7__cxx1112basic_stringIcSt11char_traitsIcESaIcEED2Ev.exit1122, label %if.then.i.i1120

if.then.i.i1120:                                  ; preds = %_ZNSt7__cxx1112basic_stringIcSt11char_traitsIcESaIcEED2Ev.exit1118
  call void @_ZdlPv(ptr noundef %261) #26
  br label %_ZNSt7__cxx1112basic_stringIcSt11char_traitsIcESaIcEED2Ev.exit1122

_ZNSt7__cxx1112basic_stringIcSt11char_traitsIcESaIcEED2Ev.exit1122: ; preds = %_ZNSt7__cxx1112basic_stringIcSt11char_traitsIcESaIcEED2Ev.exit1118, %if.then.i.i1120
  %262 = load ptr, ptr %agg.tmp393, align 8, !tbaa !41
  %cmp.i.i.i1123 = icmp eq ptr %262, %222
  br i1 %cmp.i.i.i1123, label %_ZNSt7__cxx1112basic_stringIcSt11char_traitsIcESaIcEED2Ev.exit1126, label %if.then.i.i1124

if.then.i.i1124:                                  ; preds = %_ZNSt7__cxx1112basic_stringIcSt11char_traitsIcESaIcEED2Ev.exit1122
  call void @_ZdlPv(ptr noundef %262) #26
  br label %_ZNSt7__cxx1112basic_stringIcSt11char_traitsIcESaIcEED2Ev.exit1126

_ZNSt7__cxx1112basic_stringIcSt11char_traitsIcESaIcEED2Ev.exit1126: ; preds = %_ZNSt7__cxx1112basic_stringIcSt11char_traitsIcESaIcEED2Ev.exit1122, %if.then.i.i1124
  call void @llvm.lifetime.end.p0(i64 264, ptr nonnull %ref.tmp390) #25
  ret void

lpad:                                             ; preds = %invoke.cont1, %invoke.cont, %entry
  %arrayinit.endOfInit.0 = phi ptr [ %arrayinit.element2, %invoke.cont1 ], [ %arrayinit.element, %invoke.cont ], [ %ref.tmp, %entry ]
  %263 = landingpad { ptr, i32 }
          cleanup
  br label %ehcleanup24

lpad6:                                            ; preds = %invoke.cont3
  %264 = landingpad { ptr, i32 }
          cleanup
  br label %ehcleanup23

lpad8:                                            ; preds = %invoke.cont11, %_ZNSt4pairINSt7__cxx1112basic_stringIcSt11char_traitsIcESaIcEEES5_EC2IRA10_KcS5_Lb1EEEOT_OT0_.exit
  %arrayinit.endOfInit.1 = phi ptr [ %arrayinit.element12, %invoke.cont11 ], [ %arrayinit.element10, %_ZNSt4pairINSt7__cxx1112basic_stringIcSt11char_traitsIcESaIcEEES5_EC2IRA10_KcS5_Lb1EEEOT_OT0_.exit ]
  %265 = landingpad { ptr, i32 }
          cleanup
  br label %ehcleanup

lpad14:                                           ; preds = %invoke.cont13
  %266 = landingpad { ptr, i32 }
          cleanup
  %arraydestroy.element20 = getelementptr inbounds %"struct.std::pair.43", ptr %ref.tmp, i64 5
  call void @_ZNSt4pairINSt7__cxx1112basic_stringIcSt11char_traitsIcESaIcEEES5_ED2Ev(ptr noundef nonnull align 8 dereferenceable(64) %arraydestroy.element20) #25
  %arraydestroy.element20.1 = getelementptr inbounds %"struct.std::pair.43", ptr %ref.tmp, i64 4
  call void @_ZNSt4pairINSt7__cxx1112basic_stringIcSt11char_traitsIcESaIcEEES5_ED2Ev(ptr noundef nonnull align 8 dereferenceable(64) %arraydestroy.element20.1) #25
  %arraydestroy.element20.2 = getelementptr inbounds %"struct.std::pair.43", ptr %ref.tmp, i64 3
  call void @_ZNSt4pairINSt7__cxx1112basic_stringIcSt11char_traitsIcESaIcEEES5_ED2Ev(ptr noundef nonnull align 8 dereferenceable(64) %arraydestroy.element20.2) #25
  %arraydestroy.element20.3 = getelementptr inbounds %"struct.std::pair.43", ptr %ref.tmp, i64 2
  call void @_ZNSt4pairINSt7__cxx1112basic_stringIcSt11char_traitsIcESaIcEEES5_ED2Ev(ptr noundef nonnull align 8 dereferenceable(64) %arraydestroy.element20.3) #25
  %arraydestroy.element20.4 = getelementptr inbounds %"struct.std::pair.43", ptr %ref.tmp, i64 1
  call void @_ZNSt4pairINSt7__cxx1112basic_stringIcSt11char_traitsIcESaIcEEES5_ED2Ev(ptr noundef nonnull align 8 dereferenceable(64) %arraydestroy.element20.4) #25
  call void @_ZNSt4pairINSt7__cxx1112basic_stringIcSt11char_traitsIcESaIcEEES5_ED2Ev(ptr noundef nonnull align 8 dereferenceable(64) %ref.tmp) #25
  br label %ehcleanup

ehcleanup:                                        ; preds = %lpad14, %lpad8
  %cleanup.isactive.0 = phi i1 [ true, %lpad8 ], [ false, %lpad14 ]
  %.pn = phi { ptr, i32 } [ %265, %lpad8 ], [ %266, %lpad14 ]
  %arrayinit.endOfInit.2 = phi ptr [ %arrayinit.endOfInit.1, %lpad8 ], [ %arrayinit.element12, %lpad14 ]
  %267 = load ptr, ptr %ref.tmp5, align 8, !tbaa !41
  %cmp.i.i.i1127 = icmp eq ptr %267, %3
  br i1 %cmp.i.i.i1127, label %ehcleanup23, label %if.then.i.i1128

if.then.i.i1128:                                  ; preds = %ehcleanup
  call void @_ZdlPv(ptr noundef %267) #26
  br label %ehcleanup23

ehcleanup23:                                      ; preds = %if.then.i.i1128, %ehcleanup, %lpad6
  %cleanup.isactive.1 = phi i1 [ true, %lpad6 ], [ %cleanup.isactive.0, %ehcleanup ], [ %cleanup.isactive.0, %if.then.i.i1128 ]
  %.pn.pn = phi { ptr, i32 } [ %264, %lpad6 ], [ %.pn, %ehcleanup ], [ %.pn, %if.then.i.i1128 ]
  %arrayinit.endOfInit.3 = phi ptr [ %arrayinit.element4, %lpad6 ], [ %arrayinit.endOfInit.2, %ehcleanup ], [ %arrayinit.endOfInit.2, %if.then.i.i1128 ]
  call void @llvm.lifetime.end.p0(i64 32, ptr nonnull %ref.tmp5) #25
  br label %ehcleanup24

ehcleanup24:                                      ; preds = %ehcleanup23, %lpad
  %cleanup.isactive.2 = phi i1 [ %cleanup.isactive.1, %ehcleanup23 ], [ true, %lpad ]
  %.pn.pn.pn = phi { ptr, i32 } [ %.pn.pn, %ehcleanup23 ], [ %263, %lpad ]
  %arrayinit.endOfInit.4 = phi ptr [ %arrayinit.endOfInit.3, %ehcleanup23 ], [ %arrayinit.endOfInit.0, %lpad ]
  %arraydestroy.isempty = icmp ne ptr %ref.tmp, %arrayinit.endOfInit.4
  %or.cond.not = select i1 %cleanup.isactive.2, i1 %arraydestroy.isempty, i1 false
  br i1 %or.cond.not, label %arraydestroy.body25, label %cleanup.done

arraydestroy.body25:                              ; preds = %ehcleanup24, %arraydestroy.body25
  %arraydestroy.elementPast26 = phi ptr [ %arraydestroy.element27, %arraydestroy.body25 ], [ %arrayinit.endOfInit.4, %ehcleanup24 ]
  %arraydestroy.element27 = getelementptr inbounds %"struct.std::pair.43", ptr %arraydestroy.elementPast26, i64 -1
  call void @_ZNSt4pairINSt7__cxx1112basic_stringIcSt11char_traitsIcESaIcEEES5_ED2Ev(ptr noundef nonnull align 8 dereferenceable(64) %arraydestroy.element27) #25
  %arraydestroy.done28 = icmp eq ptr %arraydestroy.element27, %ref.tmp
  br i1 %arraydestroy.done28, label %cleanup.done, label %arraydestroy.body25

cleanup.done:                                     ; preds = %arraydestroy.body25, %ehcleanup24
  call void @llvm.lifetime.end.p0(i64 384, ptr nonnull %ref.tmp) #25
  br label %eh.resume

ehcleanup82.thread:                               ; preds = %_ZNSt7__cxx1112basic_stringIcSt11char_traitsIcESaIcEED2Ev.exit
  %268 = landingpad { ptr, i32 }
          cleanup
  br label %cleanup.done93

lpad39:                                           ; preds = %call2.i9.i.noexc
  %269 = landingpad { ptr, i32 }
          cleanup
  br label %ehcleanup81

lpad46:                                           ; preds = %invoke.cont40
  %270 = landingpad { ptr, i32 }
          cleanup
  br label %ehcleanup78

lpad51:                                           ; preds = %invoke.cont47
  %271 = landingpad { ptr, i32 }
          cleanup
  br label %ehcleanup78

lpad53:                                           ; preds = %call2.i9.i.noexc487
  %272 = landingpad { ptr, i32 }
          cleanup
  br label %ehcleanup75

lpad59:                                           ; preds = %invoke.cont54
  %273 = landingpad { ptr, i32 }
          cleanup
  %arraydestroy.element72 = getelementptr inbounds %struct.TestCase, ptr %ref.tmp32, i64 2
  call void @_ZN8TestCaseD2Ev(ptr noundef nonnull align 8 dereferenceable(88) %arraydestroy.element72) #25
  %arraydestroy.element72.1 = getelementptr inbounds %struct.TestCase, ptr %ref.tmp32, i64 1
  call void @_ZN8TestCaseD2Ev(ptr noundef nonnull align 8 dereferenceable(88) %arraydestroy.element72.1) #25
  call void @_ZN8TestCaseD2Ev(ptr noundef nonnull align 8 dereferenceable(88) %ref.tmp32) #25
  br label %ehcleanup75

ehcleanup75:                                      ; preds = %lpad59, %lpad53
  %cleanup.isactive55.0 = phi i1 [ true, %lpad53 ], [ false, %lpad59 ]
  %.pn1274 = phi { ptr, i32 } [ %272, %lpad53 ], [ %273, %lpad59 ]
  %274 = load ptr, ptr %agg.tmp49, align 8, !tbaa !41
  %cmp.i.i.i1131 = icmp eq ptr %274, %35
  br i1 %cmp.i.i.i1131, label %ehcleanup78, label %if.then.i.i1132

if.then.i.i1132:                                  ; preds = %ehcleanup75
  call void @_ZdlPv(ptr noundef %274) #26
  br label %ehcleanup78

ehcleanup78:                                      ; preds = %lpad51, %ehcleanup75, %if.then.i.i1132, %lpad46
  %arrayinit.endOfInit34.0 = phi ptr [ %arrayinit.element41, %lpad46 ], [ %arrayinit.element48, %if.then.i.i1132 ], [ %arrayinit.element48, %ehcleanup75 ], [ %arrayinit.element48, %lpad51 ]
  %cleanup.isactive55.2 = phi i1 [ true, %lpad46 ], [ %cleanup.isactive55.0, %if.then.i.i1132 ], [ %cleanup.isactive55.0, %ehcleanup75 ], [ true, %lpad51 ]
  %.pn1274.pn.pn = phi { ptr, i32 } [ %270, %lpad46 ], [ %.pn1274, %if.then.i.i1132 ], [ %.pn1274, %ehcleanup75 ], [ %271, %lpad51 ]
  %275 = load ptr, ptr %agg.tmp42, align 8, !tbaa !41
  %cmp.i.i.i1135 = icmp eq ptr %275, %34
  br i1 %cmp.i.i.i1135, label %ehcleanup81, label %if.then.i.i1136

if.then.i.i1136:                                  ; preds = %ehcleanup78
  call void @_ZdlPv(ptr noundef %275) #26
  br label %ehcleanup81

ehcleanup81:                                      ; preds = %ehcleanup78, %if.then.i.i1136, %lpad39
  %arrayinit.endOfInit34.2 = phi ptr [ %ref.tmp32, %lpad39 ], [ %arrayinit.endOfInit34.0, %if.then.i.i1136 ], [ %arrayinit.endOfInit34.0, %ehcleanup78 ]
  %cleanup.isactive55.4 = phi i1 [ true, %lpad39 ], [ %cleanup.isactive55.2, %if.then.i.i1136 ], [ %cleanup.isactive55.2, %ehcleanup78 ]
  %.pn1274.pn.pn.pn.pn = phi { ptr, i32 } [ %269, %lpad39 ], [ %.pn1274.pn.pn, %if.then.i.i1136 ], [ %.pn1274.pn.pn, %ehcleanup78 ]
  %276 = load ptr, ptr %agg.tmp35, align 8, !tbaa !41
  %cmp.i.i.i1139 = icmp eq ptr %276, %32
  br i1 %cmp.i.i.i1139, label %ehcleanup82, label %if.then.i.i1140

if.then.i.i1140:                                  ; preds = %ehcleanup81
  call void @_ZdlPv(ptr noundef %276) #26
  br label %ehcleanup82

ehcleanup82:                                      ; preds = %if.then.i.i1140, %ehcleanup81
  %arraydestroy.isempty87 = icmp ne ptr %ref.tmp32, %arrayinit.endOfInit34.2
  %or.cond454.not = select i1 %cleanup.isactive55.4, i1 %arraydestroy.isempty87, i1 false
  br i1 %or.cond454.not, label %arraydestroy.body88, label %cleanup.done93

arraydestroy.body88:                              ; preds = %ehcleanup82, %arraydestroy.body88
  %arraydestroy.elementPast89 = phi ptr [ %arraydestroy.element90, %arraydestroy.body88 ], [ %arrayinit.endOfInit34.2, %ehcleanup82 ]
  %arraydestroy.element90 = getelementptr inbounds %struct.TestCase, ptr %arraydestroy.elementPast89, i64 -1
  call void @_ZN8TestCaseD2Ev(ptr noundef nonnull align 8 dereferenceable(88) %arraydestroy.element90) #25
  %arraydestroy.done91 = icmp eq ptr %arraydestroy.element90, %ref.tmp32
  br i1 %arraydestroy.done91, label %cleanup.done93, label %arraydestroy.body88

cleanup.done93:                                   ; preds = %arraydestroy.body88, %ehcleanup82.thread, %ehcleanup82
  %.pn1274.pn.pn.pn.pn.pn1347 = phi { ptr, i32 } [ %268, %ehcleanup82.thread ], [ %.pn1274.pn.pn.pn.pn, %ehcleanup82 ], [ %.pn1274.pn.pn.pn.pn, %arraydestroy.body88 ]
  call void @llvm.lifetime.end.p0(i64 264, ptr nonnull %ref.tmp32) #25
  br label %eh.resume

ehcleanup376.thread:                              ; preds = %_ZNSt7__cxx1112basic_stringIcSt11char_traitsIcESaIcEED2Ev.exit505
  %277 = landingpad { ptr, i32 }
          cleanup
  br label %cleanup.done387

lpad103:                                          ; preds = %call2.i9.i.noexc515
  %278 = landingpad { ptr, i32 }
          cleanup
  br label %ehcleanup375

lpad109:                                          ; preds = %_ZNSt7__cxx119to_stringEi.exit
  %279 = landingpad { ptr, i32 }
          cleanup
  br label %ehcleanup372

lpad111:                                          ; preds = %_ZNSt7__cxx1112basic_stringIcSt11char_traitsIcESaIcEE6appendEPKc.exit.i, %if.then.i.i.i537
  %280 = landingpad { ptr, i32 }
          cleanup
  br label %ehcleanup371

lpad113:                                          ; preds = %_ZStplIcSt11char_traitsIcESaIcEENSt7__cxx1112basic_stringIT_T0_T1_EEOS8_PKS5_.exit
  %281 = landingpad { ptr, i32 }
          cleanup
  br label %ehcleanup370

lpad118:                                          ; preds = %invoke.cont114
  %282 = landingpad { ptr, i32 }
          cleanup
  br label %ehcleanup370

lpad120:                                          ; preds = %call2.i9.i.noexc556
  %283 = landingpad { ptr, i32 }
          cleanup
  br label %ehcleanup367

lpad125:                                          ; preds = %invoke.cont121
  %284 = landingpad { ptr, i32 }
          cleanup
  br label %ehcleanup367

lpad127:                                          ; preds = %call2.i9.i.noexc568
  %285 = landingpad { ptr, i32 }
          cleanup
  br label %ehcleanup364

lpad132:                                          ; preds = %invoke.cont128
  %286 = landingpad { ptr, i32 }
          cleanup
  br label %ehcleanup364

lpad134:                                          ; preds = %call2.i9.i.noexc580
  %287 = landingpad { ptr, i32 }
          cleanup
  br label %ehcleanup361

lpad139:                                          ; preds = %invoke.cont135
  %288 = landingpad { ptr, i32 }
          cleanup
  br label %ehcleanup361

lpad141:                                          ; preds = %call2.i9.i.noexc592
  %289 = landingpad { ptr, i32 }
          cleanup
  br label %ehcleanup358

lpad148:                                          ; preds = %invoke.cont142
  %290 = landingpad { ptr, i32 }
          cleanup
  br label %ehcleanup355

lpad153:                                          ; preds = %invoke.cont149
  %291 = landingpad { ptr, i32 }
          cleanup
  br label %ehcleanup355

lpad155:                                          ; preds = %call2.i9.i.noexc616
  %292 = landingpad { ptr, i32 }
          cleanup
  br label %ehcleanup352

lpad160:                                          ; preds = %invoke.cont156
  %293 = landingpad { ptr, i32 }
          cleanup
  br label %ehcleanup352

lpad162:                                          ; preds = %call2.i9.i.noexc628
  %294 = landingpad { ptr, i32 }
          cleanup
  br label %ehcleanup349

lpad167:                                          ; preds = %invoke.cont163
  %295 = landingpad { ptr, i32 }
          cleanup
  br label %ehcleanup349

lpad169:                                          ; preds = %call2.i9.i.noexc640
  %296 = landingpad { ptr, i32 }
          cleanup
  br label %ehcleanup346

lpad174:                                          ; preds = %invoke.cont170
  %297 = landingpad { ptr, i32 }
          cleanup
  br label %ehcleanup346

lpad176:                                          ; preds = %call2.i9.i.noexc652
  %298 = landingpad { ptr, i32 }
          cleanup
  br label %ehcleanup343

lpad181:                                          ; preds = %invoke.cont177
  %299 = landingpad { ptr, i32 }
          cleanup
  br label %ehcleanup343

lpad183:                                          ; preds = %call2.i9.i.noexc664
  %300 = landingpad { ptr, i32 }
          cleanup
  br label %ehcleanup340

lpad188:                                          ; preds = %invoke.cont184
  %301 = landingpad { ptr, i32 }
          cleanup
  br label %ehcleanup340

lpad190:                                          ; preds = %call2.i9.i.noexc676
  %302 = landingpad { ptr, i32 }
          cleanup
  br label %ehcleanup337

lpad197:                                          ; preds = %invoke.cont191
  %303 = landingpad { ptr, i32 }
          cleanup
  br label %ehcleanup334

lpad202:                                          ; preds = %invoke.cont198
  %304 = landingpad { ptr, i32 }
          cleanup
  br label %ehcleanup334

lpad204:                                          ; preds = %call2.i9.i.noexc700
  %305 = landingpad { ptr, i32 }
          cleanup
  br label %ehcleanup331

lpad210:                                          ; preds = %_ZNSt7__cxx119to_stringEi.exit766
  %306 = landingpad { ptr, i32 }
          cleanup
  br label %ehcleanup328

lpad212:                                          ; preds = %_ZNSt7__cxx1112basic_stringIcSt11char_traitsIcESaIcEE6appendEPKc.exit.i786, %if.then.i.i.i784
  %307 = landingpad { ptr, i32 }
          cleanup
  br label %ehcleanup327

lpad214:                                          ; preds = %_ZStplIcSt11char_traitsIcESaIcEENSt7__cxx1112basic_stringIT_T0_T1_EEOS8_PKS5_.exit798
  %308 = landingpad { ptr, i32 }
          cleanup
  br label %ehcleanup326

lpad219:                                          ; preds = %invoke.cont215
  %309 = landingpad { ptr, i32 }
          cleanup
  br label %ehcleanup326

lpad221:                                          ; preds = %call2.i9.i.noexc808
  %310 = landingpad { ptr, i32 }
          cleanup
  br label %ehcleanup323

lpad226:                                          ; preds = %invoke.cont222
  %311 = landingpad { ptr, i32 }
          cleanup
  br label %ehcleanup323

lpad228:                                          ; preds = %call2.i9.i.noexc820
  %312 = landingpad { ptr, i32 }
          cleanup
  br label %ehcleanup320

lpad233:                                          ; preds = %invoke.cont229
  %313 = landingpad { ptr, i32 }
          cleanup
  br label %ehcleanup320

lpad235:                                          ; preds = %call2.i9.i.noexc832
  %314 = landingpad { ptr, i32 }
          cleanup
  br label %ehcleanup317

lpad240:                                          ; preds = %invoke.cont236
  %315 = landingpad { ptr, i32 }
          cleanup
  br label %ehcleanup317

lpad242:                                          ; preds = %call2.i9.i.noexc844
  %316 = landingpad { ptr, i32 }
          cleanup
  br label %ehcleanup314

lpad249:                                          ; preds = %invoke.cont243
  %317 = landingpad { ptr, i32 }
          cleanup
  br label %ehcleanup311

lpad254:                                          ; preds = %invoke.cont250
  %318 = landingpad { ptr, i32 }
          cleanup
  br label %ehcleanup311

lpad256:                                          ; preds = %call2.i9.i.noexc868
  %319 = landingpad { ptr, i32 }
          cleanup
  br label %ehcleanup308

lpad261:                                          ; preds = %invoke.cont257
  %320 = landingpad { ptr, i32 }
          cleanup
  br label %ehcleanup308

lpad263:                                          ; preds = %call2.i9.i.noexc880
  %321 = landingpad { ptr, i32 }
          cleanup
  br label %ehcleanup305

lpad270:                                          ; preds = %invoke.cont264
  %322 = landingpad { ptr, i32 }
          cleanup
  br label %ehcleanup302

lpad277:                                          ; preds = %invoke.cont271
  %323 = landingpad { ptr, i32 }
          cleanup
  br label %ehcleanup299

lpad283:                                          ; preds = %invoke.cont278
  %324 = landingpad { ptr, i32 }
          cleanup
  %arraydestroy.element296 = getelementptr inbounds %struct.TestCase, ptr %ref.tmp96, i64 24
  call void @_ZN8TestCaseD2Ev(ptr noundef nonnull align 8 dereferenceable(88) %arraydestroy.element296) #25
  %arraydestroy.element296.1 = getelementptr inbounds %struct.TestCase, ptr %ref.tmp96, i64 23
  call void @_ZN8TestCaseD2Ev(ptr noundef nonnull align 8 dereferenceable(88) %arraydestroy.element296.1) #25
  %arraydestroy.element296.2 = getelementptr inbounds %struct.TestCase, ptr %ref.tmp96, i64 22
  call void @_ZN8TestCaseD2Ev(ptr noundef nonnull align 8 dereferenceable(88) %arraydestroy.element296.2) #25
  %arraydestroy.element296.3 = getelementptr inbounds %struct.TestCase, ptr %ref.tmp96, i64 21
  call void @_ZN8TestCaseD2Ev(ptr noundef nonnull align 8 dereferenceable(88) %arraydestroy.element296.3) #25
  %arraydestroy.element296.4 = getelementptr inbounds %struct.TestCase, ptr %ref.tmp96, i64 20
  call void @_ZN8TestCaseD2Ev(ptr noundef nonnull align 8 dereferenceable(88) %arraydestroy.element296.4) #25
  %arraydestroy.element296.5 = getelementptr inbounds %struct.TestCase, ptr %ref.tmp96, i64 19
  call void @_ZN8TestCaseD2Ev(ptr noundef nonnull align 8 dereferenceable(88) %arraydestroy.element296.5) #25
  %arraydestroy.element296.6 = getelementptr inbounds %struct.TestCase, ptr %ref.tmp96, i64 18
  call void @_ZN8TestCaseD2Ev(ptr noundef nonnull align 8 dereferenceable(88) %arraydestroy.element296.6) #25
  %arraydestroy.element296.7 = getelementptr inbounds %struct.TestCase, ptr %ref.tmp96, i64 17
  call void @_ZN8TestCaseD2Ev(ptr noundef nonnull align 8 dereferenceable(88) %arraydestroy.element296.7) #25
  %arraydestroy.element296.8 = getelementptr inbounds %struct.TestCase, ptr %ref.tmp96, i64 16
  call void @_ZN8TestCaseD2Ev(ptr noundef nonnull align 8 dereferenceable(88) %arraydestroy.element296.8) #25
  %arraydestroy.element296.9 = getelementptr inbounds %struct.TestCase, ptr %ref.tmp96, i64 15
  call void @_ZN8TestCaseD2Ev(ptr noundef nonnull align 8 dereferenceable(88) %arraydestroy.element296.9) #25
  %arraydestroy.element296.10 = getelementptr inbounds %struct.TestCase, ptr %ref.tmp96, i64 14
  call void @_ZN8TestCaseD2Ev(ptr noundef nonnull align 8 dereferenceable(88) %arraydestroy.element296.10) #25
  %arraydestroy.element296.11 = getelementptr inbounds %struct.TestCase, ptr %ref.tmp96, i64 13
  call void @_ZN8TestCaseD2Ev(ptr noundef nonnull align 8 dereferenceable(88) %arraydestroy.element296.11) #25
  %arraydestroy.element296.12 = getelementptr inbounds %struct.TestCase, ptr %ref.tmp96, i64 12
  call void @_ZN8TestCaseD2Ev(ptr noundef nonnull align 8 dereferenceable(88) %arraydestroy.element296.12) #25
  %arraydestroy.element296.13 = getelementptr inbounds %struct.TestCase, ptr %ref.tmp96, i64 11
  call void @_ZN8TestCaseD2Ev(ptr noundef nonnull align 8 dereferenceable(88) %arraydestroy.element296.13) #25
  %arraydestroy.element296.14 = getelementptr inbounds %struct.TestCase, ptr %ref.tmp96, i64 10
  call void @_ZN8TestCaseD2Ev(ptr noundef nonnull align 8 dereferenceable(88) %arraydestroy.element296.14) #25
  %arraydestroy.element296.15 = getelementptr inbounds %struct.TestCase, ptr %ref.tmp96, i64 9
  call void @_ZN8TestCaseD2Ev(ptr noundef nonnull align 8 dereferenceable(88) %arraydestroy.element296.15) #25
  %arraydestroy.element296.16 = getelementptr inbounds %struct.TestCase, ptr %ref.tmp96, i64 8
  call void @_ZN8TestCaseD2Ev(ptr noundef nonnull align 8 dereferenceable(88) %arraydestroy.element296.16) #25
  %arraydestroy.element296.17 = getelementptr inbounds %struct.TestCase, ptr %ref.tmp96, i64 7
  call void @_ZN8TestCaseD2Ev(ptr noundef nonnull align 8 dereferenceable(88) %arraydestroy.element296.17) #25
  %arraydestroy.element296.18 = getelementptr inbounds %struct.TestCase, ptr %ref.tmp96, i64 6
  call void @_ZN8TestCaseD2Ev(ptr noundef nonnull align 8 dereferenceable(88) %arraydestroy.element296.18) #25
  %arraydestroy.element296.19 = getelementptr inbounds %struct.TestCase, ptr %ref.tmp96, i64 5
  call void @_ZN8TestCaseD2Ev(ptr noundef nonnull align 8 dereferenceable(88) %arraydestroy.element296.19) #25
  %arraydestroy.element296.20 = getelementptr inbounds %struct.TestCase, ptr %ref.tmp96, i64 4
  call void @_ZN8TestCaseD2Ev(ptr noundef nonnull align 8 dereferenceable(88) %arraydestroy.element296.20) #25
  %arraydestroy.element296.21 = getelementptr inbounds %struct.TestCase, ptr %ref.tmp96, i64 3
  call void @_ZN8TestCaseD2Ev(ptr noundef nonnull align 8 dereferenceable(88) %arraydestroy.element296.21) #25
  %arraydestroy.element296.22 = getelementptr inbounds %struct.TestCase, ptr %ref.tmp96, i64 2
  call void @_ZN8TestCaseD2Ev(ptr noundef nonnull align 8 dereferenceable(88) %arraydestroy.element296.22) #25
  %arraydestroy.element296.23 = getelementptr inbounds %struct.TestCase, ptr %ref.tmp96, i64 1
  call void @_ZN8TestCaseD2Ev(ptr noundef nonnull align 8 dereferenceable(88) %arraydestroy.element296.23) #25
  call void @_ZN8TestCaseD2Ev(ptr noundef nonnull align 8 dereferenceable(88) %ref.tmp96) #25
  br label %ehcleanup299

ehcleanup299:                                     ; preds = %lpad283, %lpad277
  %.pn1281 = phi { ptr, i32 } [ %323, %lpad277 ], [ %324, %lpad283 ]
  %cleanup.isactive279.0 = phi i1 [ true, %lpad277 ], [ false, %lpad283 ]
  %325 = load ptr, ptr %agg.tmp273, align 8, !tbaa !41
  %cmp.i.i.i1143 = icmp eq ptr %325, %180
  br i1 %cmp.i.i.i1143, label %ehcleanup302, label %if.then.i.i1144

if.then.i.i1144:                                  ; preds = %ehcleanup299
  call void @_ZdlPv(ptr noundef %325) #26
  br label %ehcleanup302

ehcleanup302:                                     ; preds = %ehcleanup299, %if.then.i.i1144, %lpad270
  %.pn1281.pn.pn = phi { ptr, i32 } [ %322, %lpad270 ], [ %.pn1281, %if.then.i.i1144 ], [ %.pn1281, %ehcleanup299 ]
  %arrayinit.endOfInit98.0 = phi ptr [ %arrayinit.element265, %lpad270 ], [ %arrayinit.element272, %if.then.i.i1144 ], [ %arrayinit.element272, %ehcleanup299 ]
  %cleanup.isactive279.2 = phi i1 [ true, %lpad270 ], [ %cleanup.isactive279.0, %if.then.i.i1144 ], [ %cleanup.isactive279.0, %ehcleanup299 ]
  %326 = load ptr, ptr %agg.tmp266, align 8, !tbaa !41
  %cmp.i.i.i1147 = icmp eq ptr %326, %179
  br i1 %cmp.i.i.i1147, label %ehcleanup305, label %if.then.i.i1148

if.then.i.i1148:                                  ; preds = %ehcleanup302
  call void @_ZdlPv(ptr noundef %326) #26
  br label %ehcleanup305

ehcleanup305:                                     ; preds = %ehcleanup302, %if.then.i.i1148, %lpad263
  %.pn1281.pn.pn.pn.pn = phi { ptr, i32 } [ %321, %lpad263 ], [ %.pn1281.pn.pn, %if.then.i.i1148 ], [ %.pn1281.pn.pn, %ehcleanup302 ]
  %arrayinit.endOfInit98.2 = phi ptr [ %arrayinit.element258, %lpad263 ], [ %arrayinit.endOfInit98.0, %if.then.i.i1148 ], [ %arrayinit.endOfInit98.0, %ehcleanup302 ]
  %cleanup.isactive279.4 = phi i1 [ true, %lpad263 ], [ %cleanup.isactive279.2, %if.then.i.i1148 ], [ %cleanup.isactive279.2, %ehcleanup302 ]
  %327 = load ptr, ptr %agg.tmp259, align 8, !tbaa !41
  %cmp.i.i.i1151 = icmp eq ptr %327, %176
  br i1 %cmp.i.i.i1151, label %ehcleanup308, label %if.then.i.i1152

if.then.i.i1152:                                  ; preds = %ehcleanup305
  call void @_ZdlPv(ptr noundef %327) #26
  br label %ehcleanup308

ehcleanup308:                                     ; preds = %lpad261, %ehcleanup305, %if.then.i.i1152, %lpad256
  %.pn1281.pn.pn.pn.pn.pn.pn = phi { ptr, i32 } [ %319, %lpad256 ], [ %320, %lpad261 ], [ %.pn1281.pn.pn.pn.pn, %ehcleanup305 ], [ %.pn1281.pn.pn.pn.pn, %if.then.i.i1152 ]
  %arrayinit.endOfInit98.4 = phi ptr [ %arrayinit.element251, %lpad256 ], [ %arrayinit.element258, %lpad261 ], [ %arrayinit.endOfInit98.2, %ehcleanup305 ], [ %arrayinit.endOfInit98.2, %if.then.i.i1152 ]
  %cleanup.isactive279.6 = phi i1 [ true, %lpad256 ], [ true, %lpad261 ], [ %cleanup.isactive279.4, %ehcleanup305 ], [ %cleanup.isactive279.4, %if.then.i.i1152 ]
  %328 = load ptr, ptr %agg.tmp252, align 8, !tbaa !41
  %cmp.i.i.i1155 = icmp eq ptr %328, %173
  br i1 %cmp.i.i.i1155, label %ehcleanup311, label %if.then.i.i1156

if.then.i.i1156:                                  ; preds = %ehcleanup308
  call void @_ZdlPv(ptr noundef %328) #26
  br label %ehcleanup311

ehcleanup311:                                     ; preds = %lpad254, %ehcleanup308, %if.then.i.i1156, %lpad249
  %.pn1281.pn.pn.pn.pn.pn.pn.pn.pn = phi { ptr, i32 } [ %317, %lpad249 ], [ %318, %lpad254 ], [ %.pn1281.pn.pn.pn.pn.pn.pn, %ehcleanup308 ], [ %.pn1281.pn.pn.pn.pn.pn.pn, %if.then.i.i1156 ]
  %arrayinit.endOfInit98.6 = phi ptr [ %arrayinit.element244, %lpad249 ], [ %arrayinit.element251, %lpad254 ], [ %arrayinit.endOfInit98.4, %ehcleanup308 ], [ %arrayinit.endOfInit98.4, %if.then.i.i1156 ]
  %cleanup.isactive279.8 = phi i1 [ true, %lpad249 ], [ true, %lpad254 ], [ %cleanup.isactive279.6, %ehcleanup308 ], [ %cleanup.isactive279.6, %if.then.i.i1156 ]
  %329 = load ptr, ptr %agg.tmp245, align 8, !tbaa !41
  %cmp.i.i.i1159 = icmp eq ptr %329, %172
  br i1 %cmp.i.i.i1159, label %ehcleanup314, label %if.then.i.i1160

if.then.i.i1160:                                  ; preds = %ehcleanup311
  call void @_ZdlPv(ptr noundef %329) #26
  br label %ehcleanup314

ehcleanup314:                                     ; preds = %ehcleanup311, %if.then.i.i1160, %lpad242
  %.pn1281.pn.pn.pn.pn.pn.pn.pn.pn.pn.pn = phi { ptr, i32 } [ %316, %lpad242 ], [ %.pn1281.pn.pn.pn.pn.pn.pn.pn.pn, %if.then.i.i1160 ], [ %.pn1281.pn.pn.pn.pn.pn.pn.pn.pn, %ehcleanup311 ]
  %arrayinit.endOfInit98.8 = phi ptr [ %arrayinit.element237, %lpad242 ], [ %arrayinit.endOfInit98.6, %if.then.i.i1160 ], [ %arrayinit.endOfInit98.6, %ehcleanup311 ]
  %cleanup.isactive279.10 = phi i1 [ true, %lpad242 ], [ %cleanup.isactive279.8, %if.then.i.i1160 ], [ %cleanup.isactive279.8, %ehcleanup311 ]
  %330 = load ptr, ptr %agg.tmp238, align 8, !tbaa !41
  %cmp.i.i.i1163 = icmp eq ptr %330, %169
  br i1 %cmp.i.i.i1163, label %ehcleanup317, label %if.then.i.i1164

if.then.i.i1164:                                  ; preds = %ehcleanup314
  call void @_ZdlPv(ptr noundef %330) #26
  br label %ehcleanup317

ehcleanup317:                                     ; preds = %lpad240, %ehcleanup314, %if.then.i.i1164, %lpad235
  %.pn1281.pn.pn.pn.pn.pn.pn.pn.pn.pn.pn.pn.pn = phi { ptr, i32 } [ %314, %lpad235 ], [ %315, %lpad240 ], [ %.pn1281.pn.pn.pn.pn.pn.pn.pn.pn.pn.pn, %ehcleanup314 ], [ %.pn1281.pn.pn.pn.pn.pn.pn.pn.pn.pn.pn, %if.then.i.i1164 ]
  %arrayinit.endOfInit98.10 = phi ptr [ %arrayinit.element230, %lpad235 ], [ %arrayinit.element237, %lpad240 ], [ %arrayinit.endOfInit98.8, %ehcleanup314 ], [ %arrayinit.endOfInit98.8, %if.then.i.i1164 ]
  %cleanup.isactive279.12 = phi i1 [ true, %lpad235 ], [ true, %lpad240 ], [ %cleanup.isactive279.10, %ehcleanup314 ], [ %cleanup.isactive279.10, %if.then.i.i1164 ]
  %331 = load ptr, ptr %agg.tmp231, align 8, !tbaa !41
  %cmp.i.i.i1167 = icmp eq ptr %331, %166
  br i1 %cmp.i.i.i1167, label %ehcleanup320, label %if.then.i.i1168

if.then.i.i1168:                                  ; preds = %ehcleanup317
  call void @_ZdlPv(ptr noundef %331) #26
  br label %ehcleanup320

ehcleanup320:                                     ; preds = %lpad233, %ehcleanup317, %if.then.i.i1168, %lpad228
  %.pn1281.pn.pn.pn.pn.pn.pn.pn.pn.pn.pn.pn.pn.pn.pn = phi { ptr, i32 } [ %312, %lpad228 ], [ %313, %lpad233 ], [ %.pn1281.pn.pn.pn.pn.pn.pn.pn.pn.pn.pn.pn.pn, %ehcleanup317 ], [ %.pn1281.pn.pn.pn.pn.pn.pn.pn.pn.pn.pn.pn.pn, %if.then.i.i1168 ]
  %arrayinit.endOfInit98.12 = phi ptr [ %arrayinit.element223, %lpad228 ], [ %arrayinit.element230, %lpad233 ], [ %arrayinit.endOfInit98.10, %ehcleanup317 ], [ %arrayinit.endOfInit98.10, %if.then.i.i1168 ]
  %cleanup.isactive279.14 = phi i1 [ true, %lpad228 ], [ true, %lpad233 ], [ %cleanup.isactive279.12, %ehcleanup317 ], [ %cleanup.isactive279.12, %if.then.i.i1168 ]
  %332 = load ptr, ptr %agg.tmp224, align 8, !tbaa !41
  %cmp.i.i.i1171 = icmp eq ptr %332, %163
  br i1 %cmp.i.i.i1171, label %ehcleanup323, label %if.then.i.i1172

if.then.i.i1172:                                  ; preds = %ehcleanup320
  call void @_ZdlPv(ptr noundef %332) #26
  br label %ehcleanup323

ehcleanup323:                                     ; preds = %lpad226, %ehcleanup320, %if.then.i.i1172, %lpad221
  %.pn1281.pn.pn.pn.pn.pn.pn.pn.pn.pn.pn.pn.pn.pn.pn.pn.pn = phi { ptr, i32 } [ %310, %lpad221 ], [ %311, %lpad226 ], [ %.pn1281.pn.pn.pn.pn.pn.pn.pn.pn.pn.pn.pn.pn.pn.pn, %ehcleanup320 ], [ %.pn1281.pn.pn.pn.pn.pn.pn.pn.pn.pn.pn.pn.pn.pn.pn, %if.then.i.i1172 ]
  %arrayinit.endOfInit98.14 = phi ptr [ %arrayinit.element216, %lpad221 ], [ %arrayinit.element223, %lpad226 ], [ %arrayinit.endOfInit98.12, %ehcleanup320 ], [ %arrayinit.endOfInit98.12, %if.then.i.i1172 ]
  %cleanup.isactive279.16 = phi i1 [ true, %lpad221 ], [ true, %lpad226 ], [ %cleanup.isactive279.14, %ehcleanup320 ], [ %cleanup.isactive279.14, %if.then.i.i1172 ]
  %333 = load ptr, ptr %agg.tmp217, align 8, !tbaa !41
  %cmp.i.i.i1175 = icmp eq ptr %333, %160
  br i1 %cmp.i.i.i1175, label %ehcleanup326, label %if.then.i.i1176

if.then.i.i1176:                                  ; preds = %ehcleanup323
  call void @_ZdlPv(ptr noundef %333) #26
  br label %ehcleanup326

ehcleanup326:                                     ; preds = %lpad219, %ehcleanup323, %if.then.i.i1176, %lpad214
  %.pn1281.pn.pn.pn.pn.pn.pn.pn.pn.pn.pn.pn.pn.pn.pn.pn.pn.pn.pn = phi { ptr, i32 } [ %308, %lpad214 ], [ %309, %lpad219 ], [ %.pn1281.pn.pn.pn.pn.pn.pn.pn.pn.pn.pn.pn.pn.pn.pn.pn.pn, %ehcleanup323 ], [ %.pn1281.pn.pn.pn.pn.pn.pn.pn.pn.pn.pn.pn.pn.pn.pn.pn.pn, %if.then.i.i1176 ]
  %arrayinit.endOfInit98.16 = phi ptr [ %arrayinit.element206, %lpad214 ], [ %arrayinit.element216, %lpad219 ], [ %arrayinit.endOfInit98.14, %ehcleanup323 ], [ %arrayinit.endOfInit98.14, %if.then.i.i1176 ]
  %cleanup.isactive279.18 = phi i1 [ true, %lpad214 ], [ true, %lpad219 ], [ %cleanup.isactive279.16, %ehcleanup323 ], [ %cleanup.isactive279.16, %if.then.i.i1176 ]
  %334 = load ptr, ptr %agg.tmp207, align 8, !tbaa !41
  %cmp.i.i.i1179 = icmp eq ptr %334, %154
  br i1 %cmp.i.i.i1179, label %ehcleanup327, label %if.then.i.i1180

if.then.i.i1180:                                  ; preds = %ehcleanup326
  call void @_ZdlPv(ptr noundef %334) #26
  br label %ehcleanup327

ehcleanup327:                                     ; preds = %if.then.i.i1180, %ehcleanup326, %lpad212
  %.pn1281.pn.pn.pn.pn.pn.pn.pn.pn.pn.pn.pn.pn.pn.pn.pn.pn.pn.pn.pn = phi { ptr, i32 } [ %307, %lpad212 ], [ %.pn1281.pn.pn.pn.pn.pn.pn.pn.pn.pn.pn.pn.pn.pn.pn.pn.pn.pn.pn, %ehcleanup326 ], [ %.pn1281.pn.pn.pn.pn.pn.pn.pn.pn.pn.pn.pn.pn.pn.pn.pn.pn.pn.pn, %if.then.i.i1180 ]
  %arrayinit.endOfInit98.17 = phi ptr [ %arrayinit.element206, %lpad212 ], [ %arrayinit.endOfInit98.16, %ehcleanup326 ], [ %arrayinit.endOfInit98.16, %if.then.i.i1180 ]
  %cleanup.isactive279.19 = phi i1 [ true, %lpad212 ], [ %cleanup.isactive279.18, %ehcleanup326 ], [ %cleanup.isactive279.18, %if.then.i.i1180 ]
  %335 = load ptr, ptr %ref.tmp208, align 8, !tbaa !41
  %cmp.i.i.i1183 = icmp eq ptr %335, %146
  br i1 %cmp.i.i.i1183, label %ehcleanup328, label %if.then.i.i1184

if.then.i.i1184:                                  ; preds = %ehcleanup327
  call void @_ZdlPv(ptr noundef %335) #26
  br label %ehcleanup328

ehcleanup328:                                     ; preds = %if.then.i.i1184, %ehcleanup327, %lpad210
  %.pn1281.pn.pn.pn.pn.pn.pn.pn.pn.pn.pn.pn.pn.pn.pn.pn.pn.pn.pn.pn.pn = phi { ptr, i32 } [ %306, %lpad210 ], [ %.pn1281.pn.pn.pn.pn.pn.pn.pn.pn.pn.pn.pn.pn.pn.pn.pn.pn.pn.pn.pn, %ehcleanup327 ], [ %.pn1281.pn.pn.pn.pn.pn.pn.pn.pn.pn.pn.pn.pn.pn.pn.pn.pn.pn.pn.pn, %if.then.i.i1184 ]
  %arrayinit.endOfInit98.18 = phi ptr [ %arrayinit.element206, %lpad210 ], [ %arrayinit.endOfInit98.17, %ehcleanup327 ], [ %arrayinit.endOfInit98.17, %if.then.i.i1184 ]
  %cleanup.isactive279.20 = phi i1 [ true, %lpad210 ], [ %cleanup.isactive279.19, %ehcleanup327 ], [ %cleanup.isactive279.19, %if.then.i.i1184 ]
  %336 = load ptr, ptr %ref.tmp209, align 8, !tbaa !41
  %cmp.i.i.i1187 = icmp eq ptr %336, %137
  br i1 %cmp.i.i.i1187, label %_ZNSt7__cxx1112basic_stringIcSt11char_traitsIcESaIcEED2Ev.exit1190, label %if.then.i.i1188

if.then.i.i1188:                                  ; preds = %ehcleanup328
  call void @_ZdlPv(ptr noundef %336) #26
  br label %_ZNSt7__cxx1112basic_stringIcSt11char_traitsIcESaIcEED2Ev.exit1190

_ZNSt7__cxx1112basic_stringIcSt11char_traitsIcESaIcEED2Ev.exit1190: ; preds = %ehcleanup328, %if.then.i.i1188
  call void @llvm.lifetime.end.p0(i64 32, ptr nonnull %ref.tmp209) #25
  call void @llvm.lifetime.end.p0(i64 32, ptr nonnull %ref.tmp208) #25
  br label %ehcleanup331

ehcleanup331:                                     ; preds = %_ZNSt7__cxx1112basic_stringIcSt11char_traitsIcESaIcEED2Ev.exit1190, %lpad204
  %.pn1281.pn.pn.pn.pn.pn.pn.pn.pn.pn.pn.pn.pn.pn.pn.pn.pn.pn.pn.pn.pn.pn = phi { ptr, i32 } [ %.pn1281.pn.pn.pn.pn.pn.pn.pn.pn.pn.pn.pn.pn.pn.pn.pn.pn.pn.pn.pn.pn, %_ZNSt7__cxx1112basic_stringIcSt11char_traitsIcESaIcEED2Ev.exit1190 ], [ %305, %lpad204 ]
  %arrayinit.endOfInit98.19 = phi ptr [ %arrayinit.endOfInit98.18, %_ZNSt7__cxx1112basic_stringIcSt11char_traitsIcESaIcEED2Ev.exit1190 ], [ %arrayinit.element199, %lpad204 ]
  %cleanup.isactive279.21 = phi i1 [ %cleanup.isactive279.20, %_ZNSt7__cxx1112basic_stringIcSt11char_traitsIcESaIcEED2Ev.exit1190 ], [ true, %lpad204 ]
  %337 = load ptr, ptr %agg.tmp200, align 8, !tbaa !41
  %cmp.i.i.i1191 = icmp eq ptr %337, %133
  br i1 %cmp.i.i.i1191, label %ehcleanup334, label %if.then.i.i1192

if.then.i.i1192:                                  ; preds = %ehcleanup331
  call void @_ZdlPv(ptr noundef %337) #26
  br label %ehcleanup334

ehcleanup334:                                     ; preds = %lpad202, %ehcleanup331, %if.then.i.i1192, %lpad197
  %.pn1281.pn.pn.pn.pn.pn.pn.pn.pn.pn.pn.pn.pn.pn.pn.pn.pn.pn.pn.pn.pn.pn.pn.pn = phi { ptr, i32 } [ %303, %lpad197 ], [ %304, %lpad202 ], [ %.pn1281.pn.pn.pn.pn.pn.pn.pn.pn.pn.pn.pn.pn.pn.pn.pn.pn.pn.pn.pn.pn.pn, %ehcleanup331 ], [ %.pn1281.pn.pn.pn.pn.pn.pn.pn.pn.pn.pn.pn.pn.pn.pn.pn.pn.pn.pn.pn.pn.pn, %if.then.i.i1192 ]
  %arrayinit.endOfInit98.21 = phi ptr [ %arrayinit.element192, %lpad197 ], [ %arrayinit.element199, %lpad202 ], [ %arrayinit.endOfInit98.19, %ehcleanup331 ], [ %arrayinit.endOfInit98.19, %if.then.i.i1192 ]
  %cleanup.isactive279.23 = phi i1 [ true, %lpad197 ], [ true, %lpad202 ], [ %cleanup.isactive279.21, %ehcleanup331 ], [ %cleanup.isactive279.21, %if.then.i.i1192 ]
  %338 = load ptr, ptr %agg.tmp193, align 8, !tbaa !41
  %cmp.i.i.i1195 = icmp eq ptr %338, %132
  br i1 %cmp.i.i.i1195, label %ehcleanup337, label %if.then.i.i1196

if.then.i.i1196:                                  ; preds = %ehcleanup334
  call void @_ZdlPv(ptr noundef %338) #26
  br label %ehcleanup337

ehcleanup337:                                     ; preds = %ehcleanup334, %if.then.i.i1196, %lpad190
  %.pn1281.pn.pn.pn.pn.pn.pn.pn.pn.pn.pn.pn.pn.pn.pn.pn.pn.pn.pn.pn.pn.pn.pn.pn.pn.pn = phi { ptr, i32 } [ %302, %lpad190 ], [ %.pn1281.pn.pn.pn.pn.pn.pn.pn.pn.pn.pn.pn.pn.pn.pn.pn.pn.pn.pn.pn.pn.pn.pn.pn, %if.then.i.i1196 ], [ %.pn1281.pn.pn.pn.pn.pn.pn.pn.pn.pn.pn.pn.pn.pn.pn.pn.pn.pn.pn.pn.pn.pn.pn.pn, %ehcleanup334 ]
  %arrayinit.endOfInit98.23 = phi ptr [ %arrayinit.element185, %lpad190 ], [ %arrayinit.endOfInit98.21, %if.then.i.i1196 ], [ %arrayinit.endOfInit98.21, %ehcleanup334 ]
  %cleanup.isactive279.25 = phi i1 [ true, %lpad190 ], [ %cleanup.isactive279.23, %if.then.i.i1196 ], [ %cleanup.isactive279.23, %ehcleanup334 ]
  %339 = load ptr, ptr %agg.tmp186, align 8, !tbaa !41
  %cmp.i.i.i1199 = icmp eq ptr %339, %129
  br i1 %cmp.i.i.i1199, label %ehcleanup340, label %if.then.i.i1200

if.then.i.i1200:                                  ; preds = %ehcleanup337
  call void @_ZdlPv(ptr noundef %339) #26
  br label %ehcleanup340

ehcleanup340:                                     ; preds = %lpad188, %ehcleanup337, %if.then.i.i1200, %lpad183
  %.pn1281.pn.pn.pn.pn.pn.pn.pn.pn.pn.pn.pn.pn.pn.pn.pn.pn.pn.pn.pn.pn.pn.pn.pn.pn.pn.pn.pn = phi { ptr, i32 } [ %300, %lpad183 ], [ %301, %lpad188 ], [ %.pn1281.pn.pn.pn.pn.pn.pn.pn.pn.pn.pn.pn.pn.pn.pn.pn.pn.pn.pn.pn.pn.pn.pn.pn.pn.pn, %ehcleanup337 ], [ %.pn1281.pn.pn.pn.pn.pn.pn.pn.pn.pn.pn.pn.pn.pn.pn.pn.pn.pn.pn.pn.pn.pn.pn.pn.pn.pn, %if.then.i.i1200 ]
  %arrayinit.endOfInit98.25 = phi ptr [ %arrayinit.element178, %lpad183 ], [ %arrayinit.element185, %lpad188 ], [ %arrayinit.endOfInit98.23, %ehcleanup337 ], [ %arrayinit.endOfInit98.23, %if.then.i.i1200 ]
  %cleanup.isactive279.27 = phi i1 [ true, %lpad183 ], [ true, %lpad188 ], [ %cleanup.isactive279.25, %ehcleanup337 ], [ %cleanup.isactive279.25, %if.then.i.i1200 ]
  %340 = load ptr, ptr %agg.tmp179, align 8, !tbaa !41
  %cmp.i.i.i1203 = icmp eq ptr %340, %126
  br i1 %cmp.i.i.i1203, label %ehcleanup343, label %if.then.i.i1204

if.then.i.i1204:                                  ; preds = %ehcleanup340
  call void @_ZdlPv(ptr noundef %340) #26
  br label %ehcleanup343

ehcleanup343:                                     ; preds = %lpad181, %ehcleanup340, %if.then.i.i1204, %lpad176
  %.pn1281.pn.pn.pn.pn.pn.pn.pn.pn.pn.pn.pn.pn.pn.pn.pn.pn.pn.pn.pn.pn.pn.pn.pn.pn.pn.pn.pn.pn.pn = phi { ptr, i32 } [ %298, %lpad176 ], [ %299, %lpad181 ], [ %.pn1281.pn.pn.pn.pn.pn.pn.pn.pn.pn.pn.pn.pn.pn.pn.pn.pn.pn.pn.pn.pn.pn.pn.pn.pn.pn.pn.pn, %ehcleanup340 ], [ %.pn1281.pn.pn.pn.pn.pn.pn.pn.pn.pn.pn.pn.pn.pn.pn.pn.pn.pn.pn.pn.pn.pn.pn.pn.pn.pn.pn.pn, %if.then.i.i1204 ]
  %arrayinit.endOfInit98.27 = phi ptr [ %arrayinit.element171, %lpad176 ], [ %arrayinit.element178, %lpad181 ], [ %arrayinit.endOfInit98.25, %ehcleanup340 ], [ %arrayinit.endOfInit98.25, %if.then.i.i1204 ]
  %cleanup.isactive279.29 = phi i1 [ true, %lpad176 ], [ true, %lpad181 ], [ %cleanup.isactive279.27, %ehcleanup340 ], [ %cleanup.isactive279.27, %if.then.i.i1204 ]
  %341 = load ptr, ptr %agg.tmp172, align 8, !tbaa !41
  %cmp.i.i.i1207 = icmp eq ptr %341, %123
  br i1 %cmp.i.i.i1207, label %ehcleanup346, label %if.then.i.i1208

if.then.i.i1208:                                  ; preds = %ehcleanup343
  call void @_ZdlPv(ptr noundef %341) #26
  br label %ehcleanup346

ehcleanup346:                                     ; preds = %lpad174, %ehcleanup343, %if.then.i.i1208, %lpad169
  %.pn1281.pn.pn.pn.pn.pn.pn.pn.pn.pn.pn.pn.pn.pn.pn.pn.pn.pn.pn.pn.pn.pn.pn.pn.pn.pn.pn.pn.pn.pn.pn.pn = phi { ptr, i32 } [ %296, %lpad169 ], [ %297, %lpad174 ], [ %.pn1281.pn.pn.pn.pn.pn.pn.pn.pn.pn.pn.pn.pn.pn.pn.pn.pn.pn.pn.pn.pn.pn.pn.pn.pn.pn.pn.pn.pn.pn, %ehcleanup343 ], [ %.pn1281.pn.pn.pn.pn.pn.pn.pn.pn.pn.pn.pn.pn.pn.pn.pn.pn.pn.pn.pn.pn.pn.pn.pn.pn.pn.pn.pn.pn.pn, %if.then.i.i1208 ]
  %arrayinit.endOfInit98.29 = phi ptr [ %arrayinit.element164, %lpad169 ], [ %arrayinit.element171, %lpad174 ], [ %arrayinit.endOfInit98.27, %ehcleanup343 ], [ %arrayinit.endOfInit98.27, %if.then.i.i1208 ]
  %cleanup.isactive279.31 = phi i1 [ true, %lpad169 ], [ true, %lpad174 ], [ %cleanup.isactive279.29, %ehcleanup343 ], [ %cleanup.isactive279.29, %if.then.i.i1208 ]
  %342 = load ptr, ptr %agg.tmp165, align 8, !tbaa !41
  %cmp.i.i.i1211 = icmp eq ptr %342, %120
  br i1 %cmp.i.i.i1211, label %ehcleanup349, label %if.then.i.i1212

if.then.i.i1212:                                  ; preds = %ehcleanup346
  call void @_ZdlPv(ptr noundef %342) #26
  br label %ehcleanup349

ehcleanup349:                                     ; preds = %lpad167, %ehcleanup346, %if.then.i.i1212, %lpad162
  %.pn1281.pn.pn.pn.pn.pn.pn.pn.pn.pn.pn.pn.pn.pn.pn.pn.pn.pn.pn.pn.pn.pn.pn.pn.pn.pn.pn.pn.pn.pn.pn.pn.pn.pn = phi { ptr, i32 } [ %294, %lpad162 ], [ %295, %lpad167 ], [ %.pn1281.pn.pn.pn.pn.pn.pn.pn.pn.pn.pn.pn.pn.pn.pn.pn.pn.pn.pn.pn.pn.pn.pn.pn.pn.pn.pn.pn.pn.pn.pn.pn, %ehcleanup346 ], [ %.pn1281.pn.pn.pn.pn.pn.pn.pn.pn.pn.pn.pn.pn.pn.pn.pn.pn.pn.pn.pn.pn.pn.pn.pn.pn.pn.pn.pn.pn.pn.pn.pn, %if.then.i.i1212 ]
  %arrayinit.endOfInit98.31 = phi ptr [ %arrayinit.element157, %lpad162 ], [ %arrayinit.element164, %lpad167 ], [ %arrayinit.endOfInit98.29, %ehcleanup346 ], [ %arrayinit.endOfInit98.29, %if.then.i.i1212 ]
  %cleanup.isactive279.33 = phi i1 [ true, %lpad162 ], [ true, %lpad167 ], [ %cleanup.isactive279.31, %ehcleanup346 ], [ %cleanup.isactive279.31, %if.then.i.i1212 ]
  %343 = load ptr, ptr %agg.tmp158, align 8, !tbaa !41
  %cmp.i.i.i1215 = icmp eq ptr %343, %117
  br i1 %cmp.i.i.i1215, label %ehcleanup352, label %if.then.i.i1216

if.then.i.i1216:                                  ; preds = %ehcleanup349
  call void @_ZdlPv(ptr noundef %343) #26
  br label %ehcleanup352

ehcleanup352:                                     ; preds = %lpad160, %ehcleanup349, %if.then.i.i1216, %lpad155
  %.pn1281.pn.pn.pn.pn.pn.pn.pn.pn.pn.pn.pn.pn.pn.pn.pn.pn.pn.pn.pn.pn.pn.pn.pn.pn.pn.pn.pn.pn.pn.pn.pn.pn.pn.pn.pn = phi { ptr, i32 } [ %292, %lpad155 ], [ %293, %lpad160 ], [ %.pn1281.pn.pn.pn.pn.pn.pn.pn.pn.pn.pn.pn.pn.pn.pn.pn.pn.pn.pn.pn.pn.pn.pn.pn.pn.pn.pn.pn.pn.pn.pn.pn.pn.pn, %ehcleanup349 ], [ %.pn1281.pn.pn.pn.pn.pn.pn.pn.pn.pn.pn.pn.pn.pn.pn.pn.pn.pn.pn.pn.pn.pn.pn.pn.pn.pn.pn.pn.pn.pn.pn.pn.pn.pn, %if.then.i.i1216 ]
  %arrayinit.endOfInit98.33 = phi ptr [ %arrayinit.element150, %lpad155 ], [ %arrayinit.element157, %lpad160 ], [ %arrayinit.endOfInit98.31, %ehcleanup349 ], [ %arrayinit.endOfInit98.31, %if.then.i.i1216 ]
  %cleanup.isactive279.35 = phi i1 [ true, %lpad155 ], [ true, %lpad160 ], [ %cleanup.isactive279.33, %ehcleanup349 ], [ %cleanup.isactive279.33, %if.then.i.i1216 ]
  %344 = load ptr, ptr %agg.tmp151, align 8, !tbaa !41
  %cmp.i.i.i1219 = icmp eq ptr %344, %114
  br i1 %cmp.i.i.i1219, label %ehcleanup355, label %if.then.i.i1220

if.then.i.i1220:                                  ; preds = %ehcleanup352
  call void @_ZdlPv(ptr noundef %344) #26
  br label %ehcleanup355

ehcleanup355:                                     ; preds = %lpad153, %ehcleanup352, %if.then.i.i1220, %lpad148
  %.pn1281.pn.pn.pn.pn.pn.pn.pn.pn.pn.pn.pn.pn.pn.pn.pn.pn.pn.pn.pn.pn.pn.pn.pn.pn.pn.pn.pn.pn.pn.pn.pn.pn.pn.pn.pn.pn.pn = phi { ptr, i32 } [ %290, %lpad148 ], [ %291, %lpad153 ], [ %.pn1281.pn.pn.pn.pn.pn.pn.pn.pn.pn.pn.pn.pn.pn.pn.pn.pn.pn.pn.pn.pn.pn.pn.pn.pn.pn.pn.pn.pn.pn.pn.pn.pn.pn.pn.pn, %ehcleanup352 ], [ %.pn1281.pn.pn.pn.pn.pn.pn.pn.pn.pn.pn.pn.pn.pn.pn.pn.pn.pn.pn.pn.pn.pn.pn.pn.pn.pn.pn.pn.pn.pn.pn.pn.pn.pn.pn.pn, %if.then.i.i1220 ]
  %arrayinit.endOfInit98.35 = phi ptr [ %arrayinit.element143, %lpad148 ], [ %arrayinit.element150, %lpad153 ], [ %arrayinit.endOfInit98.33, %ehcleanup352 ], [ %arrayinit.endOfInit98.33, %if.then.i.i1220 ]
  %cleanup.isactive279.37 = phi i1 [ true, %lpad148 ], [ true, %lpad153 ], [ %cleanup.isactive279.35, %ehcleanup352 ], [ %cleanup.isactive279.35, %if.then.i.i1220 ]
  %345 = load ptr, ptr %agg.tmp144, align 8, !tbaa !41
  %cmp.i.i.i1223 = icmp eq ptr %345, %113
  br i1 %cmp.i.i.i1223, label %ehcleanup358, label %if.then.i.i1224

if.then.i.i1224:                                  ; preds = %ehcleanup355
  call void @_ZdlPv(ptr noundef %345) #26
  br label %ehcleanup358

ehcleanup358:                                     ; preds = %ehcleanup355, %if.then.i.i1224, %lpad141
  %.pn1281.pn.pn.pn.pn.pn.pn.pn.pn.pn.pn.pn.pn.pn.pn.pn.pn.pn.pn.pn.pn.pn.pn.pn.pn.pn.pn.pn.pn.pn.pn.pn.pn.pn.pn.pn.pn.pn.pn.pn = phi { ptr, i32 } [ %289, %lpad141 ], [ %.pn1281.pn.pn.pn.pn.pn.pn.pn.pn.pn.pn.pn.pn.pn.pn.pn.pn.pn.pn.pn.pn.pn.pn.pn.pn.pn.pn.pn.pn.pn.pn.pn.pn.pn.pn.pn.pn.pn, %if.then.i.i1224 ], [ %.pn1281.pn.pn.pn.pn.pn.pn.pn.pn.pn.pn.pn.pn.pn.pn.pn.pn.pn.pn.pn.pn.pn.pn.pn.pn.pn.pn.pn.pn.pn.pn.pn.pn.pn.pn.pn.pn.pn, %ehcleanup355 ]
  %arrayinit.endOfInit98.37 = phi ptr [ %arrayinit.element136, %lpad141 ], [ %arrayinit.endOfInit98.35, %if.then.i.i1224 ], [ %arrayinit.endOfInit98.35, %ehcleanup355 ]
  %cleanup.isactive279.39 = phi i1 [ true, %lpad141 ], [ %cleanup.isactive279.37, %if.then.i.i1224 ], [ %cleanup.isactive279.37, %ehcleanup355 ]
  %346 = load ptr, ptr %agg.tmp137, align 8, !tbaa !41
  %cmp.i.i.i1227 = icmp eq ptr %346, %110
  br i1 %cmp.i.i.i1227, label %ehcleanup361, label %if.then.i.i1228

if.then.i.i1228:                                  ; preds = %ehcleanup358
  call void @_ZdlPv(ptr noundef %346) #26
  br label %ehcleanup361

ehcleanup361:                                     ; preds = %lpad139, %ehcleanup358, %if.then.i.i1228, %lpad134
  %.pn1281.pn.pn.pn.pn.pn.pn.pn.pn.pn.pn.pn.pn.pn.pn.pn.pn.pn.pn.pn.pn.pn.pn.pn.pn.pn.pn.pn.pn.pn.pn.pn.pn.pn.pn.pn.pn.pn.pn.pn.pn.pn = phi { ptr, i32 } [ %287, %lpad134 ], [ %288, %lpad139 ], [ %.pn1281.pn.pn.pn.pn.pn.pn.pn.pn.pn.pn.pn.pn.pn.pn.pn.pn.pn.pn.pn.pn.pn.pn.pn.pn.pn.pn.pn.pn.pn.pn.pn.pn.pn.pn.pn.pn.pn.pn.pn, %ehcleanup358 ], [ %.pn1281.pn.pn.pn.pn.pn.pn.pn.pn.pn.pn.pn.pn.pn.pn.pn.pn.pn.pn.pn.pn.pn.pn.pn.pn.pn.pn.pn.pn.pn.pn.pn.pn.pn.pn.pn.pn.pn.pn.pn, %if.then.i.i1228 ]
  %arrayinit.endOfInit98.39 = phi ptr [ %arrayinit.element129, %lpad134 ], [ %arrayinit.element136, %lpad139 ], [ %arrayinit.endOfInit98.37, %ehcleanup358 ], [ %arrayinit.endOfInit98.37, %if.then.i.i1228 ]
  %cleanup.isactive279.41 = phi i1 [ true, %lpad134 ], [ true, %lpad139 ], [ %cleanup.isactive279.39, %ehcleanup358 ], [ %cleanup.isactive279.39, %if.then.i.i1228 ]
  %347 = load ptr, ptr %agg.tmp130, align 8, !tbaa !41
  %cmp.i.i.i1231 = icmp eq ptr %347, %107
  br i1 %cmp.i.i.i1231, label %ehcleanup364, label %if.then.i.i1232

if.then.i.i1232:                                  ; preds = %ehcleanup361
  call void @_ZdlPv(ptr noundef %347) #26
  br label %ehcleanup364

ehcleanup364:                                     ; preds = %lpad132, %ehcleanup361, %if.then.i.i1232, %lpad127
  %.pn1281.pn.pn.pn.pn.pn.pn.pn.pn.pn.pn.pn.pn.pn.pn.pn.pn.pn.pn.pn.pn.pn.pn.pn.pn.pn.pn.pn.pn.pn.pn.pn.pn.pn.pn.pn.pn.pn.pn.pn.pn.pn.pn.pn = phi { ptr, i32 } [ %285, %lpad127 ], [ %286, %lpad132 ], [ %.pn1281.pn.pn.pn.pn.pn.pn.pn.pn.pn.pn.pn.pn.pn.pn.pn.pn.pn.pn.pn.pn.pn.pn.pn.pn.pn.pn.pn.pn.pn.pn.pn.pn.pn.pn.pn.pn.pn.pn.pn.pn.pn, %ehcleanup361 ], [ %.pn1281.pn.pn.pn.pn.pn.pn.pn.pn.pn.pn.pn.pn.pn.pn.pn.pn.pn.pn.pn.pn.pn.pn.pn.pn.pn.pn.pn.pn.pn.pn.pn.pn.pn.pn.pn.pn.pn.pn.pn.pn.pn, %if.then.i.i1232 ]
  %arrayinit.endOfInit98.41 = phi ptr [ %arrayinit.element122, %lpad127 ], [ %arrayinit.element129, %lpad132 ], [ %arrayinit.endOfInit98.39, %ehcleanup361 ], [ %arrayinit.endOfInit98.39, %if.then.i.i1232 ]
  %cleanup.isactive279.43 = phi i1 [ true, %lpad127 ], [ true, %lpad132 ], [ %cleanup.isactive279.41, %ehcleanup361 ], [ %cleanup.isactive279.41, %if.then.i.i1232 ]
  %348 = load ptr, ptr %agg.tmp123, align 8, !tbaa !41
  %cmp.i.i.i1235 = icmp eq ptr %348, %104
  br i1 %cmp.i.i.i1235, label %ehcleanup367, label %if.then.i.i1236

if.then.i.i1236:                                  ; preds = %ehcleanup364
  call void @_ZdlPv(ptr noundef %348) #26
  br label %ehcleanup367

ehcleanup367:                                     ; preds = %lpad125, %ehcleanup364, %if.then.i.i1236, %lpad120
  %.pn1281.pn.pn.pn.pn.pn.pn.pn.pn.pn.pn.pn.pn.pn.pn.pn.pn.pn.pn.pn.pn.pn.pn.pn.pn.pn.pn.pn.pn.pn.pn.pn.pn.pn.pn.pn.pn.pn.pn.pn.pn.pn.pn.pn.pn.pn = phi { ptr, i32 } [ %283, %lpad120 ], [ %284, %lpad125 ], [ %.pn1281.pn.pn.pn.pn.pn.pn.pn.pn.pn.pn.pn.pn.pn.pn.pn.pn.pn.pn.pn.pn.pn.pn.pn.pn.pn.pn.pn.pn.pn.pn.pn.pn.pn.pn.pn.pn.pn.pn.pn.pn.pn.pn.pn, %ehcleanup364 ], [ %.pn1281.pn.pn.pn.pn.pn.pn.pn.pn.pn.pn.pn.pn.pn.pn.pn.pn.pn.pn.pn.pn.pn.pn.pn.pn.pn.pn.pn.pn.pn.pn.pn.pn.pn.pn.pn.pn.pn.pn.pn.pn.pn.pn.pn, %if.then.i.i1236 ]
  %arrayinit.endOfInit98.43 = phi ptr [ %arrayinit.element115, %lpad120 ], [ %arrayinit.element122, %lpad125 ], [ %arrayinit.endOfInit98.41, %ehcleanup364 ], [ %arrayinit.endOfInit98.41, %if.then.i.i1236 ]
  %cleanup.isactive279.45 = phi i1 [ true, %lpad120 ], [ true, %lpad125 ], [ %cleanup.isactive279.43, %ehcleanup364 ], [ %cleanup.isactive279.43, %if.then.i.i1236 ]
  %349 = load ptr, ptr %agg.tmp116, align 8, !tbaa !41
  %cmp.i.i.i1239 = icmp eq ptr %349, %101
  br i1 %cmp.i.i.i1239, label %ehcleanup370, label %if.then.i.i1240

if.then.i.i1240:                                  ; preds = %ehcleanup367
  call void @_ZdlPv(ptr noundef %349) #26
  br label %ehcleanup370

ehcleanup370:                                     ; preds = %lpad118, %ehcleanup367, %if.then.i.i1240, %lpad113
  %.pn1281.pn.pn.pn.pn.pn.pn.pn.pn.pn.pn.pn.pn.pn.pn.pn.pn.pn.pn.pn.pn.pn.pn.pn.pn.pn.pn.pn.pn.pn.pn.pn.pn.pn.pn.pn.pn.pn.pn.pn.pn.pn.pn.pn.pn.pn.pn.pn = phi { ptr, i32 } [ %281, %lpad113 ], [ %282, %lpad118 ], [ %.pn1281.pn.pn.pn.pn.pn.pn.pn.pn.pn.pn.pn.pn.pn.pn.pn.pn.pn.pn.pn.pn.pn.pn.pn.pn.pn.pn.pn.pn.pn.pn.pn.pn.pn.pn.pn.pn.pn.pn.pn.pn.pn.pn.pn.pn.pn, %ehcleanup367 ], [ %.pn1281.pn.pn.pn.pn.pn.pn.pn.pn.pn.pn.pn.pn.pn.pn.pn.pn.pn.pn.pn.pn.pn.pn.pn.pn.pn.pn.pn.pn.pn.pn.pn.pn.pn.pn.pn.pn.pn.pn.pn.pn.pn.pn.pn.pn.pn, %if.then.i.i1240 ]
  %arrayinit.endOfInit98.45 = phi ptr [ %arrayinit.element105, %lpad113 ], [ %arrayinit.element115, %lpad118 ], [ %arrayinit.endOfInit98.43, %ehcleanup367 ], [ %arrayinit.endOfInit98.43, %if.then.i.i1240 ]
  %cleanup.isactive279.47 = phi i1 [ true, %lpad113 ], [ true, %lpad118 ], [ %cleanup.isactive279.45, %ehcleanup367 ], [ %cleanup.isactive279.45, %if.then.i.i1240 ]
  %350 = load ptr, ptr %agg.tmp106, align 8, !tbaa !41
  %cmp.i.i.i1243 = icmp eq ptr %350, %95
  br i1 %cmp.i.i.i1243, label %ehcleanup371, label %if.then.i.i1244

if.then.i.i1244:                                  ; preds = %ehcleanup370
  call void @_ZdlPv(ptr noundef %350) #26
  br label %ehcleanup371

ehcleanup371:                                     ; preds = %if.then.i.i1244, %ehcleanup370, %lpad111
  %.pn1281.pn.pn.pn.pn.pn.pn.pn.pn.pn.pn.pn.pn.pn.pn.pn.pn.pn.pn.pn.pn.pn.pn.pn.pn.pn.pn.pn.pn.pn.pn.pn.pn.pn.pn.pn.pn.pn.pn.pn.pn.pn.pn.pn.pn.pn.pn.pn.pn = phi { ptr, i32 } [ %280, %lpad111 ], [ %.pn1281.pn.pn.pn.pn.pn.pn.pn.pn.pn.pn.pn.pn.pn.pn.pn.pn.pn.pn.pn.pn.pn.pn.pn.pn.pn.pn.pn.pn.pn.pn.pn.pn.pn.pn.pn.pn.pn.pn.pn.pn.pn.pn.pn.pn.pn.pn.pn, %ehcleanup370 ], [ %.pn1281.pn.pn.pn.pn.pn.pn.pn.pn.pn.pn.pn.pn.pn.pn.pn.pn.pn.pn.pn.pn.pn.pn.pn.pn.pn.pn.pn.pn.pn.pn.pn.pn.pn.pn.pn.pn.pn.pn.pn.pn.pn.pn.pn.pn.pn.pn.pn, %if.then.i.i1244 ]
  %arrayinit.endOfInit98.46 = phi ptr [ %arrayinit.element105, %lpad111 ], [ %arrayinit.endOfInit98.45, %ehcleanup370 ], [ %arrayinit.endOfInit98.45, %if.then.i.i1244 ]
  %cleanup.isactive279.48 = phi i1 [ true, %lpad111 ], [ %cleanup.isactive279.47, %ehcleanup370 ], [ %cleanup.isactive279.47, %if.then.i.i1244 ]
  %351 = load ptr, ptr %ref.tmp107, align 8, !tbaa !41
  %cmp.i.i.i1247 = icmp eq ptr %351, %87
  br i1 %cmp.i.i.i1247, label %ehcleanup372, label %if.then.i.i1248

if.then.i.i1248:                                  ; preds = %ehcleanup371
  call void @_ZdlPv(ptr noundef %351) #26
  br label %ehcleanup372

ehcleanup372:                                     ; preds = %if.then.i.i1248, %ehcleanup371, %lpad109
  %.pn1281.pn.pn.pn.pn.pn.pn.pn.pn.pn.pn.pn.pn.pn.pn.pn.pn.pn.pn.pn.pn.pn.pn.pn.pn.pn.pn.pn.pn.pn.pn.pn.pn.pn.pn.pn.pn.pn.pn.pn.pn.pn.pn.pn.pn.pn.pn.pn.pn.pn = phi { ptr, i32 } [ %279, %lpad109 ], [ %.pn1281.pn.pn.pn.pn.pn.pn.pn.pn.pn.pn.pn.pn.pn.pn.pn.pn.pn.pn.pn.pn.pn.pn.pn.pn.pn.pn.pn.pn.pn.pn.pn.pn.pn.pn.pn.pn.pn.pn.pn.pn.pn.pn.pn.pn.pn.pn.pn.pn, %ehcleanup371 ], [ %.pn1281.pn.pn.pn.pn.pn.pn.pn.pn.pn.pn.pn.pn.pn.pn.pn.pn.pn.pn.pn.pn.pn.pn.pn.pn.pn.pn.pn.pn.pn.pn.pn.pn.pn.pn.pn.pn.pn.pn.pn.pn.pn.pn.pn.pn.pn.pn.pn.pn, %if.then.i.i1248 ]
  %arrayinit.endOfInit98.47 = phi ptr [ %arrayinit.element105, %lpad109 ], [ %arrayinit.endOfInit98.46, %ehcleanup371 ], [ %arrayinit.endOfInit98.46, %if.then.i.i1248 ]
  %cleanup.isactive279.49 = phi i1 [ true, %lpad109 ], [ %cleanup.isactive279.48, %ehcleanup371 ], [ %cleanup.isactive279.48, %if.then.i.i1248 ]
  %352 = load ptr, ptr %ref.tmp108, align 8, !tbaa !41
  %cmp.i.i.i1251 = icmp eq ptr %352, %78
  br i1 %cmp.i.i.i1251, label %_ZNSt7__cxx1112basic_stringIcSt11char_traitsIcESaIcEED2Ev.exit1254, label %if.then.i.i1252

if.then.i.i1252:                                  ; preds = %ehcleanup372
  call void @_ZdlPv(ptr noundef %352) #26
  br label %_ZNSt7__cxx1112basic_stringIcSt11char_traitsIcESaIcEED2Ev.exit1254

_ZNSt7__cxx1112basic_stringIcSt11char_traitsIcESaIcEED2Ev.exit1254: ; preds = %ehcleanup372, %if.then.i.i1252
  call void @llvm.lifetime.end.p0(i64 32, ptr nonnull %ref.tmp108) #25
  call void @llvm.lifetime.end.p0(i64 32, ptr nonnull %ref.tmp107) #25
  br label %ehcleanup375

ehcleanup375:                                     ; preds = %_ZNSt7__cxx1112basic_stringIcSt11char_traitsIcESaIcEED2Ev.exit1254, %lpad103
  %.pn1281.pn.pn.pn.pn.pn.pn.pn.pn.pn.pn.pn.pn.pn.pn.pn.pn.pn.pn.pn.pn.pn.pn.pn.pn.pn.pn.pn.pn.pn.pn.pn.pn.pn.pn.pn.pn.pn.pn.pn.pn.pn.pn.pn.pn.pn.pn.pn.pn.pn.pn = phi { ptr, i32 } [ %.pn1281.pn.pn.pn.pn.pn.pn.pn.pn.pn.pn.pn.pn.pn.pn.pn.pn.pn.pn.pn.pn.pn.pn.pn.pn.pn.pn.pn.pn.pn.pn.pn.pn.pn.pn.pn.pn.pn.pn.pn.pn.pn.pn.pn.pn.pn.pn.pn.pn.pn, %_ZNSt7__cxx1112basic_stringIcSt11char_traitsIcESaIcEED2Ev.exit1254 ], [ %278, %lpad103 ]
  %arrayinit.endOfInit98.48 = phi ptr [ %arrayinit.endOfInit98.47, %_ZNSt7__cxx1112basic_stringIcSt11char_traitsIcESaIcEED2Ev.exit1254 ], [ %ref.tmp96, %lpad103 ]
  %cleanup.isactive279.50 = phi i1 [ %cleanup.isactive279.49, %_ZNSt7__cxx1112basic_stringIcSt11char_traitsIcESaIcEED2Ev.exit1254 ], [ true, %lpad103 ]
  %353 = load ptr, ptr %agg.tmp99, align 8, !tbaa !41
  %cmp.i.i.i1255 = icmp eq ptr %353, %74
  br i1 %cmp.i.i.i1255, label %ehcleanup376, label %if.then.i.i1256

if.then.i.i1256:                                  ; preds = %ehcleanup375
  call void @_ZdlPv(ptr noundef %353) #26
  br label %ehcleanup376

ehcleanup376:                                     ; preds = %if.then.i.i1256, %ehcleanup375
  %arraydestroy.isempty381 = icmp ne ptr %ref.tmp96, %arrayinit.endOfInit98.48
  %or.cond455.not = select i1 %cleanup.isactive279.50, i1 %arraydestroy.isempty381, i1 false
  br i1 %or.cond455.not, label %arraydestroy.body382, label %cleanup.done387

arraydestroy.body382:                             ; preds = %ehcleanup376, %arraydestroy.body382
  %arraydestroy.elementPast383 = phi ptr [ %arraydestroy.element384, %arraydestroy.body382 ], [ %arrayinit.endOfInit98.48, %ehcleanup376 ]
  %arraydestroy.element384 = getelementptr inbounds %struct.TestCase, ptr %arraydestroy.elementPast383, i64 -1
  call void @_ZN8TestCaseD2Ev(ptr noundef nonnull align 8 dereferenceable(88) %arraydestroy.element384) #25
  %arraydestroy.done385 = icmp eq ptr %arraydestroy.element384, %ref.tmp96
  br i1 %arraydestroy.done385, label %cleanup.done387, label %arraydestroy.body382

cleanup.done387:                                  ; preds = %arraydestroy.body382, %ehcleanup376.thread, %ehcleanup376
  %.pn1281.pn.pn.pn.pn.pn.pn.pn.pn.pn.pn.pn.pn.pn.pn.pn.pn.pn.pn.pn.pn.pn.pn.pn.pn.pn.pn.pn.pn.pn.pn.pn.pn.pn.pn.pn.pn.pn.pn.pn.pn.pn.pn.pn.pn.pn.pn.pn.pn.pn.pn.pn1353 = phi { ptr, i32 } [ %277, %ehcleanup376.thread ], [ %.pn1281.pn.pn.pn.pn.pn.pn.pn.pn.pn.pn.pn.pn.pn.pn.pn.pn.pn.pn.pn.pn.pn.pn.pn.pn.pn.pn.pn.pn.pn.pn.pn.pn.pn.pn.pn.pn.pn.pn.pn.pn.pn.pn.pn.pn.pn.pn.pn.pn.pn.pn, %ehcleanup376 ], [ %.pn1281.pn.pn.pn.pn.pn.pn.pn.pn.pn.pn.pn.pn.pn.pn.pn.pn.pn.pn.pn.pn.pn.pn.pn.pn.pn.pn.pn.pn.pn.pn.pn.pn.pn.pn.pn.pn.pn.pn.pn.pn.pn.pn.pn.pn.pn.pn.pn.pn.pn.pn, %arraydestroy.body382 ]
  call void @llvm.lifetime.end.p0(i64 2200, ptr nonnull %ref.tmp96) #25
  br label %eh.resume

ehcleanup440.thread:                              ; preds = %_ZNSt7__cxx1112basic_stringIcSt11char_traitsIcESaIcEED2Ev.exit1050
  %354 = landingpad { ptr, i32 }
          cleanup
  br label %cleanup.done451

lpad397:                                          ; preds = %call2.i9.i.noexc1060
  %355 = landingpad { ptr, i32 }
          cleanup
  br label %ehcleanup439

lpad404:                                          ; preds = %invoke.cont398
  %356 = landingpad { ptr, i32 }
          cleanup
  br label %ehcleanup436

lpad409:                                          ; preds = %invoke.cont405
  %357 = landingpad { ptr, i32 }
          cleanup
  br label %ehcleanup436

lpad411:                                          ; preds = %call2.i9.i.noexc1084
  %358 = landingpad { ptr, i32 }
          cleanup
  br label %ehcleanup433

lpad417:                                          ; preds = %invoke.cont412
  %359 = landingpad { ptr, i32 }
          cleanup
  %arraydestroy.element430 = getelementptr inbounds %struct.TestCase, ptr %ref.tmp390, i64 2
  call void @_ZN8TestCaseD2Ev(ptr noundef nonnull align 8 dereferenceable(88) %arraydestroy.element430) #25
  %arraydestroy.element430.1 = getelementptr inbounds %struct.TestCase, ptr %ref.tmp390, i64 1
  call void @_ZN8TestCaseD2Ev(ptr noundef nonnull align 8 dereferenceable(88) %arraydestroy.element430.1) #25
  call void @_ZN8TestCaseD2Ev(ptr noundef nonnull align 8 dereferenceable(88) %ref.tmp390) #25
  br label %ehcleanup433

ehcleanup433:                                     ; preds = %lpad417, %lpad411
  %.pn1334 = phi { ptr, i32 } [ %358, %lpad411 ], [ %359, %lpad417 ]
  %cleanup.isactive413.0 = phi i1 [ true, %lpad411 ], [ false, %lpad417 ]
  %360 = load ptr, ptr %agg.tmp407, align 8, !tbaa !41
  %cmp.i.i.i1259 = icmp eq ptr %360, %225
  br i1 %cmp.i.i.i1259, label %ehcleanup436, label %if.then.i.i1260

if.then.i.i1260:                                  ; preds = %ehcleanup433
  call void @_ZdlPv(ptr noundef %360) #26
  br label %ehcleanup436

ehcleanup436:                                     ; preds = %lpad409, %ehcleanup433, %if.then.i.i1260, %lpad404
  %.pn1334.pn.pn = phi { ptr, i32 } [ %356, %lpad404 ], [ %357, %lpad409 ], [ %.pn1334, %ehcleanup433 ], [ %.pn1334, %if.then.i.i1260 ]
  %arrayinit.endOfInit392.0 = phi ptr [ %arrayinit.element399, %lpad404 ], [ %arrayinit.element406, %lpad409 ], [ %arrayinit.element406, %ehcleanup433 ], [ %arrayinit.element406, %if.then.i.i1260 ]
  %cleanup.isactive413.2 = phi i1 [ true, %lpad404 ], [ true, %lpad409 ], [ %cleanup.isactive413.0, %ehcleanup433 ], [ %cleanup.isactive413.0, %if.then.i.i1260 ]
  %361 = load ptr, ptr %agg.tmp400, align 8, !tbaa !41
  %cmp.i.i.i1263 = icmp eq ptr %361, %224
  br i1 %cmp.i.i.i1263, label %ehcleanup439, label %if.then.i.i1264

if.then.i.i1264:                                  ; preds = %ehcleanup436
  call void @_ZdlPv(ptr noundef %361) #26
  br label %ehcleanup439

ehcleanup439:                                     ; preds = %ehcleanup436, %if.then.i.i1264, %lpad397
  %.pn1334.pn.pn.pn.pn = phi { ptr, i32 } [ %355, %lpad397 ], [ %.pn1334.pn.pn, %if.then.i.i1264 ], [ %.pn1334.pn.pn, %ehcleanup436 ]
  %arrayinit.endOfInit392.2 = phi ptr [ %ref.tmp390, %lpad397 ], [ %arrayinit.endOfInit392.0, %if.then.i.i1264 ], [ %arrayinit.endOfInit392.0, %ehcleanup436 ]
  %cleanup.isactive413.4 = phi i1 [ true, %lpad397 ], [ %cleanup.isactive413.2, %if.then.i.i1264 ], [ %cleanup.isactive413.2, %ehcleanup436 ]
  %362 = load ptr, ptr %agg.tmp393, align 8, !tbaa !41
  %cmp.i.i.i1267 = icmp eq ptr %362, %222
  br i1 %cmp.i.i.i1267, label %ehcleanup440, label %if.then.i.i1268

if.then.i.i1268:                                  ; preds = %ehcleanup439
  call void @_ZdlPv(ptr noundef %362) #26
  br label %ehcleanup440

ehcleanup440:                                     ; preds = %if.then.i.i1268, %ehcleanup439
  %arraydestroy.isempty445 = icmp ne ptr %ref.tmp390, %arrayinit.endOfInit392.2
  %or.cond456.not = select i1 %cleanup.isactive413.4, i1 %arraydestroy.isempty445, i1 false
  br i1 %or.cond456.not, label %arraydestroy.body446, label %cleanup.done451

arraydestroy.body446:                             ; preds = %ehcleanup440, %arraydestroy.body446
  %arraydestroy.elementPast447 = phi ptr [ %arraydestroy.element448, %arraydestroy.body446 ], [ %arrayinit.endOfInit392.2, %ehcleanup440 ]
  %arraydestroy.element448 = getelementptr inbounds %struct.TestCase, ptr %arraydestroy.elementPast447, i64 -1
  call void @_ZN8TestCaseD2Ev(ptr noundef nonnull align 8 dereferenceable(88) %arraydestroy.element448) #25
  %arraydestroy.done449 = icmp eq ptr %arraydestroy.element448, %ref.tmp390
  br i1 %arraydestroy.done449, label %cleanup.done451, label %arraydestroy.body446

cleanup.done451:                                  ; preds = %arraydestroy.body446, %ehcleanup440.thread, %ehcleanup440
  %.pn1334.pn.pn.pn.pn.pn1359 = phi { ptr, i32 } [ %354, %ehcleanup440.thread ], [ %.pn1334.pn.pn.pn.pn, %ehcleanup440 ], [ %.pn1334.pn.pn.pn.pn, %arraydestroy.body446 ]
  call void @llvm.lifetime.end.p0(i64 264, ptr nonnull %ref.tmp390) #25
  br label %eh.resume

eh.resume:                                        ; preds = %cleanup.done451, %cleanup.done387, %cleanup.done93, %cleanup.done
  %.pn1334.pn.pn.pn.pn.pn.pn = phi { ptr, i32 } [ %.pn1334.pn.pn.pn.pn.pn1359, %cleanup.done451 ], [ %.pn1281.pn.pn.pn.pn.pn.pn.pn.pn.pn.pn.pn.pn.pn.pn.pn.pn.pn.pn.pn.pn.pn.pn.pn.pn.pn.pn.pn.pn.pn.pn.pn.pn.pn.pn.pn.pn.pn.pn.pn.pn.pn.pn.pn.pn.pn.pn.pn.pn.pn.pn.pn1353, %cleanup.done387 ], [ %.pn1274.pn.pn.pn.pn.pn1347, %cleanup.done93 ], [ %.pn.pn.pn, %cleanup.done ]
  resume { ptr, i32 } %.pn1334.pn.pn.pn.pn.pn.pn
}

; Function Attrs: nounwind uwtable
declare void @_ZNSt7__cxx1112basic_stringIcSt11char_traitsIcESaIcEED2Ev(ptr noundef nonnull align 8 dereferenceable(32)) unnamed_addr #7 align 2

; Function Attrs: uwtable
define hidden void @_Z21ConstructRandomVectorl(ptr noalias nocapture sret(%"class.std::vector.26") align 8 %agg.result, i64 noundef %size) local_unnamed_addr #3 personality ptr @__gxx_personality_v0 {
entry:
  tail call void @llvm.memset.p0.i64(ptr noundef nonnull align 8 dereferenceable(24) %agg.result, i8 0, i64 24, i1 false)
  %sext = shl i64 %size, 32
  %conv1 = ashr exact i64 %sext, 32
  %cmp.i = icmp slt i64 %sext, 0
  br i1 %cmp.i, label %if.then.i, label %if.end.i

if.then.i:                                        ; preds = %entry
  invoke void @_ZSt20__throw_length_errorPKc(ptr noundef nonnull @.str.77) #27
          to label %.noexc unwind label %lpad

.noexc:                                           ; preds = %if.then.i
  unreachable

if.end.i:                                         ; preds = %entry
  %_M_end_of_storage.i.i = getelementptr inbounds %"struct.std::_Vector_base<int, std::allocator<int>>::_Vector_impl_data", ptr %agg.result, i64 0, i32 2
  %cmp3.i.not = icmp eq i64 %sext, 0
  br i1 %cmp3.i.not, label %invoke.cont, label %if.then4.i

if.then4.i:                                       ; preds = %if.end.i
  %mul.i.i.i.i = lshr exact i64 %sext, 30
  %call5.i.i.i.i11 = invoke noalias noundef nonnull ptr @_Znwm(i64 noundef %mul.i.i.i.i) #28
          to label %_ZNSt12_Vector_baseIiSaIiEE13_M_deallocateEPim.exit.i unwind label %lpad

_ZNSt12_Vector_baseIiSaIiEE13_M_deallocateEPim.exit.i: ; preds = %if.then4.i
  %_M_finish.i.i = getelementptr inbounds %"struct.std::_Vector_base<int, std::allocator<int>>::_Vector_impl_data", ptr %agg.result, i64 0, i32 1
  store ptr %call5.i.i.i.i11, ptr %agg.result, align 8, !tbaa !69
  store ptr %call5.i.i.i.i11, ptr %_M_finish.i.i, align 8, !tbaa !71
  %add.ptr21.i = getelementptr inbounds i32, ptr %call5.i.i.i.i11, i64 %conv1
  store ptr %add.ptr21.i, ptr %_M_end_of_storage.i.i, align 8, !tbaa !72
  br label %invoke.cont

invoke.cont:                                      ; preds = %_ZNSt12_Vector_baseIiSaIiEE13_M_deallocateEPim.exit.i, %if.end.i
  %_M_end_of_storage.i.i.promoted = phi ptr [ %add.ptr21.i, %_ZNSt12_Vector_baseIiSaIiEE13_M_deallocateEPim.exit.i ], [ null, %if.end.i ]
  %_M_finish.i.i12.promoted = phi ptr [ %call5.i.i.i.i11, %_ZNSt12_Vector_baseIiSaIiEE13_M_deallocateEPim.exit.i ], [ null, %if.end.i ]
  %cmp21 = icmp sgt i64 %size, 0
  br i1 %cmp21, label %for.body.lr.ph, label %nrvo.skipdtor

for.body.lr.ph:                                   ; preds = %invoke.cont
  %_M_finish.i.i12 = getelementptr inbounds %"struct.std::_Vector_base<int, std::allocator<int>>::_Vector_impl_data", ptr %agg.result, i64 0, i32 1
  br label %for.body

lpad:                                             ; preds = %if.then4.i, %if.then.i
  %0 = landingpad { ptr, i32 }
          cleanup
  br label %ehcleanup

for.body:                                         ; preds = %for.body.lr.ph, %invoke.cont6
  %indvars.iv = phi i64 [ 0, %for.body.lr.ph ], [ %indvars.iv.next, %invoke.cont6 ]
  %incdec.ptr.i.i.i24 = phi ptr [ %_M_finish.i.i12.promoted, %for.body.lr.ph ], [ %incdec.ptr.i.i.i25, %invoke.cont6 ]
  %1 = phi ptr [ %_M_end_of_storage.i.i.promoted, %for.body.lr.ph ], [ %2, %invoke.cont6 ]
  %cond.i31.i.i.i2022 = phi ptr [ %_M_finish.i.i12.promoted, %for.body.lr.ph ], [ %cond.i31.i.i.i19, %invoke.cont6 ]
  %call = tail call i32 @rand() #25
  %conv3 = sext i32 %call to i64
  %rem = srem i64 %conv3, %size
  %conv4 = trunc i64 %rem to i32
  %cmp.not.i.i = icmp eq ptr %incdec.ptr.i.i.i24, %1
  br i1 %cmp.not.i.i, label %if.else.i.i, label %if.then.i.i14

if.then.i.i14:                                    ; preds = %for.body
  store i32 %conv4, ptr %incdec.ptr.i.i.i24, align 4, !tbaa !32
  %incdec.ptr.i.i = getelementptr inbounds i32, ptr %incdec.ptr.i.i.i24, i64 1
  store ptr %incdec.ptr.i.i, ptr %_M_finish.i.i12, align 8, !tbaa !71
  br label %invoke.cont6

if.else.i.i:                                      ; preds = %for.body
  %sub.ptr.lhs.cast.i.i.i.i.i = ptrtoint ptr %incdec.ptr.i.i.i24 to i64
  %sub.ptr.rhs.cast.i.i.i.i.i = ptrtoint ptr %cond.i31.i.i.i2022 to i64
  %sub.ptr.sub.i.i.i.i.i = sub i64 %sub.ptr.lhs.cast.i.i.i.i.i, %sub.ptr.rhs.cast.i.i.i.i.i
  %cmp.i.i.i.i = icmp eq i64 %sub.ptr.sub.i.i.i.i.i, 9223372036854775804
  br i1 %cmp.i.i.i.i, label %if.then.i.i.i.i, label %_ZNKSt6vectorIiSaIiEE12_M_check_lenEmPKc.exit.i.i.i

if.then.i.i.i.i:                                  ; preds = %if.else.i.i
  invoke void @_ZSt20__throw_length_errorPKc(ptr noundef nonnull @.str.78) #27
          to label %.noexc15 unwind label %lpad5.loopexit.split-lp

.noexc15:                                         ; preds = %if.then.i.i.i.i
  unreachable

_ZNKSt6vectorIiSaIiEE12_M_check_lenEmPKc.exit.i.i.i: ; preds = %if.else.i.i
  %sub.ptr.div.i.i.i.i.i = ashr exact i64 %sub.ptr.sub.i.i.i.i.i, 2
  %.sroa.speculated.i.i.i.i = tail call i64 @llvm.umax.i64(i64 %sub.ptr.div.i.i.i.i.i, i64 1)
  %add.i.i.i.i = add i64 %.sroa.speculated.i.i.i.i, %sub.ptr.div.i.i.i.i.i
  %cmp7.i.i.i.i = icmp ult i64 %add.i.i.i.i, %sub.ptr.div.i.i.i.i.i
  %cmp9.i.i.i.i = icmp ugt i64 %add.i.i.i.i, 2305843009213693951
  %or.cond.i.i.i.i = or i1 %cmp7.i.i.i.i, %cmp9.i.i.i.i
  %cond.i.i.i.i = select i1 %or.cond.i.i.i.i, i64 2305843009213693951, i64 %add.i.i.i.i
  %cmp.not.i.i.i.i = icmp eq i64 %cond.i.i.i.i, 0
  br i1 %cmp.not.i.i.i.i, label %_ZNSt12_Vector_baseIiSaIiEE11_M_allocateEm.exit.i.i.i, label %_ZNSt16allocator_traitsISaIiEE8allocateERS0_m.exit.i.i.i.i

_ZNSt16allocator_traitsISaIiEE8allocateERS0_m.exit.i.i.i.i: ; preds = %_ZNKSt6vectorIiSaIiEE12_M_check_lenEmPKc.exit.i.i.i
  %mul.i.i.i.i.i.i = shl nuw nsw i64 %cond.i.i.i.i, 2
  %call5.i.i.i.i.i.i16 = invoke noalias noundef nonnull ptr @_Znwm(i64 noundef %mul.i.i.i.i.i.i) #28
          to label %_ZNSt12_Vector_baseIiSaIiEE11_M_allocateEm.exit.i.i.i unwind label %lpad5.loopexit

_ZNSt12_Vector_baseIiSaIiEE11_M_allocateEm.exit.i.i.i: ; preds = %_ZNSt16allocator_traitsISaIiEE8allocateERS0_m.exit.i.i.i.i, %_ZNKSt6vectorIiSaIiEE12_M_check_lenEmPKc.exit.i.i.i
  %cond.i31.i.i.i = phi ptr [ null, %_ZNKSt6vectorIiSaIiEE12_M_check_lenEmPKc.exit.i.i.i ], [ %call5.i.i.i.i.i.i16, %_ZNSt16allocator_traitsISaIiEE8allocateERS0_m.exit.i.i.i.i ]
  %add.ptr.i.i.i = getelementptr inbounds i32, ptr %cond.i31.i.i.i, i64 %sub.ptr.div.i.i.i.i.i
  store i32 %conv4, ptr %add.ptr.i.i.i, align 4, !tbaa !32
  %cmp.i.i.i.i.i.i.i = icmp sgt i64 %sub.ptr.sub.i.i.i.i.i, 0
  br i1 %cmp.i.i.i.i.i.i.i, label %if.then.i.i.i.i.i.i.i, label %_ZNSt6vectorIiSaIiEE11_S_relocateEPiS2_S2_RS0_.exit.i.i.i

if.then.i.i.i.i.i.i.i:                            ; preds = %_ZNSt12_Vector_baseIiSaIiEE11_M_allocateEm.exit.i.i.i
  tail call void @llvm.memmove.p0.p0.i64(ptr nonnull align 4 %cond.i31.i.i.i, ptr align 4 %cond.i31.i.i.i2022, i64 %sub.ptr.sub.i.i.i.i.i, i1 false)
  br label %_ZNSt6vectorIiSaIiEE11_S_relocateEPiS2_S2_RS0_.exit.i.i.i

_ZNSt6vectorIiSaIiEE11_S_relocateEPiS2_S2_RS0_.exit.i.i.i: ; preds = %if.then.i.i.i.i.i.i.i, %_ZNSt12_Vector_baseIiSaIiEE11_M_allocateEm.exit.i.i.i
  %incdec.ptr.i.i.i = getelementptr inbounds i32, ptr %add.ptr.i.i.i, i64 1
  %tobool.not.i.i.i.i = icmp eq ptr %cond.i31.i.i.i2022, null
  br i1 %tobool.not.i.i.i.i, label %_ZNSt6vectorIiSaIiEE17_M_realloc_insertIJiEEEvN9__gnu_cxx17__normal_iteratorIPiS1_EEDpOT_.exit.i.i, label %if.then.i40.i.i.i

if.then.i40.i.i.i:                                ; preds = %_ZNSt6vectorIiSaIiEE11_S_relocateEPiS2_S2_RS0_.exit.i.i.i
  tail call void @_ZdlPv(ptr noundef nonnull %cond.i31.i.i.i2022) #26
  br label %_ZNSt6vectorIiSaIiEE17_M_realloc_insertIJiEEEvN9__gnu_cxx17__normal_iteratorIPiS1_EEDpOT_.exit.i.i

_ZNSt6vectorIiSaIiEE17_M_realloc_insertIJiEEEvN9__gnu_cxx17__normal_iteratorIPiS1_EEDpOT_.exit.i.i: ; preds = %if.then.i40.i.i.i, %_ZNSt6vectorIiSaIiEE11_S_relocateEPiS2_S2_RS0_.exit.i.i.i
  store ptr %cond.i31.i.i.i, ptr %agg.result, align 8, !tbaa !69
  store ptr %incdec.ptr.i.i.i, ptr %_M_finish.i.i12, align 8, !tbaa !71
  %add.ptr19.i.i.i = getelementptr inbounds i32, ptr %cond.i31.i.i.i, i64 %cond.i.i.i.i
  store ptr %add.ptr19.i.i.i, ptr %_M_end_of_storage.i.i, align 8, !tbaa !72
  br label %invoke.cont6

invoke.cont6:                                     ; preds = %_ZNSt6vectorIiSaIiEE17_M_realloc_insertIJiEEEvN9__gnu_cxx17__normal_iteratorIPiS1_EEDpOT_.exit.i.i, %if.then.i.i14
  %incdec.ptr.i.i.i25 = phi ptr [ %incdec.ptr.i.i.i, %_ZNSt6vectorIiSaIiEE17_M_realloc_insertIJiEEEvN9__gnu_cxx17__normal_iteratorIPiS1_EEDpOT_.exit.i.i ], [ %incdec.ptr.i.i, %if.then.i.i14 ]
  %cond.i31.i.i.i19 = phi ptr [ %cond.i31.i.i.i, %_ZNSt6vectorIiSaIiEE17_M_realloc_insertIJiEEEvN9__gnu_cxx17__normal_iteratorIPiS1_EEDpOT_.exit.i.i ], [ %cond.i31.i.i.i2022, %if.then.i.i14 ]
  %2 = phi ptr [ %add.ptr19.i.i.i, %_ZNSt6vectorIiSaIiEE17_M_realloc_insertIJiEEEvN9__gnu_cxx17__normal_iteratorIPiS1_EEDpOT_.exit.i.i ], [ %1, %if.then.i.i14 ]
  %indvars.iv.next = add nuw nsw i64 %indvars.iv, 1
  %exitcond.not = icmp eq i64 %indvars.iv.next, %size
  br i1 %exitcond.not, label %nrvo.skipdtor, label %for.body, !llvm.loop !73

lpad5.loopexit:                                   ; preds = %_ZNSt16allocator_traitsISaIiEE8allocateERS0_m.exit.i.i.i.i
  %lpad.loopexit = landingpad { ptr, i32 }
          cleanup
  br label %ehcleanup

lpad5.loopexit.split-lp:                          ; preds = %if.then.i.i.i.i
  %lpad.loopexit.split-lp = landingpad { ptr, i32 }
          cleanup
  br label %ehcleanup

nrvo.skipdtor:                                    ; preds = %invoke.cont6, %invoke.cont
  ret void

ehcleanup:                                        ; preds = %lpad5.loopexit, %lpad5.loopexit.split-lp, %lpad
