; ModuleID = '/usr/local/google/home/aeubanks/repos/test-suite/SingleSource/UnitTests/matrix-types-spec.cpp'
source_filename = "/usr/local/google/home/aeubanks/repos/test-suite/SingleSource/UnitTests/matrix-types-spec.cpp"
target datalayout = "e-m:e-p270:32:32-p271:32:32-p272:64:64-i64:64-f80:128-n8:16:32:64-S128"
target triple = "x86_64-unknown-linux-gnu"

%"class.std::ios_base::Init" = type { i8 }
%"class.std::basic_ostream" = type { ptr, %"class.std::basic_ios" }
%"class.std::basic_ios" = type { %"class.std::ios_base", ptr, i8, i8, ptr, ptr, ptr, ptr }
%"class.std::ios_base" = type { ptr, i64, i64, i32, i32, i32, ptr, %"struct.std::ios_base::_Words", [8 x %"struct.std::ios_base::_Words"], i32, ptr, %"class.std::locale" }
%"struct.std::ios_base::_Words" = type { ptr, i64 }
%"class.std::locale" = type { ptr }
%"class.std::linear_congruential_engine" = type { i64 }
%"class.std::uniform_int_distribution" = type { %"struct.std::uniform_int_distribution<unsigned int>::param_type" }
%"struct.std::uniform_int_distribution<unsigned int>::param_type" = type { i32, i32 }

$_Z13testTransposeIdLj3ELj3EEvv = comdat any

$_Z13testTransposeIdLj3ELj10EEvv = comdat any

$_Z13testTransposeIdLj4ELj3EEvv = comdat any

$_Z13testTransposeIfLj31ELj17EEvv = comdat any

$_Z13testTransposeIjLj8ELj7EEvv = comdat any

$_Z12testMultiplyIdLj3ELj3ELj3EEvv = comdat any

$_Z12testMultiplyIdLj10ELj21ELj23EEvv = comdat any

$_Z12testMultiplyIdLj25ELj19ELj11EEvv = comdat any

$_Z14expectMatrixEQIdLi0EEvPT_S1_jj = comdat any

$_Z13transposeSpecIfLj31ELj17EEvPT_S1_ = comdat any

$_Z14expectMatrixEQIfLi0EEvPT_S1_jj = comdat any

$_ZNSt24uniform_int_distributionIjEclISt26linear_congruential_engineImLm16807ELm0ELm2147483647EEEEjRT_RKNS0_10param_typeE = comdat any

$_Z12multiplySpecIdLj10ELj21ELj23EEvPT_S1_S1_ = comdat any

$_Z12multiplySpecIdLj25ELj19ELj11EEvPT_S1_S1_ = comdat any

@_ZStL8__ioinit = internal global %"class.std::ios_base::Init" zeroinitializer, align 1
@__dso_handle = external hidden global i8
@_ZSt4cerr = external global %"class.std::basic_ostream", align 8
@.str = private unnamed_addr constant [13 x i8] c"mismatch at \00", align 1
@.str.1 = private unnamed_addr constant [2 x i8] c":\00", align 1
@.str.2 = private unnamed_addr constant [2 x i8] c"\0A\00", align 1
@llvm.global_ctors = appending global [1 x { i32, ptr, ptr }] [{ i32, ptr, ptr } { i32 65535, ptr @_GLOBAL__sub_I_matrix_types_spec.cpp, ptr null }]

declare void @_ZNSt8ios_base4InitC1Ev(ptr noundef nonnull align 1 dereferenceable(1)) unnamed_addr #0

; Function Attrs: nounwind
declare void @_ZNSt8ios_base4InitD1Ev(ptr noundef nonnull align 1 dereferenceable(1)) unnamed_addr #1

; Function Attrs: nofree nounwind
declare i32 @__cxa_atexit(ptr, ptr, ptr) local_unnamed_addr #2

; Function Attrs: mustprogress nofree nosync nounwind willreturn memory(none) uwtable
define dso_local noundef zeroext i1 @_Z5fpcmpdddd(double noundef %0, double noundef %1, double noundef %2, double noundef %3) local_unnamed_addr #3 {
  %5 = fsub double %0, %1
  %6 = tail call double @llvm.fabs.f64(double %5)
  %7 = fcmp ogt double %6, %2
  br i1 %7, label %8, label %23

8:                                                ; preds = %4
  %9 = fcmp une double %1, 0.000000e+00
  br i1 %9, label %10, label %14

10:                                               ; preds = %8
  %11 = fdiv double %0, %1
  %12 = fadd double %11, -1.000000e+00
  %13 = tail call double @llvm.fabs.f64(double %12)
  br label %20

14:                                               ; preds = %8
  %15 = fcmp une double %0, 0.000000e+00
  br i1 %15, label %16, label %20

16:                                               ; preds = %14
  %17 = fdiv double %1, %0
  %18 = fadd double %17, -1.000000e+00
  %19 = tail call double @llvm.fabs.f64(double %18)
  br label %20

20:                                               ; preds = %14, %16, %10
  %21 = phi double [ %13, %10 ], [ %19, %16 ], [ 0.000000e+00, %14 ]
  %22 = fcmp ule double %21, %3
  br i1 %22, label %23, label %24

23:                                               ; preds = %20, %4
  br label %24

24:                                               ; preds = %20, %23
  %25 = phi i1 [ true, %20 ], [ false, %23 ]
  ret i1 %25
}

; Function Attrs: mustprogress nocallback nofree nosync nounwind speculatable willreturn memory(none)
declare double @llvm.fabs.f64(double) #4

; Function Attrs: mustprogress nocallback nofree nosync nounwind willreturn memory(argmem: readwrite)
declare void @llvm.lifetime.start.p0(i64 immarg, ptr nocapture) #5

; Function Attrs: mustprogress nocallback nofree nosync nounwind willreturn memory(argmem: readwrite)
declare void @llvm.lifetime.end.p0(i64 immarg, ptr nocapture) #5

; Function Attrs: mustprogress norecurse uwtable
define dso_local noundef i32 @main() local_unnamed_addr #6 {
  tail call void @_Z13testTransposeIdLj3ELj3EEvv()
  tail call void @_Z13testTransposeIdLj3ELj10EEvv()
  tail call void @_Z13testTransposeIdLj4ELj3EEvv()
  tail call void @_Z13testTransposeIfLj31ELj17EEvv()
  tail call void @_Z13testTransposeIjLj8ELj7EEvv()
  tail call void @_Z12testMultiplyIdLj3ELj3ELj3EEvv()
  tail call void @_Z12testMultiplyIdLj10ELj21ELj23EEvv()
  tail call void @_Z12testMultiplyIdLj25ELj19ELj11EEvv()
  ret i32 0
}

; Function Attrs: uwtable
define linkonce_odr dso_local void @_Z13testTransposeIdLj3ELj3EEvv() local_unnamed_addr #7 comdat {
  %1 = alloca [9 x double], align 16
  %2 = alloca [9 x double], align 16
  %3 = alloca [9 x double], align 16
  %4 = alloca [9 x double], align 16
  call void @llvm.lifetime.start.p0(i64 72, ptr nonnull %1) #15
  call void @llvm.lifetime.start.p0(i64 72, ptr nonnull %2) #15
  call void @llvm.lifetime.start.p0(i64 72, ptr nonnull %3) #15
  call void @llvm.lifetime.start.p0(i64 72, ptr nonnull %4) #15
  br label %5

5:                                                ; preds = %62, %0
  %6 = phi i64 [ 0, %0 ], [ %66, %62 ]
  %7 = phi i64 [ 1, %0 ], [ %32, %62 ]
  %8 = tail call x86_fp80 @logl(x86_fp80 noundef 0xK401DFFFFFFFC00000000) #15
  %9 = tail call x86_fp80 @logl(x86_fp80 noundef 0xK40008000000000000000) #15
  %10 = fdiv x86_fp80 %8, %9
  %11 = fptoui x86_fp80 %10 to i64
  %12 = add i64 %11, 52
  %13 = udiv i64 %12, %11
  %14 = tail call i64 @llvm.umax.i64(i64 %13, i64 1)
  %15 = and i64 %14, 1
  %16 = icmp eq i64 %15, 0
  br i1 %16, label %23, label %17

17:                                               ; preds = %5
  %18 = mul nsw i64 %7, 16807
  %19 = urem i64 %18, 2147483647
  %20 = add nsw i64 %19, -1
  %21 = uitofp i64 %20 to double
  %22 = add i64 %14, -1
  br label %23

23:                                               ; preds = %17, %5
  %24 = phi i64 [ undef, %5 ], [ %19, %17 ]
  %25 = phi double [ undef, %5 ], [ %21, %17 ]
  %26 = phi i64 [ %14, %5 ], [ %22, %17 ]
  %27 = phi double [ 1.000000e+00, %5 ], [ 0x41DFFFFFFF800000, %17 ]
  %28 = phi double [ 0.000000e+00, %5 ], [ %21, %17 ]
  %29 = phi i64 [ %7, %5 ], [ %19, %17 ]
  %30 = icmp ult i64 %13, 2
  br i1 %30, label %31, label %37

31:                                               ; preds = %37, %23
  %32 = phi i64 [ %24, %23 ], [ %51, %37 ]
  %33 = phi double [ %25, %23 ], [ %54, %37 ]
  %34 = phi double [ 0x41DFFFFFFF800000, %23 ], [ %57, %37 ]
  %35 = fdiv double %33, %34
  %36 = fcmp ult double %35, 1.000000e+00
  br i1 %36, label %62, label %60, !prof !5

37:                                               ; preds = %23, %37
  %38 = phi i64 [ %58, %37 ], [ %26, %23 ]
  %39 = phi double [ %57, %37 ], [ %27, %23 ]
  %40 = phi double [ %54, %37 ], [ %28, %23 ]
  %41 = phi i64 [ %51, %37 ], [ %29, %23 ]
  %42 = mul nsw i64 %41, 16807
  %43 = urem i64 %42, 2147483647
  %44 = add nsw i64 %43, -1
  %45 = uitofp i64 %44 to double
  %46 = tail call double @llvm.fmuladd.f64(double %45, double %39, double %40)
  %47 = fpext double %39 to x86_fp80
  %48 = fmul x86_fp80 %47, 0xK401DFFFFFFFC00000000
  %49 = fptrunc x86_fp80 %48 to double
  %50 = mul nuw nsw i64 %43, 16807
  %51 = urem i64 %50, 2147483647
  %52 = add nsw i64 %51, -1
  %53 = uitofp i64 %52 to double
  %54 = tail call double @llvm.fmuladd.f64(double %53, double %49, double %46)
  %55 = fpext double %49 to x86_fp80
  %56 = fmul x86_fp80 %55, 0xK401DFFFFFFFC00000000
  %57 = fptrunc x86_fp80 %56 to double
  %58 = add i64 %38, -2
  %59 = icmp eq i64 %58, 0
  br i1 %59, label %31, label %37, !llvm.loop !6

60:                                               ; preds = %31
  %61 = tail call double @nextafter(double noundef 1.000000e+00, double noundef 0.000000e+00) #15
  br label %62

62:                                               ; preds = %60, %31
  %63 = phi double [ %61, %60 ], [ %35, %31 ]
  %64 = tail call double @llvm.fmuladd.f64(double %63, double 2.000000e+01, double -1.000000e+01)
  %65 = getelementptr inbounds double, ptr %1, i64 %6
  store double %64, ptr %65, align 8, !tbaa !8
  %66 = add nuw nsw i64 %6, 1
  %67 = icmp eq i64 %66, 9
  br i1 %67, label %68, label %5, !llvm.loop !12

68:                                               ; preds = %62
  %69 = getelementptr inbounds double, ptr %2, i64 3
  %70 = getelementptr inbounds double, ptr %2, i64 6
  %71 = getelementptr inbounds double, ptr %2, i64 1
  %72 = getelementptr inbounds double, ptr %2, i64 4
  %73 = getelementptr inbounds double, ptr %2, i64 7
  %74 = getelementptr inbounds double, ptr %2, i64 2
  %75 = getelementptr inbounds double, ptr %2, i64 5
  %76 = getelementptr inbounds double, ptr %2, i64 8
  call void @llvm.memset.p0.i64(ptr noundef nonnull align 16 dereferenceable(72) %3, i8 0, i64 72, i1 false)
  call void @llvm.memset.p0.i64(ptr noundef nonnull align 16 dereferenceable(72) %4, i8 0, i64 72, i1 false)
  %77 = load double, ptr %1, align 16, !tbaa !8
  store double %77, ptr %2, align 16, !tbaa !8
  %78 = getelementptr inbounds double, ptr %1, i64 3
  %79 = load double, ptr %78, align 8, !tbaa !8
  store double %79, ptr %71, align 8, !tbaa !8
  %80 = getelementptr inbounds double, ptr %1, i64 6
  %81 = load double, ptr %80, align 16, !tbaa !8
  store double %81, ptr %74, align 16, !tbaa !8
  %82 = getelementptr inbounds double, ptr %1, i64 1
  %83 = load double, ptr %82, align 8, !tbaa !8
  store double %83, ptr %69, align 8, !tbaa !8
  %84 = getelementptr inbounds double, ptr %1, i64 4
  %85 = load double, ptr %84, align 16, !tbaa !8
  store double %85, ptr %72, align 16, !tbaa !8
  %86 = getelementptr inbounds double, ptr %1, i64 7
  %87 = load double, ptr %86, align 8, !tbaa !8
  store double %87, ptr %75, align 8, !tbaa !8
  %88 = getelementptr inbounds double, ptr %1, i64 2
  %89 = load double, ptr %88, align 16, !tbaa !8
  store double %89, ptr %70, align 16, !tbaa !8
  %90 = getelementptr inbounds double, ptr %1, i64 5
  %91 = load double, ptr %90, align 8, !tbaa !8
  store double %91, ptr %73, align 8, !tbaa !8
  %92 = getelementptr inbounds double, ptr %1, i64 8
  %93 = load double, ptr %92, align 16, !tbaa !8
  store double %93, ptr %76, align 16, !tbaa !8
  %94 = load <3 x double>, ptr %1, align 16
  %95 = load <3 x double>, ptr %78, align 8
  %96 = load <3 x double>, ptr %80, align 16
  %97 = shufflevector <3 x double> %94, <3 x double> %95, <6 x i32> <i32 0, i32 1, i32 2, i32 3, i32 4, i32 5>
  %98 = shufflevector <3 x double> %96, <3 x double> poison, <6 x i32> <i32 0, i32 1, i32 2, i32 undef, i32 undef, i32 undef>
  %99 = shufflevector <6 x double> %97, <6 x double> %98, <9 x i32> <i32 0, i32 3, i32 6, i32 1, i32 4, i32 7, i32 2, i32 5, i32 8>
  %100 = shufflevector <9 x double> %99, <9 x double> poison, <3 x i32> <i32 0, i32 1, i32 2>
  %101 = shufflevector <9 x double> %99, <9 x double> poison, <3 x i32> <i32 3, i32 4, i32 5>
  %102 = shufflevector <9 x double> %99, <9 x double> poison, <3 x i32> <i32 6, i32 7, i32 8>
  store <3 x double> %100, ptr %3, align 16
  %103 = getelementptr inbounds double, ptr %3, i64 3
  store <3 x double> %101, ptr %103, align 8
  %104 = getelementptr inbounds double, ptr %3, i64 6
  store <3 x double> %102, ptr %104, align 16
  %105 = shufflevector <3 x double> %94, <3 x double> %95, <3 x i32> <i32 0, i32 3, i32 undef>
  %106 = shufflevector <3 x double> %105, <3 x double> %96, <3 x i32> <i32 0, i32 1, i32 3>
  %107 = shufflevector <3 x double> %94, <3 x double> %95, <3 x i32> <i32 1, i32 4, i32 undef>
  %108 = shufflevector <3 x double> %107, <3 x double> %96, <3 x i32> <i32 0, i32 1, i32 4>
  %109 = shufflevector <3 x double> %94, <3 x double> %95, <3 x i32> <i32 2, i32 5, i32 undef>
  %110 = shufflevector <3 x double> %109, <3 x double> %96, <3 x i32> <i32 0, i32 1, i32 5>
  store <3 x double> %106, ptr %4, align 16
  %111 = getelementptr inbounds double, ptr %4, i64 3
  store <3 x double> %108, ptr %111, align 8
  %112 = getelementptr inbounds double, ptr %4, i64 6
  store <3 x double> %110, ptr %112, align 16
  call void @_Z14expectMatrixEQIdLi0EEvPT_S1_jj(ptr noundef nonnull %2, ptr noundef nonnull %4, i32 noundef 3, i32 noundef 3)
  call void @_Z14expectMatrixEQIdLi0EEvPT_S1_jj(ptr noundef nonnull %2, ptr noundef nonnull %3, i32 noundef 3, i32 noundef 3)
  call void @llvm.lifetime.end.p0(i64 72, ptr nonnull %4) #15
  call void @llvm.lifetime.end.p0(i64 72, ptr nonnull %3) #15
  call void @llvm.lifetime.end.p0(i64 72, ptr nonnull %2) #15
  call void @llvm.lifetime.end.p0(i64 72, ptr nonnull %1) #15
  ret void
}

; Function Attrs: uwtable
define linkonce_odr dso_local void @_Z13testTransposeIdLj3ELj10EEvv() local_unnamed_addr #7 comdat {
  %1 = alloca [30 x double], align 16
  %2 = alloca [30 x double], align 16
  %3 = alloca [30 x double], align 16
  %4 = alloca [30 x double], align 16
  call void @llvm.lifetime.start.p0(i64 240, ptr nonnull %1) #15
  call void @llvm.lifetime.start.p0(i64 240, ptr nonnull %2) #15
  call void @llvm.lifetime.start.p0(i64 240, ptr nonnull %3) #15
  call void @llvm.lifetime.start.p0(i64 240, ptr nonnull %4) #15
  br label %5

5:                                                ; preds = %62, %0
  %6 = phi i64 [ 0, %0 ], [ %66, %62 ]
  %7 = phi i64 [ 1, %0 ], [ %32, %62 ]
  %8 = tail call x86_fp80 @logl(x86_fp80 noundef 0xK401DFFFFFFFC00000000) #15
  %9 = tail call x86_fp80 @logl(x86_fp80 noundef 0xK40008000000000000000) #15
  %10 = fdiv x86_fp80 %8, %9
  %11 = fptoui x86_fp80 %10 to i64
  %12 = add i64 %11, 52
  %13 = udiv i64 %12, %11
  %14 = tail call i64 @llvm.umax.i64(i64 %13, i64 1)
  %15 = and i64 %14, 1
  %16 = icmp eq i64 %15, 0
  br i1 %16, label %23, label %17

17:                                               ; preds = %5
  %18 = mul nsw i64 %7, 16807
  %19 = urem i64 %18, 2147483647
  %20 = add nsw i64 %19, -1
  %21 = uitofp i64 %20 to double
  %22 = add i64 %14, -1
  br label %23

23:                                               ; preds = %17, %5
  %24 = phi i64 [ undef, %5 ], [ %19, %17 ]
  %25 = phi double [ undef, %5 ], [ %21, %17 ]
  %26 = phi i64 [ %14, %5 ], [ %22, %17 ]
  %27 = phi double [ 1.000000e+00, %5 ], [ 0x41DFFFFFFF800000, %17 ]
  %28 = phi double [ 0.000000e+00, %5 ], [ %21, %17 ]
  %29 = phi i64 [ %7, %5 ], [ %19, %17 ]
  %30 = icmp ult i64 %13, 2
  br i1 %30, label %31, label %37

31:                                               ; preds = %37, %23
  %32 = phi i64 [ %24, %23 ], [ %51, %37 ]
  %33 = phi double [ %25, %23 ], [ %54, %37 ]
  %34 = phi double [ 0x41DFFFFFFF800000, %23 ], [ %57, %37 ]
  %35 = fdiv double %33, %34
  %36 = fcmp ult double %35, 1.000000e+00
  br i1 %36, label %62, label %60, !prof !5

37:                                               ; preds = %23, %37
  %38 = phi i64 [ %58, %37 ], [ %26, %23 ]
  %39 = phi double [ %57, %37 ], [ %27, %23 ]
  %40 = phi double [ %54, %37 ], [ %28, %23 ]
  %41 = phi i64 [ %51, %37 ], [ %29, %23 ]
  %42 = mul nsw i64 %41, 16807
  %43 = urem i64 %42, 2147483647
  %44 = add nsw i64 %43, -1
  %45 = uitofp i64 %44 to double
  %46 = tail call double @llvm.fmuladd.f64(double %45, double %39, double %40)
  %47 = fpext double %39 to x86_fp80
  %48 = fmul x86_fp80 %47, 0xK401DFFFFFFFC00000000
  %49 = fptrunc x86_fp80 %48 to double
  %50 = mul nuw nsw i64 %43, 16807
  %51 = urem i64 %50, 2147483647
  %52 = add nsw i64 %51, -1
  %53 = uitofp i64 %52 to double
  %54 = tail call double @llvm.fmuladd.f64(double %53, double %49, double %46)
  %55 = fpext double %49 to x86_fp80
  %56 = fmul x86_fp80 %55, 0xK401DFFFFFFFC00000000
  %57 = fptrunc x86_fp80 %56 to double
  %58 = add i64 %38, -2
  %59 = icmp eq i64 %58, 0
  br i1 %59, label %31, label %37, !llvm.loop !6

60:                                               ; preds = %31
  %61 = tail call double @nextafter(double noundef 1.000000e+00, double noundef 0.000000e+00) #15
  br label %62

62:                                               ; preds = %60, %31
  %63 = phi double [ %61, %60 ], [ %35, %31 ]
  %64 = tail call double @llvm.fmuladd.f64(double %63, double 2.000000e+01, double -1.000000e+01)
  %65 = getelementptr inbounds double, ptr %1, i64 %6
  store double %64, ptr %65, align 8, !tbaa !8
  %66 = add nuw nsw i64 %6, 1
  %67 = icmp eq i64 %66, 30
  br i1 %67, label %68, label %5, !llvm.loop !12

68:                                               ; preds = %62
  %69 = getelementptr inbounds double, ptr %2, i64 10
  %70 = getelementptr inbounds double, ptr %2, i64 20
  %71 = getelementptr inbounds double, ptr %2, i64 1
  %72 = getelementptr inbounds double, ptr %2, i64 11
  %73 = getelementptr inbounds double, ptr %2, i64 21
  %74 = getelementptr inbounds double, ptr %2, i64 2
  %75 = getelementptr inbounds double, ptr %2, i64 12
  %76 = getelementptr inbounds double, ptr %2, i64 22
  %77 = getelementptr inbounds double, ptr %2, i64 3
  %78 = getelementptr inbounds double, ptr %2, i64 13
  %79 = getelementptr inbounds double, ptr %2, i64 23
  %80 = getelementptr inbounds double, ptr %2, i64 4
  %81 = getelementptr inbounds double, ptr %2, i64 14
  %82 = getelementptr inbounds double, ptr %2, i64 24
  %83 = getelementptr inbounds double, ptr %2, i64 5
  %84 = getelementptr inbounds double, ptr %2, i64 15
  %85 = getelementptr inbounds double, ptr %2, i64 25
  %86 = getelementptr inbounds double, ptr %2, i64 6
  %87 = getelementptr inbounds double, ptr %2, i64 16
  %88 = getelementptr inbounds double, ptr %2, i64 26
  %89 = getelementptr inbounds double, ptr %2, i64 7
  %90 = getelementptr inbounds double, ptr %2, i64 17
  %91 = getelementptr inbounds double, ptr %2, i64 27
  %92 = getelementptr inbounds double, ptr %2, i64 8
  %93 = getelementptr inbounds double, ptr %2, i64 18
  %94 = getelementptr inbounds double, ptr %2, i64 28
  %95 = getelementptr inbounds double, ptr %2, i64 9
  %96 = getelementptr inbounds double, ptr %2, i64 19
  %97 = getelementptr inbounds double, ptr %2, i64 29
  call void @llvm.memset.p0.i64(ptr noundef nonnull align 16 dereferenceable(240) %3, i8 0, i64 240, i1 false)
  call void @llvm.memset.p0.i64(ptr noundef nonnull align 16 dereferenceable(240) %4, i8 0, i64 240, i1 false)
  %98 = load double, ptr %1, align 16, !tbaa !8
  store double %98, ptr %2, align 16, !tbaa !8
  %99 = getelementptr inbounds double, ptr %1, i64 3
  %100 = load double, ptr %99, align 8, !tbaa !8
  store double %100, ptr %71, align 8, !tbaa !8
  %101 = getelementptr inbounds double, ptr %1, i64 6
  %102 = load double, ptr %101, align 16, !tbaa !8
  store double %102, ptr %74, align 16, !tbaa !8
  %103 = getelementptr inbounds double, ptr %1, i64 9
  %104 = load double, ptr %103, align 8, !tbaa !8
  store double %104, ptr %77, align 8, !tbaa !8
  %105 = getelementptr inbounds double, ptr %1, i64 12
  %106 = load double, ptr %105, align 16, !tbaa !8
  store double %106, ptr %80, align 16, !tbaa !8
  %107 = getelementptr inbounds double, ptr %1, i64 15
  %108 = load double, ptr %107, align 8, !tbaa !8
  store double %108, ptr %83, align 8, !tbaa !8
  %109 = getelementptr inbounds double, ptr %1, i64 18
  %110 = load double, ptr %109, align 16, !tbaa !8
  store double %110, ptr %86, align 16, !tbaa !8
  %111 = getelementptr inbounds double, ptr %1, i64 21
  %112 = load double, ptr %111, align 8, !tbaa !8
  store double %112, ptr %89, align 8, !tbaa !8
  %113 = getelementptr inbounds double, ptr %1, i64 24
  %114 = load double, ptr %113, align 16, !tbaa !8
  store double %114, ptr %92, align 16, !tbaa !8
  %115 = getelementptr inbounds double, ptr %1, i64 27
  %116 = load double, ptr %115, align 8, !tbaa !8
  store double %116, ptr %95, align 8, !tbaa !8
  %117 = getelementptr inbounds double, ptr %1, i64 1
  %118 = load double, ptr %117, align 8, !tbaa !8
  store double %118, ptr %69, align 16, !tbaa !8
  %119 = getelementptr inbounds double, ptr %1, i64 4
  %120 = load double, ptr %119, align 16, !tbaa !8
  store double %120, ptr %72, align 8, !tbaa !8
  %121 = getelementptr inbounds double, ptr %1, i64 7
  %122 = load double, ptr %121, align 8, !tbaa !8
  store double %122, ptr %75, align 16, !tbaa !8
  %123 = getelementptr inbounds double, ptr %1, i64 10
  %124 = load double, ptr %123, align 16, !tbaa !8
  store double %124, ptr %78, align 8, !tbaa !8
  %125 = getelementptr inbounds double, ptr %1, i64 13
  %126 = load double, ptr %125, align 8, !tbaa !8
  store double %126, ptr %81, align 16, !tbaa !8
  %127 = getelementptr inbounds double, ptr %1, i64 16
  %128 = load double, ptr %127, align 16, !tbaa !8
  store double %128, ptr %84, align 8, !tbaa !8
  %129 = getelementptr inbounds double, ptr %1, i64 19
  %130 = load double, ptr %129, align 8, !tbaa !8
  store double %130, ptr %87, align 16, !tbaa !8
  %131 = getelementptr inbounds double, ptr %1, i64 22
  %132 = load double, ptr %131, align 16, !tbaa !8
  store double %132, ptr %90, align 8, !tbaa !8
  %133 = getelementptr inbounds double, ptr %1, i64 25
  %134 = load double, ptr %133, align 8, !tbaa !8
  store double %134, ptr %93, align 16, !tbaa !8
  %135 = getelementptr inbounds double, ptr %1, i64 28
  %136 = load double, ptr %135, align 16, !tbaa !8
  store double %136, ptr %96, align 8, !tbaa !8
  %137 = getelementptr inbounds double, ptr %1, i64 2
  %138 = load double, ptr %137, align 16, !tbaa !8
  store double %138, ptr %70, align 16, !tbaa !8
  %139 = getelementptr inbounds double, ptr %1, i64 5
  %140 = load double, ptr %139, align 8, !tbaa !8
  store double %140, ptr %73, align 8, !tbaa !8
  %141 = getelementptr inbounds double, ptr %1, i64 8
  %142 = load double, ptr %141, align 16, !tbaa !8
  store double %142, ptr %76, align 16, !tbaa !8
  %143 = getelementptr inbounds double, ptr %1, i64 11
  %144 = load double, ptr %143, align 8, !tbaa !8
  store double %144, ptr %79, align 8, !tbaa !8
  %145 = getelementptr inbounds double, ptr %1, i64 14
  %146 = load double, ptr %145, align 16, !tbaa !8
  store double %146, ptr %82, align 16, !tbaa !8
  %147 = getelementptr inbounds double, ptr %1, i64 17
  %148 = load double, ptr %147, align 8, !tbaa !8
  store double %148, ptr %85, align 8, !tbaa !8
  %149 = getelementptr inbounds double, ptr %1, i64 20
  %150 = load double, ptr %149, align 16, !tbaa !8
  store double %150, ptr %88, align 16, !tbaa !8
  %151 = getelementptr inbounds double, ptr %1, i64 23
  %152 = load double, ptr %151, align 8, !tbaa !8
  store double %152, ptr %91, align 8, !tbaa !8
  %153 = getelementptr inbounds double, ptr %1, i64 26
  %154 = load double, ptr %153, align 16, !tbaa !8
  store double %154, ptr %94, align 16, !tbaa !8
  %155 = getelementptr inbounds double, ptr %1, i64 29
  %156 = load double, ptr %155, align 8, !tbaa !8
  store double %156, ptr %97, align 8, !tbaa !8
  %157 = load <3 x double>, ptr %1, align 16
  %158 = load <3 x double>, ptr %99, align 8
  %159 = load <3 x double>, ptr %101, align 16
  %160 = shufflevector <3 x double> %159, <3 x double> poison, <10 x i32> <i32 0, i32 1, i32 2, i32 undef, i32 undef, i32 undef, i32 undef, i32 undef, i32 undef, i32 undef>
  %161 = load <3 x double>, ptr %103, align 8
  %162 = shufflevector <3 x double> %161, <3 x double> poison, <10 x i32> <i32 0, i32 1, i32 2, i32 undef, i32 undef, i32 undef, i32 undef, i32 undef, i32 undef, i32 undef>
  %163 = load <3 x double>, ptr %105, align 16
  %164 = shufflevector <3 x double> %163, <3 x double> poison, <10 x i32> <i32 0, i32 1, i32 2, i32 undef, i32 undef, i32 undef, i32 undef, i32 undef, i32 undef, i32 undef>
  %165 = load <3 x double>, ptr %107, align 8
  %166 = shufflevector <3 x double> %165, <3 x double> poison, <10 x i32> <i32 0, i32 1, i32 2, i32 undef, i32 undef, i32 undef, i32 undef, i32 undef, i32 undef, i32 undef>
  %167 = load <3 x double>, ptr %109, align 16
  %168 = shufflevector <3 x double> %167, <3 x double> poison, <10 x i32> <i32 0, i32 1, i32 2, i32 undef, i32 undef, i32 undef, i32 undef, i32 undef, i32 undef, i32 undef>
  %169 = load <3 x double>, ptr %111, align 8
  %170 = shufflevector <3 x double> %169, <3 x double> poison, <10 x i32> <i32 0, i32 1, i32 2, i32 undef, i32 undef, i32 undef, i32 undef, i32 undef, i32 undef, i32 undef>
  %171 = load <3 x double>, ptr %113, align 16
  %172 = shufflevector <3 x double> %171, <3 x double> poison, <10 x i32> <i32 0, i32 1, i32 2, i32 undef, i32 undef, i32 undef, i32 undef, i32 undef, i32 undef, i32 undef>
  %173 = load <3 x double>, ptr %115, align 8
  %174 = shufflevector <3 x double> %173, <3 x double> poison, <10 x i32> <i32 0, i32 1, i32 2, i32 undef, i32 undef, i32 undef, i32 undef, i32 undef, i32 undef, i32 undef>
  %175 = shufflevector <3 x double> %157, <3 x double> %158, <6 x i32> <i32 0, i32 1, i32 2, i32 3, i32 4, i32 5>
  %176 = shufflevector <3 x double> %159, <3 x double> %161, <6 x i32> <i32 0, i32 1, i32 2, i32 3, i32 4, i32 5>
  %177 = shufflevector <3 x double> %163, <3 x double> %165, <6 x i32> <i32 0, i32 1, i32 2, i32 3, i32 4, i32 5>
  %178 = shufflevector <3 x double> %167, <3 x double> %169, <6 x i32> <i32 0, i32 1, i32 2, i32 3, i32 4, i32 5>
  %179 = shufflevector <6 x double> %175, <6 x double> %176, <12 x i32> <i32 0, i32 1, i32 2, i32 3, i32 4, i32 5, i32 6, i32 7, i32 8, i32 9, i32 10, i32 11>
  %180 = shufflevector <6 x double> %177, <6 x double> %178, <12 x i32> <i32 0, i32 1, i32 2, i32 3, i32 4, i32 5, i32 6, i32 7, i32 8, i32 9, i32 10, i32 11>
  %181 = shufflevector <12 x double> %179, <12 x double> %180, <24 x i32> <i32 0, i32 1, i32 2, i32 3, i32 4, i32 5, i32 6, i32 7, i32 8, i32 9, i32 10, i32 11, i32 12, i32 13, i32 14, i32 15, i32 16, i32 17, i32 18, i32 19, i32 20, i32 21, i32 22, i32 23>
  %182 = shufflevector <3 x double> %171, <3 x double> %173, <24 x i32> <i32 0, i32 1, i32 2, i32 3, i32 4, i32 5, i32 undef, i32 undef, i32 undef, i32 undef, i32 undef, i32 undef, i32 undef, i32 undef, i32 undef, i32 undef, i32 undef, i32 undef, i32 undef, i32 undef, i32 undef, i32 undef, i32 undef, i32 undef>
  %183 = shufflevector <24 x double> %181, <24 x double> %182, <30 x i32> <i32 0, i32 3, i32 6, i32 9, i32 12, i32 15, i32 18, i32 21, i32 24, i32 27, i32 1, i32 4, i32 7, i32 10, i32 13, i32 16, i32 19, i32 22, i32 25, i32 28, i32 2, i32 5, i32 8, i32 11, i32 14, i32 17, i32 20, i32 23, i32 26, i32 29>
  %184 = shufflevector <30 x double> %183, <30 x double> poison, <10 x i32> <i32 0, i32 1, i32 2, i32 3, i32 4, i32 5, i32 6, i32 7, i32 8, i32 9>
  %185 = shufflevector <30 x double> %183, <30 x double> poison, <10 x i32> <i32 10, i32 11, i32 12, i32 13, i32 14, i32 15, i32 16, i32 17, i32 18, i32 19>
  %186 = shufflevector <30 x double> %183, <30 x double> poison, <10 x i32> <i32 20, i32 21, i32 22, i32 23, i32 24, i32 25, i32 26, i32 27, i32 28, i32 29>
  store <10 x double> %184, ptr %3, align 16
  %187 = getelementptr inbounds double, ptr %3, i64 10
  store <10 x double> %185, ptr %187, align 16
  %188 = getelementptr inbounds double, ptr %3, i64 20
  store <10 x double> %186, ptr %188, align 16
  %189 = shufflevector <3 x double> %157, <3 x double> %158, <10 x i32> <i32 0, i32 3, i32 undef, i32 undef, i32 undef, i32 undef, i32 undef, i32 undef, i32 undef, i32 undef>
  %190 = shufflevector <10 x double> %189, <10 x double> %160, <10 x i32> <i32 0, i32 1, i32 10, i32 undef, i32 undef, i32 undef, i32 undef, i32 undef, i32 undef, i32 undef>
  %191 = shufflevector <10 x double> %190, <10 x double> %162, <10 x i32> <i32 0, i32 1, i32 2, i32 10, i32 undef, i32 undef, i32 undef, i32 undef, i32 undef, i32 undef>
  %192 = shufflevector <10 x double> %191, <10 x double> %164, <10 x i32> <i32 0, i32 1, i32 2, i32 3, i32 10, i32 undef, i32 undef, i32 undef, i32 undef, i32 undef>
  %193 = shufflevector <10 x double> %192, <10 x double> %166, <10 x i32> <i32 0, i32 1, i32 2, i32 3, i32 4, i32 10, i32 undef, i32 undef, i32 undef, i32 undef>
  %194 = shufflevector <10 x double> %193, <10 x double> %168, <10 x i32> <i32 0, i32 1, i32 2, i32 3, i32 4, i32 5, i32 10, i32 undef, i32 undef, i32 undef>
  %195 = shufflevector <10 x double> %194, <10 x double> %170, <10 x i32> <i32 0, i32 1, i32 2, i32 3, i32 4, i32 5, i32 6, i32 10, i32 undef, i32 undef>
  %196 = shufflevector <10 x double> %195, <10 x double> %172, <10 x i32> <i32 0, i32 1, i32 2, i32 3, i32 4, i32 5, i32 6, i32 7, i32 10, i32 undef>
  %197 = shufflevector <10 x double> %196, <10 x double> %174, <10 x i32> <i32 0, i32 1, i32 2, i32 3, i32 4, i32 5, i32 6, i32 7, i32 8, i32 10>
  %198 = shufflevector <3 x double> %157, <3 x double> %158, <10 x i32> <i32 1, i32 4, i32 undef, i32 undef, i32 undef, i32 undef, i32 undef, i32 undef, i32 undef, i32 undef>
  %199 = shufflevector <10 x double> %198, <10 x double> %160, <10 x i32> <i32 0, i32 1, i32 11, i32 undef, i32 undef, i32 undef, i32 undef, i32 undef, i32 undef, i32 undef>
  %200 = shufflevector <10 x double> %199, <10 x double> %162, <10 x i32> <i32 0, i32 1, i32 2, i32 11, i32 undef, i32 undef, i32 undef, i32 undef, i32 undef, i32 undef>
  %201 = shufflevector <10 x double> %200, <10 x double> %164, <10 x i32> <i32 0, i32 1, i32 2, i32 3, i32 11, i32 undef, i32 undef, i32 undef, i32 undef, i32 undef>
  %202 = shufflevector <10 x double> %201, <10 x double> %166, <10 x i32> <i32 0, i32 1, i32 2, i32 3, i32 4, i32 11, i32 undef, i32 undef, i32 undef, i32 undef>
  %203 = shufflevector <10 x double> %202, <10 x double> %168, <10 x i32> <i32 0, i32 1, i32 2, i32 3, i32 4, i32 5, i32 11, i32 undef, i32 undef, i32 undef>
  %204 = shufflevector <10 x double> %203, <10 x double> %170, <10 x i32> <i32 0, i32 1, i32 2, i32 3, i32 4, i32 5, i32 6, i32 11, i32 undef, i32 undef>
  %205 = shufflevector <10 x double> %204, <10 x double> %172, <10 x i32> <i32 0, i32 1, i32 2, i32 3, i32 4, i32 5, i32 6, i32 7, i32 11, i32 undef>
  %206 = shufflevector <10 x double> %205, <10 x double> %174, <10 x i32> <i32 0, i32 1, i32 2, i32 3, i32 4, i32 5, i32 6, i32 7, i32 8, i32 11>
  %207 = shufflevector <3 x double> %157, <3 x double> %158, <10 x i32> <i32 2, i32 5, i32 undef, i32 undef, i32 undef, i32 undef, i32 undef, i32 undef, i32 undef, i32 undef>
  %208 = shufflevector <10 x double> %207, <10 x double> %160, <10 x i32> <i32 0, i32 1, i32 12, i32 undef, i32 undef, i32 undef, i32 undef, i32 undef, i32 undef, i32 undef>
  %209 = shufflevector <10 x double> %208, <10 x double> %162, <10 x i32> <i32 0, i32 1, i32 2, i32 12, i32 undef, i32 undef, i32 undef, i32 undef, i32 undef, i32 undef>
  %210 = shufflevector <10 x double> %209, <10 x double> %164, <10 x i32> <i32 0, i32 1, i32 2, i32 3, i32 12, i32 undef, i32 undef, i32 undef, i32 undef, i32 undef>
  %211 = shufflevector <10 x double> %210, <10 x double> %166, <10 x i32> <i32 0, i32 1, i32 2, i32 3, i32 4, i32 12, i32 undef, i32 undef, i32 undef, i32 undef>
  %212 = shufflevector <10 x double> %211, <10 x double> %168, <10 x i32> <i32 0, i32 1, i32 2, i32 3, i32 4, i32 5, i32 12, i32 undef, i32 undef, i32 undef>
  %213 = shufflevector <10 x double> %212, <10 x double> %170, <10 x i32> <i32 0, i32 1, i32 2, i32 3, i32 4, i32 5, i32 6, i32 12, i32 undef, i32 undef>
  %214 = shufflevector <10 x double> %213, <10 x double> %172, <10 x i32> <i32 0, i32 1, i32 2, i32 3, i32 4, i32 5, i32 6, i32 7, i32 12, i32 undef>
  %215 = shufflevector <10 x double> %214, <10 x double> %174, <10 x i32> <i32 0, i32 1, i32 2, i32 3, i32 4, i32 5, i32 6, i32 7, i32 8, i32 12>
  store <10 x double> %197, ptr %4, align 16
  %216 = getelementptr inbounds double, ptr %4, i64 10
  store <10 x double> %206, ptr %216, align 16
  %217 = getelementptr inbounds double, ptr %4, i64 20
  store <10 x double> %215, ptr %217, align 16
  call void @_Z14expectMatrixEQIdLi0EEvPT_S1_jj(ptr noundef nonnull %2, ptr noundef nonnull %4, i32 noundef 3, i32 noundef 10)
  call void @_Z14expectMatrixEQIdLi0EEvPT_S1_jj(ptr noundef nonnull %2, ptr noundef nonnull %3, i32 noundef 10, i32 noundef 3)
  call void @llvm.lifetime.end.p0(i64 240, ptr nonnull %4) #15
  call void @llvm.lifetime.end.p0(i64 240, ptr nonnull %3) #15
  call void @llvm.lifetime.end.p0(i64 240, ptr nonnull %2) #15
  call void @llvm.lifetime.end.p0(i64 240, ptr nonnull %1) #15
  ret void
}

; Function Attrs: uwtable
define linkonce_odr dso_local void @_Z13testTransposeIdLj4ELj3EEvv() local_unnamed_addr #7 comdat {
  %1 = alloca [12 x double], align 16
  %2 = alloca [12 x double], align 16
  %3 = alloca [12 x double], align 16
  %4 = alloca [12 x double], align 16
  call void @llvm.lifetime.start.p0(i64 96, ptr nonnull %1) #15
  call void @llvm.lifetime.start.p0(i64 96, ptr nonnull %2) #15
  call void @llvm.lifetime.start.p0(i64 96, ptr nonnull %3) #15
  call void @llvm.lifetime.start.p0(i64 96, ptr nonnull %4) #15
  br label %5

5:                                                ; preds = %62, %0
  %6 = phi i64 [ 0, %0 ], [ %66, %62 ]
  %7 = phi i64 [ 1, %0 ], [ %32, %62 ]
  %8 = tail call x86_fp80 @logl(x86_fp80 noundef 0xK401DFFFFFFFC00000000) #15
  %9 = tail call x86_fp80 @logl(x86_fp80 noundef 0xK40008000000000000000) #15
  %10 = fdiv x86_fp80 %8, %9
  %11 = fptoui x86_fp80 %10 to i64
  %12 = add i64 %11, 52
  %13 = udiv i64 %12, %11
  %14 = tail call i64 @llvm.umax.i64(i64 %13, i64 1)
  %15 = and i64 %14, 1
  %16 = icmp eq i64 %15, 0
  br i1 %16, label %23, label %17

17:                                               ; preds = %5
  %18 = mul nsw i64 %7, 16807
  %19 = urem i64 %18, 2147483647
  %20 = add nsw i64 %19, -1
  %21 = uitofp i64 %20 to double
  %22 = add i64 %14, -1
  br label %23

23:                                               ; preds = %17, %5
  %24 = phi i64 [ undef, %5 ], [ %19, %17 ]
  %25 = phi double [ undef, %5 ], [ %21, %17 ]
  %26 = phi i64 [ %14, %5 ], [ %22, %17 ]
  %27 = phi double [ 1.000000e+00, %5 ], [ 0x41DFFFFFFF800000, %17 ]
  %28 = phi double [ 0.000000e+00, %5 ], [ %21, %17 ]
  %29 = phi i64 [ %7, %5 ], [ %19, %17 ]
  %30 = icmp ult i64 %13, 2
  br i1 %30, label %31, label %37

31:                                               ; preds = %37, %23
  %32 = phi i64 [ %24, %23 ], [ %51, %37 ]
  %33 = phi double [ %25, %23 ], [ %54, %37 ]
  %34 = phi double [ 0x41DFFFFFFF800000, %23 ], [ %57, %37 ]
  %35 = fdiv double %33, %34
  %36 = fcmp ult double %35, 1.000000e+00
  br i1 %36, label %62, label %60, !prof !5

37:                                               ; preds = %23, %37
  %38 = phi i64 [ %58, %37 ], [ %26, %23 ]
  %39 = phi double [ %57, %37 ], [ %27, %23 ]
  %40 = phi double [ %54, %37 ], [ %28, %23 ]
  %41 = phi i64 [ %51, %37 ], [ %29, %23 ]
  %42 = mul nsw i64 %41, 16807
  %43 = urem i64 %42, 2147483647
  %44 = add nsw i64 %43, -1
  %45 = uitofp i64 %44 to double
  %46 = tail call double @llvm.fmuladd.f64(double %45, double %39, double %40)
  %47 = fpext double %39 to x86_fp80
  %48 = fmul x86_fp80 %47, 0xK401DFFFFFFFC00000000
  %49 = fptrunc x86_fp80 %48 to double
  %50 = mul nuw nsw i64 %43, 16807
  %51 = urem i64 %50, 2147483647
  %52 = add nsw i64 %51, -1
  %53 = uitofp i64 %52 to double
  %54 = tail call double @llvm.fmuladd.f64(double %53, double %49, double %46)
  %55 = fpext double %49 to x86_fp80
  %56 = fmul x86_fp80 %55, 0xK401DFFFFFFFC00000000
  %57 = fptrunc x86_fp80 %56 to double
  %58 = add i64 %38, -2
  %59 = icmp eq i64 %58, 0
  br i1 %59, label %31, label %37, !llvm.loop !6

60:                                               ; preds = %31
  %61 = tail call double @nextafter(double noundef 1.000000e+00, double noundef 0.000000e+00) #15
  br label %62

62:                                               ; preds = %60, %31
  %63 = phi double [ %61, %60 ], [ %35, %31 ]
  %64 = tail call double @llvm.fmuladd.f64(double %63, double 2.000000e+01, double -1.000000e+01)
  %65 = getelementptr inbounds double, ptr %1, i64 %6
  store double %64, ptr %65, align 8, !tbaa !8
  %66 = add nuw nsw i64 %6, 1
  %67 = icmp eq i64 %66, 12
  br i1 %67, label %68, label %5, !llvm.loop !12

68:                                               ; preds = %62
  %69 = getelementptr inbounds double, ptr %2, i64 3
  %70 = getelementptr inbounds double, ptr %2, i64 6
  %71 = getelementptr inbounds double, ptr %2, i64 9
  %72 = getelementptr inbounds double, ptr %2, i64 1
  %73 = getelementptr inbounds double, ptr %2, i64 4
  %74 = getelementptr inbounds double, ptr %2, i64 7
  %75 = getelementptr inbounds double, ptr %2, i64 10
  %76 = getelementptr inbounds double, ptr %2, i64 2
  %77 = getelementptr inbounds double, ptr %2, i64 5
  %78 = getelementptr inbounds double, ptr %2, i64 8
  %79 = getelementptr inbounds double, ptr %2, i64 11
  call void @llvm.memset.p0.i64(ptr noundef nonnull align 16 dereferenceable(96) %3, i8 0, i64 96, i1 false)
  call void @llvm.memset.p0.i64(ptr noundef nonnull align 16 dereferenceable(96) %4, i8 0, i64 96, i1 false)
  %80 = load double, ptr %1, align 16, !tbaa !8
  store double %80, ptr %2, align 16, !tbaa !8
  %81 = getelementptr inbounds double, ptr %1, i64 4
  %82 = load double, ptr %81, align 16, !tbaa !8
  store double %82, ptr %72, align 8, !tbaa !8
  %83 = getelementptr inbounds double, ptr %1, i64 8
  %84 = load double, ptr %83, align 16, !tbaa !8
  store double %84, ptr %76, align 16, !tbaa !8
  %85 = getelementptr inbounds double, ptr %1, i64 1
  %86 = load double, ptr %85, align 8, !tbaa !8
  store double %86, ptr %69, align 8, !tbaa !8
  %87 = getelementptr inbounds double, ptr %1, i64 5
  %88 = load double, ptr %87, align 8, !tbaa !8
  store double %88, ptr %73, align 16, !tbaa !8
  %89 = getelementptr inbounds double, ptr %1, i64 9
  %90 = load double, ptr %89, align 8, !tbaa !8
  store double %90, ptr %77, align 8, !tbaa !8
  %91 = getelementptr inbounds double, ptr %1, i64 2
  %92 = load double, ptr %91, align 16, !tbaa !8
  store double %92, ptr %70, align 16, !tbaa !8
  %93 = getelementptr inbounds double, ptr %1, i64 6
  %94 = load double, ptr %93, align 16, !tbaa !8
  store double %94, ptr %74, align 8, !tbaa !8
  %95 = getelementptr inbounds double, ptr %1, i64 10
  %96 = load double, ptr %95, align 16, !tbaa !8
  store double %96, ptr %78, align 16, !tbaa !8
  %97 = getelementptr inbounds double, ptr %1, i64 3
  %98 = load double, ptr %97, align 8, !tbaa !8
  store double %98, ptr %71, align 8, !tbaa !8
  %99 = getelementptr inbounds double, ptr %1, i64 7
  %100 = load double, ptr %99, align 8, !tbaa !8
  store double %100, ptr %75, align 16, !tbaa !8
  %101 = getelementptr inbounds double, ptr %1, i64 11
  %102 = load double, ptr %101, align 8, !tbaa !8
  store double %102, ptr %79, align 8, !tbaa !8
  %103 = load <4 x double>, ptr %1, align 16
  %104 = load <4 x double>, ptr %81, align 16
  %105 = load <4 x double>, ptr %83, align 16
  %106 = shufflevector <4 x double> %103, <4 x double> %104, <8 x i32> <i32 0, i32 1, i32 2, i32 3, i32 4, i32 5, i32 6, i32 7>
  %107 = shufflevector <4 x double> %105, <4 x double> poison, <8 x i32> <i32 0, i32 1, i32 2, i32 3, i32 undef, i32 undef, i32 undef, i32 undef>
  %108 = shufflevector <8 x double> %106, <8 x double> %107, <12 x i32> <i32 0, i32 4, i32 8, i32 1, i32 5, i32 9, i32 2, i32 6, i32 10, i32 3, i32 7, i32 11>
  %109 = shufflevector <12 x double> %108, <12 x double> poison, <3 x i32> <i32 0, i32 1, i32 2>
  %110 = shufflevector <12 x double> %108, <12 x double> poison, <3 x i32> <i32 3, i32 4, i32 5>
  %111 = shufflevector <12 x double> %108, <12 x double> poison, <3 x i32> <i32 6, i32 7, i32 8>
  %112 = shufflevector <12 x double> %108, <12 x double> poison, <3 x i32> <i32 9, i32 10, i32 11>
  store <3 x double> %109, ptr %3, align 16
  %113 = getelementptr inbounds double, ptr %3, i64 3
  store <3 x double> %110, ptr %113, align 8
  %114 = getelementptr inbounds double, ptr %3, i64 6
  store <3 x double> %111, ptr %114, align 16
  %115 = getelementptr inbounds double, ptr %3, i64 9
  store <3 x double> %112, ptr %115, align 8
  %116 = extractelement <4 x double> %103, i64 0
  %117 = insertelement <3 x double> poison, double %116, i64 0
  %118 = extractelement <4 x double> %104, i64 0
  %119 = insertelement <3 x double> %117, double %118, i64 1
  %120 = extractelement <4 x double> %105, i64 0
  %121 = insertelement <3 x double> %119, double %120, i64 2
  %122 = extractelement <4 x double> %103, i64 1
  %123 = insertelement <3 x double> poison, double %122, i64 0
  %124 = extractelement <4 x double> %104, i64 1
  %125 = insertelement <3 x double> %123, double %124, i64 1
  %126 = extractelement <4 x double> %105, i64 1
  %127 = insertelement <3 x double> %125, double %126, i64 2
  %128 = extractelement <4 x double> %103, i64 2
  %129 = insertelement <3 x double> poison, double %128, i64 0
  %130 = extractelement <4 x double> %104, i64 2
  %131 = insertelement <3 x double> %129, double %130, i64 1
  %132 = extractelement <4 x double> %105, i64 2
  %133 = insertelement <3 x double> %131, double %132, i64 2
  %134 = extractelement <4 x double> %103, i64 3
  %135 = insertelement <3 x double> poison, double %134, i64 0
  %136 = extractelement <4 x double> %104, i64 3
  %137 = insertelement <3 x double> %135, double %136, i64 1
  %138 = extractelement <4 x double> %105, i64 3
  %139 = insertelement <3 x double> %137, double %138, i64 2
  store <3 x double> %121, ptr %4, align 16
  %140 = getelementptr inbounds double, ptr %4, i64 3
  store <3 x double> %127, ptr %140, align 8
  %141 = getelementptr inbounds double, ptr %4, i64 6
  store <3 x double> %133, ptr %141, align 16
  %142 = getelementptr inbounds double, ptr %4, i64 9
  store <3 x double> %139, ptr %142, align 8
  call void @_Z14expectMatrixEQIdLi0EEvPT_S1_jj(ptr noundef nonnull %2, ptr noundef nonnull %4, i32 noundef 4, i32 noundef 3)
  call void @_Z14expectMatrixEQIdLi0EEvPT_S1_jj(ptr noundef nonnull %2, ptr noundef nonnull %3, i32 noundef 3, i32 noundef 4)
  call void @llvm.lifetime.end.p0(i64 96, ptr nonnull %4) #15
  call void @llvm.lifetime.end.p0(i64 96, ptr nonnull %3) #15
  call void @llvm.lifetime.end.p0(i64 96, ptr nonnull %2) #15
  call void @llvm.lifetime.end.p0(i64 96, ptr nonnull %1) #15
  ret void
}

; Function Attrs: uwtable
define linkonce_odr dso_local void @_Z13testTransposeIfLj31ELj17EEvv() local_unnamed_addr #7 comdat {
  %1 = alloca [527 x float], align 16
  %2 = alloca [527 x float], align 16
  %3 = alloca [527 x float], align 16
  %4 = alloca [527 x float], align 16
  call void @llvm.lifetime.start.p0(i64 2108, ptr nonnull %1) #15
  call void @llvm.lifetime.start.p0(i64 2108, ptr nonnull %2) #15
  call void @llvm.lifetime.start.p0(i64 2108, ptr nonnull %3) #15
  call void @llvm.lifetime.start.p0(i64 2108, ptr nonnull %4) #15
  br label %5

5:                                                ; preds = %62, %0
  %6 = phi i64 [ 0, %0 ], [ %66, %62 ]
  %7 = phi i64 [ 1, %0 ], [ %32, %62 ]
  %8 = tail call x86_fp80 @logl(x86_fp80 noundef 0xK401DFFFFFFFC00000000) #15
  %9 = tail call x86_fp80 @logl(x86_fp80 noundef 0xK40008000000000000000) #15
  %10 = fdiv x86_fp80 %8, %9
  %11 = fptoui x86_fp80 %10 to i64
  %12 = add i64 %11, 23
  %13 = udiv i64 %12, %11
  %14 = tail call i64 @llvm.umax.i64(i64 %13, i64 1)
  %15 = and i64 %14, 1
  %16 = icmp eq i64 %15, 0
  br i1 %16, label %23, label %17

17:                                               ; preds = %5
  %18 = mul nsw i64 %7, 16807
  %19 = urem i64 %18, 2147483647
  %20 = add nsw i64 %19, -1
  %21 = uitofp i64 %20 to float
  %22 = add i64 %14, -1
  br label %23

23:                                               ; preds = %17, %5
  %24 = phi i64 [ undef, %5 ], [ %19, %17 ]
  %25 = phi float [ undef, %5 ], [ %21, %17 ]
  %26 = phi i64 [ %14, %5 ], [ %22, %17 ]
  %27 = phi float [ 1.000000e+00, %5 ], [ 0x41E0000000000000, %17 ]
  %28 = phi float [ 0.000000e+00, %5 ], [ %21, %17 ]
  %29 = phi i64 [ %7, %5 ], [ %19, %17 ]
  %30 = icmp ult i64 %13, 2
  br i1 %30, label %31, label %37

31:                                               ; preds = %37, %23
  %32 = phi i64 [ %24, %23 ], [ %51, %37 ]
  %33 = phi float [ %25, %23 ], [ %54, %37 ]
  %34 = phi float [ 0x41E0000000000000, %23 ], [ %57, %37 ]
  %35 = fdiv float %33, %34
  %36 = fcmp ult float %35, 1.000000e+00
  br i1 %36, label %62, label %60, !prof !5

37:                                               ; preds = %23, %37
  %38 = phi i64 [ %58, %37 ], [ %26, %23 ]
  %39 = phi float [ %57, %37 ], [ %27, %23 ]
  %40 = phi float [ %54, %37 ], [ %28, %23 ]
  %41 = phi i64 [ %51, %37 ], [ %29, %23 ]
  %42 = mul nsw i64 %41, 16807
  %43 = urem i64 %42, 2147483647
  %44 = add nsw i64 %43, -1
  %45 = uitofp i64 %44 to float
  %46 = tail call float @llvm.fmuladd.f32(float %45, float %39, float %40)
  %47 = fpext float %39 to x86_fp80
  %48 = fmul x86_fp80 %47, 0xK401DFFFFFFFC00000000
  %49 = fptrunc x86_fp80 %48 to float
  %50 = mul nuw nsw i64 %43, 16807
  %51 = urem i64 %50, 2147483647
  %52 = add nsw i64 %51, -1
  %53 = uitofp i64 %52 to float
  %54 = tail call float @llvm.fmuladd.f32(float %53, float %49, float %46)
  %55 = fpext float %49 to x86_fp80
  %56 = fmul x86_fp80 %55, 0xK401DFFFFFFFC00000000
  %57 = fptrunc x86_fp80 %56 to float
  %58 = add i64 %38, -2
  %59 = icmp eq i64 %58, 0
  br i1 %59, label %31, label %37, !llvm.loop !13

60:                                               ; preds = %31
  %61 = tail call float @nextafterf(float noundef 1.000000e+00, float noundef 0.000000e+00) #15
  br label %62

62:                                               ; preds = %60, %31
  %63 = phi float [ %61, %60 ], [ %35, %31 ]
  %64 = tail call float @llvm.fmuladd.f32(float %63, float 2.000000e+01, float -1.000000e+01)
  %65 = getelementptr inbounds float, ptr %1, i64 %6
  store float %64, ptr %65, align 4, !tbaa !14
  %66 = add nuw nsw i64 %6, 1
  %67 = icmp eq i64 %66, 527
  br i1 %67, label %68, label %5, !llvm.loop !16

68:                                               ; preds = %62
  store <4 x float> zeroinitializer, ptr %2, align 16, !tbaa !14
  %69 = getelementptr inbounds float, ptr %2, i64 17
  store <4 x float> zeroinitializer, ptr %69, align 4, !tbaa !14
  %70 = getelementptr inbounds float, ptr %2, i64 34
  store <4 x float> zeroinitializer, ptr %70, align 8, !tbaa !14
  %71 = getelementptr inbounds float, ptr %2, i64 51
  store <4 x float> zeroinitializer, ptr %71, align 4, !tbaa !14
  %72 = getelementptr inbounds float, ptr %2, i64 68
  store <4 x float> zeroinitializer, ptr %72, align 16, !tbaa !14
  %73 = getelementptr inbounds float, ptr %2, i64 85
  store <4 x float> zeroinitializer, ptr %73, align 4, !tbaa !14
  %74 = getelementptr inbounds float, ptr %2, i64 102
  store <4 x float> zeroinitializer, ptr %74, align 8, !tbaa !14
  %75 = getelementptr inbounds float, ptr %2, i64 119
  store <4 x float> zeroinitializer, ptr %75, align 4, !tbaa !14
  %76 = getelementptr inbounds float, ptr %2, i64 136
  store <4 x float> zeroinitializer, ptr %76, align 16, !tbaa !14
  %77 = getelementptr inbounds float, ptr %2, i64 153
  store <4 x float> zeroinitializer, ptr %77, align 4, !tbaa !14
  %78 = getelementptr inbounds float, ptr %2, i64 170
  store <4 x float> zeroinitializer, ptr %78, align 8, !tbaa !14
  %79 = getelementptr inbounds float, ptr %2, i64 187
  store <4 x float> zeroinitializer, ptr %79, align 4, !tbaa !14
  %80 = getelementptr inbounds float, ptr %2, i64 204
  store <4 x float> zeroinitializer, ptr %80, align 16, !tbaa !14
  %81 = getelementptr inbounds float, ptr %2, i64 221
  store <4 x float> zeroinitializer, ptr %81, align 4, !tbaa !14
  %82 = getelementptr inbounds float, ptr %2, i64 238
  store <4 x float> zeroinitializer, ptr %82, align 8, !tbaa !14
  %83 = getelementptr inbounds float, ptr %2, i64 255
  store <4 x float> zeroinitializer, ptr %83, align 4, !tbaa !14
  %84 = getelementptr inbounds float, ptr %2, i64 272
  store <4 x float> zeroinitializer, ptr %84, align 16, !tbaa !14
  %85 = getelementptr inbounds float, ptr %2, i64 289
  store <4 x float> zeroinitializer, ptr %85, align 4, !tbaa !14
  %86 = getelementptr inbounds float, ptr %2, i64 306
  store <4 x float> zeroinitializer, ptr %86, align 8, !tbaa !14
  %87 = getelementptr inbounds float, ptr %2, i64 323
  store <4 x float> zeroinitializer, ptr %87, align 4, !tbaa !14
  %88 = getelementptr inbounds float, ptr %2, i64 340
  store <4 x float> zeroinitializer, ptr %88, align 16, !tbaa !14
  %89 = getelementptr inbounds float, ptr %2, i64 357
  store <4 x float> zeroinitializer, ptr %89, align 4, !tbaa !14
  %90 = getelementptr inbounds float, ptr %2, i64 374
  store <4 x float> zeroinitializer, ptr %90, align 8, !tbaa !14
  %91 = getelementptr inbounds float, ptr %2, i64 391
  store <4 x float> zeroinitializer, ptr %91, align 4, !tbaa !14
  %92 = getelementptr inbounds float, ptr %2, i64 408
  store <4 x float> zeroinitializer, ptr %92, align 16, !tbaa !14
  %93 = getelementptr inbounds float, ptr %2, i64 425
  store <4 x float> zeroinitializer, ptr %93, align 4, !tbaa !14
  %94 = getelementptr inbounds float, ptr %2, i64 442
  store <4 x float> zeroinitializer, ptr %94, align 8, !tbaa !14
  %95 = getelementptr inbounds float, ptr %2, i64 459
  store <4 x float> zeroinitializer, ptr %95, align 4, !tbaa !14
  %96 = getelementptr inbounds float, ptr %2, i64 476
  store <4 x float> zeroinitializer, ptr %96, align 16, !tbaa !14
  %97 = getelementptr inbounds float, ptr %2, i64 493
  store <4 x float> zeroinitializer, ptr %97, align 4, !tbaa !14
  %98 = getelementptr inbounds float, ptr %2, i64 510
  store <4 x float> zeroinitializer, ptr %98, align 8, !tbaa !14
  %99 = getelementptr inbounds float, ptr %2, i64 4
  store <4 x float> zeroinitializer, ptr %99, align 16, !tbaa !14
  %100 = getelementptr inbounds float, ptr %2, i64 21
  store <4 x float> zeroinitializer, ptr %100, align 4, !tbaa !14
  %101 = getelementptr inbounds float, ptr %2, i64 38
  store <4 x float> zeroinitializer, ptr %101, align 8, !tbaa !14
  %102 = getelementptr inbounds float, ptr %2, i64 55
  store <4 x float> zeroinitializer, ptr %102, align 4, !tbaa !14
  %103 = getelementptr inbounds float, ptr %2, i64 72
  store <4 x float> zeroinitializer, ptr %103, align 16, !tbaa !14
  %104 = getelementptr inbounds float, ptr %2, i64 89
  store <4 x float> zeroinitializer, ptr %104, align 4, !tbaa !14
  %105 = getelementptr inbounds float, ptr %2, i64 106
  store <4 x float> zeroinitializer, ptr %105, align 8, !tbaa !14
  %106 = getelementptr inbounds float, ptr %2, i64 123
  store <4 x float> zeroinitializer, ptr %106, align 4, !tbaa !14
  %107 = getelementptr inbounds float, ptr %2, i64 140
  store <4 x float> zeroinitializer, ptr %107, align 16, !tbaa !14
  %108 = getelementptr inbounds float, ptr %2, i64 157
  store <4 x float> zeroinitializer, ptr %108, align 4, !tbaa !14
  %109 = getelementptr inbounds float, ptr %2, i64 174
  store <4 x float> zeroinitializer, ptr %109, align 8, !tbaa !14
  %110 = getelementptr inbounds float, ptr %2, i64 191
  store <4 x float> zeroinitializer, ptr %110, align 4, !tbaa !14
  %111 = getelementptr inbounds float, ptr %2, i64 208
  store <4 x float> zeroinitializer, ptr %111, align 16, !tbaa !14
  %112 = getelementptr inbounds float, ptr %2, i64 225
  store <4 x float> zeroinitializer, ptr %112, align 4, !tbaa !14
  %113 = getelementptr inbounds float, ptr %2, i64 242
  store <4 x float> zeroinitializer, ptr %113, align 8, !tbaa !14
  %114 = getelementptr inbounds float, ptr %2, i64 259
  store <4 x float> zeroinitializer, ptr %114, align 4, !tbaa !14
  %115 = getelementptr inbounds float, ptr %2, i64 276
  store <4 x float> zeroinitializer, ptr %115, align 16, !tbaa !14
  %116 = getelementptr inbounds float, ptr %2, i64 293
  store <4 x float> zeroinitializer, ptr %116, align 4, !tbaa !14
  %117 = getelementptr inbounds float, ptr %2, i64 310
  store <4 x float> zeroinitializer, ptr %117, align 8, !tbaa !14
  %118 = getelementptr inbounds float, ptr %2, i64 327
  store <4 x float> zeroinitializer, ptr %118, align 4, !tbaa !14
  %119 = getelementptr inbounds float, ptr %2, i64 344
  store <4 x float> zeroinitializer, ptr %119, align 16, !tbaa !14
  %120 = getelementptr inbounds float, ptr %2, i64 361
  store <4 x float> zeroinitializer, ptr %120, align 4, !tbaa !14
  %121 = getelementptr inbounds float, ptr %2, i64 378
  store <4 x float> zeroinitializer, ptr %121, align 8, !tbaa !14
  %122 = getelementptr inbounds float, ptr %2, i64 395
  store <4 x float> zeroinitializer, ptr %122, align 4, !tbaa !14
  %123 = getelementptr inbounds float, ptr %2, i64 412
  store <4 x float> zeroinitializer, ptr %123, align 16, !tbaa !14
  %124 = getelementptr inbounds float, ptr %2, i64 429
  store <4 x float> zeroinitializer, ptr %124, align 4, !tbaa !14
  %125 = getelementptr inbounds float, ptr %2, i64 446
  store <4 x float> zeroinitializer, ptr %125, align 8, !tbaa !14
  %126 = getelementptr inbounds float, ptr %2, i64 463
  store <4 x float> zeroinitializer, ptr %126, align 4, !tbaa !14
  %127 = getelementptr inbounds float, ptr %2, i64 480
  store <4 x float> zeroinitializer, ptr %127, align 16, !tbaa !14
  %128 = getelementptr inbounds float, ptr %2, i64 497
  store <4 x float> zeroinitializer, ptr %128, align 4, !tbaa !14
  %129 = getelementptr inbounds float, ptr %2, i64 514
  store <4 x float> zeroinitializer, ptr %129, align 8, !tbaa !14
  %130 = getelementptr inbounds float, ptr %2, i64 8
  store <4 x float> zeroinitializer, ptr %130, align 16, !tbaa !14
  %131 = getelementptr inbounds float, ptr %2, i64 25
  store <4 x float> zeroinitializer, ptr %131, align 4, !tbaa !14
  %132 = getelementptr inbounds float, ptr %2, i64 42
  store <4 x float> zeroinitializer, ptr %132, align 8, !tbaa !14
  %133 = getelementptr inbounds float, ptr %2, i64 59
  store <4 x float> zeroinitializer, ptr %133, align 4, !tbaa !14
  %134 = getelementptr inbounds float, ptr %2, i64 76
  store <4 x float> zeroinitializer, ptr %134, align 16, !tbaa !14
  %135 = getelementptr inbounds float, ptr %2, i64 93
  store <4 x float> zeroinitializer, ptr %135, align 4, !tbaa !14
  %136 = getelementptr inbounds float, ptr %2, i64 110
  store <4 x float> zeroinitializer, ptr %136, align 8, !tbaa !14
  %137 = getelementptr inbounds float, ptr %2, i64 127
  store <4 x float> zeroinitializer, ptr %137, align 4, !tbaa !14
  %138 = getelementptr inbounds float, ptr %2, i64 144
  store <4 x float> zeroinitializer, ptr %138, align 16, !tbaa !14
  %139 = getelementptr inbounds float, ptr %2, i64 161
  store <4 x float> zeroinitializer, ptr %139, align 4, !tbaa !14
  %140 = getelementptr inbounds float, ptr %2, i64 178
  store <4 x float> zeroinitializer, ptr %140, align 8, !tbaa !14
  %141 = getelementptr inbounds float, ptr %2, i64 195
  store <4 x float> zeroinitializer, ptr %141, align 4, !tbaa !14
  %142 = getelementptr inbounds float, ptr %2, i64 212
  store <4 x float> zeroinitializer, ptr %142, align 16, !tbaa !14
  %143 = getelementptr inbounds float, ptr %2, i64 229
  store <4 x float> zeroinitializer, ptr %143, align 4, !tbaa !14
  %144 = getelementptr inbounds float, ptr %2, i64 246
  store <4 x float> zeroinitializer, ptr %144, align 8, !tbaa !14
  %145 = getelementptr inbounds float, ptr %2, i64 263
  store <4 x float> zeroinitializer, ptr %145, align 4, !tbaa !14
  %146 = getelementptr inbounds float, ptr %2, i64 280
  store <4 x float> zeroinitializer, ptr %146, align 16, !tbaa !14
  %147 = getelementptr inbounds float, ptr %2, i64 297
  store <4 x float> zeroinitializer, ptr %147, align 4, !tbaa !14
  %148 = getelementptr inbounds float, ptr %2, i64 314
  store <4 x float> zeroinitializer, ptr %148, align 8, !tbaa !14
  %149 = getelementptr inbounds float, ptr %2, i64 331
  store <4 x float> zeroinitializer, ptr %149, align 4, !tbaa !14
  %150 = getelementptr inbounds float, ptr %2, i64 348
  store <4 x float> zeroinitializer, ptr %150, align 16, !tbaa !14
  %151 = getelementptr inbounds float, ptr %2, i64 365
  store <4 x float> zeroinitializer, ptr %151, align 4, !tbaa !14
  %152 = getelementptr inbounds float, ptr %2, i64 382
  store <4 x float> zeroinitializer, ptr %152, align 8, !tbaa !14
  %153 = getelementptr inbounds float, ptr %2, i64 399
  store <4 x float> zeroinitializer, ptr %153, align 4, !tbaa !14
  %154 = getelementptr inbounds float, ptr %2, i64 416
  store <4 x float> zeroinitializer, ptr %154, align 16, !tbaa !14
  %155 = getelementptr inbounds float, ptr %2, i64 433
  store <4 x float> zeroinitializer, ptr %155, align 4, !tbaa !14
  %156 = getelementptr inbounds float, ptr %2, i64 450
  store <4 x float> zeroinitializer, ptr %156, align 8, !tbaa !14
  %157 = getelementptr inbounds float, ptr %2, i64 467
  store <4 x float> zeroinitializer, ptr %157, align 4, !tbaa !14
  %158 = getelementptr inbounds float, ptr %2, i64 484
  store <4 x float> zeroinitializer, ptr %158, align 16, !tbaa !14
  %159 = getelementptr inbounds float, ptr %2, i64 501
  store <4 x float> zeroinitializer, ptr %159, align 4, !tbaa !14
  %160 = getelementptr inbounds float, ptr %2, i64 518
  store <4 x float> zeroinitializer, ptr %160, align 8, !tbaa !14
  %161 = getelementptr inbounds float, ptr %2, i64 12
  store <4 x float> zeroinitializer, ptr %161, align 16, !tbaa !14
  %162 = getelementptr inbounds float, ptr %2, i64 29
  store <4 x float> zeroinitializer, ptr %162, align 4, !tbaa !14
  %163 = getelementptr inbounds float, ptr %2, i64 46
  store <4 x float> zeroinitializer, ptr %163, align 8, !tbaa !14
  %164 = getelementptr inbounds float, ptr %2, i64 63
  store <4 x float> zeroinitializer, ptr %164, align 4, !tbaa !14
  %165 = getelementptr inbounds float, ptr %2, i64 80
  store <4 x float> zeroinitializer, ptr %165, align 16, !tbaa !14
  %166 = getelementptr inbounds float, ptr %2, i64 97
  store <4 x float> zeroinitializer, ptr %166, align 4, !tbaa !14
  %167 = getelementptr inbounds float, ptr %2, i64 114
  store <4 x float> zeroinitializer, ptr %167, align 8, !tbaa !14
  %168 = getelementptr inbounds float, ptr %2, i64 131
  store <4 x float> zeroinitializer, ptr %168, align 4, !tbaa !14
  %169 = getelementptr inbounds float, ptr %2, i64 148
  store <4 x float> zeroinitializer, ptr %169, align 16, !tbaa !14
  %170 = getelementptr inbounds float, ptr %2, i64 165
  store <4 x float> zeroinitializer, ptr %170, align 4, !tbaa !14
  %171 = getelementptr inbounds float, ptr %2, i64 182
  store <4 x float> zeroinitializer, ptr %171, align 8, !tbaa !14
  %172 = getelementptr inbounds float, ptr %2, i64 199
  store <4 x float> zeroinitializer, ptr %172, align 4, !tbaa !14
  %173 = getelementptr inbounds float, ptr %2, i64 216
  store <4 x float> zeroinitializer, ptr %173, align 16, !tbaa !14
  %174 = getelementptr inbounds float, ptr %2, i64 233
  store <4 x float> zeroinitializer, ptr %174, align 4, !tbaa !14
  %175 = getelementptr inbounds float, ptr %2, i64 250
  store <4 x float> zeroinitializer, ptr %175, align 8, !tbaa !14
  %176 = getelementptr inbounds float, ptr %2, i64 267
  store <4 x float> zeroinitializer, ptr %176, align 4, !tbaa !14
  %177 = getelementptr inbounds float, ptr %2, i64 284
  store <4 x float> zeroinitializer, ptr %177, align 16, !tbaa !14
  %178 = getelementptr inbounds float, ptr %2, i64 301
  store <4 x float> zeroinitializer, ptr %178, align 4, !tbaa !14
  %179 = getelementptr inbounds float, ptr %2, i64 318
  store <4 x float> zeroinitializer, ptr %179, align 8, !tbaa !14
  %180 = getelementptr inbounds float, ptr %2, i64 335
  store <4 x float> zeroinitializer, ptr %180, align 4, !tbaa !14
  %181 = getelementptr inbounds float, ptr %2, i64 352
  store <4 x float> zeroinitializer, ptr %181, align 16, !tbaa !14
  %182 = getelementptr inbounds float, ptr %2, i64 369
  store <4 x float> zeroinitializer, ptr %182, align 4, !tbaa !14
  %183 = getelementptr inbounds float, ptr %2, i64 386
  store <4 x float> zeroinitializer, ptr %183, align 8, !tbaa !14
  %184 = getelementptr inbounds float, ptr %2, i64 403
  store <4 x float> zeroinitializer, ptr %184, align 4, !tbaa !14
  %185 = getelementptr inbounds float, ptr %2, i64 420
  store <4 x float> zeroinitializer, ptr %185, align 16, !tbaa !14
  %186 = getelementptr inbounds float, ptr %2, i64 437
  store <4 x float> zeroinitializer, ptr %186, align 4, !tbaa !14
  %187 = getelementptr inbounds float, ptr %2, i64 454
  store <4 x float> zeroinitializer, ptr %187, align 8, !tbaa !14
  %188 = getelementptr inbounds float, ptr %2, i64 471
  store <4 x float> zeroinitializer, ptr %188, align 4, !tbaa !14
  %189 = getelementptr inbounds float, ptr %2, i64 488
  store <4 x float> zeroinitializer, ptr %189, align 16, !tbaa !14
  %190 = getelementptr inbounds float, ptr %2, i64 505
  store <4 x float> zeroinitializer, ptr %190, align 4, !tbaa !14
  %191 = getelementptr inbounds float, ptr %2, i64 522
  store <4 x float> zeroinitializer, ptr %191, align 8, !tbaa !14
  %192 = getelementptr inbounds float, ptr %2, i64 16
  store float 0.000000e+00, ptr %192, align 16, !tbaa !14
  %193 = getelementptr inbounds float, ptr %2, i64 33
  store float 0.000000e+00, ptr %193, align 4, !tbaa !14
  %194 = getelementptr inbounds float, ptr %2, i64 50
  store float 0.000000e+00, ptr %194, align 8, !tbaa !14
  %195 = getelementptr inbounds float, ptr %2, i64 67
  store float 0.000000e+00, ptr %195, align 4, !tbaa !14
  %196 = getelementptr inbounds float, ptr %2, i64 84
  store float 0.000000e+00, ptr %196, align 16, !tbaa !14
  %197 = getelementptr inbounds float, ptr %2, i64 101
  store float 0.000000e+00, ptr %197, align 4, !tbaa !14
  %198 = getelementptr inbounds float, ptr %2, i64 118
  store float 0.000000e+00, ptr %198, align 8, !tbaa !14
  %199 = getelementptr inbounds float, ptr %2, i64 135
  store float 0.000000e+00, ptr %199, align 4, !tbaa !14
  %200 = getelementptr inbounds float, ptr %2, i64 152
  store float 0.000000e+00, ptr %200, align 16, !tbaa !14
  %201 = getelementptr inbounds float, ptr %2, i64 169
  store float 0.000000e+00, ptr %201, align 4, !tbaa !14
  %202 = getelementptr inbounds float, ptr %2, i64 186
  store float 0.000000e+00, ptr %202, align 8, !tbaa !14
  %203 = getelementptr inbounds float, ptr %2, i64 203
  store float 0.000000e+00, ptr %203, align 4, !tbaa !14
  %204 = getelementptr inbounds float, ptr %2, i64 220
  store float 0.000000e+00, ptr %204, align 16, !tbaa !14
  %205 = getelementptr inbounds float, ptr %2, i64 237
  store float 0.000000e+00, ptr %205, align 4, !tbaa !14
  %206 = getelementptr inbounds float, ptr %2, i64 254
  store float 0.000000e+00, ptr %206, align 8, !tbaa !14
  %207 = getelementptr inbounds float, ptr %2, i64 271
  store float 0.000000e+00, ptr %207, align 4, !tbaa !14
  %208 = getelementptr inbounds float, ptr %2, i64 288
  store float 0.000000e+00, ptr %208, align 16, !tbaa !14
  %209 = getelementptr inbounds float, ptr %2, i64 305
  store float 0.000000e+00, ptr %209, align 4, !tbaa !14
  %210 = getelementptr inbounds float, ptr %2, i64 322
  store float 0.000000e+00, ptr %210, align 8, !tbaa !14
  %211 = getelementptr inbounds float, ptr %2, i64 339
  store float 0.000000e+00, ptr %211, align 4, !tbaa !14
  %212 = getelementptr inbounds float, ptr %2, i64 356
  store float 0.000000e+00, ptr %212, align 16, !tbaa !14
  %213 = getelementptr inbounds float, ptr %2, i64 373
  store float 0.000000e+00, ptr %213, align 4, !tbaa !14
  %214 = getelementptr inbounds float, ptr %2, i64 390
  store float 0.000000e+00, ptr %214, align 8, !tbaa !14
  %215 = getelementptr inbounds float, ptr %2, i64 407
  store float 0.000000e+00, ptr %215, align 4, !tbaa !14
  %216 = getelementptr inbounds float, ptr %2, i64 424
  store float 0.000000e+00, ptr %216, align 16, !tbaa !14
  %217 = getelementptr inbounds float, ptr %2, i64 441
  store float 0.000000e+00, ptr %217, align 4, !tbaa !14
  %218 = getelementptr inbounds float, ptr %2, i64 458
  store float 0.000000e+00, ptr %218, align 8, !tbaa !14
  %219 = getelementptr inbounds float, ptr %2, i64 475
  store float 0.000000e+00, ptr %219, align 4, !tbaa !14
  %220 = getelementptr inbounds float, ptr %2, i64 492
  store float 0.000000e+00, ptr %220, align 16, !tbaa !14
  %221 = getelementptr inbounds float, ptr %2, i64 509
  store float 0.000000e+00, ptr %221, align 4, !tbaa !14
  %222 = getelementptr inbounds float, ptr %2, i64 526
  store float 0.000000e+00, ptr %222, align 8, !tbaa !14
  store <4 x float> zeroinitializer, ptr %3, align 16, !tbaa !14
  %223 = getelementptr inbounds float, ptr %3, i64 17
  store <4 x float> zeroinitializer, ptr %223, align 4, !tbaa !14
  %224 = getelementptr inbounds float, ptr %3, i64 34
  store <4 x float> zeroinitializer, ptr %224, align 8, !tbaa !14
  %225 = getelementptr inbounds float, ptr %3, i64 51
  store <4 x float> zeroinitializer, ptr %225, align 4, !tbaa !14
  %226 = getelementptr inbounds float, ptr %3, i64 68
  store <4 x float> zeroinitializer, ptr %226, align 16, !tbaa !14
  %227 = getelementptr inbounds float, ptr %3, i64 85
  store <4 x float> zeroinitializer, ptr %227, align 4, !tbaa !14
  %228 = getelementptr inbounds float, ptr %3, i64 102
  store <4 x float> zeroinitializer, ptr %228, align 8, !tbaa !14
  %229 = getelementptr inbounds float, ptr %3, i64 119
  store <4 x float> zeroinitializer, ptr %229, align 4, !tbaa !14
  %230 = getelementptr inbounds float, ptr %3, i64 136
  store <4 x float> zeroinitializer, ptr %230, align 16, !tbaa !14
  %231 = getelementptr inbounds float, ptr %3, i64 153
  store <4 x float> zeroinitializer, ptr %231, align 4, !tbaa !14
  %232 = getelementptr inbounds float, ptr %3, i64 170
  store <4 x float> zeroinitializer, ptr %232, align 8, !tbaa !14
  %233 = getelementptr inbounds float, ptr %3, i64 187
  store <4 x float> zeroinitializer, ptr %233, align 4, !tbaa !14
  %234 = getelementptr inbounds float, ptr %3, i64 204
  store <4 x float> zeroinitializer, ptr %234, align 16, !tbaa !14
  %235 = getelementptr inbounds float, ptr %3, i64 221
  store <4 x float> zeroinitializer, ptr %235, align 4, !tbaa !14
  %236 = getelementptr inbounds float, ptr %3, i64 238
  store <4 x float> zeroinitializer, ptr %236, align 8, !tbaa !14
  %237 = getelementptr inbounds float, ptr %3, i64 255
  store <4 x float> zeroinitializer, ptr %237, align 4, !tbaa !14
  %238 = getelementptr inbounds float, ptr %3, i64 272
  store <4 x float> zeroinitializer, ptr %238, align 16, !tbaa !14
  %239 = getelementptr inbounds float, ptr %3, i64 289
  store <4 x float> zeroinitializer, ptr %239, align 4, !tbaa !14
  %240 = getelementptr inbounds float, ptr %3, i64 306
  store <4 x float> zeroinitializer, ptr %240, align 8, !tbaa !14
  %241 = getelementptr inbounds float, ptr %3, i64 323
  store <4 x float> zeroinitializer, ptr %241, align 4, !tbaa !14
  %242 = getelementptr inbounds float, ptr %3, i64 340
  store <4 x float> zeroinitializer, ptr %242, align 16, !tbaa !14
  %243 = getelementptr inbounds float, ptr %3, i64 357
  store <4 x float> zeroinitializer, ptr %243, align 4, !tbaa !14
  %244 = getelementptr inbounds float, ptr %3, i64 374
  store <4 x float> zeroinitializer, ptr %244, align 8, !tbaa !14
  %245 = getelementptr inbounds float, ptr %3, i64 391
  store <4 x float> zeroinitializer, ptr %245, align 4, !tbaa !14
  %246 = getelementptr inbounds float, ptr %3, i64 408
  store <4 x float> zeroinitializer, ptr %246, align 16, !tbaa !14
  %247 = getelementptr inbounds float, ptr %3, i64 425
  store <4 x float> zeroinitializer, ptr %247, align 4, !tbaa !14
  %248 = getelementptr inbounds float, ptr %3, i64 442
  store <4 x float> zeroinitializer, ptr %248, align 8, !tbaa !14
  %249 = getelementptr inbounds float, ptr %3, i64 459
  store <4 x float> zeroinitializer, ptr %249, align 4, !tbaa !14
  %250 = getelementptr inbounds float, ptr %3, i64 476
  store <4 x float> zeroinitializer, ptr %250, align 16, !tbaa !14
  %251 = getelementptr inbounds float, ptr %3, i64 493
  store <4 x float> zeroinitializer, ptr %251, align 4, !tbaa !14
  %252 = getelementptr inbounds float, ptr %3, i64 510
  store <4 x float> zeroinitializer, ptr %252, align 8, !tbaa !14
  %253 = getelementptr inbounds float, ptr %3, i64 4
  store <4 x float> zeroinitializer, ptr %253, align 16, !tbaa !14
  %254 = getelementptr inbounds float, ptr %3, i64 21
  store <4 x float> zeroinitializer, ptr %254, align 4, !tbaa !14
  %255 = getelementptr inbounds float, ptr %3, i64 38
  store <4 x float> zeroinitializer, ptr %255, align 8, !tbaa !14
  %256 = getelementptr inbounds float, ptr %3, i64 55
  store <4 x float> zeroinitializer, ptr %256, align 4, !tbaa !14
  %257 = getelementptr inbounds float, ptr %3, i64 72
  store <4 x float> zeroinitializer, ptr %257, align 16, !tbaa !14
  %258 = getelementptr inbounds float, ptr %3, i64 89
  store <4 x float> zeroinitializer, ptr %258, align 4, !tbaa !14
  %259 = getelementptr inbounds float, ptr %3, i64 106
  store <4 x float> zeroinitializer, ptr %259, align 8, !tbaa !14
  %260 = getelementptr inbounds float, ptr %3, i64 123
  store <4 x float> zeroinitializer, ptr %260, align 4, !tbaa !14
  %261 = getelementptr inbounds float, ptr %3, i64 140
  store <4 x float> zeroinitializer, ptr %261, align 16, !tbaa !14
  %262 = getelementptr inbounds float, ptr %3, i64 157
  store <4 x float> zeroinitializer, ptr %262, align 4, !tbaa !14
  %263 = getelementptr inbounds float, ptr %3, i64 174
  store <4 x float> zeroinitializer, ptr %263, align 8, !tbaa !14
  %264 = getelementptr inbounds float, ptr %3, i64 191
  store <4 x float> zeroinitializer, ptr %264, align 4, !tbaa !14
  %265 = getelementptr inbounds float, ptr %3, i64 208
  store <4 x float> zeroinitializer, ptr %265, align 16, !tbaa !14
  %266 = getelementptr inbounds float, ptr %3, i64 225
  store <4 x float> zeroinitializer, ptr %266, align 4, !tbaa !14
  %267 = getelementptr inbounds float, ptr %3, i64 242
  store <4 x float> zeroinitializer, ptr %267, align 8, !tbaa !14
  %268 = getelementptr inbounds float, ptr %3, i64 259
  store <4 x float> zeroinitializer, ptr %268, align 4, !tbaa !14
  %269 = getelementptr inbounds float, ptr %3, i64 276
  store <4 x float> zeroinitializer, ptr %269, align 16, !tbaa !14
  %270 = getelementptr inbounds float, ptr %3, i64 293
  store <4 x float> zeroinitializer, ptr %270, align 4, !tbaa !14
  %271 = getelementptr inbounds float, ptr %3, i64 310
  store <4 x float> zeroinitializer, ptr %271, align 8, !tbaa !14
  %272 = getelementptr inbounds float, ptr %3, i64 327
  store <4 x float> zeroinitializer, ptr %272, align 4, !tbaa !14
  %273 = getelementptr inbounds float, ptr %3, i64 344
  store <4 x float> zeroinitializer, ptr %273, align 16, !tbaa !14
  %274 = getelementptr inbounds float, ptr %3, i64 361
  store <4 x float> zeroinitializer, ptr %274, align 4, !tbaa !14
  %275 = getelementptr inbounds float, ptr %3, i64 378
  store <4 x float> zeroinitializer, ptr %275, align 8, !tbaa !14
  %276 = getelementptr inbounds float, ptr %3, i64 395
  store <4 x float> zeroinitializer, ptr %276, align 4, !tbaa !14
  %277 = getelementptr inbounds float, ptr %3, i64 412
  store <4 x float> zeroinitializer, ptr %277, align 16, !tbaa !14
  %278 = getelementptr inbounds float, ptr %3, i64 429
  store <4 x float> zeroinitializer, ptr %278, align 4, !tbaa !14
  %279 = getelementptr inbounds float, ptr %3, i64 446
  store <4 x float> zeroinitializer, ptr %279, align 8, !tbaa !14
  %280 = getelementptr inbounds float, ptr %3, i64 463
  store <4 x float> zeroinitializer, ptr %280, align 4, !tbaa !14
  %281 = getelementptr inbounds float, ptr %3, i64 480
  store <4 x float> zeroinitializer, ptr %281, align 16, !tbaa !14
  %282 = getelementptr inbounds float, ptr %3, i64 497
  store <4 x float> zeroinitializer, ptr %282, align 4, !tbaa !14
  %283 = getelementptr inbounds float, ptr %3, i64 514
  store <4 x float> zeroinitializer, ptr %283, align 8, !tbaa !14
  %284 = getelementptr inbounds float, ptr %3, i64 8
  store <4 x float> zeroinitializer, ptr %284, align 16, !tbaa !14
  %285 = getelementptr inbounds float, ptr %3, i64 25
  store <4 x float> zeroinitializer, ptr %285, align 4, !tbaa !14
  %286 = getelementptr inbounds float, ptr %3, i64 42
  store <4 x float> zeroinitializer, ptr %286, align 8, !tbaa !14
  %287 = getelementptr inbounds float, ptr %3, i64 59
  store <4 x float> zeroinitializer, ptr %287, align 4, !tbaa !14
  %288 = getelementptr inbounds float, ptr %3, i64 76
  store <4 x float> zeroinitializer, ptr %288, align 16, !tbaa !14
  %289 = getelementptr inbounds float, ptr %3, i64 93
  store <4 x float> zeroinitializer, ptr %289, align 4, !tbaa !14
  %290 = getelementptr inbounds float, ptr %3, i64 110
  store <4 x float> zeroinitializer, ptr %290, align 8, !tbaa !14
  %291 = getelementptr inbounds float, ptr %3, i64 127
  store <4 x float> zeroinitializer, ptr %291, align 4, !tbaa !14
  %292 = getelementptr inbounds float, ptr %3, i64 144
  store <4 x float> zeroinitializer, ptr %292, align 16, !tbaa !14
  %293 = getelementptr inbounds float, ptr %3, i64 161
  store <4 x float> zeroinitializer, ptr %293, align 4, !tbaa !14
  %294 = getelementptr inbounds float, ptr %3, i64 178
  store <4 x float> zeroinitializer, ptr %294, align 8, !tbaa !14
  %295 = getelementptr inbounds float, ptr %3, i64 195
  store <4 x float> zeroinitializer, ptr %295, align 4, !tbaa !14
  %296 = getelementptr inbounds float, ptr %3, i64 212
  store <4 x float> zeroinitializer, ptr %296, align 16, !tbaa !14
  %297 = getelementptr inbounds float, ptr %3, i64 229
  store <4 x float> zeroinitializer, ptr %297, align 4, !tbaa !14
  %298 = getelementptr inbounds float, ptr %3, i64 246
  store <4 x float> zeroinitializer, ptr %298, align 8, !tbaa !14
  %299 = getelementptr inbounds float, ptr %3, i64 263
  store <4 x float> zeroinitializer, ptr %299, align 4, !tbaa !14
  %300 = getelementptr inbounds float, ptr %3, i64 280
  store <4 x float> zeroinitializer, ptr %300, align 16, !tbaa !14
  %301 = getelementptr inbounds float, ptr %3, i64 297
  store <4 x float> zeroinitializer, ptr %301, align 4, !tbaa !14
  %302 = getelementptr inbounds float, ptr %3, i64 314
  store <4 x float> zeroinitializer, ptr %302, align 8, !tbaa !14
  %303 = getelementptr inbounds float, ptr %3, i64 331
  store <4 x float> zeroinitializer, ptr %303, align 4, !tbaa !14
  %304 = getelementptr inbounds float, ptr %3, i64 348
  store <4 x float> zeroinitializer, ptr %304, align 16, !tbaa !14
  %305 = getelementptr inbounds float, ptr %3, i64 365
  store <4 x float> zeroinitializer, ptr %305, align 4, !tbaa !14
  %306 = getelementptr inbounds float, ptr %3, i64 382
  store <4 x float> zeroinitializer, ptr %306, align 8, !tbaa !14
  %307 = getelementptr inbounds float, ptr %3, i64 399
  store <4 x float> zeroinitializer, ptr %307, align 4, !tbaa !14
  %308 = getelementptr inbounds float, ptr %3, i64 416
  store <4 x float> zeroinitializer, ptr %308, align 16, !tbaa !14
  %309 = getelementptr inbounds float, ptr %3, i64 433
  store <4 x float> zeroinitializer, ptr %309, align 4, !tbaa !14
  %310 = getelementptr inbounds float, ptr %3, i64 450
  store <4 x float> zeroinitializer, ptr %310, align 8, !tbaa !14
  %311 = getelementptr inbounds float, ptr %3, i64 467
  store <4 x float> zeroinitializer, ptr %311, align 4, !tbaa !14
  %312 = getelementptr inbounds float, ptr %3, i64 484
  store <4 x float> zeroinitializer, ptr %312, align 16, !tbaa !14
  %313 = getelementptr inbounds float, ptr %3, i64 501
  store <4 x float> zeroinitializer, ptr %313, align 4, !tbaa !14
  %314 = getelementptr inbounds float, ptr %3, i64 518
  store <4 x float> zeroinitializer, ptr %314, align 8, !tbaa !14
  %315 = getelementptr inbounds float, ptr %3, i64 12
  store <4 x float> zeroinitializer, ptr %315, align 16, !tbaa !14
  %316 = getelementptr inbounds float, ptr %3, i64 29
  store <4 x float> zeroinitializer, ptr %316, align 4, !tbaa !14
  %317 = getelementptr inbounds float, ptr %3, i64 46
  store <4 x float> zeroinitializer, ptr %317, align 8, !tbaa !14
  %318 = getelementptr inbounds float, ptr %3, i64 63
  store <4 x float> zeroinitializer, ptr %318, align 4, !tbaa !14
  %319 = getelementptr inbounds float, ptr %3, i64 80
  store <4 x float> zeroinitializer, ptr %319, align 16, !tbaa !14
  %320 = getelementptr inbounds float, ptr %3, i64 97
  store <4 x float> zeroinitializer, ptr %320, align 4, !tbaa !14
  %321 = getelementptr inbounds float, ptr %3, i64 114
  store <4 x float> zeroinitializer, ptr %321, align 8, !tbaa !14
  %322 = getelementptr inbounds float, ptr %3, i64 131
  store <4 x float> zeroinitializer, ptr %322, align 4, !tbaa !14
  %323 = getelementptr inbounds float, ptr %3, i64 148
  store <4 x float> zeroinitializer, ptr %323, align 16, !tbaa !14
  %324 = getelementptr inbounds float, ptr %3, i64 165
  store <4 x float> zeroinitializer, ptr %324, align 4, !tbaa !14
  %325 = getelementptr inbounds float, ptr %3, i64 182
  store <4 x float> zeroinitializer, ptr %325, align 8, !tbaa !14
  %326 = getelementptr inbounds float, ptr %3, i64 199
  store <4 x float> zeroinitializer, ptr %326, align 4, !tbaa !14
  %327 = getelementptr inbounds float, ptr %3, i64 216
  store <4 x float> zeroinitializer, ptr %327, align 16, !tbaa !14
  %328 = getelementptr inbounds float, ptr %3, i64 233
  store <4 x float> zeroinitializer, ptr %328, align 4, !tbaa !14
  %329 = getelementptr inbounds float, ptr %3, i64 250
  store <4 x float> zeroinitializer, ptr %329, align 8, !tbaa !14
  %330 = getelementptr inbounds float, ptr %3, i64 267
  store <4 x float> zeroinitializer, ptr %330, align 4, !tbaa !14
  %331 = getelementptr inbounds float, ptr %3, i64 284
  store <4 x float> zeroinitializer, ptr %331, align 16, !tbaa !14
  %332 = getelementptr inbounds float, ptr %3, i64 301
  store <4 x float> zeroinitializer, ptr %332, align 4, !tbaa !14
  %333 = getelementptr inbounds float, ptr %3, i64 318
  store <4 x float> zeroinitializer, ptr %333, align 8, !tbaa !14
  %334 = getelementptr inbounds float, ptr %3, i64 335
  store <4 x float> zeroinitializer, ptr %334, align 4, !tbaa !14
  %335 = getelementptr inbounds float, ptr %3, i64 352
  store <4 x float> zeroinitializer, ptr %335, align 16, !tbaa !14
  %336 = getelementptr inbounds float, ptr %3, i64 369
  store <4 x float> zeroinitializer, ptr %336, align 4, !tbaa !14
  %337 = getelementptr inbounds float, ptr %3, i64 386
  store <4 x float> zeroinitializer, ptr %337, align 8, !tbaa !14
  %338 = getelementptr inbounds float, ptr %3, i64 403
  store <4 x float> zeroinitializer, ptr %338, align 4, !tbaa !14
  %339 = getelementptr inbounds float, ptr %3, i64 420
  store <4 x float> zeroinitializer, ptr %339, align 16, !tbaa !14
  %340 = getelementptr inbounds float, ptr %3, i64 437
  store <4 x float> zeroinitializer, ptr %340, align 4, !tbaa !14
  %341 = getelementptr inbounds float, ptr %3, i64 454
  store <4 x float> zeroinitializer, ptr %341, align 8, !tbaa !14
  %342 = getelementptr inbounds float, ptr %3, i64 471
  store <4 x float> zeroinitializer, ptr %342, align 4, !tbaa !14
  %343 = getelementptr inbounds float, ptr %3, i64 488
  store <4 x float> zeroinitializer, ptr %343, align 16, !tbaa !14
  %344 = getelementptr inbounds float, ptr %3, i64 505
  store <4 x float> zeroinitializer, ptr %344, align 4, !tbaa !14
  %345 = getelementptr inbounds float, ptr %3, i64 522
  store <4 x float> zeroinitializer, ptr %345, align 8, !tbaa !14
  %346 = getelementptr inbounds float, ptr %3, i64 16
  store float 0.000000e+00, ptr %346, align 16, !tbaa !14
  %347 = getelementptr inbounds float, ptr %3, i64 33
  store float 0.000000e+00, ptr %347, align 4, !tbaa !14
  %348 = getelementptr inbounds float, ptr %3, i64 50
  store float 0.000000e+00, ptr %348, align 8, !tbaa !14
  %349 = getelementptr inbounds float, ptr %3, i64 67
  store float 0.000000e+00, ptr %349, align 4, !tbaa !14
  %350 = getelementptr inbounds float, ptr %3, i64 84
  store float 0.000000e+00, ptr %350, align 16, !tbaa !14
  %351 = getelementptr inbounds float, ptr %3, i64 101
  store float 0.000000e+00, ptr %351, align 4, !tbaa !14
  %352 = getelementptr inbounds float, ptr %3, i64 118
  store float 0.000000e+00, ptr %352, align 8, !tbaa !14
  %353 = getelementptr inbounds float, ptr %3, i64 135
  store float 0.000000e+00, ptr %353, align 4, !tbaa !14
  %354 = getelementptr inbounds float, ptr %3, i64 152
  store float 0.000000e+00, ptr %354, align 16, !tbaa !14
  %355 = getelementptr inbounds float, ptr %3, i64 169
  store float 0.000000e+00, ptr %355, align 4, !tbaa !14
  %356 = getelementptr inbounds float, ptr %3, i64 186
  store float 0.000000e+00, ptr %356, align 8, !tbaa !14
  %357 = getelementptr inbounds float, ptr %3, i64 203
  store float 0.000000e+00, ptr %357, align 4, !tbaa !14
  %358 = getelementptr inbounds float, ptr %3, i64 220
  store float 0.000000e+00, ptr %358, align 16, !tbaa !14
  %359 = getelementptr inbounds float, ptr %3, i64 237
  store float 0.000000e+00, ptr %359, align 4, !tbaa !14
  %360 = getelementptr inbounds float, ptr %3, i64 254
  store float 0.000000e+00, ptr %360, align 8, !tbaa !14
  %361 = getelementptr inbounds float, ptr %3, i64 271
  store float 0.000000e+00, ptr %361, align 4, !tbaa !14
  %362 = getelementptr inbounds float, ptr %3, i64 288
  store float 0.000000e+00, ptr %362, align 16, !tbaa !14
  %363 = getelementptr inbounds float, ptr %3, i64 305
  store float 0.000000e+00, ptr %363, align 4, !tbaa !14
  %364 = getelementptr inbounds float, ptr %3, i64 322
  store float 0.000000e+00, ptr %364, align 8, !tbaa !14
  %365 = getelementptr inbounds float, ptr %3, i64 339
  store float 0.000000e+00, ptr %365, align 4, !tbaa !14
  %366 = getelementptr inbounds float, ptr %3, i64 356
  store float 0.000000e+00, ptr %366, align 16, !tbaa !14
  %367 = getelementptr inbounds float, ptr %3, i64 373
  store float 0.000000e+00, ptr %367, align 4, !tbaa !14
  %368 = getelementptr inbounds float, ptr %3, i64 390
  store float 0.000000e+00, ptr %368, align 8, !tbaa !14
  %369 = getelementptr inbounds float, ptr %3, i64 407
  store float 0.000000e+00, ptr %369, align 4, !tbaa !14
  %370 = getelementptr inbounds float, ptr %3, i64 424
  store float 0.000000e+00, ptr %370, align 16, !tbaa !14
  %371 = getelementptr inbounds float, ptr %3, i64 441
  store float 0.000000e+00, ptr %371, align 4, !tbaa !14
  %372 = getelementptr inbounds float, ptr %3, i64 458
  store float 0.000000e+00, ptr %372, align 8, !tbaa !14
  %373 = getelementptr inbounds float, ptr %3, i64 475
  store float 0.000000e+00, ptr %373, align 4, !tbaa !14
  %374 = getelementptr inbounds float, ptr %3, i64 492
  store float 0.000000e+00, ptr %374, align 16, !tbaa !14
  %375 = getelementptr inbounds float, ptr %3, i64 509
  store float 0.000000e+00, ptr %375, align 4, !tbaa !14
  %376 = getelementptr inbounds float, ptr %3, i64 526
  store float 0.000000e+00, ptr %376, align 8, !tbaa !14
  store <4 x float> zeroinitializer, ptr %4, align 16, !tbaa !14
  %377 = getelementptr inbounds float, ptr %4, i64 17
  store <4 x float> zeroinitializer, ptr %377, align 4, !tbaa !14
  %378 = getelementptr inbounds float, ptr %4, i64 34
  store <4 x float> zeroinitializer, ptr %378, align 8, !tbaa !14
  %379 = getelementptr inbounds float, ptr %4, i64 51
  store <4 x float> zeroinitializer, ptr %379, align 4, !tbaa !14
  %380 = getelementptr inbounds float, ptr %4, i64 68
  store <4 x float> zeroinitializer, ptr %380, align 16, !tbaa !14
  %381 = getelementptr inbounds float, ptr %4, i64 85
  store <4 x float> zeroinitializer, ptr %381, align 4, !tbaa !14
  %382 = getelementptr inbounds float, ptr %4, i64 102
  store <4 x float> zeroinitializer, ptr %382, align 8, !tbaa !14
  %383 = getelementptr inbounds float, ptr %4, i64 119
  store <4 x float> zeroinitializer, ptr %383, align 4, !tbaa !14
  %384 = getelementptr inbounds float, ptr %4, i64 136
  store <4 x float> zeroinitializer, ptr %384, align 16, !tbaa !14
  %385 = getelementptr inbounds float, ptr %4, i64 153
  store <4 x float> zeroinitializer, ptr %385, align 4, !tbaa !14
  %386 = getelementptr inbounds float, ptr %4, i64 170
  store <4 x float> zeroinitializer, ptr %386, align 8, !tbaa !14
  %387 = getelementptr inbounds float, ptr %4, i64 187
  store <4 x float> zeroinitializer, ptr %387, align 4, !tbaa !14
  %388 = getelementptr inbounds float, ptr %4, i64 204
  store <4 x float> zeroinitializer, ptr %388, align 16, !tbaa !14
  %389 = getelementptr inbounds float, ptr %4, i64 221
  store <4 x float> zeroinitializer, ptr %389, align 4, !tbaa !14
  %390 = getelementptr inbounds float, ptr %4, i64 238
  store <4 x float> zeroinitializer, ptr %390, align 8, !tbaa !14
  %391 = getelementptr inbounds float, ptr %4, i64 255
  store <4 x float> zeroinitializer, ptr %391, align 4, !tbaa !14
  %392 = getelementptr inbounds float, ptr %4, i64 272
  store <4 x float> zeroinitializer, ptr %392, align 16, !tbaa !14
  %393 = getelementptr inbounds float, ptr %4, i64 289
  store <4 x float> zeroinitializer, ptr %393, align 4, !tbaa !14
  %394 = getelementptr inbounds float, ptr %4, i64 306
  store <4 x float> zeroinitializer, ptr %394, align 8, !tbaa !14
  %395 = getelementptr inbounds float, ptr %4, i64 323
  store <4 x float> zeroinitializer, ptr %395, align 4, !tbaa !14
  %396 = getelementptr inbounds float, ptr %4, i64 340
  store <4 x float> zeroinitializer, ptr %396, align 16, !tbaa !14
  %397 = getelementptr inbounds float, ptr %4, i64 357
  store <4 x float> zeroinitializer, ptr %397, align 4, !tbaa !14
  %398 = getelementptr inbounds float, ptr %4, i64 374
  store <4 x float> zeroinitializer, ptr %398, align 8, !tbaa !14
  %399 = getelementptr inbounds float, ptr %4, i64 391
  store <4 x float> zeroinitializer, ptr %399, align 4, !tbaa !14
  %400 = getelementptr inbounds float, ptr %4, i64 408
  store <4 x float> zeroinitializer, ptr %400, align 16, !tbaa !14
  %401 = getelementptr inbounds float, ptr %4, i64 425
  store <4 x float> zeroinitializer, ptr %401, align 4, !tbaa !14
  %402 = getelementptr inbounds float, ptr %4, i64 442
  store <4 x float> zeroinitializer, ptr %402, align 8, !tbaa !14
  %403 = getelementptr inbounds float, ptr %4, i64 459
  store <4 x float> zeroinitializer, ptr %403, align 4, !tbaa !14
  %404 = getelementptr inbounds float, ptr %4, i64 476
  store <4 x float> zeroinitializer, ptr %404, align 16, !tbaa !14
  %405 = getelementptr inbounds float, ptr %4, i64 493
  store <4 x float> zeroinitializer, ptr %405, align 4, !tbaa !14
  %406 = getelementptr inbounds float, ptr %4, i64 510
  store <4 x float> zeroinitializer, ptr %406, align 8, !tbaa !14
  %407 = getelementptr inbounds float, ptr %4, i64 4
  store <4 x float> zeroinitializer, ptr %407, align 16, !tbaa !14
  %408 = getelementptr inbounds float, ptr %4, i64 21
  store <4 x float> zeroinitializer, ptr %408, align 4, !tbaa !14
  %409 = getelementptr inbounds float, ptr %4, i64 38
  store <4 x float> zeroinitializer, ptr %409, align 8, !tbaa !14
  %410 = getelementptr inbounds float, ptr %4, i64 55
  store <4 x float> zeroinitializer, ptr %410, align 4, !tbaa !14
  %411 = getelementptr inbounds float, ptr %4, i64 72
  store <4 x float> zeroinitializer, ptr %411, align 16, !tbaa !14
  %412 = getelementptr inbounds float, ptr %4, i64 89
  store <4 x float> zeroinitializer, ptr %412, align 4, !tbaa !14
  %413 = getelementptr inbounds float, ptr %4, i64 106
  store <4 x float> zeroinitializer, ptr %413, align 8, !tbaa !14
  %414 = getelementptr inbounds float, ptr %4, i64 123
  store <4 x float> zeroinitializer, ptr %414, align 4, !tbaa !14
  %415 = getelementptr inbounds float, ptr %4, i64 140
  store <4 x float> zeroinitializer, ptr %415, align 16, !tbaa !14
  %416 = getelementptr inbounds float, ptr %4, i64 157
  store <4 x float> zeroinitializer, ptr %416, align 4, !tbaa !14
  %417 = getelementptr inbounds float, ptr %4, i64 174
  store <4 x float> zeroinitializer, ptr %417, align 8, !tbaa !14
  %418 = getelementptr inbounds float, ptr %4, i64 191
  store <4 x float> zeroinitializer, ptr %418, align 4, !tbaa !14
  %419 = getelementptr inbounds float, ptr %4, i64 208
  store <4 x float> zeroinitializer, ptr %419, align 16, !tbaa !14
  %420 = getelementptr inbounds float, ptr %4, i64 225
  store <4 x float> zeroinitializer, ptr %420, align 4, !tbaa !14
  %421 = getelementptr inbounds float, ptr %4, i64 242
  store <4 x float> zeroinitializer, ptr %421, align 8, !tbaa !14
  %422 = getelementptr inbounds float, ptr %4, i64 259
  store <4 x float> zeroinitializer, ptr %422, align 4, !tbaa !14
  %423 = getelementptr inbounds float, ptr %4, i64 276
  store <4 x float> zeroinitializer, ptr %423, align 16, !tbaa !14
  %424 = getelementptr inbounds float, ptr %4, i64 293
  store <4 x float> zeroinitializer, ptr %424, align 4, !tbaa !14
  %425 = getelementptr inbounds float, ptr %4, i64 310
  store <4 x float> zeroinitializer, ptr %425, align 8, !tbaa !14
  %426 = getelementptr inbounds float, ptr %4, i64 327
  store <4 x float> zeroinitializer, ptr %426, align 4, !tbaa !14
  %427 = getelementptr inbounds float, ptr %4, i64 344
  store <4 x float> zeroinitializer, ptr %427, align 16, !tbaa !14
  %428 = getelementptr inbounds float, ptr %4, i64 361
  store <4 x float> zeroinitializer, ptr %428, align 4, !tbaa !14
  %429 = getelementptr inbounds float, ptr %4, i64 378
  store <4 x float> zeroinitializer, ptr %429, align 8, !tbaa !14
  %430 = getelementptr inbounds float, ptr %4, i64 395
  store <4 x float> zeroinitializer, ptr %430, align 4, !tbaa !14
  %431 = getelementptr inbounds float, ptr %4, i64 412
  store <4 x float> zeroinitializer, ptr %431, align 16, !tbaa !14
  %432 = getelementptr inbounds float, ptr %4, i64 429
  store <4 x float> zeroinitializer, ptr %432, align 4, !tbaa !14
  %433 = getelementptr inbounds float, ptr %4, i64 446
  store <4 x float> zeroinitializer, ptr %433, align 8, !tbaa !14
  %434 = getelementptr inbounds float, ptr %4, i64 463
  store <4 x float> zeroinitializer, ptr %434, align 4, !tbaa !14
  %435 = getelementptr inbounds float, ptr %4, i64 480
  store <4 x float> zeroinitializer, ptr %435, align 16, !tbaa !14
  %436 = getelementptr inbounds float, ptr %4, i64 497
  store <4 x float> zeroinitializer, ptr %436, align 4, !tbaa !14
  %437 = getelementptr inbounds float, ptr %4, i64 514
  store <4 x float> zeroinitializer, ptr %437, align 8, !tbaa !14
  %438 = getelementptr inbounds float, ptr %4, i64 8
  store <4 x float> zeroinitializer, ptr %438, align 16, !tbaa !14
  %439 = getelementptr inbounds float, ptr %4, i64 25
  store <4 x float> zeroinitializer, ptr %439, align 4, !tbaa !14
  %440 = getelementptr inbounds float, ptr %4, i64 42
  store <4 x float> zeroinitializer, ptr %440, align 8, !tbaa !14
  %441 = getelementptr inbounds float, ptr %4, i64 59
  store <4 x float> zeroinitializer, ptr %441, align 4, !tbaa !14
  %442 = getelementptr inbounds float, ptr %4, i64 76
  store <4 x float> zeroinitializer, ptr %442, align 16, !tbaa !14
  %443 = getelementptr inbounds float, ptr %4, i64 93
  store <4 x float> zeroinitializer, ptr %443, align 4, !tbaa !14
  %444 = getelementptr inbounds float, ptr %4, i64 110
  store <4 x float> zeroinitializer, ptr %444, align 8, !tbaa !14
  %445 = getelementptr inbounds float, ptr %4, i64 127
  store <4 x float> zeroinitializer, ptr %445, align 4, !tbaa !14
  %446 = getelementptr inbounds float, ptr %4, i64 144
  store <4 x float> zeroinitializer, ptr %446, align 16, !tbaa !14
  %447 = getelementptr inbounds float, ptr %4, i64 161
  store <4 x float> zeroinitializer, ptr %447, align 4, !tbaa !14
  %448 = getelementptr inbounds float, ptr %4, i64 178
  store <4 x float> zeroinitializer, ptr %448, align 8, !tbaa !14
  %449 = getelementptr inbounds float, ptr %4, i64 195
  store <4 x float> zeroinitializer, ptr %449, align 4, !tbaa !14
  %450 = getelementptr inbounds float, ptr %4, i64 212
  store <4 x float> zeroinitializer, ptr %450, align 16, !tbaa !14
  %451 = getelementptr inbounds float, ptr %4, i64 229
  store <4 x float> zeroinitializer, ptr %451, align 4, !tbaa !14
  %452 = getelementptr inbounds float, ptr %4, i64 246
  store <4 x float> zeroinitializer, ptr %452, align 8, !tbaa !14
  %453 = getelementptr inbounds float, ptr %4, i64 263
  store <4 x float> zeroinitializer, ptr %453, align 4, !tbaa !14
  %454 = getelementptr inbounds float, ptr %4, i64 280
  store <4 x float> zeroinitializer, ptr %454, align 16, !tbaa !14
  %455 = getelementptr inbounds float, ptr %4, i64 297
  store <4 x float> zeroinitializer, ptr %455, align 4, !tbaa !14
  %456 = getelementptr inbounds float, ptr %4, i64 314
  store <4 x float> zeroinitializer, ptr %456, align 8, !tbaa !14
  %457 = getelementptr inbounds float, ptr %4, i64 331
  store <4 x float> zeroinitializer, ptr %457, align 4, !tbaa !14
  %458 = getelementptr inbounds float, ptr %4, i64 348
  store <4 x float> zeroinitializer, ptr %458, align 16, !tbaa !14
  %459 = getelementptr inbounds float, ptr %4, i64 365
  store <4 x float> zeroinitializer, ptr %459, align 4, !tbaa !14
  %460 = getelementptr inbounds float, ptr %4, i64 382
  store <4 x float> zeroinitializer, ptr %460, align 8, !tbaa !14
  %461 = getelementptr inbounds float, ptr %4, i64 399
  store <4 x float> zeroinitializer, ptr %461, align 4, !tbaa !14
  %462 = getelementptr inbounds float, ptr %4, i64 416
  store <4 x float> zeroinitializer, ptr %462, align 16, !tbaa !14
  %463 = getelementptr inbounds float, ptr %4, i64 433
  store <4 x float> zeroinitializer, ptr %463, align 4, !tbaa !14
  %464 = getelementptr inbounds float, ptr %4, i64 450
  store <4 x float> zeroinitializer, ptr %464, align 8, !tbaa !14
  %465 = getelementptr inbounds float, ptr %4, i64 467
  store <4 x float> zeroinitializer, ptr %465, align 4, !tbaa !14
  %466 = getelementptr inbounds float, ptr %4, i64 484
  store <4 x float> zeroinitializer, ptr %466, align 16, !tbaa !14
  %467 = getelementptr inbounds float, ptr %4, i64 501
  store <4 x float> zeroinitializer, ptr %467, align 4, !tbaa !14
  %468 = getelementptr inbounds float, ptr %4, i64 518
  store <4 x float> zeroinitializer, ptr %468, align 8, !tbaa !14
  %469 = getelementptr inbounds float, ptr %4, i64 12
  store <4 x float> zeroinitializer, ptr %469, align 16, !tbaa !14
  %470 = getelementptr inbounds float, ptr %4, i64 29
  store <4 x float> zeroinitializer, ptr %470, align 4, !tbaa !14
  %471 = getelementptr inbounds float, ptr %4, i64 46
  store <4 x float> zeroinitializer, ptr %471, align 8, !tbaa !14
  %472 = getelementptr inbounds float, ptr %4, i64 63
  store <4 x float> zeroinitializer, ptr %472, align 4, !tbaa !14
  %473 = getelementptr inbounds float, ptr %4, i64 80
  store <4 x float> zeroinitializer, ptr %473, align 16, !tbaa !14
  %474 = getelementptr inbounds float, ptr %4, i64 97
  store <4 x float> zeroinitializer, ptr %474, align 4, !tbaa !14
  %475 = getelementptr inbounds float, ptr %4, i64 114
  store <4 x float> zeroinitializer, ptr %475, align 8, !tbaa !14
  %476 = getelementptr inbounds float, ptr %4, i64 131
  store <4 x float> zeroinitializer, ptr %476, align 4, !tbaa !14
  %477 = getelementptr inbounds float, ptr %4, i64 148
  store <4 x float> zeroinitializer, ptr %477, align 16, !tbaa !14
  %478 = getelementptr inbounds float, ptr %4, i64 165
  store <4 x float> zeroinitializer, ptr %478, align 4, !tbaa !14
  %479 = getelementptr inbounds float, ptr %4, i64 182
  store <4 x float> zeroinitializer, ptr %479, align 8, !tbaa !14
  %480 = getelementptr inbounds float, ptr %4, i64 199
  store <4 x float> zeroinitializer, ptr %480, align 4, !tbaa !14
  %481 = getelementptr inbounds float, ptr %4, i64 216
  store <4 x float> zeroinitializer, ptr %481, align 16, !tbaa !14
  %482 = getelementptr inbounds float, ptr %4, i64 233
  store <4 x float> zeroinitializer, ptr %482, align 4, !tbaa !14
  %483 = getelementptr inbounds float, ptr %4, i64 250
  store <4 x float> zeroinitializer, ptr %483, align 8, !tbaa !14
  %484 = getelementptr inbounds float, ptr %4, i64 267
  store <4 x float> zeroinitializer, ptr %484, align 4, !tbaa !14
  %485 = getelementptr inbounds float, ptr %4, i64 284
  store <4 x float> zeroinitializer, ptr %485, align 16, !tbaa !14
  %486 = getelementptr inbounds float, ptr %4, i64 301
  store <4 x float> zeroinitializer, ptr %486, align 4, !tbaa !14
  %487 = getelementptr inbounds float, ptr %4, i64 318
  store <4 x float> zeroinitializer, ptr %487, align 8, !tbaa !14
  %488 = getelementptr inbounds float, ptr %4, i64 335
  store <4 x float> zeroinitializer, ptr %488, align 4, !tbaa !14
  %489 = getelementptr inbounds float, ptr %4, i64 352
  store <4 x float> zeroinitializer, ptr %489, align 16, !tbaa !14
  %490 = getelementptr inbounds float, ptr %4, i64 369
  store <4 x float> zeroinitializer, ptr %490, align 4, !tbaa !14
  %491 = getelementptr inbounds float, ptr %4, i64 386
  store <4 x float> zeroinitializer, ptr %491, align 8, !tbaa !14
  %492 = getelementptr inbounds float, ptr %4, i64 403
  store <4 x float> zeroinitializer, ptr %492, align 4, !tbaa !14
  %493 = getelementptr inbounds float, ptr %4, i64 420
  store <4 x float> zeroinitializer, ptr %493, align 16, !tbaa !14
  %494 = getelementptr inbounds float, ptr %4, i64 437
  store <4 x float> zeroinitializer, ptr %494, align 4, !tbaa !14
  %495 = getelementptr inbounds float, ptr %4, i64 454
  store <4 x float> zeroinitializer, ptr %495, align 8, !tbaa !14
  %496 = getelementptr inbounds float, ptr %4, i64 471
  store <4 x float> zeroinitializer, ptr %496, align 4, !tbaa !14
  %497 = getelementptr inbounds float, ptr %4, i64 488
  store <4 x float> zeroinitializer, ptr %497, align 16, !tbaa !14
  %498 = getelementptr inbounds float, ptr %4, i64 505
  store <4 x float> zeroinitializer, ptr %498, align 4, !tbaa !14
  %499 = getelementptr inbounds float, ptr %4, i64 522
  store <4 x float> zeroinitializer, ptr %499, align 8, !tbaa !14
  %500 = getelementptr inbounds float, ptr %4, i64 16
  store float 0.000000e+00, ptr %500, align 16, !tbaa !14
  %501 = getelementptr inbounds float, ptr %4, i64 33
  store float 0.000000e+00, ptr %501, align 4, !tbaa !14
  %502 = getelementptr inbounds float, ptr %4, i64 50
  store float 0.000000e+00, ptr %502, align 8, !tbaa !14
  %503 = getelementptr inbounds float, ptr %4, i64 67
  store float 0.000000e+00, ptr %503, align 4, !tbaa !14
  %504 = getelementptr inbounds float, ptr %4, i64 84
  store float 0.000000e+00, ptr %504, align 16, !tbaa !14
  %505 = getelementptr inbounds float, ptr %4, i64 101
  store float 0.000000e+00, ptr %505, align 4, !tbaa !14
  %506 = getelementptr inbounds float, ptr %4, i64 118
  store float 0.000000e+00, ptr %506, align 8, !tbaa !14
  %507 = getelementptr inbounds float, ptr %4, i64 135
  store float 0.000000e+00, ptr %507, align 4, !tbaa !14
  %508 = getelementptr inbounds float, ptr %4, i64 152
  store float 0.000000e+00, ptr %508, align 16, !tbaa !14
  %509 = getelementptr inbounds float, ptr %4, i64 169
  store float 0.000000e+00, ptr %509, align 4, !tbaa !14
  %510 = getelementptr inbounds float, ptr %4, i64 186
  store float 0.000000e+00, ptr %510, align 8, !tbaa !14
  %511 = getelementptr inbounds float, ptr %4, i64 203
  store float 0.000000e+00, ptr %511, align 4, !tbaa !14
  %512 = getelementptr inbounds float, ptr %4, i64 220
  store float 0.000000e+00, ptr %512, align 16, !tbaa !14
  %513 = getelementptr inbounds float, ptr %4, i64 237
  store float 0.000000e+00, ptr %513, align 4, !tbaa !14
  %514 = getelementptr inbounds float, ptr %4, i64 254
  store float 0.000000e+00, ptr %514, align 8, !tbaa !14
  %515 = getelementptr inbounds float, ptr %4, i64 271
  store float 0.000000e+00, ptr %515, align 4, !tbaa !14
  %516 = getelementptr inbounds float, ptr %4, i64 288
  store float 0.000000e+00, ptr %516, align 16, !tbaa !14
  %517 = getelementptr inbounds float, ptr %4, i64 305
  store float 0.000000e+00, ptr %517, align 4, !tbaa !14
  %518 = getelementptr inbounds float, ptr %4, i64 322
  store float 0.000000e+00, ptr %518, align 8, !tbaa !14
  %519 = getelementptr inbounds float, ptr %4, i64 339
  store float 0.000000e+00, ptr %519, align 4, !tbaa !14
  %520 = getelementptr inbounds float, ptr %4, i64 356
  store float 0.000000e+00, ptr %520, align 16, !tbaa !14
  %521 = getelementptr inbounds float, ptr %4, i64 373
  store float 0.000000e+00, ptr %521, align 4, !tbaa !14
  %522 = getelementptr inbounds float, ptr %4, i64 390
  store float 0.000000e+00, ptr %522, align 8, !tbaa !14
  %523 = getelementptr inbounds float, ptr %4, i64 407
  store float 0.000000e+00, ptr %523, align 4, !tbaa !14
  %524 = getelementptr inbounds float, ptr %4, i64 424
  store float 0.000000e+00, ptr %524, align 16, !tbaa !14
  %525 = getelementptr inbounds float, ptr %4, i64 441
  store float 0.000000e+00, ptr %525, align 4, !tbaa !14
  %526 = getelementptr inbounds float, ptr %4, i64 458
  store float 0.000000e+00, ptr %526, align 8, !tbaa !14
  %527 = getelementptr inbounds float, ptr %4, i64 475
  store float 0.000000e+00, ptr %527, align 4, !tbaa !14
  %528 = getelementptr inbounds float, ptr %4, i64 492
  store float 0.000000e+00, ptr %528, align 16, !tbaa !14
  %529 = getelementptr inbounds float, ptr %4, i64 509
  store float 0.000000e+00, ptr %529, align 4, !tbaa !14
  %530 = getelementptr inbounds float, ptr %4, i64 526
  store float 0.000000e+00, ptr %530, align 8, !tbaa !14
  br label %531

531:                                              ; preds = %68, %531
  %532 = phi i64 [ %617, %531 ], [ 0, %68 ]
  %533 = mul nuw nsw i64 %532, 17
  %534 = getelementptr inbounds float, ptr %1, i64 %532
  %535 = load float, ptr %534, align 4, !tbaa !14
  %536 = getelementptr inbounds float, ptr %2, i64 %533
  store float %535, ptr %536, align 4, !tbaa !14
  %537 = add nuw nsw i64 %532, 31
  %538 = getelementptr inbounds float, ptr %1, i64 %537
  %539 = load float, ptr %538, align 4, !tbaa !14
  %540 = add nuw nsw i64 %533, 1
  %541 = getelementptr inbounds float, ptr %2, i64 %540
  store float %539, ptr %541, align 4, !tbaa !14
  %542 = add nuw nsw i64 %532, 62
  %543 = getelementptr inbounds float, ptr %1, i64 %542
  %544 = load float, ptr %543, align 4, !tbaa !14
  %545 = add nuw nsw i64 %533, 2
  %546 = getelementptr inbounds float, ptr %2, i64 %545
  store float %544, ptr %546, align 4, !tbaa !14
  %547 = add nuw nsw i64 %532, 93
  %548 = getelementptr inbounds float, ptr %1, i64 %547
  %549 = load float, ptr %548, align 4, !tbaa !14
  %550 = add nuw nsw i64 %533, 3
  %551 = getelementptr inbounds float, ptr %2, i64 %550
  store float %549, ptr %551, align 4, !tbaa !14
  %552 = add nuw nsw i64 %532, 124
  %553 = getelementptr inbounds float, ptr %1, i64 %552
  %554 = load float, ptr %553, align 4, !tbaa !14
  %555 = add nuw nsw i64 %533, 4
  %556 = getelementptr inbounds float, ptr %2, i64 %555
  store float %554, ptr %556, align 4, !tbaa !14
  %557 = add nuw nsw i64 %532, 155
  %558 = getelementptr inbounds float, ptr %1, i64 %557
  %559 = load float, ptr %558, align 4, !tbaa !14
  %560 = add nuw nsw i64 %533, 5
  %561 = getelementptr inbounds float, ptr %2, i64 %560
  store float %559, ptr %561, align 4, !tbaa !14
  %562 = add nuw nsw i64 %532, 186
  %563 = getelementptr inbounds float, ptr %1, i64 %562
  %564 = load float, ptr %563, align 4, !tbaa !14
  %565 = add nuw nsw i64 %533, 6
  %566 = getelementptr inbounds float, ptr %2, i64 %565
  store float %564, ptr %566, align 4, !tbaa !14
  %567 = add nuw nsw i64 %532, 217
  %568 = getelementptr inbounds float, ptr %1, i64 %567
  %569 = load float, ptr %568, align 4, !tbaa !14
  %570 = add nuw nsw i64 %533, 7
  %571 = getelementptr inbounds float, ptr %2, i64 %570
  store float %569, ptr %571, align 4, !tbaa !14
  %572 = add nuw nsw i64 %532, 248
  %573 = getelementptr inbounds float, ptr %1, i64 %572
  %574 = load float, ptr %573, align 4, !tbaa !14
  %575 = add nuw nsw i64 %533, 8
  %576 = getelementptr inbounds float, ptr %2, i64 %575
  store float %574, ptr %576, align 4, !tbaa !14
  %577 = add nuw nsw i64 %532, 279
  %578 = getelementptr inbounds float, ptr %1, i64 %577
  %579 = load float, ptr %578, align 4, !tbaa !14
  %580 = add nuw nsw i64 %533, 9
  %581 = getelementptr inbounds float, ptr %2, i64 %580
  store float %579, ptr %581, align 4, !tbaa !14
  %582 = add nuw nsw i64 %532, 310
  %583 = getelementptr inbounds float, ptr %1, i64 %582
  %584 = load float, ptr %583, align 4, !tbaa !14
  %585 = add nuw nsw i64 %533, 10
  %586 = getelementptr inbounds float, ptr %2, i64 %585
  store float %584, ptr %586, align 4, !tbaa !14
  %587 = add nuw nsw i64 %532, 341
  %588 = getelementptr inbounds float, ptr %1, i64 %587
  %589 = load float, ptr %588, align 4, !tbaa !14
  %590 = add nuw nsw i64 %533, 11
  %591 = getelementptr inbounds float, ptr %2, i64 %590
  store float %589, ptr %591, align 4, !tbaa !14
  %592 = add nuw nsw i64 %532, 372
  %593 = getelementptr inbounds float, ptr %1, i64 %592
  %594 = load float, ptr %593, align 4, !tbaa !14
  %595 = add nuw nsw i64 %533, 12
  %596 = getelementptr inbounds float, ptr %2, i64 %595
  store float %594, ptr %596, align 4, !tbaa !14
  %597 = add nuw nsw i64 %532, 403
  %598 = getelementptr inbounds float, ptr %1, i64 %597
  %599 = load float, ptr %598, align 4, !tbaa !14
  %600 = add nuw nsw i64 %533, 13
  %601 = getelementptr inbounds float, ptr %2, i64 %600
  store float %599, ptr %601, align 4, !tbaa !14
  %602 = add nuw nsw i64 %532, 434
  %603 = getelementptr inbounds float, ptr %1, i64 %602
  %604 = load float, ptr %603, align 4, !tbaa !14
  %605 = add nuw nsw i64 %533, 14
  %606 = getelementptr inbounds float, ptr %2, i64 %605
  store float %604, ptr %606, align 4, !tbaa !14
  %607 = add nuw nsw i64 %532, 465
  %608 = getelementptr inbounds float, ptr %1, i64 %607
  %609 = load float, ptr %608, align 4, !tbaa !14
  %610 = add nuw nsw i64 %533, 15
  %611 = getelementptr inbounds float, ptr %2, i64 %610
  store float %609, ptr %611, align 4, !tbaa !14
  %612 = add nuw nsw i64 %532, 496
  %613 = getelementptr inbounds float, ptr %1, i64 %612
  %614 = load float, ptr %613, align 4, !tbaa !14
  %615 = add nuw nsw i64 %533, 16
  %616 = getelementptr inbounds float, ptr %2, i64 %615
  store float %614, ptr %616, align 4, !tbaa !14
  %617 = add nuw nsw i64 %532, 1
  %618 = icmp eq i64 %617, 31
  br i1 %618, label %619, label %531, !llvm.loop !17

619:                                              ; preds = %531
  call void @_Z13transposeSpecIfLj31ELj17EEvPT_S1_(ptr noundef nonnull %3, ptr noundef nonnull %1)
  %620 = load <31 x float>, ptr %1, align 16
  %621 = getelementptr inbounds float, ptr %1, i64 31
  %622 = load <31 x float>, ptr %621, align 4
  %623 = getelementptr inbounds float, ptr %1, i64 62
  %624 = load <31 x float>, ptr %623, align 8
  %625 = getelementptr inbounds float, ptr %1, i64 93
  %626 = load <31 x float>, ptr %625, align 4
  %627 = getelementptr inbounds float, ptr %1, i64 124
  %628 = load <31 x float>, ptr %627, align 16
  %629 = getelementptr inbounds float, ptr %1, i64 155
  %630 = load <31 x float>, ptr %629, align 4
  %631 = getelementptr inbounds float, ptr %1, i64 186
  %632 = load <31 x float>, ptr %631, align 8
  %633 = getelementptr inbounds float, ptr %1, i64 217
  %634 = load <31 x float>, ptr %633, align 4
  %635 = getelementptr inbounds float, ptr %1, i64 248
  %636 = load <31 x float>, ptr %635, align 16
  %637 = getelementptr inbounds float, ptr %1, i64 279
  %638 = load <31 x float>, ptr %637, align 4
  %639 = getelementptr inbounds float, ptr %1, i64 310
  %640 = load <31 x float>, ptr %639, align 8
  %641 = getelementptr inbounds float, ptr %1, i64 341
  %642 = load <31 x float>, ptr %641, align 4
  %643 = getelementptr inbounds float, ptr %1, i64 372
  %644 = load <31 x float>, ptr %643, align 16
  %645 = getelementptr inbounds float, ptr %1, i64 403
  %646 = load <31 x float>, ptr %645, align 4
  %647 = getelementptr inbounds float, ptr %1, i64 434
  %648 = load <31 x float>, ptr %647, align 8
  %649 = getelementptr inbounds float, ptr %1, i64 465
  %650 = load <31 x float>, ptr %649, align 4
  %651 = getelementptr inbounds float, ptr %1, i64 496
  %652 = load <31 x float>, ptr %651, align 16
  %653 = extractelement <31 x float> %620, i64 0
  %654 = insertelement <17 x float> poison, float %653, i64 0
  %655 = extractelement <31 x float> %622, i64 0
  %656 = insertelement <17 x float> %654, float %655, i64 1
  %657 = extractelement <31 x float> %624, i64 0
  %658 = insertelement <17 x float> %656, float %657, i64 2
  %659 = extractelement <31 x float> %626, i64 0
  %660 = insertelement <17 x float> %658, float %659, i64 3
  %661 = extractelement <31 x float> %628, i64 0
  %662 = insertelement <17 x float> %660, float %661, i64 4
  %663 = extractelement <31 x float> %630, i64 0
  %664 = insertelement <17 x float> %662, float %663, i64 5
  %665 = extractelement <31 x float> %632, i64 0
  %666 = insertelement <17 x float> %664, float %665, i64 6
  %667 = extractelement <31 x float> %634, i64 0
  %668 = insertelement <17 x float> %666, float %667, i64 7
  %669 = extractelement <31 x float> %636, i64 0
  %670 = insertelement <17 x float> %668, float %669, i64 8
  %671 = extractelement <31 x float> %638, i64 0
  %672 = insertelement <17 x float> %670, float %671, i64 9
  %673 = extractelement <31 x float> %640, i64 0
  %674 = insertelement <17 x float> %672, float %673, i64 10
  %675 = extractelement <31 x float> %642, i64 0
  %676 = insertelement <17 x float> %674, float %675, i64 11
  %677 = extractelement <31 x float> %644, i64 0
  %678 = insertelement <17 x float> %676, float %677, i64 12
  %679 = extractelement <31 x float> %646, i64 0
  %680 = insertelement <17 x float> %678, float %679, i64 13
  %681 = extractelement <31 x float> %648, i64 0
  %682 = insertelement <17 x float> %680, float %681, i64 14
  %683 = extractelement <31 x float> %650, i64 0
  %684 = insertelement <17 x float> %682, float %683, i64 15
  %685 = extractelement <31 x float> %652, i64 0
  %686 = insertelement <17 x float> %684, float %685, i64 16
  %687 = extractelement <31 x float> %620, i64 1
  %688 = insertelement <17 x float> poison, float %687, i64 0
  %689 = extractelement <31 x float> %622, i64 1
  %690 = insertelement <17 x float> %688, float %689, i64 1
  %691 = extractelement <31 x float> %624, i64 1
  %692 = insertelement <17 x float> %690, float %691, i64 2
  %693 = extractelement <31 x float> %626, i64 1
  %694 = insertelement <17 x float> %692, float %693, i64 3
  %695 = extractelement <31 x float> %628, i64 1
  %696 = insertelement <17 x float> %694, float %695, i64 4
  %697 = extractelement <31 x float> %630, i64 1
  %698 = insertelement <17 x float> %696, float %697, i64 5
  %699 = extractelement <31 x float> %632, i64 1
  %700 = insertelement <17 x float> %698, float %699, i64 6
  %701 = extractelement <31 x float> %634, i64 1
  %702 = insertelement <17 x float> %700, float %701, i64 7
  %703 = extractelement <31 x float> %636, i64 1
  %704 = insertelement <17 x float> %702, float %703, i64 8
  %705 = extractelement <31 x float> %638, i64 1
  %706 = insertelement <17 x float> %704, float %705, i64 9
  %707 = extractelement <31 x float> %640, i64 1
  %708 = insertelement <17 x float> %706, float %707, i64 10
  %709 = extractelement <31 x float> %642, i64 1
  %710 = insertelement <17 x float> %708, float %709, i64 11
  %711 = extractelement <31 x float> %644, i64 1
  %712 = insertelement <17 x float> %710, float %711, i64 12
  %713 = extractelement <31 x float> %646, i64 1
  %714 = insertelement <17 x float> %712, float %713, i64 13
  %715 = extractelement <31 x float> %648, i64 1
  %716 = insertelement <17 x float> %714, float %715, i64 14
  %717 = extractelement <31 x float> %650, i64 1
  %718 = insertelement <17 x float> %716, float %717, i64 15
  %719 = extractelement <31 x float> %652, i64 1
  %720 = insertelement <17 x float> %718, float %719, i64 16
  %721 = extractelement <31 x float> %620, i64 2
  %722 = insertelement <17 x float> poison, float %721, i64 0
  %723 = extractelement <31 x float> %622, i64 2
  %724 = insertelement <17 x float> %722, float %723, i64 1
  %725 = extractelement <31 x float> %624, i64 2
  %726 = insertelement <17 x float> %724, float %725, i64 2
  %727 = extractelement <31 x float> %626, i64 2
  %728 = insertelement <17 x float> %726, float %727, i64 3
  %729 = extractelement <31 x float> %628, i64 2
  %730 = insertelement <17 x float> %728, float %729, i64 4
  %731 = extractelement <31 x float> %630, i64 2
  %732 = insertelement <17 x float> %730, float %731, i64 5
  %733 = extractelement <31 x float> %632, i64 2
  %734 = insertelement <17 x float> %732, float %733, i64 6
  %735 = extractelement <31 x float> %634, i64 2
  %736 = insertelement <17 x float> %734, float %735, i64 7
  %737 = extractelement <31 x float> %636, i64 2
  %738 = insertelement <17 x float> %736, float %737, i64 8
  %739 = extractelement <31 x float> %638, i64 2
  %740 = insertelement <17 x float> %738, float %739, i64 9
  %741 = extractelement <31 x float> %640, i64 2
  %742 = insertelement <17 x float> %740, float %741, i64 10
  %743 = extractelement <31 x float> %642, i64 2
  %744 = insertelement <17 x float> %742, float %743, i64 11
  %745 = extractelement <31 x float> %644, i64 2
  %746 = insertelement <17 x float> %744, float %745, i64 12
  %747 = extractelement <31 x float> %646, i64 2
  %748 = insertelement <17 x float> %746, float %747, i64 13
  %749 = extractelement <31 x float> %648, i64 2
  %750 = insertelement <17 x float> %748, float %749, i64 14
  %751 = extractelement <31 x float> %650, i64 2
  %752 = insertelement <17 x float> %750, float %751, i64 15
  %753 = extractelement <31 x float> %652, i64 2
  %754 = insertelement <17 x float> %752, float %753, i64 16
  %755 = extractelement <31 x float> %620, i64 3
  %756 = insertelement <17 x float> poison, float %755, i64 0
  %757 = extractelement <31 x float> %622, i64 3
  %758 = insertelement <17 x float> %756, float %757, i64 1
  %759 = extractelement <31 x float> %624, i64 3
  %760 = insertelement <17 x float> %758, float %759, i64 2
  %761 = extractelement <31 x float> %626, i64 3
  %762 = insertelement <17 x float> %760, float %761, i64 3
  %763 = extractelement <31 x float> %628, i64 3
  %764 = insertelement <17 x float> %762, float %763, i64 4
  %765 = extractelement <31 x float> %630, i64 3
  %766 = insertelement <17 x float> %764, float %765, i64 5
  %767 = extractelement <31 x float> %632, i64 3
  %768 = insertelement <17 x float> %766, float %767, i64 6
  %769 = extractelement <31 x float> %634, i64 3
  %770 = insertelement <17 x float> %768, float %769, i64 7
  %771 = extractelement <31 x float> %636, i64 3
  %772 = insertelement <17 x float> %770, float %771, i64 8
  %773 = extractelement <31 x float> %638, i64 3
  %774 = insertelement <17 x float> %772, float %773, i64 9
  %775 = extractelement <31 x float> %640, i64 3
  %776 = insertelement <17 x float> %774, float %775, i64 10
  %777 = extractelement <31 x float> %642, i64 3
  %778 = insertelement <17 x float> %776, float %777, i64 11
  %779 = extractelement <31 x float> %644, i64 3
  %780 = insertelement <17 x float> %778, float %779, i64 12
  %781 = extractelement <31 x float> %646, i64 3
  %782 = insertelement <17 x float> %780, float %781, i64 13
  %783 = extractelement <31 x float> %648, i64 3
  %784 = insertelement <17 x float> %782, float %783, i64 14
  %785 = extractelement <31 x float> %650, i64 3
  %786 = insertelement <17 x float> %784, float %785, i64 15
  %787 = extractelement <31 x float> %652, i64 3
  %788 = insertelement <17 x float> %786, float %787, i64 16
  %789 = extractelement <31 x float> %620, i64 4
  %790 = insertelement <17 x float> poison, float %789, i64 0
  %791 = extractelement <31 x float> %622, i64 4
  %792 = insertelement <17 x float> %790, float %791, i64 1
  %793 = extractelement <31 x float> %624, i64 4
  %794 = insertelement <17 x float> %792, float %793, i64 2
  %795 = extractelement <31 x float> %626, i64 4
  %796 = insertelement <17 x float> %794, float %795, i64 3
  %797 = extractelement <31 x float> %628, i64 4
  %798 = insertelement <17 x float> %796, float %797, i64 4
  %799 = extractelement <31 x float> %630, i64 4
  %800 = insertelement <17 x float> %798, float %799, i64 5
  %801 = extractelement <31 x float> %632, i64 4
  %802 = insertelement <17 x float> %800, float %801, i64 6
  %803 = extractelement <31 x float> %634, i64 4
  %804 = insertelement <17 x float> %802, float %803, i64 7
  %805 = extractelement <31 x float> %636, i64 4
  %806 = insertelement <17 x float> %804, float %805, i64 8
  %807 = extractelement <31 x float> %638, i64 4
  %808 = insertelement <17 x float> %806, float %807, i64 9
  %809 = extractelement <31 x float> %640, i64 4
  %810 = insertelement <17 x float> %808, float %809, i64 10
  %811 = extractelement <31 x float> %642, i64 4
  %812 = insertelement <17 x float> %810, float %811, i64 11
  %813 = extractelement <31 x float> %644, i64 4
  %814 = insertelement <17 x float> %812, float %813, i64 12
  %815 = extractelement <31 x float> %646, i64 4
  %816 = insertelement <17 x float> %814, float %815, i64 13
  %817 = extractelement <31 x float> %648, i64 4
  %818 = insertelement <17 x float> %816, float %817, i64 14
  %819 = extractelement <31 x float> %650, i64 4
  %820 = insertelement <17 x float> %818, float %819, i64 15
  %821 = extractelement <31 x float> %652, i64 4
  %822 = insertelement <17 x float> %820, float %821, i64 16
  %823 = extractelement <31 x float> %620, i64 5
  %824 = insertelement <17 x float> poison, float %823, i64 0
  %825 = extractelement <31 x float> %622, i64 5
  %826 = insertelement <17 x float> %824, float %825, i64 1
  %827 = extractelement <31 x float> %624, i64 5
  %828 = insertelement <17 x float> %826, float %827, i64 2
  %829 = extractelement <31 x float> %626, i64 5
  %830 = insertelement <17 x float> %828, float %829, i64 3
  %831 = extractelement <31 x float> %628, i64 5
  %832 = insertelement <17 x float> %830, float %831, i64 4
  %833 = extractelement <31 x float> %630, i64 5
  %834 = insertelement <17 x float> %832, float %833, i64 5
  %835 = extractelement <31 x float> %632, i64 5
  %836 = insertelement <17 x float> %834, float %835, i64 6
  %837 = extractelement <31 x float> %634, i64 5
  %838 = insertelement <17 x float> %836, float %837, i64 7
  %839 = extractelement <31 x float> %636, i64 5
  %840 = insertelement <17 x float> %838, float %839, i64 8
  %841 = extractelement <31 x float> %638, i64 5
  %842 = insertelement <17 x float> %840, float %841, i64 9
  %843 = extractelement <31 x float> %640, i64 5
  %844 = insertelement <17 x float> %842, float %843, i64 10
  %845 = extractelement <31 x float> %642, i64 5
  %846 = insertelement <17 x float> %844, float %845, i64 11
  %847 = extractelement <31 x float> %644, i64 5
  %848 = insertelement <17 x float> %846, float %847, i64 12
  %849 = extractelement <31 x float> %646, i64 5
  %850 = insertelement <17 x float> %848, float %849, i64 13
  %851 = extractelement <31 x float> %648, i64 5
  %852 = insertelement <17 x float> %850, float %851, i64 14
  %853 = extractelement <31 x float> %650, i64 5
  %854 = insertelement <17 x float> %852, float %853, i64 15
  %855 = extractelement <31 x float> %652, i64 5
  %856 = insertelement <17 x float> %854, float %855, i64 16
  %857 = extractelement <31 x float> %620, i64 6
  %858 = insertelement <17 x float> poison, float %857, i64 0
  %859 = extractelement <31 x float> %622, i64 6
  %860 = insertelement <17 x float> %858, float %859, i64 1
  %861 = extractelement <31 x float> %624, i64 6
  %862 = insertelement <17 x float> %860, float %861, i64 2
  %863 = extractelement <31 x float> %626, i64 6
  %864 = insertelement <17 x float> %862, float %863, i64 3
  %865 = extractelement <31 x float> %628, i64 6
  %866 = insertelement <17 x float> %864, float %865, i64 4
  %867 = extractelement <31 x float> %630, i64 6
  %868 = insertelement <17 x float> %866, float %867, i64 5
  %869 = extractelement <31 x float> %632, i64 6
  %870 = insertelement <17 x float> %868, float %869, i64 6
  %871 = extractelement <31 x float> %634, i64 6
  %872 = insertelement <17 x float> %870, float %871, i64 7
  %873 = extractelement <31 x float> %636, i64 6
  %874 = insertelement <17 x float> %872, float %873, i64 8
  %875 = extractelement <31 x float> %638, i64 6
  %876 = insertelement <17 x float> %874, float %875, i64 9
  %877 = extractelement <31 x float> %640, i64 6
  %878 = insertelement <17 x float> %876, float %877, i64 10
  %879 = extractelement <31 x float> %642, i64 6
  %880 = insertelement <17 x float> %878, float %879, i64 11
  %881 = extractelement <31 x float> %644, i64 6
  %882 = insertelement <17 x float> %880, float %881, i64 12
  %883 = extractelement <31 x float> %646, i64 6
  %884 = insertelement <17 x float> %882, float %883, i64 13
  %885 = extractelement <31 x float> %648, i64 6
  %886 = insertelement <17 x float> %884, float %885, i64 14
  %887 = extractelement <31 x float> %650, i64 6
  %888 = insertelement <17 x float> %886, float %887, i64 15
  %889 = extractelement <31 x float> %652, i64 6
  %890 = insertelement <17 x float> %888, float %889, i64 16
  %891 = extractelement <31 x float> %620, i64 7
  %892 = insertelement <17 x float> poison, float %891, i64 0
  %893 = extractelement <31 x float> %622, i64 7
  %894 = insertelement <17 x float> %892, float %893, i64 1
  %895 = extractelement <31 x float> %624, i64 7
  %896 = insertelement <17 x float> %894, float %895, i64 2
  %897 = extractelement <31 x float> %626, i64 7
  %898 = insertelement <17 x float> %896, float %897, i64 3
  %899 = extractelement <31 x float> %628, i64 7
  %900 = insertelement <17 x float> %898, float %899, i64 4
  %901 = extractelement <31 x float> %630, i64 7
  %902 = insertelement <17 x float> %900, float %901, i64 5
  %903 = extractelement <31 x float> %632, i64 7
  %904 = insertelement <17 x float> %902, float %903, i64 6
  %905 = extractelement <31 x float> %634, i64 7
  %906 = insertelement <17 x float> %904, float %905, i64 7
  %907 = extractelement <31 x float> %636, i64 7
  %908 = insertelement <17 x float> %906, float %907, i64 8
  %909 = extractelement <31 x float> %638, i64 7
  %910 = insertelement <17 x float> %908, float %909, i64 9
  %911 = extractelement <31 x float> %640, i64 7
  %912 = insertelement <17 x float> %910, float %911, i64 10
  %913 = extractelement <31 x float> %642, i64 7
  %914 = insertelement <17 x float> %912, float %913, i64 11
  %915 = extractelement <31 x float> %644, i64 7
  %916 = insertelement <17 x float> %914, float %915, i64 12
  %917 = extractelement <31 x float> %646, i64 7
  %918 = insertelement <17 x float> %916, float %917, i64 13
  %919 = extractelement <31 x float> %648, i64 7
  %920 = insertelement <17 x float> %918, float %919, i64 14
  %921 = extractelement <31 x float> %650, i64 7
  %922 = insertelement <17 x float> %920, float %921, i64 15
  %923 = extractelement <31 x float> %652, i64 7
  %924 = insertelement <17 x float> %922, float %923, i64 16
  %925 = extractelement <31 x float> %620, i64 8
  %926 = insertelement <17 x float> poison, float %925, i64 0
  %927 = extractelement <31 x float> %622, i64 8
  %928 = insertelement <17 x float> %926, float %927, i64 1
  %929 = extractelement <31 x float> %624, i64 8
  %930 = insertelement <17 x float> %928, float %929, i64 2
  %931 = extractelement <31 x float> %626, i64 8
  %932 = insertelement <17 x float> %930, float %931, i64 3
  %933 = extractelement <31 x float> %628, i64 8
  %934 = insertelement <17 x float> %932, float %933, i64 4
  %935 = extractelement <31 x float> %630, i64 8
  %936 = insertelement <17 x float> %934, float %935, i64 5
  %937 = extractelement <31 x float> %632, i64 8
  %938 = insertelement <17 x float> %936, float %937, i64 6
  %939 = extractelement <31 x float> %634, i64 8
  %940 = insertelement <17 x float> %938, float %939, i64 7
  %941 = extractelement <31 x float> %636, i64 8
  %942 = insertelement <17 x float> %940, float %941, i64 8
  %943 = extractelement <31 x float> %638, i64 8
  %944 = insertelement <17 x float> %942, float %943, i64 9
  %945 = extractelement <31 x float> %640, i64 8
  %946 = insertelement <17 x float> %944, float %945, i64 10
  %947 = extractelement <31 x float> %642, i64 8
  %948 = insertelement <17 x float> %946, float %947, i64 11
  %949 = extractelement <31 x float> %644, i64 8
  %950 = insertelement <17 x float> %948, float %949, i64 12
  %951 = extractelement <31 x float> %646, i64 8
  %952 = insertelement <17 x float> %950, float %951, i64 13
  %953 = extractelement <31 x float> %648, i64 8
  %954 = insertelement <17 x float> %952, float %953, i64 14
  %955 = extractelement <31 x float> %650, i64 8
  %956 = insertelement <17 x float> %954, float %955, i64 15
  %957 = extractelement <31 x float> %652, i64 8
  %958 = insertelement <17 x float> %956, float %957, i64 16
  %959 = extractelement <31 x float> %620, i64 9
  %960 = insertelement <17 x float> poison, float %959, i64 0
  %961 = extractelement <31 x float> %622, i64 9
  %962 = insertelement <17 x float> %960, float %961, i64 1
  %963 = extractelement <31 x float> %624, i64 9
  %964 = insertelement <17 x float> %962, float %963, i64 2
  %965 = extractelement <31 x float> %626, i64 9
  %966 = insertelement <17 x float> %964, float %965, i64 3
  %967 = extractelement <31 x float> %628, i64 9
  %968 = insertelement <17 x float> %966, float %967, i64 4
  %969 = extractelement <31 x float> %630, i64 9
  %970 = insertelement <17 x float> %968, float %969, i64 5
  %971 = extractelement <31 x float> %632, i64 9
  %972 = insertelement <17 x float> %970, float %971, i64 6
  %973 = extractelement <31 x float> %634, i64 9
  %974 = insertelement <17 x float> %972, float %973, i64 7
  %975 = extractelement <31 x float> %636, i64 9
  %976 = insertelement <17 x float> %974, float %975, i64 8
  %977 = extractelement <31 x float> %638, i64 9
  %978 = insertelement <17 x float> %976, float %977, i64 9
  %979 = extractelement <31 x float> %640, i64 9
  %980 = insertelement <17 x float> %978, float %979, i64 10
  %981 = extractelement <31 x float> %642, i64 9
  %982 = insertelement <17 x float> %980, float %981, i64 11
  %983 = extractelement <31 x float> %644, i64 9
  %984 = insertelement <17 x float> %982, float %983, i64 12
  %985 = extractelement <31 x float> %646, i64 9
  %986 = insertelement <17 x float> %984, float %985, i64 13
  %987 = extractelement <31 x float> %648, i64 9
  %988 = insertelement <17 x float> %986, float %987, i64 14
  %989 = extractelement <31 x float> %650, i64 9
  %990 = insertelement <17 x float> %988, float %989, i64 15
  %991 = extractelement <31 x float> %652, i64 9
  %992 = insertelement <17 x float> %990, float %991, i64 16
  %993 = extractelement <31 x float> %620, i64 10
  %994 = insertelement <17 x float> poison, float %993, i64 0
  %995 = extractelement <31 x float> %622, i64 10
  %996 = insertelement <17 x float> %994, float %995, i64 1
  %997 = extractelement <31 x float> %624, i64 10
  %998 = insertelement <17 x float> %996, float %997, i64 2
  %999 = extractelement <31 x float> %626, i64 10
  %1000 = insertelement <17 x float> %998, float %999, i64 3
  %1001 = extractelement <31 x float> %628, i64 10
  %1002 = insertelement <17 x float> %1000, float %1001, i64 4
  %1003 = extractelement <31 x float> %630, i64 10
  %1004 = insertelement <17 x float> %1002, float %1003, i64 5
  %1005 = extractelement <31 x float> %632, i64 10
  %1006 = insertelement <17 x float> %1004, float %1005, i64 6
  %1007 = extractelement <31 x float> %634, i64 10
  %1008 = insertelement <17 x float> %1006, float %1007, i64 7
  %1009 = extractelement <31 x float> %636, i64 10
  %1010 = insertelement <17 x float> %1008, float %1009, i64 8
  %1011 = extractelement <31 x float> %638, i64 10
  %1012 = insertelement <17 x float> %1010, float %1011, i64 9
  %1013 = extractelement <31 x float> %640, i64 10
  %1014 = insertelement <17 x float> %1012, float %1013, i64 10
  %1015 = extractelement <31 x float> %642, i64 10
  %1016 = insertelement <17 x float> %1014, float %1015, i64 11
  %1017 = extractelement <31 x float> %644, i64 10
  %1018 = insertelement <17 x float> %1016, float %1017, i64 12
  %1019 = extractelement <31 x float> %646, i64 10
  %1020 = insertelement <17 x float> %1018, float %1019, i64 13
  %1021 = extractelement <31 x float> %648, i64 10
  %1022 = insertelement <17 x float> %1020, float %1021, i64 14
  %1023 = extractelement <31 x float> %650, i64 10
  %1024 = insertelement <17 x float> %1022, float %1023, i64 15
  %1025 = extractelement <31 x float> %652, i64 10
  %1026 = insertelement <17 x float> %1024, float %1025, i64 16
  %1027 = extractelement <31 x float> %620, i64 11
  %1028 = insertelement <17 x float> poison, float %1027, i64 0
  %1029 = extractelement <31 x float> %622, i64 11
  %1030 = insertelement <17 x float> %1028, float %1029, i64 1
  %1031 = extractelement <31 x float> %624, i64 11
  %1032 = insertelement <17 x float> %1030, float %1031, i64 2
  %1033 = extractelement <31 x float> %626, i64 11
  %1034 = insertelement <17 x float> %1032, float %1033, i64 3
  %1035 = extractelement <31 x float> %628, i64 11
  %1036 = insertelement <17 x float> %1034, float %1035, i64 4
  %1037 = extractelement <31 x float> %630, i64 11
  %1038 = insertelement <17 x float> %1036, float %1037, i64 5
  %1039 = extractelement <31 x float> %632, i64 11
  %1040 = insertelement <17 x float> %1038, float %1039, i64 6
  %1041 = extractelement <31 x float> %634, i64 11
  %1042 = insertelement <17 x float> %1040, float %1041, i64 7
  %1043 = extractelement <31 x float> %636, i64 11
  %1044 = insertelement <17 x float> %1042, float %1043, i64 8
  %1045 = extractelement <31 x float> %638, i64 11
  %1046 = insertelement <17 x float> %1044, float %1045, i64 9
  %1047 = extractelement <31 x float> %640, i64 11
  %1048 = insertelement <17 x float> %1046, float %1047, i64 10
  %1049 = extractelement <31 x float> %642, i64 11
  %1050 = insertelement <17 x float> %1048, float %1049, i64 11
  %1051 = extractelement <31 x float> %644, i64 11
  %1052 = insertelement <17 x float> %1050, float %1051, i64 12
  %1053 = extractelement <31 x float> %646, i64 11
  %1054 = insertelement <17 x float> %1052, float %1053, i64 13
  %1055 = extractelement <31 x float> %648, i64 11
  %1056 = insertelement <17 x float> %1054, float %1055, i64 14
  %1057 = extractelement <31 x float> %650, i64 11
  %1058 = insertelement <17 x float> %1056, float %1057, i64 15
  %1059 = extractelement <31 x float> %652, i64 11
  %1060 = insertelement <17 x float> %1058, float %1059, i64 16
  %1061 = extractelement <31 x float> %620, i64 12
  %1062 = insertelement <17 x float> poison, float %1061, i64 0
  %1063 = extractelement <31 x float> %622, i64 12
  %1064 = insertelement <17 x float> %1062, float %1063, i64 1
  %1065 = extractelement <31 x float> %624, i64 12
  %1066 = insertelement <17 x float> %1064, float %1065, i64 2
  %1067 = extractelement <31 x float> %626, i64 12
  %1068 = insertelement <17 x float> %1066, float %1067, i64 3
  %1069 = extractelement <31 x float> %628, i64 12
  %1070 = insertelement <17 x float> %1068, float %1069, i64 4
  %1071 = extractelement <31 x float> %630, i64 12
  %1072 = insertelement <17 x float> %1070, float %1071, i64 5
  %1073 = extractelement <31 x float> %632, i64 12
  %1074 = insertelement <17 x float> %1072, float %1073, i64 6
  %1075 = extractelement <31 x float> %634, i64 12
  %1076 = insertelement <17 x float> %1074, float %1075, i64 7
  %1077 = extractelement <31 x float> %636, i64 12
  %1078 = insertelement <17 x float> %1076, float %1077, i64 8
  %1079 = extractelement <31 x float> %638, i64 12
  %1080 = insertelement <17 x float> %1078, float %1079, i64 9
  %1081 = extractelement <31 x float> %640, i64 12
  %1082 = insertelement <17 x float> %1080, float %1081, i64 10
  %1083 = extractelement <31 x float> %642, i64 12
  %1084 = insertelement <17 x float> %1082, float %1083, i64 11
  %1085 = extractelement <31 x float> %644, i64 12
  %1086 = insertelement <17 x float> %1084, float %1085, i64 12
  %1087 = extractelement <31 x float> %646, i64 12
  %1088 = insertelement <17 x float> %1086, float %1087, i64 13
  %1089 = extractelement <31 x float> %648, i64 12
  %1090 = insertelement <17 x float> %1088, float %1089, i64 14
  %1091 = extractelement <31 x float> %650, i64 12
  %1092 = insertelement <17 x float> %1090, float %1091, i64 15
  %1093 = extractelement <31 x float> %652, i64 12
  %1094 = insertelement <17 x float> %1092, float %1093, i64 16
  %1095 = extractelement <31 x float> %620, i64 13
  %1096 = insertelement <17 x float> poison, float %1095, i64 0
  %1097 = extractelement <31 x float> %622, i64 13
  %1098 = insertelement <17 x float> %1096, float %1097, i64 1
  %1099 = extractelement <31 x float> %624, i64 13
  %1100 = insertelement <17 x float> %1098, float %1099, i64 2
  %1101 = extractelement <31 x float> %626, i64 13
  %1102 = insertelement <17 x float> %1100, float %1101, i64 3
  %1103 = extractelement <31 x float> %628, i64 13
  %1104 = insertelement <17 x float> %1102, float %1103, i64 4
  %1105 = extractelement <31 x float> %630, i64 13
  %1106 = insertelement <17 x float> %1104, float %1105, i64 5
  %1107 = extractelement <31 x float> %632, i64 13
  %1108 = insertelement <17 x float> %1106, float %1107, i64 6
  %1109 = extractelement <31 x float> %634, i64 13
  %1110 = insertelement <17 x float> %1108, float %1109, i64 7
  %1111 = extractelement <31 x float> %636, i64 13
  %1112 = insertelement <17 x float> %1110, float %1111, i64 8
  %1113 = extractelement <31 x float> %638, i64 13
  %1114 = insertelement <17 x float> %1112, float %1113, i64 9
  %1115 = extractelement <31 x float> %640, i64 13
  %1116 = insertelement <17 x float> %1114, float %1115, i64 10
  %1117 = extractelement <31 x float> %642, i64 13
  %1118 = insertelement <17 x float> %1116, float %1117, i64 11
  %1119 = extractelement <31 x float> %644, i64 13
  %1120 = insertelement <17 x float> %1118, float %1119, i64 12
  %1121 = extractelement <31 x float> %646, i64 13
  %1122 = insertelement <17 x float> %1120, float %1121, i64 13
  %1123 = extractelement <31 x float> %648, i64 13
  %1124 = insertelement <17 x float> %1122, float %1123, i64 14
  %1125 = extractelement <31 x float> %650, i64 13
  %1126 = insertelement <17 x float> %1124, float %1125, i64 15
  %1127 = extractelement <31 x float> %652, i64 13
  %1128 = insertelement <17 x float> %1126, float %1127, i64 16
  %1129 = extractelement <31 x float> %620, i64 14
  %1130 = insertelement <17 x float> poison, float %1129, i64 0
  %1131 = extractelement <31 x float> %622, i64 14
  %1132 = insertelement <17 x float> %1130, float %1131, i64 1
  %1133 = extractelement <31 x float> %624, i64 14
  %1134 = insertelement <17 x float> %1132, float %1133, i64 2
  %1135 = extractelement <31 x float> %626, i64 14
  %1136 = insertelement <17 x float> %1134, float %1135, i64 3
  %1137 = extractelement <31 x float> %628, i64 14
  %1138 = insertelement <17 x float> %1136, float %1137, i64 4
  %1139 = extractelement <31 x float> %630, i64 14
  %1140 = insertelement <17 x float> %1138, float %1139, i64 5
  %1141 = extractelement <31 x float> %632, i64 14
  %1142 = insertelement <17 x float> %1140, float %1141, i64 6
  %1143 = extractelement <31 x float> %634, i64 14
  %1144 = insertelement <17 x float> %1142, float %1143, i64 7
  %1145 = extractelement <31 x float> %636, i64 14
  %1146 = insertelement <17 x float> %1144, float %1145, i64 8
  %1147 = extractelement <31 x float> %638, i64 14
  %1148 = insertelement <17 x float> %1146, float %1147, i64 9
  %1149 = extractelement <31 x float> %640, i64 14
  %1150 = insertelement <17 x float> %1148, float %1149, i64 10
  %1151 = extractelement <31 x float> %642, i64 14
  %1152 = insertelement <17 x float> %1150, float %1151, i64 11
  %1153 = extractelement <31 x float> %644, i64 14
  %1154 = insertelement <17 x float> %1152, float %1153, i64 12
  %1155 = extractelement <31 x float> %646, i64 14
  %1156 = insertelement <17 x float> %1154, float %1155, i64 13
  %1157 = extractelement <31 x float> %648, i64 14
  %1158 = insertelement <17 x float> %1156, float %1157, i64 14
  %1159 = extractelement <31 x float> %650, i64 14
  %1160 = insertelement <17 x float> %1158, float %1159, i64 15
  %1161 = extractelement <31 x float> %652, i64 14
  %1162 = insertelement <17 x float> %1160, float %1161, i64 16
  %1163 = extractelement <31 x float> %620, i64 15
  %1164 = insertelement <17 x float> poison, float %1163, i64 0
  %1165 = extractelement <31 x float> %622, i64 15
  %1166 = insertelement <17 x float> %1164, float %1165, i64 1
  %1167 = extractelement <31 x float> %624, i64 15
  %1168 = insertelement <17 x float> %1166, float %1167, i64 2
  %1169 = extractelement <31 x float> %626, i64 15
  %1170 = insertelement <17 x float> %1168, float %1169, i64 3
  %1171 = extractelement <31 x float> %628, i64 15
  %1172 = insertelement <17 x float> %1170, float %1171, i64 4
  %1173 = extractelement <31 x float> %630, i64 15
  %1174 = insertelement <17 x float> %1172, float %1173, i64 5
  %1175 = extractelement <31 x float> %632, i64 15
  %1176 = insertelement <17 x float> %1174, float %1175, i64 6
  %1177 = extractelement <31 x float> %634, i64 15
  %1178 = insertelement <17 x float> %1176, float %1177, i64 7
  %1179 = extractelement <31 x float> %636, i64 15
  %1180 = insertelement <17 x float> %1178, float %1179, i64 8
  %1181 = extractelement <31 x float> %638, i64 15
  %1182 = insertelement <17 x float> %1180, float %1181, i64 9
  %1183 = extractelement <31 x float> %640, i64 15
  %1184 = insertelement <17 x float> %1182, float %1183, i64 10
  %1185 = extractelement <31 x float> %642, i64 15
  %1186 = insertelement <17 x float> %1184, float %1185, i64 11
  %1187 = extractelement <31 x float> %644, i64 15
  %1188 = insertelement <17 x float> %1186, float %1187, i64 12
  %1189 = extractelement <31 x float> %646, i64 15
  %1190 = insertelement <17 x float> %1188, float %1189, i64 13
  %1191 = extractelement <31 x float> %648, i64 15
  %1192 = insertelement <17 x float> %1190, float %1191, i64 14
  %1193 = extractelement <31 x float> %650, i64 15
  %1194 = insertelement <17 x float> %1192, float %1193, i64 15
  %1195 = extractelement <31 x float> %652, i64 15
  %1196 = insertelement <17 x float> %1194, float %1195, i64 16
  %1197 = extractelement <31 x float> %620, i64 16
  %1198 = insertelement <17 x float> poison, float %1197, i64 0
  %1199 = extractelement <31 x float> %622, i64 16
  %1200 = insertelement <17 x float> %1198, float %1199, i64 1
  %1201 = extractelement <31 x float> %624, i64 16
  %1202 = insertelement <17 x float> %1200, float %1201, i64 2
  %1203 = extractelement <31 x float> %626, i64 16
  %1204 = insertelement <17 x float> %1202, float %1203, i64 3
  %1205 = extractelement <31 x float> %628, i64 16
  %1206 = insertelement <17 x float> %1204, float %1205, i64 4
  %1207 = extractelement <31 x float> %630, i64 16
  %1208 = insertelement <17 x float> %1206, float %1207, i64 5
  %1209 = extractelement <31 x float> %632, i64 16
  %1210 = insertelement <17 x float> %1208, float %1209, i64 6
  %1211 = extractelement <31 x float> %634, i64 16
  %1212 = insertelement <17 x float> %1210, float %1211, i64 7
  %1213 = extractelement <31 x float> %636, i64 16
  %1214 = insertelement <17 x float> %1212, float %1213, i64 8
  %1215 = extractelement <31 x float> %638, i64 16
  %1216 = insertelement <17 x float> %1214, float %1215, i64 9
  %1217 = extractelement <31 x float> %640, i64 16
  %1218 = insertelement <17 x float> %1216, float %1217, i64 10
  %1219 = extractelement <31 x float> %642, i64 16
  %1220 = insertelement <17 x float> %1218, float %1219, i64 11
  %1221 = extractelement <31 x float> %644, i64 16
  %1222 = insertelement <17 x float> %1220, float %1221, i64 12
  %1223 = extractelement <31 x float> %646, i64 16
  %1224 = insertelement <17 x float> %1222, float %1223, i64 13
  %1225 = extractelement <31 x float> %648, i64 16
  %1226 = insertelement <17 x float> %1224, float %1225, i64 14
  %1227 = extractelement <31 x float> %650, i64 16
  %1228 = insertelement <17 x float> %1226, float %1227, i64 15
  %1229 = extractelement <31 x float> %652, i64 16
  %1230 = insertelement <17 x float> %1228, float %1229, i64 16
  %1231 = extractelement <31 x float> %620, i64 17
  %1232 = insertelement <17 x float> poison, float %1231, i64 0
  %1233 = extractelement <31 x float> %622, i64 17
  %1234 = insertelement <17 x float> %1232, float %1233, i64 1
  %1235 = extractelement <31 x float> %624, i64 17
  %1236 = insertelement <17 x float> %1234, float %1235, i64 2
  %1237 = extractelement <31 x float> %626, i64 17
  %1238 = insertelement <17 x float> %1236, float %1237, i64 3
  %1239 = extractelement <31 x float> %628, i64 17
  %1240 = insertelement <17 x float> %1238, float %1239, i64 4
  %1241 = extractelement <31 x float> %630, i64 17
  %1242 = insertelement <17 x float> %1240, float %1241, i64 5
  %1243 = extractelement <31 x float> %632, i64 17
  %1244 = insertelement <17 x float> %1242, float %1243, i64 6
  %1245 = extractelement <31 x float> %634, i64 17
  %1246 = insertelement <17 x float> %1244, float %1245, i64 7
  %1247 = extractelement <31 x float> %636, i64 17
  %1248 = insertelement <17 x float> %1246, float %1247, i64 8
  %1249 = extractelement <31 x float> %638, i64 17
  %1250 = insertelement <17 x float> %1248, float %1249, i64 9
  %1251 = extractelement <31 x float> %640, i64 17
  %1252 = insertelement <17 x float> %1250, float %1251, i64 10
  %1253 = extractelement <31 x float> %642, i64 17
  %1254 = insertelement <17 x float> %1252, float %1253, i64 11
  %1255 = extractelement <31 x float> %644, i64 17
  %1256 = insertelement <17 x float> %1254, float %1255, i64 12
  %1257 = extractelement <31 x float> %646, i64 17
  %1258 = insertelement <17 x float> %1256, float %1257, i64 13
  %1259 = extractelement <31 x float> %648, i64 17
  %1260 = insertelement <17 x float> %1258, float %1259, i64 14
  %1261 = extractelement <31 x float> %650, i64 17
  %1262 = insertelement <17 x float> %1260, float %1261, i64 15
  %1263 = extractelement <31 x float> %652, i64 17
  %1264 = insertelement <17 x float> %1262, float %1263, i64 16
  %1265 = extractelement <31 x float> %620, i64 18
  %1266 = insertelement <17 x float> poison, float %1265, i64 0
  %1267 = extractelement <31 x float> %622, i64 18
  %1268 = insertelement <17 x float> %1266, float %1267, i64 1
  %1269 = extractelement <31 x float> %624, i64 18
  %1270 = insertelement <17 x float> %1268, float %1269, i64 2
  %1271 = extractelement <31 x float> %626, i64 18
  %1272 = insertelement <17 x float> %1270, float %1271, i64 3
  %1273 = extractelement <31 x float> %628, i64 18
  %1274 = insertelement <17 x float> %1272, float %1273, i64 4
  %1275 = extractelement <31 x float> %630, i64 18
  %1276 = insertelement <17 x float> %1274, float %1275, i64 5
  %1277 = extractelement <31 x float> %632, i64 18
  %1278 = insertelement <17 x float> %1276, float %1277, i64 6
  %1279 = extractelement <31 x float> %634, i64 18
  %1280 = insertelement <17 x float> %1278, float %1279, i64 7
  %1281 = extractelement <31 x float> %636, i64 18
  %1282 = insertelement <17 x float> %1280, float %1281, i64 8
  %1283 = extractelement <31 x float> %638, i64 18
  %1284 = insertelement <17 x float> %1282, float %1283, i64 9
  %1285 = extractelement <31 x float> %640, i64 18
  %1286 = insertelement <17 x float> %1284, float %1285, i64 10
  %1287 = extractelement <31 x float> %642, i64 18
  %1288 = insertelement <17 x float> %1286, float %1287, i64 11
  %1289 = extractelement <31 x float> %644, i64 18
  %1290 = insertelement <17 x float> %1288, float %1289, i64 12
  %1291 = extractelement <31 x float> %646, i64 18
  %1292 = insertelement <17 x float> %1290, float %1291, i64 13
  %1293 = extractelement <31 x float> %648, i64 18
  %1294 = insertelement <17 x float> %1292, float %1293, i64 14
  %1295 = extractelement <31 x float> %650, i64 18
  %1296 = insertelement <17 x float> %1294, float %1295, i64 15
  %1297 = extractelement <31 x float> %652, i64 18
  %1298 = insertelement <17 x float> %1296, float %1297, i64 16
  %1299 = extractelement <31 x float> %620, i64 19
  %1300 = insertelement <17 x float> poison, float %1299, i64 0
  %1301 = extractelement <31 x float> %622, i64 19
  %1302 = insertelement <17 x float> %1300, float %1301, i64 1
  %1303 = extractelement <31 x float> %624, i64 19
  %1304 = insertelement <17 x float> %1302, float %1303, i64 2
  %1305 = extractelement <31 x float> %626, i64 19
  %1306 = insertelement <17 x float> %1304, float %1305, i64 3
  %1307 = extractelement <31 x float> %628, i64 19
  %1308 = insertelement <17 x float> %1306, float %1307, i64 4
  %1309 = extractelement <31 x float> %630, i64 19
  %1310 = insertelement <17 x float> %1308, float %1309, i64 5
  %1311 = extractelement <31 x float> %632, i64 19
  %1312 = insertelement <17 x float> %1310, float %1311, i64 6
  %1313 = extractelement <31 x float> %634, i64 19
  %1314 = insertelement <17 x float> %1312, float %1313, i64 7
  %1315 = extractelement <31 x float> %636, i64 19
  %1316 = insertelement <17 x float> %1314, float %1315, i64 8
  %1317 = extractelement <31 x float> %638, i64 19
  %1318 = insertelement <17 x float> %1316, float %1317, i64 9
  %1319 = extractelement <31 x float> %640, i64 19
  %1320 = insertelement <17 x float> %1318, float %1319, i64 10
  %1321 = extractelement <31 x float> %642, i64 19
  %1322 = insertelement <17 x float> %1320, float %1321, i64 11
  %1323 = extractelement <31 x float> %644, i64 19
  %1324 = insertelement <17 x float> %1322, float %1323, i64 12
  %1325 = extractelement <31 x float> %646, i64 19
  %1326 = insertelement <17 x float> %1324, float %1325, i64 13
  %1327 = extractelement <31 x float> %648, i64 19
  %1328 = insertelement <17 x float> %1326, float %1327, i64 14
  %1329 = extractelement <31 x float> %650, i64 19
  %1330 = insertelement <17 x float> %1328, float %1329, i64 15
  %1331 = extractelement <31 x float> %652, i64 19
  %1332 = insertelement <17 x float> %1330, float %1331, i64 16
  %1333 = extractelement <31 x float> %620, i64 20
  %1334 = insertelement <17 x float> poison, float %1333, i64 0
  %1335 = extractelement <31 x float> %622, i64 20
  %1336 = insertelement <17 x float> %1334, float %1335, i64 1
  %1337 = extractelement <31 x float> %624, i64 20
  %1338 = insertelement <17 x float> %1336, float %1337, i64 2
  %1339 = extractelement <31 x float> %626, i64 20
  %1340 = insertelement <17 x float> %1338, float %1339, i64 3
  %1341 = extractelement <31 x float> %628, i64 20
  %1342 = insertelement <17 x float> %1340, float %1341, i64 4
  %1343 = extractelement <31 x float> %630, i64 20
  %1344 = insertelement <17 x float> %1342, float %1343, i64 5
  %1345 = extractelement <31 x float> %632, i64 20
  %1346 = insertelement <17 x float> %1344, float %1345, i64 6
  %1347 = extractelement <31 x float> %634, i64 20
  %1348 = insertelement <17 x float> %1346, float %1347, i64 7
  %1349 = extractelement <31 x float> %636, i64 20
  %1350 = insertelement <17 x float> %1348, float %1349, i64 8
  %1351 = extractelement <31 x float> %638, i64 20
  %1352 = insertelement <17 x float> %1350, float %1351, i64 9
  %1353 = extractelement <31 x float> %640, i64 20
  %1354 = insertelement <17 x float> %1352, float %1353, i64 10
  %1355 = extractelement <31 x float> %642, i64 20
  %1356 = insertelement <17 x float> %1354, float %1355, i64 11
  %1357 = extractelement <31 x float> %644, i64 20
  %1358 = insertelement <17 x float> %1356, float %1357, i64 12
  %1359 = extractelement <31 x float> %646, i64 20
  %1360 = insertelement <17 x float> %1358, float %1359, i64 13
  %1361 = extractelement <31 x float> %648, i64 20
  %1362 = insertelement <17 x float> %1360, float %1361, i64 14
  %1363 = extractelement <31 x float> %650, i64 20
  %1364 = insertelement <17 x float> %1362, float %1363, i64 15
  %1365 = extractelement <31 x float> %652, i64 20
  %1366 = insertelement <17 x float> %1364, float %1365, i64 16
  %1367 = extractelement <31 x float> %620, i64 21
  %1368 = insertelement <17 x float> poison, float %1367, i64 0
  %1369 = extractelement <31 x float> %622, i64 21
  %1370 = insertelement <17 x float> %1368, float %1369, i64 1
  %1371 = extractelement <31 x float> %624, i64 21
  %1372 = insertelement <17 x float> %1370, float %1371, i64 2
  %1373 = extractelement <31 x float> %626, i64 21
  %1374 = insertelement <17 x float> %1372, float %1373, i64 3
  %1375 = extractelement <31 x float> %628, i64 21
  %1376 = insertelement <17 x float> %1374, float %1375, i64 4
  %1377 = extractelement <31 x float> %630, i64 21
  %1378 = insertelement <17 x float> %1376, float %1377, i64 5
  %1379 = extractelement <31 x float> %632, i64 21
  %1380 = insertelement <17 x float> %1378, float %1379, i64 6
  %1381 = extractelement <31 x float> %634, i64 21
  %1382 = insertelement <17 x float> %1380, float %1381, i64 7
  %1383 = extractelement <31 x float> %636, i64 21
  %1384 = insertelement <17 x float> %1382, float %1383, i64 8
  %1385 = extractelement <31 x float> %638, i64 21
  %1386 = insertelement <17 x float> %1384, float %1385, i64 9
  %1387 = extractelement <31 x float> %640, i64 21
  %1388 = insertelement <17 x float> %1386, float %1387, i64 10
  %1389 = extractelement <31 x float> %642, i64 21
  %1390 = insertelement <17 x float> %1388, float %1389, i64 11
  %1391 = extractelement <31 x float> %644, i64 21
  %1392 = insertelement <17 x float> %1390, float %1391, i64 12
  %1393 = extractelement <31 x float> %646, i64 21
  %1394 = insertelement <17 x float> %1392, float %1393, i64 13
  %1395 = extractelement <31 x float> %648, i64 21
  %1396 = insertelement <17 x float> %1394, float %1395, i64 14
  %1397 = extractelement <31 x float> %650, i64 21
  %1398 = insertelement <17 x float> %1396, float %1397, i64 15
  %1399 = extractelement <31 x float> %652, i64 21
  %1400 = insertelement <17 x float> %1398, float %1399, i64 16
  %1401 = extractelement <31 x float> %620, i64 22
  %1402 = insertelement <17 x float> poison, float %1401, i64 0
  %1403 = extractelement <31 x float> %622, i64 22
  %1404 = insertelement <17 x float> %1402, float %1403, i64 1
  %1405 = extractelement <31 x float> %624, i64 22
  %1406 = insertelement <17 x float> %1404, float %1405, i64 2
  %1407 = extractelement <31 x float> %626, i64 22
  %1408 = insertelement <17 x float> %1406, float %1407, i64 3
  %1409 = extractelement <31 x float> %628, i64 22
  %1410 = insertelement <17 x float> %1408, float %1409, i64 4
  %1411 = extractelement <31 x float> %630, i64 22
  %1412 = insertelement <17 x float> %1410, float %1411, i64 5
  %1413 = extractelement <31 x float> %632, i64 22
  %1414 = insertelement <17 x float> %1412, float %1413, i64 6
  %1415 = extractelement <31 x float> %634, i64 22
  %1416 = insertelement <17 x float> %1414, float %1415, i64 7
  %1417 = extractelement <31 x float> %636, i64 22
  %1418 = insertelement <17 x float> %1416, float %1417, i64 8
  %1419 = extractelement <31 x float> %638, i64 22
  %1420 = insertelement <17 x float> %1418, float %1419, i64 9
  %1421 = extractelement <31 x float> %640, i64 22
  %1422 = insertelement <17 x float> %1420, float %1421, i64 10
  %1423 = extractelement <31 x float> %642, i64 22
  %1424 = insertelement <17 x float> %1422, float %1423, i64 11
  %1425 = extractelement <31 x float> %644, i64 22
  %1426 = insertelement <17 x float> %1424, float %1425, i64 12
  %1427 = extractelement <31 x float> %646, i64 22
  %1428 = insertelement <17 x float> %1426, float %1427, i64 13
  %1429 = extractelement <31 x float> %648, i64 22
  %1430 = insertelement <17 x float> %1428, float %1429, i64 14
  %1431 = extractelement <31 x float> %650, i64 22
  %1432 = insertelement <17 x float> %1430, float %1431, i64 15
  %1433 = extractelement <31 x float> %652, i64 22
  %1434 = insertelement <17 x float> %1432, float %1433, i64 16
  %1435 = extractelement <31 x float> %620, i64 23
  %1436 = insertelement <17 x float> poison, float %1435, i64 0
  %1437 = extractelement <31 x float> %622, i64 23
  %1438 = insertelement <17 x float> %1436, float %1437, i64 1
  %1439 = extractelement <31 x float> %624, i64 23
  %1440 = insertelement <17 x float> %1438, float %1439, i64 2
  %1441 = extractelement <31 x float> %626, i64 23
  %1442 = insertelement <17 x float> %1440, float %1441, i64 3
  %1443 = extractelement <31 x float> %628, i64 23
  %1444 = insertelement <17 x float> %1442, float %1443, i64 4
  %1445 = extractelement <31 x float> %630, i64 23
  %1446 = insertelement <17 x float> %1444, float %1445, i64 5
  %1447 = extractelement <31 x float> %632, i64 23
  %1448 = insertelement <17 x float> %1446, float %1447, i64 6
  %1449 = extractelement <31 x float> %634, i64 23
  %1450 = insertelement <17 x float> %1448, float %1449, i64 7
  %1451 = extractelement <31 x float> %636, i64 23
  %1452 = insertelement <17 x float> %1450, float %1451, i64 8
  %1453 = extractelement <31 x float> %638, i64 23
  %1454 = insertelement <17 x float> %1452, float %1453, i64 9
  %1455 = extractelement <31 x float> %640, i64 23
  %1456 = insertelement <17 x float> %1454, float %1455, i64 10
  %1457 = extractelement <31 x float> %642, i64 23
  %1458 = insertelement <17 x float> %1456, float %1457, i64 11
  %1459 = extractelement <31 x float> %644, i64 23
  %1460 = insertelement <17 x float> %1458, float %1459, i64 12
  %1461 = extractelement <31 x float> %646, i64 23
  %1462 = insertelement <17 x float> %1460, float %1461, i64 13
  %1463 = extractelement <31 x float> %648, i64 23
  %1464 = insertelement <17 x float> %1462, float %1463, i64 14
  %1465 = extractelement <31 x float> %650, i64 23
  %1466 = insertelement <17 x float> %1464, float %1465, i64 15
  %1467 = extractelement <31 x float> %652, i64 23
  %1468 = insertelement <17 x float> %1466, float %1467, i64 16
  %1469 = extractelement <31 x float> %620, i64 24
  %1470 = insertelement <17 x float> poison, float %1469, i64 0
  %1471 = extractelement <31 x float> %622, i64 24
  %1472 = insertelement <17 x float> %1470, float %1471, i64 1
  %1473 = extractelement <31 x float> %624, i64 24
  %1474 = insertelement <17 x float> %1472, float %1473, i64 2
  %1475 = extractelement <31 x float> %626, i64 24
  %1476 = insertelement <17 x float> %1474, float %1475, i64 3
  %1477 = extractelement <31 x float> %628, i64 24
  %1478 = insertelement <17 x float> %1476, float %1477, i64 4
  %1479 = extractelement <31 x float> %630, i64 24
  %1480 = insertelement <17 x float> %1478, float %1479, i64 5
  %1481 = extractelement <31 x float> %632, i64 24
  %1482 = insertelement <17 x float> %1480, float %1481, i64 6
  %1483 = extractelement <31 x float> %634, i64 24
  %1484 = insertelement <17 x float> %1482, float %1483, i64 7
  %1485 = extractelement <31 x float> %636, i64 24
  %1486 = insertelement <17 x float> %1484, float %1485, i64 8
  %1487 = extractelement <31 x float> %638, i64 24
  %1488 = insertelement <17 x float> %1486, float %1487, i64 9
  %1489 = extractelement <31 x float> %640, i64 24
  %1490 = insertelement <17 x float> %1488, float %1489, i64 10
  %1491 = extractelement <31 x float> %642, i64 24
  %1492 = insertelement <17 x float> %1490, float %1491, i64 11
  %1493 = extractelement <31 x float> %644, i64 24
  %1494 = insertelement <17 x float> %1492, float %1493, i64 12
  %1495 = extractelement <31 x float> %646, i64 24
  %1496 = insertelement <17 x float> %1494, float %1495, i64 13
  %1497 = extractelement <31 x float> %648, i64 24
  %1498 = insertelement <17 x float> %1496, float %1497, i64 14
  %1499 = extractelement <31 x float> %650, i64 24
  %1500 = insertelement <17 x float> %1498, float %1499, i64 15
  %1501 = extractelement <31 x float> %652, i64 24
  %1502 = insertelement <17 x float> %1500, float %1501, i64 16
  %1503 = extractelement <31 x float> %620, i64 25
  %1504 = insertelement <17 x float> poison, float %1503, i64 0
  %1505 = extractelement <31 x float> %622, i64 25
  %1506 = insertelement <17 x float> %1504, float %1505, i64 1
  %1507 = extractelement <31 x float> %624, i64 25
  %1508 = insertelement <17 x float> %1506, float %1507, i64 2
  %1509 = extractelement <31 x float> %626, i64 25
  %1510 = insertelement <17 x float> %1508, float %1509, i64 3
  %1511 = extractelement <31 x float> %628, i64 25
  %1512 = insertelement <17 x float> %1510, float %1511, i64 4
  %1513 = extractelement <31 x float> %630, i64 25
  %1514 = insertelement <17 x float> %1512, float %1513, i64 5
  %1515 = extractelement <31 x float> %632, i64 25
  %1516 = insertelement <17 x float> %1514, float %1515, i64 6
  %1517 = extractelement <31 x float> %634, i64 25
  %1518 = insertelement <17 x float> %1516, float %1517, i64 7
  %1519 = extractelement <31 x float> %636, i64 25
  %1520 = insertelement <17 x float> %1518, float %1519, i64 8
  %1521 = extractelement <31 x float> %638, i64 25
  %1522 = insertelement <17 x float> %1520, float %1521, i64 9
  %1523 = extractelement <31 x float> %640, i64 25
  %1524 = insertelement <17 x float> %1522, float %1523, i64 10
  %1525 = extractelement <31 x float> %642, i64 25
  %1526 = insertelement <17 x float> %1524, float %1525, i64 11
  %1527 = extractelement <31 x float> %644, i64 25
  %1528 = insertelement <17 x float> %1526, float %1527, i64 12
  %1529 = extractelement <31 x float> %646, i64 25
  %1530 = insertelement <17 x float> %1528, float %1529, i64 13
  %1531 = extractelement <31 x float> %648, i64 25
  %1532 = insertelement <17 x float> %1530, float %1531, i64 14
  %1533 = extractelement <31 x float> %650, i64 25
  %1534 = insertelement <17 x float> %1532, float %1533, i64 15
  %1535 = extractelement <31 x float> %652, i64 25
  %1536 = insertelement <17 x float> %1534, float %1535, i64 16
  %1537 = extractelement <31 x float> %620, i64 26
  %1538 = insertelement <17 x float> poison, float %1537, i64 0
  %1539 = extractelement <31 x float> %622, i64 26
  %1540 = insertelement <17 x float> %1538, float %1539, i64 1
  %1541 = extractelement <31 x float> %624, i64 26
  %1542 = insertelement <17 x float> %1540, float %1541, i64 2
  %1543 = extractelement <31 x float> %626, i64 26
  %1544 = insertelement <17 x float> %1542, float %1543, i64 3
  %1545 = extractelement <31 x float> %628, i64 26
  %1546 = insertelement <17 x float> %1544, float %1545, i64 4
  %1547 = extractelement <31 x float> %630, i64 26
  %1548 = insertelement <17 x float> %1546, float %1547, i64 5
  %1549 = extractelement <31 x float> %632, i64 26
  %1550 = insertelement <17 x float> %1548, float %1549, i64 6
  %1551 = extractelement <31 x float> %634, i64 26
  %1552 = insertelement <17 x float> %1550, float %1551, i64 7
  %1553 = extractelement <31 x float> %636, i64 26
  %1554 = insertelement <17 x float> %1552, float %1553, i64 8
  %1555 = extractelement <31 x float> %638, i64 26
  %1556 = insertelement <17 x float> %1554, float %1555, i64 9
  %1557 = extractelement <31 x float> %640, i64 26
  %1558 = insertelement <17 x float> %1556, float %1557, i64 10
  %1559 = extractelement <31 x float> %642, i64 26
  %1560 = insertelement <17 x float> %1558, float %1559, i64 11
  %1561 = extractelement <31 x float> %644, i64 26
  %1562 = insertelement <17 x float> %1560, float %1561, i64 12
  %1563 = extractelement <31 x float> %646, i64 26
  %1564 = insertelement <17 x float> %1562, float %1563, i64 13
  %1565 = extractelement <31 x float> %648, i64 26
  %1566 = insertelement <17 x float> %1564, float %1565, i64 14
  %1567 = extractelement <31 x float> %650, i64 26
  %1568 = insertelement <17 x float> %1566, float %1567, i64 15
  %1569 = extractelement <31 x float> %652, i64 26
  %1570 = insertelement <17 x float> %1568, float %1569, i64 16
  %1571 = extractelement <31 x float> %620, i64 27
  %1572 = insertelement <17 x float> poison, float %1571, i64 0
  %1573 = extractelement <31 x float> %622, i64 27
  %1574 = insertelement <17 x float> %1572, float %1573, i64 1
  %1575 = extractelement <31 x float> %624, i64 27
  %1576 = insertelement <17 x float> %1574, float %1575, i64 2
  %1577 = extractelement <31 x float> %626, i64 27
  %1578 = insertelement <17 x float> %1576, float %1577, i64 3
  %1579 = extractelement <31 x float> %628, i64 27
  %1580 = insertelement <17 x float> %1578, float %1579, i64 4
  %1581 = extractelement <31 x float> %630, i64 27
  %1582 = insertelement <17 x float> %1580, float %1581, i64 5
  %1583 = extractelement <31 x float> %632, i64 27
  %1584 = insertelement <17 x float> %1582, float %1583, i64 6
  %1585 = extractelement <31 x float> %634, i64 27
  %1586 = insertelement <17 x float> %1584, float %1585, i64 7
  %1587 = extractelement <31 x float> %636, i64 27
  %1588 = insertelement <17 x float> %1586, float %1587, i64 8
  %1589 = extractelement <31 x float> %638, i64 27
  %1590 = insertelement <17 x float> %1588, float %1589, i64 9
  %1591 = extractelement <31 x float> %640, i64 27
  %1592 = insertelement <17 x float> %1590, float %1591, i64 10
  %1593 = extractelement <31 x float> %642, i64 27
  %1594 = insertelement <17 x float> %1592, float %1593, i64 11
  %1595 = extractelement <31 x float> %644, i64 27
  %1596 = insertelement <17 x float> %1594, float %1595, i64 12
  %1597 = extractelement <31 x float> %646, i64 27
  %1598 = insertelement <17 x float> %1596, float %1597, i64 13
  %1599 = extractelement <31 x float> %648, i64 27
  %1600 = insertelement <17 x float> %1598, float %1599, i64 14
  %1601 = extractelement <31 x float> %650, i64 27
  %1602 = insertelement <17 x float> %1600, float %1601, i64 15
  %1603 = extractelement <31 x float> %652, i64 27
  %1604 = insertelement <17 x float> %1602, float %1603, i64 16
  %1605 = extractelement <31 x float> %620, i64 28
  %1606 = insertelement <17 x float> poison, float %1605, i64 0
  %1607 = extractelement <31 x float> %622, i64 28
  %1608 = insertelement <17 x float> %1606, float %1607, i64 1
  %1609 = extractelement <31 x float> %624, i64 28
  %1610 = insertelement <17 x float> %1608, float %1609, i64 2
  %1611 = extractelement <31 x float> %626, i64 28
  %1612 = insertelement <17 x float> %1610, float %1611, i64 3
  %1613 = extractelement <31 x float> %628, i64 28
  %1614 = insertelement <17 x float> %1612, float %1613, i64 4
  %1615 = extractelement <31 x float> %630, i64 28
  %1616 = insertelement <17 x float> %1614, float %1615, i64 5
  %1617 = extractelement <31 x float> %632, i64 28
  %1618 = insertelement <17 x float> %1616, float %1617, i64 6
  %1619 = extractelement <31 x float> %634, i64 28
  %1620 = insertelement <17 x float> %1618, float %1619, i64 7
  %1621 = extractelement <31 x float> %636, i64 28
  %1622 = insertelement <17 x float> %1620, float %1621, i64 8
  %1623 = extractelement <31 x float> %638, i64 28
  %1624 = insertelement <17 x float> %1622, float %1623, i64 9
  %1625 = extractelement <31 x float> %640, i64 28
  %1626 = insertelement <17 x float> %1624, float %1625, i64 10
  %1627 = extractelement <31 x float> %642, i64 28
  %1628 = insertelement <17 x float> %1626, float %1627, i64 11
  %1629 = extractelement <31 x float> %644, i64 28
  %1630 = insertelement <17 x float> %1628, float %1629, i64 12
  %1631 = extractelement <31 x float> %646, i64 28
  %1632 = insertelement <17 x float> %1630, float %1631, i64 13
  %1633 = extractelement <31 x float> %648, i64 28
  %1634 = insertelement <17 x float> %1632, float %1633, i64 14
  %1635 = extractelement <31 x float> %650, i64 28
  %1636 = insertelement <17 x float> %1634, float %1635, i64 15
  %1637 = extractelement <31 x float> %652, i64 28
  %1638 = insertelement <17 x float> %1636, float %1637, i64 16
  %1639 = extractelement <31 x float> %620, i64 29
  %1640 = insertelement <17 x float> poison, float %1639, i64 0
  %1641 = extractelement <31 x float> %622, i64 29
  %1642 = insertelement <17 x float> %1640, float %1641, i64 1
  %1643 = extractelement <31 x float> %624, i64 29
  %1644 = insertelement <17 x float> %1642, float %1643, i64 2
  %1645 = extractelement <31 x float> %626, i64 29
  %1646 = insertelement <17 x float> %1644, float %1645, i64 3
  %1647 = extractelement <31 x float> %628, i64 29
  %1648 = insertelement <17 x float> %1646, float %1647, i64 4
  %1649 = extractelement <31 x float> %630, i64 29
  %1650 = insertelement <17 x float> %1648, float %1649, i64 5
  %1651 = extractelement <31 x float> %632, i64 29
  %1652 = insertelement <17 x float> %1650, float %1651, i64 6
  %1653 = extractelement <31 x float> %634, i64 29
  %1654 = insertelement <17 x float> %1652, float %1653, i64 7
  %1655 = extractelement <31 x float> %636, i64 29
  %1656 = insertelement <17 x float> %1654, float %1655, i64 8
  %1657 = extractelement <31 x float> %638, i64 29
  %1658 = insertelement <17 x float> %1656, float %1657, i64 9
  %1659 = extractelement <31 x float> %640, i64 29
  %1660 = insertelement <17 x float> %1658, float %1659, i64 10
  %1661 = extractelement <31 x float> %642, i64 29
  %1662 = insertelement <17 x float> %1660, float %1661, i64 11
  %1663 = extractelement <31 x float> %644, i64 29
  %1664 = insertelement <17 x float> %1662, float %1663, i64 12
  %1665 = extractelement <31 x float> %646, i64 29
  %1666 = insertelement <17 x float> %1664, float %1665, i64 13
  %1667 = extractelement <31 x float> %648, i64 29
  %1668 = insertelement <17 x float> %1666, float %1667, i64 14
  %1669 = extractelement <31 x float> %650, i64 29
  %1670 = insertelement <17 x float> %1668, float %1669, i64 15
  %1671 = extractelement <31 x float> %652, i64 29
  %1672 = insertelement <17 x float> %1670, float %1671, i64 16
  %1673 = extractelement <31 x float> %620, i64 30
  %1674 = insertelement <17 x float> poison, float %1673, i64 0
  %1675 = extractelement <31 x float> %622, i64 30
  %1676 = insertelement <17 x float> %1674, float %1675, i64 1
  %1677 = extractelement <31 x float> %624, i64 30
  %1678 = insertelement <17 x float> %1676, float %1677, i64 2
  %1679 = extractelement <31 x float> %626, i64 30
  %1680 = insertelement <17 x float> %1678, float %1679, i64 3
  %1681 = extractelement <31 x float> %628, i64 30
  %1682 = insertelement <17 x float> %1680, float %1681, i64 4
  %1683 = extractelement <31 x float> %630, i64 30
  %1684 = insertelement <17 x float> %1682, float %1683, i64 5
  %1685 = extractelement <31 x float> %632, i64 30
  %1686 = insertelement <17 x float> %1684, float %1685, i64 6
  %1687 = extractelement <31 x float> %634, i64 30
  %1688 = insertelement <17 x float> %1686, float %1687, i64 7
  %1689 = extractelement <31 x float> %636, i64 30
  %1690 = insertelement <17 x float> %1688, float %1689, i64 8
  %1691 = extractelement <31 x float> %638, i64 30
  %1692 = insertelement <17 x float> %1690, float %1691, i64 9
  %1693 = extractelement <31 x float> %640, i64 30
  %1694 = insertelement <17 x float> %1692, float %1693, i64 10
  %1695 = extractelement <31 x float> %642, i64 30
  %1696 = insertelement <17 x float> %1694, float %1695, i64 11
  %1697 = extractelement <31 x float> %644, i64 30
  %1698 = insertelement <17 x float> %1696, float %1697, i64 12
  %1699 = extractelement <31 x float> %646, i64 30
  %1700 = insertelement <17 x float> %1698, float %1699, i64 13
  %1701 = extractelement <31 x float> %648, i64 30
  %1702 = insertelement <17 x float> %1700, float %1701, i64 14
  %1703 = extractelement <31 x float> %650, i64 30
  %1704 = insertelement <17 x float> %1702, float %1703, i64 15
  %1705 = extractelement <31 x float> %652, i64 30
  %1706 = insertelement <17 x float> %1704, float %1705, i64 16
  store <17 x float> %686, ptr %4, align 16
  %1707 = getelementptr inbounds float, ptr %4, i64 17
  store <17 x float> %720, ptr %1707, align 4
  %1708 = getelementptr inbounds float, ptr %4, i64 34
  store <17 x float> %754, ptr %1708, align 8
  %1709 = getelementptr inbounds float, ptr %4, i64 51
  store <17 x float> %788, ptr %1709, align 4
  %1710 = getelementptr inbounds float, ptr %4, i64 68
  store <17 x float> %822, ptr %1710, align 16
  %1711 = getelementptr inbounds float, ptr %4, i64 85
  store <17 x float> %856, ptr %1711, align 4
  %1712 = getelementptr inbounds float, ptr %4, i64 102
  store <17 x float> %890, ptr %1712, align 8
  %1713 = getelementptr inbounds float, ptr %4, i64 119
  store <17 x float> %924, ptr %1713, align 4
  %1714 = getelementptr inbounds float, ptr %4, i64 136
  store <17 x float> %958, ptr %1714, align 16
  %1715 = getelementptr inbounds float, ptr %4, i64 153
  store <17 x float> %992, ptr %1715, align 4
  %1716 = getelementptr inbounds float, ptr %4, i64 170
  store <17 x float> %1026, ptr %1716, align 8
  %1717 = getelementptr inbounds float, ptr %4, i64 187
  store <17 x float> %1060, ptr %1717, align 4
  %1718 = getelementptr inbounds float, ptr %4, i64 204
  store <17 x float> %1094, ptr %1718, align 16
  %1719 = getelementptr inbounds float, ptr %4, i64 221
  store <17 x float> %1128, ptr %1719, align 4
  %1720 = getelementptr inbounds float, ptr %4, i64 238
  store <17 x float> %1162, ptr %1720, align 8
  %1721 = getelementptr inbounds float, ptr %4, i64 255
  store <17 x float> %1196, ptr %1721, align 4
  %1722 = getelementptr inbounds float, ptr %4, i64 272
  store <17 x float> %1230, ptr %1722, align 16
  %1723 = getelementptr inbounds float, ptr %4, i64 289
  store <17 x float> %1264, ptr %1723, align 4
  %1724 = getelementptr inbounds float, ptr %4, i64 306
  store <17 x float> %1298, ptr %1724, align 8
  %1725 = getelementptr inbounds float, ptr %4, i64 323
  store <17 x float> %1332, ptr %1725, align 4
  %1726 = getelementptr inbounds float, ptr %4, i64 340
  store <17 x float> %1366, ptr %1726, align 16
  %1727 = getelementptr inbounds float, ptr %4, i64 357
  store <17 x float> %1400, ptr %1727, align 4
  %1728 = getelementptr inbounds float, ptr %4, i64 374
  store <17 x float> %1434, ptr %1728, align 8
  %1729 = getelementptr inbounds float, ptr %4, i64 391
  store <17 x float> %1468, ptr %1729, align 4
  %1730 = getelementptr inbounds float, ptr %4, i64 408
  store <17 x float> %1502, ptr %1730, align 16
  %1731 = getelementptr inbounds float, ptr %4, i64 425
  store <17 x float> %1536, ptr %1731, align 4
  %1732 = getelementptr inbounds float, ptr %4, i64 442
  store <17 x float> %1570, ptr %1732, align 8
  %1733 = getelementptr inbounds float, ptr %4, i64 459
  store <17 x float> %1604, ptr %1733, align 4
  %1734 = getelementptr inbounds float, ptr %4, i64 476
  store <17 x float> %1638, ptr %1734, align 16
  %1735 = getelementptr inbounds float, ptr %4, i64 493
  store <17 x float> %1672, ptr %1735, align 4
  %1736 = getelementptr inbounds float, ptr %4, i64 510
  store <17 x float> %1706, ptr %1736, align 8
  call void @_Z14expectMatrixEQIfLi0EEvPT_S1_jj(ptr noundef nonnull %2, ptr noundef nonnull %4, i32 noundef 31, i32 noundef 17)
  call void @_Z14expectMatrixEQIfLi0EEvPT_S1_jj(ptr noundef nonnull %2, ptr noundef nonnull %3, i32 noundef 17, i32 noundef 31)
  call void @llvm.lifetime.end.p0(i64 2108, ptr nonnull %4) #15
  call void @llvm.lifetime.end.p0(i64 2108, ptr nonnull %3) #15
  call void @llvm.lifetime.end.p0(i64 2108, ptr nonnull %2) #15
  call void @llvm.lifetime.end.p0(i64 2108, ptr nonnull %1) #15
  ret void
}

; Function Attrs: uwtable
define linkonce_odr dso_local void @_Z13testTransposeIjLj8ELj7EEvv() local_unnamed_addr #7 comdat {
  %1 = alloca %"class.std::linear_congruential_engine", align 8
  %2 = alloca %"class.std::uniform_int_distribution", align 4
  %3 = alloca [56 x i32], align 16
  call void @llvm.lifetime.start.p0(i64 224, ptr nonnull %3) #15
  call void @llvm.lifetime.start.p0(i64 8, ptr nonnull %1) #15
  store i64 1, ptr %1, align 8, !tbaa !18
  call void @llvm.lifetime.start.p0(i64 8, ptr nonnull %2) #15
  store i32 -10, ptr %2, align 4, !tbaa !21
  %4 = getelementptr inbounds %"struct.std::uniform_int_distribution<unsigned int>::param_type", ptr %2, i64 0, i32 1
  store i32 10, ptr %4, align 4, !tbaa !24
  br label %5

5:                                                ; preds = %5, %0
  %6 = phi i64 [ 0, %0 ], [ %9, %5 ]
  %7 = call noundef i32 @_ZNSt24uniform_int_distributionIjEclISt26linear_congruential_engineImLm16807ELm0ELm2147483647EEEEjRT_RKNS0_10param_typeE(ptr noundef nonnull align 4 dereferenceable(8) %2, ptr noundef nonnull align 8 dereferenceable(8) %1, ptr noundef nonnull align 4 dereferenceable(8) %2)
  %8 = getelementptr inbounds i32, ptr %3, i64 %6
  store i32 %7, ptr %8, align 4, !tbaa !25
  %9 = add nuw nsw i64 %6, 1
  %10 = icmp eq i64 %9, 56
  br i1 %10, label %11, label %5, !llvm.loop !26

11:                                               ; preds = %5
  call void @llvm.lifetime.end.p0(i64 8, ptr nonnull %2) #15
  call void @llvm.lifetime.end.p0(i64 8, ptr nonnull %1) #15
  %12 = load i32, ptr %3, align 16, !tbaa !25
  %13 = getelementptr inbounds i32, ptr %3, i64 8
  %14 = load i32, ptr %13, align 16, !tbaa !25
  %15 = getelementptr inbounds i32, ptr %3, i64 16
  %16 = load i32, ptr %15, align 16, !tbaa !25
  %17 = getelementptr inbounds i32, ptr %3, i64 24
  %18 = load i32, ptr %17, align 16, !tbaa !25
  %19 = getelementptr inbounds i32, ptr %3, i64 32
  %20 = load i32, ptr %19, align 16, !tbaa !25
  %21 = getelementptr inbounds i32, ptr %3, i64 40
  %22 = load i32, ptr %21, align 16, !tbaa !25
  %23 = getelementptr inbounds i32, ptr %3, i64 48
  %24 = load i32, ptr %23, align 16, !tbaa !25
  %25 = getelementptr inbounds i32, ptr %3, i64 1
  %26 = load i32, ptr %25, align 4, !tbaa !25
  %27 = getelementptr inbounds i32, ptr %3, i64 9
  %28 = load i32, ptr %27, align 4, !tbaa !25
  %29 = getelementptr inbounds i32, ptr %3, i64 17
  %30 = load i32, ptr %29, align 4, !tbaa !25
  %31 = getelementptr inbounds i32, ptr %3, i64 25
  %32 = load i32, ptr %31, align 4, !tbaa !25
  %33 = getelementptr inbounds i32, ptr %3, i64 33
  %34 = load i32, ptr %33, align 4, !tbaa !25
  %35 = getelementptr inbounds i32, ptr %3, i64 41
  %36 = load i32, ptr %35, align 4, !tbaa !25
  %37 = getelementptr inbounds i32, ptr %3, i64 49
  %38 = load i32, ptr %37, align 4, !tbaa !25
  %39 = getelementptr inbounds i32, ptr %3, i64 2
  %40 = load i32, ptr %39, align 8, !tbaa !25
  %41 = getelementptr inbounds i32, ptr %3, i64 10
  %42 = load i32, ptr %41, align 8, !tbaa !25
  %43 = getelementptr inbounds i32, ptr %3, i64 18
  %44 = load i32, ptr %43, align 8, !tbaa !25
  %45 = getelementptr inbounds i32, ptr %3, i64 26
  %46 = load i32, ptr %45, align 8, !tbaa !25
  %47 = getelementptr inbounds i32, ptr %3, i64 34
  %48 = load i32, ptr %47, align 8, !tbaa !25
  %49 = getelementptr inbounds i32, ptr %3, i64 42
  %50 = load i32, ptr %49, align 8, !tbaa !25
  %51 = getelementptr inbounds i32, ptr %3, i64 50
  %52 = load i32, ptr %51, align 8, !tbaa !25
  %53 = getelementptr inbounds i32, ptr %3, i64 3
  %54 = load i32, ptr %53, align 4, !tbaa !25
  %55 = getelementptr inbounds i32, ptr %3, i64 11
  %56 = load i32, ptr %55, align 4, !tbaa !25
  %57 = getelementptr inbounds i32, ptr %3, i64 19
  %58 = load i32, ptr %57, align 4, !tbaa !25
  %59 = getelementptr inbounds i32, ptr %3, i64 27
  %60 = load i32, ptr %59, align 4, !tbaa !25
  %61 = getelementptr inbounds i32, ptr %3, i64 35
  %62 = load i32, ptr %61, align 4, !tbaa !25
  %63 = getelementptr inbounds i32, ptr %3, i64 43
  %64 = load i32, ptr %63, align 4, !tbaa !25
  %65 = getelementptr inbounds i32, ptr %3, i64 51
  %66 = load i32, ptr %65, align 4, !tbaa !25
  %67 = getelementptr inbounds i32, ptr %3, i64 4
  %68 = load i32, ptr %67, align 16, !tbaa !25
  %69 = getelementptr inbounds i32, ptr %3, i64 12
  %70 = load i32, ptr %69, align 16, !tbaa !25
  %71 = getelementptr inbounds i32, ptr %3, i64 20
  %72 = load i32, ptr %71, align 16, !tbaa !25
  %73 = getelementptr inbounds i32, ptr %3, i64 28
  %74 = load i32, ptr %73, align 16, !tbaa !25
  %75 = getelementptr inbounds i32, ptr %3, i64 36
  %76 = load i32, ptr %75, align 16, !tbaa !25
  %77 = getelementptr inbounds i32, ptr %3, i64 44
  %78 = load i32, ptr %77, align 16, !tbaa !25
  %79 = getelementptr inbounds i32, ptr %3, i64 52
  %80 = load i32, ptr %79, align 16, !tbaa !25
  %81 = getelementptr inbounds i32, ptr %3, i64 5
  %82 = load i32, ptr %81, align 4, !tbaa !25
  %83 = getelementptr inbounds i32, ptr %3, i64 13
  %84 = load i32, ptr %83, align 4, !tbaa !25
  %85 = getelementptr inbounds i32, ptr %3, i64 21
  %86 = load i32, ptr %85, align 4, !tbaa !25
  %87 = getelementptr inbounds i32, ptr %3, i64 29
  %88 = load i32, ptr %87, align 4, !tbaa !25
  %89 = getelementptr inbounds i32, ptr %3, i64 37
  %90 = load i32, ptr %89, align 4, !tbaa !25
  %91 = getelementptr inbounds i32, ptr %3, i64 45
  %92 = load i32, ptr %91, align 4, !tbaa !25
  %93 = getelementptr inbounds i32, ptr %3, i64 53
  %94 = load i32, ptr %93, align 4, !tbaa !25
  %95 = getelementptr inbounds i32, ptr %3, i64 6
  %96 = load i32, ptr %95, align 8, !tbaa !25
  %97 = getelementptr inbounds i32, ptr %3, i64 14
  %98 = load i32, ptr %97, align 8, !tbaa !25
  %99 = getelementptr inbounds i32, ptr %3, i64 22
  %100 = load i32, ptr %99, align 8, !tbaa !25
  %101 = getelementptr inbounds i32, ptr %3, i64 30
  %102 = load i32, ptr %101, align 8, !tbaa !25
  %103 = getelementptr inbounds i32, ptr %3, i64 38
  %104 = load i32, ptr %103, align 8, !tbaa !25
  %105 = getelementptr inbounds i32, ptr %3, i64 46
  %106 = load i32, ptr %105, align 8, !tbaa !25
  %107 = getelementptr inbounds i32, ptr %3, i64 54
  %108 = load i32, ptr %107, align 8, !tbaa !25
  %109 = getelementptr inbounds i32, ptr %3, i64 7
  %110 = load i32, ptr %109, align 4, !tbaa !25
  %111 = getelementptr inbounds i32, ptr %3, i64 15
  %112 = load i32, ptr %111, align 4, !tbaa !25
  %113 = getelementptr inbounds i32, ptr %3, i64 23
  %114 = load i32, ptr %113, align 4, !tbaa !25
  %115 = getelementptr inbounds i32, ptr %3, i64 31
  %116 = load i32, ptr %115, align 4, !tbaa !25
  %117 = getelementptr inbounds i32, ptr %3, i64 39
  %118 = load i32, ptr %117, align 4, !tbaa !25
  %119 = getelementptr inbounds i32, ptr %3, i64 47
  %120 = load i32, ptr %119, align 4, !tbaa !25
  %121 = getelementptr inbounds i32, ptr %3, i64 55
  %122 = load i32, ptr %121, align 4, !tbaa !25
  %123 = load <8 x i32>, ptr %3, align 16
  %124 = load <8 x i32>, ptr %13, align 16
  %125 = load <8 x i32>, ptr %15, align 16
  %126 = load <8 x i32>, ptr %17, align 16
  %127 = load <8 x i32>, ptr %19, align 16
  %128 = load <8 x i32>, ptr %21, align 16
  %129 = load <8 x i32>, ptr %23, align 16
  %130 = extractelement <8 x i32> %123, i64 0
  %131 = extractelement <8 x i32> %124, i64 0
  %132 = extractelement <8 x i32> %125, i64 0
  %133 = extractelement <8 x i32> %126, i64 0
  %134 = extractelement <8 x i32> %127, i64 0
  %135 = extractelement <8 x i32> %128, i64 0
  %136 = extractelement <8 x i32> %129, i64 0
  %137 = extractelement <8 x i32> %123, i64 1
  %138 = extractelement <8 x i32> %125, i64 1
  %139 = extractelement <8 x i32> %126, i64 1
  %140 = extractelement <8 x i32> %127, i64 1
  %141 = extractelement <8 x i32> %128, i64 1
  %142 = extractelement <8 x i32> %129, i64 1
  %143 = extractelement <8 x i32> %123, i64 2
  %144 = extractelement <8 x i32> %124, i64 2
  %145 = extractelement <8 x i32> %125, i64 2
  %146 = extractelement <8 x i32> %126, i64 2
  %147 = extractelement <8 x i32> %127, i64 2
  %148 = extractelement <8 x i32> %128, i64 2
  %149 = extractelement <8 x i32> %129, i64 2
  %150 = extractelement <8 x i32> %123, i64 3
  %151 = extractelement <8 x i32> %124, i64 3
  %152 = extractelement <8 x i32> %125, i64 3
  %153 = extractelement <8 x i32> %126, i64 3
  %154 = extractelement <8 x i32> %127, i64 3
  %155 = extractelement <8 x i32> %128, i64 3
  %156 = extractelement <8 x i32> %129, i64 3
  %157 = extractelement <8 x i32> %123, i64 4
  %158 = extractelement <8 x i32> %124, i64 4
  %159 = extractelement <8 x i32> %125, i64 4
  %160 = extractelement <8 x i32> %126, i64 4
  %161 = extractelement <8 x i32> %127, i64 4
  %162 = extractelement <8 x i32> %128, i64 4
  %163 = extractelement <8 x i32> %129, i64 4
  %164 = extractelement <8 x i32> %123, i64 5
  %165 = extractelement <8 x i32> %124, i64 5
  %166 = extractelement <8 x i32> %125, i64 5
  %167 = extractelement <8 x i32> %126, i64 5
  %168 = extractelement <8 x i32> %127, i64 5
  %169 = extractelement <8 x i32> %128, i64 5
  %170 = extractelement <8 x i32> %129, i64 5
  %171 = extractelement <8 x i32> %123, i64 6
  %172 = extractelement <8 x i32> %124, i64 6
  %173 = extractelement <8 x i32> %125, i64 6
  %174 = extractelement <8 x i32> %126, i64 6
  %175 = extractelement <8 x i32> %127, i64 6
  %176 = extractelement <8 x i32> %128, i64 6
  %177 = extractelement <8 x i32> %129, i64 6
  %178 = extractelement <8 x i32> %123, i64 7
  %179 = extractelement <8 x i32> %124, i64 7
  %180 = extractelement <8 x i32> %125, i64 7
  %181 = extractelement <8 x i32> %126, i64 7
  %182 = extractelement <8 x i32> %127, i64 7
  %183 = extractelement <8 x i32> %128, i64 7
  %184 = extractelement <8 x i32> %129, i64 7
  %185 = icmp eq i32 %12, %130
  br i1 %185, label %186, label %300

186:                                              ; preds = %11
  %187 = extractelement <8 x i32> %124, i64 1
  %188 = icmp eq i32 %28, %187
  br i1 %188, label %189, label %300

189:                                              ; preds = %186
  %190 = icmp eq i32 %44, %145
  br i1 %190, label %191, label %300

191:                                              ; preds = %189
  %192 = icmp eq i32 %60, %153
  br i1 %192, label %193, label %300

193:                                              ; preds = %191
  %194 = icmp eq i32 %76, %161
  br i1 %194, label %195, label %300

195:                                              ; preds = %193
  %196 = icmp eq i32 %92, %169
  br i1 %196, label %197, label %300

197:                                              ; preds = %195
  %198 = icmp eq i32 %108, %177
  br i1 %198, label %199, label %300

199:                                              ; preds = %197
  %200 = icmp eq i32 %14, %131
  br i1 %200, label %201, label %300

201:                                              ; preds = %199
  %202 = icmp eq i32 %30, %138
  br i1 %202, label %203, label %300

203:                                              ; preds = %201
  %204 = icmp eq i32 %46, %146
  br i1 %204, label %205, label %300

205:                                              ; preds = %203
  %206 = icmp eq i32 %62, %154
  br i1 %206, label %207, label %300

207:                                              ; preds = %205
  %208 = icmp eq i32 %78, %162
  br i1 %208, label %209, label %300

209:                                              ; preds = %207
  %210 = icmp eq i32 %94, %170
  br i1 %210, label %211, label %300

211:                                              ; preds = %209
  %212 = icmp eq i32 %110, %178
  br i1 %212, label %213, label %300

213:                                              ; preds = %211
  %214 = icmp eq i32 %16, %132
  br i1 %214, label %215, label %300

215:                                              ; preds = %213
  %216 = icmp eq i32 %32, %139
  br i1 %216, label %217, label %300

217:                                              ; preds = %215
  %218 = icmp eq i32 %48, %147
  br i1 %218, label %219, label %300

219:                                              ; preds = %217
  %220 = icmp eq i32 %64, %155
  br i1 %220, label %221, label %300

221:                                              ; preds = %219
  %222 = icmp eq i32 %80, %163
  br i1 %222, label %223, label %300

223:                                              ; preds = %221
  %224 = icmp eq i32 %96, %171
  br i1 %224, label %225, label %300

225:                                              ; preds = %223
  %226 = icmp eq i32 %112, %179
  br i1 %226, label %227, label %300

227:                                              ; preds = %225
  %228 = icmp eq i32 %18, %133
  br i1 %228, label %229, label %300

229:                                              ; preds = %227
  %230 = icmp eq i32 %34, %140
  br i1 %230, label %231, label %300

231:                                              ; preds = %229
  %232 = icmp eq i32 %50, %148
  br i1 %232, label %233, label %300

233:                                              ; preds = %231
  %234 = icmp eq i32 %66, %156
  br i1 %234, label %235, label %300

235:                                              ; preds = %233
  %236 = icmp eq i32 %82, %164
  br i1 %236, label %237, label %300

237:                                              ; preds = %235
  %238 = icmp eq i32 %98, %172
  br i1 %238, label %239, label %300

239:                                              ; preds = %237
  %240 = icmp eq i32 %114, %180
  br i1 %240, label %241, label %300

241:                                              ; preds = %239
  %242 = icmp eq i32 %20, %134
  br i1 %242, label %243, label %300

243:                                              ; preds = %241
  %244 = icmp eq i32 %36, %141
  br i1 %244, label %245, label %300

245:                                              ; preds = %243
  %246 = icmp eq i32 %52, %149
  br i1 %246, label %247, label %300

247:                                              ; preds = %245
  %248 = icmp eq i32 %68, %157
  br i1 %248, label %249, label %300

249:                                              ; preds = %247
  %250 = icmp eq i32 %84, %165
  br i1 %250, label %251, label %300

251:                                              ; preds = %249
  %252 = icmp eq i32 %100, %173
  br i1 %252, label %253, label %300

253:                                              ; preds = %251
  %254 = icmp eq i32 %116, %181
  br i1 %254, label %255, label %300

255:                                              ; preds = %253
  %256 = icmp eq i32 %22, %135
  br i1 %256, label %257, label %300

257:                                              ; preds = %255
  %258 = icmp eq i32 %38, %142
  br i1 %258, label %259, label %300

259:                                              ; preds = %257
  %260 = icmp eq i32 %54, %150
  br i1 %260, label %261, label %300

261:                                              ; preds = %259
  %262 = icmp eq i32 %70, %158
  br i1 %262, label %263, label %300

263:                                              ; preds = %261
  %264 = icmp eq i32 %86, %166
  br i1 %264, label %265, label %300

265:                                              ; preds = %263
  %266 = icmp eq i32 %102, %174
  br i1 %266, label %267, label %300

267:                                              ; preds = %265
  %268 = icmp eq i32 %118, %182
  br i1 %268, label %269, label %300

269:                                              ; preds = %267
  %270 = icmp eq i32 %24, %136
  br i1 %270, label %271, label %300

271:                                              ; preds = %269
  %272 = icmp eq i32 %40, %143
  br i1 %272, label %273, label %300

273:                                              ; preds = %271
  %274 = icmp eq i32 %56, %151
  br i1 %274, label %275, label %300

275:                                              ; preds = %273
  %276 = icmp eq i32 %72, %159
  br i1 %276, label %277, label %300

277:                                              ; preds = %275
  %278 = icmp eq i32 %88, %167
  br i1 %278, label %279, label %300

279:                                              ; preds = %277
  %280 = icmp eq i32 %104, %175
  br i1 %280, label %281, label %300

281:                                              ; preds = %279
  %282 = icmp eq i32 %120, %183
  br i1 %282, label %283, label %300

283:                                              ; preds = %281
  %284 = icmp eq i32 %26, %137
  br i1 %284, label %285, label %300

285:                                              ; preds = %283
  %286 = icmp eq i32 %42, %144
  br i1 %286, label %287, label %300

287:                                              ; preds = %285
  %288 = icmp eq i32 %58, %152
  br i1 %288, label %289, label %300

289:                                              ; preds = %287
  %290 = icmp eq i32 %74, %160
  br i1 %290, label %291, label %300

291:                                              ; preds = %289
  %292 = icmp eq i32 %90, %168
  br i1 %292, label %293, label %300

293:                                              ; preds = %291
  %294 = icmp eq i32 %106, %176
  br i1 %294, label %295, label %300

295:                                              ; preds = %293
  %296 = icmp eq i32 %122, %184
  br i1 %296, label %297, label %300

297:                                              ; preds = %295
  %298 = extractelement <8 x i32> %123, i64 0
  %299 = icmp eq i32 %12, %298
  br i1 %299, label %308, label %474

300:                                              ; preds = %295, %293, %291, %289, %287, %285, %283, %281, %279, %277, %275, %273, %271, %269, %267, %265, %263, %261, %259, %257, %255, %253, %251, %249, %247, %245, %243, %241, %239, %237, %235, %233, %231, %229, %227, %225, %223, %221, %219, %217, %215, %213, %211, %209, %207, %205, %203, %201, %199, %197, %195, %193, %191, %189, %186, %11
  %301 = phi i32 [ 0, %11 ], [ 0, %186 ], [ 0, %189 ], [ 0, %191 ], [ 0, %193 ], [ 0, %195 ], [ 0, %197 ], [ 1, %199 ], [ 1, %201 ], [ 1, %203 ], [ 1, %205 ], [ 1, %207 ], [ 1, %209 ], [ 1, %211 ], [ 2, %213 ], [ 2, %215 ], [ 2, %217 ], [ 2, %219 ], [ 2, %221 ], [ 2, %223 ], [ 2, %225 ], [ 3, %227 ], [ 3, %229 ], [ 3, %231 ], [ 3, %233 ], [ 3, %235 ], [ 3, %237 ], [ 3, %239 ], [ 4, %241 ], [ 4, %243 ], [ 4, %245 ], [ 4, %247 ], [ 4, %249 ], [ 4, %251 ], [ 4, %253 ], [ 5, %255 ], [ 5, %257 ], [ 5, %259 ], [ 5, %261 ], [ 5, %263 ], [ 5, %265 ], [ 5, %267 ], [ 6, %269 ], [ 6, %271 ], [ 6, %273 ], [ 6, %275 ], [ 6, %277 ], [ 6, %279 ], [ 6, %281 ], [ 7, %283 ], [ 7, %285 ], [ 7, %287 ], [ 7, %289 ], [ 7, %291 ], [ 7, %293 ], [ 7, %295 ]
  %302 = phi i32 [ 0, %11 ], [ 1, %186 ], [ 2, %189 ], [ 3, %191 ], [ 4, %193 ], [ 5, %195 ], [ 6, %197 ], [ 0, %199 ], [ 1, %201 ], [ 2, %203 ], [ 3, %205 ], [ 4, %207 ], [ 5, %209 ], [ 6, %211 ], [ 0, %213 ], [ 1, %215 ], [ 2, %217 ], [ 3, %219 ], [ 4, %221 ], [ 5, %223 ], [ 6, %225 ], [ 0, %227 ], [ 1, %229 ], [ 2, %231 ], [ 3, %233 ], [ 4, %235 ], [ 5, %237 ], [ 6, %239 ], [ 0, %241 ], [ 1, %243 ], [ 2, %245 ], [ 3, %247 ], [ 4, %249 ], [ 5, %251 ], [ 6, %253 ], [ 0, %255 ], [ 1, %257 ], [ 2, %259 ], [ 3, %261 ], [ 4, %263 ], [ 5, %265 ], [ 6, %267 ], [ 0, %269 ], [ 1, %271 ], [ 2, %273 ], [ 3, %275 ], [ 4, %277 ], [ 5, %279 ], [ 6, %281 ], [ 0, %283 ], [ 1, %285 ], [ 2, %287 ], [ 3, %289 ], [ 4, %291 ], [ 5, %293 ], [ 6, %295 ]
  %303 = call noundef nonnull align 8 dereferenceable(8) ptr @_ZStlsISt11char_traitsIcEERSt13basic_ostreamIcT_ES5_PKc(ptr noundef nonnull align 8 dereferenceable(8) @_ZSt4cerr, ptr noundef nonnull @.str)
  %304 = call noundef nonnull align 8 dereferenceable(8) ptr @_ZNSolsEj(ptr noundef nonnull align 8 dereferenceable(8) %303, i32 noundef %301)
  %305 = call noundef nonnull align 8 dereferenceable(8) ptr @_ZStlsISt11char_traitsIcEERSt13basic_ostreamIcT_ES5_PKc(ptr noundef nonnull align 8 dereferenceable(8) %304, ptr noundef nonnull @.str.1)
  %306 = call noundef nonnull align 8 dereferenceable(8) ptr @_ZNSolsEj(ptr noundef nonnull align 8 dereferenceable(8) %305, i32 noundef %302)
  %307 = call noundef nonnull align 8 dereferenceable(8) ptr @_ZStlsISt11char_traitsIcEERSt13basic_ostreamIcT_ES5_PKc(ptr noundef nonnull align 8 dereferenceable(8) %306, ptr noundef nonnull @.str.2)
  call void @exit(i32 noundef 1) #16
  unreachable

308:                                              ; preds = %297
  %309 = extractelement <8 x i32> %123, i64 1
  %310 = icmp eq i32 %26, %309
  br i1 %310, label %311, label %474

311:                                              ; preds = %308
  %312 = extractelement <8 x i32> %123, i64 2
  %313 = icmp eq i32 %40, %312
  br i1 %313, label %314, label %474

314:                                              ; preds = %311
  %315 = extractelement <8 x i32> %123, i64 3
  %316 = icmp eq i32 %54, %315
  br i1 %316, label %317, label %474

317:                                              ; preds = %314
  %318 = extractelement <8 x i32> %123, i64 4
  %319 = icmp eq i32 %68, %318
  br i1 %319, label %320, label %474

320:                                              ; preds = %317
  %321 = extractelement <8 x i32> %123, i64 5
  %322 = icmp eq i32 %82, %321
  br i1 %322, label %323, label %474

323:                                              ; preds = %320
  %324 = extractelement <8 x i32> %123, i64 6
  %325 = icmp eq i32 %96, %324
  br i1 %325, label %326, label %474

326:                                              ; preds = %323
  %327 = extractelement <8 x i32> %123, i64 7
  %328 = icmp eq i32 %110, %327
  br i1 %328, label %329, label %474

329:                                              ; preds = %326
  %330 = extractelement <8 x i32> %124, i64 0
  %331 = icmp eq i32 %14, %330
  br i1 %331, label %332, label %474

332:                                              ; preds = %329
  %333 = extractelement <8 x i32> %124, i64 1
  %334 = icmp eq i32 %28, %333
  br i1 %334, label %335, label %474

335:                                              ; preds = %332
  %336 = extractelement <8 x i32> %124, i64 2
  %337 = icmp eq i32 %42, %336
  br i1 %337, label %338, label %474

338:                                              ; preds = %335
  %339 = extractelement <8 x i32> %124, i64 3
  %340 = icmp eq i32 %56, %339
  br i1 %340, label %341, label %474

341:                                              ; preds = %338
  %342 = extractelement <8 x i32> %124, i64 4
  %343 = icmp eq i32 %70, %342
  br i1 %343, label %344, label %474

344:                                              ; preds = %341
  %345 = extractelement <8 x i32> %124, i64 5
  %346 = icmp eq i32 %84, %345
  br i1 %346, label %347, label %474

347:                                              ; preds = %344
  %348 = extractelement <8 x i32> %124, i64 6
  %349 = icmp eq i32 %98, %348
  br i1 %349, label %350, label %474

350:                                              ; preds = %347
  %351 = extractelement <8 x i32> %124, i64 7
  %352 = icmp eq i32 %112, %351
  br i1 %352, label %353, label %474

353:                                              ; preds = %350
  %354 = extractelement <8 x i32> %125, i64 0
  %355 = icmp eq i32 %16, %354
  br i1 %355, label %356, label %474

356:                                              ; preds = %353
  %357 = extractelement <8 x i32> %125, i64 1
  %358 = icmp eq i32 %30, %357
  br i1 %358, label %359, label %474

359:                                              ; preds = %356
  %360 = extractelement <8 x i32> %125, i64 2
  %361 = icmp eq i32 %44, %360
  br i1 %361, label %362, label %474

362:                                              ; preds = %359
  %363 = extractelement <8 x i32> %125, i64 3
  %364 = icmp eq i32 %58, %363
  br i1 %364, label %365, label %474

365:                                              ; preds = %362
  %366 = extractelement <8 x i32> %125, i64 4
  %367 = icmp eq i32 %72, %366
  br i1 %367, label %368, label %474

368:                                              ; preds = %365
  %369 = extractelement <8 x i32> %125, i64 5
  %370 = icmp eq i32 %86, %369
  br i1 %370, label %371, label %474

371:                                              ; preds = %368
  %372 = extractelement <8 x i32> %125, i64 6
  %373 = icmp eq i32 %100, %372
  br i1 %373, label %374, label %474

374:                                              ; preds = %371
  %375 = extractelement <8 x i32> %125, i64 7
  %376 = icmp eq i32 %114, %375
  br i1 %376, label %377, label %474

377:                                              ; preds = %374
  %378 = extractelement <8 x i32> %126, i64 0
  %379 = icmp eq i32 %18, %378
  br i1 %379, label %380, label %474

380:                                              ; preds = %377
  %381 = extractelement <8 x i32> %126, i64 1
  %382 = icmp eq i32 %32, %381
  br i1 %382, label %383, label %474

383:                                              ; preds = %380
  %384 = extractelement <8 x i32> %126, i64 2
  %385 = icmp eq i32 %46, %384
  br i1 %385, label %386, label %474

386:                                              ; preds = %383
  %387 = extractelement <8 x i32> %126, i64 3
  %388 = icmp eq i32 %60, %387
  br i1 %388, label %389, label %474

389:                                              ; preds = %386
  %390 = extractelement <8 x i32> %126, i64 4
  %391 = icmp eq i32 %74, %390
  br i1 %391, label %392, label %474

392:                                              ; preds = %389
  %393 = extractelement <8 x i32> %126, i64 5
  %394 = icmp eq i32 %88, %393
  br i1 %394, label %395, label %474

395:                                              ; preds = %392
  %396 = extractelement <8 x i32> %126, i64 6
  %397 = icmp eq i32 %102, %396
  br i1 %397, label %398, label %474

398:                                              ; preds = %395
  %399 = extractelement <8 x i32> %126, i64 7
  %400 = icmp eq i32 %116, %399
  br i1 %400, label %401, label %474

401:                                              ; preds = %398
  %402 = extractelement <8 x i32> %127, i64 0
  %403 = icmp eq i32 %20, %402
  br i1 %403, label %404, label %474

404:                                              ; preds = %401
  %405 = extractelement <8 x i32> %127, i64 1
  %406 = icmp eq i32 %34, %405
  br i1 %406, label %407, label %474

407:                                              ; preds = %404
  %408 = extractelement <8 x i32> %127, i64 2
  %409 = icmp eq i32 %48, %408
  br i1 %409, label %410, label %474

410:                                              ; preds = %407
  %411 = extractelement <8 x i32> %127, i64 3
  %412 = icmp eq i32 %62, %411
  br i1 %412, label %413, label %474

413:                                              ; preds = %410
  %414 = extractelement <8 x i32> %127, i64 4
  %415 = icmp eq i32 %76, %414
  br i1 %415, label %416, label %474

416:                                              ; preds = %413
  %417 = extractelement <8 x i32> %127, i64 5
  %418 = icmp eq i32 %90, %417
  br i1 %418, label %419, label %474

419:                                              ; preds = %416
  %420 = extractelement <8 x i32> %127, i64 6
  %421 = icmp eq i32 %104, %420
  br i1 %421, label %422, label %474

422:                                              ; preds = %419
  %423 = extractelement <8 x i32> %127, i64 7
  %424 = icmp eq i32 %118, %423
  br i1 %424, label %425, label %474

425:                                              ; preds = %422
  %426 = extractelement <8 x i32> %128, i64 0
  %427 = icmp eq i32 %22, %426
  br i1 %427, label %428, label %474

428:                                              ; preds = %425
  %429 = extractelement <8 x i32> %128, i64 1
  %430 = icmp eq i32 %36, %429
  br i1 %430, label %431, label %474

431:                                              ; preds = %428
  %432 = extractelement <8 x i32> %128, i64 2
  %433 = icmp eq i32 %50, %432
  br i1 %433, label %434, label %474

434:                                              ; preds = %431
  %435 = extractelement <8 x i32> %128, i64 3
  %436 = icmp eq i32 %64, %435
  br i1 %436, label %437, label %474

437:                                              ; preds = %434
  %438 = extractelement <8 x i32> %128, i64 4
  %439 = icmp eq i32 %78, %438
  br i1 %439, label %440, label %474

440:                                              ; preds = %437
  %441 = extractelement <8 x i32> %128, i64 5
  %442 = icmp eq i32 %92, %441
  br i1 %442, label %443, label %474

443:                                              ; preds = %440
  %444 = extractelement <8 x i32> %128, i64 6
  %445 = icmp eq i32 %106, %444
  br i1 %445, label %446, label %474

446:                                              ; preds = %443
  %447 = extractelement <8 x i32> %128, i64 7
  %448 = icmp eq i32 %120, %447
  br i1 %448, label %449, label %474

449:                                              ; preds = %446
  %450 = extractelement <8 x i32> %129, i64 0
  %451 = icmp eq i32 %24, %450
  br i1 %451, label %452, label %474

452:                                              ; preds = %449
  %453 = extractelement <8 x i32> %129, i64 1
  %454 = icmp eq i32 %38, %453
  br i1 %454, label %455, label %474

455:                                              ; preds = %452
  %456 = extractelement <8 x i32> %129, i64 2
  %457 = icmp eq i32 %52, %456
  br i1 %457, label %458, label %474

458:                                              ; preds = %455
  %459 = extractelement <8 x i32> %129, i64 3
  %460 = icmp eq i32 %66, %459
  br i1 %460, label %461, label %474

461:                                              ; preds = %458
  %462 = extractelement <8 x i32> %129, i64 4
  %463 = icmp eq i32 %80, %462
  br i1 %463, label %464, label %474

464:                                              ; preds = %461
  %465 = extractelement <8 x i32> %129, i64 5
  %466 = icmp eq i32 %94, %465
  br i1 %466, label %467, label %474

467:                                              ; preds = %464
  %468 = extractelement <8 x i32> %129, i64 6
  %469 = icmp eq i32 %108, %468
  br i1 %469, label %470, label %474

470:                                              ; preds = %467
  %471 = extractelement <8 x i32> %129, i64 7
  %472 = icmp eq i32 %122, %471
  br i1 %472, label %473, label %474

473:                                              ; preds = %470
  call void @llvm.lifetime.end.p0(i64 224, ptr nonnull %3) #15
  ret void

474:                                              ; preds = %470, %467, %464, %461, %458, %455, %452, %449, %446, %443, %440, %437, %434, %431, %428, %425, %422, %419, %416, %413, %410, %407, %404, %401, %398, %395, %392, %389, %386, %383, %380, %377, %374, %371, %368, %365, %362, %359, %356, %353, %350, %347, %344, %341, %338, %335, %332, %329, %326, %323, %320, %317, %314, %311, %308, %297
  %475 = phi i32 [ 0, %297 ], [ 0, %308 ], [ 0, %311 ], [ 0, %314 ], [ 0, %317 ], [ 0, %320 ], [ 0, %323 ], [ 0, %326 ], [ 1, %329 ], [ 1, %332 ], [ 1, %335 ], [ 1, %338 ], [ 1, %341 ], [ 1, %344 ], [ 1, %347 ], [ 1, %350 ], [ 2, %353 ], [ 2, %356 ], [ 2, %359 ], [ 2, %362 ], [ 2, %365 ], [ 2, %368 ], [ 2, %371 ], [ 2, %374 ], [ 3, %377 ], [ 3, %380 ], [ 3, %383 ], [ 3, %386 ], [ 3, %389 ], [ 3, %392 ], [ 3, %395 ], [ 3, %398 ], [ 4, %401 ], [ 4, %404 ], [ 4, %407 ], [ 4, %410 ], [ 4, %413 ], [ 4, %416 ], [ 4, %419 ], [ 4, %422 ], [ 5, %425 ], [ 5, %428 ], [ 5, %431 ], [ 5, %434 ], [ 5, %437 ], [ 5, %440 ], [ 5, %443 ], [ 5, %446 ], [ 6, %449 ], [ 6, %452 ], [ 6, %455 ], [ 6, %458 ], [ 6, %461 ], [ 6, %464 ], [ 6, %467 ], [ 6, %470 ]
  %476 = phi i32 [ 0, %297 ], [ 1, %308 ], [ 2, %311 ], [ 3, %314 ], [ 4, %317 ], [ 5, %320 ], [ 6, %323 ], [ 7, %326 ], [ 0, %329 ], [ 1, %332 ], [ 2, %335 ], [ 3, %338 ], [ 4, %341 ], [ 5, %344 ], [ 6, %347 ], [ 7, %350 ], [ 0, %353 ], [ 1, %356 ], [ 2, %359 ], [ 3, %362 ], [ 4, %365 ], [ 5, %368 ], [ 6, %371 ], [ 7, %374 ], [ 0, %377 ], [ 1, %380 ], [ 2, %383 ], [ 3, %386 ], [ 4, %389 ], [ 5, %392 ], [ 6, %395 ], [ 7, %398 ], [ 0, %401 ], [ 1, %404 ], [ 2, %407 ], [ 3, %410 ], [ 4, %413 ], [ 5, %416 ], [ 6, %419 ], [ 7, %422 ], [ 0, %425 ], [ 1, %428 ], [ 2, %431 ], [ 3, %434 ], [ 4, %437 ], [ 5, %440 ], [ 6, %443 ], [ 7, %446 ], [ 0, %449 ], [ 1, %452 ], [ 2, %455 ], [ 3, %458 ], [ 4, %461 ], [ 5, %464 ], [ 6, %467 ], [ 7, %470 ]
  %477 = call noundef nonnull align 8 dereferenceable(8) ptr @_ZStlsISt11char_traitsIcEERSt13basic_ostreamIcT_ES5_PKc(ptr noundef nonnull align 8 dereferenceable(8) @_ZSt4cerr, ptr noundef nonnull @.str)
  %478 = call noundef nonnull align 8 dereferenceable(8) ptr @_ZNSolsEj(ptr noundef nonnull align 8 dereferenceable(8) %477, i32 noundef %475)
  %479 = call noundef nonnull align 8 dereferenceable(8) ptr @_ZStlsISt11char_traitsIcEERSt13basic_ostreamIcT_ES5_PKc(ptr noundef nonnull align 8 dereferenceable(8) %478, ptr noundef nonnull @.str.1)
  %480 = call noundef nonnull align 8 dereferenceable(8) ptr @_ZNSolsEj(ptr noundef nonnull align 8 dereferenceable(8) %479, i32 noundef %476)
  %481 = call noundef nonnull align 8 dereferenceable(8) ptr @_ZStlsISt11char_traitsIcEERSt13basic_ostreamIcT_ES5_PKc(ptr noundef nonnull align 8 dereferenceable(8) %480, ptr noundef nonnull @.str.2)
  call void @exit(i32 noundef 1) #16
  unreachable
}

; Function Attrs: uwtable
define linkonce_odr dso_local void @_Z12testMultiplyIdLj3ELj3ELj3EEvv() local_unnamed_addr #7 comdat {
  %1 = alloca [9 x double], align 16
  %2 = alloca [9 x double], align 16
  %3 = alloca [9 x double], align 16
  %4 = alloca [9 x double], align 16
  %5 = alloca [9 x double], align 16
  call void @llvm.lifetime.start.p0(i64 72, ptr nonnull %1) #15
  call void @llvm.lifetime.start.p0(i64 72, ptr nonnull %2) #15
  call void @llvm.lifetime.start.p0(i64 72, ptr nonnull %3) #15
  call void @llvm.lifetime.start.p0(i64 72, ptr nonnull %4) #15
  call void @llvm.lifetime.start.p0(i64 72, ptr nonnull %5) #15
  br label %6

6:                                                ; preds = %63, %0
  %7 = phi i64 [ 0, %0 ], [ %67, %63 ]
  %8 = phi i64 [ 1, %0 ], [ %33, %63 ]
  %9 = tail call x86_fp80 @logl(x86_fp80 noundef 0xK401DFFFFFFFC00000000) #15
  %10 = tail call x86_fp80 @logl(x86_fp80 noundef 0xK40008000000000000000) #15
  %11 = fdiv x86_fp80 %9, %10
  %12 = fptoui x86_fp80 %11 to i64
  %13 = add i64 %12, 52
  %14 = udiv i64 %13, %12
  %15 = tail call i64 @llvm.umax.i64(i64 %14, i64 1)
  %16 = and i64 %15, 1
  %17 = icmp eq i64 %16, 0
  br i1 %17, label %24, label %18

18:                                               ; preds = %6
  %19 = mul nsw i64 %8, 16807
  %20 = urem i64 %19, 2147483647
  %21 = add nsw i64 %20, -1
  %22 = uitofp i64 %21 to double
  %23 = add i64 %15, -1
  br label %24

24:                                               ; preds = %18, %6
  %25 = phi i64 [ undef, %6 ], [ %20, %18 ]
  %26 = phi double [ undef, %6 ], [ %22, %18 ]
  %27 = phi i64 [ %15, %6 ], [ %23, %18 ]
  %28 = phi double [ 1.000000e+00, %6 ], [ 0x41DFFFFFFF800000, %18 ]
  %29 = phi double [ 0.000000e+00, %6 ], [ %22, %18 ]
  %30 = phi i64 [ %8, %6 ], [ %20, %18 ]
  %31 = icmp ult i64 %14, 2
  br i1 %31, label %32, label %38

32:                                               ; preds = %38, %24
  %33 = phi i64 [ %25, %24 ], [ %52, %38 ]
  %34 = phi double [ %26, %24 ], [ %55, %38 ]
  %35 = phi double [ 0x41DFFFFFFF800000, %24 ], [ %58, %38 ]
  %36 = fdiv double %34, %35
  %37 = fcmp ult double %36, 1.000000e+00
  br i1 %37, label %63, label %61, !prof !5

38:                                               ; preds = %24, %38
  %39 = phi i64 [ %59, %38 ], [ %27, %24 ]
  %40 = phi double [ %58, %38 ], [ %28, %24 ]
  %41 = phi double [ %55, %38 ], [ %29, %24 ]
  %42 = phi i64 [ %52, %38 ], [ %30, %24 ]
  %43 = mul nsw i64 %42, 16807
  %44 = urem i64 %43, 2147483647
  %45 = add nsw i64 %44, -1
  %46 = uitofp i64 %45 to double
  %47 = tail call double @llvm.fmuladd.f64(double %46, double %40, double %41)
  %48 = fpext double %40 to x86_fp80
  %49 = fmul x86_fp80 %48, 0xK401DFFFFFFFC00000000
  %50 = fptrunc x86_fp80 %49 to double
  %51 = mul nuw nsw i64 %44, 16807
  %52 = urem i64 %51, 2147483647
  %53 = add nsw i64 %52, -1
  %54 = uitofp i64 %53 to double
  %55 = tail call double @llvm.fmuladd.f64(double %54, double %50, double %47)
  %56 = fpext double %50 to x86_fp80
  %57 = fmul x86_fp80 %56, 0xK401DFFFFFFFC00000000
  %58 = fptrunc x86_fp80 %57 to double
  %59 = add i64 %39, -2
  %60 = icmp eq i64 %59, 0
  br i1 %60, label %32, label %38, !llvm.loop !6

61:                                               ; preds = %32
  %62 = tail call double @nextafter(double noundef 1.000000e+00, double noundef 0.000000e+00) #15
  br label %63

63:                                               ; preds = %61, %32
  %64 = phi double [ %62, %61 ], [ %36, %32 ]
  %65 = tail call double @llvm.fmuladd.f64(double %64, double 2.000000e+01, double -1.000000e+01)
  %66 = getelementptr inbounds double, ptr %1, i64 %7
  store double %65, ptr %66, align 8, !tbaa !8
  %67 = add nuw nsw i64 %7, 1
  %68 = icmp eq i64 %67, 9
  br i1 %68, label %69, label %6, !llvm.loop !12

69:                                               ; preds = %63, %126
  %70 = phi i64 [ %130, %126 ], [ 0, %63 ]
  %71 = phi i64 [ %96, %126 ], [ 1, %63 ]
  %72 = tail call x86_fp80 @logl(x86_fp80 noundef 0xK401DFFFFFFFC00000000) #15
  %73 = tail call x86_fp80 @logl(x86_fp80 noundef 0xK40008000000000000000) #15
  %74 = fdiv x86_fp80 %72, %73
  %75 = fptoui x86_fp80 %74 to i64
  %76 = add i64 %75, 52
  %77 = udiv i64 %76, %75
  %78 = tail call i64 @llvm.umax.i64(i64 %77, i64 1)
  %79 = and i64 %78, 1
  %80 = icmp eq i64 %79, 0
  br i1 %80, label %87, label %81

81:                                               ; preds = %69
  %82 = mul nsw i64 %71, 16807
  %83 = urem i64 %82, 2147483647
  %84 = add nsw i64 %83, -1
  %85 = uitofp i64 %84 to double
  %86 = add i64 %78, -1
  br label %87

87:                                               ; preds = %81, %69
  %88 = phi i64 [ undef, %69 ], [ %83, %81 ]
  %89 = phi double [ undef, %69 ], [ %85, %81 ]
  %90 = phi i64 [ %78, %69 ], [ %86, %81 ]
  %91 = phi double [ 1.000000e+00, %69 ], [ 0x41DFFFFFFF800000, %81 ]
  %92 = phi double [ 0.000000e+00, %69 ], [ %85, %81 ]
  %93 = phi i64 [ %71, %69 ], [ %83, %81 ]
  %94 = icmp ult i64 %77, 2
  br i1 %94, label %95, label %101

95:                                               ; preds = %101, %87
  %96 = phi i64 [ %88, %87 ], [ %115, %101 ]
  %97 = phi double [ %89, %87 ], [ %118, %101 ]
  %98 = phi double [ 0x41DFFFFFFF800000, %87 ], [ %121, %101 ]
  %99 = fdiv double %97, %98
  %100 = fcmp ult double %99, 1.000000e+00
  br i1 %100, label %126, label %124, !prof !5

101:                                              ; preds = %87, %101
  %102 = phi i64 [ %122, %101 ], [ %90, %87 ]
  %103 = phi double [ %121, %101 ], [ %91, %87 ]
  %104 = phi double [ %118, %101 ], [ %92, %87 ]
  %105 = phi i64 [ %115, %101 ], [ %93, %87 ]
  %106 = mul nsw i64 %105, 16807
  %107 = urem i64 %106, 2147483647
  %108 = add nsw i64 %107, -1
  %109 = uitofp i64 %108 to double
  %110 = tail call double @llvm.fmuladd.f64(double %109, double %103, double %104)
  %111 = fpext double %103 to x86_fp80
  %112 = fmul x86_fp80 %111, 0xK401DFFFFFFFC00000000
  %113 = fptrunc x86_fp80 %112 to double
  %114 = mul nuw nsw i64 %107, 16807
  %115 = urem i64 %114, 2147483647
  %116 = add nsw i64 %115, -1
  %117 = uitofp i64 %116 to double
  %118 = tail call double @llvm.fmuladd.f64(double %117, double %113, double %110)
  %119 = fpext double %113 to x86_fp80
  %120 = fmul x86_fp80 %119, 0xK401DFFFFFFFC00000000
  %121 = fptrunc x86_fp80 %120 to double
  %122 = add i64 %102, -2
  %123 = icmp eq i64 %122, 0
  br i1 %123, label %95, label %101, !llvm.loop !6

124:                                              ; preds = %95
  %125 = tail call double @nextafter(double noundef 1.000000e+00, double noundef 0.000000e+00) #15
  br label %126

126:                                              ; preds = %124, %95
  %127 = phi double [ %125, %124 ], [ %99, %95 ]
  %128 = tail call double @llvm.fmuladd.f64(double %127, double 2.000000e+01, double -1.000000e+01)
  %129 = getelementptr inbounds double, ptr %2, i64 %70
  store double %128, ptr %129, align 8, !tbaa !8
  %130 = add nuw nsw i64 %70, 1
  %131 = icmp eq i64 %130, 9
  br i1 %131, label %132, label %69, !llvm.loop !12

132:                                              ; preds = %126
  %133 = getelementptr inbounds double, ptr %3, i64 6
  %134 = getelementptr inbounds double, ptr %3, i64 4
  %135 = getelementptr inbounds double, ptr %3, i64 2
  %136 = getelementptr inbounds double, ptr %3, i64 5
  %137 = getelementptr inbounds double, ptr %3, i64 8
  %138 = getelementptr inbounds i8, ptr %3, i64 16
  call void @llvm.memset.p0.i64(ptr noundef nonnull align 16 dereferenceable(56) %138, i8 0, i64 56, i1 false)
  call void @llvm.memset.p0.i64(ptr noundef nonnull align 16 dereferenceable(72) %4, i8 0, i64 72, i1 false)
  call void @llvm.memset.p0.i64(ptr noundef nonnull align 16 dereferenceable(72) %5, i8 0, i64 72, i1 false)
  %139 = getelementptr inbounds double, ptr %1, i64 3
  %140 = getelementptr inbounds double, ptr %2, i64 1
  %141 = getelementptr inbounds double, ptr %1, i64 6
  %142 = getelementptr inbounds double, ptr %2, i64 2
  %143 = getelementptr inbounds double, ptr %2, i64 3
  %144 = getelementptr inbounds double, ptr %2, i64 4
  %145 = getelementptr inbounds double, ptr %2, i64 5
  %146 = getelementptr inbounds double, ptr %2, i64 6
  %147 = load double, ptr %146, align 16, !tbaa !8
  %148 = getelementptr inbounds double, ptr %2, i64 7
  %149 = load double, ptr %148, align 8, !tbaa !8
  %150 = getelementptr inbounds double, ptr %2, i64 8
  %151 = load double, ptr %150, align 16, !tbaa !8
  %152 = load <2 x double>, ptr %1, align 16, !tbaa !8
  %153 = load <2 x double>, ptr %139, align 8, !tbaa !8
  %154 = load <2 x double>, ptr %141, align 16, !tbaa !8
  %155 = insertelement <2 x double> poison, double %147, i64 0
  %156 = shufflevector <2 x double> %155, <2 x double> poison, <2 x i32> zeroinitializer
  %157 = tail call <2 x double> @llvm.fmuladd.v2f64(<2 x double> %152, <2 x double> %156, <2 x double> zeroinitializer)
  %158 = insertelement <2 x double> poison, double %149, i64 0
  %159 = shufflevector <2 x double> %158, <2 x double> poison, <2 x i32> zeroinitializer
  %160 = tail call <2 x double> @llvm.fmuladd.v2f64(<2 x double> %153, <2 x double> %159, <2 x double> %157)
  %161 = insertelement <2 x double> poison, double %151, i64 0
  %162 = shufflevector <2 x double> %161, <2 x double> poison, <2 x i32> zeroinitializer
  %163 = tail call <2 x double> @llvm.fmuladd.v2f64(<2 x double> %154, <2 x double> %162, <2 x double> %160)
  store <2 x double> %163, ptr %133, align 16, !tbaa !8
  %164 = getelementptr inbounds double, ptr %1, i64 2
  %165 = load double, ptr %135, align 16, !tbaa !8
  %166 = load double, ptr %164, align 16, !tbaa !8
  %167 = getelementptr inbounds double, ptr %1, i64 5
  %168 = load double, ptr %167, align 8, !tbaa !8
  %169 = getelementptr inbounds double, ptr %1, i64 8
  %170 = load double, ptr %169, align 16, !tbaa !8
  %171 = load <2 x double>, ptr %2, align 16
  %172 = load <2 x double>, ptr %140, align 8
  %173 = load <2 x double>, ptr %142, align 16
  %174 = load double, ptr %143, align 8, !tbaa !8
  %175 = load double, ptr %144, align 16, !tbaa !8
  %176 = load double, ptr %145, align 8, !tbaa !8
  %177 = shufflevector <2 x double> %171, <2 x double> poison, <2 x i32> zeroinitializer
  %178 = tail call <2 x double> @llvm.fmuladd.v2f64(<2 x double> %152, <2 x double> %177, <2 x double> zeroinitializer)
  %179 = shufflevector <2 x double> %172, <2 x double> poison, <2 x i32> zeroinitializer
  %180 = tail call <2 x double> @llvm.fmuladd.v2f64(<2 x double> %153, <2 x double> %179, <2 x double> %178)
  %181 = shufflevector <2 x double> %173, <2 x double> poison, <2 x i32> zeroinitializer
  %182 = tail call <2 x double> @llvm.fmuladd.v2f64(<2 x double> %154, <2 x double> %181, <2 x double> %180)
  store <2 x double> %182, ptr %3, align 16, !tbaa !8
  %183 = shufflevector <2 x double> %152, <2 x double> poison, <2 x i32> <i32 1, i32 0>
  %184 = insertelement <2 x double> %183, double %166, i64 0
  %185 = insertelement <2 x double> %171, double %174, i64 1
  %186 = insertelement <2 x double> <double poison, double 0.000000e+00>, double %165, i64 0
  %187 = tail call <2 x double> @llvm.fmuladd.v2f64(<2 x double> %184, <2 x double> %185, <2 x double> %186)
  %188 = shufflevector <2 x double> %153, <2 x double> poison, <2 x i32> <i32 1, i32 0>
  %189 = insertelement <2 x double> %188, double %168, i64 0
  %190 = insertelement <2 x double> %172, double %175, i64 1
  %191 = tail call <2 x double> @llvm.fmuladd.v2f64(<2 x double> %189, <2 x double> %190, <2 x double> %187)
  %192 = shufflevector <2 x double> %154, <2 x double> poison, <2 x i32> <i32 1, i32 0>
  %193 = insertelement <2 x double> %192, double %170, i64 0
  %194 = insertelement <2 x double> %173, double %176, i64 1
  %195 = tail call <2 x double> @llvm.fmuladd.v2f64(<2 x double> %193, <2 x double> %194, <2 x double> %191)
  store <2 x double> %195, ptr %135, align 16, !tbaa !8
  %196 = load double, ptr %136, align 8, !tbaa !8
  %197 = insertelement <2 x double> %183, double %166, i64 1
  %198 = insertelement <2 x double> poison, double %174, i64 0
  %199 = shufflevector <2 x double> %198, <2 x double> poison, <2 x i32> zeroinitializer
  %200 = insertelement <2 x double> <double 0.000000e+00, double poison>, double %196, i64 1
  %201 = tail call <2 x double> @llvm.fmuladd.v2f64(<2 x double> %197, <2 x double> %199, <2 x double> %200)
  %202 = insertelement <2 x double> %188, double %168, i64 1
  %203 = insertelement <2 x double> poison, double %175, i64 0
  %204 = shufflevector <2 x double> %203, <2 x double> poison, <2 x i32> zeroinitializer
  %205 = tail call <2 x double> @llvm.fmuladd.v2f64(<2 x double> %202, <2 x double> %204, <2 x double> %201)
  %206 = insertelement <2 x double> %192, double %170, i64 1
  %207 = insertelement <2 x double> poison, double %176, i64 0
  %208 = shufflevector <2 x double> %207, <2 x double> poison, <2 x i32> zeroinitializer
  %209 = tail call <2 x double> @llvm.fmuladd.v2f64(<2 x double> %206, <2 x double> %208, <2 x double> %205)
  store <2 x double> %209, ptr %134, align 16, !tbaa !8
  %210 = load double, ptr %137, align 16, !tbaa !8
  %211 = tail call double @llvm.fmuladd.f64(double %166, double %147, double %210)
  %212 = tail call double @llvm.fmuladd.f64(double %168, double %149, double %211)
  %213 = tail call double @llvm.fmuladd.f64(double %170, double %151, double %212)
  store double %213, ptr %137, align 16, !tbaa !8
  %214 = load <3 x double>, ptr %1, align 16
  %215 = load <3 x double>, ptr %139, align 8
  %216 = load <3 x double>, ptr %141, align 16
  %217 = load <3 x double>, ptr %2, align 16
  %218 = load <3 x double>, ptr %143, align 8
  %219 = load <3 x double>, ptr %146, align 16
  %220 = extractelement <3 x double> %214, i64 2
  %221 = extractelement <3 x double> %217, i64 0
  %222 = extractelement <3 x double> %217, i64 1
  %223 = extractelement <3 x double> %217, i64 2
  %224 = shufflevector <3 x double> %214, <3 x double> poison, <2 x i32> <i32 0, i32 1>
  %225 = shufflevector <3 x double> %217, <3 x double> poison, <2 x i32> zeroinitializer
  %226 = tail call <2 x double> @llvm.fmuladd.v2f64(<2 x double> %224, <2 x double> %225, <2 x double> zeroinitializer)
  %227 = shufflevector <3 x double> %215, <3 x double> poison, <2 x i32> <i32 0, i32 1>
  %228 = shufflevector <3 x double> %217, <3 x double> poison, <2 x i32> <i32 1, i32 1>
  %229 = tail call <2 x double> @llvm.fmuladd.v2f64(<2 x double> %227, <2 x double> %228, <2 x double> %226)
  %230 = shufflevector <3 x double> %216, <3 x double> poison, <2 x i32> <i32 0, i32 1>
  %231 = shufflevector <3 x double> %217, <3 x double> poison, <2 x i32> <i32 2, i32 2>
  %232 = tail call <2 x double> @llvm.fmuladd.v2f64(<2 x double> %230, <2 x double> %231, <2 x double> %229)
  %233 = shufflevector <2 x double> %232, <2 x double> poison, <3 x i32> <i32 0, i32 1, i32 undef>
  %234 = tail call double @llvm.fmuladd.f64(double %220, double %221, double 0.000000e+00)
  %235 = extractelement <3 x double> %215, i64 2
  %236 = tail call double @llvm.fmuladd.f64(double %235, double %222, double %234)
  %237 = extractelement <3 x double> %216, i64 2
  %238 = tail call double @llvm.fmuladd.f64(double %237, double %223, double %236)
  %239 = insertelement <3 x double> %233, double %238, i64 2
  %240 = extractelement <3 x double> %218, i64 0
  %241 = extractelement <3 x double> %218, i64 1
  %242 = extractelement <3 x double> %218, i64 2
  %243 = shufflevector <3 x double> %218, <3 x double> poison, <2 x i32> zeroinitializer
  %244 = tail call <2 x double> @llvm.fmuladd.v2f64(<2 x double> %224, <2 x double> %243, <2 x double> zeroinitializer)
  %245 = shufflevector <3 x double> %218, <3 x double> poison, <2 x i32> <i32 1, i32 1>
  %246 = tail call <2 x double> @llvm.fmuladd.v2f64(<2 x double> %227, <2 x double> %245, <2 x double> %244)
  %247 = shufflevector <3 x double> %218, <3 x double> poison, <2 x i32> <i32 2, i32 2>
  %248 = tail call <2 x double> @llvm.fmuladd.v2f64(<2 x double> %230, <2 x double> %247, <2 x double> %246)
  %249 = shufflevector <2 x double> %248, <2 x double> poison, <3 x i32> <i32 0, i32 1, i32 undef>
  %250 = tail call double @llvm.fmuladd.f64(double %220, double %240, double 0.000000e+00)
  %251 = tail call double @llvm.fmuladd.f64(double %235, double %241, double %250)
  %252 = tail call double @llvm.fmuladd.f64(double %237, double %242, double %251)
  %253 = insertelement <3 x double> %249, double %252, i64 2
  %254 = extractelement <3 x double> %219, i64 0
  %255 = extractelement <3 x double> %219, i64 1
  %256 = extractelement <3 x double> %219, i64 2
  %257 = shufflevector <3 x double> %219, <3 x double> poison, <2 x i32> zeroinitializer
  %258 = tail call <2 x double> @llvm.fmuladd.v2f64(<2 x double> %224, <2 x double> %257, <2 x double> zeroinitializer)
  %259 = shufflevector <3 x double> %219, <3 x double> poison, <2 x i32> <i32 1, i32 1>
  %260 = tail call <2 x double> @llvm.fmuladd.v2f64(<2 x double> %227, <2 x double> %259, <2 x double> %258)
  %261 = shufflevector <3 x double> %219, <3 x double> poison, <2 x i32> <i32 2, i32 2>
  %262 = tail call <2 x double> @llvm.fmuladd.v2f64(<2 x double> %230, <2 x double> %261, <2 x double> %260)
  %263 = shufflevector <2 x double> %262, <2 x double> poison, <3 x i32> <i32 0, i32 1, i32 undef>
  %264 = tail call double @llvm.fmuladd.f64(double %220, double %254, double 0.000000e+00)
  %265 = tail call double @llvm.fmuladd.f64(double %235, double %255, double %264)
  %266 = tail call double @llvm.fmuladd.f64(double %237, double %256, double %265)
  %267 = insertelement <3 x double> %263, double %266, i64 2
  store <3 x double> %239, ptr %4, align 16
  %268 = getelementptr inbounds double, ptr %4, i64 3
  store <3 x double> %253, ptr %268, align 8
  %269 = getelementptr inbounds double, ptr %4, i64 6
  store <3 x double> %267, ptr %269, align 16
  %270 = shufflevector <3 x double> %217, <3 x double> undef, <2 x i32> zeroinitializer
  %271 = fmul <2 x double> %224, %270
  %272 = shufflevector <3 x double> %217, <3 x double> undef, <2 x i32> <i32 1, i32 1>
  %273 = fmul <2 x double> %227, %272
  %274 = fadd <2 x double> %271, %273
  %275 = shufflevector <3 x double> %217, <3 x double> undef, <2 x i32> <i32 2, i32 2>
  %276 = fmul <2 x double> %230, %275
  %277 = fadd <2 x double> %274, %276
  %278 = shufflevector <2 x double> %277, <2 x double> poison, <3 x i32> <i32 0, i32 1, i32 undef>
  %279 = shufflevector <3 x double> %214, <3 x double> poison, <1 x i32> <i32 2>
  %280 = shufflevector <3 x double> %217, <3 x double> undef, <1 x i32> zeroinitializer
  %281 = fmul <1 x double> %279, %280
  %282 = shufflevector <3 x double> %215, <3 x double> poison, <1 x i32> <i32 2>
  %283 = shufflevector <3 x double> %217, <3 x double> undef, <1 x i32> <i32 1>
  %284 = fmul <1 x double> %282, %283
  %285 = fadd <1 x double> %281, %284
  %286 = fmul <3 x double> %216, %217
  %287 = shufflevector <3 x double> %286, <3 x double> poison, <1 x i32> <i32 2>
  %288 = fadd <1 x double> %285, %287
  %289 = shufflevector <1 x double> %288, <1 x double> poison, <3 x i32> <i32 0, i32 undef, i32 undef>
  %290 = shufflevector <3 x double> %278, <3 x double> %289, <3 x i32> <i32 0, i32 1, i32 3>
  %291 = shufflevector <3 x double> %218, <3 x double> undef, <2 x i32> zeroinitializer
  %292 = fmul <2 x double> %224, %291
  %293 = shufflevector <3 x double> %218, <3 x double> undef, <2 x i32> <i32 1, i32 1>
  %294 = fmul <2 x double> %227, %293
  %295 = fadd <2 x double> %292, %294
  %296 = shufflevector <3 x double> %218, <3 x double> undef, <2 x i32> <i32 2, i32 2>
  %297 = fmul <2 x double> %230, %296
  %298 = fadd <2 x double> %295, %297
  %299 = shufflevector <2 x double> %298, <2 x double> poison, <3 x i32> <i32 0, i32 1, i32 undef>
  %300 = shufflevector <3 x double> %218, <3 x double> undef, <1 x i32> zeroinitializer
  %301 = fmul <1 x double> %279, %300
  %302 = shufflevector <3 x double> %218, <3 x double> undef, <1 x i32> <i32 1>
  %303 = fmul <1 x double> %282, %302
  %304 = fadd <1 x double> %301, %303
  %305 = fmul <3 x double> %216, %218
  %306 = shufflevector <3 x double> %305, <3 x double> poison, <1 x i32> <i32 2>
  %307 = fadd <1 x double> %304, %306
  %308 = shufflevector <1 x double> %307, <1 x double> poison, <3 x i32> <i32 0, i32 undef, i32 undef>
  %309 = shufflevector <3 x double> %299, <3 x double> %308, <3 x i32> <i32 0, i32 1, i32 3>
  %310 = shufflevector <3 x double> %219, <3 x double> undef, <2 x i32> zeroinitializer
  %311 = fmul <2 x double> %224, %310
  %312 = shufflevector <3 x double> %219, <3 x double> undef, <2 x i32> <i32 1, i32 1>
  %313 = fmul <2 x double> %227, %312
  %314 = fadd <2 x double> %311, %313
  %315 = shufflevector <3 x double> %219, <3 x double> undef, <2 x i32> <i32 2, i32 2>
  %316 = fmul <2 x double> %230, %315
  %317 = fadd <2 x double> %314, %316
  %318 = shufflevector <2 x double> %317, <2 x double> poison, <3 x i32> <i32 0, i32 1, i32 undef>
  %319 = shufflevector <3 x double> %219, <3 x double> undef, <1 x i32> zeroinitializer
  %320 = fmul <1 x double> %279, %319
  %321 = shufflevector <3 x double> %219, <3 x double> undef, <1 x i32> <i32 1>
  %322 = fmul <1 x double> %282, %321
  %323 = fadd <1 x double> %320, %322
  %324 = fmul <3 x double> %216, %219
  %325 = shufflevector <3 x double> %324, <3 x double> poison, <1 x i32> <i32 2>
  %326 = fadd <1 x double> %323, %325
  %327 = shufflevector <1 x double> %326, <1 x double> poison, <3 x i32> <i32 0, i32 undef, i32 undef>
  %328 = shufflevector <3 x double> %318, <3 x double> %327, <3 x i32> <i32 0, i32 1, i32 3>
  store <3 x double> %290, ptr %5, align 16
  %329 = getelementptr inbounds double, ptr %5, i64 3
  store <3 x double> %309, ptr %329, align 8
  %330 = getelementptr inbounds double, ptr %5, i64 6
  store <3 x double> %328, ptr %330, align 16
  call void @_Z14expectMatrixEQIdLi0EEvPT_S1_jj(ptr noundef nonnull %4, ptr noundef nonnull %5, i32 noundef 3, i32 noundef 3)
  call void @_Z14expectMatrixEQIdLi0EEvPT_S1_jj(ptr noundef nonnull %3, ptr noundef nonnull %5, i32 noundef 3, i32 noundef 3)
  call void @_Z14expectMatrixEQIdLi0EEvPT_S1_jj(ptr noundef nonnull %3, ptr noundef nonnull %4, i32 noundef 3, i32 noundef 3)
  call void @llvm.lifetime.end.p0(i64 72, ptr nonnull %5) #15
  call void @llvm.lifetime.end.p0(i64 72, ptr nonnull %4) #15
  call void @llvm.lifetime.end.p0(i64 72, ptr nonnull %3) #15
  call void @llvm.lifetime.end.p0(i64 72, ptr nonnull %2) #15
  call void @llvm.lifetime.end.p0(i64 72, ptr nonnull %1) #15
  ret void
}

; Function Attrs: uwtable
define linkonce_odr dso_local void @_Z12testMultiplyIdLj10ELj21ELj23EEvv() local_unnamed_addr #7 comdat {
  %1 = alloca [210 x double], align 16
  %2 = alloca [483 x double], align 16
  %3 = alloca [230 x double], align 16
  %4 = alloca [230 x double], align 16
  %5 = alloca [230 x double], align 16
  call void @llvm.lifetime.start.p0(i64 1680, ptr nonnull %1) #15
  call void @llvm.lifetime.start.p0(i64 3864, ptr nonnull %2) #15
  call void @llvm.lifetime.start.p0(i64 1840, ptr nonnull %3) #15
  call void @llvm.lifetime.start.p0(i64 1840, ptr nonnull %4) #15
  call void @llvm.lifetime.start.p0(i64 1840, ptr nonnull %5) #15
  br label %6

6:                                                ; preds = %63, %0
  %7 = phi i64 [ 0, %0 ], [ %67, %63 ]
  %8 = phi i64 [ 1, %0 ], [ %33, %63 ]
  %9 = tail call x86_fp80 @logl(x86_fp80 noundef 0xK401DFFFFFFFC00000000) #15
  %10 = tail call x86_fp80 @logl(x86_fp80 noundef 0xK40008000000000000000) #15
  %11 = fdiv x86_fp80 %9, %10
  %12 = fptoui x86_fp80 %11 to i64
  %13 = add i64 %12, 52
  %14 = udiv i64 %13, %12
  %15 = tail call i64 @llvm.umax.i64(i64 %14, i64 1)
  %16 = and i64 %15, 1
  %17 = icmp eq i64 %16, 0
  br i1 %17, label %24, label %18

18:                                               ; preds = %6
  %19 = mul nsw i64 %8, 16807
  %20 = urem i64 %19, 2147483647
  %21 = add nsw i64 %20, -1
  %22 = uitofp i64 %21 to double
  %23 = add i64 %15, -1
  br label %24

24:                                               ; preds = %18, %6
  %25 = phi i64 [ undef, %6 ], [ %20, %18 ]
  %26 = phi double [ undef, %6 ], [ %22, %18 ]
  %27 = phi i64 [ %15, %6 ], [ %23, %18 ]
  %28 = phi double [ 1.000000e+00, %6 ], [ 0x41DFFFFFFF800000, %18 ]
  %29 = phi double [ 0.000000e+00, %6 ], [ %22, %18 ]
  %30 = phi i64 [ %8, %6 ], [ %20, %18 ]
  %31 = icmp ult i64 %14, 2
  br i1 %31, label %32, label %38

32:                                               ; preds = %38, %24
  %33 = phi i64 [ %25, %24 ], [ %52, %38 ]
  %34 = phi double [ %26, %24 ], [ %55, %38 ]
  %35 = phi double [ 0x41DFFFFFFF800000, %24 ], [ %58, %38 ]
  %36 = fdiv double %34, %35
  %37 = fcmp ult double %36, 1.000000e+00
  br i1 %37, label %63, label %61, !prof !5

38:                                               ; preds = %24, %38
  %39 = phi i64 [ %59, %38 ], [ %27, %24 ]
  %40 = phi double [ %58, %38 ], [ %28, %24 ]
  %41 = phi double [ %55, %38 ], [ %29, %24 ]
  %42 = phi i64 [ %52, %38 ], [ %30, %24 ]
  %43 = mul nsw i64 %42, 16807
  %44 = urem i64 %43, 2147483647
  %45 = add nsw i64 %44, -1
  %46 = uitofp i64 %45 to double
  %47 = tail call double @llvm.fmuladd.f64(double %46, double %40, double %41)
  %48 = fpext double %40 to x86_fp80
  %49 = fmul x86_fp80 %48, 0xK401DFFFFFFFC00000000
  %50 = fptrunc x86_fp80 %49 to double
  %51 = mul nuw nsw i64 %44, 16807
  %52 = urem i64 %51, 2147483647
  %53 = add nsw i64 %52, -1
  %54 = uitofp i64 %53 to double
  %55 = tail call double @llvm.fmuladd.f64(double %54, double %50, double %47)
  %56 = fpext double %50 to x86_fp80
  %57 = fmul x86_fp80 %56, 0xK401DFFFFFFFC00000000
  %58 = fptrunc x86_fp80 %57 to double
  %59 = add i64 %39, -2
  %60 = icmp eq i64 %59, 0
  br i1 %60, label %32, label %38, !llvm.loop !6

61:                                               ; preds = %32
  %62 = tail call double @nextafter(double noundef 1.000000e+00, double noundef 0.000000e+00) #15
  br label %63

63:                                               ; preds = %61, %32
  %64 = phi double [ %62, %61 ], [ %36, %32 ]
  %65 = tail call double @llvm.fmuladd.f64(double %64, double 2.000000e+01, double -1.000000e+01)
  %66 = getelementptr inbounds double, ptr %1, i64 %7
  store double %65, ptr %66, align 8, !tbaa !8
  %67 = add nuw nsw i64 %7, 1
  %68 = icmp eq i64 %67, 210
  br i1 %68, label %69, label %6, !llvm.loop !12

69:                                               ; preds = %63, %126
  %70 = phi i64 [ %130, %126 ], [ 0, %63 ]
  %71 = phi i64 [ %96, %126 ], [ 1, %63 ]
  %72 = tail call x86_fp80 @logl(x86_fp80 noundef 0xK401DFFFFFFFC00000000) #15
  %73 = tail call x86_fp80 @logl(x86_fp80 noundef 0xK40008000000000000000) #15
  %74 = fdiv x86_fp80 %72, %73
  %75 = fptoui x86_fp80 %74 to i64
  %76 = add i64 %75, 52
  %77 = udiv i64 %76, %75
  %78 = tail call i64 @llvm.umax.i64(i64 %77, i64 1)
  %79 = and i64 %78, 1
  %80 = icmp eq i64 %79, 0
  br i1 %80, label %87, label %81

81:                                               ; preds = %69
  %82 = mul nsw i64 %71, 16807
  %83 = urem i64 %82, 2147483647
  %84 = add nsw i64 %83, -1
  %85 = uitofp i64 %84 to double
  %86 = add i64 %78, -1
  br label %87

87:                                               ; preds = %81, %69
  %88 = phi i64 [ undef, %69 ], [ %83, %81 ]
  %89 = phi double [ undef, %69 ], [ %85, %81 ]
  %90 = phi i64 [ %78, %69 ], [ %86, %81 ]
  %91 = phi double [ 1.000000e+00, %69 ], [ 0x41DFFFFFFF800000, %81 ]
  %92 = phi double [ 0.000000e+00, %69 ], [ %85, %81 ]
  %93 = phi i64 [ %71, %69 ], [ %83, %81 ]
  %94 = icmp ult i64 %77, 2
  br i1 %94, label %95, label %101

95:                                               ; preds = %101, %87
  %96 = phi i64 [ %88, %87 ], [ %115, %101 ]
  %97 = phi double [ %89, %87 ], [ %118, %101 ]
  %98 = phi double [ 0x41DFFFFFFF800000, %87 ], [ %121, %101 ]
  %99 = fdiv double %97, %98
  %100 = fcmp ult double %99, 1.000000e+00
  br i1 %100, label %126, label %124, !prof !5

101:                                              ; preds = %87, %101
  %102 = phi i64 [ %122, %101 ], [ %90, %87 ]
  %103 = phi double [ %121, %101 ], [ %91, %87 ]
  %104 = phi double [ %118, %101 ], [ %92, %87 ]
  %105 = phi i64 [ %115, %101 ], [ %93, %87 ]
  %106 = mul nsw i64 %105, 16807
  %107 = urem i64 %106, 2147483647
  %108 = add nsw i64 %107, -1
  %109 = uitofp i64 %108 to double
  %110 = tail call double @llvm.fmuladd.f64(double %109, double %103, double %104)
  %111 = fpext double %103 to x86_fp80
  %112 = fmul x86_fp80 %111, 0xK401DFFFFFFFC00000000
  %113 = fptrunc x86_fp80 %112 to double
  %114 = mul nuw nsw i64 %107, 16807
  %115 = urem i64 %114, 2147483647
  %116 = add nsw i64 %115, -1
  %117 = uitofp i64 %116 to double
  %118 = tail call double @llvm.fmuladd.f64(double %117, double %113, double %110)
  %119 = fpext double %113 to x86_fp80
  %120 = fmul x86_fp80 %119, 0xK401DFFFFFFFC00000000
  %121 = fptrunc x86_fp80 %120 to double
  %122 = add i64 %102, -2
  %123 = icmp eq i64 %122, 0
  br i1 %123, label %95, label %101, !llvm.loop !6

124:                                              ; preds = %95
  %125 = tail call double @nextafter(double noundef 1.000000e+00, double noundef 0.000000e+00) #15
  br label %126

126:                                              ; preds = %124, %95
  %127 = phi double [ %125, %124 ], [ %99, %95 ]
  %128 = tail call double @llvm.fmuladd.f64(double %127, double 2.000000e+01, double -1.000000e+01)
  %129 = getelementptr inbounds double, ptr %2, i64 %70
  store double %128, ptr %129, align 8, !tbaa !8
  %130 = add nuw nsw i64 %70, 1
  %131 = icmp eq i64 %130, 483
  br i1 %131, label %132, label %69, !llvm.loop !12

132:                                              ; preds = %126
  store <2 x double> zeroinitializer, ptr %3, align 16, !tbaa !8
  %133 = getelementptr inbounds double, ptr %3, i64 10
  store <2 x double> zeroinitializer, ptr %133, align 16, !tbaa !8
  %134 = getelementptr inbounds double, ptr %3, i64 20
  store <2 x double> zeroinitializer, ptr %134, align 16, !tbaa !8
  %135 = getelementptr inbounds double, ptr %3, i64 30
  store <2 x double> zeroinitializer, ptr %135, align 16, !tbaa !8
  %136 = getelementptr inbounds double, ptr %3, i64 40
  store <2 x double> zeroinitializer, ptr %136, align 16, !tbaa !8
  %137 = getelementptr inbounds double, ptr %3, i64 50
  store <2 x double> zeroinitializer, ptr %137, align 16, !tbaa !8
  %138 = getelementptr inbounds double, ptr %3, i64 60
  store <2 x double> zeroinitializer, ptr %138, align 16, !tbaa !8
  %139 = getelementptr inbounds double, ptr %3, i64 70
  store <2 x double> zeroinitializer, ptr %139, align 16, !tbaa !8
  %140 = getelementptr inbounds double, ptr %3, i64 80
  store <2 x double> zeroinitializer, ptr %140, align 16, !tbaa !8
  %141 = getelementptr inbounds double, ptr %3, i64 90
  store <2 x double> zeroinitializer, ptr %141, align 16, !tbaa !8
  %142 = getelementptr inbounds double, ptr %3, i64 100
  store <2 x double> zeroinitializer, ptr %142, align 16, !tbaa !8
  %143 = getelementptr inbounds double, ptr %3, i64 110
  store <2 x double> zeroinitializer, ptr %143, align 16, !tbaa !8
  %144 = getelementptr inbounds double, ptr %3, i64 120
  store <2 x double> zeroinitializer, ptr %144, align 16, !tbaa !8
  %145 = getelementptr inbounds double, ptr %3, i64 130
  store <2 x double> zeroinitializer, ptr %145, align 16, !tbaa !8
  %146 = getelementptr inbounds double, ptr %3, i64 140
  store <2 x double> zeroinitializer, ptr %146, align 16, !tbaa !8
  %147 = getelementptr inbounds double, ptr %3, i64 150
  store <2 x double> zeroinitializer, ptr %147, align 16, !tbaa !8
  %148 = getelementptr inbounds double, ptr %3, i64 160
  store <2 x double> zeroinitializer, ptr %148, align 16, !tbaa !8
  %149 = getelementptr inbounds double, ptr %3, i64 170
  store <2 x double> zeroinitializer, ptr %149, align 16, !tbaa !8
  %150 = getelementptr inbounds double, ptr %3, i64 180
  store <2 x double> zeroinitializer, ptr %150, align 16, !tbaa !8
  %151 = getelementptr inbounds double, ptr %3, i64 190
  store <2 x double> zeroinitializer, ptr %151, align 16, !tbaa !8
  %152 = getelementptr inbounds double, ptr %3, i64 200
  store <2 x double> zeroinitializer, ptr %152, align 16, !tbaa !8
  %153 = getelementptr inbounds double, ptr %3, i64 210
  store <2 x double> zeroinitializer, ptr %153, align 16, !tbaa !8
  %154 = getelementptr inbounds double, ptr %3, i64 220
  store <2 x double> zeroinitializer, ptr %154, align 16, !tbaa !8
  %155 = getelementptr inbounds double, ptr %3, i64 2
  store <2 x double> zeroinitializer, ptr %155, align 16, !tbaa !8
  %156 = getelementptr inbounds double, ptr %3, i64 12
  store <2 x double> zeroinitializer, ptr %156, align 16, !tbaa !8
  %157 = getelementptr inbounds double, ptr %3, i64 22
  store <2 x double> zeroinitializer, ptr %157, align 16, !tbaa !8
  %158 = getelementptr inbounds double, ptr %3, i64 32
  store <2 x double> zeroinitializer, ptr %158, align 16, !tbaa !8
  %159 = getelementptr inbounds double, ptr %3, i64 42
  store <2 x double> zeroinitializer, ptr %159, align 16, !tbaa !8
  %160 = getelementptr inbounds double, ptr %3, i64 52
  store <2 x double> zeroinitializer, ptr %160, align 16, !tbaa !8
  %161 = getelementptr inbounds double, ptr %3, i64 62
  store <2 x double> zeroinitializer, ptr %161, align 16, !tbaa !8
  %162 = getelementptr inbounds double, ptr %3, i64 72
  store <2 x double> zeroinitializer, ptr %162, align 16, !tbaa !8
  %163 = getelementptr inbounds double, ptr %3, i64 82
  store <2 x double> zeroinitializer, ptr %163, align 16, !tbaa !8
  %164 = getelementptr inbounds double, ptr %3, i64 92
  store <2 x double> zeroinitializer, ptr %164, align 16, !tbaa !8
  %165 = getelementptr inbounds double, ptr %3, i64 102
  store <2 x double> zeroinitializer, ptr %165, align 16, !tbaa !8
  %166 = getelementptr inbounds double, ptr %3, i64 112
  store <2 x double> zeroinitializer, ptr %166, align 16, !tbaa !8
  %167 = getelementptr inbounds double, ptr %3, i64 122
  store <2 x double> zeroinitializer, ptr %167, align 16, !tbaa !8
  %168 = getelementptr inbounds double, ptr %3, i64 132
  store <2 x double> zeroinitializer, ptr %168, align 16, !tbaa !8
  %169 = getelementptr inbounds double, ptr %3, i64 142
  store <2 x double> zeroinitializer, ptr %169, align 16, !tbaa !8
  %170 = getelementptr inbounds double, ptr %3, i64 152
  store <2 x double> zeroinitializer, ptr %170, align 16, !tbaa !8
  %171 = getelementptr inbounds double, ptr %3, i64 162
  store <2 x double> zeroinitializer, ptr %171, align 16, !tbaa !8
  %172 = getelementptr inbounds double, ptr %3, i64 172
  store <2 x double> zeroinitializer, ptr %172, align 16, !tbaa !8
  %173 = getelementptr inbounds double, ptr %3, i64 182
  store <2 x double> zeroinitializer, ptr %173, align 16, !tbaa !8
  %174 = getelementptr inbounds double, ptr %3, i64 192
  store <2 x double> zeroinitializer, ptr %174, align 16, !tbaa !8
  %175 = getelementptr inbounds double, ptr %3, i64 202
  store <2 x double> zeroinitializer, ptr %175, align 16, !tbaa !8
  %176 = getelementptr inbounds double, ptr %3, i64 212
  store <2 x double> zeroinitializer, ptr %176, align 16, !tbaa !8
  %177 = getelementptr inbounds double, ptr %3, i64 222
  store <2 x double> zeroinitializer, ptr %177, align 16, !tbaa !8
  %178 = getelementptr inbounds double, ptr %3, i64 4
  store <2 x double> zeroinitializer, ptr %178, align 16, !tbaa !8
  %179 = getelementptr inbounds double, ptr %3, i64 14
  store <2 x double> zeroinitializer, ptr %179, align 16, !tbaa !8
  %180 = getelementptr inbounds double, ptr %3, i64 24
  store <2 x double> zeroinitializer, ptr %180, align 16, !tbaa !8
  %181 = getelementptr inbounds double, ptr %3, i64 34
  store <2 x double> zeroinitializer, ptr %181, align 16, !tbaa !8
  %182 = getelementptr inbounds double, ptr %3, i64 44
  store <2 x double> zeroinitializer, ptr %182, align 16, !tbaa !8
  %183 = getelementptr inbounds double, ptr %3, i64 54
  store <2 x double> zeroinitializer, ptr %183, align 16, !tbaa !8
  %184 = getelementptr inbounds double, ptr %3, i64 64
  store <2 x double> zeroinitializer, ptr %184, align 16, !tbaa !8
  %185 = getelementptr inbounds double, ptr %3, i64 74
  store <2 x double> zeroinitializer, ptr %185, align 16, !tbaa !8
  %186 = getelementptr inbounds double, ptr %3, i64 84
  store <2 x double> zeroinitializer, ptr %186, align 16, !tbaa !8
  %187 = getelementptr inbounds double, ptr %3, i64 94
  store <2 x double> zeroinitializer, ptr %187, align 16, !tbaa !8
  %188 = getelementptr inbounds double, ptr %3, i64 104
  store <2 x double> zeroinitializer, ptr %188, align 16, !tbaa !8
  %189 = getelementptr inbounds double, ptr %3, i64 114
  store <2 x double> zeroinitializer, ptr %189, align 16, !tbaa !8
  %190 = getelementptr inbounds double, ptr %3, i64 124
  store <2 x double> zeroinitializer, ptr %190, align 16, !tbaa !8
  %191 = getelementptr inbounds double, ptr %3, i64 134
  store <2 x double> zeroinitializer, ptr %191, align 16, !tbaa !8
  %192 = getelementptr inbounds double, ptr %3, i64 144
  store <2 x double> zeroinitializer, ptr %192, align 16, !tbaa !8
  %193 = getelementptr inbounds double, ptr %3, i64 154
  store <2 x double> zeroinitializer, ptr %193, align 16, !tbaa !8
  %194 = getelementptr inbounds double, ptr %3, i64 164
  store <2 x double> zeroinitializer, ptr %194, align 16, !tbaa !8
  %195 = getelementptr inbounds double, ptr %3, i64 174
  store <2 x double> zeroinitializer, ptr %195, align 16, !tbaa !8
  %196 = getelementptr inbounds double, ptr %3, i64 184
  store <2 x double> zeroinitializer, ptr %196, align 16, !tbaa !8
  %197 = getelementptr inbounds double, ptr %3, i64 194
  store <2 x double> zeroinitializer, ptr %197, align 16, !tbaa !8
  %198 = getelementptr inbounds double, ptr %3, i64 204
  store <2 x double> zeroinitializer, ptr %198, align 16, !tbaa !8
  %199 = getelementptr inbounds double, ptr %3, i64 214
  store <2 x double> zeroinitializer, ptr %199, align 16, !tbaa !8
  %200 = getelementptr inbounds double, ptr %3, i64 224
  store <2 x double> zeroinitializer, ptr %200, align 16, !tbaa !8
  %201 = getelementptr inbounds double, ptr %3, i64 6
  store <2 x double> zeroinitializer, ptr %201, align 16, !tbaa !8
  %202 = getelementptr inbounds double, ptr %3, i64 16
  store <2 x double> zeroinitializer, ptr %202, align 16, !tbaa !8
  %203 = getelementptr inbounds double, ptr %3, i64 26
  store <2 x double> zeroinitializer, ptr %203, align 16, !tbaa !8
  %204 = getelementptr inbounds double, ptr %3, i64 36
  store <2 x double> zeroinitializer, ptr %204, align 16, !tbaa !8
  %205 = getelementptr inbounds double, ptr %3, i64 46
  store <2 x double> zeroinitializer, ptr %205, align 16, !tbaa !8
  %206 = getelementptr inbounds double, ptr %3, i64 56
  store <2 x double> zeroinitializer, ptr %206, align 16, !tbaa !8
  %207 = getelementptr inbounds double, ptr %3, i64 66
  store <2 x double> zeroinitializer, ptr %207, align 16, !tbaa !8
  %208 = getelementptr inbounds double, ptr %3, i64 76
  store <2 x double> zeroinitializer, ptr %208, align 16, !tbaa !8
  %209 = getelementptr inbounds double, ptr %3, i64 86
  store <2 x double> zeroinitializer, ptr %209, align 16, !tbaa !8
  %210 = getelementptr inbounds double, ptr %3, i64 96
  store <2 x double> zeroinitializer, ptr %210, align 16, !tbaa !8
  %211 = getelementptr inbounds double, ptr %3, i64 106
  store <2 x double> zeroinitializer, ptr %211, align 16, !tbaa !8
  %212 = getelementptr inbounds double, ptr %3, i64 116
  store <2 x double> zeroinitializer, ptr %212, align 16, !tbaa !8
  %213 = getelementptr inbounds double, ptr %3, i64 126
  store <2 x double> zeroinitializer, ptr %213, align 16, !tbaa !8
  %214 = getelementptr inbounds double, ptr %3, i64 136
  store <2 x double> zeroinitializer, ptr %214, align 16, !tbaa !8
  %215 = getelementptr inbounds double, ptr %3, i64 146
  store <2 x double> zeroinitializer, ptr %215, align 16, !tbaa !8
  %216 = getelementptr inbounds double, ptr %3, i64 156
  store <2 x double> zeroinitializer, ptr %216, align 16, !tbaa !8
  %217 = getelementptr inbounds double, ptr %3, i64 166
  store <2 x double> zeroinitializer, ptr %217, align 16, !tbaa !8
  %218 = getelementptr inbounds double, ptr %3, i64 176
  store <2 x double> zeroinitializer, ptr %218, align 16, !tbaa !8
  %219 = getelementptr inbounds double, ptr %3, i64 186
  store <2 x double> zeroinitializer, ptr %219, align 16, !tbaa !8
  %220 = getelementptr inbounds double, ptr %3, i64 196
  store <2 x double> zeroinitializer, ptr %220, align 16, !tbaa !8
  %221 = getelementptr inbounds double, ptr %3, i64 206
  store <2 x double> zeroinitializer, ptr %221, align 16, !tbaa !8
  %222 = getelementptr inbounds double, ptr %3, i64 216
  store <2 x double> zeroinitializer, ptr %222, align 16, !tbaa !8
  %223 = getelementptr inbounds double, ptr %3, i64 226
  store <2 x double> zeroinitializer, ptr %223, align 16, !tbaa !8
  %224 = getelementptr inbounds double, ptr %3, i64 8
  store <2 x double> zeroinitializer, ptr %224, align 16, !tbaa !8
  %225 = getelementptr inbounds double, ptr %3, i64 18
  store <2 x double> zeroinitializer, ptr %225, align 16, !tbaa !8
  %226 = getelementptr inbounds double, ptr %3, i64 28
  store <2 x double> zeroinitializer, ptr %226, align 16, !tbaa !8
  %227 = getelementptr inbounds double, ptr %3, i64 38
  store <2 x double> zeroinitializer, ptr %227, align 16, !tbaa !8
  %228 = getelementptr inbounds double, ptr %3, i64 48
  store <2 x double> zeroinitializer, ptr %228, align 16, !tbaa !8
  %229 = getelementptr inbounds double, ptr %3, i64 58
  store <2 x double> zeroinitializer, ptr %229, align 16, !tbaa !8
  %230 = getelementptr inbounds double, ptr %3, i64 68
  store <2 x double> zeroinitializer, ptr %230, align 16, !tbaa !8
  %231 = getelementptr inbounds double, ptr %3, i64 78
  store <2 x double> zeroinitializer, ptr %231, align 16, !tbaa !8
  %232 = getelementptr inbounds double, ptr %3, i64 88
  store <2 x double> zeroinitializer, ptr %232, align 16, !tbaa !8
  %233 = getelementptr inbounds double, ptr %3, i64 98
  store <2 x double> zeroinitializer, ptr %233, align 16, !tbaa !8
  %234 = getelementptr inbounds double, ptr %3, i64 108
  store <2 x double> zeroinitializer, ptr %234, align 16, !tbaa !8
  %235 = getelementptr inbounds double, ptr %3, i64 118
  store <2 x double> zeroinitializer, ptr %235, align 16, !tbaa !8
  %236 = getelementptr inbounds double, ptr %3, i64 128
  store <2 x double> zeroinitializer, ptr %236, align 16, !tbaa !8
  %237 = getelementptr inbounds double, ptr %3, i64 138
  store <2 x double> zeroinitializer, ptr %237, align 16, !tbaa !8
  %238 = getelementptr inbounds double, ptr %3, i64 148
  store <2 x double> zeroinitializer, ptr %238, align 16, !tbaa !8
  %239 = getelementptr inbounds double, ptr %3, i64 158
  store <2 x double> zeroinitializer, ptr %239, align 16, !tbaa !8
  %240 = getelementptr inbounds double, ptr %3, i64 168
  store <2 x double> zeroinitializer, ptr %240, align 16, !tbaa !8
  %241 = getelementptr inbounds double, ptr %3, i64 178
  store <2 x double> zeroinitializer, ptr %241, align 16, !tbaa !8
  %242 = getelementptr inbounds double, ptr %3, i64 188
  store <2 x double> zeroinitializer, ptr %242, align 16, !tbaa !8
  %243 = getelementptr inbounds double, ptr %3, i64 198
  store <2 x double> zeroinitializer, ptr %243, align 16, !tbaa !8
  %244 = getelementptr inbounds double, ptr %3, i64 208
  store <2 x double> zeroinitializer, ptr %244, align 16, !tbaa !8
  %245 = getelementptr inbounds double, ptr %3, i64 218
  store <2 x double> zeroinitializer, ptr %245, align 16, !tbaa !8
  %246 = getelementptr inbounds double, ptr %3, i64 228
  store <2 x double> zeroinitializer, ptr %246, align 16, !tbaa !8
  store <2 x double> zeroinitializer, ptr %4, align 16, !tbaa !8
  %247 = getelementptr inbounds double, ptr %4, i64 10
  store <2 x double> zeroinitializer, ptr %247, align 16, !tbaa !8
  %248 = getelementptr inbounds double, ptr %4, i64 20
  store <2 x double> zeroinitializer, ptr %248, align 16, !tbaa !8
  %249 = getelementptr inbounds double, ptr %4, i64 30
  store <2 x double> zeroinitializer, ptr %249, align 16, !tbaa !8
  %250 = getelementptr inbounds double, ptr %4, i64 40
  store <2 x double> zeroinitializer, ptr %250, align 16, !tbaa !8
  %251 = getelementptr inbounds double, ptr %4, i64 50
  store <2 x double> zeroinitializer, ptr %251, align 16, !tbaa !8
  %252 = getelementptr inbounds double, ptr %4, i64 60
  store <2 x double> zeroinitializer, ptr %252, align 16, !tbaa !8
  %253 = getelementptr inbounds double, ptr %4, i64 70
  store <2 x double> zeroinitializer, ptr %253, align 16, !tbaa !8
  %254 = getelementptr inbounds double, ptr %4, i64 80
  store <2 x double> zeroinitializer, ptr %254, align 16, !tbaa !8
  %255 = getelementptr inbounds double, ptr %4, i64 90
  store <2 x double> zeroinitializer, ptr %255, align 16, !tbaa !8
  %256 = getelementptr inbounds double, ptr %4, i64 100
  store <2 x double> zeroinitializer, ptr %256, align 16, !tbaa !8
  %257 = getelementptr inbounds double, ptr %4, i64 110
  store <2 x double> zeroinitializer, ptr %257, align 16, !tbaa !8
  %258 = getelementptr inbounds double, ptr %4, i64 120
  store <2 x double> zeroinitializer, ptr %258, align 16, !tbaa !8
  %259 = getelementptr inbounds double, ptr %4, i64 130
  store <2 x double> zeroinitializer, ptr %259, align 16, !tbaa !8
