; ModuleID = '/usr/local/google/home/aeubanks/repos/test-suite/MultiSource/Benchmarks/Bullet/btSoftRigidCollisionAlgorithm.cpp'
source_filename = "/usr/local/google/home/aeubanks/repos/test-suite/MultiSource/Benchmarks/Bullet/btSoftRigidCollisionAlgorithm.cpp"
target datalayout = "e-m:e-p270:32:32-p271:32:32-p272:64:64-i64:64-f80:128-n8:16:32:64-S128"
target triple = "x86_64-unknown-linux-gnu"

%class.btSoftRigidCollisionAlgorithm = type <{ %class.btCollisionAlgorithm, ptr, ptr, i8, [7 x i8] }>
%class.btCollisionAlgorithm = type { ptr, ptr }
%class.btSoftBody = type { %class.btCollisionObject, %class.btAlignedObjectArray, %"struct.btSoftBody::Config", %"struct.btSoftBody::SolverState", [4 x i8], %"struct.btSoftBody::Pose", ptr, ptr, %class.btAlignedObjectArray.20, %class.btAlignedObjectArray.24, %class.btAlignedObjectArray.28, %class.btAlignedObjectArray.32, %class.btAlignedObjectArray.36, %class.btAlignedObjectArray.40, %class.btAlignedObjectArray.48, %class.btAlignedObjectArray.52, %class.btAlignedObjectArray.56, %class.btAlignedObjectArray.64, float, [2 x %class.btVector3], i8, %struct.btDbvt, %struct.btDbvt, %struct.btDbvt, %class.btAlignedObjectArray.72, %class.btAlignedObjectArray.76, %class.btTransform, %class.btAlignedObjectArray.80 }
%class.btCollisionObject = type { ptr, %class.btTransform, %class.btTransform, %class.btVector3, %class.btVector3, %class.btVector3, i8, float, ptr, ptr, ptr, i32, i32, i32, i32, float, float, float, ptr, i32, float, float, float, i8, [7 x i8] }
%class.btVector3 = type { [4 x float] }
%class.btAlignedObjectArray = type <{ %class.btAlignedAllocator, [3 x i8], i32, i32, [4 x i8], ptr, i8, [7 x i8] }>
%class.btAlignedAllocator = type { i8 }
%"struct.btSoftBody::Config" = type { i32, float, float, float, float, float, float, float, float, float, float, float, float, float, float, float, float, float, float, float, float, i32, i32, i32, i32, i32, %class.btAlignedObjectArray.0, %class.btAlignedObjectArray.4, %class.btAlignedObjectArray.4 }
%class.btAlignedObjectArray.0 = type <{ %class.btAlignedAllocator.1, [3 x i8], i32, i32, [4 x i8], ptr, i8, [7 x i8] }>
%class.btAlignedAllocator.1 = type { i8 }
%class.btAlignedObjectArray.4 = type <{ %class.btAlignedAllocator.5, [3 x i8], i32, i32, [4 x i8], ptr, i8, [7 x i8] }>
%class.btAlignedAllocator.5 = type { i8 }
%"struct.btSoftBody::SolverState" = type { float, float, float, float, float }
%"struct.btSoftBody::Pose" = type { i8, i8, float, %class.btAlignedObjectArray.8, %class.btAlignedObjectArray.12, %class.btVector3, %class.btMatrix3x3, %class.btMatrix3x3, %class.btMatrix3x3 }
%class.btAlignedObjectArray.8 = type <{ %class.btAlignedAllocator.9, [3 x i8], i32, i32, [4 x i8], ptr, i8, [7 x i8] }>
%class.btAlignedAllocator.9 = type { i8 }
%class.btAlignedObjectArray.12 = type <{ %class.btAlignedAllocator.13, [3 x i8], i32, i32, [4 x i8], ptr, i8, [7 x i8] }>
%class.btAlignedAllocator.13 = type { i8 }
%class.btMatrix3x3 = type { [3 x %class.btVector3] }
%class.btAlignedObjectArray.20 = type <{ %class.btAlignedAllocator.21, [3 x i8], i32, i32, [4 x i8], ptr, i8, [7 x i8] }>
%class.btAlignedAllocator.21 = type { i8 }
%class.btAlignedObjectArray.24 = type <{ %class.btAlignedAllocator.25, [3 x i8], i32, i32, [4 x i8], ptr, i8, [7 x i8] }>
%class.btAlignedAllocator.25 = type { i8 }
%class.btAlignedObjectArray.28 = type <{ %class.btAlignedAllocator.29, [3 x i8], i32, i32, [4 x i8], ptr, i8, [7 x i8] }>
%class.btAlignedAllocator.29 = type { i8 }
%class.btAlignedObjectArray.32 = type <{ %class.btAlignedAllocator.33, [3 x i8], i32, i32, [4 x i8], ptr, i8, [7 x i8] }>
%class.btAlignedAllocator.33 = type { i8 }
%class.btAlignedObjectArray.36 = type <{ %class.btAlignedAllocator.37, [3 x i8], i32, i32, [4 x i8], ptr, i8, [7 x i8] }>
%class.btAlignedAllocator.37 = type { i8 }
%class.btAlignedObjectArray.40 = type <{ %class.btAlignedAllocator.41, [3 x i8], i32, i32, [4 x i8], ptr, i8, [7 x i8] }>
%class.btAlignedAllocator.41 = type { i8 }
%class.btAlignedObjectArray.48 = type <{ %class.btAlignedAllocator.49, [3 x i8], i32, i32, [4 x i8], ptr, i8, [7 x i8] }>
%class.btAlignedAllocator.49 = type { i8 }
%class.btAlignedObjectArray.52 = type <{ %class.btAlignedAllocator.53, [3 x i8], i32, i32, [4 x i8], ptr, i8, [7 x i8] }>
%class.btAlignedAllocator.53 = type { i8 }
%class.btAlignedObjectArray.56 = type <{ %class.btAlignedAllocator.57, [3 x i8], i32, i32, [4 x i8], ptr, i8, [7 x i8] }>
%class.btAlignedAllocator.57 = type { i8 }
%class.btAlignedObjectArray.64 = type <{ %class.btAlignedAllocator.65, [3 x i8], i32, i32, [4 x i8], ptr, i8, [7 x i8] }>
%class.btAlignedAllocator.65 = type { i8 }
%struct.btDbvt = type { ptr, ptr, i32, i32, i32, [4 x i8], %class.btAlignedObjectArray.68 }
%class.btAlignedObjectArray.68 = type <{ %class.btAlignedAllocator.69, [3 x i8], i32, i32, [4 x i8], ptr, i8, [7 x i8] }>
%class.btAlignedAllocator.69 = type { i8 }
%class.btAlignedObjectArray.72 = type <{ %class.btAlignedAllocator.73, [3 x i8], i32, i32, [4 x i8], ptr, i8, [7 x i8] }>
%class.btAlignedAllocator.73 = type { i8 }
%class.btAlignedObjectArray.76 = type <{ %class.btAlignedAllocator.77, [3 x i8], i32, i32, [4 x i8], ptr, i8, [7 x i8] }>
%class.btAlignedAllocator.77 = type { i8 }
%class.btTransform = type { %class.btMatrix3x3, %class.btVector3 }
%class.btAlignedObjectArray.80 = type <{ %class.btAlignedAllocator.81, [3 x i8], i32, i32, [4 x i8], ptr, i8, [7 x i8] }>
%class.btAlignedAllocator.81 = type { i8 }

$_ZN29btSoftRigidCollisionAlgorithm22getAllContactManifoldsER20btAlignedObjectArrayIP20btPersistentManifoldE = comdat any

$_ZTS20btCollisionAlgorithm = comdat any

$_ZTI20btCollisionAlgorithm = comdat any

@_ZTV29btSoftRigidCollisionAlgorithm = dso_local unnamed_addr constant { [7 x ptr] } { [7 x ptr] [ptr null, ptr @_ZTI29btSoftRigidCollisionAlgorithm, ptr @_ZN29btSoftRigidCollisionAlgorithmD2Ev, ptr @_ZN29btSoftRigidCollisionAlgorithmD0Ev, ptr @_ZN29btSoftRigidCollisionAlgorithm16processCollisionEP17btCollisionObjectS1_RK16btDispatcherInfoP16btManifoldResult, ptr @_ZN29btSoftRigidCollisionAlgorithm21calculateTimeOfImpactEP17btCollisionObjectS1_RK16btDispatcherInfoP16btManifoldResult, ptr @_ZN29btSoftRigidCollisionAlgorithm22getAllContactManifoldsER20btAlignedObjectArrayIP20btPersistentManifoldE] }, align 8
@_ZTVN10__cxxabiv120__si_class_type_infoE = external global ptr
@_ZTS29btSoftRigidCollisionAlgorithm = dso_local constant [32 x i8] c"29btSoftRigidCollisionAlgorithm\00", align 1
@_ZTVN10__cxxabiv117__class_type_infoE = external global ptr
@_ZTS20btCollisionAlgorithm = linkonce_odr dso_local constant [23 x i8] c"20btCollisionAlgorithm\00", comdat, align 1
@_ZTI20btCollisionAlgorithm = linkonce_odr dso_local constant { ptr, ptr } { ptr getelementptr inbounds (ptr, ptr @_ZTVN10__cxxabiv117__class_type_infoE, i64 2), ptr @_ZTS20btCollisionAlgorithm }, comdat, align 8
@_ZTI29btSoftRigidCollisionAlgorithm = dso_local constant { ptr, ptr, ptr } { ptr getelementptr inbounds (ptr, ptr @_ZTVN10__cxxabiv120__si_class_type_infoE, i64 2), ptr @_ZTS29btSoftRigidCollisionAlgorithm, ptr @_ZTI20btCollisionAlgorithm }, align 8

@_ZN29btSoftRigidCollisionAlgorithmC1EP20btPersistentManifoldRK36btCollisionAlgorithmConstructionInfoP17btCollisionObjectS6_b = dso_local unnamed_addr alias void (ptr, ptr, ptr, ptr, ptr, i1), ptr @_ZN29btSoftRigidCollisionAlgorithmC2EP20btPersistentManifoldRK36btCollisionAlgorithmConstructionInfoP17btCollisionObjectS6_b
@_ZN29btSoftRigidCollisionAlgorithmD1Ev = dso_local unnamed_addr alias void (ptr), ptr @_ZN29btSoftRigidCollisionAlgorithmD2Ev

; Function Attrs: uwtable
define dso_local void @_ZN29btSoftRigidCollisionAlgorithmC2EP20btPersistentManifoldRK36btCollisionAlgorithmConstructionInfoP17btCollisionObjectS6_b(ptr noundef nonnull align 8 dereferenceable(33) %this, ptr nocapture readnone %0, ptr noundef nonnull align 8 dereferenceable(16) %ci, ptr nocapture readnone %1, ptr nocapture readnone %2, i1 noundef zeroext %isSwapped) unnamed_addr #0 align 2 {
entry:
  %frombool = zext i1 %isSwapped to i8
  tail call void @_ZN20btCollisionAlgorithmC2ERK36btCollisionAlgorithmConstructionInfo(ptr noundef nonnull align 8 dereferenceable(16) %this, ptr noundef nonnull align 8 dereferenceable(16) %ci)
  store ptr getelementptr inbounds ({ [7 x ptr] }, ptr @_ZTV29btSoftRigidCollisionAlgorithm, i64 0, inrange i32 0, i64 2), ptr %this, align 8, !tbaa !5
  %m_isSwapped = getelementptr inbounds %class.btSoftRigidCollisionAlgorithm, ptr %this, i64 0, i32 3
  store i8 %frombool, ptr %m_isSwapped, align 8, !tbaa !8
  ret void
}

declare void @_ZN20btCollisionAlgorithmC2ERK36btCollisionAlgorithmConstructionInfo(ptr noundef nonnull align 8 dereferenceable(16), ptr noundef nonnull align 8 dereferenceable(16)) unnamed_addr #1

; Function Attrs: mustprogress nofree norecurse nosync nounwind willreturn memory(none) uwtable
define dso_local void @_ZN29btSoftRigidCollisionAlgorithmD2Ev(ptr nocapture nonnull readnone align 8 %this) unnamed_addr #2 align 2 {
entry:
  ret void
}

; Function Attrs: nounwind uwtable
define dso_local void @_ZN29btSoftRigidCollisionAlgorithmD0Ev(ptr noundef nonnull align 8 dereferenceable(33) %this) unnamed_addr #3 align 2 personality ptr @__gxx_personality_v0 {
entry:
  tail call void @_ZdlPv(ptr noundef nonnull %this) #5
  ret void
}

declare i32 @__gxx_personality_v0(...)

; Function Attrs: nobuiltin nounwind
declare void @_ZdlPv(ptr noundef) local_unnamed_addr #4

; Function Attrs: uwtable
define dso_local void @_ZN29btSoftRigidCollisionAlgorithm16processCollisionEP17btCollisionObjectS1_RK16btDispatcherInfoP16btManifoldResult(ptr nocapture noundef nonnull readonly align 8 dereferenceable(33) %this, ptr noundef %body0, ptr noundef %body1, ptr nocapture nonnull readnone align 8 %dispatchInfo, ptr nocapture readnone %resultOut) unnamed_addr #0 align 2 {
entry:
  %m_isSwapped = getelementptr inbounds %class.btSoftRigidCollisionAlgorithm, ptr %this, i64 0, i32 3
  %0 = load i8, ptr %m_isSwapped, align 8, !tbaa !8, !range !14, !noundef !15
  %tobool.not = icmp eq i8 %0, 0
  %cond = select i1 %tobool.not, ptr %body0, ptr %body1
  %cond7 = select i1 %tobool.not, ptr %body1, ptr %body0
  %m_size.i.i = getelementptr inbounds %class.btSoftBody, ptr %cond, i64 0, i32 1, i32 2
  %1 = load i32, ptr %m_size.i.i, align 4, !tbaa !16
  %cmp8.i = icmp sgt i32 %1, 0
  br i1 %cmp8.i, label %for.body.lr.ph.i, label %if.then

for.body.lr.ph.i:                                 ; preds = %entry
  %m_data.i = getelementptr inbounds %class.btSoftBody, ptr %cond, i64 0, i32 1, i32 5
  %2 = load ptr, ptr %m_data.i, align 8, !tbaa !20
  %wide.trip.count.i = zext i32 %1 to i64
  br label %for.body.i

for.body.i:                                       ; preds = %for.inc.i, %for.body.lr.ph.i
  %indvars.iv.i = phi i64 [ 0, %for.body.lr.ph.i ], [ %indvars.iv.next.i, %for.inc.i ]
  %arrayidx.i = getelementptr inbounds ptr, ptr %2, i64 %indvars.iv.i
  %3 = load ptr, ptr %arrayidx.i, align 8, !tbaa !21
  %cmp3.i = icmp eq ptr %3, %cond7
  br i1 %cmp3.i, label %_ZNK20btAlignedObjectArrayIP17btCollisionObjectE16findLinearSearchERKS1_.exit, label %for.inc.i

for.inc.i:                                        ; preds = %for.body.i
  %indvars.iv.next.i = add nuw nsw i64 %indvars.iv.i, 1
  %exitcond.not.i = icmp eq i64 %indvars.iv.next.i, %wide.trip.count.i
  br i1 %exitcond.not.i, label %if.then, label %for.body.i

_ZNK20btAlignedObjectArrayIP17btCollisionObjectE16findLinearSearchERKS1_.exit: ; preds = %for.body.i
  %4 = trunc i64 %indvars.iv.i to i32
  %cmp = icmp eq i32 %1, %4
  br i1 %cmp, label %if.then, label %if.end

if.then:                                          ; preds = %for.inc.i, %entry, %_ZNK20btAlignedObjectArrayIP17btCollisionObjectE16findLinearSearchERKS1_.exit
  tail call void @_ZN10btSoftBody23defaultCollisionHandlerEP17btCollisionObject(ptr noundef nonnull align 8 dereferenceable(1496) %cond, ptr noundef %cond7)
  br label %if.end

if.end:                                           ; preds = %if.then, %_ZNK20btAlignedObjectArrayIP17btCollisionObjectE16findLinearSearchERKS1_.exit
  ret void
}

declare void @_ZN10btSoftBody23defaultCollisionHandlerEP17btCollisionObject(ptr noundef nonnull align 8 dereferenceable(1496), ptr noundef) local_unnamed_addr #1

; Function Attrs: mustprogress nofree norecurse nosync nounwind willreturn memory(none) uwtable
define dso_local noundef float @_ZN29btSoftRigidCollisionAlgorithm21calculateTimeOfImpactEP17btCollisionObjectS1_RK16btDispatcherInfoP16btManifoldResult(ptr nocapture nonnull readnone align 8 %this, ptr nocapture readnone %col0, ptr nocapture readnone %col1, ptr nocapture nonnull readnone align 8 %dispatchInfo, ptr nocapture readnone %resultOut) unnamed_addr #2 align 2 {
entry:
  ret float 1.000000e+00
}

; Function Attrs: nounwind uwtable
define linkonce_odr dso_local void @_ZN29btSoftRigidCollisionAlgorithm22getAllContactManifoldsER20btAlignedObjectArrayIP20btPersistentManifoldE(ptr noundef nonnull align 8 dereferenceable(33) %this, ptr noundef nonnull align 8 dereferenceable(25) %manifoldArray) unnamed_addr #3 comdat align 2 {
entry:
  ret void
}

attributes #0 = { uwtable "min-legal-vector-width"="0" "no-trapping-math"="true" "stack-protector-buffer-size"="8" "target-cpu"="x86-64" "target-features"="+cx8,+fxsr,+mmx,+sse,+sse2,+x87" "tune-cpu"="generic" }
attributes #1 = { "no-trapping-math"="true" "stack-protector-buffer-size"="8" "target-cpu"="x86-64" "target-features"="+cx8,+fxsr,+mmx,+sse,+sse2,+x87" "tune-cpu"="generic" }
attributes #2 = { mustprogress nofree norecurse nosync nounwind willreturn memory(none) uwtable "min-legal-vector-width"="0" "no-trapping-math"="true" "stack-protector-buffer-size"="8" "target-cpu"="x86-64" "target-features"="+cx8,+fxsr,+mmx,+sse,+sse2,+x87" "tune-cpu"="generic" }
attributes #3 = { nounwind uwtable "min-legal-vector-width"="0" "no-trapping-math"="true" "stack-protector-buffer-size"="8" "target-cpu"="x86-64" "target-features"="+cx8,+fxsr,+mmx,+sse,+sse2,+x87" "tune-cpu"="generic" }
attributes #4 = { nobuiltin nounwind "no-trapping-math"="true" "stack-protector-buffer-size"="8" "target-cpu"="x86-64" "target-features"="+cx8,+fxsr,+mmx,+sse,+sse2,+x87" "tune-cpu"="generic" }
attributes #5 = { builtin nounwind }

!llvm.module.flags = !{!0, !1, !2, !3}
!llvm.ident = !{!4}

!0 = !{i32 1, !"wchar_size", i32 4}
!1 = !{i32 8, !"PIC Level", i32 2}
!2 = !{i32 7, !"PIE Level", i32 2}
!3 = !{i32 7, !"uwtable", i32 2}
!4 = !{!"clang version 17.0.0"}
!5 = !{!6, !6, i64 0}
!6 = !{!"vtable pointer", !7, i64 0}
!7 = !{!"Simple C++ TBAA"}
!8 = !{!9, !13, i64 32}
!9 = !{!"_ZTS29btSoftRigidCollisionAlgorithm", !10, i64 0, !11, i64 16, !11, i64 24, !13, i64 32}
!10 = !{!"_ZTS20btCollisionAlgorithm", !11, i64 8}
!11 = !{!"any pointer", !12, i64 0}
!12 = !{!"omnipotent char", !7, i64 0}
!13 = !{!"bool", !12, i64 0}
!14 = !{i8 0, i8 2}
!15 = !{}
!16 = !{!17, !19, i64 4}
!17 = !{!"_ZTS20btAlignedObjectArrayIP17btCollisionObjectE", !18, i64 0, !19, i64 4, !19, i64 8, !11, i64 16, !13, i64 24}
!18 = !{!"_ZTS18btAlignedAllocatorIP17btCollisionObjectLj16EE"}
!19 = !{!"int", !12, i64 0}
!20 = !{!17, !11, i64 16}
!21 = !{!11, !11, i64 0}
