; ModuleID = '/usr/local/google/home/aeubanks/repos/test-suite/MicroBenchmarks/MemFunctions/main.cpp'
source_filename = "/usr/local/google/home/aeubanks/repos/test-suite/MicroBenchmarks/MemFunctions/main.cpp"
target datalayout = "e-m:e-p270:32:32-p271:32:32-p272:64:64-i64:64-f80:128-n8:16:32:64-S128"
target triple = "x86_64-unknown-linux-gnu"

%"class.std::ios_base::Init" = type { i8 }
%"class.std::basic_ostream" = type { ptr, %"class.std::basic_ios" }
%"class.std::basic_ios" = type { %"class.std::ios_base", ptr, i8, i8, ptr, ptr, ptr, ptr }
%"class.std::ios_base" = type { ptr, i64, i64, i32, i32, i32, ptr, %"struct.std::ios_base::_Words", [8 x %"struct.std::ios_base::_Words"], i32, ptr, %"class.std::locale" }
%"struct.std::ios_base::_Words" = type { ptr, i64 }
%"class.std::locale" = type { ptr }
%"struct.std::piecewise_construct_t" = type { i8 }
%"class.std::__cxx11::basic_string" = type { %"struct.std::__cxx11::basic_string<char>::_Alloc_hider", i64, %union.anon }
%"struct.std::__cxx11::basic_string<char>::_Alloc_hider" = type { ptr }
%union.anon = type { i64, [8 x i8] }
%"class.benchmark::State" = type { i64, i64, i64, i8, i8, i8, %"class.std::vector.8", i64, %"class.std::map", i32, i32, ptr, ptr, ptr }
%"class.std::vector.8" = type { %"struct.std::_Vector_base.9" }
%"struct.std::_Vector_base.9" = type { %"struct.std::_Vector_base<long, std::allocator<long>>::_Vector_impl" }
%"struct.std::_Vector_base<long, std::allocator<long>>::_Vector_impl" = type { %"struct.std::_Vector_base<long, std::allocator<long>>::_Vector_impl_data" }
%"struct.std::_Vector_base<long, std::allocator<long>>::_Vector_impl_data" = type { ptr, ptr, ptr }
%"class.std::map" = type { %"class.std::_Rb_tree" }
%"class.std::_Rb_tree" = type { %"struct.std::_Rb_tree<std::__cxx11::basic_string<char>, std::pair<const std::__cxx11::basic_string<char>, benchmark::Counter>, std::_Select1st<std::pair<const std::__cxx11::basic_string<char>, benchmark::Counter>>, std::less<std::__cxx11::basic_string<char>>>::_Rb_tree_impl" }
%"struct.std::_Rb_tree<std::__cxx11::basic_string<char>, std::pair<const std::__cxx11::basic_string<char>, benchmark::Counter>, std::_Select1st<std::pair<const std::__cxx11::basic_string<char>, benchmark::Counter>>, std::less<std::__cxx11::basic_string<char>>>::_Rb_tree_impl" = type { %"struct.std::_Rb_tree_key_compare", %"struct.std::_Rb_tree_header" }
%"struct.std::_Rb_tree_key_compare" = type { %"struct.std::less" }
%"struct.std::less" = type { i8 }
%"struct.std::_Rb_tree_header" = type { %"struct.std::_Rb_tree_node_base", i64 }
%"struct.std::_Rb_tree_node_base" = type { i32, ptr, ptr, ptr }
%"class.std::tuple" = type { %"struct.std::_Tuple_impl" }
%"struct.std::_Tuple_impl" = type { %"struct.std::_Head_base" }
%"struct.std::_Head_base" = type { ptr }
%"class.std::tuple.33" = type { i8 }
%"struct.std::_Rb_tree_node" = type { %"struct.std::_Rb_tree_node_base", %"struct.__gnu_cxx::__aligned_membuf" }
%"struct.__gnu_cxx::__aligned_membuf" = type { [48 x i8] }
%"struct.std::_Rb_tree<std::__cxx11::basic_string<char>, std::pair<const std::__cxx11::basic_string<char>, benchmark::Counter>, std::_Select1st<std::pair<const std::__cxx11::basic_string<char>, benchmark::Counter>>, std::less<std::__cxx11::basic_string<char>>>::_Auto_node" = type { ptr, ptr }
%"class.benchmark::internal::FunctionBenchmark" = type { %"class.benchmark::internal::Benchmark", ptr }
%"class.benchmark::internal::Benchmark" = type { ptr, %"class.std::__cxx11::basic_string", i32, %"class.std::vector", %"class.std::vector.3", i32, i8, i32, double, i64, i32, i8, i8, i8, i32, ptr, %"class.std::vector.13", %"class.std::vector.23", ptr, ptr }
%"class.std::vector" = type { %"struct.std::_Vector_base" }
%"struct.std::_Vector_base" = type { %"struct.std::_Vector_base<std::__cxx11::basic_string<char>, std::allocator<std::__cxx11::basic_string<char>>>::_Vector_impl" }
%"struct.std::_Vector_base<std::__cxx11::basic_string<char>, std::allocator<std::__cxx11::basic_string<char>>>::_Vector_impl" = type { %"struct.std::_Vector_base<std::__cxx11::basic_string<char>, std::allocator<std::__cxx11::basic_string<char>>>::_Vector_impl_data" }
%"struct.std::_Vector_base<std::__cxx11::basic_string<char>, std::allocator<std::__cxx11::basic_string<char>>>::_Vector_impl_data" = type { ptr, ptr, ptr }
%"class.std::vector.3" = type { %"struct.std::_Vector_base.4" }
%"struct.std::_Vector_base.4" = type { %"struct.std::_Vector_base<std::vector<long>, std::allocator<std::vector<long>>>::_Vector_impl" }
%"struct.std::_Vector_base<std::vector<long>, std::allocator<std::vector<long>>>::_Vector_impl" = type { %"struct.std::_Vector_base<std::vector<long>, std::allocator<std::vector<long>>>::_Vector_impl_data" }
%"struct.std::_Vector_base<std::vector<long>, std::allocator<std::vector<long>>>::_Vector_impl_data" = type { ptr, ptr, ptr }
%"class.std::vector.13" = type { %"struct.std::_Vector_base.14" }
%"struct.std::_Vector_base.14" = type { %"struct.std::_Vector_base<benchmark::internal::Statistics, std::allocator<benchmark::internal::Statistics>>::_Vector_impl" }
%"struct.std::_Vector_base<benchmark::internal::Statistics, std::allocator<benchmark::internal::Statistics>>::_Vector_impl" = type { %"struct.std::_Vector_base<benchmark::internal::Statistics, std::allocator<benchmark::internal::Statistics>>::_Vector_impl_data" }
%"struct.std::_Vector_base<benchmark::internal::Statistics, std::allocator<benchmark::internal::Statistics>>::_Vector_impl_data" = type { ptr, ptr, ptr }
%"class.std::vector.23" = type { %"struct.std::_Vector_base.24" }
%"struct.std::_Vector_base.24" = type { %"struct.std::_Vector_base<int, std::allocator<int>>::_Vector_impl" }
%"struct.std::_Vector_base<int, std::allocator<int>>::_Vector_impl" = type { %"struct.std::_Vector_base<int, std::allocator<int>>::_Vector_impl_data" }
%"struct.std::_Vector_base<int, std::allocator<int>>::_Vector_impl_data" = type { ptr, ptr, ptr }

$_Z9BM_MemCmpILi1E6EqZero4NoneEvRN9benchmark5StateE = comdat any

$_Z9BM_MemCmpILi1E6EqZero5FirstEvRN9benchmark5StateE = comdat any

$_Z9BM_MemCmpILi1E6EqZero3MidEvRN9benchmark5StateE = comdat any

$_Z9BM_MemCmpILi1E6EqZero4LastEvRN9benchmark5StateE = comdat any

$_Z9BM_MemCmpILi1E12LessThanZero4NoneEvRN9benchmark5StateE = comdat any

$_Z9BM_MemCmpILi1E12LessThanZero5FirstEvRN9benchmark5StateE = comdat any

$_Z9BM_MemCmpILi1E12LessThanZero3MidEvRN9benchmark5StateE = comdat any

$_Z9BM_MemCmpILi1E12LessThanZero4LastEvRN9benchmark5StateE = comdat any

$_Z9BM_MemCmpILi1E15GreaterThanZero4NoneEvRN9benchmark5StateE = comdat any

$_Z9BM_MemCmpILi1E15GreaterThanZero5FirstEvRN9benchmark5StateE = comdat any

$_Z9BM_MemCmpILi1E15GreaterThanZero3MidEvRN9benchmark5StateE = comdat any

$_Z9BM_MemCmpILi1E15GreaterThanZero4LastEvRN9benchmark5StateE = comdat any

$_Z9BM_MemCmpILi2E6EqZero4NoneEvRN9benchmark5StateE = comdat any

$_Z9BM_MemCmpILi2E6EqZero5FirstEvRN9benchmark5StateE = comdat any

$_Z9BM_MemCmpILi2E6EqZero3MidEvRN9benchmark5StateE = comdat any

$_Z9BM_MemCmpILi2E6EqZero4LastEvRN9benchmark5StateE = comdat any

$_Z9BM_MemCmpILi2E12LessThanZero4NoneEvRN9benchmark5StateE = comdat any

$_Z9BM_MemCmpILi2E12LessThanZero5FirstEvRN9benchmark5StateE = comdat any

$_Z9BM_MemCmpILi2E12LessThanZero3MidEvRN9benchmark5StateE = comdat any

$_Z9BM_MemCmpILi2E12LessThanZero4LastEvRN9benchmark5StateE = comdat any

$_Z9BM_MemCmpILi2E15GreaterThanZero4NoneEvRN9benchmark5StateE = comdat any

$_Z9BM_MemCmpILi2E15GreaterThanZero5FirstEvRN9benchmark5StateE = comdat any

$_Z9BM_MemCmpILi2E15GreaterThanZero3MidEvRN9benchmark5StateE = comdat any

$_Z9BM_MemCmpILi2E15GreaterThanZero4LastEvRN9benchmark5StateE = comdat any

$_Z9BM_MemCmpILi3E6EqZero4NoneEvRN9benchmark5StateE = comdat any

$_Z9BM_MemCmpILi3E6EqZero5FirstEvRN9benchmark5StateE = comdat any

$_Z9BM_MemCmpILi3E6EqZero3MidEvRN9benchmark5StateE = comdat any

$_Z9BM_MemCmpILi3E6EqZero4LastEvRN9benchmark5StateE = comdat any

$_Z9BM_MemCmpILi3E12LessThanZero4NoneEvRN9benchmark5StateE = comdat any

$_Z9BM_MemCmpILi3E12LessThanZero5FirstEvRN9benchmark5StateE = comdat any

$_Z9BM_MemCmpILi3E12LessThanZero3MidEvRN9benchmark5StateE = comdat any

$_Z9BM_MemCmpILi3E12LessThanZero4LastEvRN9benchmark5StateE = comdat any

$_Z9BM_MemCmpILi3E15GreaterThanZero4NoneEvRN9benchmark5StateE = comdat any

$_Z9BM_MemCmpILi3E15GreaterThanZero5FirstEvRN9benchmark5StateE = comdat any

$_Z9BM_MemCmpILi3E15GreaterThanZero3MidEvRN9benchmark5StateE = comdat any

$_Z9BM_MemCmpILi3E15GreaterThanZero4LastEvRN9benchmark5StateE = comdat any

$_Z9BM_MemCmpILi4E6EqZero4NoneEvRN9benchmark5StateE = comdat any

$_Z9BM_MemCmpILi4E6EqZero5FirstEvRN9benchmark5StateE = comdat any

$_Z9BM_MemCmpILi4E6EqZero3MidEvRN9benchmark5StateE = comdat any

$_Z9BM_MemCmpILi4E6EqZero4LastEvRN9benchmark5StateE = comdat any

$_Z9BM_MemCmpILi4E12LessThanZero4NoneEvRN9benchmark5StateE = comdat any

$_Z9BM_MemCmpILi4E12LessThanZero5FirstEvRN9benchmark5StateE = comdat any

$_Z9BM_MemCmpILi4E12LessThanZero3MidEvRN9benchmark5StateE = comdat any

$_Z9BM_MemCmpILi4E12LessThanZero4LastEvRN9benchmark5StateE = comdat any

$_Z9BM_MemCmpILi4E15GreaterThanZero4NoneEvRN9benchmark5StateE = comdat any

$_Z9BM_MemCmpILi4E15GreaterThanZero5FirstEvRN9benchmark5StateE = comdat any

$_Z9BM_MemCmpILi4E15GreaterThanZero3MidEvRN9benchmark5StateE = comdat any

$_Z9BM_MemCmpILi4E15GreaterThanZero4LastEvRN9benchmark5StateE = comdat any

$_Z9BM_MemCmpILi5E6EqZero4NoneEvRN9benchmark5StateE = comdat any

$_Z9BM_MemCmpILi5E6EqZero5FirstEvRN9benchmark5StateE = comdat any

$_Z9BM_MemCmpILi5E6EqZero3MidEvRN9benchmark5StateE = comdat any

$_Z9BM_MemCmpILi5E6EqZero4LastEvRN9benchmark5StateE = comdat any

$_Z9BM_MemCmpILi5E12LessThanZero4NoneEvRN9benchmark5StateE = comdat any

$_Z9BM_MemCmpILi5E12LessThanZero5FirstEvRN9benchmark5StateE = comdat any

$_Z9BM_MemCmpILi5E12LessThanZero3MidEvRN9benchmark5StateE = comdat any

$_Z9BM_MemCmpILi5E12LessThanZero4LastEvRN9benchmark5StateE = comdat any

$_Z9BM_MemCmpILi5E15GreaterThanZero4NoneEvRN9benchmark5StateE = comdat any

$_Z9BM_MemCmpILi5E15GreaterThanZero5FirstEvRN9benchmark5StateE = comdat any

$_Z9BM_MemCmpILi5E15GreaterThanZero3MidEvRN9benchmark5StateE = comdat any

$_Z9BM_MemCmpILi5E15GreaterThanZero4LastEvRN9benchmark5StateE = comdat any

$_Z9BM_MemCmpILi6E6EqZero4NoneEvRN9benchmark5StateE = comdat any

$_Z9BM_MemCmpILi6E6EqZero5FirstEvRN9benchmark5StateE = comdat any

$_Z9BM_MemCmpILi6E6EqZero3MidEvRN9benchmark5StateE = comdat any

$_Z9BM_MemCmpILi6E6EqZero4LastEvRN9benchmark5StateE = comdat any

$_Z9BM_MemCmpILi6E12LessThanZero4NoneEvRN9benchmark5StateE = comdat any

$_Z9BM_MemCmpILi6E12LessThanZero5FirstEvRN9benchmark5StateE = comdat any

$_Z9BM_MemCmpILi6E12LessThanZero3MidEvRN9benchmark5StateE = comdat any

$_Z9BM_MemCmpILi6E12LessThanZero4LastEvRN9benchmark5StateE = comdat any

$_Z9BM_MemCmpILi6E15GreaterThanZero4NoneEvRN9benchmark5StateE = comdat any

$_Z9BM_MemCmpILi6E15GreaterThanZero5FirstEvRN9benchmark5StateE = comdat any

$_Z9BM_MemCmpILi6E15GreaterThanZero3MidEvRN9benchmark5StateE = comdat any

$_Z9BM_MemCmpILi6E15GreaterThanZero4LastEvRN9benchmark5StateE = comdat any

$_Z9BM_MemCmpILi7E6EqZero4NoneEvRN9benchmark5StateE = comdat any

$_Z9BM_MemCmpILi7E6EqZero5FirstEvRN9benchmark5StateE = comdat any

$_Z9BM_MemCmpILi7E6EqZero3MidEvRN9benchmark5StateE = comdat any

$_Z9BM_MemCmpILi7E6EqZero4LastEvRN9benchmark5StateE = comdat any

$_Z9BM_MemCmpILi7E12LessThanZero4NoneEvRN9benchmark5StateE = comdat any

$_Z9BM_MemCmpILi7E12LessThanZero5FirstEvRN9benchmark5StateE = comdat any

$_Z9BM_MemCmpILi7E12LessThanZero3MidEvRN9benchmark5StateE = comdat any

$_Z9BM_MemCmpILi7E12LessThanZero4LastEvRN9benchmark5StateE = comdat any

$_Z9BM_MemCmpILi7E15GreaterThanZero4NoneEvRN9benchmark5StateE = comdat any

$_Z9BM_MemCmpILi7E15GreaterThanZero5FirstEvRN9benchmark5StateE = comdat any

$_Z9BM_MemCmpILi7E15GreaterThanZero3MidEvRN9benchmark5StateE = comdat any

$_Z9BM_MemCmpILi7E15GreaterThanZero4LastEvRN9benchmark5StateE = comdat any

$_Z9BM_MemCmpILi8E6EqZero4NoneEvRN9benchmark5StateE = comdat any

$_Z9BM_MemCmpILi8E6EqZero5FirstEvRN9benchmark5StateE = comdat any

$_Z9BM_MemCmpILi8E6EqZero3MidEvRN9benchmark5StateE = comdat any

$_Z9BM_MemCmpILi8E6EqZero4LastEvRN9benchmark5StateE = comdat any

$_Z9BM_MemCmpILi8E12LessThanZero4NoneEvRN9benchmark5StateE = comdat any

$_Z9BM_MemCmpILi8E12LessThanZero5FirstEvRN9benchmark5StateE = comdat any

$_Z9BM_MemCmpILi8E12LessThanZero3MidEvRN9benchmark5StateE = comdat any

$_Z9BM_MemCmpILi8E12LessThanZero4LastEvRN9benchmark5StateE = comdat any

$_Z9BM_MemCmpILi8E15GreaterThanZero4NoneEvRN9benchmark5StateE = comdat any

$_Z9BM_MemCmpILi8E15GreaterThanZero5FirstEvRN9benchmark5StateE = comdat any

$_Z9BM_MemCmpILi8E15GreaterThanZero3MidEvRN9benchmark5StateE = comdat any

$_Z9BM_MemCmpILi8E15GreaterThanZero4LastEvRN9benchmark5StateE = comdat any

$_Z9BM_MemCmpILi15E6EqZero4NoneEvRN9benchmark5StateE = comdat any

$_Z9BM_MemCmpILi15E6EqZero5FirstEvRN9benchmark5StateE = comdat any

$_Z9BM_MemCmpILi15E6EqZero3MidEvRN9benchmark5StateE = comdat any

$_Z9BM_MemCmpILi15E6EqZero4LastEvRN9benchmark5StateE = comdat any

$_Z9BM_MemCmpILi15E12LessThanZero4NoneEvRN9benchmark5StateE = comdat any

$_Z9BM_MemCmpILi15E12LessThanZero5FirstEvRN9benchmark5StateE = comdat any

$_Z9BM_MemCmpILi15E12LessThanZero3MidEvRN9benchmark5StateE = comdat any

$_Z9BM_MemCmpILi15E12LessThanZero4LastEvRN9benchmark5StateE = comdat any

$_Z9BM_MemCmpILi15E15GreaterThanZero4NoneEvRN9benchmark5StateE = comdat any

$_Z9BM_MemCmpILi15E15GreaterThanZero5FirstEvRN9benchmark5StateE = comdat any

$_Z9BM_MemCmpILi15E15GreaterThanZero3MidEvRN9benchmark5StateE = comdat any

$_Z9BM_MemCmpILi15E15GreaterThanZero4LastEvRN9benchmark5StateE = comdat any

$_Z9BM_MemCmpILi16E6EqZero4NoneEvRN9benchmark5StateE = comdat any

$_Z9BM_MemCmpILi16E6EqZero5FirstEvRN9benchmark5StateE = comdat any

$_Z9BM_MemCmpILi16E6EqZero3MidEvRN9benchmark5StateE = comdat any

$_Z9BM_MemCmpILi16E6EqZero4LastEvRN9benchmark5StateE = comdat any

$_Z9BM_MemCmpILi16E12LessThanZero4NoneEvRN9benchmark5StateE = comdat any

$_Z9BM_MemCmpILi16E12LessThanZero5FirstEvRN9benchmark5StateE = comdat any

$_Z9BM_MemCmpILi16E12LessThanZero3MidEvRN9benchmark5StateE = comdat any

$_Z9BM_MemCmpILi16E12LessThanZero4LastEvRN9benchmark5StateE = comdat any

$_Z9BM_MemCmpILi16E15GreaterThanZero4NoneEvRN9benchmark5StateE = comdat any

$_Z9BM_MemCmpILi16E15GreaterThanZero5FirstEvRN9benchmark5StateE = comdat any

$_Z9BM_MemCmpILi16E15GreaterThanZero3MidEvRN9benchmark5StateE = comdat any

$_Z9BM_MemCmpILi16E15GreaterThanZero4LastEvRN9benchmark5StateE = comdat any

$_Z9BM_MemCmpILi31E6EqZero4NoneEvRN9benchmark5StateE = comdat any

$_Z9BM_MemCmpILi31E6EqZero5FirstEvRN9benchmark5StateE = comdat any

$_Z9BM_MemCmpILi31E6EqZero3MidEvRN9benchmark5StateE = comdat any

$_Z9BM_MemCmpILi31E6EqZero4LastEvRN9benchmark5StateE = comdat any

$_Z9BM_MemCmpILi31E12LessThanZero4NoneEvRN9benchmark5StateE = comdat any

$_Z9BM_MemCmpILi31E12LessThanZero5FirstEvRN9benchmark5StateE = comdat any

$_Z9BM_MemCmpILi31E12LessThanZero3MidEvRN9benchmark5StateE = comdat any

$_Z9BM_MemCmpILi31E12LessThanZero4LastEvRN9benchmark5StateE = comdat any

$_Z9BM_MemCmpILi31E15GreaterThanZero4NoneEvRN9benchmark5StateE = comdat any

$_Z9BM_MemCmpILi31E15GreaterThanZero5FirstEvRN9benchmark5StateE = comdat any

$_Z9BM_MemCmpILi31E15GreaterThanZero3MidEvRN9benchmark5StateE = comdat any

$_Z9BM_MemCmpILi31E15GreaterThanZero4LastEvRN9benchmark5StateE = comdat any

$_Z9BM_MemCmpILi32E6EqZero4NoneEvRN9benchmark5StateE = comdat any

$_Z9BM_MemCmpILi32E6EqZero5FirstEvRN9benchmark5StateE = comdat any

$_Z9BM_MemCmpILi32E6EqZero3MidEvRN9benchmark5StateE = comdat any

$_Z9BM_MemCmpILi32E6EqZero4LastEvRN9benchmark5StateE = comdat any

$_Z9BM_MemCmpILi32E12LessThanZero4NoneEvRN9benchmark5StateE = comdat any

$_Z9BM_MemCmpILi32E12LessThanZero5FirstEvRN9benchmark5StateE = comdat any

$_Z9BM_MemCmpILi32E12LessThanZero3MidEvRN9benchmark5StateE = comdat any

$_Z9BM_MemCmpILi32E12LessThanZero4LastEvRN9benchmark5StateE = comdat any

$_Z9BM_MemCmpILi32E15GreaterThanZero4NoneEvRN9benchmark5StateE = comdat any

$_Z9BM_MemCmpILi32E15GreaterThanZero5FirstEvRN9benchmark5StateE = comdat any

$_Z9BM_MemCmpILi32E15GreaterThanZero3MidEvRN9benchmark5StateE = comdat any

$_Z9BM_MemCmpILi32E15GreaterThanZero4LastEvRN9benchmark5StateE = comdat any

$_Z9BM_MemCmpILi63E6EqZero4NoneEvRN9benchmark5StateE = comdat any

$_Z9BM_MemCmpILi63E6EqZero5FirstEvRN9benchmark5StateE = comdat any

$_Z9BM_MemCmpILi63E6EqZero3MidEvRN9benchmark5StateE = comdat any

$_Z9BM_MemCmpILi63E6EqZero4LastEvRN9benchmark5StateE = comdat any

$_Z9BM_MemCmpILi63E12LessThanZero4NoneEvRN9benchmark5StateE = comdat any

$_Z9BM_MemCmpILi63E12LessThanZero5FirstEvRN9benchmark5StateE = comdat any

$_Z9BM_MemCmpILi63E12LessThanZero3MidEvRN9benchmark5StateE = comdat any

$_Z9BM_MemCmpILi63E12LessThanZero4LastEvRN9benchmark5StateE = comdat any

$_Z9BM_MemCmpILi63E15GreaterThanZero4NoneEvRN9benchmark5StateE = comdat any

$_Z9BM_MemCmpILi63E15GreaterThanZero5FirstEvRN9benchmark5StateE = comdat any

$_Z9BM_MemCmpILi63E15GreaterThanZero3MidEvRN9benchmark5StateE = comdat any

$_Z9BM_MemCmpILi63E15GreaterThanZero4LastEvRN9benchmark5StateE = comdat any

$_Z9BM_MemCmpILi64E6EqZero4NoneEvRN9benchmark5StateE = comdat any

$_Z9BM_MemCmpILi64E6EqZero5FirstEvRN9benchmark5StateE = comdat any

$_Z9BM_MemCmpILi64E6EqZero3MidEvRN9benchmark5StateE = comdat any

$_Z9BM_MemCmpILi64E6EqZero4LastEvRN9benchmark5StateE = comdat any

$_Z9BM_MemCmpILi64E12LessThanZero4NoneEvRN9benchmark5StateE = comdat any

$_Z9BM_MemCmpILi64E12LessThanZero5FirstEvRN9benchmark5StateE = comdat any

$_Z9BM_MemCmpILi64E12LessThanZero3MidEvRN9benchmark5StateE = comdat any

$_Z9BM_MemCmpILi64E12LessThanZero4LastEvRN9benchmark5StateE = comdat any

$_Z9BM_MemCmpILi64E15GreaterThanZero4NoneEvRN9benchmark5StateE = comdat any

$_Z9BM_MemCmpILi64E15GreaterThanZero5FirstEvRN9benchmark5StateE = comdat any

$_Z9BM_MemCmpILi64E15GreaterThanZero3MidEvRN9benchmark5StateE = comdat any

$_Z9BM_MemCmpILi64E15GreaterThanZero4LastEvRN9benchmark5StateE = comdat any

$_ZNSt3mapINSt7__cxx1112basic_stringIcSt11char_traitsIcESaIcEEEN9benchmark7CounterESt4lessIS5_ESaISt4pairIKS5_S7_EEEixEOS5_ = comdat any

$_ZNSt8_Rb_treeINSt7__cxx1112basic_stringIcSt11char_traitsIcESaIcEEESt4pairIKS5_N9benchmark7CounterEESt10_Select1stISA_ESt4lessIS5_ESaISA_EE22_M_emplace_hint_uniqueIJRKSt21piecewise_construct_tSt5tupleIJOS5_EESL_IJEEEEESt17_Rb_tree_iteratorISA_ESt23_Rb_tree_const_iteratorISA_EDpOT_ = comdat any

$_ZNSt8_Rb_treeINSt7__cxx1112basic_stringIcSt11char_traitsIcESaIcEEESt4pairIKS5_N9benchmark7CounterEESt10_Select1stISA_ESt4lessIS5_ESaISA_EE29_M_get_insert_hint_unique_posESt23_Rb_tree_const_iteratorISA_ERS7_ = comdat any

$_ZNSt8_Rb_treeINSt7__cxx1112basic_stringIcSt11char_traitsIcESaIcEEESt4pairIKS5_N9benchmark7CounterEESt10_Select1stISA_ESt4lessIS5_ESaISA_EE10_Auto_nodeD2Ev = comdat any

$_ZNSt8_Rb_treeINSt7__cxx1112basic_stringIcSt11char_traitsIcESaIcEEESt4pairIKS5_N9benchmark7CounterEESt10_Select1stISA_ESt4lessIS5_ESaISA_EE24_M_get_insert_unique_posERS7_ = comdat any

$_ZN6EqZero8kDisplayE = comdat any

$_ZN4None8kDisplayE = comdat any

$_ZN5First8kDisplayE = comdat any

$_ZN3Mid8kDisplayE = comdat any

$_ZN4Last8kDisplayE = comdat any

$_ZN12LessThanZero8kDisplayE = comdat any

$_ZN15GreaterThanZero8kDisplayE = comdat any

@_ZStL8__ioinit = internal global %"class.std::ios_base::Init" zeroinitializer, align 1
@__dso_handle = external hidden global i8
@_ZL25benchmark_uniq_2BM_MemCmp = internal unnamed_addr global ptr null, align 8
@.str = private unnamed_addr constant [27 x i8] c"BM_MemCmp<1, EqZero, None>\00", align 1
@_ZL25benchmark_uniq_3BM_MemCmp = internal unnamed_addr global ptr null, align 8
@.str.4 = private unnamed_addr constant [28 x i8] c"BM_MemCmp<1, EqZero, First>\00", align 1
@_ZL25benchmark_uniq_4BM_MemCmp = internal unnamed_addr global ptr null, align 8
@.str.6 = private unnamed_addr constant [26 x i8] c"BM_MemCmp<1, EqZero, Mid>\00", align 1
@_ZL25benchmark_uniq_5BM_MemCmp = internal unnamed_addr global ptr null, align 8
@.str.8 = private unnamed_addr constant [27 x i8] c"BM_MemCmp<1, EqZero, Last>\00", align 1
@_ZL25benchmark_uniq_6BM_MemCmp = internal unnamed_addr global ptr null, align 8
@.str.10 = private unnamed_addr constant [33 x i8] c"BM_MemCmp<1, LessThanZero, None>\00", align 1
@_ZL25benchmark_uniq_7BM_MemCmp = internal unnamed_addr global ptr null, align 8
@.str.12 = private unnamed_addr constant [34 x i8] c"BM_MemCmp<1, LessThanZero, First>\00", align 1
@_ZL25benchmark_uniq_8BM_MemCmp = internal unnamed_addr global ptr null, align 8
@.str.14 = private unnamed_addr constant [32 x i8] c"BM_MemCmp<1, LessThanZero, Mid>\00", align 1
@_ZL25benchmark_uniq_9BM_MemCmp = internal unnamed_addr global ptr null, align 8
@.str.16 = private unnamed_addr constant [33 x i8] c"BM_MemCmp<1, LessThanZero, Last>\00", align 1
@_ZL26benchmark_uniq_10BM_MemCmp = internal unnamed_addr global ptr null, align 8
@.str.18 = private unnamed_addr constant [36 x i8] c"BM_MemCmp<1, GreaterThanZero, None>\00", align 1
@_ZL26benchmark_uniq_11BM_MemCmp = internal unnamed_addr global ptr null, align 8
@.str.20 = private unnamed_addr constant [37 x i8] c"BM_MemCmp<1, GreaterThanZero, First>\00", align 1
@_ZL26benchmark_uniq_12BM_MemCmp = internal unnamed_addr global ptr null, align 8
@.str.22 = private unnamed_addr constant [35 x i8] c"BM_MemCmp<1, GreaterThanZero, Mid>\00", align 1
@_ZL26benchmark_uniq_13BM_MemCmp = internal unnamed_addr global ptr null, align 8
@.str.24 = private unnamed_addr constant [36 x i8] c"BM_MemCmp<1, GreaterThanZero, Last>\00", align 1
@_ZL26benchmark_uniq_14BM_MemCmp = internal unnamed_addr global ptr null, align 8
@.str.26 = private unnamed_addr constant [27 x i8] c"BM_MemCmp<2, EqZero, None>\00", align 1
@_ZL26benchmark_uniq_15BM_MemCmp = internal unnamed_addr global ptr null, align 8
@.str.28 = private unnamed_addr constant [28 x i8] c"BM_MemCmp<2, EqZero, First>\00", align 1
@_ZL26benchmark_uniq_16BM_MemCmp = internal unnamed_addr global ptr null, align 8
@.str.30 = private unnamed_addr constant [26 x i8] c"BM_MemCmp<2, EqZero, Mid>\00", align 1
@_ZL26benchmark_uniq_17BM_MemCmp = internal unnamed_addr global ptr null, align 8
@.str.32 = private unnamed_addr constant [27 x i8] c"BM_MemCmp<2, EqZero, Last>\00", align 1
@_ZL26benchmark_uniq_18BM_MemCmp = internal unnamed_addr global ptr null, align 8
@.str.34 = private unnamed_addr constant [33 x i8] c"BM_MemCmp<2, LessThanZero, None>\00", align 1
@_ZL26benchmark_uniq_19BM_MemCmp = internal unnamed_addr global ptr null, align 8
@.str.36 = private unnamed_addr constant [34 x i8] c"BM_MemCmp<2, LessThanZero, First>\00", align 1
@_ZL26benchmark_uniq_20BM_MemCmp = internal unnamed_addr global ptr null, align 8
@.str.38 = private unnamed_addr constant [32 x i8] c"BM_MemCmp<2, LessThanZero, Mid>\00", align 1
@_ZL26benchmark_uniq_21BM_MemCmp = internal unnamed_addr global ptr null, align 8
@.str.40 = private unnamed_addr constant [33 x i8] c"BM_MemCmp<2, LessThanZero, Last>\00", align 1
@_ZL26benchmark_uniq_22BM_MemCmp = internal unnamed_addr global ptr null, align 8
@.str.42 = private unnamed_addr constant [36 x i8] c"BM_MemCmp<2, GreaterThanZero, None>\00", align 1
@_ZL26benchmark_uniq_23BM_MemCmp = internal unnamed_addr global ptr null, align 8
@.str.44 = private unnamed_addr constant [37 x i8] c"BM_MemCmp<2, GreaterThanZero, First>\00", align 1
@_ZL26benchmark_uniq_24BM_MemCmp = internal unnamed_addr global ptr null, align 8
@.str.46 = private unnamed_addr constant [35 x i8] c"BM_MemCmp<2, GreaterThanZero, Mid>\00", align 1
@_ZL26benchmark_uniq_25BM_MemCmp = internal unnamed_addr global ptr null, align 8
@.str.48 = private unnamed_addr constant [36 x i8] c"BM_MemCmp<2, GreaterThanZero, Last>\00", align 1
@_ZL26benchmark_uniq_26BM_MemCmp = internal unnamed_addr global ptr null, align 8
@.str.50 = private unnamed_addr constant [27 x i8] c"BM_MemCmp<3, EqZero, None>\00", align 1
@_ZL26benchmark_uniq_27BM_MemCmp = internal unnamed_addr global ptr null, align 8
@.str.52 = private unnamed_addr constant [28 x i8] c"BM_MemCmp<3, EqZero, First>\00", align 1
@_ZL26benchmark_uniq_28BM_MemCmp = internal unnamed_addr global ptr null, align 8
@.str.54 = private unnamed_addr constant [26 x i8] c"BM_MemCmp<3, EqZero, Mid>\00", align 1
@_ZL26benchmark_uniq_29BM_MemCmp = internal unnamed_addr global ptr null, align 8
@.str.56 = private unnamed_addr constant [27 x i8] c"BM_MemCmp<3, EqZero, Last>\00", align 1
@_ZL26benchmark_uniq_30BM_MemCmp = internal unnamed_addr global ptr null, align 8
@.str.58 = private unnamed_addr constant [33 x i8] c"BM_MemCmp<3, LessThanZero, None>\00", align 1
@_ZL26benchmark_uniq_31BM_MemCmp = internal unnamed_addr global ptr null, align 8
@.str.60 = private unnamed_addr constant [34 x i8] c"BM_MemCmp<3, LessThanZero, First>\00", align 1
@_ZL26benchmark_uniq_32BM_MemCmp = internal unnamed_addr global ptr null, align 8
@.str.62 = private unnamed_addr constant [32 x i8] c"BM_MemCmp<3, LessThanZero, Mid>\00", align 1
@_ZL26benchmark_uniq_33BM_MemCmp = internal unnamed_addr global ptr null, align 8
@.str.64 = private unnamed_addr constant [33 x i8] c"BM_MemCmp<3, LessThanZero, Last>\00", align 1
@_ZL26benchmark_uniq_34BM_MemCmp = internal unnamed_addr global ptr null, align 8
@.str.66 = private unnamed_addr constant [36 x i8] c"BM_MemCmp<3, GreaterThanZero, None>\00", align 1
@_ZL26benchmark_uniq_35BM_MemCmp = internal unnamed_addr global ptr null, align 8
@.str.68 = private unnamed_addr constant [37 x i8] c"BM_MemCmp<3, GreaterThanZero, First>\00", align 1
@_ZL26benchmark_uniq_36BM_MemCmp = internal unnamed_addr global ptr null, align 8
@.str.70 = private unnamed_addr constant [35 x i8] c"BM_MemCmp<3, GreaterThanZero, Mid>\00", align 1
@_ZL26benchmark_uniq_37BM_MemCmp = internal unnamed_addr global ptr null, align 8
@.str.72 = private unnamed_addr constant [36 x i8] c"BM_MemCmp<3, GreaterThanZero, Last>\00", align 1
@_ZL26benchmark_uniq_38BM_MemCmp = internal unnamed_addr global ptr null, align 8
@.str.74 = private unnamed_addr constant [27 x i8] c"BM_MemCmp<4, EqZero, None>\00", align 1
@_ZL26benchmark_uniq_39BM_MemCmp = internal unnamed_addr global ptr null, align 8
@.str.76 = private unnamed_addr constant [28 x i8] c"BM_MemCmp<4, EqZero, First>\00", align 1
@_ZL26benchmark_uniq_40BM_MemCmp = internal unnamed_addr global ptr null, align 8
@.str.78 = private unnamed_addr constant [26 x i8] c"BM_MemCmp<4, EqZero, Mid>\00", align 1
@_ZL26benchmark_uniq_41BM_MemCmp = internal unnamed_addr global ptr null, align 8
@.str.80 = private unnamed_addr constant [27 x i8] c"BM_MemCmp<4, EqZero, Last>\00", align 1
@_ZL26benchmark_uniq_42BM_MemCmp = internal unnamed_addr global ptr null, align 8
@.str.82 = private unnamed_addr constant [33 x i8] c"BM_MemCmp<4, LessThanZero, None>\00", align 1
@_ZL26benchmark_uniq_43BM_MemCmp = internal unnamed_addr global ptr null, align 8
@.str.84 = private unnamed_addr constant [34 x i8] c"BM_MemCmp<4, LessThanZero, First>\00", align 1
@_ZL26benchmark_uniq_44BM_MemCmp = internal unnamed_addr global ptr null, align 8
@.str.86 = private unnamed_addr constant [32 x i8] c"BM_MemCmp<4, LessThanZero, Mid>\00", align 1
@_ZL26benchmark_uniq_45BM_MemCmp = internal unnamed_addr global ptr null, align 8
@.str.88 = private unnamed_addr constant [33 x i8] c"BM_MemCmp<4, LessThanZero, Last>\00", align 1
@_ZL26benchmark_uniq_46BM_MemCmp = internal unnamed_addr global ptr null, align 8
@.str.90 = private unnamed_addr constant [36 x i8] c"BM_MemCmp<4, GreaterThanZero, None>\00", align 1
@_ZL26benchmark_uniq_47BM_MemCmp = internal unnamed_addr global ptr null, align 8
@.str.92 = private unnamed_addr constant [37 x i8] c"BM_MemCmp<4, GreaterThanZero, First>\00", align 1
@_ZL26benchmark_uniq_48BM_MemCmp = internal unnamed_addr global ptr null, align 8
@.str.94 = private unnamed_addr constant [35 x i8] c"BM_MemCmp<4, GreaterThanZero, Mid>\00", align 1
@_ZL26benchmark_uniq_49BM_MemCmp = internal unnamed_addr global ptr null, align 8
@.str.96 = private unnamed_addr constant [36 x i8] c"BM_MemCmp<4, GreaterThanZero, Last>\00", align 1
@_ZL26benchmark_uniq_50BM_MemCmp = internal unnamed_addr global ptr null, align 8
@.str.98 = private unnamed_addr constant [27 x i8] c"BM_MemCmp<5, EqZero, None>\00", align 1
@_ZL26benchmark_uniq_51BM_MemCmp = internal unnamed_addr global ptr null, align 8
@.str.100 = private unnamed_addr constant [28 x i8] c"BM_MemCmp<5, EqZero, First>\00", align 1
@_ZL26benchmark_uniq_52BM_MemCmp = internal unnamed_addr global ptr null, align 8
@.str.102 = private unnamed_addr constant [26 x i8] c"BM_MemCmp<5, EqZero, Mid>\00", align 1
@_ZL26benchmark_uniq_53BM_MemCmp = internal unnamed_addr global ptr null, align 8
@.str.104 = private unnamed_addr constant [27 x i8] c"BM_MemCmp<5, EqZero, Last>\00", align 1
@_ZL26benchmark_uniq_54BM_MemCmp = internal unnamed_addr global ptr null, align 8
@.str.106 = private unnamed_addr constant [33 x i8] c"BM_MemCmp<5, LessThanZero, None>\00", align 1
@_ZL26benchmark_uniq_55BM_MemCmp = internal unnamed_addr global ptr null, align 8
@.str.108 = private unnamed_addr constant [34 x i8] c"BM_MemCmp<5, LessThanZero, First>\00", align 1
@_ZL26benchmark_uniq_56BM_MemCmp = internal unnamed_addr global ptr null, align 8
@.str.110 = private unnamed_addr constant [32 x i8] c"BM_MemCmp<5, LessThanZero, Mid>\00", align 1
@_ZL26benchmark_uniq_57BM_MemCmp = internal unnamed_addr global ptr null, align 8
@.str.112 = private unnamed_addr constant [33 x i8] c"BM_MemCmp<5, LessThanZero, Last>\00", align 1
@_ZL26benchmark_uniq_58BM_MemCmp = internal unnamed_addr global ptr null, align 8
@.str.114 = private unnamed_addr constant [36 x i8] c"BM_MemCmp<5, GreaterThanZero, None>\00", align 1
@_ZL26benchmark_uniq_59BM_MemCmp = internal unnamed_addr global ptr null, align 8
@.str.116 = private unnamed_addr constant [37 x i8] c"BM_MemCmp<5, GreaterThanZero, First>\00", align 1
@_ZL26benchmark_uniq_60BM_MemCmp = internal unnamed_addr global ptr null, align 8
@.str.118 = private unnamed_addr constant [35 x i8] c"BM_MemCmp<5, GreaterThanZero, Mid>\00", align 1
@_ZL26benchmark_uniq_61BM_MemCmp = internal unnamed_addr global ptr null, align 8
@.str.120 = private unnamed_addr constant [36 x i8] c"BM_MemCmp<5, GreaterThanZero, Last>\00", align 1
@_ZL26benchmark_uniq_62BM_MemCmp = internal unnamed_addr global ptr null, align 8
@.str.122 = private unnamed_addr constant [27 x i8] c"BM_MemCmp<6, EqZero, None>\00", align 1
@_ZL26benchmark_uniq_63BM_MemCmp = internal unnamed_addr global ptr null, align 8
@.str.124 = private unnamed_addr constant [28 x i8] c"BM_MemCmp<6, EqZero, First>\00", align 1
@_ZL26benchmark_uniq_64BM_MemCmp = internal unnamed_addr global ptr null, align 8
@.str.126 = private unnamed_addr constant [26 x i8] c"BM_MemCmp<6, EqZero, Mid>\00", align 1
@_ZL26benchmark_uniq_65BM_MemCmp = internal unnamed_addr global ptr null, align 8
@.str.128 = private unnamed_addr constant [27 x i8] c"BM_MemCmp<6, EqZero, Last>\00", align 1
@_ZL26benchmark_uniq_66BM_MemCmp = internal unnamed_addr global ptr null, align 8
@.str.130 = private unnamed_addr constant [33 x i8] c"BM_MemCmp<6, LessThanZero, None>\00", align 1
@_ZL26benchmark_uniq_67BM_MemCmp = internal unnamed_addr global ptr null, align 8
@.str.132 = private unnamed_addr constant [34 x i8] c"BM_MemCmp<6, LessThanZero, First>\00", align 1
@_ZL26benchmark_uniq_68BM_MemCmp = internal unnamed_addr global ptr null, align 8
@.str.134 = private unnamed_addr constant [32 x i8] c"BM_MemCmp<6, LessThanZero, Mid>\00", align 1
@_ZL26benchmark_uniq_69BM_MemCmp = internal unnamed_addr global ptr null, align 8
@.str.136 = private unnamed_addr constant [33 x i8] c"BM_MemCmp<6, LessThanZero, Last>\00", align 1
@_ZL26benchmark_uniq_70BM_MemCmp = internal unnamed_addr global ptr null, align 8
@.str.138 = private unnamed_addr constant [36 x i8] c"BM_MemCmp<6, GreaterThanZero, None>\00", align 1
@_ZL26benchmark_uniq_71BM_MemCmp = internal unnamed_addr global ptr null, align 8
@.str.140 = private unnamed_addr constant [37 x i8] c"BM_MemCmp<6, GreaterThanZero, First>\00", align 1
@_ZL26benchmark_uniq_72BM_MemCmp = internal unnamed_addr global ptr null, align 8
@.str.142 = private unnamed_addr constant [35 x i8] c"BM_MemCmp<6, GreaterThanZero, Mid>\00", align 1
@_ZL26benchmark_uniq_73BM_MemCmp = internal unnamed_addr global ptr null, align 8
@.str.144 = private unnamed_addr constant [36 x i8] c"BM_MemCmp<6, GreaterThanZero, Last>\00", align 1
@_ZL26benchmark_uniq_74BM_MemCmp = internal unnamed_addr global ptr null, align 8
@.str.146 = private unnamed_addr constant [27 x i8] c"BM_MemCmp<7, EqZero, None>\00", align 1
@_ZL26benchmark_uniq_75BM_MemCmp = internal unnamed_addr global ptr null, align 8
@.str.148 = private unnamed_addr constant [28 x i8] c"BM_MemCmp<7, EqZero, First>\00", align 1
@_ZL26benchmark_uniq_76BM_MemCmp = internal unnamed_addr global ptr null, align 8
@.str.150 = private unnamed_addr constant [26 x i8] c"BM_MemCmp<7, EqZero, Mid>\00", align 1
@_ZL26benchmark_uniq_77BM_MemCmp = internal unnamed_addr global ptr null, align 8
@.str.152 = private unnamed_addr constant [27 x i8] c"BM_MemCmp<7, EqZero, Last>\00", align 1
@_ZL26benchmark_uniq_78BM_MemCmp = internal unnamed_addr global ptr null, align 8
@.str.154 = private unnamed_addr constant [33 x i8] c"BM_MemCmp<7, LessThanZero, None>\00", align 1
@_ZL26benchmark_uniq_79BM_MemCmp = internal unnamed_addr global ptr null, align 8
@.str.156 = private unnamed_addr constant [34 x i8] c"BM_MemCmp<7, LessThanZero, First>\00", align 1
@_ZL26benchmark_uniq_80BM_MemCmp = internal unnamed_addr global ptr null, align 8
@.str.158 = private unnamed_addr constant [32 x i8] c"BM_MemCmp<7, LessThanZero, Mid>\00", align 1
@_ZL26benchmark_uniq_81BM_MemCmp = internal unnamed_addr global ptr null, align 8
@.str.160 = private unnamed_addr constant [33 x i8] c"BM_MemCmp<7, LessThanZero, Last>\00", align 1
@_ZL26benchmark_uniq_82BM_MemCmp = internal unnamed_addr global ptr null, align 8
@.str.162 = private unnamed_addr constant [36 x i8] c"BM_MemCmp<7, GreaterThanZero, None>\00", align 1
@_ZL26benchmark_uniq_83BM_MemCmp = internal unnamed_addr global ptr null, align 8
@.str.164 = private unnamed_addr constant [37 x i8] c"BM_MemCmp<7, GreaterThanZero, First>\00", align 1
@_ZL26benchmark_uniq_84BM_MemCmp = internal unnamed_addr global ptr null, align 8
@.str.166 = private unnamed_addr constant [35 x i8] c"BM_MemCmp<7, GreaterThanZero, Mid>\00", align 1
@_ZL26benchmark_uniq_85BM_MemCmp = internal unnamed_addr global ptr null, align 8
@.str.168 = private unnamed_addr constant [36 x i8] c"BM_MemCmp<7, GreaterThanZero, Last>\00", align 1
@_ZL26benchmark_uniq_86BM_MemCmp = internal unnamed_addr global ptr null, align 8
@.str.170 = private unnamed_addr constant [27 x i8] c"BM_MemCmp<8, EqZero, None>\00", align 1
@_ZL26benchmark_uniq_87BM_MemCmp = internal unnamed_addr global ptr null, align 8
@.str.172 = private unnamed_addr constant [28 x i8] c"BM_MemCmp<8, EqZero, First>\00", align 1
@_ZL26benchmark_uniq_88BM_MemCmp = internal unnamed_addr global ptr null, align 8
@.str.174 = private unnamed_addr constant [26 x i8] c"BM_MemCmp<8, EqZero, Mid>\00", align 1
@_ZL26benchmark_uniq_89BM_MemCmp = internal unnamed_addr global ptr null, align 8
@.str.176 = private unnamed_addr constant [27 x i8] c"BM_MemCmp<8, EqZero, Last>\00", align 1
@_ZL26benchmark_uniq_90BM_MemCmp = internal unnamed_addr global ptr null, align 8
@.str.178 = private unnamed_addr constant [33 x i8] c"BM_MemCmp<8, LessThanZero, None>\00", align 1
@_ZL26benchmark_uniq_91BM_MemCmp = internal unnamed_addr global ptr null, align 8
@.str.180 = private unnamed_addr constant [34 x i8] c"BM_MemCmp<8, LessThanZero, First>\00", align 1
@_ZL26benchmark_uniq_92BM_MemCmp = internal unnamed_addr global ptr null, align 8
@.str.182 = private unnamed_addr constant [32 x i8] c"BM_MemCmp<8, LessThanZero, Mid>\00", align 1
@_ZL26benchmark_uniq_93BM_MemCmp = internal unnamed_addr global ptr null, align 8
@.str.184 = private unnamed_addr constant [33 x i8] c"BM_MemCmp<8, LessThanZero, Last>\00", align 1
@_ZL26benchmark_uniq_94BM_MemCmp = internal unnamed_addr global ptr null, align 8
@.str.186 = private unnamed_addr constant [36 x i8] c"BM_MemCmp<8, GreaterThanZero, None>\00", align 1
@_ZL26benchmark_uniq_95BM_MemCmp = internal unnamed_addr global ptr null, align 8
@.str.188 = private unnamed_addr constant [37 x i8] c"BM_MemCmp<8, GreaterThanZero, First>\00", align 1
@_ZL26benchmark_uniq_96BM_MemCmp = internal unnamed_addr global ptr null, align 8
@.str.190 = private unnamed_addr constant [35 x i8] c"BM_MemCmp<8, GreaterThanZero, Mid>\00", align 1
@_ZL26benchmark_uniq_97BM_MemCmp = internal unnamed_addr global ptr null, align 8
@.str.192 = private unnamed_addr constant [36 x i8] c"BM_MemCmp<8, GreaterThanZero, Last>\00", align 1
@_ZL26benchmark_uniq_98BM_MemCmp = internal unnamed_addr global ptr null, align 8
@.str.194 = private unnamed_addr constant [28 x i8] c"BM_MemCmp<15, EqZero, None>\00", align 1
@_ZL26benchmark_uniq_99BM_MemCmp = internal unnamed_addr global ptr null, align 8
@.str.196 = private unnamed_addr constant [29 x i8] c"BM_MemCmp<15, EqZero, First>\00", align 1
@_ZL27benchmark_uniq_100BM_MemCmp = internal unnamed_addr global ptr null, align 8
@.str.198 = private unnamed_addr constant [27 x i8] c"BM_MemCmp<15, EqZero, Mid>\00", align 1
@_ZL27benchmark_uniq_101BM_MemCmp = internal unnamed_addr global ptr null, align 8
@.str.200 = private unnamed_addr constant [28 x i8] c"BM_MemCmp<15, EqZero, Last>\00", align 1
@_ZL27benchmark_uniq_102BM_MemCmp = internal unnamed_addr global ptr null, align 8
@.str.202 = private unnamed_addr constant [34 x i8] c"BM_MemCmp<15, LessThanZero, None>\00", align 1
@_ZL27benchmark_uniq_103BM_MemCmp = internal unnamed_addr global ptr null, align 8
@.str.204 = private unnamed_addr constant [35 x i8] c"BM_MemCmp<15, LessThanZero, First>\00", align 1
@_ZL27benchmark_uniq_104BM_MemCmp = internal unnamed_addr global ptr null, align 8
@.str.206 = private unnamed_addr constant [33 x i8] c"BM_MemCmp<15, LessThanZero, Mid>\00", align 1
@_ZL27benchmark_uniq_105BM_MemCmp = internal unnamed_addr global ptr null, align 8
@.str.208 = private unnamed_addr constant [34 x i8] c"BM_MemCmp<15, LessThanZero, Last>\00", align 1
@_ZL27benchmark_uniq_106BM_MemCmp = internal unnamed_addr global ptr null, align 8
@.str.210 = private unnamed_addr constant [37 x i8] c"BM_MemCmp<15, GreaterThanZero, None>\00", align 1
@_ZL27benchmark_uniq_107BM_MemCmp = internal unnamed_addr global ptr null, align 8
@.str.212 = private unnamed_addr constant [38 x i8] c"BM_MemCmp<15, GreaterThanZero, First>\00", align 1
@_ZL27benchmark_uniq_108BM_MemCmp = internal unnamed_addr global ptr null, align 8
@.str.214 = private unnamed_addr constant [36 x i8] c"BM_MemCmp<15, GreaterThanZero, Mid>\00", align 1
@_ZL27benchmark_uniq_109BM_MemCmp = internal unnamed_addr global ptr null, align 8
@.str.216 = private unnamed_addr constant [37 x i8] c"BM_MemCmp<15, GreaterThanZero, Last>\00", align 1
@_ZL27benchmark_uniq_110BM_MemCmp = internal unnamed_addr global ptr null, align 8
@.str.218 = private unnamed_addr constant [28 x i8] c"BM_MemCmp<16, EqZero, None>\00", align 1
@_ZL27benchmark_uniq_111BM_MemCmp = internal unnamed_addr global ptr null, align 8
@.str.220 = private unnamed_addr constant [29 x i8] c"BM_MemCmp<16, EqZero, First>\00", align 1
@_ZL27benchmark_uniq_112BM_MemCmp = internal unnamed_addr global ptr null, align 8
@.str.222 = private unnamed_addr constant [27 x i8] c"BM_MemCmp<16, EqZero, Mid>\00", align 1
@_ZL27benchmark_uniq_113BM_MemCmp = internal unnamed_addr global ptr null, align 8
@.str.224 = private unnamed_addr constant [28 x i8] c"BM_MemCmp<16, EqZero, Last>\00", align 1
@_ZL27benchmark_uniq_114BM_MemCmp = internal unnamed_addr global ptr null, align 8
@.str.226 = private unnamed_addr constant [34 x i8] c"BM_MemCmp<16, LessThanZero, None>\00", align 1
@_ZL27benchmark_uniq_115BM_MemCmp = internal unnamed_addr global ptr null, align 8
@.str.228 = private unnamed_addr constant [35 x i8] c"BM_MemCmp<16, LessThanZero, First>\00", align 1
@_ZL27benchmark_uniq_116BM_MemCmp = internal unnamed_addr global ptr null, align 8
@.str.230 = private unnamed_addr constant [33 x i8] c"BM_MemCmp<16, LessThanZero, Mid>\00", align 1
@_ZL27benchmark_uniq_117BM_MemCmp = internal unnamed_addr global ptr null, align 8
@.str.232 = private unnamed_addr constant [34 x i8] c"BM_MemCmp<16, LessThanZero, Last>\00", align 1
@_ZL27benchmark_uniq_118BM_MemCmp = internal unnamed_addr global ptr null, align 8
@.str.234 = private unnamed_addr constant [37 x i8] c"BM_MemCmp<16, GreaterThanZero, None>\00", align 1
@_ZL27benchmark_uniq_119BM_MemCmp = internal unnamed_addr global ptr null, align 8
@.str.236 = private unnamed_addr constant [38 x i8] c"BM_MemCmp<16, GreaterThanZero, First>\00", align 1
@_ZL27benchmark_uniq_120BM_MemCmp = internal unnamed_addr global ptr null, align 8
@.str.238 = private unnamed_addr constant [36 x i8] c"BM_MemCmp<16, GreaterThanZero, Mid>\00", align 1
@_ZL27benchmark_uniq_121BM_MemCmp = internal unnamed_addr global ptr null, align 8
@.str.240 = private unnamed_addr constant [37 x i8] c"BM_MemCmp<16, GreaterThanZero, Last>\00", align 1
@_ZL27benchmark_uniq_122BM_MemCmp = internal unnamed_addr global ptr null, align 8
@.str.242 = private unnamed_addr constant [28 x i8] c"BM_MemCmp<31, EqZero, None>\00", align 1
@_ZL27benchmark_uniq_123BM_MemCmp = internal unnamed_addr global ptr null, align 8
@.str.244 = private unnamed_addr constant [29 x i8] c"BM_MemCmp<31, EqZero, First>\00", align 1
@_ZL27benchmark_uniq_124BM_MemCmp = internal unnamed_addr global ptr null, align 8
@.str.246 = private unnamed_addr constant [27 x i8] c"BM_MemCmp<31, EqZero, Mid>\00", align 1
@_ZL27benchmark_uniq_125BM_MemCmp = internal unnamed_addr global ptr null, align 8
@.str.248 = private unnamed_addr constant [28 x i8] c"BM_MemCmp<31, EqZero, Last>\00", align 1
@_ZL27benchmark_uniq_126BM_MemCmp = internal unnamed_addr global ptr null, align 8
@.str.250 = private unnamed_addr constant [34 x i8] c"BM_MemCmp<31, LessThanZero, None>\00", align 1
@_ZL27benchmark_uniq_127BM_MemCmp = internal unnamed_addr global ptr null, align 8
@.str.252 = private unnamed_addr constant [35 x i8] c"BM_MemCmp<31, LessThanZero, First>\00", align 1
@_ZL27benchmark_uniq_128BM_MemCmp = internal unnamed_addr global ptr null, align 8
@.str.254 = private unnamed_addr constant [33 x i8] c"BM_MemCmp<31, LessThanZero, Mid>\00", align 1
@_ZL27benchmark_uniq_129BM_MemCmp = internal unnamed_addr global ptr null, align 8
@.str.256 = private unnamed_addr constant [34 x i8] c"BM_MemCmp<31, LessThanZero, Last>\00", align 1
@_ZL27benchmark_uniq_130BM_MemCmp = internal unnamed_addr global ptr null, align 8
@.str.258 = private unnamed_addr constant [37 x i8] c"BM_MemCmp<31, GreaterThanZero, None>\00", align 1
@_ZL27benchmark_uniq_131BM_MemCmp = internal unnamed_addr global ptr null, align 8
@.str.260 = private unnamed_addr constant [38 x i8] c"BM_MemCmp<31, GreaterThanZero, First>\00", align 1
@_ZL27benchmark_uniq_132BM_MemCmp = internal unnamed_addr global ptr null, align 8
@.str.262 = private unnamed_addr constant [36 x i8] c"BM_MemCmp<31, GreaterThanZero, Mid>\00", align 1
@_ZL27benchmark_uniq_133BM_MemCmp = internal unnamed_addr global ptr null, align 8
@.str.264 = private unnamed_addr constant [37 x i8] c"BM_MemCmp<31, GreaterThanZero, Last>\00", align 1
@_ZL27benchmark_uniq_134BM_MemCmp = internal unnamed_addr global ptr null, align 8
@.str.266 = private unnamed_addr constant [28 x i8] c"BM_MemCmp<32, EqZero, None>\00", align 1
@_ZL27benchmark_uniq_135BM_MemCmp = internal unnamed_addr global ptr null, align 8
@.str.268 = private unnamed_addr constant [29 x i8] c"BM_MemCmp<32, EqZero, First>\00", align 1
@_ZL27benchmark_uniq_136BM_MemCmp = internal unnamed_addr global ptr null, align 8
@.str.270 = private unnamed_addr constant [27 x i8] c"BM_MemCmp<32, EqZero, Mid>\00", align 1
@_ZL27benchmark_uniq_137BM_MemCmp = internal unnamed_addr global ptr null, align 8
@.str.272 = private unnamed_addr constant [28 x i8] c"BM_MemCmp<32, EqZero, Last>\00", align 1
@_ZL27benchmark_uniq_138BM_MemCmp = internal unnamed_addr global ptr null, align 8
@.str.274 = private unnamed_addr constant [34 x i8] c"BM_MemCmp<32, LessThanZero, None>\00", align 1
@_ZL27benchmark_uniq_139BM_MemCmp = internal unnamed_addr global ptr null, align 8
@.str.276 = private unnamed_addr constant [35 x i8] c"BM_MemCmp<32, LessThanZero, First>\00", align 1
@_ZL27benchmark_uniq_140BM_MemCmp = internal unnamed_addr global ptr null, align 8
@.str.278 = private unnamed_addr constant [33 x i8] c"BM_MemCmp<32, LessThanZero, Mid>\00", align 1
@_ZL27benchmark_uniq_141BM_MemCmp = internal unnamed_addr global ptr null, align 8
@.str.280 = private unnamed_addr constant [34 x i8] c"BM_MemCmp<32, LessThanZero, Last>\00", align 1
@_ZL27benchmark_uniq_142BM_MemCmp = internal unnamed_addr global ptr null, align 8
@.str.282 = private unnamed_addr constant [37 x i8] c"BM_MemCmp<32, GreaterThanZero, None>\00", align 1
@_ZL27benchmark_uniq_143BM_MemCmp = internal unnamed_addr global ptr null, align 8
@.str.284 = private unnamed_addr constant [38 x i8] c"BM_MemCmp<32, GreaterThanZero, First>\00", align 1
@_ZL27benchmark_uniq_144BM_MemCmp = internal unnamed_addr global ptr null, align 8
@.str.286 = private unnamed_addr constant [36 x i8] c"BM_MemCmp<32, GreaterThanZero, Mid>\00", align 1
@_ZL27benchmark_uniq_145BM_MemCmp = internal unnamed_addr global ptr null, align 8
@.str.288 = private unnamed_addr constant [37 x i8] c"BM_MemCmp<32, GreaterThanZero, Last>\00", align 1
@_ZL27benchmark_uniq_146BM_MemCmp = internal unnamed_addr global ptr null, align 8
@.str.290 = private unnamed_addr constant [28 x i8] c"BM_MemCmp<63, EqZero, None>\00", align 1
@_ZL27benchmark_uniq_147BM_MemCmp = internal unnamed_addr global ptr null, align 8
@.str.292 = private unnamed_addr constant [29 x i8] c"BM_MemCmp<63, EqZero, First>\00", align 1
@_ZL27benchmark_uniq_148BM_MemCmp = internal unnamed_addr global ptr null, align 8
@.str.294 = private unnamed_addr constant [27 x i8] c"BM_MemCmp<63, EqZero, Mid>\00", align 1
@_ZL27benchmark_uniq_149BM_MemCmp = internal unnamed_addr global ptr null, align 8
@.str.296 = private unnamed_addr constant [28 x i8] c"BM_MemCmp<63, EqZero, Last>\00", align 1
@_ZL27benchmark_uniq_150BM_MemCmp = internal unnamed_addr global ptr null, align 8
@.str.298 = private unnamed_addr constant [34 x i8] c"BM_MemCmp<63, LessThanZero, None>\00", align 1
@_ZL27benchmark_uniq_151BM_MemCmp = internal unnamed_addr global ptr null, align 8
@.str.300 = private unnamed_addr constant [35 x i8] c"BM_MemCmp<63, LessThanZero, First>\00", align 1
@_ZL27benchmark_uniq_152BM_MemCmp = internal unnamed_addr global ptr null, align 8
@.str.302 = private unnamed_addr constant [33 x i8] c"BM_MemCmp<63, LessThanZero, Mid>\00", align 1
@_ZL27benchmark_uniq_153BM_MemCmp = internal unnamed_addr global ptr null, align 8
@.str.304 = private unnamed_addr constant [34 x i8] c"BM_MemCmp<63, LessThanZero, Last>\00", align 1
@_ZL27benchmark_uniq_154BM_MemCmp = internal unnamed_addr global ptr null, align 8
@.str.306 = private unnamed_addr constant [37 x i8] c"BM_MemCmp<63, GreaterThanZero, None>\00", align 1
@_ZL27benchmark_uniq_155BM_MemCmp = internal unnamed_addr global ptr null, align 8
@.str.308 = private unnamed_addr constant [38 x i8] c"BM_MemCmp<63, GreaterThanZero, First>\00", align 1
@_ZL27benchmark_uniq_156BM_MemCmp = internal unnamed_addr global ptr null, align 8
@.str.310 = private unnamed_addr constant [36 x i8] c"BM_MemCmp<63, GreaterThanZero, Mid>\00", align 1
@_ZL27benchmark_uniq_157BM_MemCmp = internal unnamed_addr global ptr null, align 8
@.str.312 = private unnamed_addr constant [37 x i8] c"BM_MemCmp<63, GreaterThanZero, Last>\00", align 1
@_ZL27benchmark_uniq_158BM_MemCmp = internal unnamed_addr global ptr null, align 8
@.str.314 = private unnamed_addr constant [28 x i8] c"BM_MemCmp<64, EqZero, None>\00", align 1
@_ZL27benchmark_uniq_159BM_MemCmp = internal unnamed_addr global ptr null, align 8
@.str.316 = private unnamed_addr constant [29 x i8] c"BM_MemCmp<64, EqZero, First>\00", align 1
@_ZL27benchmark_uniq_160BM_MemCmp = internal unnamed_addr global ptr null, align 8
@.str.318 = private unnamed_addr constant [27 x i8] c"BM_MemCmp<64, EqZero, Mid>\00", align 1
@_ZL27benchmark_uniq_161BM_MemCmp = internal unnamed_addr global ptr null, align 8
@.str.320 = private unnamed_addr constant [28 x i8] c"BM_MemCmp<64, EqZero, Last>\00", align 1
@_ZL27benchmark_uniq_162BM_MemCmp = internal unnamed_addr global ptr null, align 8
@.str.322 = private unnamed_addr constant [34 x i8] c"BM_MemCmp<64, LessThanZero, None>\00", align 1
@_ZL27benchmark_uniq_163BM_MemCmp = internal unnamed_addr global ptr null, align 8
@.str.324 = private unnamed_addr constant [35 x i8] c"BM_MemCmp<64, LessThanZero, First>\00", align 1
@_ZL27benchmark_uniq_164BM_MemCmp = internal unnamed_addr global ptr null, align 8
@.str.326 = private unnamed_addr constant [33 x i8] c"BM_MemCmp<64, LessThanZero, Mid>\00", align 1
@_ZL27benchmark_uniq_165BM_MemCmp = internal unnamed_addr global ptr null, align 8
@.str.328 = private unnamed_addr constant [34 x i8] c"BM_MemCmp<64, LessThanZero, Last>\00", align 1
@_ZL27benchmark_uniq_166BM_MemCmp = internal unnamed_addr global ptr null, align 8
@.str.330 = private unnamed_addr constant [37 x i8] c"BM_MemCmp<64, GreaterThanZero, None>\00", align 1
@_ZL27benchmark_uniq_167BM_MemCmp = internal unnamed_addr global ptr null, align 8
@.str.332 = private unnamed_addr constant [38 x i8] c"BM_MemCmp<64, GreaterThanZero, First>\00", align 1
@_ZL27benchmark_uniq_168BM_MemCmp = internal unnamed_addr global ptr null, align 8
@.str.334 = private unnamed_addr constant [36 x i8] c"BM_MemCmp<64, GreaterThanZero, Mid>\00", align 1
@_ZL27benchmark_uniq_169BM_MemCmp = internal unnamed_addr global ptr null, align 8
@.str.336 = private unnamed_addr constant [37 x i8] c"BM_MemCmp<64, GreaterThanZero, Last>\00", align 1
@_ZTVN9benchmark8internal17FunctionBenchmarkE = external unnamed_addr constant { [5 x ptr] }, align 8
@_ZSt4cerr = external global %"class.std::basic_ostream", align 8
@.str.337 = private unnamed_addr constant [26 x i8] c"invalid results for Pred=\00", align 1
@_ZN6EqZero8kDisplayE = linkonce_odr dso_local constant [7 x i8] c"EqZero\00", comdat, align 1
@.str.338 = private unnamed_addr constant [6 x i8] c" Mod=\00", align 1
@_ZN4None8kDisplayE = linkonce_odr dso_local constant [5 x i8] c"None\00", comdat, align 1
@.str.339 = private unnamed_addr constant [8 x i8] c" kSize=\00", align 1
@.str.341 = private unnamed_addr constant [17 x i8] c"bytes_per_second\00", align 1
@_ZStL19piecewise_construct = internal constant %"struct.std::piecewise_construct_t" undef, align 1
@_ZN5First8kDisplayE = linkonce_odr dso_local constant [6 x i8] c"First\00", comdat, align 1
@_ZN3Mid8kDisplayE = linkonce_odr dso_local constant [4 x i8] c"Mid\00", comdat, align 1
@_ZN4Last8kDisplayE = linkonce_odr dso_local constant [5 x i8] c"Last\00", comdat, align 1
@_ZN12LessThanZero8kDisplayE = linkonce_odr dso_local constant [13 x i8] c"LessThanZero\00", comdat, align 1
@_ZN15GreaterThanZero8kDisplayE = linkonce_odr dso_local constant [16 x i8] c"GreaterThanZero\00", comdat, align 16
@llvm.global_ctors = appending global [1 x { i32, ptr, ptr }] [{ i32, ptr, ptr } { i32 65535, ptr @_GLOBAL__sub_I_main.cpp, ptr null }]

declare void @_ZNSt8ios_base4InitC1Ev(ptr noundef nonnull align 1 dereferenceable(1)) unnamed_addr #0

; Function Attrs: nounwind
declare void @_ZNSt8ios_base4InitD1Ev(ptr noundef nonnull align 1 dereferenceable(1)) unnamed_addr #1

; Function Attrs: nofree nounwind
declare i32 @__cxa_atexit(ptr, ptr, ptr) local_unnamed_addr #2

declare noundef i32 @_ZN9benchmark8internal17InitializeStreamsEv() local_unnamed_addr #0

; Function Attrs: mustprogress nofree nounwind willreturn memory(argmem: read) uwtable
define dso_local noundef i32 @_Z10RealMemCmpPKcS0_m(ptr nocapture noundef readonly %0, ptr nocapture noundef readonly %1, i64 noundef %2) local_unnamed_addr #3 {
  %4 = tail call i32 @memcmp(ptr noundef %0, ptr noundef %1, i64 noundef %2) #18
  ret i32 %4
}

; Function Attrs: mustprogress nofree nounwind willreturn memory(argmem: read)
declare i32 @memcmp(ptr nocapture noundef, ptr nocapture noundef, i64 noundef) local_unnamed_addr #4

declare noundef ptr @_ZN9benchmark8internal25RegisterBenchmarkInternalEPNS0_9BenchmarkE(ptr noundef) local_unnamed_addr #0

; Function Attrs: nobuiltin allocsize(0)
declare noundef nonnull ptr @_Znwm(i64 noundef) local_unnamed_addr #5

; Function Attrs: uwtable
define linkonce_odr dso_local void @_Z9BM_MemCmpILi1E6EqZero4NoneEvRN9benchmark5StateE(ptr noundef nonnull align 8 dereferenceable(144) %0) #6 comdat personality ptr @__gxx_personality_v0 {
  %2 = alloca i64, align 8
  %3 = alloca %"class.std::__cxx11::basic_string", align 8
  %4 = alloca ptr, align 8
  %5 = alloca ptr, align 8
  %6 = alloca i8, align 1
  %7 = tail call noalias noundef nonnull dereferenceable(4096) ptr @_Znwm(i64 noundef 4096) #19
  tail call void @llvm.memset.p0.i64(ptr noundef nonnull align 1 dereferenceable(4096) %7, i8 0, i64 4096, i1 false)
  %8 = invoke noalias noundef nonnull dereferenceable(4096) ptr @_Znwm(i64 noundef 4096) #19
          to label %9 unwind label %12

9:                                                ; preds = %1
  tail call void @llvm.memset.p0.i64(ptr noundef nonnull align 1 dereferenceable(4096) %8, i8 0, i64 4096, i1 false)
  call void @llvm.lifetime.start.p0(i64 8, ptr nonnull %4) #20
  store ptr %7, ptr %4, align 8, !tbaa !5
  call void @llvm.lifetime.start.p0(i64 8, ptr nonnull %5) #20
  store ptr %8, ptr %5, align 8, !tbaa !5
  %10 = tail call noundef i32 @_Z10RealMemCmpPKcS0_m(ptr noundef nonnull %7, ptr noundef nonnull %8, i64 noundef 1) #21
  %11 = icmp eq i32 %10, 0
  br i1 %11, label %31, label %14

12:                                               ; preds = %1
  %13 = landingpad { ptr, i32 }
          cleanup
  br label %99

14:                                               ; preds = %9
  %15 = invoke noundef nonnull align 8 dereferenceable(8) ptr @_ZSt16__ostream_insertIcSt11char_traitsIcEERSt13basic_ostreamIT_T0_ES6_PKS3_l(ptr noundef nonnull align 8 dereferenceable(8) @_ZSt4cerr, ptr noundef nonnull @.str.337, i64 noundef 25)
          to label %16 unwind label %29

16:                                               ; preds = %14
  %17 = invoke noundef nonnull align 8 dereferenceable(8) ptr @_ZSt16__ostream_insertIcSt11char_traitsIcEERSt13basic_ostreamIT_T0_ES6_PKS3_l(ptr noundef nonnull align 8 dereferenceable(8) @_ZSt4cerr, ptr noundef nonnull @_ZN6EqZero8kDisplayE, i64 noundef 6)
          to label %18 unwind label %29

18:                                               ; preds = %16
  %19 = invoke noundef nonnull align 8 dereferenceable(8) ptr @_ZSt16__ostream_insertIcSt11char_traitsIcEERSt13basic_ostreamIT_T0_ES6_PKS3_l(ptr noundef nonnull align 8 dereferenceable(8) @_ZSt4cerr, ptr noundef nonnull @.str.338, i64 noundef 5)
          to label %20 unwind label %29

20:                                               ; preds = %18
  %21 = invoke noundef nonnull align 8 dereferenceable(8) ptr @_ZSt16__ostream_insertIcSt11char_traitsIcEERSt13basic_ostreamIT_T0_ES6_PKS3_l(ptr noundef nonnull align 8 dereferenceable(8) @_ZSt4cerr, ptr noundef nonnull @_ZN4None8kDisplayE, i64 noundef 4)
          to label %22 unwind label %29

22:                                               ; preds = %20
  %23 = invoke noundef nonnull align 8 dereferenceable(8) ptr @_ZSt16__ostream_insertIcSt11char_traitsIcEERSt13basic_ostreamIT_T0_ES6_PKS3_l(ptr noundef nonnull align 8 dereferenceable(8) @_ZSt4cerr, ptr noundef nonnull @.str.339, i64 noundef 7)
          to label %24 unwind label %29

24:                                               ; preds = %22
  %25 = invoke noundef nonnull align 8 dereferenceable(8) ptr @_ZNSolsEi(ptr noundef nonnull align 8 dereferenceable(8) @_ZSt4cerr, i32 noundef 1)
          to label %26 unwind label %29

26:                                               ; preds = %24
  %27 = invoke noundef nonnull align 8 dereferenceable(8) ptr @_ZSt4endlIcSt11char_traitsIcEERSt13basic_ostreamIT_T0_ES6_(ptr noundef nonnull align 8 dereferenceable(8) %25)
          to label %28 unwind label %29

28:                                               ; preds = %26
  tail call void @exit(i32 noundef 1) #22
  unreachable

29:                                               ; preds = %26, %22, %20, %18, %16, %14, %54, %24
  %30 = landingpad { ptr, i32 }
          cleanup
  br label %97

31:                                               ; preds = %9
  call void asm sideeffect "", "=*r|m,0,~{memory},~{dirflag},~{fpsr},~{flags}"(ptr nonnull elementtype(ptr) %4, ptr nonnull %7) #20, !srcloc !9
  call void asm sideeffect "", "=*r|m,0,~{memory},~{dirflag},~{fpsr},~{flags}"(ptr nonnull elementtype(ptr) %5, ptr nonnull %8) #20, !srcloc !9
  %32 = getelementptr inbounds %"class.benchmark::State", ptr %0, i64 0, i32 5
  %33 = load i8, ptr %32, align 2, !tbaa !10, !range !27, !noundef !28
  %34 = getelementptr inbounds %"class.benchmark::State", ptr %0, i64 0, i32 2
  %35 = load i64, ptr %34, align 8
  invoke void @_ZN9benchmark5State16StartKeepRunningEv(ptr noundef nonnull align 8 dereferenceable(144) %0)
          to label %36 unwind label %77

36:                                               ; preds = %31
  %37 = icmp ne i8 %33, 0
  %38 = icmp eq i64 %35, 0
  %39 = select i1 %37, i1 true, i1 %38
  br i1 %39, label %40, label %79, !prof !29

40:                                               ; preds = %81, %36
  invoke void @_ZN9benchmark5State17FinishKeepRunningEv(ptr noundef nonnull align 8 dereferenceable(144) %0)
          to label %41 unwind label %77

41:                                               ; preds = %40
  %42 = getelementptr inbounds %"class.benchmark::State", ptr %0, i64 0, i32 3
  %43 = load i8, ptr %42, align 8, !tbaa !30, !range !27, !noundef !28
  %44 = icmp eq i8 %43, 0
  br i1 %44, label %54, label %45, !prof !29

45:                                               ; preds = %41
  %46 = load i64, ptr %34, align 8, !tbaa !31
  %47 = load i64, ptr %0, align 8, !tbaa !32
  %48 = sub i64 %46, %47
  %49 = getelementptr inbounds %"class.benchmark::State", ptr %0, i64 0, i32 1
  %50 = load i64, ptr %49, align 8, !tbaa !33
  %51 = add i64 %48, %50
  %52 = shl i64 %51, 12
  %53 = sitofp i64 %52 to double
  br label %54

54:                                               ; preds = %41, %45
  %55 = phi double [ %53, %45 ], [ 0.000000e+00, %41 ]
  call void @llvm.lifetime.start.p0(i64 32, ptr nonnull %3) #20
  %56 = getelementptr inbounds %"class.std::__cxx11::basic_string", ptr %3, i64 0, i32 2
  store ptr %56, ptr %3, align 8, !tbaa !34
  call void @llvm.lifetime.start.p0(i64 8, ptr nonnull %2) #20
  store i64 16, ptr %2, align 8, !tbaa !36
  %57 = invoke noundef ptr @_ZNSt7__cxx1112basic_stringIcSt11char_traitsIcESaIcEE9_M_createERmm(ptr noundef nonnull align 8 dereferenceable(32) %3, ptr noundef nonnull align 8 dereferenceable(8) %2, i64 noundef 0)
          to label %58 unwind label %29

58:                                               ; preds = %54
  store ptr %57, ptr %3, align 8, !tbaa !37
  %59 = load i64, ptr %2, align 8, !tbaa !36
  store i64 %59, ptr %56, align 8, !tbaa !39
  call void @llvm.memcpy.p0.p0.i64(ptr noundef nonnull align 1 dereferenceable(16) %57, ptr noundef nonnull align 1 dereferenceable(16) @.str.341, i64 16, i1 false)
  %60 = getelementptr inbounds %"class.std::__cxx11::basic_string", ptr %3, i64 0, i32 1
  store i64 %59, ptr %60, align 8, !tbaa !40
  %61 = load ptr, ptr %3, align 8, !tbaa !37
  %62 = getelementptr inbounds i8, ptr %61, i64 %59
  store i8 0, ptr %62, align 1, !tbaa !39
  call void @llvm.lifetime.end.p0(i64 8, ptr nonnull %2) #20
  %63 = getelementptr inbounds %"class.benchmark::State", ptr %0, i64 0, i32 8
  %64 = invoke noundef nonnull align 8 dereferenceable(16) ptr @_ZNSt3mapINSt7__cxx1112basic_stringIcSt11char_traitsIcESaIcEEEN9benchmark7CounterESt4lessIS5_ESaISt4pairIKS5_S7_EEEixEOS5_(ptr noundef nonnull align 8 dereferenceable(48) %63, ptr noundef nonnull align 8 dereferenceable(32) %3)
          to label %65 unwind label %71

65:                                               ; preds = %58
  store double %55, ptr %64, align 8, !tbaa.struct !41
  %66 = getelementptr inbounds i8, ptr %64, i64 8
  store i32 1, ptr %66, align 8, !tbaa.struct !48
  %67 = getelementptr inbounds i8, ptr %64, i64 12
  store i32 1024, ptr %67, align 4, !tbaa.struct !49
  %68 = load ptr, ptr %3, align 8, !tbaa !37
  %69 = icmp eq ptr %68, %56
  br i1 %69, label %96, label %70

70:                                               ; preds = %65
  call void @_ZdlPv(ptr noundef %68) #23
  br label %96

71:                                               ; preds = %58
  %72 = landingpad { ptr, i32 }
          cleanup
  %73 = load ptr, ptr %3, align 8, !tbaa !37
  %74 = icmp eq ptr %73, %56
  br i1 %74, label %76, label %75

75:                                               ; preds = %71
  call void @_ZdlPv(ptr noundef %73) #23
  br label %76

76:                                               ; preds = %75, %71
  call void @llvm.lifetime.end.p0(i64 32, ptr nonnull %3) #20
  br label %97

77:                                               ; preds = %40, %31
  %78 = landingpad { ptr, i32 }
          cleanup
  br label %97

79:                                               ; preds = %36, %81
  %80 = phi i64 [ %82, %81 ], [ %35, %36 ]
  fence syncscope("singlethread") acq_rel
  br label %84

81:                                               ; preds = %84
  %82 = add i64 %80, -1
  %83 = icmp eq i64 %82, 0
  br i1 %83, label %40, label %79, !prof !29

84:                                               ; preds = %79, %84
  %85 = phi i64 [ 0, %79 ], [ %94, %84 ]
  call void @llvm.lifetime.start.p0(i64 1, ptr nonnull %6) #20
  %86 = load ptr, ptr %4, align 8, !tbaa !5
  %87 = getelementptr inbounds i8, ptr %86, i64 %85
  %88 = load ptr, ptr %5, align 8, !tbaa !5
  %89 = getelementptr inbounds i8, ptr %88, i64 %85
  %90 = load i8, ptr %87, align 1
  %91 = load i8, ptr %89, align 1
  %92 = icmp eq i8 %90, %91
  %93 = zext i1 %92 to i8
  store i8 %93, ptr %6, align 1, !tbaa !50
  call void asm sideeffect "", "=*r|m,0,~{memory},~{dirflag},~{fpsr},~{flags}"(ptr nonnull elementtype(i8) %6, i1 %92) #20, !srcloc !9
  call void @llvm.lifetime.end.p0(i64 1, ptr nonnull %6) #20
  %94 = add nuw nsw i64 %85, 1
  %95 = icmp eq i64 %94, 4096
  br i1 %95, label %81, label %84, !llvm.loop !51

96:                                               ; preds = %70, %65
  call void @llvm.lifetime.end.p0(i64 32, ptr nonnull %3) #20
  call void @llvm.lifetime.end.p0(i64 8, ptr nonnull %5) #20
  call void @llvm.lifetime.end.p0(i64 8, ptr nonnull %4) #20
  call void @_ZdlPv(ptr noundef nonnull %8) #23
  call void @_ZdlPv(ptr noundef nonnull %7) #23
  ret void

97:                                               ; preds = %77, %29, %76
  %98 = phi { ptr, i32 } [ %30, %29 ], [ %72, %76 ], [ %78, %77 ]
  call void @llvm.lifetime.end.p0(i64 8, ptr nonnull %5) #20
  call void @llvm.lifetime.end.p0(i64 8, ptr nonnull %4) #20
  call void @_ZdlPv(ptr noundef nonnull %8) #23
  br label %99

99:                                               ; preds = %97, %12
  %100 = phi { ptr, i32 } [ %98, %97 ], [ %13, %12 ]
  call void @_ZdlPv(ptr noundef nonnull %7) #23
  resume { ptr, i32 } %100
}

declare i32 @__gxx_personality_v0(...)

; Function Attrs: nobuiltin nounwind
declare void @_ZdlPv(ptr noundef) local_unnamed_addr #7

declare noundef ptr @_ZN9benchmark8internal9Benchmark4UnitENS_8TimeUnitE(ptr noundef nonnull align 8 dereferenceable(216), i32 noundef) local_unnamed_addr #0

; Function Attrs: uwtable
define linkonce_odr dso_local void @_Z9BM_MemCmpILi1E6EqZero5FirstEvRN9benchmark5StateE(ptr noundef nonnull align 8 dereferenceable(144) %0) #6 comdat personality ptr @__gxx_personality_v0 {
  %2 = alloca i64, align 8
  %3 = alloca %"class.std::__cxx11::basic_string", align 8
  %4 = alloca ptr, align 8
  %5 = alloca ptr, align 8
  %6 = alloca i8, align 1
  %7 = tail call noalias noundef nonnull dereferenceable(4096) ptr @_Znwm(i64 noundef 4096) #19
  tail call void @llvm.memset.p0.i64(ptr noundef nonnull align 1 dereferenceable(4096) %7, i8 0, i64 4096, i1 false)
  %8 = invoke noalias noundef nonnull dereferenceable(4096) ptr @_Znwm(i64 noundef 4096) #19
          to label %9 unwind label %19

9:                                                ; preds = %1
  tail call void @llvm.memset.p0.i64(ptr noundef nonnull align 1 dereferenceable(4096) %8, i8 0, i64 4096, i1 false)
  call void @llvm.lifetime.start.p0(i64 8, ptr nonnull %4) #20
  store ptr %7, ptr %4, align 8, !tbaa !5
  call void @llvm.lifetime.start.p0(i64 8, ptr nonnull %5) #20
  store ptr %8, ptr %5, align 8, !tbaa !5
  br label %21

10:                                               ; preds = %21
  %11 = load ptr, ptr %4, align 8, !tbaa !5
  %12 = load ptr, ptr %5, align 8, !tbaa !5
  %13 = tail call noundef i32 @_Z10RealMemCmpPKcS0_m(ptr noundef %11, ptr noundef %12, i64 noundef 1) #21
  %14 = icmp eq i32 %13, 0
  %15 = load i8, ptr %11, align 1
  %16 = load i8, ptr %12, align 1
  %17 = icmp eq i8 %15, %16
  %18 = xor i1 %14, %17
  br i1 %18, label %36, label %53

19:                                               ; preds = %1
  %20 = landingpad { ptr, i32 }
          cleanup
  br label %121

21:                                               ; preds = %21, %9
  %22 = phi i64 [ 0, %9 ], [ %34, %21 ]
  %23 = load ptr, ptr %4, align 8, !tbaa !5
  %24 = getelementptr inbounds i8, ptr %23, i64 %22
  store i8 -1, ptr %24, align 1, !tbaa !39
  %25 = or i64 %22, 1
  %26 = load ptr, ptr %4, align 8, !tbaa !5
  %27 = getelementptr inbounds i8, ptr %26, i64 %25
  store i8 -1, ptr %27, align 1, !tbaa !39
  %28 = or i64 %22, 2
  %29 = load ptr, ptr %4, align 8, !tbaa !5
  %30 = getelementptr inbounds i8, ptr %29, i64 %28
  store i8 -1, ptr %30, align 1, !tbaa !39
  %31 = or i64 %22, 3
  %32 = load ptr, ptr %4, align 8, !tbaa !5
  %33 = getelementptr inbounds i8, ptr %32, i64 %31
  store i8 -1, ptr %33, align 1, !tbaa !39
  %34 = add nuw nsw i64 %22, 4
  %35 = icmp eq i64 %34, 4096
  br i1 %35, label %10, label %21, !llvm.loop !53

36:                                               ; preds = %10
  %37 = invoke noundef nonnull align 8 dereferenceable(8) ptr @_ZSt16__ostream_insertIcSt11char_traitsIcEERSt13basic_ostreamIT_T0_ES6_PKS3_l(ptr noundef nonnull align 8 dereferenceable(8) @_ZSt4cerr, ptr noundef nonnull @.str.337, i64 noundef 25)
          to label %38 unwind label %51

38:                                               ; preds = %36
  %39 = invoke noundef nonnull align 8 dereferenceable(8) ptr @_ZSt16__ostream_insertIcSt11char_traitsIcEERSt13basic_ostreamIT_T0_ES6_PKS3_l(ptr noundef nonnull align 8 dereferenceable(8) @_ZSt4cerr, ptr noundef nonnull @_ZN6EqZero8kDisplayE, i64 noundef 6)
          to label %40 unwind label %51

40:                                               ; preds = %38
  %41 = invoke noundef nonnull align 8 dereferenceable(8) ptr @_ZSt16__ostream_insertIcSt11char_traitsIcEERSt13basic_ostreamIT_T0_ES6_PKS3_l(ptr noundef nonnull align 8 dereferenceable(8) @_ZSt4cerr, ptr noundef nonnull @.str.338, i64 noundef 5)
          to label %42 unwind label %51

42:                                               ; preds = %40
  %43 = invoke noundef nonnull align 8 dereferenceable(8) ptr @_ZSt16__ostream_insertIcSt11char_traitsIcEERSt13basic_ostreamIT_T0_ES6_PKS3_l(ptr noundef nonnull align 8 dereferenceable(8) @_ZSt4cerr, ptr noundef nonnull @_ZN5First8kDisplayE, i64 noundef 5)
          to label %44 unwind label %51

44:                                               ; preds = %42
  %45 = invoke noundef nonnull align 8 dereferenceable(8) ptr @_ZSt16__ostream_insertIcSt11char_traitsIcEERSt13basic_ostreamIT_T0_ES6_PKS3_l(ptr noundef nonnull align 8 dereferenceable(8) @_ZSt4cerr, ptr noundef nonnull @.str.339, i64 noundef 7)
          to label %46 unwind label %51

46:                                               ; preds = %44
  %47 = invoke noundef nonnull align 8 dereferenceable(8) ptr @_ZNSolsEi(ptr noundef nonnull align 8 dereferenceable(8) @_ZSt4cerr, i32 noundef 1)
          to label %48 unwind label %51

48:                                               ; preds = %46
  %49 = invoke noundef nonnull align 8 dereferenceable(8) ptr @_ZSt4endlIcSt11char_traitsIcEERSt13basic_ostreamIT_T0_ES6_(ptr noundef nonnull align 8 dereferenceable(8) %47)
          to label %50 unwind label %51

50:                                               ; preds = %48
  tail call void @exit(i32 noundef 1) #22
  unreachable

51:                                               ; preds = %48, %44, %42, %40, %38, %36, %76, %46
  %52 = landingpad { ptr, i32 }
          cleanup
  br label %119

53:                                               ; preds = %10
  call void asm sideeffect "", "=*r|m,0,~{memory},~{dirflag},~{fpsr},~{flags}"(ptr nonnull elementtype(ptr) %4, ptr nonnull %11) #20, !srcloc !9
  call void asm sideeffect "", "=*r|m,0,~{memory},~{dirflag},~{fpsr},~{flags}"(ptr nonnull elementtype(ptr) %5, ptr nonnull %12) #20, !srcloc !9
  %54 = getelementptr inbounds %"class.benchmark::State", ptr %0, i64 0, i32 5
  %55 = load i8, ptr %54, align 2, !tbaa !10, !range !27, !noundef !28
  %56 = getelementptr inbounds %"class.benchmark::State", ptr %0, i64 0, i32 2
  %57 = load i64, ptr %56, align 8
  invoke void @_ZN9benchmark5State16StartKeepRunningEv(ptr noundef nonnull align 8 dereferenceable(144) %0)
          to label %58 unwind label %99

58:                                               ; preds = %53
  %59 = icmp ne i8 %55, 0
  %60 = icmp eq i64 %57, 0
  %61 = select i1 %59, i1 true, i1 %60
  br i1 %61, label %62, label %101, !prof !29

62:                                               ; preds = %103, %58
  invoke void @_ZN9benchmark5State17FinishKeepRunningEv(ptr noundef nonnull align 8 dereferenceable(144) %0)
          to label %63 unwind label %99

63:                                               ; preds = %62
  %64 = getelementptr inbounds %"class.benchmark::State", ptr %0, i64 0, i32 3
  %65 = load i8, ptr %64, align 8, !tbaa !30, !range !27, !noundef !28
  %66 = icmp eq i8 %65, 0
  br i1 %66, label %76, label %67, !prof !29

67:                                               ; preds = %63
  %68 = load i64, ptr %56, align 8, !tbaa !31
  %69 = load i64, ptr %0, align 8, !tbaa !32
  %70 = sub i64 %68, %69
  %71 = getelementptr inbounds %"class.benchmark::State", ptr %0, i64 0, i32 1
  %72 = load i64, ptr %71, align 8, !tbaa !33
  %73 = add i64 %70, %72
  %74 = shl i64 %73, 12
  %75 = sitofp i64 %74 to double
  br label %76

76:                                               ; preds = %63, %67
  %77 = phi double [ %75, %67 ], [ 0.000000e+00, %63 ]
  call void @llvm.lifetime.start.p0(i64 32, ptr nonnull %3) #20
  %78 = getelementptr inbounds %"class.std::__cxx11::basic_string", ptr %3, i64 0, i32 2
  store ptr %78, ptr %3, align 8, !tbaa !34
  call void @llvm.lifetime.start.p0(i64 8, ptr nonnull %2) #20
  store i64 16, ptr %2, align 8, !tbaa !36
  %79 = invoke noundef ptr @_ZNSt7__cxx1112basic_stringIcSt11char_traitsIcESaIcEE9_M_createERmm(ptr noundef nonnull align 8 dereferenceable(32) %3, ptr noundef nonnull align 8 dereferenceable(8) %2, i64 noundef 0)
          to label %80 unwind label %51

80:                                               ; preds = %76
  store ptr %79, ptr %3, align 8, !tbaa !37
  %81 = load i64, ptr %2, align 8, !tbaa !36
  store i64 %81, ptr %78, align 8, !tbaa !39
  call void @llvm.memcpy.p0.p0.i64(ptr noundef nonnull align 1 dereferenceable(16) %79, ptr noundef nonnull align 1 dereferenceable(16) @.str.341, i64 16, i1 false)
  %82 = getelementptr inbounds %"class.std::__cxx11::basic_string", ptr %3, i64 0, i32 1
  store i64 %81, ptr %82, align 8, !tbaa !40
  %83 = load ptr, ptr %3, align 8, !tbaa !37
  %84 = getelementptr inbounds i8, ptr %83, i64 %81
  store i8 0, ptr %84, align 1, !tbaa !39
  call void @llvm.lifetime.end.p0(i64 8, ptr nonnull %2) #20
  %85 = getelementptr inbounds %"class.benchmark::State", ptr %0, i64 0, i32 8
  %86 = invoke noundef nonnull align 8 dereferenceable(16) ptr @_ZNSt3mapINSt7__cxx1112basic_stringIcSt11char_traitsIcESaIcEEEN9benchmark7CounterESt4lessIS5_ESaISt4pairIKS5_S7_EEEixEOS5_(ptr noundef nonnull align 8 dereferenceable(48) %85, ptr noundef nonnull align 8 dereferenceable(32) %3)
          to label %87 unwind label %93

87:                                               ; preds = %80
  store double %77, ptr %86, align 8, !tbaa.struct !41
  %88 = getelementptr inbounds i8, ptr %86, i64 8
  store i32 1, ptr %88, align 8, !tbaa.struct !48
  %89 = getelementptr inbounds i8, ptr %86, i64 12
  store i32 1024, ptr %89, align 4, !tbaa.struct !49
  %90 = load ptr, ptr %3, align 8, !tbaa !37
  %91 = icmp eq ptr %90, %78
  br i1 %91, label %118, label %92

92:                                               ; preds = %87
  call void @_ZdlPv(ptr noundef %90) #23
  br label %118

93:                                               ; preds = %80
  %94 = landingpad { ptr, i32 }
          cleanup
  %95 = load ptr, ptr %3, align 8, !tbaa !37
  %96 = icmp eq ptr %95, %78
  br i1 %96, label %98, label %97

97:                                               ; preds = %93
  call void @_ZdlPv(ptr noundef %95) #23
  br label %98

98:                                               ; preds = %97, %93
  call void @llvm.lifetime.end.p0(i64 32, ptr nonnull %3) #20
  br label %119

99:                                               ; preds = %62, %53
  %100 = landingpad { ptr, i32 }
          cleanup
  br label %119

101:                                              ; preds = %58, %103
  %102 = phi i64 [ %104, %103 ], [ %57, %58 ]
  fence syncscope("singlethread") acq_rel
  br label %106

103:                                              ; preds = %106
  %104 = add i64 %102, -1
  %105 = icmp eq i64 %104, 0
  br i1 %105, label %62, label %101, !prof !29

106:                                              ; preds = %101, %106
  %107 = phi i64 [ 0, %101 ], [ %116, %106 ]
  call void @llvm.lifetime.start.p0(i64 1, ptr nonnull %6) #20
  %108 = load ptr, ptr %4, align 8, !tbaa !5
  %109 = getelementptr inbounds i8, ptr %108, i64 %107
  %110 = load ptr, ptr %5, align 8, !tbaa !5
  %111 = getelementptr inbounds i8, ptr %110, i64 %107
  %112 = load i8, ptr %109, align 1
  %113 = load i8, ptr %111, align 1
  %114 = icmp eq i8 %112, %113
  %115 = zext i1 %114 to i8
  store i8 %115, ptr %6, align 1, !tbaa !50
  call void asm sideeffect "", "=*r|m,0,~{memory},~{dirflag},~{fpsr},~{flags}"(ptr nonnull elementtype(i8) %6, i1 %114) #20, !srcloc !9
  call void @llvm.lifetime.end.p0(i64 1, ptr nonnull %6) #20
  %116 = add nuw nsw i64 %107, 1
  %117 = icmp eq i64 %116, 4096
  br i1 %117, label %103, label %106, !llvm.loop !54

118:                                              ; preds = %92, %87
  call void @llvm.lifetime.end.p0(i64 32, ptr nonnull %3) #20
  call void @llvm.lifetime.end.p0(i64 8, ptr nonnull %5) #20
  call void @llvm.lifetime.end.p0(i64 8, ptr nonnull %4) #20
  call void @_ZdlPv(ptr noundef nonnull %8) #23
  call void @_ZdlPv(ptr noundef nonnull %7) #23
  ret void

119:                                              ; preds = %99, %51, %98
  %120 = phi { ptr, i32 } [ %52, %51 ], [ %94, %98 ], [ %100, %99 ]
  call void @llvm.lifetime.end.p0(i64 8, ptr nonnull %5) #20
  call void @llvm.lifetime.end.p0(i64 8, ptr nonnull %4) #20
  call void @_ZdlPv(ptr noundef nonnull %8) #23
  br label %121

121:                                              ; preds = %119, %19
  %122 = phi { ptr, i32 } [ %120, %119 ], [ %20, %19 ]
  call void @_ZdlPv(ptr noundef nonnull %7) #23
  resume { ptr, i32 } %122
}

; Function Attrs: uwtable
define linkonce_odr dso_local void @_Z9BM_MemCmpILi1E6EqZero3MidEvRN9benchmark5StateE(ptr noundef nonnull align 8 dereferenceable(144) %0) #6 comdat personality ptr @__gxx_personality_v0 {
  %2 = alloca i64, align 8
  %3 = alloca %"class.std::__cxx11::basic_string", align 8
  %4 = alloca ptr, align 8
  %5 = alloca ptr, align 8
  %6 = alloca i8, align 1
  %7 = tail call noalias noundef nonnull dereferenceable(4096) ptr @_Znwm(i64 noundef 4096) #19
  tail call void @llvm.memset.p0.i64(ptr noundef nonnull align 1 dereferenceable(4096) %7, i8 0, i64 4096, i1 false)
  %8 = invoke noalias noundef nonnull dereferenceable(4096) ptr @_Znwm(i64 noundef 4096) #19
          to label %9 unwind label %19

9:                                                ; preds = %1
  tail call void @llvm.memset.p0.i64(ptr noundef nonnull align 1 dereferenceable(4096) %8, i8 0, i64 4096, i1 false)
  call void @llvm.lifetime.start.p0(i64 8, ptr nonnull %4) #20
  store ptr %7, ptr %4, align 8, !tbaa !5
  call void @llvm.lifetime.start.p0(i64 8, ptr nonnull %5) #20
  store ptr %8, ptr %5, align 8, !tbaa !5
  br label %21

10:                                               ; preds = %21
  %11 = load ptr, ptr %4, align 8, !tbaa !5
  %12 = load ptr, ptr %5, align 8, !tbaa !5
  %13 = tail call noundef i32 @_Z10RealMemCmpPKcS0_m(ptr noundef %11, ptr noundef %12, i64 noundef 1) #21
  %14 = icmp eq i32 %13, 0
  %15 = load i8, ptr %11, align 1
  %16 = load i8, ptr %12, align 1
  %17 = icmp eq i8 %15, %16
  %18 = xor i1 %14, %17
  br i1 %18, label %36, label %53

19:                                               ; preds = %1
  %20 = landingpad { ptr, i32 }
          cleanup
  br label %121

21:                                               ; preds = %21, %9
  %22 = phi i64 [ 0, %9 ], [ %34, %21 ]
  %23 = load ptr, ptr %4, align 8, !tbaa !5
  %24 = getelementptr inbounds i8, ptr %23, i64 %22
  store i8 -1, ptr %24, align 1, !tbaa !39
  %25 = or i64 %22, 1
  %26 = load ptr, ptr %4, align 8, !tbaa !5
  %27 = getelementptr inbounds i8, ptr %26, i64 %25
  store i8 -1, ptr %27, align 1, !tbaa !39
  %28 = or i64 %22, 2
  %29 = load ptr, ptr %4, align 8, !tbaa !5
  %30 = getelementptr inbounds i8, ptr %29, i64 %28
  store i8 -1, ptr %30, align 1, !tbaa !39
  %31 = or i64 %22, 3
  %32 = load ptr, ptr %4, align 8, !tbaa !5
  %33 = getelementptr inbounds i8, ptr %32, i64 %31
  store i8 -1, ptr %33, align 1, !tbaa !39
  %34 = add nuw nsw i64 %22, 4
  %35 = icmp eq i64 %34, 4096
  br i1 %35, label %10, label %21, !llvm.loop !55

36:                                               ; preds = %10
  %37 = invoke noundef nonnull align 8 dereferenceable(8) ptr @_ZSt16__ostream_insertIcSt11char_traitsIcEERSt13basic_ostreamIT_T0_ES6_PKS3_l(ptr noundef nonnull align 8 dereferenceable(8) @_ZSt4cerr, ptr noundef nonnull @.str.337, i64 noundef 25)
          to label %38 unwind label %51

38:                                               ; preds = %36
  %39 = invoke noundef nonnull align 8 dereferenceable(8) ptr @_ZSt16__ostream_insertIcSt11char_traitsIcEERSt13basic_ostreamIT_T0_ES6_PKS3_l(ptr noundef nonnull align 8 dereferenceable(8) @_ZSt4cerr, ptr noundef nonnull @_ZN6EqZero8kDisplayE, i64 noundef 6)
          to label %40 unwind label %51

40:                                               ; preds = %38
  %41 = invoke noundef nonnull align 8 dereferenceable(8) ptr @_ZSt16__ostream_insertIcSt11char_traitsIcEERSt13basic_ostreamIT_T0_ES6_PKS3_l(ptr noundef nonnull align 8 dereferenceable(8) @_ZSt4cerr, ptr noundef nonnull @.str.338, i64 noundef 5)
          to label %42 unwind label %51

42:                                               ; preds = %40
  %43 = invoke noundef nonnull align 8 dereferenceable(8) ptr @_ZSt16__ostream_insertIcSt11char_traitsIcEERSt13basic_ostreamIT_T0_ES6_PKS3_l(ptr noundef nonnull align 8 dereferenceable(8) @_ZSt4cerr, ptr noundef nonnull @_ZN3Mid8kDisplayE, i64 noundef 3)
          to label %44 unwind label %51

44:                                               ; preds = %42
  %45 = invoke noundef nonnull align 8 dereferenceable(8) ptr @_ZSt16__ostream_insertIcSt11char_traitsIcEERSt13basic_ostreamIT_T0_ES6_PKS3_l(ptr noundef nonnull align 8 dereferenceable(8) @_ZSt4cerr, ptr noundef nonnull @.str.339, i64 noundef 7)
          to label %46 unwind label %51

46:                                               ; preds = %44
  %47 = invoke noundef nonnull align 8 dereferenceable(8) ptr @_ZNSolsEi(ptr noundef nonnull align 8 dereferenceable(8) @_ZSt4cerr, i32 noundef 1)
          to label %48 unwind label %51

48:                                               ; preds = %46
  %49 = invoke noundef nonnull align 8 dereferenceable(8) ptr @_ZSt4endlIcSt11char_traitsIcEERSt13basic_ostreamIT_T0_ES6_(ptr noundef nonnull align 8 dereferenceable(8) %47)
          to label %50 unwind label %51

50:                                               ; preds = %48
  tail call void @exit(i32 noundef 1) #22
  unreachable

51:                                               ; preds = %48, %44, %42, %40, %38, %36, %76, %46
  %52 = landingpad { ptr, i32 }
          cleanup
  br label %119

53:                                               ; preds = %10
  call void asm sideeffect "", "=*r|m,0,~{memory},~{dirflag},~{fpsr},~{flags}"(ptr nonnull elementtype(ptr) %4, ptr nonnull %11) #20, !srcloc !9
  call void asm sideeffect "", "=*r|m,0,~{memory},~{dirflag},~{fpsr},~{flags}"(ptr nonnull elementtype(ptr) %5, ptr nonnull %12) #20, !srcloc !9
  %54 = getelementptr inbounds %"class.benchmark::State", ptr %0, i64 0, i32 5
  %55 = load i8, ptr %54, align 2, !tbaa !10, !range !27, !noundef !28
  %56 = getelementptr inbounds %"class.benchmark::State", ptr %0, i64 0, i32 2
  %57 = load i64, ptr %56, align 8
  invoke void @_ZN9benchmark5State16StartKeepRunningEv(ptr noundef nonnull align 8 dereferenceable(144) %0)
          to label %58 unwind label %99

58:                                               ; preds = %53
  %59 = icmp ne i8 %55, 0
  %60 = icmp eq i64 %57, 0
  %61 = select i1 %59, i1 true, i1 %60
  br i1 %61, label %62, label %101, !prof !29

62:                                               ; preds = %103, %58
  invoke void @_ZN9benchmark5State17FinishKeepRunningEv(ptr noundef nonnull align 8 dereferenceable(144) %0)
          to label %63 unwind label %99

63:                                               ; preds = %62
  %64 = getelementptr inbounds %"class.benchmark::State", ptr %0, i64 0, i32 3
  %65 = load i8, ptr %64, align 8, !tbaa !30, !range !27, !noundef !28
  %66 = icmp eq i8 %65, 0
  br i1 %66, label %76, label %67, !prof !29

67:                                               ; preds = %63
  %68 = load i64, ptr %56, align 8, !tbaa !31
  %69 = load i64, ptr %0, align 8, !tbaa !32
  %70 = sub i64 %68, %69
  %71 = getelementptr inbounds %"class.benchmark::State", ptr %0, i64 0, i32 1
  %72 = load i64, ptr %71, align 8, !tbaa !33
  %73 = add i64 %70, %72
  %74 = shl i64 %73, 12
  %75 = sitofp i64 %74 to double
  br label %76

76:                                               ; preds = %63, %67
  %77 = phi double [ %75, %67 ], [ 0.000000e+00, %63 ]
  call void @llvm.lifetime.start.p0(i64 32, ptr nonnull %3) #20
  %78 = getelementptr inbounds %"class.std::__cxx11::basic_string", ptr %3, i64 0, i32 2
  store ptr %78, ptr %3, align 8, !tbaa !34
  call void @llvm.lifetime.start.p0(i64 8, ptr nonnull %2) #20
  store i64 16, ptr %2, align 8, !tbaa !36
  %79 = invoke noundef ptr @_ZNSt7__cxx1112basic_stringIcSt11char_traitsIcESaIcEE9_M_createERmm(ptr noundef nonnull align 8 dereferenceable(32) %3, ptr noundef nonnull align 8 dereferenceable(8) %2, i64 noundef 0)
          to label %80 unwind label %51

80:                                               ; preds = %76
  store ptr %79, ptr %3, align 8, !tbaa !37
  %81 = load i64, ptr %2, align 8, !tbaa !36
  store i64 %81, ptr %78, align 8, !tbaa !39
  call void @llvm.memcpy.p0.p0.i64(ptr noundef nonnull align 1 dereferenceable(16) %79, ptr noundef nonnull align 1 dereferenceable(16) @.str.341, i64 16, i1 false)
  %82 = getelementptr inbounds %"class.std::__cxx11::basic_string", ptr %3, i64 0, i32 1
  store i64 %81, ptr %82, align 8, !tbaa !40
  %83 = load ptr, ptr %3, align 8, !tbaa !37
  %84 = getelementptr inbounds i8, ptr %83, i64 %81
  store i8 0, ptr %84, align 1, !tbaa !39
  call void @llvm.lifetime.end.p0(i64 8, ptr nonnull %2) #20
  %85 = getelementptr inbounds %"class.benchmark::State", ptr %0, i64 0, i32 8
  %86 = invoke noundef nonnull align 8 dereferenceable(16) ptr @_ZNSt3mapINSt7__cxx1112basic_stringIcSt11char_traitsIcESaIcEEEN9benchmark7CounterESt4lessIS5_ESaISt4pairIKS5_S7_EEEixEOS5_(ptr noundef nonnull align 8 dereferenceable(48) %85, ptr noundef nonnull align 8 dereferenceable(32) %3)
          to label %87 unwind label %93

87:                                               ; preds = %80
  store double %77, ptr %86, align 8, !tbaa.struct !41
  %88 = getelementptr inbounds i8, ptr %86, i64 8
  store i32 1, ptr %88, align 8, !tbaa.struct !48
  %89 = getelementptr inbounds i8, ptr %86, i64 12
  store i32 1024, ptr %89, align 4, !tbaa.struct !49
  %90 = load ptr, ptr %3, align 8, !tbaa !37
  %91 = icmp eq ptr %90, %78
  br i1 %91, label %118, label %92

92:                                               ; preds = %87
  call void @_ZdlPv(ptr noundef %90) #23
  br label %118

93:                                               ; preds = %80
  %94 = landingpad { ptr, i32 }
          cleanup
  %95 = load ptr, ptr %3, align 8, !tbaa !37
  %96 = icmp eq ptr %95, %78
  br i1 %96, label %98, label %97

97:                                               ; preds = %93
  call void @_ZdlPv(ptr noundef %95) #23
  br label %98

98:                                               ; preds = %97, %93
  call void @llvm.lifetime.end.p0(i64 32, ptr nonnull %3) #20
  br label %119

99:                                               ; preds = %62, %53
  %100 = landingpad { ptr, i32 }
          cleanup
  br label %119

101:                                              ; preds = %58, %103
  %102 = phi i64 [ %104, %103 ], [ %57, %58 ]
  fence syncscope("singlethread") acq_rel
  br label %106

103:                                              ; preds = %106
  %104 = add i64 %102, -1
  %105 = icmp eq i64 %104, 0
  br i1 %105, label %62, label %101, !prof !29

106:                                              ; preds = %101, %106
  %107 = phi i64 [ 0, %101 ], [ %116, %106 ]
  call void @llvm.lifetime.start.p0(i64 1, ptr nonnull %6) #20
  %108 = load ptr, ptr %4, align 8, !tbaa !5
  %109 = getelementptr inbounds i8, ptr %108, i64 %107
  %110 = load ptr, ptr %5, align 8, !tbaa !5
  %111 = getelementptr inbounds i8, ptr %110, i64 %107
  %112 = load i8, ptr %109, align 1
  %113 = load i8, ptr %111, align 1
  %114 = icmp eq i8 %112, %113
  %115 = zext i1 %114 to i8
  store i8 %115, ptr %6, align 1, !tbaa !50
  call void asm sideeffect "", "=*r|m,0,~{memory},~{dirflag},~{fpsr},~{flags}"(ptr nonnull elementtype(i8) %6, i1 %114) #20, !srcloc !9
  call void @llvm.lifetime.end.p0(i64 1, ptr nonnull %6) #20
  %116 = add nuw nsw i64 %107, 1
  %117 = icmp eq i64 %116, 4096
  br i1 %117, label %103, label %106, !llvm.loop !56

118:                                              ; preds = %92, %87
  call void @llvm.lifetime.end.p0(i64 32, ptr nonnull %3) #20
  call void @llvm.lifetime.end.p0(i64 8, ptr nonnull %5) #20
  call void @llvm.lifetime.end.p0(i64 8, ptr nonnull %4) #20
  call void @_ZdlPv(ptr noundef nonnull %8) #23
  call void @_ZdlPv(ptr noundef nonnull %7) #23
  ret void

119:                                              ; preds = %99, %51, %98
  %120 = phi { ptr, i32 } [ %52, %51 ], [ %94, %98 ], [ %100, %99 ]
  call void @llvm.lifetime.end.p0(i64 8, ptr nonnull %5) #20
  call void @llvm.lifetime.end.p0(i64 8, ptr nonnull %4) #20
  call void @_ZdlPv(ptr noundef nonnull %8) #23
  br label %121

121:                                              ; preds = %119, %19
  %122 = phi { ptr, i32 } [ %120, %119 ], [ %20, %19 ]
  call void @_ZdlPv(ptr noundef nonnull %7) #23
  resume { ptr, i32 } %122
}

; Function Attrs: uwtable
define linkonce_odr dso_local void @_Z9BM_MemCmpILi1E6EqZero4LastEvRN9benchmark5StateE(ptr noundef nonnull align 8 dereferenceable(144) %0) #6 comdat personality ptr @__gxx_personality_v0 {
  %2 = alloca i64, align 8
  %3 = alloca %"class.std::__cxx11::basic_string", align 8
  %4 = alloca ptr, align 8
  %5 = alloca ptr, align 8
  %6 = alloca i8, align 1
  %7 = tail call noalias noundef nonnull dereferenceable(4096) ptr @_Znwm(i64 noundef 4096) #19
  tail call void @llvm.memset.p0.i64(ptr noundef nonnull align 1 dereferenceable(4096) %7, i8 0, i64 4096, i1 false)
  %8 = invoke noalias noundef nonnull dereferenceable(4096) ptr @_Znwm(i64 noundef 4096) #19
          to label %9 unwind label %19

9:                                                ; preds = %1
  tail call void @llvm.memset.p0.i64(ptr noundef nonnull align 1 dereferenceable(4096) %8, i8 0, i64 4096, i1 false)
  call void @llvm.lifetime.start.p0(i64 8, ptr nonnull %4) #20
  store ptr %7, ptr %4, align 8, !tbaa !5
  call void @llvm.lifetime.start.p0(i64 8, ptr nonnull %5) #20
  store ptr %8, ptr %5, align 8, !tbaa !5
  br label %21

10:                                               ; preds = %21
  %11 = load ptr, ptr %4, align 8, !tbaa !5
  %12 = load ptr, ptr %5, align 8, !tbaa !5
  %13 = tail call noundef i32 @_Z10RealMemCmpPKcS0_m(ptr noundef %11, ptr noundef %12, i64 noundef 1) #21
  %14 = icmp eq i32 %13, 0
  %15 = load i8, ptr %11, align 1
  %16 = load i8, ptr %12, align 1
  %17 = icmp eq i8 %15, %16
  %18 = xor i1 %14, %17
  br i1 %18, label %36, label %53

19:                                               ; preds = %1
  %20 = landingpad { ptr, i32 }
          cleanup
  br label %121

21:                                               ; preds = %21, %9
  %22 = phi i64 [ 0, %9 ], [ %34, %21 ]
  %23 = load ptr, ptr %4, align 8, !tbaa !5
  %24 = getelementptr inbounds i8, ptr %23, i64 %22
  store i8 -1, ptr %24, align 1, !tbaa !39
  %25 = or i64 %22, 1
  %26 = load ptr, ptr %4, align 8, !tbaa !5
  %27 = getelementptr inbounds i8, ptr %26, i64 %25
  store i8 -1, ptr %27, align 1, !tbaa !39
  %28 = or i64 %22, 2
  %29 = load ptr, ptr %4, align 8, !tbaa !5
  %30 = getelementptr inbounds i8, ptr %29, i64 %28
  store i8 -1, ptr %30, align 1, !tbaa !39
  %31 = or i64 %22, 3
  %32 = load ptr, ptr %4, align 8, !tbaa !5
  %33 = getelementptr inbounds i8, ptr %32, i64 %31
  store i8 -1, ptr %33, align 1, !tbaa !39
  %34 = add nuw nsw i64 %22, 4
  %35 = icmp eq i64 %34, 4096
  br i1 %35, label %10, label %21, !llvm.loop !57

36:                                               ; preds = %10
  %37 = invoke noundef nonnull align 8 dereferenceable(8) ptr @_ZSt16__ostream_insertIcSt11char_traitsIcEERSt13basic_ostreamIT_T0_ES6_PKS3_l(ptr noundef nonnull align 8 dereferenceable(8) @_ZSt4cerr, ptr noundef nonnull @.str.337, i64 noundef 25)
          to label %38 unwind label %51

38:                                               ; preds = %36
  %39 = invoke noundef nonnull align 8 dereferenceable(8) ptr @_ZSt16__ostream_insertIcSt11char_traitsIcEERSt13basic_ostreamIT_T0_ES6_PKS3_l(ptr noundef nonnull align 8 dereferenceable(8) @_ZSt4cerr, ptr noundef nonnull @_ZN6EqZero8kDisplayE, i64 noundef 6)
          to label %40 unwind label %51

40:                                               ; preds = %38
  %41 = invoke noundef nonnull align 8 dereferenceable(8) ptr @_ZSt16__ostream_insertIcSt11char_traitsIcEERSt13basic_ostreamIT_T0_ES6_PKS3_l(ptr noundef nonnull align 8 dereferenceable(8) @_ZSt4cerr, ptr noundef nonnull @.str.338, i64 noundef 5)
          to label %42 unwind label %51

42:                                               ; preds = %40
  %43 = invoke noundef nonnull align 8 dereferenceable(8) ptr @_ZSt16__ostream_insertIcSt11char_traitsIcEERSt13basic_ostreamIT_T0_ES6_PKS3_l(ptr noundef nonnull align 8 dereferenceable(8) @_ZSt4cerr, ptr noundef nonnull @_ZN4Last8kDisplayE, i64 noundef 4)
          to label %44 unwind label %51

44:                                               ; preds = %42
  %45 = invoke noundef nonnull align 8 dereferenceable(8) ptr @_ZSt16__ostream_insertIcSt11char_traitsIcEERSt13basic_ostreamIT_T0_ES6_PKS3_l(ptr noundef nonnull align 8 dereferenceable(8) @_ZSt4cerr, ptr noundef nonnull @.str.339, i64 noundef 7)
          to label %46 unwind label %51

46:                                               ; preds = %44
  %47 = invoke noundef nonnull align 8 dereferenceable(8) ptr @_ZNSolsEi(ptr noundef nonnull align 8 dereferenceable(8) @_ZSt4cerr, i32 noundef 1)
          to label %48 unwind label %51

48:                                               ; preds = %46
  %49 = invoke noundef nonnull align 8 dereferenceable(8) ptr @_ZSt4endlIcSt11char_traitsIcEERSt13basic_ostreamIT_T0_ES6_(ptr noundef nonnull align 8 dereferenceable(8) %47)
          to label %50 unwind label %51

50:                                               ; preds = %48
  tail call void @exit(i32 noundef 1) #22
  unreachable

51:                                               ; preds = %48, %44, %42, %40, %38, %36, %76, %46
  %52 = landingpad { ptr, i32 }
          cleanup
  br label %119

53:                                               ; preds = %10
  call void asm sideeffect "", "=*r|m,0,~{memory},~{dirflag},~{fpsr},~{flags}"(ptr nonnull elementtype(ptr) %4, ptr nonnull %11) #20, !srcloc !9
  call void asm sideeffect "", "=*r|m,0,~{memory},~{dirflag},~{fpsr},~{flags}"(ptr nonnull elementtype(ptr) %5, ptr nonnull %12) #20, !srcloc !9
  %54 = getelementptr inbounds %"class.benchmark::State", ptr %0, i64 0, i32 5
  %55 = load i8, ptr %54, align 2, !tbaa !10, !range !27, !noundef !28
  %56 = getelementptr inbounds %"class.benchmark::State", ptr %0, i64 0, i32 2
  %57 = load i64, ptr %56, align 8
  invoke void @_ZN9benchmark5State16StartKeepRunningEv(ptr noundef nonnull align 8 dereferenceable(144) %0)
          to label %58 unwind label %99

58:                                               ; preds = %53
  %59 = icmp ne i8 %55, 0
  %60 = icmp eq i64 %57, 0
  %61 = select i1 %59, i1 true, i1 %60
  br i1 %61, label %62, label %101, !prof !29

62:                                               ; preds = %103, %58
  invoke void @_ZN9benchmark5State17FinishKeepRunningEv(ptr noundef nonnull align 8 dereferenceable(144) %0)
          to label %63 unwind label %99

63:                                               ; preds = %62
  %64 = getelementptr inbounds %"class.benchmark::State", ptr %0, i64 0, i32 3
  %65 = load i8, ptr %64, align 8, !tbaa !30, !range !27, !noundef !28
  %66 = icmp eq i8 %65, 0
  br i1 %66, label %76, label %67, !prof !29

67:                                               ; preds = %63
  %68 = load i64, ptr %56, align 8, !tbaa !31
  %69 = load i64, ptr %0, align 8, !tbaa !32
  %70 = sub i64 %68, %69
  %71 = getelementptr inbounds %"class.benchmark::State", ptr %0, i64 0, i32 1
  %72 = load i64, ptr %71, align 8, !tbaa !33
  %73 = add i64 %70, %72
  %74 = shl i64 %73, 12
  %75 = sitofp i64 %74 to double
  br label %76

76:                                               ; preds = %63, %67
  %77 = phi double [ %75, %67 ], [ 0.000000e+00, %63 ]
  call void @llvm.lifetime.start.p0(i64 32, ptr nonnull %3) #20
  %78 = getelementptr inbounds %"class.std::__cxx11::basic_string", ptr %3, i64 0, i32 2
  store ptr %78, ptr %3, align 8, !tbaa !34
  call void @llvm.lifetime.start.p0(i64 8, ptr nonnull %2) #20
  store i64 16, ptr %2, align 8, !tbaa !36
  %79 = invoke noundef ptr @_ZNSt7__cxx1112basic_stringIcSt11char_traitsIcESaIcEE9_M_createERmm(ptr noundef nonnull align 8 dereferenceable(32) %3, ptr noundef nonnull align 8 dereferenceable(8) %2, i64 noundef 0)
          to label %80 unwind label %51

80:                                               ; preds = %76
  store ptr %79, ptr %3, align 8, !tbaa !37
  %81 = load i64, ptr %2, align 8, !tbaa !36
  store i64 %81, ptr %78, align 8, !tbaa !39
  call void @llvm.memcpy.p0.p0.i64(ptr noundef nonnull align 1 dereferenceable(16) %79, ptr noundef nonnull align 1 dereferenceable(16) @.str.341, i64 16, i1 false)
  %82 = getelementptr inbounds %"class.std::__cxx11::basic_string", ptr %3, i64 0, i32 1
  store i64 %81, ptr %82, align 8, !tbaa !40
  %83 = load ptr, ptr %3, align 8, !tbaa !37
  %84 = getelementptr inbounds i8, ptr %83, i64 %81
  store i8 0, ptr %84, align 1, !tbaa !39
  call void @llvm.lifetime.end.p0(i64 8, ptr nonnull %2) #20
  %85 = getelementptr inbounds %"class.benchmark::State", ptr %0, i64 0, i32 8
  %86 = invoke noundef nonnull align 8 dereferenceable(16) ptr @_ZNSt3mapINSt7__cxx1112basic_stringIcSt11char_traitsIcESaIcEEEN9benchmark7CounterESt4lessIS5_ESaISt4pairIKS5_S7_EEEixEOS5_(ptr noundef nonnull align 8 dereferenceable(48) %85, ptr noundef nonnull align 8 dereferenceable(32) %3)
          to label %87 unwind label %93

87:                                               ; preds = %80
  store double %77, ptr %86, align 8, !tbaa.struct !41
  %88 = getelementptr inbounds i8, ptr %86, i64 8
  store i32 1, ptr %88, align 8, !tbaa.struct !48
  %89 = getelementptr inbounds i8, ptr %86, i64 12
  store i32 1024, ptr %89, align 4, !tbaa.struct !49
  %90 = load ptr, ptr %3, align 8, !tbaa !37
  %91 = icmp eq ptr %90, %78
  br i1 %91, label %118, label %92

92:                                               ; preds = %87
  call void @_ZdlPv(ptr noundef %90) #23
  br label %118

93:                                               ; preds = %80
  %94 = landingpad { ptr, i32 }
          cleanup
  %95 = load ptr, ptr %3, align 8, !tbaa !37
  %96 = icmp eq ptr %95, %78
  br i1 %96, label %98, label %97

97:                                               ; preds = %93
  call void @_ZdlPv(ptr noundef %95) #23
  br label %98

98:                                               ; preds = %97, %93
  call void @llvm.lifetime.end.p0(i64 32, ptr nonnull %3) #20
  br label %119

99:                                               ; preds = %62, %53
  %100 = landingpad { ptr, i32 }
          cleanup
  br label %119

101:                                              ; preds = %58, %103
  %102 = phi i64 [ %104, %103 ], [ %57, %58 ]
  fence syncscope("singlethread") acq_rel
  br label %106

103:                                              ; preds = %106
  %104 = add i64 %102, -1
  %105 = icmp eq i64 %104, 0
  br i1 %105, label %62, label %101, !prof !29

106:                                              ; preds = %101, %106
  %107 = phi i64 [ 0, %101 ], [ %116, %106 ]
  call void @llvm.lifetime.start.p0(i64 1, ptr nonnull %6) #20
  %108 = load ptr, ptr %4, align 8, !tbaa !5
  %109 = getelementptr inbounds i8, ptr %108, i64 %107
  %110 = load ptr, ptr %5, align 8, !tbaa !5
  %111 = getelementptr inbounds i8, ptr %110, i64 %107
  %112 = load i8, ptr %109, align 1
  %113 = load i8, ptr %111, align 1
  %114 = icmp eq i8 %112, %113
  %115 = zext i1 %114 to i8
  store i8 %115, ptr %6, align 1, !tbaa !50
  call void asm sideeffect "", "=*r|m,0,~{memory},~{dirflag},~{fpsr},~{flags}"(ptr nonnull elementtype(i8) %6, i1 %114) #20, !srcloc !9
  call void @llvm.lifetime.end.p0(i64 1, ptr nonnull %6) #20
  %116 = add nuw nsw i64 %107, 1
  %117 = icmp eq i64 %116, 4096
  br i1 %117, label %103, label %106, !llvm.loop !58

118:                                              ; preds = %92, %87
  call void @llvm.lifetime.end.p0(i64 32, ptr nonnull %3) #20
  call void @llvm.lifetime.end.p0(i64 8, ptr nonnull %5) #20
  call void @llvm.lifetime.end.p0(i64 8, ptr nonnull %4) #20
  call void @_ZdlPv(ptr noundef nonnull %8) #23
  call void @_ZdlPv(ptr noundef nonnull %7) #23
  ret void

119:                                              ; preds = %99, %51, %98
  %120 = phi { ptr, i32 } [ %52, %51 ], [ %94, %98 ], [ %100, %99 ]
  call void @llvm.lifetime.end.p0(i64 8, ptr nonnull %5) #20
  call void @llvm.lifetime.end.p0(i64 8, ptr nonnull %4) #20
  call void @_ZdlPv(ptr noundef nonnull %8) #23
  br label %121

121:                                              ; preds = %119, %19
  %122 = phi { ptr, i32 } [ %120, %119 ], [ %20, %19 ]
  call void @_ZdlPv(ptr noundef nonnull %7) #23
  resume { ptr, i32 } %122
}

; Function Attrs: uwtable
define linkonce_odr dso_local void @_Z9BM_MemCmpILi1E12LessThanZero4NoneEvRN9benchmark5StateE(ptr noundef nonnull align 8 dereferenceable(144) %0) #6 comdat personality ptr @__gxx_personality_v0 {
  %2 = alloca i64, align 8
  %3 = alloca %"class.std::__cxx11::basic_string", align 8
  %4 = alloca ptr, align 8
  %5 = alloca ptr, align 8
  %6 = alloca i8, align 1
  %7 = tail call noalias noundef nonnull dereferenceable(4096) ptr @_Znwm(i64 noundef 4096) #19
  tail call void @llvm.memset.p0.i64(ptr noundef nonnull align 1 dereferenceable(4096) %7, i8 0, i64 4096, i1 false)
  %8 = invoke noalias noundef nonnull dereferenceable(4096) ptr @_Znwm(i64 noundef 4096) #19
          to label %9 unwind label %12

9:                                                ; preds = %1
  tail call void @llvm.memset.p0.i64(ptr noundef nonnull align 1 dereferenceable(4096) %8, i8 0, i64 4096, i1 false)
  call void @llvm.lifetime.start.p0(i64 8, ptr nonnull %4) #20
  store ptr %7, ptr %4, align 8, !tbaa !5
  call void @llvm.lifetime.start.p0(i64 8, ptr nonnull %5) #20
  store ptr %8, ptr %5, align 8, !tbaa !5
  %10 = tail call noundef i32 @_Z10RealMemCmpPKcS0_m(ptr noundef nonnull %7, ptr noundef nonnull %8, i64 noundef 1) #21
  %11 = icmp slt i32 %10, 0
  br i1 %11, label %14, label %31

12:                                               ; preds = %1
  %13 = landingpad { ptr, i32 }
          cleanup
  br label %99

14:                                               ; preds = %9
  %15 = invoke noundef nonnull align 8 dereferenceable(8) ptr @_ZSt16__ostream_insertIcSt11char_traitsIcEERSt13basic_ostreamIT_T0_ES6_PKS3_l(ptr noundef nonnull align 8 dereferenceable(8) @_ZSt4cerr, ptr noundef nonnull @.str.337, i64 noundef 25)
          to label %16 unwind label %29

16:                                               ; preds = %14
  %17 = invoke noundef nonnull align 8 dereferenceable(8) ptr @_ZSt16__ostream_insertIcSt11char_traitsIcEERSt13basic_ostreamIT_T0_ES6_PKS3_l(ptr noundef nonnull align 8 dereferenceable(8) @_ZSt4cerr, ptr noundef nonnull @_ZN12LessThanZero8kDisplayE, i64 noundef 12)
          to label %18 unwind label %29

18:                                               ; preds = %16
  %19 = invoke noundef nonnull align 8 dereferenceable(8) ptr @_ZSt16__ostream_insertIcSt11char_traitsIcEERSt13basic_ostreamIT_T0_ES6_PKS3_l(ptr noundef nonnull align 8 dereferenceable(8) @_ZSt4cerr, ptr noundef nonnull @.str.338, i64 noundef 5)
          to label %20 unwind label %29

20:                                               ; preds = %18
  %21 = invoke noundef nonnull align 8 dereferenceable(8) ptr @_ZSt16__ostream_insertIcSt11char_traitsIcEERSt13basic_ostreamIT_T0_ES6_PKS3_l(ptr noundef nonnull align 8 dereferenceable(8) @_ZSt4cerr, ptr noundef nonnull @_ZN4None8kDisplayE, i64 noundef 4)
          to label %22 unwind label %29

22:                                               ; preds = %20
  %23 = invoke noundef nonnull align 8 dereferenceable(8) ptr @_ZSt16__ostream_insertIcSt11char_traitsIcEERSt13basic_ostreamIT_T0_ES6_PKS3_l(ptr noundef nonnull align 8 dereferenceable(8) @_ZSt4cerr, ptr noundef nonnull @.str.339, i64 noundef 7)
          to label %24 unwind label %29

24:                                               ; preds = %22
  %25 = invoke noundef nonnull align 8 dereferenceable(8) ptr @_ZNSolsEi(ptr noundef nonnull align 8 dereferenceable(8) @_ZSt4cerr, i32 noundef 1)
          to label %26 unwind label %29

26:                                               ; preds = %24
  %27 = invoke noundef nonnull align 8 dereferenceable(8) ptr @_ZSt4endlIcSt11char_traitsIcEERSt13basic_ostreamIT_T0_ES6_(ptr noundef nonnull align 8 dereferenceable(8) %25)
          to label %28 unwind label %29

28:                                               ; preds = %26
  tail call void @exit(i32 noundef 1) #22
  unreachable

29:                                               ; preds = %26, %22, %20, %18, %16, %14, %54, %24
  %30 = landingpad { ptr, i32 }
          cleanup
  br label %97

31:                                               ; preds = %9
  call void asm sideeffect "", "=*r|m,0,~{memory},~{dirflag},~{fpsr},~{flags}"(ptr nonnull elementtype(ptr) %4, ptr nonnull %7) #20, !srcloc !9
  call void asm sideeffect "", "=*r|m,0,~{memory},~{dirflag},~{fpsr},~{flags}"(ptr nonnull elementtype(ptr) %5, ptr nonnull %8) #20, !srcloc !9
  %32 = getelementptr inbounds %"class.benchmark::State", ptr %0, i64 0, i32 5
  %33 = load i8, ptr %32, align 2, !tbaa !10, !range !27, !noundef !28
  %34 = getelementptr inbounds %"class.benchmark::State", ptr %0, i64 0, i32 2
  %35 = load i64, ptr %34, align 8
  invoke void @_ZN9benchmark5State16StartKeepRunningEv(ptr noundef nonnull align 8 dereferenceable(144) %0)
          to label %36 unwind label %77

36:                                               ; preds = %31
  %37 = icmp ne i8 %33, 0
  %38 = icmp eq i64 %35, 0
  %39 = select i1 %37, i1 true, i1 %38
  br i1 %39, label %40, label %79, !prof !29

40:                                               ; preds = %81, %36
  invoke void @_ZN9benchmark5State17FinishKeepRunningEv(ptr noundef nonnull align 8 dereferenceable(144) %0)
          to label %41 unwind label %77

41:                                               ; preds = %40
  %42 = getelementptr inbounds %"class.benchmark::State", ptr %0, i64 0, i32 3
  %43 = load i8, ptr %42, align 8, !tbaa !30, !range !27, !noundef !28
  %44 = icmp eq i8 %43, 0
  br i1 %44, label %54, label %45, !prof !29

45:                                               ; preds = %41
  %46 = load i64, ptr %34, align 8, !tbaa !31
  %47 = load i64, ptr %0, align 8, !tbaa !32
  %48 = sub i64 %46, %47
  %49 = getelementptr inbounds %"class.benchmark::State", ptr %0, i64 0, i32 1
  %50 = load i64, ptr %49, align 8, !tbaa !33
  %51 = add i64 %48, %50
  %52 = shl i64 %51, 12
  %53 = sitofp i64 %52 to double
  br label %54

54:                                               ; preds = %41, %45
  %55 = phi double [ %53, %45 ], [ 0.000000e+00, %41 ]
  call void @llvm.lifetime.start.p0(i64 32, ptr nonnull %3) #20
  %56 = getelementptr inbounds %"class.std::__cxx11::basic_string", ptr %3, i64 0, i32 2
  store ptr %56, ptr %3, align 8, !tbaa !34
  call void @llvm.lifetime.start.p0(i64 8, ptr nonnull %2) #20
  store i64 16, ptr %2, align 8, !tbaa !36
  %57 = invoke noundef ptr @_ZNSt7__cxx1112basic_stringIcSt11char_traitsIcESaIcEE9_M_createERmm(ptr noundef nonnull align 8 dereferenceable(32) %3, ptr noundef nonnull align 8 dereferenceable(8) %2, i64 noundef 0)
          to label %58 unwind label %29

58:                                               ; preds = %54
  store ptr %57, ptr %3, align 8, !tbaa !37
  %59 = load i64, ptr %2, align 8, !tbaa !36
  store i64 %59, ptr %56, align 8, !tbaa !39
  call void @llvm.memcpy.p0.p0.i64(ptr noundef nonnull align 1 dereferenceable(16) %57, ptr noundef nonnull align 1 dereferenceable(16) @.str.341, i64 16, i1 false)
  %60 = getelementptr inbounds %"class.std::__cxx11::basic_string", ptr %3, i64 0, i32 1
  store i64 %59, ptr %60, align 8, !tbaa !40
  %61 = load ptr, ptr %3, align 8, !tbaa !37
  %62 = getelementptr inbounds i8, ptr %61, i64 %59
  store i8 0, ptr %62, align 1, !tbaa !39
  call void @llvm.lifetime.end.p0(i64 8, ptr nonnull %2) #20
  %63 = getelementptr inbounds %"class.benchmark::State", ptr %0, i64 0, i32 8
  %64 = invoke noundef nonnull align 8 dereferenceable(16) ptr @_ZNSt3mapINSt7__cxx1112basic_stringIcSt11char_traitsIcESaIcEEEN9benchmark7CounterESt4lessIS5_ESaISt4pairIKS5_S7_EEEixEOS5_(ptr noundef nonnull align 8 dereferenceable(48) %63, ptr noundef nonnull align 8 dereferenceable(32) %3)
          to label %65 unwind label %71

65:                                               ; preds = %58
  store double %55, ptr %64, align 8, !tbaa.struct !41
  %66 = getelementptr inbounds i8, ptr %64, i64 8
  store i32 1, ptr %66, align 8, !tbaa.struct !48
  %67 = getelementptr inbounds i8, ptr %64, i64 12
  store i32 1024, ptr %67, align 4, !tbaa.struct !49
  %68 = load ptr, ptr %3, align 8, !tbaa !37
  %69 = icmp eq ptr %68, %56
  br i1 %69, label %96, label %70

70:                                               ; preds = %65
  call void @_ZdlPv(ptr noundef %68) #23
  br label %96

71:                                               ; preds = %58
  %72 = landingpad { ptr, i32 }
          cleanup
  %73 = load ptr, ptr %3, align 8, !tbaa !37
  %74 = icmp eq ptr %73, %56
  br i1 %74, label %76, label %75

75:                                               ; preds = %71
  call void @_ZdlPv(ptr noundef %73) #23
  br label %76

76:                                               ; preds = %75, %71
  call void @llvm.lifetime.end.p0(i64 32, ptr nonnull %3) #20
  br label %97

77:                                               ; preds = %40, %31
  %78 = landingpad { ptr, i32 }
          cleanup
  br label %97

79:                                               ; preds = %36, %81
  %80 = phi i64 [ %82, %81 ], [ %35, %36 ]
  fence syncscope("singlethread") acq_rel
  br label %84

81:                                               ; preds = %84
  %82 = add i64 %80, -1
  %83 = icmp eq i64 %82, 0
  br i1 %83, label %40, label %79, !prof !29

84:                                               ; preds = %79, %84
  %85 = phi i64 [ 0, %79 ], [ %94, %84 ]
  call void @llvm.lifetime.start.p0(i64 1, ptr nonnull %6) #20
  %86 = load ptr, ptr %4, align 8, !tbaa !5
  %87 = getelementptr inbounds i8, ptr %86, i64 %85
  %88 = load ptr, ptr %5, align 8, !tbaa !5
  %89 = getelementptr inbounds i8, ptr %88, i64 %85
  %90 = load i8, ptr %87, align 1
  %91 = load i8, ptr %89, align 1
  %92 = icmp ult i8 %90, %91
  %93 = zext i1 %92 to i8
  store i8 %93, ptr %6, align 1, !tbaa !50
  call void asm sideeffect "", "=*r|m,0,~{memory},~{dirflag},~{fpsr},~{flags}"(ptr nonnull elementtype(i8) %6, i1 %92) #20, !srcloc !9
  call void @llvm.lifetime.end.p0(i64 1, ptr nonnull %6) #20
  %94 = add nuw nsw i64 %85, 1
  %95 = icmp eq i64 %94, 4096
  br i1 %95, label %81, label %84, !llvm.loop !59

96:                                               ; preds = %70, %65
  call void @llvm.lifetime.end.p0(i64 32, ptr nonnull %3) #20
  call void @llvm.lifetime.end.p0(i64 8, ptr nonnull %5) #20
  call void @llvm.lifetime.end.p0(i64 8, ptr nonnull %4) #20
  call void @_ZdlPv(ptr noundef nonnull %8) #23
  call void @_ZdlPv(ptr noundef nonnull %7) #23
  ret void

97:                                               ; preds = %77, %29, %76
  %98 = phi { ptr, i32 } [ %30, %29 ], [ %72, %76 ], [ %78, %77 ]
  call void @llvm.lifetime.end.p0(i64 8, ptr nonnull %5) #20
  call void @llvm.lifetime.end.p0(i64 8, ptr nonnull %4) #20
  call void @_ZdlPv(ptr noundef nonnull %8) #23
  br label %99

99:                                               ; preds = %97, %12
  %100 = phi { ptr, i32 } [ %98, %97 ], [ %13, %12 ]
  call void @_ZdlPv(ptr noundef nonnull %7) #23
  resume { ptr, i32 } %100
}

; Function Attrs: uwtable
define linkonce_odr dso_local void @_Z9BM_MemCmpILi1E12LessThanZero5FirstEvRN9benchmark5StateE(ptr noundef nonnull align 8 dereferenceable(144) %0) #6 comdat personality ptr @__gxx_personality_v0 {
  %2 = alloca i64, align 8
  %3 = alloca %"class.std::__cxx11::basic_string", align 8
  %4 = alloca ptr, align 8
  %5 = alloca ptr, align 8
  %6 = alloca i8, align 1
  %7 = tail call noalias noundef nonnull dereferenceable(4096) ptr @_Znwm(i64 noundef 4096) #19
  tail call void @llvm.memset.p0.i64(ptr noundef nonnull align 1 dereferenceable(4096) %7, i8 0, i64 4096, i1 false)
  %8 = invoke noalias noundef nonnull dereferenceable(4096) ptr @_Znwm(i64 noundef 4096) #19
          to label %9 unwind label %19

9:                                                ; preds = %1
  tail call void @llvm.memset.p0.i64(ptr noundef nonnull align 1 dereferenceable(4096) %8, i8 0, i64 4096, i1 false)
  call void @llvm.lifetime.start.p0(i64 8, ptr nonnull %4) #20
  store ptr %7, ptr %4, align 8, !tbaa !5
  call void @llvm.lifetime.start.p0(i64 8, ptr nonnull %5) #20
  store ptr %8, ptr %5, align 8, !tbaa !5
  br label %21

10:                                               ; preds = %21
  %11 = load ptr, ptr %4, align 8, !tbaa !5
  %12 = load ptr, ptr %5, align 8, !tbaa !5
  %13 = tail call noundef i32 @_Z10RealMemCmpPKcS0_m(ptr noundef %11, ptr noundef %12, i64 noundef 1) #21
  %14 = icmp slt i32 %13, 0
  %15 = load i8, ptr %11, align 1
  %16 = load i8, ptr %12, align 1
  %17 = icmp ult i8 %15, %16
  %18 = xor i1 %14, %17
  br i1 %18, label %36, label %53

19:                                               ; preds = %1
  %20 = landingpad { ptr, i32 }
          cleanup
  br label %121

21:                                               ; preds = %21, %9
  %22 = phi i64 [ 0, %9 ], [ %34, %21 ]
  %23 = load ptr, ptr %4, align 8, !tbaa !5
  %24 = getelementptr inbounds i8, ptr %23, i64 %22
  store i8 -1, ptr %24, align 1, !tbaa !39
  %25 = or i64 %22, 1
  %26 = load ptr, ptr %4, align 8, !tbaa !5
  %27 = getelementptr inbounds i8, ptr %26, i64 %25
  store i8 -1, ptr %27, align 1, !tbaa !39
  %28 = or i64 %22, 2
  %29 = load ptr, ptr %4, align 8, !tbaa !5
  %30 = getelementptr inbounds i8, ptr %29, i64 %28
  store i8 -1, ptr %30, align 1, !tbaa !39
  %31 = or i64 %22, 3
  %32 = load ptr, ptr %4, align 8, !tbaa !5
  %33 = getelementptr inbounds i8, ptr %32, i64 %31
  store i8 -1, ptr %33, align 1, !tbaa !39
  %34 = add nuw nsw i64 %22, 4
  %35 = icmp eq i64 %34, 4096
  br i1 %35, label %10, label %21, !llvm.loop !60

36:                                               ; preds = %10
  %37 = invoke noundef nonnull align 8 dereferenceable(8) ptr @_ZSt16__ostream_insertIcSt11char_traitsIcEERSt13basic_ostreamIT_T0_ES6_PKS3_l(ptr noundef nonnull align 8 dereferenceable(8) @_ZSt4cerr, ptr noundef nonnull @.str.337, i64 noundef 25)
          to label %38 unwind label %51

38:                                               ; preds = %36
  %39 = invoke noundef nonnull align 8 dereferenceable(8) ptr @_ZSt16__ostream_insertIcSt11char_traitsIcEERSt13basic_ostreamIT_T0_ES6_PKS3_l(ptr noundef nonnull align 8 dereferenceable(8) @_ZSt4cerr, ptr noundef nonnull @_ZN12LessThanZero8kDisplayE, i64 noundef 12)
          to label %40 unwind label %51

40:                                               ; preds = %38
  %41 = invoke noundef nonnull align 8 dereferenceable(8) ptr @_ZSt16__ostream_insertIcSt11char_traitsIcEERSt13basic_ostreamIT_T0_ES6_PKS3_l(ptr noundef nonnull align 8 dereferenceable(8) @_ZSt4cerr, ptr noundef nonnull @.str.338, i64 noundef 5)
          to label %42 unwind label %51

42:                                               ; preds = %40
  %43 = invoke noundef nonnull align 8 dereferenceable(8) ptr @_ZSt16__ostream_insertIcSt11char_traitsIcEERSt13basic_ostreamIT_T0_ES6_PKS3_l(ptr noundef nonnull align 8 dereferenceable(8) @_ZSt4cerr, ptr noundef nonnull @_ZN5First8kDisplayE, i64 noundef 5)
          to label %44 unwind label %51

44:                                               ; preds = %42
  %45 = invoke noundef nonnull align 8 dereferenceable(8) ptr @_ZSt16__ostream_insertIcSt11char_traitsIcEERSt13basic_ostreamIT_T0_ES6_PKS3_l(ptr noundef nonnull align 8 dereferenceable(8) @_ZSt4cerr, ptr noundef nonnull @.str.339, i64 noundef 7)
          to label %46 unwind label %51

46:                                               ; preds = %44
  %47 = invoke noundef nonnull align 8 dereferenceable(8) ptr @_ZNSolsEi(ptr noundef nonnull align 8 dereferenceable(8) @_ZSt4cerr, i32 noundef 1)
          to label %48 unwind label %51

48:                                               ; preds = %46
  %49 = invoke noundef nonnull align 8 dereferenceable(8) ptr @_ZSt4endlIcSt11char_traitsIcEERSt13basic_ostreamIT_T0_ES6_(ptr noundef nonnull align 8 dereferenceable(8) %47)
          to label %50 unwind label %51

50:                                               ; preds = %48
  tail call void @exit(i32 noundef 1) #22
  unreachable

51:                                               ; preds = %48, %44, %42, %40, %38, %36, %76, %46
  %52 = landingpad { ptr, i32 }
          cleanup
  br label %119

53:                                               ; preds = %10
  call void asm sideeffect "", "=*r|m,0,~{memory},~{dirflag},~{fpsr},~{flags}"(ptr nonnull elementtype(ptr) %4, ptr nonnull %11) #20, !srcloc !9
  call void asm sideeffect "", "=*r|m,0,~{memory},~{dirflag},~{fpsr},~{flags}"(ptr nonnull elementtype(ptr) %5, ptr nonnull %12) #20, !srcloc !9
  %54 = getelementptr inbounds %"class.benchmark::State", ptr %0, i64 0, i32 5
  %55 = load i8, ptr %54, align 2, !tbaa !10, !range !27, !noundef !28
  %56 = getelementptr inbounds %"class.benchmark::State", ptr %0, i64 0, i32 2
  %57 = load i64, ptr %56, align 8
  invoke void @_ZN9benchmark5State16StartKeepRunningEv(ptr noundef nonnull align 8 dereferenceable(144) %0)
          to label %58 unwind label %99

58:                                               ; preds = %53
  %59 = icmp ne i8 %55, 0
  %60 = icmp eq i64 %57, 0
  %61 = select i1 %59, i1 true, i1 %60
  br i1 %61, label %62, label %101, !prof !29

62:                                               ; preds = %103, %58
  invoke void @_ZN9benchmark5State17FinishKeepRunningEv(ptr noundef nonnull align 8 dereferenceable(144) %0)
          to label %63 unwind label %99

63:                                               ; preds = %62
  %64 = getelementptr inbounds %"class.benchmark::State", ptr %0, i64 0, i32 3
  %65 = load i8, ptr %64, align 8, !tbaa !30, !range !27, !noundef !28
  %66 = icmp eq i8 %65, 0
  br i1 %66, label %76, label %67, !prof !29

67:                                               ; preds = %63
  %68 = load i64, ptr %56, align 8, !tbaa !31
  %69 = load i64, ptr %0, align 8, !tbaa !32
  %70 = sub i64 %68, %69
  %71 = getelementptr inbounds %"class.benchmark::State", ptr %0, i64 0, i32 1
  %72 = load i64, ptr %71, align 8, !tbaa !33
  %73 = add i64 %70, %72
  %74 = shl i64 %73, 12
  %75 = sitofp i64 %74 to double
  br label %76

76:                                               ; preds = %63, %67
  %77 = phi double [ %75, %67 ], [ 0.000000e+00, %63 ]
  call void @llvm.lifetime.start.p0(i64 32, ptr nonnull %3) #20
  %78 = getelementptr inbounds %"class.std::__cxx11::basic_string", ptr %3, i64 0, i32 2
  store ptr %78, ptr %3, align 8, !tbaa !34
  call void @llvm.lifetime.start.p0(i64 8, ptr nonnull %2) #20
  store i64 16, ptr %2, align 8, !tbaa !36
  %79 = invoke noundef ptr @_ZNSt7__cxx1112basic_stringIcSt11char_traitsIcESaIcEE9_M_createERmm(ptr noundef nonnull align 8 dereferenceable(32) %3, ptr noundef nonnull align 8 dereferenceable(8) %2, i64 noundef 0)
          to label %80 unwind label %51

80:                                               ; preds = %76
  store ptr %79, ptr %3, align 8, !tbaa !37
  %81 = load i64, ptr %2, align 8, !tbaa !36
  store i64 %81, ptr %78, align 8, !tbaa !39
  call void @llvm.memcpy.p0.p0.i64(ptr noundef nonnull align 1 dereferenceable(16) %79, ptr noundef nonnull align 1 dereferenceable(16) @.str.341, i64 16, i1 false)
  %82 = getelementptr inbounds %"class.std::__cxx11::basic_string", ptr %3, i64 0, i32 1
  store i64 %81, ptr %82, align 8, !tbaa !40
  %83 = load ptr, ptr %3, align 8, !tbaa !37
  %84 = getelementptr inbounds i8, ptr %83, i64 %81
  store i8 0, ptr %84, align 1, !tbaa !39
  call void @llvm.lifetime.end.p0(i64 8, ptr nonnull %2) #20
  %85 = getelementptr inbounds %"class.benchmark::State", ptr %0, i64 0, i32 8
  %86 = invoke noundef nonnull align 8 dereferenceable(16) ptr @_ZNSt3mapINSt7__cxx1112basic_stringIcSt11char_traitsIcESaIcEEEN9benchmark7CounterESt4lessIS5_ESaISt4pairIKS5_S7_EEEixEOS5_(ptr noundef nonnull align 8 dereferenceable(48) %85, ptr noundef nonnull align 8 dereferenceable(32) %3)
          to label %87 unwind label %93

87:                                               ; preds = %80
  store double %77, ptr %86, align 8, !tbaa.struct !41
  %88 = getelementptr inbounds i8, ptr %86, i64 8
  store i32 1, ptr %88, align 8, !tbaa.struct !48
  %89 = getelementptr inbounds i8, ptr %86, i64 12
  store i32 1024, ptr %89, align 4, !tbaa.struct !49
  %90 = load ptr, ptr %3, align 8, !tbaa !37
  %91 = icmp eq ptr %90, %78
  br i1 %91, label %118, label %92

92:                                               ; preds = %87
  call void @_ZdlPv(ptr noundef %90) #23
  br label %118

93:                                               ; preds = %80
  %94 = landingpad { ptr, i32 }
          cleanup
  %95 = load ptr, ptr %3, align 8, !tbaa !37
  %96 = icmp eq ptr %95, %78
  br i1 %96, label %98, label %97

97:                                               ; preds = %93
  call void @_ZdlPv(ptr noundef %95) #23
  br label %98

98:                                               ; preds = %97, %93
  call void @llvm.lifetime.end.p0(i64 32, ptr nonnull %3) #20
  br label %119

99:                                               ; preds = %62, %53
  %100 = landingpad { ptr, i32 }
          cleanup
  br label %119

101:                                              ; preds = %58, %103
  %102 = phi i64 [ %104, %103 ], [ %57, %58 ]
  fence syncscope("singlethread") acq_rel
  br label %106

103:                                              ; preds = %106
  %104 = add i64 %102, -1
  %105 = icmp eq i64 %104, 0
  br i1 %105, label %62, label %101, !prof !29

106:                                              ; preds = %101, %106
  %107 = phi i64 [ 0, %101 ], [ %116, %106 ]
  call void @llvm.lifetime.start.p0(i64 1, ptr nonnull %6) #20
  %108 = load ptr, ptr %4, align 8, !tbaa !5
  %109 = getelementptr inbounds i8, ptr %108, i64 %107
  %110 = load ptr, ptr %5, align 8, !tbaa !5
  %111 = getelementptr inbounds i8, ptr %110, i64 %107
  %112 = load i8, ptr %109, align 1
  %113 = load i8, ptr %111, align 1
  %114 = icmp ult i8 %112, %113
  %115 = zext i1 %114 to i8
  store i8 %115, ptr %6, align 1, !tbaa !50
  call void asm sideeffect "", "=*r|m,0,~{memory},~{dirflag},~{fpsr},~{flags}"(ptr nonnull elementtype(i8) %6, i1 %114) #20, !srcloc !9
  call void @llvm.lifetime.end.p0(i64 1, ptr nonnull %6) #20
  %116 = add nuw nsw i64 %107, 1
  %117 = icmp eq i64 %116, 4096
  br i1 %117, label %103, label %106, !llvm.loop !61

118:                                              ; preds = %92, %87
  call void @llvm.lifetime.end.p0(i64 32, ptr nonnull %3) #20
  call void @llvm.lifetime.end.p0(i64 8, ptr nonnull %5) #20
  call void @llvm.lifetime.end.p0(i64 8, ptr nonnull %4) #20
  call void @_ZdlPv(ptr noundef nonnull %8) #23
  call void @_ZdlPv(ptr noundef nonnull %7) #23
  ret void

119:                                              ; preds = %99, %51, %98
  %120 = phi { ptr, i32 } [ %52, %51 ], [ %94, %98 ], [ %100, %99 ]
  call void @llvm.lifetime.end.p0(i64 8, ptr nonnull %5) #20
  call void @llvm.lifetime.end.p0(i64 8, ptr nonnull %4) #20
  call void @_ZdlPv(ptr noundef nonnull %8) #23
  br label %121

121:                                              ; preds = %119, %19
  %122 = phi { ptr, i32 } [ %120, %119 ], [ %20, %19 ]
  call void @_ZdlPv(ptr noundef nonnull %7) #23
  resume { ptr, i32 } %122
}

; Function Attrs: uwtable
define linkonce_odr dso_local void @_Z9BM_MemCmpILi1E12LessThanZero3MidEvRN9benchmark5StateE(ptr noundef nonnull align 8 dereferenceable(144) %0) #6 comdat personality ptr @__gxx_personality_v0 {
  %2 = alloca i64, align 8
  %3 = alloca %"class.std::__cxx11::basic_string", align 8
  %4 = alloca ptr, align 8
  %5 = alloca ptr, align 8
  %6 = alloca i8, align 1
  %7 = tail call noalias noundef nonnull dereferenceable(4096) ptr @_Znwm(i64 noundef 4096) #19
  tail call void @llvm.memset.p0.i64(ptr noundef nonnull align 1 dereferenceable(4096) %7, i8 0, i64 4096, i1 false)
  %8 = invoke noalias noundef nonnull dereferenceable(4096) ptr @_Znwm(i64 noundef 4096) #19
          to label %9 unwind label %19

9:                                                ; preds = %1
  tail call void @llvm.memset.p0.i64(ptr noundef nonnull align 1 dereferenceable(4096) %8, i8 0, i64 4096, i1 false)
  call void @llvm.lifetime.start.p0(i64 8, ptr nonnull %4) #20
  store ptr %7, ptr %4, align 8, !tbaa !5
  call void @llvm.lifetime.start.p0(i64 8, ptr nonnull %5) #20
  store ptr %8, ptr %5, align 8, !tbaa !5
  br label %21

10:                                               ; preds = %21
  %11 = load ptr, ptr %4, align 8, !tbaa !5
  %12 = load ptr, ptr %5, align 8, !tbaa !5
  %13 = tail call noundef i32 @_Z10RealMemCmpPKcS0_m(ptr noundef %11, ptr noundef %12, i64 noundef 1) #21
  %14 = icmp slt i32 %13, 0
  %15 = load i8, ptr %11, align 1
  %16 = load i8, ptr %12, align 1
  %17 = icmp ult i8 %15, %16
  %18 = xor i1 %14, %17
  br i1 %18, label %36, label %53

19:                                               ; preds = %1
  %20 = landingpad { ptr, i32 }
          cleanup
  br label %121

21:                                               ; preds = %21, %9
  %22 = phi i64 [ 0, %9 ], [ %34, %21 ]
  %23 = load ptr, ptr %4, align 8, !tbaa !5
  %24 = getelementptr inbounds i8, ptr %23, i64 %22
  store i8 -1, ptr %24, align 1, !tbaa !39
  %25 = or i64 %22, 1
  %26 = load ptr, ptr %4, align 8, !tbaa !5
  %27 = getelementptr inbounds i8, ptr %26, i64 %25
  store i8 -1, ptr %27, align 1, !tbaa !39
  %28 = or i64 %22, 2
  %29 = load ptr, ptr %4, align 8, !tbaa !5
  %30 = getelementptr inbounds i8, ptr %29, i64 %28
  store i8 -1, ptr %30, align 1, !tbaa !39
  %31 = or i64 %22, 3
  %32 = load ptr, ptr %4, align 8, !tbaa !5
  %33 = getelementptr inbounds i8, ptr %32, i64 %31
  store i8 -1, ptr %33, align 1, !tbaa !39
  %34 = add nuw nsw i64 %22, 4
  %35 = icmp eq i64 %34, 4096
  br i1 %35, label %10, label %21, !llvm.loop !62

36:                                               ; preds = %10
  %37 = invoke noundef nonnull align 8 dereferenceable(8) ptr @_ZSt16__ostream_insertIcSt11char_traitsIcEERSt13basic_ostreamIT_T0_ES6_PKS3_l(ptr noundef nonnull align 8 dereferenceable(8) @_ZSt4cerr, ptr noundef nonnull @.str.337, i64 noundef 25)
          to label %38 unwind label %51

38:                                               ; preds = %36
  %39 = invoke noundef nonnull align 8 dereferenceable(8) ptr @_ZSt16__ostream_insertIcSt11char_traitsIcEERSt13basic_ostreamIT_T0_ES6_PKS3_l(ptr noundef nonnull align 8 dereferenceable(8) @_ZSt4cerr, ptr noundef nonnull @_ZN12LessThanZero8kDisplayE, i64 noundef 12)
          to label %40 unwind label %51

40:                                               ; preds = %38
  %41 = invoke noundef nonnull align 8 dereferenceable(8) ptr @_ZSt16__ostream_insertIcSt11char_traitsIcEERSt13basic_ostreamIT_T0_ES6_PKS3_l(ptr noundef nonnull align 8 dereferenceable(8) @_ZSt4cerr, ptr noundef nonnull @.str.338, i64 noundef 5)
          to label %42 unwind label %51

42:                                               ; preds = %40
  %43 = invoke noundef nonnull align 8 dereferenceable(8) ptr @_ZSt16__ostream_insertIcSt11char_traitsIcEERSt13basic_ostreamIT_T0_ES6_PKS3_l(ptr noundef nonnull align 8 dereferenceable(8) @_ZSt4cerr, ptr noundef nonnull @_ZN3Mid8kDisplayE, i64 noundef 3)
          to label %44 unwind label %51

44:                                               ; preds = %42
  %45 = invoke noundef nonnull align 8 dereferenceable(8) ptr @_ZSt16__ostream_insertIcSt11char_traitsIcEERSt13basic_ostreamIT_T0_ES6_PKS3_l(ptr noundef nonnull align 8 dereferenceable(8) @_ZSt4cerr, ptr noundef nonnull @.str.339, i64 noundef 7)
          to label %46 unwind label %51

46:                                               ; preds = %44
  %47 = invoke noundef nonnull align 8 dereferenceable(8) ptr @_ZNSolsEi(ptr noundef nonnull align 8 dereferenceable(8) @_ZSt4cerr, i32 noundef 1)
          to label %48 unwind label %51

48:                                               ; preds = %46
  %49 = invoke noundef nonnull align 8 dereferenceable(8) ptr @_ZSt4endlIcSt11char_traitsIcEERSt13basic_ostreamIT_T0_ES6_(ptr noundef nonnull align 8 dereferenceable(8) %47)
          to label %50 unwind label %51

50:                                               ; preds = %48
  tail call void @exit(i32 noundef 1) #22
  unreachable

51:                                               ; preds = %48, %44, %42, %40, %38, %36, %76, %46
  %52 = landingpad { ptr, i32 }
          cleanup
  br label %119

53:                                               ; preds = %10
  call void asm sideeffect "", "=*r|m,0,~{memory},~{dirflag},~{fpsr},~{flags}"(ptr nonnull elementtype(ptr) %4, ptr nonnull %11) #20, !srcloc !9
  call void asm sideeffect "", "=*r|m,0,~{memory},~{dirflag},~{fpsr},~{flags}"(ptr nonnull elementtype(ptr) %5, ptr nonnull %12) #20, !srcloc !9
  %54 = getelementptr inbounds %"class.benchmark::State", ptr %0, i64 0, i32 5
  %55 = load i8, ptr %54, align 2, !tbaa !10, !range !27, !noundef !28
  %56 = getelementptr inbounds %"class.benchmark::State", ptr %0, i64 0, i32 2
  %57 = load i64, ptr %56, align 8
  invoke void @_ZN9benchmark5State16StartKeepRunningEv(ptr noundef nonnull align 8 dereferenceable(144) %0)
          to label %58 unwind label %99

58:                                               ; preds = %53
  %59 = icmp ne i8 %55, 0
  %60 = icmp eq i64 %57, 0
  %61 = select i1 %59, i1 true, i1 %60
  br i1 %61, label %62, label %101, !prof !29

62:                                               ; preds = %103, %58
  invoke void @_ZN9benchmark5State17FinishKeepRunningEv(ptr noundef nonnull align 8 dereferenceable(144) %0)
          to label %63 unwind label %99

63:                                               ; preds = %62
  %64 = getelementptr inbounds %"class.benchmark::State", ptr %0, i64 0, i32 3
  %65 = load i8, ptr %64, align 8, !tbaa !30, !range !27, !noundef !28
  %66 = icmp eq i8 %65, 0
  br i1 %66, label %76, label %67, !prof !29

67:                                               ; preds = %63
  %68 = load i64, ptr %56, align 8, !tbaa !31
  %69 = load i64, ptr %0, align 8, !tbaa !32
  %70 = sub i64 %68, %69
  %71 = getelementptr inbounds %"class.benchmark::State", ptr %0, i64 0, i32 1
  %72 = load i64, ptr %71, align 8, !tbaa !33
  %73 = add i64 %70, %72
  %74 = shl i64 %73, 12
  %75 = sitofp i64 %74 to double
  br label %76

76:                                               ; preds = %63, %67
  %77 = phi double [ %75, %67 ], [ 0.000000e+00, %63 ]
  call void @llvm.lifetime.start.p0(i64 32, ptr nonnull %3) #20
  %78 = getelementptr inbounds %"class.std::__cxx11::basic_string", ptr %3, i64 0, i32 2
  store ptr %78, ptr %3, align 8, !tbaa !34
  call void @llvm.lifetime.start.p0(i64 8, ptr nonnull %2) #20
  store i64 16, ptr %2, align 8, !tbaa !36
  %79 = invoke noundef ptr @_ZNSt7__cxx1112basic_stringIcSt11char_traitsIcESaIcEE9_M_createERmm(ptr noundef nonnull align 8 dereferenceable(32) %3, ptr noundef nonnull align 8 dereferenceable(8) %2, i64 noundef 0)
          to label %80 unwind label %51

80:                                               ; preds = %76
  store ptr %79, ptr %3, align 8, !tbaa !37
  %81 = load i64, ptr %2, align 8, !tbaa !36
  store i64 %81, ptr %78, align 8, !tbaa !39
  call void @llvm.memcpy.p0.p0.i64(ptr noundef nonnull align 1 dereferenceable(16) %79, ptr noundef nonnull align 1 dereferenceable(16) @.str.341, i64 16, i1 false)
  %82 = getelementptr inbounds %"class.std::__cxx11::basic_string", ptr %3, i64 0, i32 1
  store i64 %81, ptr %82, align 8, !tbaa !40
  %83 = load ptr, ptr %3, align 8, !tbaa !37
  %84 = getelementptr inbounds i8, ptr %83, i64 %81
  store i8 0, ptr %84, align 1, !tbaa !39
  call void @llvm.lifetime.end.p0(i64 8, ptr nonnull %2) #20
  %85 = getelementptr inbounds %"class.benchmark::State", ptr %0, i64 0, i32 8
  %86 = invoke noundef nonnull align 8 dereferenceable(16) ptr @_ZNSt3mapINSt7__cxx1112basic_stringIcSt11char_traitsIcESaIcEEEN9benchmark7CounterESt4lessIS5_ESaISt4pairIKS5_S7_EEEixEOS5_(ptr noundef nonnull align 8 dereferenceable(48) %85, ptr noundef nonnull align 8 dereferenceable(32) %3)
          to label %87 unwind label %93

87:                                               ; preds = %80
  store double %77, ptr %86, align 8, !tbaa.struct !41
  %88 = getelementptr inbounds i8, ptr %86, i64 8
  store i32 1, ptr %88, align 8, !tbaa.struct !48
  %89 = getelementptr inbounds i8, ptr %86, i64 12
  store i32 1024, ptr %89, align 4, !tbaa.struct !49
  %90 = load ptr, ptr %3, align 8, !tbaa !37
  %91 = icmp eq ptr %90, %78
  br i1 %91, label %118, label %92

92:                                               ; preds = %87
  call void @_ZdlPv(ptr noundef %90) #23
  br label %118

93:                                               ; preds = %80
  %94 = landingpad { ptr, i32 }
          cleanup
  %95 = load ptr, ptr %3, align 8, !tbaa !37
  %96 = icmp eq ptr %95, %78
  br i1 %96, label %98, label %97

97:                                               ; preds = %93
  call void @_ZdlPv(ptr noundef %95) #23
  br label %98

98:                                               ; preds = %97, %93
  call void @llvm.lifetime.end.p0(i64 32, ptr nonnull %3) #20
  br label %119

99:                                               ; preds = %62, %53
  %100 = landingpad { ptr, i32 }
          cleanup
  br label %119

101:                                              ; preds = %58, %103
  %102 = phi i64 [ %104, %103 ], [ %57, %58 ]
  fence syncscope("singlethread") acq_rel
  br label %106

103:                                              ; preds = %106
  %104 = add i64 %102, -1
  %105 = icmp eq i64 %104, 0
  br i1 %105, label %62, label %101, !prof !29

106:                                              ; preds = %101, %106
  %107 = phi i64 [ 0, %101 ], [ %116, %106 ]
  call void @llvm.lifetime.start.p0(i64 1, ptr nonnull %6) #20
  %108 = load ptr, ptr %4, align 8, !tbaa !5
  %109 = getelementptr inbounds i8, ptr %108, i64 %107
  %110 = load ptr, ptr %5, align 8, !tbaa !5
  %111 = getelementptr inbounds i8, ptr %110, i64 %107
  %112 = load i8, ptr %109, align 1
  %113 = load i8, ptr %111, align 1
  %114 = icmp ult i8 %112, %113
  %115 = zext i1 %114 to i8
  store i8 %115, ptr %6, align 1, !tbaa !50
  call void asm sideeffect "", "=*r|m,0,~{memory},~{dirflag},~{fpsr},~{flags}"(ptr nonnull elementtype(i8) %6, i1 %114) #20, !srcloc !9
  call void @llvm.lifetime.end.p0(i64 1, ptr nonnull %6) #20
  %116 = add nuw nsw i64 %107, 1
  %117 = icmp eq i64 %116, 4096
  br i1 %117, label %103, label %106, !llvm.loop !63

118:                                              ; preds = %92, %87
  call void @llvm.lifetime.end.p0(i64 32, ptr nonnull %3) #20
  call void @llvm.lifetime.end.p0(i64 8, ptr nonnull %5) #20
  call void @llvm.lifetime.end.p0(i64 8, ptr nonnull %4) #20
  call void @_ZdlPv(ptr noundef nonnull %8) #23
  call void @_ZdlPv(ptr noundef nonnull %7) #23
  ret void

119:                                              ; preds = %99, %51, %98
  %120 = phi { ptr, i32 } [ %52, %51 ], [ %94, %98 ], [ %100, %99 ]
  call void @llvm.lifetime.end.p0(i64 8, ptr nonnull %5) #20
  call void @llvm.lifetime.end.p0(i64 8, ptr nonnull %4) #20
  call void @_ZdlPv(ptr noundef nonnull %8) #23
  br label %121

121:                                              ; preds = %119, %19
  %122 = phi { ptr, i32 } [ %120, %119 ], [ %20, %19 ]
  call void @_ZdlPv(ptr noundef nonnull %7) #23
  resume { ptr, i32 } %122
}

; Function Attrs: uwtable
define linkonce_odr dso_local void @_Z9BM_MemCmpILi1E12LessThanZero4LastEvRN9benchmark5StateE(ptr noundef nonnull align 8 dereferenceable(144) %0) #6 comdat personality ptr @__gxx_personality_v0 {
  %2 = alloca i64, align 8
  %3 = alloca %"class.std::__cxx11::basic_string", align 8
  %4 = alloca ptr, align 8
  %5 = alloca ptr, align 8
  %6 = alloca i8, align 1
  %7 = tail call noalias noundef nonnull dereferenceable(4096) ptr @_Znwm(i64 noundef 4096) #19
  tail call void @llvm.memset.p0.i64(ptr noundef nonnull align 1 dereferenceable(4096) %7, i8 0, i64 4096, i1 false)
  %8 = invoke noalias noundef nonnull dereferenceable(4096) ptr @_Znwm(i64 noundef 4096) #19
          to label %9 unwind label %19

9:                                                ; preds = %1
  tail call void @llvm.memset.p0.i64(ptr noundef nonnull align 1 dereferenceable(4096) %8, i8 0, i64 4096, i1 false)
  call void @llvm.lifetime.start.p0(i64 8, ptr nonnull %4) #20
  store ptr %7, ptr %4, align 8, !tbaa !5
  call void @llvm.lifetime.start.p0(i64 8, ptr nonnull %5) #20
  store ptr %8, ptr %5, align 8, !tbaa !5
  br label %21

10:                                               ; preds = %21
  %11 = load ptr, ptr %4, align 8, !tbaa !5
  %12 = load ptr, ptr %5, align 8, !tbaa !5
  %13 = tail call noundef i32 @_Z10RealMemCmpPKcS0_m(ptr noundef %11, ptr noundef %12, i64 noundef 1) #21
  %14 = icmp slt i32 %13, 0
  %15 = load i8, ptr %11, align 1
  %16 = load i8, ptr %12, align 1
  %17 = icmp ult i8 %15, %16
  %18 = xor i1 %14, %17
  br i1 %18, label %36, label %53

19:                                               ; preds = %1
  %20 = landingpad { ptr, i32 }
          cleanup
  br label %121

21:                                               ; preds = %21, %9
  %22 = phi i64 [ 0, %9 ], [ %34, %21 ]
  %23 = load ptr, ptr %4, align 8, !tbaa !5
  %24 = getelementptr inbounds i8, ptr %23, i64 %22
  store i8 -1, ptr %24, align 1, !tbaa !39
  %25 = or i64 %22, 1
  %26 = load ptr, ptr %4, align 8, !tbaa !5
  %27 = getelementptr inbounds i8, ptr %26, i64 %25
  store i8 -1, ptr %27, align 1, !tbaa !39
  %28 = or i64 %22, 2
  %29 = load ptr, ptr %4, align 8, !tbaa !5
  %30 = getelementptr inbounds i8, ptr %29, i64 %28
  store i8 -1, ptr %30, align 1, !tbaa !39
  %31 = or i64 %22, 3
  %32 = load ptr, ptr %4, align 8, !tbaa !5
  %33 = getelementptr inbounds i8, ptr %32, i64 %31
  store i8 -1, ptr %33, align 1, !tbaa !39
  %34 = add nuw nsw i64 %22, 4
  %35 = icmp eq i64 %34, 4096
  br i1 %35, label %10, label %21, !llvm.loop !64

36:                                               ; preds = %10
  %37 = invoke noundef nonnull align 8 dereferenceable(8) ptr @_ZSt16__ostream_insertIcSt11char_traitsIcEERSt13basic_ostreamIT_T0_ES6_PKS3_l(ptr noundef nonnull align 8 dereferenceable(8) @_ZSt4cerr, ptr noundef nonnull @.str.337, i64 noundef 25)
          to label %38 unwind label %51

38:                                               ; preds = %36
  %39 = invoke noundef nonnull align 8 dereferenceable(8) ptr @_ZSt16__ostream_insertIcSt11char_traitsIcEERSt13basic_ostreamIT_T0_ES6_PKS3_l(ptr noundef nonnull align 8 dereferenceable(8) @_ZSt4cerr, ptr noundef nonnull @_ZN12LessThanZero8kDisplayE, i64 noundef 12)
          to label %40 unwind label %51

40:                                               ; preds = %38
  %41 = invoke noundef nonnull align 8 dereferenceable(8) ptr @_ZSt16__ostream_insertIcSt11char_traitsIcEERSt13basic_ostreamIT_T0_ES6_PKS3_l(ptr noundef nonnull align 8 dereferenceable(8) @_ZSt4cerr, ptr noundef nonnull @.str.338, i64 noundef 5)
          to label %42 unwind label %51

42:                                               ; preds = %40
  %43 = invoke noundef nonnull align 8 dereferenceable(8) ptr @_ZSt16__ostream_insertIcSt11char_traitsIcEERSt13basic_ostreamIT_T0_ES6_PKS3_l(ptr noundef nonnull align 8 dereferenceable(8) @_ZSt4cerr, ptr noundef nonnull @_ZN4Last8kDisplayE, i64 noundef 4)
          to label %44 unwind label %51

44:                                               ; preds = %42
  %45 = invoke noundef nonnull align 8 dereferenceable(8) ptr @_ZSt16__ostream_insertIcSt11char_traitsIcEERSt13basic_ostreamIT_T0_ES6_PKS3_l(ptr noundef nonnull align 8 dereferenceable(8) @_ZSt4cerr, ptr noundef nonnull @.str.339, i64 noundef 7)
          to label %46 unwind label %51

46:                                               ; preds = %44
  %47 = invoke noundef nonnull align 8 dereferenceable(8) ptr @_ZNSolsEi(ptr noundef nonnull align 8 dereferenceable(8) @_ZSt4cerr, i32 noundef 1)
          to label %48 unwind label %51

48:                                               ; preds = %46
  %49 = invoke noundef nonnull align 8 dereferenceable(8) ptr @_ZSt4endlIcSt11char_traitsIcEERSt13basic_ostreamIT_T0_ES6_(ptr noundef nonnull align 8 dereferenceable(8) %47)
          to label %50 unwind label %51

50:                                               ; preds = %48
  tail call void @exit(i32 noundef 1) #22
  unreachable

51:                                               ; preds = %48, %44, %42, %40, %38, %36, %76, %46
  %52 = landingpad { ptr, i32 }
          cleanup
  br label %119

53:                                               ; preds = %10
  call void asm sideeffect "", "=*r|m,0,~{memory},~{dirflag},~{fpsr},~{flags}"(ptr nonnull elementtype(ptr) %4, ptr nonnull %11) #20, !srcloc !9
  call void asm sideeffect "", "=*r|m,0,~{memory},~{dirflag},~{fpsr},~{flags}"(ptr nonnull elementtype(ptr) %5, ptr nonnull %12) #20, !srcloc !9
  %54 = getelementptr inbounds %"class.benchmark::State", ptr %0, i64 0, i32 5
  %55 = load i8, ptr %54, align 2, !tbaa !10, !range !27, !noundef !28
  %56 = getelementptr inbounds %"class.benchmark::State", ptr %0, i64 0, i32 2
  %57 = load i64, ptr %56, align 8
  invoke void @_ZN9benchmark5State16StartKeepRunningEv(ptr noundef nonnull align 8 dereferenceable(144) %0)
          to label %58 unwind label %99

58:                                               ; preds = %53
  %59 = icmp ne i8 %55, 0
  %60 = icmp eq i64 %57, 0
  %61 = select i1 %59, i1 true, i1 %60
  br i1 %61, label %62, label %101, !prof !29

62:                                               ; preds = %103, %58
  invoke void @_ZN9benchmark5State17FinishKeepRunningEv(ptr noundef nonnull align 8 dereferenceable(144) %0)
          to label %63 unwind label %99

63:                                               ; preds = %62
  %64 = getelementptr inbounds %"class.benchmark::State", ptr %0, i64 0, i32 3
  %65 = load i8, ptr %64, align 8, !tbaa !30, !range !27, !noundef !28
  %66 = icmp eq i8 %65, 0
  br i1 %66, label %76, label %67, !prof !29

67:                                               ; preds = %63
  %68 = load i64, ptr %56, align 8, !tbaa !31
  %69 = load i64, ptr %0, align 8, !tbaa !32
  %70 = sub i64 %68, %69
  %71 = getelementptr inbounds %"class.benchmark::State", ptr %0, i64 0, i32 1
  %72 = load i64, ptr %71, align 8, !tbaa !33
  %73 = add i64 %70, %72
  %74 = shl i64 %73, 12
  %75 = sitofp i64 %74 to double
  br label %76

76:                                               ; preds = %63, %67
  %77 = phi double [ %75, %67 ], [ 0.000000e+00, %63 ]
  call void @llvm.lifetime.start.p0(i64 32, ptr nonnull %3) #20
  %78 = getelementptr inbounds %"class.std::__cxx11::basic_string", ptr %3, i64 0, i32 2
  store ptr %78, ptr %3, align 8, !tbaa !34
  call void @llvm.lifetime.start.p0(i64 8, ptr nonnull %2) #20
  store i64 16, ptr %2, align 8, !tbaa !36
  %79 = invoke noundef ptr @_ZNSt7__cxx1112basic_stringIcSt11char_traitsIcESaIcEE9_M_createERmm(ptr noundef nonnull align 8 dereferenceable(32) %3, ptr noundef nonnull align 8 dereferenceable(8) %2, i64 noundef 0)
          to label %80 unwind label %51

80:                                               ; preds = %76
  store ptr %79, ptr %3, align 8, !tbaa !37
  %81 = load i64, ptr %2, align 8, !tbaa !36
  store i64 %81, ptr %78, align 8, !tbaa !39
  call void @llvm.memcpy.p0.p0.i64(ptr noundef nonnull align 1 dereferenceable(16) %79, ptr noundef nonnull align 1 dereferenceable(16) @.str.341, i64 16, i1 false)
  %82 = getelementptr inbounds %"class.std::__cxx11::basic_string", ptr %3, i64 0, i32 1
  store i64 %81, ptr %82, align 8, !tbaa !40
  %83 = load ptr, ptr %3, align 8, !tbaa !37
  %84 = getelementptr inbounds i8, ptr %83, i64 %81
  store i8 0, ptr %84, align 1, !tbaa !39
  call void @llvm.lifetime.end.p0(i64 8, ptr nonnull %2) #20
  %85 = getelementptr inbounds %"class.benchmark::State", ptr %0, i64 0, i32 8
  %86 = invoke noundef nonnull align 8 dereferenceable(16) ptr @_ZNSt3mapINSt7__cxx1112basic_stringIcSt11char_traitsIcESaIcEEEN9benchmark7CounterESt4lessIS5_ESaISt4pairIKS5_S7_EEEixEOS5_(ptr noundef nonnull align 8 dereferenceable(48) %85, ptr noundef nonnull align 8 dereferenceable(32) %3)
          to label %87 unwind label %93

87:                                               ; preds = %80
  store double %77, ptr %86, align 8, !tbaa.struct !41
  %88 = getelementptr inbounds i8, ptr %86, i64 8
  store i32 1, ptr %88, align 8, !tbaa.struct !48
  %89 = getelementptr inbounds i8, ptr %86, i64 12
  store i32 1024, ptr %89, align 4, !tbaa.struct !49
  %90 = load ptr, ptr %3, align 8, !tbaa !37
  %91 = icmp eq ptr %90, %78
  br i1 %91, label %118, label %92

92:                                               ; preds = %87
  call void @_ZdlPv(ptr noundef %90) #23
  br label %118

93:                                               ; preds = %80
  %94 = landingpad { ptr, i32 }
          cleanup
  %95 = load ptr, ptr %3, align 8, !tbaa !37
  %96 = icmp eq ptr %95, %78
  br i1 %96, label %98, label %97

97:                                               ; preds = %93
  call void @_ZdlPv(ptr noundef %95) #23
  br label %98

98:                                               ; preds = %97, %93
  call void @llvm.lifetime.end.p0(i64 32, ptr nonnull %3) #20
  br label %119

99:                                               ; preds = %62, %53
  %100 = landingpad { ptr, i32 }
          cleanup
  br label %119

101:                                              ; preds = %58, %103
  %102 = phi i64 [ %104, %103 ], [ %57, %58 ]
  fence syncscope("singlethread") acq_rel
  br label %106

103:                                              ; preds = %106
  %104 = add i64 %102, -1
  %105 = icmp eq i64 %104, 0
  br i1 %105, label %62, label %101, !prof !29

106:                                              ; preds = %101, %106
  %107 = phi i64 [ 0, %101 ], [ %116, %106 ]
  call void @llvm.lifetime.start.p0(i64 1, ptr nonnull %6) #20
  %108 = load ptr, ptr %4, align 8, !tbaa !5
  %109 = getelementptr inbounds i8, ptr %108, i64 %107
  %110 = load ptr, ptr %5, align 8, !tbaa !5
  %111 = getelementptr inbounds i8, ptr %110, i64 %107
  %112 = load i8, ptr %109, align 1
  %113 = load i8, ptr %111, align 1
  %114 = icmp ult i8 %112, %113
  %115 = zext i1 %114 to i8
  store i8 %115, ptr %6, align 1, !tbaa !50
  call void asm sideeffect "", "=*r|m,0,~{memory},~{dirflag},~{fpsr},~{flags}"(ptr nonnull elementtype(i8) %6, i1 %114) #20, !srcloc !9
  call void @llvm.lifetime.end.p0(i64 1, ptr nonnull %6) #20
  %116 = add nuw nsw i64 %107, 1
  %117 = icmp eq i64 %116, 4096
  br i1 %117, label %103, label %106, !llvm.loop !65

118:                                              ; preds = %92, %87
  call void @llvm.lifetime.end.p0(i64 32, ptr nonnull %3) #20
  call void @llvm.lifetime.end.p0(i64 8, ptr nonnull %5) #20
  call void @llvm.lifetime.end.p0(i64 8, ptr nonnull %4) #20
  call void @_ZdlPv(ptr noundef nonnull %8) #23
  call void @_ZdlPv(ptr noundef nonnull %7) #23
  ret void

119:                                              ; preds = %99, %51, %98
  %120 = phi { ptr, i32 } [ %52, %51 ], [ %94, %98 ], [ %100, %99 ]
  call void @llvm.lifetime.end.p0(i64 8, ptr nonnull %5) #20
  call void @llvm.lifetime.end.p0(i64 8, ptr nonnull %4) #20
  call void @_ZdlPv(ptr noundef nonnull %8) #23
  br label %121

121:                                              ; preds = %119, %19
  %122 = phi { ptr, i32 } [ %120, %119 ], [ %20, %19 ]
  call void @_ZdlPv(ptr noundef nonnull %7) #23
  resume { ptr, i32 } %122
}

; Function Attrs: uwtable
define linkonce_odr dso_local void @_Z9BM_MemCmpILi1E15GreaterThanZero4NoneEvRN9benchmark5StateE(ptr noundef nonnull align 8 dereferenceable(144) %0) #6 comdat personality ptr @__gxx_personality_v0 {
  %2 = alloca i64, align 8
  %3 = alloca %"class.std::__cxx11::basic_string", align 8
  %4 = alloca ptr, align 8
  %5 = alloca ptr, align 8
  %6 = alloca i8, align 1
  %7 = tail call noalias noundef nonnull dereferenceable(4096) ptr @_Znwm(i64 noundef 4096) #19
  tail call void @llvm.memset.p0.i64(ptr noundef nonnull align 1 dereferenceable(4096) %7, i8 0, i64 4096, i1 false)
  %8 = invoke noalias noundef nonnull dereferenceable(4096) ptr @_Znwm(i64 noundef 4096) #19
          to label %9 unwind label %12

9:                                                ; preds = %1
  tail call void @llvm.memset.p0.i64(ptr noundef nonnull align 1 dereferenceable(4096) %8, i8 0, i64 4096, i1 false)
  call void @llvm.lifetime.start.p0(i64 8, ptr nonnull %4) #20
  store ptr %7, ptr %4, align 8, !tbaa !5
  call void @llvm.lifetime.start.p0(i64 8, ptr nonnull %5) #20
  store ptr %8, ptr %5, align 8, !tbaa !5
  %10 = tail call noundef i32 @_Z10RealMemCmpPKcS0_m(ptr noundef nonnull %7, ptr noundef nonnull %8, i64 noundef 1) #21
  %11 = icmp sgt i32 %10, 0
  br i1 %11, label %14, label %31

12:                                               ; preds = %1
  %13 = landingpad { ptr, i32 }
          cleanup
  br label %99

14:                                               ; preds = %9
  %15 = invoke noundef nonnull align 8 dereferenceable(8) ptr @_ZSt16__ostream_insertIcSt11char_traitsIcEERSt13basic_ostreamIT_T0_ES6_PKS3_l(ptr noundef nonnull align 8 dereferenceable(8) @_ZSt4cerr, ptr noundef nonnull @.str.337, i64 noundef 25)
          to label %16 unwind label %29

16:                                               ; preds = %14
  %17 = invoke noundef nonnull align 8 dereferenceable(8) ptr @_ZSt16__ostream_insertIcSt11char_traitsIcEERSt13basic_ostreamIT_T0_ES6_PKS3_l(ptr noundef nonnull align 8 dereferenceable(8) @_ZSt4cerr, ptr noundef nonnull @_ZN15GreaterThanZero8kDisplayE, i64 noundef 15)
          to label %18 unwind label %29

18:                                               ; preds = %16
  %19 = invoke noundef nonnull align 8 dereferenceable(8) ptr @_ZSt16__ostream_insertIcSt11char_traitsIcEERSt13basic_ostreamIT_T0_ES6_PKS3_l(ptr noundef nonnull align 8 dereferenceable(8) @_ZSt4cerr, ptr noundef nonnull @.str.338, i64 noundef 5)
          to label %20 unwind label %29

20:                                               ; preds = %18
  %21 = invoke noundef nonnull align 8 dereferenceable(8) ptr @_ZSt16__ostream_insertIcSt11char_traitsIcEERSt13basic_ostreamIT_T0_ES6_PKS3_l(ptr noundef nonnull align 8 dereferenceable(8) @_ZSt4cerr, ptr noundef nonnull @_ZN4None8kDisplayE, i64 noundef 4)
          to label %22 unwind label %29

22:                                               ; preds = %20
  %23 = invoke noundef nonnull align 8 dereferenceable(8) ptr @_ZSt16__ostream_insertIcSt11char_traitsIcEERSt13basic_ostreamIT_T0_ES6_PKS3_l(ptr noundef nonnull align 8 dereferenceable(8) @_ZSt4cerr, ptr noundef nonnull @.str.339, i64 noundef 7)
          to label %24 unwind label %29

24:                                               ; preds = %22
  %25 = invoke noundef nonnull align 8 dereferenceable(8) ptr @_ZNSolsEi(ptr noundef nonnull align 8 dereferenceable(8) @_ZSt4cerr, i32 noundef 1)
          to label %26 unwind label %29

26:                                               ; preds = %24
  %27 = invoke noundef nonnull align 8 dereferenceable(8) ptr @_ZSt4endlIcSt11char_traitsIcEERSt13basic_ostreamIT_T0_ES6_(ptr noundef nonnull align 8 dereferenceable(8) %25)
          to label %28 unwind label %29

28:                                               ; preds = %26
  tail call void @exit(i32 noundef 1) #22
  unreachable

29:                                               ; preds = %26, %22, %20, %18, %16, %14, %54, %24
  %30 = landingpad { ptr, i32 }
          cleanup
  br label %97

31:                                               ; preds = %9
  call void asm sideeffect "", "=*r|m,0,~{memory},~{dirflag},~{fpsr},~{flags}"(ptr nonnull elementtype(ptr) %4, ptr nonnull %7) #20, !srcloc !9
  call void asm sideeffect "", "=*r|m,0,~{memory},~{dirflag},~{fpsr},~{flags}"(ptr nonnull elementtype(ptr) %5, ptr nonnull %8) #20, !srcloc !9
  %32 = getelementptr inbounds %"class.benchmark::State", ptr %0, i64 0, i32 5
  %33 = load i8, ptr %32, align 2, !tbaa !10, !range !27, !noundef !28
  %34 = getelementptr inbounds %"class.benchmark::State", ptr %0, i64 0, i32 2
  %35 = load i64, ptr %34, align 8
  invoke void @_ZN9benchmark5State16StartKeepRunningEv(ptr noundef nonnull align 8 dereferenceable(144) %0)
          to label %36 unwind label %77

36:                                               ; preds = %31
  %37 = icmp ne i8 %33, 0
  %38 = icmp eq i64 %35, 0
  %39 = select i1 %37, i1 true, i1 %38
  br i1 %39, label %40, label %79, !prof !29

40:                                               ; preds = %81, %36
  invoke void @_ZN9benchmark5State17FinishKeepRunningEv(ptr noundef nonnull align 8 dereferenceable(144) %0)
          to label %41 unwind label %77

41:                                               ; preds = %40
  %42 = getelementptr inbounds %"class.benchmark::State", ptr %0, i64 0, i32 3
  %43 = load i8, ptr %42, align 8, !tbaa !30, !range !27, !noundef !28
  %44 = icmp eq i8 %43, 0
  br i1 %44, label %54, label %45, !prof !29

45:                                               ; preds = %41
  %46 = load i64, ptr %34, align 8, !tbaa !31
  %47 = load i64, ptr %0, align 8, !tbaa !32
  %48 = sub i64 %46, %47
  %49 = getelementptr inbounds %"class.benchmark::State", ptr %0, i64 0, i32 1
  %50 = load i64, ptr %49, align 8, !tbaa !33
  %51 = add i64 %48, %50
  %52 = shl i64 %51, 12
  %53 = sitofp i64 %52 to double
  br label %54

54:                                               ; preds = %41, %45
  %55 = phi double [ %53, %45 ], [ 0.000000e+00, %41 ]
  call void @llvm.lifetime.start.p0(i64 32, ptr nonnull %3) #20
  %56 = getelementptr inbounds %"class.std::__cxx11::basic_string", ptr %3, i64 0, i32 2
  store ptr %56, ptr %3, align 8, !tbaa !34
  call void @llvm.lifetime.start.p0(i64 8, ptr nonnull %2) #20
  store i64 16, ptr %2, align 8, !tbaa !36
  %57 = invoke noundef ptr @_ZNSt7__cxx1112basic_stringIcSt11char_traitsIcESaIcEE9_M_createERmm(ptr noundef nonnull align 8 dereferenceable(32) %3, ptr noundef nonnull align 8 dereferenceable(8) %2, i64 noundef 0)
          to label %58 unwind label %29

58:                                               ; preds = %54
  store ptr %57, ptr %3, align 8, !tbaa !37
  %59 = load i64, ptr %2, align 8, !tbaa !36
  store i64 %59, ptr %56, align 8, !tbaa !39
  call void @llvm.memcpy.p0.p0.i64(ptr noundef nonnull align 1 dereferenceable(16) %57, ptr noundef nonnull align 1 dereferenceable(16) @.str.341, i64 16, i1 false)
  %60 = getelementptr inbounds %"class.std::__cxx11::basic_string", ptr %3, i64 0, i32 1
  store i64 %59, ptr %60, align 8, !tbaa !40
  %61 = load ptr, ptr %3, align 8, !tbaa !37
  %62 = getelementptr inbounds i8, ptr %61, i64 %59
  store i8 0, ptr %62, align 1, !tbaa !39
  call void @llvm.lifetime.end.p0(i64 8, ptr nonnull %2) #20
  %63 = getelementptr inbounds %"class.benchmark::State", ptr %0, i64 0, i32 8
  %64 = invoke noundef nonnull align 8 dereferenceable(16) ptr @_ZNSt3mapINSt7__cxx1112basic_stringIcSt11char_traitsIcESaIcEEEN9benchmark7CounterESt4lessIS5_ESaISt4pairIKS5_S7_EEEixEOS5_(ptr noundef nonnull align 8 dereferenceable(48) %63, ptr noundef nonnull align 8 dereferenceable(32) %3)
          to label %65 unwind label %71

65:                                               ; preds = %58
  store double %55, ptr %64, align 8, !tbaa.struct !41
  %66 = getelementptr inbounds i8, ptr %64, i64 8
  store i32 1, ptr %66, align 8, !tbaa.struct !48
  %67 = getelementptr inbounds i8, ptr %64, i64 12
  store i32 1024, ptr %67, align 4, !tbaa.struct !49
  %68 = load ptr, ptr %3, align 8, !tbaa !37
  %69 = icmp eq ptr %68, %56
  br i1 %69, label %96, label %70

70:                                               ; preds = %65
  call void @_ZdlPv(ptr noundef %68) #23
  br label %96

71:                                               ; preds = %58
  %72 = landingpad { ptr, i32 }
          cleanup
  %73 = load ptr, ptr %3, align 8, !tbaa !37
  %74 = icmp eq ptr %73, %56
  br i1 %74, label %76, label %75

75:                                               ; preds = %71
  call void @_ZdlPv(ptr noundef %73) #23
  br label %76

76:                                               ; preds = %75, %71
  call void @llvm.lifetime.end.p0(i64 32, ptr nonnull %3) #20
  br label %97

77:                                               ; preds = %40, %31
  %78 = landingpad { ptr, i32 }
          cleanup
  br label %97

79:                                               ; preds = %36, %81
  %80 = phi i64 [ %82, %81 ], [ %35, %36 ]
  fence syncscope("singlethread") acq_rel
  br label %84

81:                                               ; preds = %84
  %82 = add i64 %80, -1
  %83 = icmp eq i64 %82, 0
  br i1 %83, label %40, label %79, !prof !29

84:                                               ; preds = %79, %84
  %85 = phi i64 [ 0, %79 ], [ %94, %84 ]
  call void @llvm.lifetime.start.p0(i64 1, ptr nonnull %6) #20
  %86 = load ptr, ptr %4, align 8, !tbaa !5
  %87 = getelementptr inbounds i8, ptr %86, i64 %85
  %88 = load ptr, ptr %5, align 8, !tbaa !5
  %89 = getelementptr inbounds i8, ptr %88, i64 %85
  %90 = load i8, ptr %87, align 1
  %91 = load i8, ptr %89, align 1
  %92 = icmp ugt i8 %90, %91
  %93 = zext i1 %92 to i8
  store i8 %93, ptr %6, align 1, !tbaa !50
  call void asm sideeffect "", "=*r|m,0,~{memory},~{dirflag},~{fpsr},~{flags}"(ptr nonnull elementtype(i8) %6, i1 %92) #20, !srcloc !9
  call void @llvm.lifetime.end.p0(i64 1, ptr nonnull %6) #20
  %94 = add nuw nsw i64 %85, 1
  %95 = icmp eq i64 %94, 4096
  br i1 %95, label %81, label %84, !llvm.loop !66

96:                                               ; preds = %70, %65
  call void @llvm.lifetime.end.p0(i64 32, ptr nonnull %3) #20
  call void @llvm.lifetime.end.p0(i64 8, ptr nonnull %5) #20
  call void @llvm.lifetime.end.p0(i64 8, ptr nonnull %4) #20
  call void @_ZdlPv(ptr noundef nonnull %8) #23
  call void @_ZdlPv(ptr noundef nonnull %7) #23
  ret void

97:                                               ; preds = %77, %29, %76
  %98 = phi { ptr, i32 } [ %30, %29 ], [ %72, %76 ], [ %78, %77 ]
  call void @llvm.lifetime.end.p0(i64 8, ptr nonnull %5) #20
  call void @llvm.lifetime.end.p0(i64 8, ptr nonnull %4) #20
  call void @_ZdlPv(ptr noundef nonnull %8) #23
  br label %99

99:                                               ; preds = %97, %12
  %100 = phi { ptr, i32 } [ %98, %97 ], [ %13, %12 ]
  call void @_ZdlPv(ptr noundef nonnull %7) #23
  resume { ptr, i32 } %100
}

; Function Attrs: uwtable
define linkonce_odr dso_local void @_Z9BM_MemCmpILi1E15GreaterThanZero5FirstEvRN9benchmark5StateE(ptr noundef nonnull align 8 dereferenceable(144) %0) #6 comdat personality ptr @__gxx_personality_v0 {
  %2 = alloca i64, align 8
  %3 = alloca %"class.std::__cxx11::basic_string", align 8
  %4 = alloca ptr, align 8
  %5 = alloca ptr, align 8
  %6 = alloca i8, align 1
  %7 = tail call noalias noundef nonnull dereferenceable(4096) ptr @_Znwm(i64 noundef 4096) #19
  tail call void @llvm.memset.p0.i64(ptr noundef nonnull align 1 dereferenceable(4096) %7, i8 0, i64 4096, i1 false)
  %8 = invoke noalias noundef nonnull dereferenceable(4096) ptr @_Znwm(i64 noundef 4096) #19
          to label %9 unwind label %19

9:                                                ; preds = %1
  tail call void @llvm.memset.p0.i64(ptr noundef nonnull align 1 dereferenceable(4096) %8, i8 0, i64 4096, i1 false)
  call void @llvm.lifetime.start.p0(i64 8, ptr nonnull %4) #20
  store ptr %7, ptr %4, align 8, !tbaa !5
  call void @llvm.lifetime.start.p0(i64 8, ptr nonnull %5) #20
  store ptr %8, ptr %5, align 8, !tbaa !5
  br label %21

10:                                               ; preds = %21
  %11 = load ptr, ptr %4, align 8, !tbaa !5
  %12 = load ptr, ptr %5, align 8, !tbaa !5
  %13 = tail call noundef i32 @_Z10RealMemCmpPKcS0_m(ptr noundef %11, ptr noundef %12, i64 noundef 1) #21
  %14 = icmp sgt i32 %13, 0
  %15 = load i8, ptr %11, align 1
  %16 = load i8, ptr %12, align 1
  %17 = icmp ugt i8 %15, %16
  %18 = xor i1 %14, %17
  br i1 %18, label %36, label %53

19:                                               ; preds = %1
  %20 = landingpad { ptr, i32 }
          cleanup
  br label %121

21:                                               ; preds = %21, %9
  %22 = phi i64 [ 0, %9 ], [ %34, %21 ]
  %23 = load ptr, ptr %4, align 8, !tbaa !5
  %24 = getelementptr inbounds i8, ptr %23, i64 %22
  store i8 -1, ptr %24, align 1, !tbaa !39
  %25 = or i64 %22, 1
  %26 = load ptr, ptr %4, align 8, !tbaa !5
  %27 = getelementptr inbounds i8, ptr %26, i64 %25
  store i8 -1, ptr %27, align 1, !tbaa !39
  %28 = or i64 %22, 2
  %29 = load ptr, ptr %4, align 8, !tbaa !5
  %30 = getelementptr inbounds i8, ptr %29, i64 %28
  store i8 -1, ptr %30, align 1, !tbaa !39
  %31 = or i64 %22, 3
  %32 = load ptr, ptr %4, align 8, !tbaa !5
  %33 = getelementptr inbounds i8, ptr %32, i64 %31
  store i8 -1, ptr %33, align 1, !tbaa !39
  %34 = add nuw nsw i64 %22, 4
  %35 = icmp eq i64 %34, 4096
  br i1 %35, label %10, label %21, !llvm.loop !67

36:                                               ; preds = %10
  %37 = invoke noundef nonnull align 8 dereferenceable(8) ptr @_ZSt16__ostream_insertIcSt11char_traitsIcEERSt13basic_ostreamIT_T0_ES6_PKS3_l(ptr noundef nonnull align 8 dereferenceable(8) @_ZSt4cerr, ptr noundef nonnull @.str.337, i64 noundef 25)
          to label %38 unwind label %51

38:                                               ; preds = %36
  %39 = invoke noundef nonnull align 8 dereferenceable(8) ptr @_ZSt16__ostream_insertIcSt11char_traitsIcEERSt13basic_ostreamIT_T0_ES6_PKS3_l(ptr noundef nonnull align 8 dereferenceable(8) @_ZSt4cerr, ptr noundef nonnull @_ZN15GreaterThanZero8kDisplayE, i64 noundef 15)
          to label %40 unwind label %51

40:                                               ; preds = %38
  %41 = invoke noundef nonnull align 8 dereferenceable(8) ptr @_ZSt16__ostream_insertIcSt11char_traitsIcEERSt13basic_ostreamIT_T0_ES6_PKS3_l(ptr noundef nonnull align 8 dereferenceable(8) @_ZSt4cerr, ptr noundef nonnull @.str.338, i64 noundef 5)
          to label %42 unwind label %51

42:                                               ; preds = %40
  %43 = invoke noundef nonnull align 8 dereferenceable(8) ptr @_ZSt16__ostream_insertIcSt11char_traitsIcEERSt13basic_ostreamIT_T0_ES6_PKS3_l(ptr noundef nonnull align 8 dereferenceable(8) @_ZSt4cerr, ptr noundef nonnull @_ZN5First8kDisplayE, i64 noundef 5)
          to label %44 unwind label %51

44:                                               ; preds = %42
  %45 = invoke noundef nonnull align 8 dereferenceable(8) ptr @_ZSt16__ostream_insertIcSt11char_traitsIcEERSt13basic_ostreamIT_T0_ES6_PKS3_l(ptr noundef nonnull align 8 dereferenceable(8) @_ZSt4cerr, ptr noundef nonnull @.str.339, i64 noundef 7)
          to label %46 unwind label %51

46:                                               ; preds = %44
  %47 = invoke noundef nonnull align 8 dereferenceable(8) ptr @_ZNSolsEi(ptr noundef nonnull align 8 dereferenceable(8) @_ZSt4cerr, i32 noundef 1)
          to label %48 unwind label %51

48:                                               ; preds = %46
  %49 = invoke noundef nonnull align 8 dereferenceable(8) ptr @_ZSt4endlIcSt11char_traitsIcEERSt13basic_ostreamIT_T0_ES6_(ptr noundef nonnull align 8 dereferenceable(8) %47)
          to label %50 unwind label %51

50:                                               ; preds = %48
  tail call void @exit(i32 noundef 1) #22
  unreachable

51:                                               ; preds = %48, %44, %42, %40, %38, %36, %76, %46
  %52 = landingpad { ptr, i32 }
          cleanup
  br label %119

53:                                               ; preds = %10
  call void asm sideeffect "", "=*r|m,0,~{memory},~{dirflag},~{fpsr},~{flags}"(ptr nonnull elementtype(ptr) %4, ptr nonnull %11) #20, !srcloc !9
  call void asm sideeffect "", "=*r|m,0,~{memory},~{dirflag},~{fpsr},~{flags}"(ptr nonnull elementtype(ptr) %5, ptr nonnull %12) #20, !srcloc !9
  %54 = getelementptr inbounds %"class.benchmark::State", ptr %0, i64 0, i32 5
  %55 = load i8, ptr %54, align 2, !tbaa !10, !range !27, !noundef !28
  %56 = getelementptr inbounds %"class.benchmark::State", ptr %0, i64 0, i32 2
  %57 = load i64, ptr %56, align 8
  invoke void @_ZN9benchmark5State16StartKeepRunningEv(ptr noundef nonnull align 8 dereferenceable(144) %0)
          to label %58 unwind label %99

58:                                               ; preds = %53
  %59 = icmp ne i8 %55, 0
  %60 = icmp eq i64 %57, 0
  %61 = select i1 %59, i1 true, i1 %60
  br i1 %61, label %62, label %101, !prof !29

62:                                               ; preds = %103, %58
  invoke void @_ZN9benchmark5State17FinishKeepRunningEv(ptr noundef nonnull align 8 dereferenceable(144) %0)
          to label %63 unwind label %99

63:                                               ; preds = %62
  %64 = getelementptr inbounds %"class.benchmark::State", ptr %0, i64 0, i32 3
  %65 = load i8, ptr %64, align 8, !tbaa !30, !range !27, !noundef !28
  %66 = icmp eq i8 %65, 0
  br i1 %66, label %76, label %67, !prof !29

67:                                               ; preds = %63
  %68 = load i64, ptr %56, align 8, !tbaa !31
  %69 = load i64, ptr %0, align 8, !tbaa !32
  %70 = sub i64 %68, %69
  %71 = getelementptr inbounds %"class.benchmark::State", ptr %0, i64 0, i32 1
  %72 = load i64, ptr %71, align 8, !tbaa !33
  %73 = add i64 %70, %72
  %74 = shl i64 %73, 12
  %75 = sitofp i64 %74 to double
  br label %76

76:                                               ; preds = %63, %67
  %77 = phi double [ %75, %67 ], [ 0.000000e+00, %63 ]
  call void @llvm.lifetime.start.p0(i64 32, ptr nonnull %3) #20
  %78 = getelementptr inbounds %"class.std::__cxx11::basic_string", ptr %3, i64 0, i32 2
  store ptr %78, ptr %3, align 8, !tbaa !34
  call void @llvm.lifetime.start.p0(i64 8, ptr nonnull %2) #20
  store i64 16, ptr %2, align 8, !tbaa !36
  %79 = invoke noundef ptr @_ZNSt7__cxx1112basic_stringIcSt11char_traitsIcESaIcEE9_M_createERmm(ptr noundef nonnull align 8 dereferenceable(32) %3, ptr noundef nonnull align 8 dereferenceable(8) %2, i64 noundef 0)
          to label %80 unwind label %51

80:                                               ; preds = %76
  store ptr %79, ptr %3, align 8, !tbaa !37
  %81 = load i64, ptr %2, align 8, !tbaa !36
  store i64 %81, ptr %78, align 8, !tbaa !39
  call void @llvm.memcpy.p0.p0.i64(ptr noundef nonnull align 1 dereferenceable(16) %79, ptr noundef nonnull align 1 dereferenceable(16) @.str.341, i64 16, i1 false)
  %82 = getelementptr inbounds %"class.std::__cxx11::basic_string", ptr %3, i64 0, i32 1
  store i64 %81, ptr %82, align 8, !tbaa !40
  %83 = load ptr, ptr %3, align 8, !tbaa !37
  %84 = getelementptr inbounds i8, ptr %83, i64 %81
  store i8 0, ptr %84, align 1, !tbaa !39
  call void @llvm.lifetime.end.p0(i64 8, ptr nonnull %2) #20
  %85 = getelementptr inbounds %"class.benchmark::State", ptr %0, i64 0, i32 8
  %86 = invoke noundef nonnull align 8 dereferenceable(16) ptr @_ZNSt3mapINSt7__cxx1112basic_stringIcSt11char_traitsIcESaIcEEEN9benchmark7CounterESt4lessIS5_ESaISt4pairIKS5_S7_EEEixEOS5_(ptr noundef nonnull align 8 dereferenceable(48) %85, ptr noundef nonnull align 8 dereferenceable(32) %3)
          to label %87 unwind label %93

87:                                               ; preds = %80
  store double %77, ptr %86, align 8, !tbaa.struct !41
  %88 = getelementptr inbounds i8, ptr %86, i64 8
  store i32 1, ptr %88, align 8, !tbaa.struct !48
  %89 = getelementptr inbounds i8, ptr %86, i64 12
  store i32 1024, ptr %89, align 4, !tbaa.struct !49
  %90 = load ptr, ptr %3, align 8, !tbaa !37
  %91 = icmp eq ptr %90, %78
  br i1 %91, label %118, label %92

92:                                               ; preds = %87
  call void @_ZdlPv(ptr noundef %90) #23
  br label %118

93:                                               ; preds = %80
  %94 = landingpad { ptr, i32 }
          cleanup
  %95 = load ptr, ptr %3, align 8, !tbaa !37
  %96 = icmp eq ptr %95, %78
  br i1 %96, label %98, label %97

97:                                               ; preds = %93
  call void @_ZdlPv(ptr noundef %95) #23
  br label %98

98:                                               ; preds = %97, %93
  call void @llvm.lifetime.end.p0(i64 32, ptr nonnull %3) #20
  br label %119

99:                                               ; preds = %62, %53
  %100 = landingpad { ptr, i32 }
          cleanup
  br label %119

101:                                              ; preds = %58, %103
  %102 = phi i64 [ %104, %103 ], [ %57, %58 ]
  fence syncscope("singlethread") acq_rel
  br label %106

103:                                              ; preds = %106
  %104 = add i64 %102, -1
  %105 = icmp eq i64 %104, 0
  br i1 %105, label %62, label %101, !prof !29

106:                                              ; preds = %101, %106
  %107 = phi i64 [ 0, %101 ], [ %116, %106 ]
  call void @llvm.lifetime.start.p0(i64 1, ptr nonnull %6) #20
  %108 = load ptr, ptr %4, align 8, !tbaa !5
  %109 = getelementptr inbounds i8, ptr %108, i64 %107
  %110 = load ptr, ptr %5, align 8, !tbaa !5
  %111 = getelementptr inbounds i8, ptr %110, i64 %107
  %112 = load i8, ptr %109, align 1
  %113 = load i8, ptr %111, align 1
  %114 = icmp ugt i8 %112, %113
  %115 = zext i1 %114 to i8
  store i8 %115, ptr %6, align 1, !tbaa !50
  call void asm sideeffect "", "=*r|m,0,~{memory},~{dirflag},~{fpsr},~{flags}"(ptr nonnull elementtype(i8) %6, i1 %114) #20, !srcloc !9
  call void @llvm.lifetime.end.p0(i64 1, ptr nonnull %6) #20
  %116 = add nuw nsw i64 %107, 1
  %117 = icmp eq i64 %116, 4096
  br i1 %117, label %103, label %106, !llvm.loop !68

118:                                              ; preds = %92, %87
  call void @llvm.lifetime.end.p0(i64 32, ptr nonnull %3) #20
  call void @llvm.lifetime.end.p0(i64 8, ptr nonnull %5) #20
  call void @llvm.lifetime.end.p0(i64 8, ptr nonnull %4) #20
  call void @_ZdlPv(ptr noundef nonnull %8) #23
  call void @_ZdlPv(ptr noundef nonnull %7) #23
  ret void

119:                                              ; preds = %99, %51, %98
  %120 = phi { ptr, i32 } [ %52, %51 ], [ %94, %98 ], [ %100, %99 ]
  call void @llvm.lifetime.end.p0(i64 8, ptr nonnull %5) #20
  call void @llvm.lifetime.end.p0(i64 8, ptr nonnull %4) #20
  call void @_ZdlPv(ptr noundef nonnull %8) #23
  br label %121

121:                                              ; preds = %119, %19
  %122 = phi { ptr, i32 } [ %120, %119 ], [ %20, %19 ]
  call void @_ZdlPv(ptr noundef nonnull %7) #23
  resume { ptr, i32 } %122
}

; Function Attrs: uwtable
define linkonce_odr dso_local void @_Z9BM_MemCmpILi1E15GreaterThanZero3MidEvRN9benchmark5StateE(ptr noundef nonnull align 8 dereferenceable(144) %0) #6 comdat personality ptr @__gxx_personality_v0 {
  %2 = alloca i64, align 8
  %3 = alloca %"class.std::__cxx11::basic_string", align 8
  %4 = alloca ptr, align 8
  %5 = alloca ptr, align 8
  %6 = alloca i8, align 1
  %7 = tail call noalias noundef nonnull dereferenceable(4096) ptr @_Znwm(i64 noundef 4096) #19
  tail call void @llvm.memset.p0.i64(ptr noundef nonnull align 1 dereferenceable(4096) %7, i8 0, i64 4096, i1 false)
  %8 = invoke noalias noundef nonnull dereferenceable(4096) ptr @_Znwm(i64 noundef 4096) #19
          to label %9 unwind label %19

9:                                                ; preds = %1
  tail call void @llvm.memset.p0.i64(ptr noundef nonnull align 1 dereferenceable(4096) %8, i8 0, i64 4096, i1 false)
  call void @llvm.lifetime.start.p0(i64 8, ptr nonnull %4) #20
  store ptr %7, ptr %4, align 8, !tbaa !5
  call void @llvm.lifetime.start.p0(i64 8, ptr nonnull %5) #20
  store ptr %8, ptr %5, align 8, !tbaa !5
  br label %21

10:                                               ; preds = %21
  %11 = load ptr, ptr %4, align 8, !tbaa !5
  %12 = load ptr, ptr %5, align 8, !tbaa !5
  %13 = tail call noundef i32 @_Z10RealMemCmpPKcS0_m(ptr noundef %11, ptr noundef %12, i64 noundef 1) #21
  %14 = icmp sgt i32 %13, 0
  %15 = load i8, ptr %11, align 1
  %16 = load i8, ptr %12, align 1
  %17 = icmp ugt i8 %15, %16
  %18 = xor i1 %14, %17
  br i1 %18, label %36, label %53

19:                                               ; preds = %1
  %20 = landingpad { ptr, i32 }
          cleanup
  br label %121

21:                                               ; preds = %21, %9
  %22 = phi i64 [ 0, %9 ], [ %34, %21 ]
  %23 = load ptr, ptr %4, align 8, !tbaa !5
  %24 = getelementptr inbounds i8, ptr %23, i64 %22
  store i8 -1, ptr %24, align 1, !tbaa !39
  %25 = or i64 %22, 1
  %26 = load ptr, ptr %4, align 8, !tbaa !5
  %27 = getelementptr inbounds i8, ptr %26, i64 %25
  store i8 -1, ptr %27, align 1, !tbaa !39
  %28 = or i64 %22, 2
  %29 = load ptr, ptr %4, align 8, !tbaa !5
  %30 = getelementptr inbounds i8, ptr %29, i64 %28
  store i8 -1, ptr %30, align 1, !tbaa !39
  %31 = or i64 %22, 3
  %32 = load ptr, ptr %4, align 8, !tbaa !5
  %33 = getelementptr inbounds i8, ptr %32, i64 %31
  store i8 -1, ptr %33, align 1, !tbaa !39
  %34 = add nuw nsw i64 %22, 4
  %35 = icmp eq i64 %34, 4096
  br i1 %35, label %10, label %21, !llvm.loop !69

36:                                               ; preds = %10
  %37 = invoke noundef nonnull align 8 dereferenceable(8) ptr @_ZSt16__ostream_insertIcSt11char_traitsIcEERSt13basic_ostreamIT_T0_ES6_PKS3_l(ptr noundef nonnull align 8 dereferenceable(8) @_ZSt4cerr, ptr noundef nonnull @.str.337, i64 noundef 25)
          to label %38 unwind label %51

38:                                               ; preds = %36
  %39 = invoke noundef nonnull align 8 dereferenceable(8) ptr @_ZSt16__ostream_insertIcSt11char_traitsIcEERSt13basic_ostreamIT_T0_ES6_PKS3_l(ptr noundef nonnull align 8 dereferenceable(8) @_ZSt4cerr, ptr noundef nonnull @_ZN15GreaterThanZero8kDisplayE, i64 noundef 15)
          to label %40 unwind label %51

40:                                               ; preds = %38
  %41 = invoke noundef nonnull align 8 dereferenceable(8) ptr @_ZSt16__ostream_insertIcSt11char_traitsIcEERSt13basic_ostreamIT_T0_ES6_PKS3_l(ptr noundef nonnull align 8 dereferenceable(8) @_ZSt4cerr, ptr noundef nonnull @.str.338, i64 noundef 5)
          to label %42 unwind label %51

42:                                               ; preds = %40
  %43 = invoke noundef nonnull align 8 dereferenceable(8) ptr @_ZSt16__ostream_insertIcSt11char_traitsIcEERSt13basic_ostreamIT_T0_ES6_PKS3_l(ptr noundef nonnull align 8 dereferenceable(8) @_ZSt4cerr, ptr noundef nonnull @_ZN3Mid8kDisplayE, i64 noundef 3)
          to label %44 unwind label %51

44:                                               ; preds = %42
  %45 = invoke noundef nonnull align 8 dereferenceable(8) ptr @_ZSt16__ostream_insertIcSt11char_traitsIcEERSt13basic_ostreamIT_T0_ES6_PKS3_l(ptr noundef nonnull align 8 dereferenceable(8) @_ZSt4cerr, ptr noundef nonnull @.str.339, i64 noundef 7)
          to label %46 unwind label %51

46:                                               ; preds = %44
  %47 = invoke noundef nonnull align 8 dereferenceable(8) ptr @_ZNSolsEi(ptr noundef nonnull align 8 dereferenceable(8) @_ZSt4cerr, i32 noundef 1)
          to label %48 unwind label %51

48:                                               ; preds = %46
  %49 = invoke noundef nonnull align 8 dereferenceable(8) ptr @_ZSt4endlIcSt11char_traitsIcEERSt13basic_ostreamIT_T0_ES6_(ptr noundef nonnull align 8 dereferenceable(8) %47)
          to label %50 unwind label %51

50:                                               ; preds = %48
  tail call void @exit(i32 noundef 1) #22
  unreachable

51:                                               ; preds = %48, %44, %42, %40, %38, %36, %76, %46
  %52 = landingpad { ptr, i32 }
          cleanup
  br label %119

53:                                               ; preds = %10
  call void asm sideeffect "", "=*r|m,0,~{memory},~{dirflag},~{fpsr},~{flags}"(ptr nonnull elementtype(ptr) %4, ptr nonnull %11) #20, !srcloc !9
  call void asm sideeffect "", "=*r|m,0,~{memory},~{dirflag},~{fpsr},~{flags}"(ptr nonnull elementtype(ptr) %5, ptr nonnull %12) #20, !srcloc !9
  %54 = getelementptr inbounds %"class.benchmark::State", ptr %0, i64 0, i32 5
  %55 = load i8, ptr %54, align 2, !tbaa !10, !range !27, !noundef !28
  %56 = getelementptr inbounds %"class.benchmark::State", ptr %0, i64 0, i32 2
  %57 = load i64, ptr %56, align 8
  invoke void @_ZN9benchmark5State16StartKeepRunningEv(ptr noundef nonnull align 8 dereferenceable(144) %0)
          to label %58 unwind label %99

58:                                               ; preds = %53
  %59 = icmp ne i8 %55, 0
  %60 = icmp eq i64 %57, 0
  %61 = select i1 %59, i1 true, i1 %60
  br i1 %61, label %62, label %101, !prof !29

62:                                               ; preds = %103, %58
  invoke void @_ZN9benchmark5State17FinishKeepRunningEv(ptr noundef nonnull align 8 dereferenceable(144) %0)
          to label %63 unwind label %99

63:                                               ; preds = %62
  %64 = getelementptr inbounds %"class.benchmark::State", ptr %0, i64 0, i32 3
  %65 = load i8, ptr %64, align 8, !tbaa !30, !range !27, !noundef !28
  %66 = icmp eq i8 %65, 0
  br i1 %66, label %76, label %67, !prof !29

67:                                               ; preds = %63
  %68 = load i64, ptr %56, align 8, !tbaa !31
  %69 = load i64, ptr %0, align 8, !tbaa !32
  %70 = sub i64 %68, %69
  %71 = getelementptr inbounds %"class.benchmark::State", ptr %0, i64 0, i32 1
  %72 = load i64, ptr %71, align 8, !tbaa !33
  %73 = add i64 %70, %72
  %74 = shl i64 %73, 12
  %75 = sitofp i64 %74 to double
  br label %76

76:                                               ; preds = %63, %67
  %77 = phi double [ %75, %67 ], [ 0.000000e+00, %63 ]
  call void @llvm.lifetime.start.p0(i64 32, ptr nonnull %3) #20
  %78 = getelementptr inbounds %"class.std::__cxx11::basic_string", ptr %3, i64 0, i32 2
  store ptr %78, ptr %3, align 8, !tbaa !34
  call void @llvm.lifetime.start.p0(i64 8, ptr nonnull %2) #20
  store i64 16, ptr %2, align 8, !tbaa !36
  %79 = invoke noundef ptr @_ZNSt7__cxx1112basic_stringIcSt11char_traitsIcESaIcEE9_M_createERmm(ptr noundef nonnull align 8 dereferenceable(32) %3, ptr noundef nonnull align 8 dereferenceable(8) %2, i64 noundef 0)
          to label %80 unwind label %51

80:                                               ; preds = %76
  store ptr %79, ptr %3, align 8, !tbaa !37
  %81 = load i64, ptr %2, align 8, !tbaa !36
  store i64 %81, ptr %78, align 8, !tbaa !39
  call void @llvm.memcpy.p0.p0.i64(ptr noundef nonnull align 1 dereferenceable(16) %79, ptr noundef nonnull align 1 dereferenceable(16) @.str.341, i64 16, i1 false)
  %82 = getelementptr inbounds %"class.std::__cxx11::basic_string", ptr %3, i64 0, i32 1
  store i64 %81, ptr %82, align 8, !tbaa !40
  %83 = load ptr, ptr %3, align 8, !tbaa !37
  %84 = getelementptr inbounds i8, ptr %83, i64 %81
  store i8 0, ptr %84, align 1, !tbaa !39
  call void @llvm.lifetime.end.p0(i64 8, ptr nonnull %2) #20
  %85 = getelementptr inbounds %"class.benchmark::State", ptr %0, i64 0, i32 8
  %86 = invoke noundef nonnull align 8 dereferenceable(16) ptr @_ZNSt3mapINSt7__cxx1112basic_stringIcSt11char_traitsIcESaIcEEEN9benchmark7CounterESt4lessIS5_ESaISt4pairIKS5_S7_EEEixEOS5_(ptr noundef nonnull align 8 dereferenceable(48) %85, ptr noundef nonnull align 8 dereferenceable(32) %3)
          to label %87 unwind label %93

87:                                               ; preds = %80
  store double %77, ptr %86, align 8, !tbaa.struct !41
  %88 = getelementptr inbounds i8, ptr %86, i64 8
  store i32 1, ptr %88, align 8, !tbaa.struct !48
  %89 = getelementptr inbounds i8, ptr %86, i64 12
  store i32 1024, ptr %89, align 4, !tbaa.struct !49
  %90 = load ptr, ptr %3, align 8, !tbaa !37
  %91 = icmp eq ptr %90, %78
  br i1 %91, label %118, label %92

92:                                               ; preds = %87
  call void @_ZdlPv(ptr noundef %90) #23
  br label %118

93:                                               ; preds = %80
  %94 = landingpad { ptr, i32 }
          cleanup
  %95 = load ptr, ptr %3, align 8, !tbaa !37
  %96 = icmp eq ptr %95, %78
  br i1 %96, label %98, label %97

97:                                               ; preds = %93
  call void @_ZdlPv(ptr noundef %95) #23
  br label %98

98:                                               ; preds = %97, %93
  call void @llvm.lifetime.end.p0(i64 32, ptr nonnull %3) #20
  br label %119

99:                                               ; preds = %62, %53
  %100 = landingpad { ptr, i32 }
          cleanup
  br label %119

101:                                              ; preds = %58, %103
  %102 = phi i64 [ %104, %103 ], [ %57, %58 ]
  fence syncscope("singlethread") acq_rel
  br label %106

103:                                              ; preds = %106
  %104 = add i64 %102, -1
  %105 = icmp eq i64 %104, 0
  br i1 %105, label %62, label %101, !prof !29

106:                                              ; preds = %101, %106
  %107 = phi i64 [ 0, %101 ], [ %116, %106 ]
  call void @llvm.lifetime.start.p0(i64 1, ptr nonnull %6) #20
  %108 = load ptr, ptr %4, align 8, !tbaa !5
  %109 = getelementptr inbounds i8, ptr %108, i64 %107
  %110 = load ptr, ptr %5, align 8, !tbaa !5
  %111 = getelementptr inbounds i8, ptr %110, i64 %107
  %112 = load i8, ptr %109, align 1
  %113 = load i8, ptr %111, align 1
  %114 = icmp ugt i8 %112, %113
  %115 = zext i1 %114 to i8
  store i8 %115, ptr %6, align 1, !tbaa !50
  call void asm sideeffect "", "=*r|m,0,~{memory},~{dirflag},~{fpsr},~{flags}"(ptr nonnull elementtype(i8) %6, i1 %114) #20, !srcloc !9
  call void @llvm.lifetime.end.p0(i64 1, ptr nonnull %6) #20
  %116 = add nuw nsw i64 %107, 1
  %117 = icmp eq i64 %116, 4096
  br i1 %117, label %103, label %106, !llvm.loop !70

118:                                              ; preds = %92, %87
  call void @llvm.lifetime.end.p0(i64 32, ptr nonnull %3) #20
  call void @llvm.lifetime.end.p0(i64 8, ptr nonnull %5) #20
  call void @llvm.lifetime.end.p0(i64 8, ptr nonnull %4) #20
  call void @_ZdlPv(ptr noundef nonnull %8) #23
  call void @_ZdlPv(ptr noundef nonnull %7) #23
  ret void

119:                                              ; preds = %99, %51, %98
  %120 = phi { ptr, i32 } [ %52, %51 ], [ %94, %98 ], [ %100, %99 ]
  call void @llvm.lifetime.end.p0(i64 8, ptr nonnull %5) #20
  call void @llvm.lifetime.end.p0(i64 8, ptr nonnull %4) #20
  call void @_ZdlPv(ptr noundef nonnull %8) #23
  br label %121

121:                                              ; preds = %119, %19
  %122 = phi { ptr, i32 } [ %120, %119 ], [ %20, %19 ]
  call void @_ZdlPv(ptr noundef nonnull %7) #23
  resume { ptr, i32 } %122
}

; Function Attrs: uwtable
define linkonce_odr dso_local void @_Z9BM_MemCmpILi1E15GreaterThanZero4LastEvRN9benchmark5StateE(ptr noundef nonnull align 8 dereferenceable(144) %0) #6 comdat personality ptr @__gxx_personality_v0 {
  %2 = alloca i64, align 8
  %3 = alloca %"class.std::__cxx11::basic_string", align 8
  %4 = alloca ptr, align 8
  %5 = alloca ptr, align 8
  %6 = alloca i8, align 1
  %7 = tail call noalias noundef nonnull dereferenceable(4096) ptr @_Znwm(i64 noundef 4096) #19
  tail call void @llvm.memset.p0.i64(ptr noundef nonnull align 1 dereferenceable(4096) %7, i8 0, i64 4096, i1 false)
  %8 = invoke noalias noundef nonnull dereferenceable(4096) ptr @_Znwm(i64 noundef 4096) #19
          to label %9 unwind label %19

9:                                                ; preds = %1
  tail call void @llvm.memset.p0.i64(ptr noundef nonnull align 1 dereferenceable(4096) %8, i8 0, i64 4096, i1 false)
  call void @llvm.lifetime.start.p0(i64 8, ptr nonnull %4) #20
  store ptr %7, ptr %4, align 8, !tbaa !5
  call void @llvm.lifetime.start.p0(i64 8, ptr nonnull %5) #20
  store ptr %8, ptr %5, align 8, !tbaa !5
  br label %21

10:                                               ; preds = %21
  %11 = load ptr, ptr %4, align 8, !tbaa !5
  %12 = load ptr, ptr %5, align 8, !tbaa !5
  %13 = tail call noundef i32 @_Z10RealMemCmpPKcS0_m(ptr noundef %11, ptr noundef %12, i64 noundef 1) #21
  %14 = icmp sgt i32 %13, 0
  %15 = load i8, ptr %11, align 1
  %16 = load i8, ptr %12, align 1
  %17 = icmp ugt i8 %15, %16
  %18 = xor i1 %14, %17
  br i1 %18, label %36, label %53

19:                                               ; preds = %1
  %20 = landingpad { ptr, i32 }
          cleanup
  br label %121

21:                                               ; preds = %21, %9
  %22 = phi i64 [ 0, %9 ], [ %34, %21 ]
  %23 = load ptr, ptr %4, align 8, !tbaa !5
  %24 = getelementptr inbounds i8, ptr %23, i64 %22
  store i8 -1, ptr %24, align 1, !tbaa !39
  %25 = or i64 %22, 1
  %26 = load ptr, ptr %4, align 8, !tbaa !5
  %27 = getelementptr inbounds i8, ptr %26, i64 %25
  store i8 -1, ptr %27, align 1, !tbaa !39
  %28 = or i64 %22, 2
  %29 = load ptr, ptr %4, align 8, !tbaa !5
  %30 = getelementptr inbounds i8, ptr %29, i64 %28
  store i8 -1, ptr %30, align 1, !tbaa !39
  %31 = or i64 %22, 3
  %32 = load ptr, ptr %4, align 8, !tbaa !5
  %33 = getelementptr inbounds i8, ptr %32, i64 %31
  store i8 -1, ptr %33, align 1, !tbaa !39
  %34 = add nuw nsw i64 %22, 4
  %35 = icmp eq i64 %34, 4096
  br i1 %35, label %10, label %21, !llvm.loop !71

36:                                               ; preds = %10
  %37 = invoke noundef nonnull align 8 dereferenceable(8) ptr @_ZSt16__ostream_insertIcSt11char_traitsIcEERSt13basic_ostreamIT_T0_ES6_PKS3_l(ptr noundef nonnull align 8 dereferenceable(8) @_ZSt4cerr, ptr noundef nonnull @.str.337, i64 noundef 25)
          to label %38 unwind label %51

38:                                               ; preds = %36
  %39 = invoke noundef nonnull align 8 dereferenceable(8) ptr @_ZSt16__ostream_insertIcSt11char_traitsIcEERSt13basic_ostreamIT_T0_ES6_PKS3_l(ptr noundef nonnull align 8 dereferenceable(8) @_ZSt4cerr, ptr noundef nonnull @_ZN15GreaterThanZero8kDisplayE, i64 noundef 15)
          to label %40 unwind label %51

40:                                               ; preds = %38
  %41 = invoke noundef nonnull align 8 dereferenceable(8) ptr @_ZSt16__ostream_insertIcSt11char_traitsIcEERSt13basic_ostreamIT_T0_ES6_PKS3_l(ptr noundef nonnull align 8 dereferenceable(8) @_ZSt4cerr, ptr noundef nonnull @.str.338, i64 noundef 5)
          to label %42 unwind label %51

42:                                               ; preds = %40
  %43 = invoke noundef nonnull align 8 dereferenceable(8) ptr @_ZSt16__ostream_insertIcSt11char_traitsIcEERSt13basic_ostreamIT_T0_ES6_PKS3_l(ptr noundef nonnull align 8 dereferenceable(8) @_ZSt4cerr, ptr noundef nonnull @_ZN4Last8kDisplayE, i64 noundef 4)
          to label %44 unwind label %51

44:                                               ; preds = %42
  %45 = invoke noundef nonnull align 8 dereferenceable(8) ptr @_ZSt16__ostream_insertIcSt11char_traitsIcEERSt13basic_ostreamIT_T0_ES6_PKS3_l(ptr noundef nonnull align 8 dereferenceable(8) @_ZSt4cerr, ptr noundef nonnull @.str.339, i64 noundef 7)
          to label %46 unwind label %51

46:                                               ; preds = %44
  %47 = invoke noundef nonnull align 8 dereferenceable(8) ptr @_ZNSolsEi(ptr noundef nonnull align 8 dereferenceable(8) @_ZSt4cerr, i32 noundef 1)
          to label %48 unwind label %51

48:                                               ; preds = %46
  %49 = invoke noundef nonnull align 8 dereferenceable(8) ptr @_ZSt4endlIcSt11char_traitsIcEERSt13basic_ostreamIT_T0_ES6_(ptr noundef nonnull align 8 dereferenceable(8) %47)
          to label %50 unwind label %51

50:                                               ; preds = %48
  tail call void @exit(i32 noundef 1) #22
  unreachable

51:                                               ; preds = %48, %44, %42, %40, %38, %36, %76, %46
  %52 = landingpad { ptr, i32 }
          cleanup
  br label %119

53:                                               ; preds = %10
  call void asm sideeffect "", "=*r|m,0,~{memory},~{dirflag},~{fpsr},~{flags}"(ptr nonnull elementtype(ptr) %4, ptr nonnull %11) #20, !srcloc !9
  call void asm sideeffect "", "=*r|m,0,~{memory},~{dirflag},~{fpsr},~{flags}"(ptr nonnull elementtype(ptr) %5, ptr nonnull %12) #20, !srcloc !9
  %54 = getelementptr inbounds %"class.benchmark::State", ptr %0, i64 0, i32 5
  %55 = load i8, ptr %54, align 2, !tbaa !10, !range !27, !noundef !28
  %56 = getelementptr inbounds %"class.benchmark::State", ptr %0, i64 0, i32 2
  %57 = load i64, ptr %56, align 8
  invoke void @_ZN9benchmark5State16StartKeepRunningEv(ptr noundef nonnull align 8 dereferenceable(144) %0)
          to label %58 unwind label %99

58:                                               ; preds = %53
  %59 = icmp ne i8 %55, 0
  %60 = icmp eq i64 %57, 0
  %61 = select i1 %59, i1 true, i1 %60
  br i1 %61, label %62, label %101, !prof !29

62:                                               ; preds = %103, %58
  invoke void @_ZN9benchmark5State17FinishKeepRunningEv(ptr noundef nonnull align 8 dereferenceable(144) %0)
          to label %63 unwind label %99

63:                                               ; preds = %62
  %64 = getelementptr inbounds %"class.benchmark::State", ptr %0, i64 0, i32 3
  %65 = load i8, ptr %64, align 8, !tbaa !30, !range !27, !noundef !28
  %66 = icmp eq i8 %65, 0
  br i1 %66, label %76, label %67, !prof !29

67:                                               ; preds = %63
  %68 = load i64, ptr %56, align 8, !tbaa !31
  %69 = load i64, ptr %0, align 8, !tbaa !32
  %70 = sub i64 %68, %69
  %71 = getelementptr inbounds %"class.benchmark::State", ptr %0, i64 0, i32 1
  %72 = load i64, ptr %71, align 8, !tbaa !33
  %73 = add i64 %70, %72
  %74 = shl i64 %73, 12
  %75 = sitofp i64 %74 to double
  br label %76

76:                                               ; preds = %63, %67
  %77 = phi double [ %75, %67 ], [ 0.000000e+00, %63 ]
  call void @llvm.lifetime.start.p0(i64 32, ptr nonnull %3) #20
  %78 = getelementptr inbounds %"class.std::__cxx11::basic_string", ptr %3, i64 0, i32 2
  store ptr %78, ptr %3, align 8, !tbaa !34
  call void @llvm.lifetime.start.p0(i64 8, ptr nonnull %2) #20
  store i64 16, ptr %2, align 8, !tbaa !36
  %79 = invoke noundef ptr @_ZNSt7__cxx1112basic_stringIcSt11char_traitsIcESaIcEE9_M_createERmm(ptr noundef nonnull align 8 dereferenceable(32) %3, ptr noundef nonnull align 8 dereferenceable(8) %2, i64 noundef 0)
          to label %80 unwind label %51

80:                                               ; preds = %76
  store ptr %79, ptr %3, align 8, !tbaa !37
  %81 = load i64, ptr %2, align 8, !tbaa !36
  store i64 %81, ptr %78, align 8, !tbaa !39
  call void @llvm.memcpy.p0.p0.i64(ptr noundef nonnull align 1 dereferenceable(16) %79, ptr noundef nonnull align 1 dereferenceable(16) @.str.341, i64 16, i1 false)
  %82 = getelementptr inbounds %"class.std::__cxx11::basic_string", ptr %3, i64 0, i32 1
  store i64 %81, ptr %82, align 8, !tbaa !40
  %83 = load ptr, ptr %3, align 8, !tbaa !37
  %84 = getelementptr inbounds i8, ptr %83, i64 %81
  store i8 0, ptr %84, align 1, !tbaa !39
  call void @llvm.lifetime.end.p0(i64 8, ptr nonnull %2) #20
  %85 = getelementptr inbounds %"class.benchmark::State", ptr %0, i64 0, i32 8
  %86 = invoke noundef nonnull align 8 dereferenceable(16) ptr @_ZNSt3mapINSt7__cxx1112basic_stringIcSt11char_traitsIcESaIcEEEN9benchmark7CounterESt4lessIS5_ESaISt4pairIKS5_S7_EEEixEOS5_(ptr noundef nonnull align 8 dereferenceable(48) %85, ptr noundef nonnull align 8 dereferenceable(32) %3)
          to label %87 unwind label %93

87:                                               ; preds = %80
  store double %77, ptr %86, align 8, !tbaa.struct !41
  %88 = getelementptr inbounds i8, ptr %86, i64 8
  store i32 1, ptr %88, align 8, !tbaa.struct !48
  %89 = getelementptr inbounds i8, ptr %86, i64 12
  store i32 1024, ptr %89, align 4, !tbaa.struct !49
  %90 = load ptr, ptr %3, align 8, !tbaa !37
  %91 = icmp eq ptr %90, %78
  br i1 %91, label %118, label %92

92:                                               ; preds = %87
  call void @_ZdlPv(ptr noundef %90) #23
  br label %118

93:                                               ; preds = %80
  %94 = landingpad { ptr, i32 }
          cleanup
  %95 = load ptr, ptr %3, align 8, !tbaa !37
  %96 = icmp eq ptr %95, %78
  br i1 %96, label %98, label %97

97:                                               ; preds = %93
  call void @_ZdlPv(ptr noundef %95) #23
  br label %98

98:                                               ; preds = %97, %93
  call void @llvm.lifetime.end.p0(i64 32, ptr nonnull %3) #20
  br label %119

99:                                               ; preds = %62, %53
  %100 = landingpad { ptr, i32 }
          cleanup
  br label %119

101:                                              ; preds = %58, %103
  %102 = phi i64 [ %104, %103 ], [ %57, %58 ]
  fence syncscope("singlethread") acq_rel
  br label %106

103:                                              ; preds = %106
  %104 = add i64 %102, -1
  %105 = icmp eq i64 %104, 0
  br i1 %105, label %62, label %101, !prof !29

106:                                              ; preds = %101, %106
  %107 = phi i64 [ 0, %101 ], [ %116, %106 ]
  call void @llvm.lifetime.start.p0(i64 1, ptr nonnull %6) #20
  %108 = load ptr, ptr %4, align 8, !tbaa !5
  %109 = getelementptr inbounds i8, ptr %108, i64 %107
  %110 = load ptr, ptr %5, align 8, !tbaa !5
  %111 = getelementptr inbounds i8, ptr %110, i64 %107
  %112 = load i8, ptr %109, align 1
  %113 = load i8, ptr %111, align 1
  %114 = icmp ugt i8 %112, %113
  %115 = zext i1 %114 to i8
  store i8 %115, ptr %6, align 1, !tbaa !50
  call void asm sideeffect "", "=*r|m,0,~{memory},~{dirflag},~{fpsr},~{flags}"(ptr nonnull elementtype(i8) %6, i1 %114) #20, !srcloc !9
  call void @llvm.lifetime.end.p0(i64 1, ptr nonnull %6) #20
  %116 = add nuw nsw i64 %107, 1
  %117 = icmp eq i64 %116, 4096
  br i1 %117, label %103, label %106, !llvm.loop !72

118:                                              ; preds = %92, %87
  call void @llvm.lifetime.end.p0(i64 32, ptr nonnull %3) #20
  call void @llvm.lifetime.end.p0(i64 8, ptr nonnull %5) #20
  call void @llvm.lifetime.end.p0(i64 8, ptr nonnull %4) #20
  call void @_ZdlPv(ptr noundef nonnull %8) #23
  call void @_ZdlPv(ptr noundef nonnull %7) #23
  ret void

119:                                              ; preds = %99, %51, %98
  %120 = phi { ptr, i32 } [ %52, %51 ], [ %94, %98 ], [ %100, %99 ]
  call void @llvm.lifetime.end.p0(i64 8, ptr nonnull %5) #20
  call void @llvm.lifetime.end.p0(i64 8, ptr nonnull %4) #20
  call void @_ZdlPv(ptr noundef nonnull %8) #23
  br label %121

121:                                              ; preds = %119, %19
  %122 = phi { ptr, i32 } [ %120, %119 ], [ %20, %19 ]
  call void @_ZdlPv(ptr noundef nonnull %7) #23
  resume { ptr, i32 } %122
}

; Function Attrs: uwtable
define linkonce_odr dso_local void @_Z9BM_MemCmpILi2E6EqZero4NoneEvRN9benchmark5StateE(ptr noundef nonnull align 8 dereferenceable(144) %0) #6 comdat personality ptr @__gxx_personality_v0 {
  %2 = alloca i64, align 8
  %3 = alloca %"class.std::__cxx11::basic_string", align 8
  %4 = alloca ptr, align 8
  %5 = alloca ptr, align 8
  %6 = alloca i8, align 1
  %7 = tail call noalias noundef nonnull dereferenceable(4096) ptr @_Znwm(i64 noundef 4096) #19
  tail call void @llvm.memset.p0.i64(ptr noundef nonnull align 1 dereferenceable(4096) %7, i8 0, i64 4096, i1 false)
  %8 = invoke noalias noundef nonnull dereferenceable(4096) ptr @_Znwm(i64 noundef 4096) #19
          to label %9 unwind label %15

9:                                                ; preds = %1
  tail call void @llvm.memset.p0.i64(ptr noundef nonnull align 1 dereferenceable(4096) %8, i8 0, i64 4096, i1 false)
  call void @llvm.lifetime.start.p0(i64 8, ptr nonnull %4) #20
  store ptr %7, ptr %4, align 8, !tbaa !5
  call void @llvm.lifetime.start.p0(i64 8, ptr nonnull %5) #20
  store ptr %8, ptr %5, align 8, !tbaa !5
  %10 = tail call noundef i32 @_Z10RealMemCmpPKcS0_m(ptr noundef nonnull %7, ptr noundef nonnull %8, i64 noundef 2) #21
  %11 = icmp eq i32 %10, 0
  %12 = tail call i32 @bcmp(ptr noundef nonnull dereferenceable(2) %7, ptr noundef nonnull dereferenceable(2) %8, i64 2)
  %13 = icmp eq i32 %12, 0
  %14 = xor i1 %11, %13
  br i1 %14, label %17, label %34

15:                                               ; preds = %1
  %16 = landingpad { ptr, i32 }
          cleanup
  br label %102

17:                                               ; preds = %9
  %18 = invoke noundef nonnull align 8 dereferenceable(8) ptr @_ZSt16__ostream_insertIcSt11char_traitsIcEERSt13basic_ostreamIT_T0_ES6_PKS3_l(ptr noundef nonnull align 8 dereferenceable(8) @_ZSt4cerr, ptr noundef nonnull @.str.337, i64 noundef 25)
          to label %19 unwind label %32

19:                                               ; preds = %17
  %20 = invoke noundef nonnull align 8 dereferenceable(8) ptr @_ZSt16__ostream_insertIcSt11char_traitsIcEERSt13basic_ostreamIT_T0_ES6_PKS3_l(ptr noundef nonnull align 8 dereferenceable(8) @_ZSt4cerr, ptr noundef nonnull @_ZN6EqZero8kDisplayE, i64 noundef 6)
          to label %21 unwind label %32

21:                                               ; preds = %19
  %22 = invoke noundef nonnull align 8 dereferenceable(8) ptr @_ZSt16__ostream_insertIcSt11char_traitsIcEERSt13basic_ostreamIT_T0_ES6_PKS3_l(ptr noundef nonnull align 8 dereferenceable(8) @_ZSt4cerr, ptr noundef nonnull @.str.338, i64 noundef 5)
          to label %23 unwind label %32

23:                                               ; preds = %21
  %24 = invoke noundef nonnull align 8 dereferenceable(8) ptr @_ZSt16__ostream_insertIcSt11char_traitsIcEERSt13basic_ostreamIT_T0_ES6_PKS3_l(ptr noundef nonnull align 8 dereferenceable(8) @_ZSt4cerr, ptr noundef nonnull @_ZN4None8kDisplayE, i64 noundef 4)
          to label %25 unwind label %32

25:                                               ; preds = %23
  %26 = invoke noundef nonnull align 8 dereferenceable(8) ptr @_ZSt16__ostream_insertIcSt11char_traitsIcEERSt13basic_ostreamIT_T0_ES6_PKS3_l(ptr noundef nonnull align 8 dereferenceable(8) @_ZSt4cerr, ptr noundef nonnull @.str.339, i64 noundef 7)
          to label %27 unwind label %32

27:                                               ; preds = %25
  %28 = invoke noundef nonnull align 8 dereferenceable(8) ptr @_ZNSolsEi(ptr noundef nonnull align 8 dereferenceable(8) @_ZSt4cerr, i32 noundef 2)
          to label %29 unwind label %32

29:                                               ; preds = %27
  %30 = invoke noundef nonnull align 8 dereferenceable(8) ptr @_ZSt4endlIcSt11char_traitsIcEERSt13basic_ostreamIT_T0_ES6_(ptr noundef nonnull align 8 dereferenceable(8) %28)
          to label %31 unwind label %32

31:                                               ; preds = %29
  tail call void @exit(i32 noundef 1) #22
  unreachable

32:                                               ; preds = %29, %25, %23, %21, %19, %17, %57, %27
  %33 = landingpad { ptr, i32 }
          cleanup
  br label %100

34:                                               ; preds = %9
  call void asm sideeffect "", "=*r|m,0,~{memory},~{dirflag},~{fpsr},~{flags}"(ptr nonnull elementtype(ptr) %4, ptr nonnull %7) #20, !srcloc !9
  call void asm sideeffect "", "=*r|m,0,~{memory},~{dirflag},~{fpsr},~{flags}"(ptr nonnull elementtype(ptr) %5, ptr nonnull %8) #20, !srcloc !9
  %35 = getelementptr inbounds %"class.benchmark::State", ptr %0, i64 0, i32 5
  %36 = load i8, ptr %35, align 2, !tbaa !10, !range !27, !noundef !28
  %37 = getelementptr inbounds %"class.benchmark::State", ptr %0, i64 0, i32 2
  %38 = load i64, ptr %37, align 8
  invoke void @_ZN9benchmark5State16StartKeepRunningEv(ptr noundef nonnull align 8 dereferenceable(144) %0)
          to label %39 unwind label %80

39:                                               ; preds = %34
  %40 = icmp ne i8 %36, 0
  %41 = icmp eq i64 %38, 0
  %42 = select i1 %40, i1 true, i1 %41
  br i1 %42, label %43, label %82, !prof !29

43:                                               ; preds = %84, %39
  invoke void @_ZN9benchmark5State17FinishKeepRunningEv(ptr noundef nonnull align 8 dereferenceable(144) %0)
          to label %44 unwind label %80

44:                                               ; preds = %43
  %45 = getelementptr inbounds %"class.benchmark::State", ptr %0, i64 0, i32 3
  %46 = load i8, ptr %45, align 8, !tbaa !30, !range !27, !noundef !28
  %47 = icmp eq i8 %46, 0
  br i1 %47, label %57, label %48, !prof !29

48:                                               ; preds = %44
  %49 = load i64, ptr %37, align 8, !tbaa !31
  %50 = load i64, ptr %0, align 8, !tbaa !32
  %51 = sub i64 %49, %50
  %52 = getelementptr inbounds %"class.benchmark::State", ptr %0, i64 0, i32 1
  %53 = load i64, ptr %52, align 8, !tbaa !33
  %54 = add i64 %51, %53
  %55 = shl i64 %54, 12
  %56 = sitofp i64 %55 to double
  br label %57

57:                                               ; preds = %44, %48
  %58 = phi double [ %56, %48 ], [ 0.000000e+00, %44 ]
  call void @llvm.lifetime.start.p0(i64 32, ptr nonnull %3) #20
  %59 = getelementptr inbounds %"class.std::__cxx11::basic_string", ptr %3, i64 0, i32 2
  store ptr %59, ptr %3, align 8, !tbaa !34
  call void @llvm.lifetime.start.p0(i64 8, ptr nonnull %2) #20
  store i64 16, ptr %2, align 8, !tbaa !36
  %60 = invoke noundef ptr @_ZNSt7__cxx1112basic_stringIcSt11char_traitsIcESaIcEE9_M_createERmm(ptr noundef nonnull align 8 dereferenceable(32) %3, ptr noundef nonnull align 8 dereferenceable(8) %2, i64 noundef 0)
          to label %61 unwind label %32

61:                                               ; preds = %57
  store ptr %60, ptr %3, align 8, !tbaa !37
  %62 = load i64, ptr %2, align 8, !tbaa !36
  store i64 %62, ptr %59, align 8, !tbaa !39
  call void @llvm.memcpy.p0.p0.i64(ptr noundef nonnull align 1 dereferenceable(16) %60, ptr noundef nonnull align 1 dereferenceable(16) @.str.341, i64 16, i1 false)
  %63 = getelementptr inbounds %"class.std::__cxx11::basic_string", ptr %3, i64 0, i32 1
  store i64 %62, ptr %63, align 8, !tbaa !40
  %64 = load ptr, ptr %3, align 8, !tbaa !37
  %65 = getelementptr inbounds i8, ptr %64, i64 %62
  store i8 0, ptr %65, align 1, !tbaa !39
  call void @llvm.lifetime.end.p0(i64 8, ptr nonnull %2) #20
  %66 = getelementptr inbounds %"class.benchmark::State", ptr %0, i64 0, i32 8
  %67 = invoke noundef nonnull align 8 dereferenceable(16) ptr @_ZNSt3mapINSt7__cxx1112basic_stringIcSt11char_traitsIcESaIcEEEN9benchmark7CounterESt4lessIS5_ESaISt4pairIKS5_S7_EEEixEOS5_(ptr noundef nonnull align 8 dereferenceable(48) %66, ptr noundef nonnull align 8 dereferenceable(32) %3)
          to label %68 unwind label %74

68:                                               ; preds = %61
  store double %58, ptr %67, align 8, !tbaa.struct !41
  %69 = getelementptr inbounds i8, ptr %67, i64 8
  store i32 1, ptr %69, align 8, !tbaa.struct !48
  %70 = getelementptr inbounds i8, ptr %67, i64 12
  store i32 1024, ptr %70, align 4, !tbaa.struct !49
  %71 = load ptr, ptr %3, align 8, !tbaa !37
  %72 = icmp eq ptr %71, %59
  br i1 %72, label %99, label %73

73:                                               ; preds = %68
  call void @_ZdlPv(ptr noundef %71) #23
  br label %99

74:                                               ; preds = %61
  %75 = landingpad { ptr, i32 }
          cleanup
  %76 = load ptr, ptr %3, align 8, !tbaa !37
  %77 = icmp eq ptr %76, %59
  br i1 %77, label %79, label %78

78:                                               ; preds = %74
  call void @_ZdlPv(ptr noundef %76) #23
  br label %79

79:                                               ; preds = %78, %74
  call void @llvm.lifetime.end.p0(i64 32, ptr nonnull %3) #20
  br label %100

80:                                               ; preds = %43, %34
  %81 = landingpad { ptr, i32 }
          cleanup
  br label %100

82:                                               ; preds = %39, %84
  %83 = phi i64 [ %85, %84 ], [ %38, %39 ]
  fence syncscope("singlethread") acq_rel
  br label %87

84:                                               ; preds = %87
  %85 = add i64 %83, -1
  %86 = icmp eq i64 %85, 0
  br i1 %86, label %43, label %82, !prof !29

87:                                               ; preds = %82, %87
  %88 = phi i64 [ 0, %82 ], [ %97, %87 ]
  call void @llvm.lifetime.start.p0(i64 1, ptr nonnull %6) #20
  %89 = load ptr, ptr %4, align 8, !tbaa !5
  %90 = shl nuw nsw i64 %88, 1
  %91 = getelementptr inbounds i8, ptr %89, i64 %90
  %92 = load ptr, ptr %5, align 8, !tbaa !5
  %93 = getelementptr inbounds i8, ptr %92, i64 %90
  %94 = call i32 @bcmp(ptr noundef nonnull dereferenceable(2) %91, ptr noundef nonnull dereferenceable(2) %93, i64 2)
  %95 = icmp eq i32 %94, 0
  %96 = zext i1 %95 to i8
  store i8 %96, ptr %6, align 1, !tbaa !50
  call void asm sideeffect "", "=*r|m,0,~{memory},~{dirflag},~{fpsr},~{flags}"(ptr nonnull elementtype(i8) %6, i1 %95) #20, !srcloc !9
  call void @llvm.lifetime.end.p0(i64 1, ptr nonnull %6) #20
  %97 = add nuw nsw i64 %88, 1
  %98 = icmp eq i64 %97, 2048
  br i1 %98, label %84, label %87, !llvm.loop !73

99:                                               ; preds = %73, %68
  call void @llvm.lifetime.end.p0(i64 32, ptr nonnull %3) #20
  call void @llvm.lifetime.end.p0(i64 8, ptr nonnull %5) #20
  call void @llvm.lifetime.end.p0(i64 8, ptr nonnull %4) #20
  call void @_ZdlPv(ptr noundef nonnull %8) #23
  call void @_ZdlPv(ptr noundef nonnull %7) #23
  ret void

100:                                              ; preds = %80, %32, %79
  %101 = phi { ptr, i32 } [ %33, %32 ], [ %75, %79 ], [ %81, %80 ]
  call void @llvm.lifetime.end.p0(i64 8, ptr nonnull %5) #20
  call void @llvm.lifetime.end.p0(i64 8, ptr nonnull %4) #20
  call void @_ZdlPv(ptr noundef nonnull %8) #23
  br label %102

102:                                              ; preds = %100, %15
  %103 = phi { ptr, i32 } [ %101, %100 ], [ %16, %15 ]
  call void @_ZdlPv(ptr noundef nonnull %7) #23
  resume { ptr, i32 } %103
}

; Function Attrs: uwtable
define linkonce_odr dso_local void @_Z9BM_MemCmpILi2E6EqZero5FirstEvRN9benchmark5StateE(ptr noundef nonnull align 8 dereferenceable(144) %0) #6 comdat personality ptr @__gxx_personality_v0 {
  %2 = alloca i64, align 8
  %3 = alloca %"class.std::__cxx11::basic_string", align 8
  %4 = alloca ptr, align 8
  %5 = alloca ptr, align 8
  %6 = alloca i8, align 1
  %7 = tail call noalias noundef nonnull dereferenceable(4096) ptr @_Znwm(i64 noundef 4096) #19
  tail call void @llvm.memset.p0.i64(ptr noundef nonnull align 1 dereferenceable(4096) %7, i8 0, i64 4096, i1 false)
  %8 = invoke noalias noundef nonnull dereferenceable(4096) ptr @_Znwm(i64 noundef 4096) #19
          to label %9 unwind label %18

9:                                                ; preds = %1
  tail call void @llvm.memset.p0.i64(ptr noundef nonnull align 1 dereferenceable(4096) %8, i8 0, i64 4096, i1 false)
  call void @llvm.lifetime.start.p0(i64 8, ptr nonnull %4) #20
  store ptr %7, ptr %4, align 8, !tbaa !5
  call void @llvm.lifetime.start.p0(i64 8, ptr nonnull %5) #20
  store ptr %8, ptr %5, align 8, !tbaa !5
  br label %20

10:                                               ; preds = %20
  %11 = load ptr, ptr %4, align 8, !tbaa !5
  %12 = load ptr, ptr %5, align 8, !tbaa !5
  %13 = tail call noundef i32 @_Z10RealMemCmpPKcS0_m(ptr noundef %11, ptr noundef %12, i64 noundef 2) #21
  %14 = icmp eq i32 %13, 0
  %15 = tail call i32 @bcmp(ptr noundef nonnull dereferenceable(2) %11, ptr noundef nonnull dereferenceable(2) %12, i64 2)
  %16 = icmp eq i32 %15, 0
  %17 = xor i1 %14, %16
  br i1 %17, label %39, label %56

18:                                               ; preds = %1
  %19 = landingpad { ptr, i32 }
          cleanup
  br label %124

20:                                               ; preds = %20, %9
  %21 = phi i64 [ 0, %9 ], [ %37, %20 ]
  %22 = load ptr, ptr %4, align 8, !tbaa !5
  %23 = shl nuw nsw i64 %21, 1
  %24 = getelementptr inbounds i8, ptr %22, i64 %23
  store i8 -1, ptr %24, align 1, !tbaa !39
  %25 = load ptr, ptr %4, align 8, !tbaa !5
  %26 = shl nuw i64 %21, 1
  %27 = or i64 %26, 2
  %28 = getelementptr inbounds i8, ptr %25, i64 %27
  store i8 -1, ptr %28, align 1, !tbaa !39
  %29 = load ptr, ptr %4, align 8, !tbaa !5
  %30 = shl nuw i64 %21, 1
  %31 = or i64 %30, 4
  %32 = getelementptr inbounds i8, ptr %29, i64 %31
  store i8 -1, ptr %32, align 1, !tbaa !39
  %33 = load ptr, ptr %4, align 8, !tbaa !5
  %34 = shl nuw i64 %21, 1
  %35 = or i64 %34, 6
  %36 = getelementptr inbounds i8, ptr %33, i64 %35
  store i8 -1, ptr %36, align 1, !tbaa !39
  %37 = add nuw nsw i64 %21, 4
  %38 = icmp eq i64 %37, 2048
  br i1 %38, label %10, label %20, !llvm.loop !74

39:                                               ; preds = %10
  %40 = invoke noundef nonnull align 8 dereferenceable(8) ptr @_ZSt16__ostream_insertIcSt11char_traitsIcEERSt13basic_ostreamIT_T0_ES6_PKS3_l(ptr noundef nonnull align 8 dereferenceable(8) @_ZSt4cerr, ptr noundef nonnull @.str.337, i64 noundef 25)
          to label %41 unwind label %54

41:                                               ; preds = %39
  %42 = invoke noundef nonnull align 8 dereferenceable(8) ptr @_ZSt16__ostream_insertIcSt11char_traitsIcEERSt13basic_ostreamIT_T0_ES6_PKS3_l(ptr noundef nonnull align 8 dereferenceable(8) @_ZSt4cerr, ptr noundef nonnull @_ZN6EqZero8kDisplayE, i64 noundef 6)
          to label %43 unwind label %54

43:                                               ; preds = %41
  %44 = invoke noundef nonnull align 8 dereferenceable(8) ptr @_ZSt16__ostream_insertIcSt11char_traitsIcEERSt13basic_ostreamIT_T0_ES6_PKS3_l(ptr noundef nonnull align 8 dereferenceable(8) @_ZSt4cerr, ptr noundef nonnull @.str.338, i64 noundef 5)
          to label %45 unwind label %54

45:                                               ; preds = %43
  %46 = invoke noundef nonnull align 8 dereferenceable(8) ptr @_ZSt16__ostream_insertIcSt11char_traitsIcEERSt13basic_ostreamIT_T0_ES6_PKS3_l(ptr noundef nonnull align 8 dereferenceable(8) @_ZSt4cerr, ptr noundef nonnull @_ZN5First8kDisplayE, i64 noundef 5)
          to label %47 unwind label %54

47:                                               ; preds = %45
  %48 = invoke noundef nonnull align 8 dereferenceable(8) ptr @_ZSt16__ostream_insertIcSt11char_traitsIcEERSt13basic_ostreamIT_T0_ES6_PKS3_l(ptr noundef nonnull align 8 dereferenceable(8) @_ZSt4cerr, ptr noundef nonnull @.str.339, i64 noundef 7)
          to label %49 unwind label %54

49:                                               ; preds = %47
  %50 = invoke noundef nonnull align 8 dereferenceable(8) ptr @_ZNSolsEi(ptr noundef nonnull align 8 dereferenceable(8) @_ZSt4cerr, i32 noundef 2)
          to label %51 unwind label %54

51:                                               ; preds = %49
  %52 = invoke noundef nonnull align 8 dereferenceable(8) ptr @_ZSt4endlIcSt11char_traitsIcEERSt13basic_ostreamIT_T0_ES6_(ptr noundef nonnull align 8 dereferenceable(8) %50)
          to label %53 unwind label %54

53:                                               ; preds = %51
  tail call void @exit(i32 noundef 1) #22
  unreachable

54:                                               ; preds = %51, %47, %45, %43, %41, %39, %79, %49
  %55 = landingpad { ptr, i32 }
          cleanup
  br label %122

56:                                               ; preds = %10
  call void asm sideeffect "", "=*r|m,0,~{memory},~{dirflag},~{fpsr},~{flags}"(ptr nonnull elementtype(ptr) %4, ptr %11) #20, !srcloc !9
  call void asm sideeffect "", "=*r|m,0,~{memory},~{dirflag},~{fpsr},~{flags}"(ptr nonnull elementtype(ptr) %5, ptr %12) #20, !srcloc !9
  %57 = getelementptr inbounds %"class.benchmark::State", ptr %0, i64 0, i32 5
  %58 = load i8, ptr %57, align 2, !tbaa !10, !range !27, !noundef !28
  %59 = getelementptr inbounds %"class.benchmark::State", ptr %0, i64 0, i32 2
  %60 = load i64, ptr %59, align 8
  invoke void @_ZN9benchmark5State16StartKeepRunningEv(ptr noundef nonnull align 8 dereferenceable(144) %0)
          to label %61 unwind label %102

61:                                               ; preds = %56
  %62 = icmp ne i8 %58, 0
  %63 = icmp eq i64 %60, 0
  %64 = select i1 %62, i1 true, i1 %63
  br i1 %64, label %65, label %104, !prof !29

65:                                               ; preds = %106, %61
  invoke void @_ZN9benchmark5State17FinishKeepRunningEv(ptr noundef nonnull align 8 dereferenceable(144) %0)
          to label %66 unwind label %102

66:                                               ; preds = %65
  %67 = getelementptr inbounds %"class.benchmark::State", ptr %0, i64 0, i32 3
  %68 = load i8, ptr %67, align 8, !tbaa !30, !range !27, !noundef !28
  %69 = icmp eq i8 %68, 0
  br i1 %69, label %79, label %70, !prof !29

70:                                               ; preds = %66
  %71 = load i64, ptr %59, align 8, !tbaa !31
  %72 = load i64, ptr %0, align 8, !tbaa !32
  %73 = sub i64 %71, %72
  %74 = getelementptr inbounds %"class.benchmark::State", ptr %0, i64 0, i32 1
  %75 = load i64, ptr %74, align 8, !tbaa !33
  %76 = add i64 %73, %75
  %77 = shl i64 %76, 12
  %78 = sitofp i64 %77 to double
  br label %79

79:                                               ; preds = %66, %70
  %80 = phi double [ %78, %70 ], [ 0.000000e+00, %66 ]
  call void @llvm.lifetime.start.p0(i64 32, ptr nonnull %3) #20
  %81 = getelementptr inbounds %"class.std::__cxx11::basic_string", ptr %3, i64 0, i32 2
  store ptr %81, ptr %3, align 8, !tbaa !34
  call void @llvm.lifetime.start.p0(i64 8, ptr nonnull %2) #20
  store i64 16, ptr %2, align 8, !tbaa !36
  %82 = invoke noundef ptr @_ZNSt7__cxx1112basic_stringIcSt11char_traitsIcESaIcEE9_M_createERmm(ptr noundef nonnull align 8 dereferenceable(32) %3, ptr noundef nonnull align 8 dereferenceable(8) %2, i64 noundef 0)
          to label %83 unwind label %54

83:                                               ; preds = %79
  store ptr %82, ptr %3, align 8, !tbaa !37
  %84 = load i64, ptr %2, align 8, !tbaa !36
  store i64 %84, ptr %81, align 8, !tbaa !39
  call void @llvm.memcpy.p0.p0.i64(ptr noundef nonnull align 1 dereferenceable(16) %82, ptr noundef nonnull align 1 dereferenceable(16) @.str.341, i64 16, i1 false)
  %85 = getelementptr inbounds %"class.std::__cxx11::basic_string", ptr %3, i64 0, i32 1
  store i64 %84, ptr %85, align 8, !tbaa !40
  %86 = load ptr, ptr %3, align 8, !tbaa !37
  %87 = getelementptr inbounds i8, ptr %86, i64 %84
  store i8 0, ptr %87, align 1, !tbaa !39
  call void @llvm.lifetime.end.p0(i64 8, ptr nonnull %2) #20
  %88 = getelementptr inbounds %"class.benchmark::State", ptr %0, i64 0, i32 8
  %89 = invoke noundef nonnull align 8 dereferenceable(16) ptr @_ZNSt3mapINSt7__cxx1112basic_stringIcSt11char_traitsIcESaIcEEEN9benchmark7CounterESt4lessIS5_ESaISt4pairIKS5_S7_EEEixEOS5_(ptr noundef nonnull align 8 dereferenceable(48) %88, ptr noundef nonnull align 8 dereferenceable(32) %3)
          to label %90 unwind label %96

90:                                               ; preds = %83
  store double %80, ptr %89, align 8, !tbaa.struct !41
  %91 = getelementptr inbounds i8, ptr %89, i64 8
  store i32 1, ptr %91, align 8, !tbaa.struct !48
  %92 = getelementptr inbounds i8, ptr %89, i64 12
  store i32 1024, ptr %92, align 4, !tbaa.struct !49
  %93 = load ptr, ptr %3, align 8, !tbaa !37
  %94 = icmp eq ptr %93, %81
  br i1 %94, label %121, label %95

95:                                               ; preds = %90
  call void @_ZdlPv(ptr noundef %93) #23
  br label %121

96:                                               ; preds = %83
  %97 = landingpad { ptr, i32 }
          cleanup
  %98 = load ptr, ptr %3, align 8, !tbaa !37
  %99 = icmp eq ptr %98, %81
  br i1 %99, label %101, label %100

100:                                              ; preds = %96
  call void @_ZdlPv(ptr noundef %98) #23
  br label %101

101:                                              ; preds = %100, %96
  call void @llvm.lifetime.end.p0(i64 32, ptr nonnull %3) #20
  br label %122

102:                                              ; preds = %65, %56
  %103 = landingpad { ptr, i32 }
          cleanup
  br label %122

104:                                              ; preds = %61, %106
  %105 = phi i64 [ %107, %106 ], [ %60, %61 ]
  fence syncscope("singlethread") acq_rel
  br label %109

106:                                              ; preds = %109
  %107 = add i64 %105, -1
  %108 = icmp eq i64 %107, 0
  br i1 %108, label %65, label %104, !prof !29

109:                                              ; preds = %104, %109
  %110 = phi i64 [ 0, %104 ], [ %119, %109 ]
  call void @llvm.lifetime.start.p0(i64 1, ptr nonnull %6) #20
  %111 = load ptr, ptr %4, align 8, !tbaa !5
  %112 = shl nuw nsw i64 %110, 1
  %113 = getelementptr inbounds i8, ptr %111, i64 %112
  %114 = load ptr, ptr %5, align 8, !tbaa !5
  %115 = getelementptr inbounds i8, ptr %114, i64 %112
  %116 = call i32 @bcmp(ptr noundef nonnull dereferenceable(2) %113, ptr noundef nonnull dereferenceable(2) %115, i64 2)
  %117 = icmp eq i32 %116, 0
  %118 = zext i1 %117 to i8
  store i8 %118, ptr %6, align 1, !tbaa !50
  call void asm sideeffect "", "=*r|m,0,~{memory},~{dirflag},~{fpsr},~{flags}"(ptr nonnull elementtype(i8) %6, i1 %117) #20, !srcloc !9
  call void @llvm.lifetime.end.p0(i64 1, ptr nonnull %6) #20
  %119 = add nuw nsw i64 %110, 1
  %120 = icmp eq i64 %119, 2048
  br i1 %120, label %106, label %109, !llvm.loop !75

121:                                              ; preds = %95, %90
  call void @llvm.lifetime.end.p0(i64 32, ptr nonnull %3) #20
  call void @llvm.lifetime.end.p0(i64 8, ptr nonnull %5) #20
  call void @llvm.lifetime.end.p0(i64 8, ptr nonnull %4) #20
  call void @_ZdlPv(ptr noundef nonnull %8) #23
  call void @_ZdlPv(ptr noundef nonnull %7) #23
  ret void

122:                                              ; preds = %102, %54, %101
  %123 = phi { ptr, i32 } [ %55, %54 ], [ %97, %101 ], [ %103, %102 ]
  call void @llvm.lifetime.end.p0(i64 8, ptr nonnull %5) #20
  call void @llvm.lifetime.end.p0(i64 8, ptr nonnull %4) #20
  call void @_ZdlPv(ptr noundef nonnull %8) #23
  br label %124

124:                                              ; preds = %122, %18
  %125 = phi { ptr, i32 } [ %123, %122 ], [ %19, %18 ]
  call void @_ZdlPv(ptr noundef nonnull %7) #23
  resume { ptr, i32 } %125
}

; Function Attrs: uwtable
define linkonce_odr dso_local void @_Z9BM_MemCmpILi2E6EqZero3MidEvRN9benchmark5StateE(ptr noundef nonnull align 8 dereferenceable(144) %0) #6 comdat personality ptr @__gxx_personality_v0 {
  %2 = alloca i64, align 8
  %3 = alloca %"class.std::__cxx11::basic_string", align 8
  %4 = alloca ptr, align 8
  %5 = alloca ptr, align 8
  %6 = alloca i8, align 1
  %7 = tail call noalias noundef nonnull dereferenceable(4096) ptr @_Znwm(i64 noundef 4096) #19
  tail call void @llvm.memset.p0.i64(ptr noundef nonnull align 1 dereferenceable(4096) %7, i8 0, i64 4096, i1 false)
  %8 = invoke noalias noundef nonnull dereferenceable(4096) ptr @_Znwm(i64 noundef 4096) #19
          to label %9 unwind label %18

9:                                                ; preds = %1
  tail call void @llvm.memset.p0.i64(ptr noundef nonnull align 1 dereferenceable(4096) %8, i8 0, i64 4096, i1 false)
  call void @llvm.lifetime.start.p0(i64 8, ptr nonnull %4) #20
  store ptr %7, ptr %4, align 8, !tbaa !5
  call void @llvm.lifetime.start.p0(i64 8, ptr nonnull %5) #20
  store ptr %8, ptr %5, align 8, !tbaa !5
  br label %20

10:                                               ; preds = %20
  %11 = load ptr, ptr %4, align 8, !tbaa !5
  %12 = load ptr, ptr %5, align 8, !tbaa !5
  %13 = tail call noundef i32 @_Z10RealMemCmpPKcS0_m(ptr noundef %11, ptr noundef %12, i64 noundef 2) #21
  %14 = icmp eq i32 %13, 0
  %15 = tail call i32 @bcmp(ptr noundef nonnull dereferenceable(2) %11, ptr noundef nonnull dereferenceable(2) %12, i64 2)
  %16 = icmp eq i32 %15, 0
  %17 = xor i1 %14, %16
  br i1 %17, label %43, label %60

18:                                               ; preds = %1
  %19 = landingpad { ptr, i32 }
          cleanup
  br label %128

20:                                               ; preds = %20, %9
  %21 = phi i64 [ 0, %9 ], [ %41, %20 ]
  %22 = load ptr, ptr %4, align 8, !tbaa !5
  %23 = shl nuw nsw i64 %21, 1
  %24 = getelementptr inbounds i8, ptr %22, i64 1
  %25 = getelementptr inbounds i8, ptr %24, i64 %23
  store i8 -1, ptr %25, align 1, !tbaa !39
  %26 = load ptr, ptr %4, align 8, !tbaa !5
  %27 = shl nuw i64 %21, 1
  %28 = or i64 %27, 2
  %29 = getelementptr inbounds i8, ptr %26, i64 1
  %30 = getelementptr inbounds i8, ptr %29, i64 %28
  store i8 -1, ptr %30, align 1, !tbaa !39
  %31 = load ptr, ptr %4, align 8, !tbaa !5
  %32 = shl nuw i64 %21, 1
  %33 = or i64 %32, 4
  %34 = getelementptr inbounds i8, ptr %31, i64 1
  %35 = getelementptr inbounds i8, ptr %34, i64 %33
  store i8 -1, ptr %35, align 1, !tbaa !39
  %36 = load ptr, ptr %4, align 8, !tbaa !5
  %37 = shl nuw i64 %21, 1
  %38 = or i64 %37, 6
  %39 = getelementptr inbounds i8, ptr %36, i64 1
  %40 = getelementptr inbounds i8, ptr %39, i64 %38
  store i8 -1, ptr %40, align 1, !tbaa !39
  %41 = add nuw nsw i64 %21, 4
  %42 = icmp eq i64 %41, 2048
  br i1 %42, label %10, label %20, !llvm.loop !76

43:                                               ; preds = %10
  %44 = invoke noundef nonnull align 8 dereferenceable(8) ptr @_ZSt16__ostream_insertIcSt11char_traitsIcEERSt13basic_ostreamIT_T0_ES6_PKS3_l(ptr noundef nonnull align 8 dereferenceable(8) @_ZSt4cerr, ptr noundef nonnull @.str.337, i64 noundef 25)
          to label %45 unwind label %58

45:                                               ; preds = %43
  %46 = invoke noundef nonnull align 8 dereferenceable(8) ptr @_ZSt16__ostream_insertIcSt11char_traitsIcEERSt13basic_ostreamIT_T0_ES6_PKS3_l(ptr noundef nonnull align 8 dereferenceable(8) @_ZSt4cerr, ptr noundef nonnull @_ZN6EqZero8kDisplayE, i64 noundef 6)
          to label %47 unwind label %58

47:                                               ; preds = %45
  %48 = invoke noundef nonnull align 8 dereferenceable(8) ptr @_ZSt16__ostream_insertIcSt11char_traitsIcEERSt13basic_ostreamIT_T0_ES6_PKS3_l(ptr noundef nonnull align 8 dereferenceable(8) @_ZSt4cerr, ptr noundef nonnull @.str.338, i64 noundef 5)
          to label %49 unwind label %58

49:                                               ; preds = %47
  %50 = invoke noundef nonnull align 8 dereferenceable(8) ptr @_ZSt16__ostream_insertIcSt11char_traitsIcEERSt13basic_ostreamIT_T0_ES6_PKS3_l(ptr noundef nonnull align 8 dereferenceable(8) @_ZSt4cerr, ptr noundef nonnull @_ZN3Mid8kDisplayE, i64 noundef 3)
          to label %51 unwind label %58

51:                                               ; preds = %49
  %52 = invoke noundef nonnull align 8 dereferenceable(8) ptr @_ZSt16__ostream_insertIcSt11char_traitsIcEERSt13basic_ostreamIT_T0_ES6_PKS3_l(ptr noundef nonnull align 8 dereferenceable(8) @_ZSt4cerr, ptr noundef nonnull @.str.339, i64 noundef 7)
          to label %53 unwind label %58

53:                                               ; preds = %51
  %54 = invoke noundef nonnull align 8 dereferenceable(8) ptr @_ZNSolsEi(ptr noundef nonnull align 8 dereferenceable(8) @_ZSt4cerr, i32 noundef 2)
          to label %55 unwind label %58

55:                                               ; preds = %53
  %56 = invoke noundef nonnull align 8 dereferenceable(8) ptr @_ZSt4endlIcSt11char_traitsIcEERSt13basic_ostreamIT_T0_ES6_(ptr noundef nonnull align 8 dereferenceable(8) %54)
          to label %57 unwind label %58

57:                                               ; preds = %55
  tail call void @exit(i32 noundef 1) #22
  unreachable

58:                                               ; preds = %55, %51, %49, %47, %45, %43, %83, %53
  %59 = landingpad { ptr, i32 }
          cleanup
  br label %126

60:                                               ; preds = %10
  call void asm sideeffect "", "=*r|m,0,~{memory},~{dirflag},~{fpsr},~{flags}"(ptr nonnull elementtype(ptr) %4, ptr %11) #20, !srcloc !9
  call void asm sideeffect "", "=*r|m,0,~{memory},~{dirflag},~{fpsr},~{flags}"(ptr nonnull elementtype(ptr) %5, ptr %12) #20, !srcloc !9
  %61 = getelementptr inbounds %"class.benchmark::State", ptr %0, i64 0, i32 5
  %62 = load i8, ptr %61, align 2, !tbaa !10, !range !27, !noundef !28
  %63 = getelementptr inbounds %"class.benchmark::State", ptr %0, i64 0, i32 2
  %64 = load i64, ptr %63, align 8
  invoke void @_ZN9benchmark5State16StartKeepRunningEv(ptr noundef nonnull align 8 dereferenceable(144) %0)
          to label %65 unwind label %106

65:                                               ; preds = %60
  %66 = icmp ne i8 %62, 0
  %67 = icmp eq i64 %64, 0
  %68 = select i1 %66, i1 true, i1 %67
  br i1 %68, label %69, label %108, !prof !29

69:                                               ; preds = %110, %65
  invoke void @_ZN9benchmark5State17FinishKeepRunningEv(ptr noundef nonnull align 8 dereferenceable(144) %0)
          to label %70 unwind label %106

70:                                               ; preds = %69
  %71 = getelementptr inbounds %"class.benchmark::State", ptr %0, i64 0, i32 3
  %72 = load i8, ptr %71, align 8, !tbaa !30, !range !27, !noundef !28
  %73 = icmp eq i8 %72, 0
  br i1 %73, label %83, label %74, !prof !29

74:                                               ; preds = %70
  %75 = load i64, ptr %63, align 8, !tbaa !31
  %76 = load i64, ptr %0, align 8, !tbaa !32
  %77 = sub i64 %75, %76
  %78 = getelementptr inbounds %"class.benchmark::State", ptr %0, i64 0, i32 1
  %79 = load i64, ptr %78, align 8, !tbaa !33
  %80 = add i64 %77, %79
  %81 = shl i64 %80, 12
  %82 = sitofp i64 %81 to double
  br label %83

83:                                               ; preds = %70, %74
  %84 = phi double [ %82, %74 ], [ 0.000000e+00, %70 ]
  call void @llvm.lifetime.start.p0(i64 32, ptr nonnull %3) #20
  %85 = getelementptr inbounds %"class.std::__cxx11::basic_string", ptr %3, i64 0, i32 2
  store ptr %85, ptr %3, align 8, !tbaa !34
  call void @llvm.lifetime.start.p0(i64 8, ptr nonnull %2) #20
  store i64 16, ptr %2, align 8, !tbaa !36
  %86 = invoke noundef ptr @_ZNSt7__cxx1112basic_stringIcSt11char_traitsIcESaIcEE9_M_createERmm(ptr noundef nonnull align 8 dereferenceable(32) %3, ptr noundef nonnull align 8 dereferenceable(8) %2, i64 noundef 0)
          to label %87 unwind label %58

87:                                               ; preds = %83
  store ptr %86, ptr %3, align 8, !tbaa !37
  %88 = load i64, ptr %2, align 8, !tbaa !36
  store i64 %88, ptr %85, align 8, !tbaa !39
  call void @llvm.memcpy.p0.p0.i64(ptr noundef nonnull align 1 dereferenceable(16) %86, ptr noundef nonnull align 1 dereferenceable(16) @.str.341, i64 16, i1 false)
  %89 = getelementptr inbounds %"class.std::__cxx11::basic_string", ptr %3, i64 0, i32 1
  store i64 %88, ptr %89, align 8, !tbaa !40
  %90 = load ptr, ptr %3, align 8, !tbaa !37
  %91 = getelementptr inbounds i8, ptr %90, i64 %88
  store i8 0, ptr %91, align 1, !tbaa !39
  call void @llvm.lifetime.end.p0(i64 8, ptr nonnull %2) #20
  %92 = getelementptr inbounds %"class.benchmark::State", ptr %0, i64 0, i32 8
  %93 = invoke noundef nonnull align 8 dereferenceable(16) ptr @_ZNSt3mapINSt7__cxx1112basic_stringIcSt11char_traitsIcESaIcEEEN9benchmark7CounterESt4lessIS5_ESaISt4pairIKS5_S7_EEEixEOS5_(ptr noundef nonnull align 8 dereferenceable(48) %92, ptr noundef nonnull align 8 dereferenceable(32) %3)
          to label %94 unwind label %100

94:                                               ; preds = %87
  store double %84, ptr %93, align 8, !tbaa.struct !41
  %95 = getelementptr inbounds i8, ptr %93, i64 8
  store i32 1, ptr %95, align 8, !tbaa.struct !48
  %96 = getelementptr inbounds i8, ptr %93, i64 12
  store i32 1024, ptr %96, align 4, !tbaa.struct !49
  %97 = load ptr, ptr %3, align 8, !tbaa !37
  %98 = icmp eq ptr %97, %85
  br i1 %98, label %125, label %99

99:                                               ; preds = %94
  call void @_ZdlPv(ptr noundef %97) #23
  br label %125

100:                                              ; preds = %87
  %101 = landingpad { ptr, i32 }
          cleanup
  %102 = load ptr, ptr %3, align 8, !tbaa !37
  %103 = icmp eq ptr %102, %85
  br i1 %103, label %105, label %104

104:                                              ; preds = %100
  call void @_ZdlPv(ptr noundef %102) #23
  br label %105

105:                                              ; preds = %104, %100
  call void @llvm.lifetime.end.p0(i64 32, ptr nonnull %3) #20
  br label %126

106:                                              ; preds = %69, %60
  %107 = landingpad { ptr, i32 }
          cleanup
  br label %126

108:                                              ; preds = %65, %110
  %109 = phi i64 [ %111, %110 ], [ %64, %65 ]
  fence syncscope("singlethread") acq_rel
  br label %113

110:                                              ; preds = %113
  %111 = add i64 %109, -1
  %112 = icmp eq i64 %111, 0
  br i1 %112, label %69, label %108, !prof !29

113:                                              ; preds = %108, %113
  %114 = phi i64 [ 0, %108 ], [ %123, %113 ]
  call void @llvm.lifetime.start.p0(i64 1, ptr nonnull %6) #20
  %115 = load ptr, ptr %4, align 8, !tbaa !5
  %116 = shl nuw nsw i64 %114, 1
  %117 = getelementptr inbounds i8, ptr %115, i64 %116
  %118 = load ptr, ptr %5, align 8, !tbaa !5
  %119 = getelementptr inbounds i8, ptr %118, i64 %116
  %120 = call i32 @bcmp(ptr noundef nonnull dereferenceable(2) %117, ptr noundef nonnull dereferenceable(2) %119, i64 2)
  %121 = icmp eq i32 %120, 0
  %122 = zext i1 %121 to i8
  store i8 %122, ptr %6, align 1, !tbaa !50
  call void asm sideeffect "", "=*r|m,0,~{memory},~{dirflag},~{fpsr},~{flags}"(ptr nonnull elementtype(i8) %6, i1 %121) #20, !srcloc !9
  call void @llvm.lifetime.end.p0(i64 1, ptr nonnull %6) #20
  %123 = add nuw nsw i64 %114, 1
  %124 = icmp eq i64 %123, 2048
  br i1 %124, label %110, label %113, !llvm.loop !77

125:                                              ; preds = %99, %94
  call void @llvm.lifetime.end.p0(i64 32, ptr nonnull %3) #20
  call void @llvm.lifetime.end.p0(i64 8, ptr nonnull %5) #20
  call void @llvm.lifetime.end.p0(i64 8, ptr nonnull %4) #20
  call void @_ZdlPv(ptr noundef nonnull %8) #23
  call void @_ZdlPv(ptr noundef nonnull %7) #23
  ret void

126:                                              ; preds = %106, %58, %105
  %127 = phi { ptr, i32 } [ %59, %58 ], [ %101, %105 ], [ %107, %106 ]
  call void @llvm.lifetime.end.p0(i64 8, ptr nonnull %5) #20
  call void @llvm.lifetime.end.p0(i64 8, ptr nonnull %4) #20
  call void @_ZdlPv(ptr noundef nonnull %8) #23
  br label %128

128:                                              ; preds = %126, %18
  %129 = phi { ptr, i32 } [ %127, %126 ], [ %19, %18 ]
  call void @_ZdlPv(ptr noundef nonnull %7) #23
  resume { ptr, i32 } %129
}

; Function Attrs: uwtable
define linkonce_odr dso_local void @_Z9BM_MemCmpILi2E6EqZero4LastEvRN9benchmark5StateE(ptr noundef nonnull align 8 dereferenceable(144) %0) #6 comdat personality ptr @__gxx_personality_v0 {
  %2 = alloca i64, align 8
  %3 = alloca %"class.std::__cxx11::basic_string", align 8
  %4 = alloca ptr, align 8
  %5 = alloca ptr, align 8
  %6 = alloca i8, align 1
  %7 = tail call noalias noundef nonnull dereferenceable(4096) ptr @_Znwm(i64 noundef 4096) #19
  tail call void @llvm.memset.p0.i64(ptr noundef nonnull align 1 dereferenceable(4096) %7, i8 0, i64 4096, i1 false)
  %8 = invoke noalias noundef nonnull dereferenceable(4096) ptr @_Znwm(i64 noundef 4096) #19
          to label %9 unwind label %18

9:                                                ; preds = %1
  tail call void @llvm.memset.p0.i64(ptr noundef nonnull align 1 dereferenceable(4096) %8, i8 0, i64 4096, i1 false)
  call void @llvm.lifetime.start.p0(i64 8, ptr nonnull %4) #20
  store ptr %7, ptr %4, align 8, !tbaa !5
  call void @llvm.lifetime.start.p0(i64 8, ptr nonnull %5) #20
  store ptr %8, ptr %5, align 8, !tbaa !5
  br label %20

10:                                               ; preds = %20
  %11 = load ptr, ptr %4, align 8, !tbaa !5
  %12 = load ptr, ptr %5, align 8, !tbaa !5
  %13 = tail call noundef i32 @_Z10RealMemCmpPKcS0_m(ptr noundef %11, ptr noundef %12, i64 noundef 2) #21
  %14 = icmp eq i32 %13, 0
  %15 = tail call i32 @bcmp(ptr noundef nonnull dereferenceable(2) %11, ptr noundef nonnull dereferenceable(2) %12, i64 2)
  %16 = icmp eq i32 %15, 0
  %17 = xor i1 %14, %16
  br i1 %17, label %43, label %60

18:                                               ; preds = %1
  %19 = landingpad { ptr, i32 }
          cleanup
  br label %128

20:                                               ; preds = %20, %9
  %21 = phi i64 [ 0, %9 ], [ %41, %20 ]
  %22 = load ptr, ptr %4, align 8, !tbaa !5
  %23 = shl nuw nsw i64 %21, 1
  %24 = getelementptr inbounds i8, ptr %22, i64 1
  %25 = getelementptr inbounds i8, ptr %24, i64 %23
  store i8 -1, ptr %25, align 1, !tbaa !39
  %26 = load ptr, ptr %4, align 8, !tbaa !5
  %27 = shl nuw i64 %21, 1
  %28 = or i64 %27, 2
  %29 = getelementptr inbounds i8, ptr %26, i64 1
  %30 = getelementptr inbounds i8, ptr %29, i64 %28
  store i8 -1, ptr %30, align 1, !tbaa !39
  %31 = load ptr, ptr %4, align 8, !tbaa !5
  %32 = shl nuw i64 %21, 1
  %33 = or i64 %32, 4
  %34 = getelementptr inbounds i8, ptr %31, i64 1
  %35 = getelementptr inbounds i8, ptr %34, i64 %33
  store i8 -1, ptr %35, align 1, !tbaa !39
  %36 = load ptr, ptr %4, align 8, !tbaa !5
  %37 = shl nuw i64 %21, 1
  %38 = or i64 %37, 6
  %39 = getelementptr inbounds i8, ptr %36, i64 1
  %40 = getelementptr inbounds i8, ptr %39, i64 %38
  store i8 -1, ptr %40, align 1, !tbaa !39
  %41 = add nuw nsw i64 %21, 4
  %42 = icmp eq i64 %41, 2048
  br i1 %42, label %10, label %20, !llvm.loop !78

43:                                               ; preds = %10
  %44 = invoke noundef nonnull align 8 dereferenceable(8) ptr @_ZSt16__ostream_insertIcSt11char_traitsIcEERSt13basic_ostreamIT_T0_ES6_PKS3_l(ptr noundef nonnull align 8 dereferenceable(8) @_ZSt4cerr, ptr noundef nonnull @.str.337, i64 noundef 25)
          to label %45 unwind label %58

45:                                               ; preds = %43
  %46 = invoke noundef nonnull align 8 dereferenceable(8) ptr @_ZSt16__ostream_insertIcSt11char_traitsIcEERSt13basic_ostreamIT_T0_ES6_PKS3_l(ptr noundef nonnull align 8 dereferenceable(8) @_ZSt4cerr, ptr noundef nonnull @_ZN6EqZero8kDisplayE, i64 noundef 6)
          to label %47 unwind label %58

47:                                               ; preds = %45
  %48 = invoke noundef nonnull align 8 dereferenceable(8) ptr @_ZSt16__ostream_insertIcSt11char_traitsIcEERSt13basic_ostreamIT_T0_ES6_PKS3_l(ptr noundef nonnull align 8 dereferenceable(8) @_ZSt4cerr, ptr noundef nonnull @.str.338, i64 noundef 5)
          to label %49 unwind label %58

49:                                               ; preds = %47
  %50 = invoke noundef nonnull align 8 dereferenceable(8) ptr @_ZSt16__ostream_insertIcSt11char_traitsIcEERSt13basic_ostreamIT_T0_ES6_PKS3_l(ptr noundef nonnull align 8 dereferenceable(8) @_ZSt4cerr, ptr noundef nonnull @_ZN4Last8kDisplayE, i64 noundef 4)
          to label %51 unwind label %58

51:                                               ; preds = %49
  %52 = invoke noundef nonnull align 8 dereferenceable(8) ptr @_ZSt16__ostream_insertIcSt11char_traitsIcEERSt13basic_ostreamIT_T0_ES6_PKS3_l(ptr noundef nonnull align 8 dereferenceable(8) @_ZSt4cerr, ptr noundef nonnull @.str.339, i64 noundef 7)
          to label %53 unwind label %58

53:                                               ; preds = %51
  %54 = invoke noundef nonnull align 8 dereferenceable(8) ptr @_ZNSolsEi(ptr noundef nonnull align 8 dereferenceable(8) @_ZSt4cerr, i32 noundef 2)
          to label %55 unwind label %58

55:                                               ; preds = %53
  %56 = invoke noundef nonnull align 8 dereferenceable(8) ptr @_ZSt4endlIcSt11char_traitsIcEERSt13basic_ostreamIT_T0_ES6_(ptr noundef nonnull align 8 dereferenceable(8) %54)
          to label %57 unwind label %58

57:                                               ; preds = %55
  tail call void @exit(i32 noundef 1) #22
  unreachable

58:                                               ; preds = %55, %51, %49, %47, %45, %43, %83, %53
  %59 = landingpad { ptr, i32 }
          cleanup
  br label %126

60:                                               ; preds = %10
  call void asm sideeffect "", "=*r|m,0,~{memory},~{dirflag},~{fpsr},~{flags}"(ptr nonnull elementtype(ptr) %4, ptr %11) #20, !srcloc !9
  call void asm sideeffect "", "=*r|m,0,~{memory},~{dirflag},~{fpsr},~{flags}"(ptr nonnull elementtype(ptr) %5, ptr %12) #20, !srcloc !9
  %61 = getelementptr inbounds %"class.benchmark::State", ptr %0, i64 0, i32 5
  %62 = load i8, ptr %61, align 2, !tbaa !10, !range !27, !noundef !28
  %63 = getelementptr inbounds %"class.benchmark::State", ptr %0, i64 0, i32 2
  %64 = load i64, ptr %63, align 8
  invoke void @_ZN9benchmark5State16StartKeepRunningEv(ptr noundef nonnull align 8 dereferenceable(144) %0)
          to label %65 unwind label %106

65:                                               ; preds = %60
  %66 = icmp ne i8 %62, 0
  %67 = icmp eq i64 %64, 0
  %68 = select i1 %66, i1 true, i1 %67
  br i1 %68, label %69, label %108, !prof !29

69:                                               ; preds = %110, %65
  invoke void @_ZN9benchmark5State17FinishKeepRunningEv(ptr noundef nonnull align 8 dereferenceable(144) %0)
          to label %70 unwind label %106

70:                                               ; preds = %69
  %71 = getelementptr inbounds %"class.benchmark::State", ptr %0, i64 0, i32 3
  %72 = load i8, ptr %71, align 8, !tbaa !30, !range !27, !noundef !28
  %73 = icmp eq i8 %72, 0
  br i1 %73, label %83, label %74, !prof !29

74:                                               ; preds = %70
  %75 = load i64, ptr %63, align 8, !tbaa !31
  %76 = load i64, ptr %0, align 8, !tbaa !32
  %77 = sub i64 %75, %76
  %78 = getelementptr inbounds %"class.benchmark::State", ptr %0, i64 0, i32 1
  %79 = load i64, ptr %78, align 8, !tbaa !33
  %80 = add i64 %77, %79
  %81 = shl i64 %80, 12
  %82 = sitofp i64 %81 to double
  br label %83

83:                                               ; preds = %70, %74
  %84 = phi double [ %82, %74 ], [ 0.000000e+00, %70 ]
  call void @llvm.lifetime.start.p0(i64 32, ptr nonnull %3) #20
  %85 = getelementptr inbounds %"class.std::__cxx11::basic_string", ptr %3, i64 0, i32 2
  store ptr %85, ptr %3, align 8, !tbaa !34
  call void @llvm.lifetime.start.p0(i64 8, ptr nonnull %2) #20
  store i64 16, ptr %2, align 8, !tbaa !36
  %86 = invoke noundef ptr @_ZNSt7__cxx1112basic_stringIcSt11char_traitsIcESaIcEE9_M_createERmm(ptr noundef nonnull align 8 dereferenceable(32) %3, ptr noundef nonnull align 8 dereferenceable(8) %2, i64 noundef 0)
          to label %87 unwind label %58

87:                                               ; preds = %83
  store ptr %86, ptr %3, align 8, !tbaa !37
  %88 = load i64, ptr %2, align 8, !tbaa !36
  store i64 %88, ptr %85, align 8, !tbaa !39
  call void @llvm.memcpy.p0.p0.i64(ptr noundef nonnull align 1 dereferenceable(16) %86, ptr noundef nonnull align 1 dereferenceable(16) @.str.341, i64 16, i1 false)
  %89 = getelementptr inbounds %"class.std::__cxx11::basic_string", ptr %3, i64 0, i32 1
  store i64 %88, ptr %89, align 8, !tbaa !40
  %90 = load ptr, ptr %3, align 8, !tbaa !37
  %91 = getelementptr inbounds i8, ptr %90, i64 %88
  store i8 0, ptr %91, align 1, !tbaa !39
  call void @llvm.lifetime.end.p0(i64 8, ptr nonnull %2) #20
  %92 = getelementptr inbounds %"class.benchmark::State", ptr %0, i64 0, i32 8
  %93 = invoke noundef nonnull align 8 dereferenceable(16) ptr @_ZNSt3mapINSt7__cxx1112basic_stringIcSt11char_traitsIcESaIcEEEN9benchmark7CounterESt4lessIS5_ESaISt4pairIKS5_S7_EEEixEOS5_(ptr noundef nonnull align 8 dereferenceable(48) %92, ptr noundef nonnull align 8 dereferenceable(32) %3)
          to label %94 unwind label %100

94:                                               ; preds = %87
  store double %84, ptr %93, align 8, !tbaa.struct !41
  %95 = getelementptr inbounds i8, ptr %93, i64 8
  store i32 1, ptr %95, align 8, !tbaa.struct !48
  %96 = getelementptr inbounds i8, ptr %93, i64 12
  store i32 1024, ptr %96, align 4, !tbaa.struct !49
  %97 = load ptr, ptr %3, align 8, !tbaa !37
  %98 = icmp eq ptr %97, %85
  br i1 %98, label %125, label %99

99:                                               ; preds = %94
  call void @_ZdlPv(ptr noundef %97) #23
  br label %125

100:                                              ; preds = %87
  %101 = landingpad { ptr, i32 }
          cleanup
  %102 = load ptr, ptr %3, align 8, !tbaa !37
  %103 = icmp eq ptr %102, %85
  br i1 %103, label %105, label %104

104:                                              ; preds = %100
  call void @_ZdlPv(ptr noundef %102) #23
  br label %105

105:                                              ; preds = %104, %100
  call void @llvm.lifetime.end.p0(i64 32, ptr nonnull %3) #20
  br label %126

106:                                              ; preds = %69, %60
  %107 = landingpad { ptr, i32 }
          cleanup
  br label %126

108:                                              ; preds = %65, %110
  %109 = phi i64 [ %111, %110 ], [ %64, %65 ]
  fence syncscope("singlethread") acq_rel
  br label %113

110:                                              ; preds = %113
  %111 = add i64 %109, -1
  %112 = icmp eq i64 %111, 0
  br i1 %112, label %69, label %108, !prof !29

113:                                              ; preds = %108, %113
  %114 = phi i64 [ 0, %108 ], [ %123, %113 ]
  call void @llvm.lifetime.start.p0(i64 1, ptr nonnull %6) #20
  %115 = load ptr, ptr %4, align 8, !tbaa !5
  %116 = shl nuw nsw i64 %114, 1
  %117 = getelementptr inbounds i8, ptr %115, i64 %116
  %118 = load ptr, ptr %5, align 8, !tbaa !5
  %119 = getelementptr inbounds i8, ptr %118, i64 %116
  %120 = call i32 @bcmp(ptr noundef nonnull dereferenceable(2) %117, ptr noundef nonnull dereferenceable(2) %119, i64 2)
  %121 = icmp eq i32 %120, 0
  %122 = zext i1 %121 to i8
  store i8 %122, ptr %6, align 1, !tbaa !50
  call void asm sideeffect "", "=*r|m,0,~{memory},~{dirflag},~{fpsr},~{flags}"(ptr nonnull elementtype(i8) %6, i1 %121) #20, !srcloc !9
  call void @llvm.lifetime.end.p0(i64 1, ptr nonnull %6) #20
  %123 = add nuw nsw i64 %114, 1
  %124 = icmp eq i64 %123, 2048
  br i1 %124, label %110, label %113, !llvm.loop !79

125:                                              ; preds = %99, %94
  call void @llvm.lifetime.end.p0(i64 32, ptr nonnull %3) #20
  call void @llvm.lifetime.end.p0(i64 8, ptr nonnull %5) #20
  call void @llvm.lifetime.end.p0(i64 8, ptr nonnull %4) #20
  call void @_ZdlPv(ptr noundef nonnull %8) #23
  call void @_ZdlPv(ptr noundef nonnull %7) #23
  ret void

126:                                              ; preds = %106, %58, %105
  %127 = phi { ptr, i32 } [ %59, %58 ], [ %101, %105 ], [ %107, %106 ]
  call void @llvm.lifetime.end.p0(i64 8, ptr nonnull %5) #20
  call void @llvm.lifetime.end.p0(i64 8, ptr nonnull %4) #20
  call void @_ZdlPv(ptr noundef nonnull %8) #23
  br label %128

128:                                              ; preds = %126, %18
  %129 = phi { ptr, i32 } [ %127, %126 ], [ %19, %18 ]
  call void @_ZdlPv(ptr noundef nonnull %7) #23
  resume { ptr, i32 } %129
}

; Function Attrs: uwtable
define linkonce_odr dso_local void @_Z9BM_MemCmpILi2E12LessThanZero4NoneEvRN9benchmark5StateE(ptr noundef nonnull align 8 dereferenceable(144) %0) #6 comdat personality ptr @__gxx_personality_v0 {
  %2 = alloca i64, align 8
  %3 = alloca %"class.std::__cxx11::basic_string", align 8
  %4 = alloca ptr, align 8
  %5 = alloca ptr, align 8
  %6 = alloca i8, align 1
  %7 = tail call noalias noundef nonnull dereferenceable(4096) ptr @_Znwm(i64 noundef 4096) #19
  tail call void @llvm.memset.p0.i64(ptr noundef nonnull align 1 dereferenceable(4096) %7, i8 0, i64 4096, i1 false)
  %8 = invoke noalias noundef nonnull dereferenceable(4096) ptr @_Znwm(i64 noundef 4096) #19
          to label %9 unwind label %14

9:                                                ; preds = %1
  tail call void @llvm.memset.p0.i64(ptr noundef nonnull align 1 dereferenceable(4096) %8, i8 0, i64 4096, i1 false)
  call void @llvm.lifetime.start.p0(i64 8, ptr nonnull %4) #20
  store ptr %7, ptr %4, align 8, !tbaa !5
  call void @llvm.lifetime.start.p0(i64 8, ptr nonnull %5) #20
  store ptr %8, ptr %5, align 8, !tbaa !5
  %10 = tail call noundef i32 @_Z10RealMemCmpPKcS0_m(ptr noundef nonnull %7, ptr noundef nonnull %8, i64 noundef 2) #21
  %11 = tail call i32 @memcmp(ptr noundef nonnull dereferenceable(2) %7, ptr noundef nonnull dereferenceable(2) %8, i64 noundef 2) #18
  %12 = xor i32 %11, %10
  %13 = icmp slt i32 %12, 0
  br i1 %13, label %16, label %33

14:                                               ; preds = %1
  %15 = landingpad { ptr, i32 }
          cleanup
  br label %102

16:                                               ; preds = %9
  %17 = invoke noundef nonnull align 8 dereferenceable(8) ptr @_ZSt16__ostream_insertIcSt11char_traitsIcEERSt13basic_ostreamIT_T0_ES6_PKS3_l(ptr noundef nonnull align 8 dereferenceable(8) @_ZSt4cerr, ptr noundef nonnull @.str.337, i64 noundef 25)
          to label %18 unwind label %31

18:                                               ; preds = %16
  %19 = invoke noundef nonnull align 8 dereferenceable(8) ptr @_ZSt16__ostream_insertIcSt11char_traitsIcEERSt13basic_ostreamIT_T0_ES6_PKS3_l(ptr noundef nonnull align 8 dereferenceable(8) @_ZSt4cerr, ptr noundef nonnull @_ZN12LessThanZero8kDisplayE, i64 noundef 12)
          to label %20 unwind label %31

20:                                               ; preds = %18
  %21 = invoke noundef nonnull align 8 dereferenceable(8) ptr @_ZSt16__ostream_insertIcSt11char_traitsIcEERSt13basic_ostreamIT_T0_ES6_PKS3_l(ptr noundef nonnull align 8 dereferenceable(8) @_ZSt4cerr, ptr noundef nonnull @.str.338, i64 noundef 5)
          to label %22 unwind label %31

22:                                               ; preds = %20
  %23 = invoke noundef nonnull align 8 dereferenceable(8) ptr @_ZSt16__ostream_insertIcSt11char_traitsIcEERSt13basic_ostreamIT_T0_ES6_PKS3_l(ptr noundef nonnull align 8 dereferenceable(8) @_ZSt4cerr, ptr noundef nonnull @_ZN4None8kDisplayE, i64 noundef 4)
          to label %24 unwind label %31

24:                                               ; preds = %22
  %25 = invoke noundef nonnull align 8 dereferenceable(8) ptr @_ZSt16__ostream_insertIcSt11char_traitsIcEERSt13basic_ostreamIT_T0_ES6_PKS3_l(ptr noundef nonnull align 8 dereferenceable(8) @_ZSt4cerr, ptr noundef nonnull @.str.339, i64 noundef 7)
          to label %26 unwind label %31

26:                                               ; preds = %24
  %27 = invoke noundef nonnull align 8 dereferenceable(8) ptr @_ZNSolsEi(ptr noundef nonnull align 8 dereferenceable(8) @_ZSt4cerr, i32 noundef 2)
          to label %28 unwind label %31

28:                                               ; preds = %26
  %29 = invoke noundef nonnull align 8 dereferenceable(8) ptr @_ZSt4endlIcSt11char_traitsIcEERSt13basic_ostreamIT_T0_ES6_(ptr noundef nonnull align 8 dereferenceable(8) %27)
          to label %30 unwind label %31

30:                                               ; preds = %28
  tail call void @exit(i32 noundef 1) #22
  unreachable

31:                                               ; preds = %28, %24, %22, %20, %18, %16, %56, %26
  %32 = landingpad { ptr, i32 }
          cleanup
  br label %100

33:                                               ; preds = %9
  call void asm sideeffect "", "=*r|m,0,~{memory},~{dirflag},~{fpsr},~{flags}"(ptr nonnull elementtype(ptr) %4, ptr nonnull %7) #20, !srcloc !9
  call void asm sideeffect "", "=*r|m,0,~{memory},~{dirflag},~{fpsr},~{flags}"(ptr nonnull elementtype(ptr) %5, ptr nonnull %8) #20, !srcloc !9
  %34 = getelementptr inbounds %"class.benchmark::State", ptr %0, i64 0, i32 5
  %35 = load i8, ptr %34, align 2, !tbaa !10, !range !27, !noundef !28
  %36 = getelementptr inbounds %"class.benchmark::State", ptr %0, i64 0, i32 2
  %37 = load i64, ptr %36, align 8
  invoke void @_ZN9benchmark5State16StartKeepRunningEv(ptr noundef nonnull align 8 dereferenceable(144) %0)
          to label %38 unwind label %79

38:                                               ; preds = %33
  %39 = icmp ne i8 %35, 0
  %40 = icmp eq i64 %37, 0
  %41 = select i1 %39, i1 true, i1 %40
  br i1 %41, label %42, label %81, !prof !29

42:                                               ; preds = %83, %38
  invoke void @_ZN9benchmark5State17FinishKeepRunningEv(ptr noundef nonnull align 8 dereferenceable(144) %0)
          to label %43 unwind label %79

43:                                               ; preds = %42
  %44 = getelementptr inbounds %"class.benchmark::State", ptr %0, i64 0, i32 3
  %45 = load i8, ptr %44, align 8, !tbaa !30, !range !27, !noundef !28
  %46 = icmp eq i8 %45, 0
  br i1 %46, label %56, label %47, !prof !29

47:                                               ; preds = %43
  %48 = load i64, ptr %36, align 8, !tbaa !31
  %49 = load i64, ptr %0, align 8, !tbaa !32
  %50 = sub i64 %48, %49
  %51 = getelementptr inbounds %"class.benchmark::State", ptr %0, i64 0, i32 1
  %52 = load i64, ptr %51, align 8, !tbaa !33
  %53 = add i64 %50, %52
  %54 = shl i64 %53, 12
  %55 = sitofp i64 %54 to double
  br label %56

56:                                               ; preds = %43, %47
  %57 = phi double [ %55, %47 ], [ 0.000000e+00, %43 ]
  call void @llvm.lifetime.start.p0(i64 32, ptr nonnull %3) #20
  %58 = getelementptr inbounds %"class.std::__cxx11::basic_string", ptr %3, i64 0, i32 2
  store ptr %58, ptr %3, align 8, !tbaa !34
  call void @llvm.lifetime.start.p0(i64 8, ptr nonnull %2) #20
  store i64 16, ptr %2, align 8, !tbaa !36
