; ModuleID = '/usr/local/google/home/aeubanks/repos/test-suite/MultiSource/Benchmarks/7zip/CPP/7zip/Archive/7z/7zUpdate.cpp'
source_filename = "/usr/local/google/home/aeubanks/repos/test-suite/MultiSource/Benchmarks/7zip/CPP/7zip/Archive/7z/7zUpdate.cpp"
target datalayout = "e-m:e-p270:32:32-p271:32:32-p272:64:64-i64:64-f80:128-n8:16:32:64-S128"
target triple = "x86_64-unknown-linux-gnu"

%struct.GUID = type { i32, i16, i16, [8 x i8] }
%"struct.NArchive::N7z::CUpdateItem" = type <{ i32, i32, i64, i64, i64, i64, %class.CStringBase, i32, i8, i8, i8, i8, i8, i8, i8, i8, [4 x i8] }>
%class.CStringBase = type { ptr, i32, i32 }
%"class.NArchive::N7z::CFolderOutStream2" = type { %struct.ISequentialOutStream, %class.CMyUnknownImp, ptr, %class.CMyComPtr, ptr, ptr, %class.CMyComPtr, i32, i32, i8, i64 }
%struct.ISequentialOutStream = type { %struct.IUnknown }
%struct.IUnknown = type { ptr }
%class.CMyUnknownImp = type { i32 }
%class.CMyComPtr = type { ptr }
%class.CBaseRecordVector = type { ptr, i32, i32, ptr, i64 }
%"struct.NArchive::N7z::CArchiveDatabase" = type { %class.CRecordVector, %class.CRecordVector.0, %class.CRecordVector.1, %class.CObjectVector, %class.CRecordVector.1, %class.CObjectVector.3, %"struct.NArchive::N7z::CUInt64DefVector", %"struct.NArchive::N7z::CUInt64DefVector", %"struct.NArchive::N7z::CUInt64DefVector", %"struct.NArchive::N7z::CUInt64DefVector", %class.CRecordVector.0 }
%class.CRecordVector = type { %class.CBaseRecordVector }
%class.CObjectVector = type { %class.CRecordVector.2 }
%class.CRecordVector.2 = type { %class.CBaseRecordVector }
%class.CRecordVector.1 = type { %class.CBaseRecordVector }
%class.CObjectVector.3 = type { %class.CRecordVector.2 }
%"struct.NArchive::N7z::CUInt64DefVector" = type { %class.CRecordVector, %class.CRecordVector.0 }
%class.CRecordVector.0 = type { %class.CBaseRecordVector }
%class.COutStreamWithCRC = type <{ %struct.ISequentialOutStream, %class.CMyUnknownImp, [4 x i8], %class.CMyComPtr, i64, i32, i8, [3 x i8] }>
%"struct.NArchive::N7z::CFileItem" = type <{ i64, i32, i32, %class.CStringBase, i8, i8, i8, i8, [4 x i8] }>
%"class.NArchive::N7z::CThreadDecoder" = type { %struct.CVirtThread.base, i32, %class.CMyComPtr.4, ptr, %class.CMyComPtr, i64, ptr, ptr, %class.CMyComPtr.7, %"class.NArchive::N7z::CDecoder", i8, i32 }
%struct.CVirtThread.base = type <{ ptr, %"class.NWindows::NSynchronization::CAutoResetEvent", %"class.NWindows::NSynchronization::CAutoResetEvent", %"class.NWindows::CThread", i8 }>
%"class.NWindows::NSynchronization::CAutoResetEvent" = type { %"class.NWindows::NSynchronization::CBaseEvent" }
%"class.NWindows::NSynchronization::CBaseEvent" = type { %struct._CEvent }
%struct._CEvent = type { i32, i32, i32, %union.pthread_mutex_t, %union.pthread_cond_t }
%union.pthread_mutex_t = type { %struct.__pthread_mutex_s }
%struct.__pthread_mutex_s = type { i32, i32, i32, i32, i32, i16, i16, %struct.__pthread_internal_list }
%struct.__pthread_internal_list = type { ptr, ptr }
%union.pthread_cond_t = type { %struct.__pthread_cond_s }
%struct.__pthread_cond_s = type { %union.__atomic_wide_counter, %union.__atomic_wide_counter, [2 x i32], [2 x i32], i32, i32, [2 x i32] }
%union.__atomic_wide_counter = type { i64 }
%"class.NWindows::CThread" = type { %struct._CThread }
%struct._CThread = type { i64, i32 }
%class.CMyComPtr.4 = type { ptr }
%class.CMyComPtr.7 = type { ptr }
%"class.NArchive::N7z::CDecoder" = type { i8, %"struct.NArchive::N7z::CBindInfoEx", i8, ptr, ptr, %class.CMyComPtr.12, %class.CObjectVector.13 }
%"struct.NArchive::N7z::CBindInfoEx" = type { %"struct.NCoderMixer::CBindInfo", %class.CRecordVector }
%"struct.NCoderMixer::CBindInfo" = type { %class.CRecordVector.8, %class.CRecordVector.9, %class.CRecordVector.1, %class.CRecordVector.1 }
%class.CRecordVector.8 = type { %class.CBaseRecordVector }
%class.CRecordVector.9 = type { %class.CBaseRecordVector }
%class.CMyComPtr.12 = type { ptr }
%class.CObjectVector.13 = type { %class.CRecordVector.2 }
%"class.NArchive::N7z::CCryptoGetTextPassword" = type { %struct.ICryptoGetTextPassword, %class.CMyUnknownImp, %class.CStringBase }
%struct.ICryptoGetTextPassword = type { %struct.IUnknown }
%"struct.NArchive::N7z::CRefItem" = type { ptr, i32, i32, i32, i32 }
%"struct.NArchive::N7z::CMethodFull" = type { %struct.CMethod, i32, i32 }
%struct.CMethod = type { i64, %class.CObjectVector.30 }
%class.CObjectVector.30 = type { %class.CRecordVector.2 }
%struct.CProp = type { i32, %"class.NWindows::NCOM::CPropVariant" }
%"class.NWindows::NCOM::CPropVariant" = type { %struct.tagPROPVARIANT }
%struct.tagPROPVARIANT = type { i16, i16, i16, i16, %union.anon }
%union.anon = type { %struct.LARGE_INTEGER }
%struct.LARGE_INTEGER = type { i64 }
%"class.NWindows::NFile::NIO::CInFile" = type { %"class.NWindows::NFile::NIO::CFileBase.base", [4 x i8] }
%"class.NWindows::NFile::NIO::CFileBase.base" = type <{ ptr, i32, [4 x i8], %class.CStringBase.29, i64, i64, i32, [1025 x i8], [3 x i8], i32 }>
%class.CStringBase.29 = type { ptr, i32, i32 }
%class.CRecordVector.18 = type { %class.CBaseRecordVector }
%class.CRecordVector.19 = type { %class.CBaseRecordVector }
%class.CObjectVector.22 = type { %class.CRecordVector.2 }
%"struct.NArchive::N7z::CSolidGroup" = type { %class.CRecordVector.1 }
%class.CMyComBSTR = type { ptr }
%"struct.NArchive::N7z::CCompressionMethodMode" = type { %class.CObjectVector.16, %class.CRecordVector.17, i32, i8, %class.CStringBase }
%class.CObjectVector.16 = type { %class.CRecordVector.2 }
%class.CRecordVector.17 = type { %class.CBaseRecordVector }
%"class.NArchive::N7z::CEncoder" = type <{ ptr, %class.CMyComPtr.12, %class.CObjectVector.5, %"struct.NArchive::N7z::CCompressionMethodMode", %"struct.NCoderMixer::CBindInfo", %"struct.NCoderMixer::CBindInfo", ptr, %class.CRecordVector, i8, [7 x i8] }>
%class.CObjectVector.5 = type { %class.CRecordVector.2 }
%class.CStreamBinder = type { %"class.NWindows::NSynchronization::CManualResetEventWFMO", %"class.NWindows::NSynchronization::CManualResetEvent", %"class.NWindows::NSynchronization::CManualResetEventWFMO", ptr, i32, ptr, i64 }
%"class.NWindows::NSynchronization::CManualResetEvent" = type { %"class.NWindows::NSynchronization::CBaseEvent" }
%"class.NWindows::NSynchronization::CManualResetEventWFMO" = type { %"class.NWindows::NSynchronization::CBaseEventWFMO.base", [6 x i8] }
%"class.NWindows::NSynchronization::CBaseEventWFMO.base" = type <{ %"struct.NWindows::NSynchronization::CBaseHandleWFMO", i8, i8 }>
%"struct.NWindows::NSynchronization::CBaseHandleWFMO" = type { ptr, ptr }
%class.CMyComPtr.23 = type { ptr }
%"struct.NArchive::N7z::CFolder" = type <{ %class.CObjectVector.5, %class.CRecordVector.6, %class.CRecordVector.1, %class.CRecordVector, i32, i8, [3 x i8] }>
%class.CRecordVector.6 = type { %class.CBaseRecordVector }
%"struct.NArchive::N7z::CFileItem2" = type { i64, i64, i64, i64, i8, i8, i8, i8, i8 }
%class.CRecordVector.24 = type { %class.CBaseRecordVector }
%"struct.NArchive::N7z::CUpdateOptions" = type <{ ptr, ptr, i8, i8, %"struct.NArchive::N7z::CHeaderOptions", [2 x i8], i64, i64, i8, i8, i8, [5 x i8] }>
%"struct.NArchive::N7z::CHeaderOptions" = type { i8, i8, i8, i8 }
%"struct.NArchive::N7z::CArchiveDatabaseEx" = type { %"struct.NArchive::N7z::CArchiveDatabase", %"struct.NArchive::N7z::CInArchiveInfo", %class.CRecordVector, %class.CRecordVector.1, %class.CRecordVector.1, %class.CRecordVector.1, i64, i64 }
%"struct.NArchive::N7z::CInArchiveInfo" = type { %"struct.NArchive::N7z::CArchiveVersion", i64, i64, i64, i64, %class.CRecordVector }
%"struct.NArchive::N7z::CArchiveVersion" = type { i8, i8 }
%"struct.NArchive::N7z::CFolderRepack" = type { i32, i32, i32 }
%"class.NWindows::NFile::NIO::CFileBase" = type <{ ptr, i32, [4 x i8], %class.CStringBase.29, i64, i64, i32, [1025 x i8], [3 x i8], i32, [4 x i8] }>
%class.CLocalProgress = type <{ %struct.ICompressProgressInfo, %class.CMyUnknownImp, [4 x i8], %class.CMyComPtr.20, %class.CMyComPtr.21, i8, [7 x i8], i64, i64, i64, i8, i8, [6 x i8] }>
%struct.ICompressProgressInfo = type { %struct.IUnknown }
%class.CMyComPtr.20 = type { ptr }
%class.CMyComPtr.21 = type { ptr }
%"class.NArchive::N7z::COutArchive" = type { i64, i8, i8, i64, i32, [4 x i8], %class.COutBuffer, %"class.NArchive::N7z::CWriteBufferLoc", %class.CMyComPtr.15, %class.CMyComPtr }
%class.COutBuffer = type <{ ptr, i32, i32, i32, i32, %class.CMyComPtr, i64, ptr, i8, [7 x i8] }>
%"class.NArchive::N7z::CWriteBufferLoc" = type { ptr, i64, i64 }
%class.CMyComPtr.15 = type { ptr }
%struct.CVirtThread = type <{ ptr, %"class.NWindows::NSynchronization::CAutoResetEvent", %"class.NWindows::NSynchronization::CAutoResetEvent", %"class.NWindows::CThread", i8, [7 x i8] }>
%"struct.NArchive::N7z::CBind" = type { i32, i32, i32, i32 }
%"struct.NArchive::N7z::CBindPair" = type { i32, i32 }
%"class.NWindows::NSynchronization::CSynchro" = type <{ %union.pthread_mutex_t, %union.pthread_cond_t, i8, [7 x i8] }>
%"class.NArchive::N7z::CFolderInStream" = type { %struct.ISequentialInStream, %struct.ICompressGetSubStreamSize, %class.CMyUnknownImp, ptr, %class.CMyComPtr.23, %class.CMyComPtr.25, i8, i8, i64, i64, ptr, i32, i32, %class.CRecordVector.0, %class.CRecordVector.1, %class.CRecordVector }
%struct.ISequentialInStream = type { %struct.IUnknown }
%struct.ICompressGetSubStreamSize = type { %struct.IUnknown }
%class.CMyComPtr.25 = type { ptr }
%class.CLimitedSequentialInStream = type <{ %struct.ISequentialInStream, %class.CMyUnknownImp, [4 x i8], %class.CMyComPtr.23, i64, i64, i8, [7 x i8] }>
%"class.NCompress::CCopyCoder" = type { %struct.ICompressCoder, %struct.ICompressGetInStreamProcessedSize, %class.CMyUnknownImp, ptr, i64 }
%struct.ICompressCoder = type { %struct.IUnknown }
%struct.ICompressGetInStreamProcessedSize = type { %struct.IUnknown }
%"struct.NArchive::N7z::CCoderInfo" = type { i64, %class.CBuffer, i32, i32 }
%class.CBuffer = type { ptr, i64, ptr }
%"class.NWindows::NSynchronization::CBaseEventWFMO" = type <{ %"struct.NWindows::NSynchronization::CBaseHandleWFMO", i8, i8, [6 x i8] }>

$_ZN13CRecordVectorIN8NArchive3N7z13CFolderRepackEE4SortEPFiPKS2_S5_PvES6_ = comdat any

$_ZN8NArchive3N7z14CThreadDecoderC2Ev = comdat any

$_ZN13CObjectVectorIN8NArchive3N7z11CSolidGroupEE3AddERKS2_ = comdat any

$_ZN11CStringBaseIwEaSEPKw = comdat any

$_ZN8NArchive3N7z22CCompressionMethodModeaSERKS1_ = comdat any

$_ZN8NArchive3N7z7CFolderD2Ev = comdat any

$_ZN13CStreamBinderD2Ev = comdat any

$_ZN8NArchive3N7z8CRefItemC2EjRKNS0_11CUpdateItemEb = comdat any

$_ZN8NArchive3N7z22CCompressionMethodModeD2Ev = comdat any

$_ZN13CRecordVectorIiE4SortEPFiPKiS2_PvES3_ = comdat any

$_ZN8NArchive3N7z16CArchiveDatabase11ReserveDownEv = comdat any

$_ZN13CObjectVectorIN8NArchive3N7z11CSolidGroupEED2Ev = comdat any

$_ZN8NArchive3N7z14CThreadDecoderD2Ev = comdat any

$_ZN8NArchive3N7z17CFolderOutStream214QueryInterfaceERK4GUIDPPv = comdat any

$_ZN8NArchive3N7z17CFolderOutStream26AddRefEv = comdat any

$_ZN8NArchive3N7z17CFolderOutStream27ReleaseEv = comdat any

$_ZN8NArchive3N7z17CFolderOutStream2D2Ev = comdat any

$_ZN8NArchive3N7z17CFolderOutStream2D0Ev = comdat any

$_ZN8NArchive3N7z22CCryptoGetTextPassword14QueryInterfaceERK4GUIDPPv = comdat any

$_ZN8NArchive3N7z22CCryptoGetTextPassword6AddRefEv = comdat any

$_ZN8NArchive3N7z22CCryptoGetTextPassword7ReleaseEv = comdat any

$_ZN8NArchive3N7z22CCryptoGetTextPasswordD2Ev = comdat any

$_ZN8NArchive3N7z22CCryptoGetTextPasswordD0Ev = comdat any

$__clang_call_terminate = comdat any

$_ZN8NArchive3N7z17CFolderOutStream2C2Ev = comdat any

$_ZN8NArchive3N7z8CDecoderD2Ev = comdat any

$_ZN13CObjectVectorI9CMyComPtrI8IUnknownEED2Ev = comdat any

$_ZN13CObjectVectorI9CMyComPtrI8IUnknownEED0Ev = comdat any

$_ZN13CObjectVectorI9CMyComPtrI8IUnknownEE6DeleteEii = comdat any

$_ZN8NWindows5NFile3NIO7CInFileD0Ev = comdat any

$_ZN13CObjectVectorIN8NArchive3N7z11CMethodFullEED2Ev = comdat any

$_ZN13CObjectVectorIN8NArchive3N7z11CMethodFullEED0Ev = comdat any

$_ZN13CObjectVectorIN8NArchive3N7z11CMethodFullEE6DeleteEii = comdat any

$_ZN7CMethodD2Ev = comdat any

$_ZN13CObjectVectorI5CPropED2Ev = comdat any

$_ZN13CObjectVectorI5CPropED0Ev = comdat any

$_ZN13CObjectVectorI5CPropE6DeleteEii = comdat any

$_ZN13CRecordVectorIN8NArchive3N7z5CBindEED0Ev = comdat any

$_ZN13CObjectVectorI5CPropEaSERKS1_ = comdat any

$_ZN13CObjectVectorIN8NArchive3N7z11CMethodFullEEpLERKS3_ = comdat any

$_ZN8NWindows16NSynchronization14CBaseEventWFMO19IsSignaledAndUpdateEv = comdat any

$_ZN13CObjectVectorIN8NArchive3N7z10CCoderInfoEED2Ev = comdat any

$_ZN13CObjectVectorIN8NArchive3N7z10CCoderInfoEED0Ev = comdat any

$_ZN13CObjectVectorIN8NArchive3N7z10CCoderInfoEE6DeleteEii = comdat any

$_ZN7CBufferIhED2Ev = comdat any

$_ZN7CBufferIhED0Ev = comdat any

$_ZN13CRecordVectorIN8NArchive3N7z9CBindPairEED0Ev = comdat any

$_ZN13CRecordVectorIyED0Ev = comdat any

$_ZN13CRecordVectorIjED0Ev = comdat any

$_ZNK11CStringBaseIwE3MidEii = comdat any

$_ZN13CRecordVectorIiED0Ev = comdat any

$_ZN13CRecordVectorIN8NArchive3N7z13CFolderRepackEED0Ev = comdat any

$_ZN13CObjectVectorIN8NArchive3N7z11CSolidGroupEED0Ev = comdat any

$_ZN13CObjectVectorIN8NArchive3N7z11CSolidGroupEE6DeleteEii = comdat any

$_ZN8NArchive3N7z7CFolderC2ERKS1_ = comdat any

$_ZN13CObjectVectorIN8NArchive3N7z10CCoderInfoEEpLERKS3_ = comdat any

$_ZN13CRecordVectorIbED0Ev = comdat any

$_ZN13CRecordVectorIN8NArchive3N7z8CRefItemEED0Ev = comdat any

$_ZTS20ISequentialOutStream = comdat any

$_ZTS8IUnknown = comdat any

$_ZTI8IUnknown = comdat any

$_ZTI20ISequentialOutStream = comdat any

$_ZTS13CMyUnknownImp = comdat any

$_ZTI13CMyUnknownImp = comdat any

$_ZTS11CVirtThread = comdat any

$_ZTI11CVirtThread = comdat any

$_ZTS22ICryptoGetTextPassword = comdat any

$_ZTI22ICryptoGetTextPassword = comdat any

$_ZTV13CObjectVectorI9CMyComPtrI8IUnknownEE = comdat any

$_ZTS13CObjectVectorI9CMyComPtrI8IUnknownEE = comdat any

$_ZTS13CRecordVectorIPvE = comdat any

$_ZTI13CRecordVectorIPvE = comdat any

$_ZTI13CObjectVectorI9CMyComPtrI8IUnknownEE = comdat any

$_ZTVN8NWindows5NFile3NIO7CInFileE = comdat any

$_ZTSN8NWindows5NFile3NIO7CInFileE = comdat any

$_ZTIN8NWindows5NFile3NIO7CInFileE = comdat any

$_ZTV13CObjectVectorIN8NArchive3N7z11CMethodFullEE = comdat any

$_ZTS13CObjectVectorIN8NArchive3N7z11CMethodFullEE = comdat any

$_ZTI13CObjectVectorIN8NArchive3N7z11CMethodFullEE = comdat any

$_ZTV13CObjectVectorI5CPropE = comdat any

$_ZTS13CObjectVectorI5CPropE = comdat any

$_ZTI13CObjectVectorI5CPropE = comdat any

$_ZTV13CRecordVectorIN8NArchive3N7z5CBindEE = comdat any

$_ZTS13CRecordVectorIN8NArchive3N7z5CBindEE = comdat any

$_ZTI13CRecordVectorIN8NArchive3N7z5CBindEE = comdat any

$_ZTVN8NWindows16NSynchronization21CManualResetEventWFMOE = comdat any

$_ZTSN8NWindows16NSynchronization21CManualResetEventWFMOE = comdat any

$_ZTSN8NWindows16NSynchronization14CBaseEventWFMOE = comdat any

$_ZTSN8NWindows16NSynchronization15CBaseHandleWFMOE = comdat any

$_ZTIN8NWindows16NSynchronization15CBaseHandleWFMOE = comdat any

$_ZTIN8NWindows16NSynchronization14CBaseEventWFMOE = comdat any

$_ZTIN8NWindows16NSynchronization21CManualResetEventWFMOE = comdat any

$_ZTVN8NWindows16NSynchronization14CBaseEventWFMOE = comdat any

$_ZTV13CObjectVectorIN8NArchive3N7z10CCoderInfoEE = comdat any

$_ZTS13CObjectVectorIN8NArchive3N7z10CCoderInfoEE = comdat any

$_ZTI13CObjectVectorIN8NArchive3N7z10CCoderInfoEE = comdat any

$_ZTV7CBufferIhE = comdat any

$_ZTS7CBufferIhE = comdat any

$_ZTI7CBufferIhE = comdat any

$_ZTV13CRecordVectorIN8NArchive3N7z9CBindPairEE = comdat any

$_ZTS13CRecordVectorIN8NArchive3N7z9CBindPairEE = comdat any

$_ZTI13CRecordVectorIN8NArchive3N7z9CBindPairEE = comdat any

$_ZTV13CRecordVectorIyE = comdat any

$_ZTS13CRecordVectorIyE = comdat any

$_ZTI13CRecordVectorIyE = comdat any

$_ZTV13CRecordVectorIjE = comdat any

$_ZTS13CRecordVectorIjE = comdat any

$_ZTI13CRecordVectorIjE = comdat any

$_ZTV13CRecordVectorIiE = comdat any

$_ZTS13CRecordVectorIiE = comdat any

$_ZTI13CRecordVectorIiE = comdat any

$_ZTV13CRecordVectorIN8NArchive3N7z13CFolderRepackEE = comdat any

$_ZTS13CRecordVectorIN8NArchive3N7z13CFolderRepackEE = comdat any

$_ZTI13CRecordVectorIN8NArchive3N7z13CFolderRepackEE = comdat any

$_ZTV13CObjectVectorIN8NArchive3N7z11CSolidGroupEE = comdat any

$_ZTS13CObjectVectorIN8NArchive3N7z11CSolidGroupEE = comdat any

$_ZTI13CObjectVectorIN8NArchive3N7z11CSolidGroupEE = comdat any

$_ZTV13CRecordVectorIbE = comdat any

$_ZTS13CRecordVectorIbE = comdat any

$_ZTI13CRecordVectorIbE = comdat any

$_ZTV13CRecordVectorIN8NArchive3N7z8CRefItemEE = comdat any

$_ZTS13CRecordVectorIN8NArchive3N7z8CRefItemEE = comdat any

$_ZTI13CRecordVectorIN8NArchive3N7z8CRefItemEE = comdat any

@_ZTVN8NArchive3N7z17CFolderOutStream2E = dso_local unnamed_addr constant { [8 x ptr] } { [8 x ptr] [ptr null, ptr @_ZTIN8NArchive3N7z17CFolderOutStream2E, ptr @_ZN8NArchive3N7z17CFolderOutStream214QueryInterfaceERK4GUIDPPv, ptr @_ZN8NArchive3N7z17CFolderOutStream26AddRefEv, ptr @_ZN8NArchive3N7z17CFolderOutStream27ReleaseEv, ptr @_ZN8NArchive3N7z17CFolderOutStream2D2Ev, ptr @_ZN8NArchive3N7z17CFolderOutStream2D0Ev, ptr @_ZN8NArchive3N7z17CFolderOutStream25WriteEPKvjPj] }, align 8
@_ZTVN10__cxxabiv121__vmi_class_type_infoE = external global ptr
@_ZTSN8NArchive3N7z17CFolderOutStream2E = dso_local constant [35 x i8] c"N8NArchive3N7z17CFolderOutStream2E\00", align 1
@_ZTVN10__cxxabiv120__si_class_type_infoE = external global ptr
@_ZTS20ISequentialOutStream = linkonce_odr dso_local constant [23 x i8] c"20ISequentialOutStream\00", comdat, align 1
@_ZTVN10__cxxabiv117__class_type_infoE = external global ptr
@_ZTS8IUnknown = linkonce_odr dso_local constant [10 x i8] c"8IUnknown\00", comdat, align 1
@_ZTI8IUnknown = linkonce_odr dso_local constant { ptr, ptr } { ptr getelementptr inbounds (ptr, ptr @_ZTVN10__cxxabiv117__class_type_infoE, i64 2), ptr @_ZTS8IUnknown }, comdat, align 8
@_ZTI20ISequentialOutStream = linkonce_odr dso_local constant { ptr, ptr, ptr } { ptr getelementptr inbounds (ptr, ptr @_ZTVN10__cxxabiv120__si_class_type_infoE, i64 2), ptr @_ZTS20ISequentialOutStream, ptr @_ZTI8IUnknown }, comdat, align 8
@_ZTS13CMyUnknownImp = linkonce_odr dso_local constant [16 x i8] c"13CMyUnknownImp\00", comdat, align 1
@_ZTI13CMyUnknownImp = linkonce_odr dso_local constant { ptr, ptr } { ptr getelementptr inbounds (ptr, ptr @_ZTVN10__cxxabiv117__class_type_infoE, i64 2), ptr @_ZTS13CMyUnknownImp }, comdat, align 8
@_ZTIN8NArchive3N7z17CFolderOutStream2E = dso_local constant { ptr, ptr, i32, i32, ptr, i64, ptr, i64 } { ptr getelementptr inbounds (ptr, ptr @_ZTVN10__cxxabiv121__vmi_class_type_infoE, i64 2), ptr @_ZTSN8NArchive3N7z17CFolderOutStream2E, i32 0, i32 2, ptr @_ZTI20ISequentialOutStream, i64 2, ptr @_ZTI13CMyUnknownImp, i64 2050 }, align 8
@_ZTVN8NArchive3N7z14CThreadDecoderE = dso_local unnamed_addr constant { [3 x ptr] } { [3 x ptr] [ptr null, ptr @_ZTIN8NArchive3N7z14CThreadDecoderE, ptr @_ZN8NArchive3N7z14CThreadDecoder7ExecuteEv] }, align 8
@_ZTSN8NArchive3N7z14CThreadDecoderE = dso_local constant [32 x i8] c"N8NArchive3N7z14CThreadDecoderE\00", align 1
@_ZTS11CVirtThread = linkonce_odr dso_local constant [14 x i8] c"11CVirtThread\00", comdat, align 1
@_ZTI11CVirtThread = linkonce_odr dso_local constant { ptr, ptr } { ptr getelementptr inbounds (ptr, ptr @_ZTVN10__cxxabiv117__class_type_infoE, i64 2), ptr @_ZTS11CVirtThread }, comdat, align 8
@_ZTIN8NArchive3N7z14CThreadDecoderE = dso_local constant { ptr, ptr, ptr } { ptr getelementptr inbounds (ptr, ptr @_ZTVN10__cxxabiv120__si_class_type_infoE, i64 2), ptr @_ZTSN8NArchive3N7z14CThreadDecoderE, ptr @_ZTI11CVirtThread }, align 8
@_ZTVN8NArchive3N7z22CCryptoGetTextPasswordE = dso_local unnamed_addr constant { [8 x ptr] } { [8 x ptr] [ptr null, ptr @_ZTIN8NArchive3N7z22CCryptoGetTextPasswordE, ptr @_ZN8NArchive3N7z22CCryptoGetTextPassword14QueryInterfaceERK4GUIDPPv, ptr @_ZN8NArchive3N7z22CCryptoGetTextPassword6AddRefEv, ptr @_ZN8NArchive3N7z22CCryptoGetTextPassword7ReleaseEv, ptr @_ZN8NArchive3N7z22CCryptoGetTextPasswordD2Ev, ptr @_ZN8NArchive3N7z22CCryptoGetTextPasswordD0Ev, ptr @_ZN8NArchive3N7z22CCryptoGetTextPassword21CryptoGetTextPasswordEPPw] }, align 8
@_ZTSN8NArchive3N7z22CCryptoGetTextPasswordE = dso_local constant [40 x i8] c"N8NArchive3N7z22CCryptoGetTextPasswordE\00", align 1
@_ZTS22ICryptoGetTextPassword = linkonce_odr dso_local constant [25 x i8] c"22ICryptoGetTextPassword\00", comdat, align 1
@_ZTI22ICryptoGetTextPassword = linkonce_odr dso_local constant { ptr, ptr, ptr } { ptr getelementptr inbounds (ptr, ptr @_ZTVN10__cxxabiv120__si_class_type_infoE, i64 2), ptr @_ZTS22ICryptoGetTextPassword, ptr @_ZTI8IUnknown }, comdat, align 8
@_ZTIN8NArchive3N7z22CCryptoGetTextPasswordE = dso_local constant { ptr, ptr, i32, i32, ptr, i64, ptr, i64 } { ptr getelementptr inbounds (ptr, ptr @_ZTVN10__cxxabiv121__vmi_class_type_infoE, i64 2), ptr @_ZTSN8NArchive3N7z22CCryptoGetTextPasswordE, i32 0, i32 2, ptr @_ZTI22ICryptoGetTextPassword, i64 2, ptr @_ZTI13CMyUnknownImp, i64 2050 }, align 8
@.str = private unnamed_addr constant [1104 x i8] c" lzma 7z ace arc arj bz bz2 deb lzo lzx gz pak rpm sit tgz tbz tbz2 tgz cab ha lha lzh rar zoo zip jar ear war msi 3gp avi mov mpeg mpg mpe wmv aac ape fla flac la mp3 m4a mp4 ofr ogg pac ra rm rka shn swa tta wv wma wav swf  chm hxi hxs gif jpeg jpg jp2 png tiff  bmp ico psd psp awg ps eps cgm dxf svg vrml wmf emf ai md cad dwg pps key sxi max 3ds iso bin nrg mdf img pdi tar cpio xpi vfd vhd vud vmc vsv vmdk dsk nvram vmem vmsd vmsn vmss vmtm inl inc idl acf asa h hpp hxx c cpp cxx rc java cs pas bas vb cls ctl frm dlg def f77 f f90 f95 asm sql manifest dep  mak clw csproj vcproj sln dsp dsw  class  bat cmd xml xsd xsl xslt hxk hxc htm html xhtml xht mht mhtml htw asp aspx css cgi jsp shtml awk sed hta js php php3 php4 php5 phptml pl pm py pyo rb sh tcl vbs text txt tex ans asc srt reg ini doc docx mcw dot rtf hlp xls xlr xlt xlw ppt pdf sxc sxd sxi sxg sxw stc sti stw stm odt ott odg otg odp otp ods ots odf abw afp cwk lwp wpd wps wpt wrf wri abf afm bdf fon mgf otf pcf pfa snf ttf dbf mdb nsf ntf wdb db fdb gdb exe dll ocx vbx sfx sys tlb awx com obj lib out o so  pdb pch idb ncb opt\00", align 1
@_ZTV26CLimitedSequentialInStream = external unnamed_addr constant { [8 x ptr] }, align 8
@_ZTVN9NCompress10CCopyCoderE = external unnamed_addr constant { [9 x ptr], [8 x ptr] }, align 8
@_ZTV17COutStreamWithCRC = external unnamed_addr constant { [8 x ptr] }, align 8
@_ZTV13CObjectVectorI9CMyComPtrI8IUnknownEE = linkonce_odr dso_local unnamed_addr constant { [5 x ptr] } { [5 x ptr] [ptr null, ptr @_ZTI13CObjectVectorI9CMyComPtrI8IUnknownEE, ptr @_ZN13CObjectVectorI9CMyComPtrI8IUnknownEED2Ev, ptr @_ZN13CObjectVectorI9CMyComPtrI8IUnknownEED0Ev, ptr @_ZN13CObjectVectorI9CMyComPtrI8IUnknownEE6DeleteEii] }, comdat, align 8
@_ZTS13CObjectVectorI9CMyComPtrI8IUnknownEE = linkonce_odr dso_local constant [39 x i8] c"13CObjectVectorI9CMyComPtrI8IUnknownEE\00", comdat, align 1
@_ZTS13CRecordVectorIPvE = linkonce_odr dso_local constant [20 x i8] c"13CRecordVectorIPvE\00", comdat, align 1
@_ZTI17CBaseRecordVector = external constant ptr
@_ZTI13CRecordVectorIPvE = linkonce_odr dso_local constant { ptr, ptr, ptr } { ptr getelementptr inbounds (ptr, ptr @_ZTVN10__cxxabiv120__si_class_type_infoE, i64 2), ptr @_ZTS13CRecordVectorIPvE, ptr @_ZTI17CBaseRecordVector }, comdat, align 8
@_ZTI13CObjectVectorI9CMyComPtrI8IUnknownEE = linkonce_odr dso_local constant { ptr, ptr, ptr } { ptr getelementptr inbounds (ptr, ptr @_ZTVN10__cxxabiv120__si_class_type_infoE, i64 2), ptr @_ZTS13CObjectVectorI9CMyComPtrI8IUnknownEE, ptr @_ZTI13CRecordVectorIPvE }, comdat, align 8
@_ZTVN8NWindows5NFile3NIO7CInFileE = linkonce_odr dso_local unnamed_addr constant { [5 x ptr] } { [5 x ptr] [ptr null, ptr @_ZTIN8NWindows5NFile3NIO7CInFileE, ptr @_ZN8NWindows5NFile3NIO9CFileBaseD2Ev, ptr @_ZN8NWindows5NFile3NIO7CInFileD0Ev, ptr @_ZN8NWindows5NFile3NIO9CFileBase5CloseEv] }, comdat, align 8
@_ZTSN8NWindows5NFile3NIO7CInFileE = linkonce_odr dso_local constant [30 x i8] c"N8NWindows5NFile3NIO7CInFileE\00", comdat, align 1
@_ZTIN8NWindows5NFile3NIO9CFileBaseE = external constant ptr
@_ZTIN8NWindows5NFile3NIO7CInFileE = linkonce_odr dso_local constant { ptr, ptr, ptr } { ptr getelementptr inbounds (ptr, ptr @_ZTVN10__cxxabiv120__si_class_type_infoE, i64 2), ptr @_ZTSN8NWindows5NFile3NIO7CInFileE, ptr @_ZTIN8NWindows5NFile3NIO9CFileBaseE }, comdat, align 8
@_ZTV13CObjectVectorIN8NArchive3N7z11CMethodFullEE = linkonce_odr dso_local unnamed_addr constant { [5 x ptr] } { [5 x ptr] [ptr null, ptr @_ZTI13CObjectVectorIN8NArchive3N7z11CMethodFullEE, ptr @_ZN13CObjectVectorIN8NArchive3N7z11CMethodFullEED2Ev, ptr @_ZN13CObjectVectorIN8NArchive3N7z11CMethodFullEED0Ev, ptr @_ZN13CObjectVectorIN8NArchive3N7z11CMethodFullEE6DeleteEii] }, comdat, align 8
@_ZTS13CObjectVectorIN8NArchive3N7z11CMethodFullEE = linkonce_odr dso_local constant [46 x i8] c"13CObjectVectorIN8NArchive3N7z11CMethodFullEE\00", comdat, align 1
@_ZTI13CObjectVectorIN8NArchive3N7z11CMethodFullEE = linkonce_odr dso_local constant { ptr, ptr, ptr } { ptr getelementptr inbounds (ptr, ptr @_ZTVN10__cxxabiv120__si_class_type_infoE, i64 2), ptr @_ZTS13CObjectVectorIN8NArchive3N7z11CMethodFullEE, ptr @_ZTI13CRecordVectorIPvE }, comdat, align 8
@_ZTV13CObjectVectorI5CPropE = linkonce_odr dso_local unnamed_addr constant { [5 x ptr] } { [5 x ptr] [ptr null, ptr @_ZTI13CObjectVectorI5CPropE, ptr @_ZN13CObjectVectorI5CPropED2Ev, ptr @_ZN13CObjectVectorI5CPropED0Ev, ptr @_ZN13CObjectVectorI5CPropE6DeleteEii] }, comdat, align 8
@_ZTS13CObjectVectorI5CPropE = linkonce_odr dso_local constant [24 x i8] c"13CObjectVectorI5CPropE\00", comdat, align 1
@_ZTI13CObjectVectorI5CPropE = linkonce_odr dso_local constant { ptr, ptr, ptr } { ptr getelementptr inbounds (ptr, ptr @_ZTVN10__cxxabiv120__si_class_type_infoE, i64 2), ptr @_ZTS13CObjectVectorI5CPropE, ptr @_ZTI13CRecordVectorIPvE }, comdat, align 8
@_ZTV13CRecordVectorIN8NArchive3N7z5CBindEE = linkonce_odr dso_local unnamed_addr constant { [5 x ptr] } { [5 x ptr] [ptr null, ptr @_ZTI13CRecordVectorIN8NArchive3N7z5CBindEE, ptr @_ZN17CBaseRecordVectorD2Ev, ptr @_ZN13CRecordVectorIN8NArchive3N7z5CBindEED0Ev, ptr @_ZN17CBaseRecordVector6DeleteEii] }, comdat, align 8
@_ZTS13CRecordVectorIN8NArchive3N7z5CBindEE = linkonce_odr dso_local constant [39 x i8] c"13CRecordVectorIN8NArchive3N7z5CBindEE\00", comdat, align 1
@_ZTI13CRecordVectorIN8NArchive3N7z5CBindEE = linkonce_odr dso_local constant { ptr, ptr, ptr } { ptr getelementptr inbounds (ptr, ptr @_ZTVN10__cxxabiv120__si_class_type_infoE, i64 2), ptr @_ZTS13CRecordVectorIN8NArchive3N7z5CBindEE, ptr @_ZTI17CBaseRecordVector }, comdat, align 8
@.str.1 = private unnamed_addr constant [4 x i32] [i32 66, i32 84, i32 50, i32 0], align 4
@_ZTVN8NWindows16NSynchronization21CManualResetEventWFMOE = linkonce_odr dso_local unnamed_addr constant { [3 x ptr] } { [3 x ptr] [ptr null, ptr @_ZTIN8NWindows16NSynchronization21CManualResetEventWFMOE, ptr @_ZN8NWindows16NSynchronization14CBaseEventWFMO19IsSignaledAndUpdateEv] }, comdat, align 8
@_ZTSN8NWindows16NSynchronization21CManualResetEventWFMOE = linkonce_odr dso_local constant [53 x i8] c"N8NWindows16NSynchronization21CManualResetEventWFMOE\00", comdat, align 1
@_ZTSN8NWindows16NSynchronization14CBaseEventWFMOE = linkonce_odr dso_local constant [46 x i8] c"N8NWindows16NSynchronization14CBaseEventWFMOE\00", comdat, align 1
@_ZTSN8NWindows16NSynchronization15CBaseHandleWFMOE = linkonce_odr dso_local constant [47 x i8] c"N8NWindows16NSynchronization15CBaseHandleWFMOE\00", comdat, align 1
@_ZTIN8NWindows16NSynchronization15CBaseHandleWFMOE = linkonce_odr dso_local constant { ptr, ptr } { ptr getelementptr inbounds (ptr, ptr @_ZTVN10__cxxabiv117__class_type_infoE, i64 2), ptr @_ZTSN8NWindows16NSynchronization15CBaseHandleWFMOE }, comdat, align 8
@_ZTIN8NWindows16NSynchronization14CBaseEventWFMOE = linkonce_odr dso_local constant { ptr, ptr, ptr } { ptr getelementptr inbounds (ptr, ptr @_ZTVN10__cxxabiv120__si_class_type_infoE, i64 2), ptr @_ZTSN8NWindows16NSynchronization14CBaseEventWFMOE, ptr @_ZTIN8NWindows16NSynchronization15CBaseHandleWFMOE }, comdat, align 8
@_ZTIN8NWindows16NSynchronization21CManualResetEventWFMOE = linkonce_odr dso_local constant { ptr, ptr, ptr } { ptr getelementptr inbounds (ptr, ptr @_ZTVN10__cxxabiv120__si_class_type_infoE, i64 2), ptr @_ZTSN8NWindows16NSynchronization21CManualResetEventWFMOE, ptr @_ZTIN8NWindows16NSynchronization14CBaseEventWFMOE }, comdat, align 8
@_ZTVN8NWindows16NSynchronization14CBaseEventWFMOE = linkonce_odr dso_local unnamed_addr constant { [3 x ptr] } { [3 x ptr] [ptr null, ptr @_ZTIN8NWindows16NSynchronization14CBaseEventWFMOE, ptr @_ZN8NWindows16NSynchronization14CBaseEventWFMO19IsSignaledAndUpdateEv] }, comdat, align 8
@_ZTV13CObjectVectorIN8NArchive3N7z10CCoderInfoEE = linkonce_odr dso_local unnamed_addr constant { [5 x ptr] } { [5 x ptr] [ptr null, ptr @_ZTI13CObjectVectorIN8NArchive3N7z10CCoderInfoEE, ptr @_ZN13CObjectVectorIN8NArchive3N7z10CCoderInfoEED2Ev, ptr @_ZN13CObjectVectorIN8NArchive3N7z10CCoderInfoEED0Ev, ptr @_ZN13CObjectVectorIN8NArchive3N7z10CCoderInfoEE6DeleteEii] }, comdat, align 8
@_ZTS13CObjectVectorIN8NArchive3N7z10CCoderInfoEE = linkonce_odr dso_local constant [45 x i8] c"13CObjectVectorIN8NArchive3N7z10CCoderInfoEE\00", comdat, align 1
@_ZTI13CObjectVectorIN8NArchive3N7z10CCoderInfoEE = linkonce_odr dso_local constant { ptr, ptr, ptr } { ptr getelementptr inbounds (ptr, ptr @_ZTVN10__cxxabiv120__si_class_type_infoE, i64 2), ptr @_ZTS13CObjectVectorIN8NArchive3N7z10CCoderInfoEE, ptr @_ZTI13CRecordVectorIPvE }, comdat, align 8
@_ZTV7CBufferIhE = linkonce_odr dso_local unnamed_addr constant { [4 x ptr] } { [4 x ptr] [ptr null, ptr @_ZTI7CBufferIhE, ptr @_ZN7CBufferIhED2Ev, ptr @_ZN7CBufferIhED0Ev] }, comdat, align 8
@_ZTS7CBufferIhE = linkonce_odr dso_local constant [12 x i8] c"7CBufferIhE\00", comdat, align 1
@_ZTI7CBufferIhE = linkonce_odr dso_local constant { ptr, ptr } { ptr getelementptr inbounds (ptr, ptr @_ZTVN10__cxxabiv117__class_type_infoE, i64 2), ptr @_ZTS7CBufferIhE }, comdat, align 8
@_ZTV13CRecordVectorIN8NArchive3N7z9CBindPairEE = linkonce_odr dso_local unnamed_addr constant { [5 x ptr] } { [5 x ptr] [ptr null, ptr @_ZTI13CRecordVectorIN8NArchive3N7z9CBindPairEE, ptr @_ZN17CBaseRecordVectorD2Ev, ptr @_ZN13CRecordVectorIN8NArchive3N7z9CBindPairEED0Ev, ptr @_ZN17CBaseRecordVector6DeleteEii] }, comdat, align 8
@_ZTS13CRecordVectorIN8NArchive3N7z9CBindPairEE = linkonce_odr dso_local constant [43 x i8] c"13CRecordVectorIN8NArchive3N7z9CBindPairEE\00", comdat, align 1
@_ZTI13CRecordVectorIN8NArchive3N7z9CBindPairEE = linkonce_odr dso_local constant { ptr, ptr, ptr } { ptr getelementptr inbounds (ptr, ptr @_ZTVN10__cxxabiv120__si_class_type_infoE, i64 2), ptr @_ZTS13CRecordVectorIN8NArchive3N7z9CBindPairEE, ptr @_ZTI17CBaseRecordVector }, comdat, align 8
@_ZTV13CRecordVectorIyE = linkonce_odr dso_local unnamed_addr constant { [5 x ptr] } { [5 x ptr] [ptr null, ptr @_ZTI13CRecordVectorIyE, ptr @_ZN17CBaseRecordVectorD2Ev, ptr @_ZN13CRecordVectorIyED0Ev, ptr @_ZN17CBaseRecordVector6DeleteEii] }, comdat, align 8
@_ZTS13CRecordVectorIyE = linkonce_odr dso_local constant [19 x i8] c"13CRecordVectorIyE\00", comdat, align 1
@_ZTI13CRecordVectorIyE = linkonce_odr dso_local constant { ptr, ptr, ptr } { ptr getelementptr inbounds (ptr, ptr @_ZTVN10__cxxabiv120__si_class_type_infoE, i64 2), ptr @_ZTS13CRecordVectorIyE, ptr @_ZTI17CBaseRecordVector }, comdat, align 8
@_ZTIi = external constant ptr
@IID_IUnknown = external local_unnamed_addr global %struct.GUID, align 4
@_ZTV13CRecordVectorIjE = linkonce_odr dso_local unnamed_addr constant { [5 x ptr] } { [5 x ptr] [ptr null, ptr @_ZTI13CRecordVectorIjE, ptr @_ZN17CBaseRecordVectorD2Ev, ptr @_ZN13CRecordVectorIjED0Ev, ptr @_ZN17CBaseRecordVector6DeleteEii] }, comdat, align 8
@_ZTS13CRecordVectorIjE = linkonce_odr dso_local constant [19 x i8] c"13CRecordVectorIjE\00", comdat, align 1
@_ZTI13CRecordVectorIjE = linkonce_odr dso_local constant { ptr, ptr, ptr } { ptr getelementptr inbounds (ptr, ptr @_ZTVN10__cxxabiv120__si_class_type_infoE, i64 2), ptr @_ZTS13CRecordVectorIjE, ptr @_ZTI17CBaseRecordVector }, comdat, align 8
@_ZTV13CRecordVectorIiE = linkonce_odr dso_local unnamed_addr constant { [5 x ptr] } { [5 x ptr] [ptr null, ptr @_ZTI13CRecordVectorIiE, ptr @_ZN17CBaseRecordVectorD2Ev, ptr @_ZN13CRecordVectorIiED0Ev, ptr @_ZN17CBaseRecordVector6DeleteEii] }, comdat, align 8
@_ZTS13CRecordVectorIiE = linkonce_odr dso_local constant [19 x i8] c"13CRecordVectorIiE\00", comdat, align 1
@_ZTI13CRecordVectorIiE = linkonce_odr dso_local constant { ptr, ptr, ptr } { ptr getelementptr inbounds (ptr, ptr @_ZTVN10__cxxabiv120__si_class_type_infoE, i64 2), ptr @_ZTS13CRecordVectorIiE, ptr @_ZTI17CBaseRecordVector }, comdat, align 8
@_ZTV13CRecordVectorIN8NArchive3N7z13CFolderRepackEE = linkonce_odr dso_local unnamed_addr constant { [5 x ptr] } { [5 x ptr] [ptr null, ptr @_ZTI13CRecordVectorIN8NArchive3N7z13CFolderRepackEE, ptr @_ZN17CBaseRecordVectorD2Ev, ptr @_ZN13CRecordVectorIN8NArchive3N7z13CFolderRepackEED0Ev, ptr @_ZN17CBaseRecordVector6DeleteEii] }, comdat, align 8
@_ZTS13CRecordVectorIN8NArchive3N7z13CFolderRepackEE = linkonce_odr dso_local constant [48 x i8] c"13CRecordVectorIN8NArchive3N7z13CFolderRepackEE\00", comdat, align 1
@_ZTI13CRecordVectorIN8NArchive3N7z13CFolderRepackEE = linkonce_odr dso_local constant { ptr, ptr, ptr } { ptr getelementptr inbounds (ptr, ptr @_ZTVN10__cxxabiv120__si_class_type_infoE, i64 2), ptr @_ZTS13CRecordVectorIN8NArchive3N7z13CFolderRepackEE, ptr @_ZTI17CBaseRecordVector }, comdat, align 8
@_ZTV13CObjectVectorIN8NArchive3N7z11CSolidGroupEE = linkonce_odr dso_local unnamed_addr constant { [5 x ptr] } { [5 x ptr] [ptr null, ptr @_ZTI13CObjectVectorIN8NArchive3N7z11CSolidGroupEE, ptr @_ZN13CObjectVectorIN8NArchive3N7z11CSolidGroupEED2Ev, ptr @_ZN13CObjectVectorIN8NArchive3N7z11CSolidGroupEED0Ev, ptr @_ZN13CObjectVectorIN8NArchive3N7z11CSolidGroupEE6DeleteEii] }, comdat, align 8
@_ZTS13CObjectVectorIN8NArchive3N7z11CSolidGroupEE = linkonce_odr dso_local constant [46 x i8] c"13CObjectVectorIN8NArchive3N7z11CSolidGroupEE\00", comdat, align 1
@_ZTI13CObjectVectorIN8NArchive3N7z11CSolidGroupEE = linkonce_odr dso_local constant { ptr, ptr, ptr } { ptr getelementptr inbounds (ptr, ptr @_ZTVN10__cxxabiv120__si_class_type_infoE, i64 2), ptr @_ZTS13CObjectVectorIN8NArchive3N7z11CSolidGroupEE, ptr @_ZTI13CRecordVectorIPvE }, comdat, align 8
@_ZTV13CRecordVectorIbE = linkonce_odr dso_local unnamed_addr constant { [5 x ptr] } { [5 x ptr] [ptr null, ptr @_ZTI13CRecordVectorIbE, ptr @_ZN17CBaseRecordVectorD2Ev, ptr @_ZN13CRecordVectorIbED0Ev, ptr @_ZN17CBaseRecordVector6DeleteEii] }, comdat, align 8
@_ZTS13CRecordVectorIbE = linkonce_odr dso_local constant [19 x i8] c"13CRecordVectorIbE\00", comdat, align 1
@_ZTI13CRecordVectorIbE = linkonce_odr dso_local constant { ptr, ptr, ptr } { ptr getelementptr inbounds (ptr, ptr @_ZTVN10__cxxabiv120__si_class_type_infoE, i64 2), ptr @_ZTS13CRecordVectorIbE, ptr @_ZTI17CBaseRecordVector }, comdat, align 8
@_ZTV13CRecordVectorIN8NArchive3N7z8CRefItemEE = linkonce_odr dso_local unnamed_addr constant { [5 x ptr] } { [5 x ptr] [ptr null, ptr @_ZTI13CRecordVectorIN8NArchive3N7z8CRefItemEE, ptr @_ZN17CBaseRecordVectorD2Ev, ptr @_ZN13CRecordVectorIN8NArchive3N7z8CRefItemEED0Ev, ptr @_ZN17CBaseRecordVector6DeleteEii] }, comdat, align 8
@_ZTS13CRecordVectorIN8NArchive3N7z8CRefItemEE = linkonce_odr dso_local constant [42 x i8] c"13CRecordVectorIN8NArchive3N7z8CRefItemEE\00", comdat, align 1
@_ZTI13CRecordVectorIN8NArchive3N7z8CRefItemEE = linkonce_odr dso_local constant { ptr, ptr, ptr } { ptr getelementptr inbounds (ptr, ptr @_ZTVN10__cxxabiv120__si_class_type_infoE, i64 2), ptr @_ZTS13CRecordVectorIN8NArchive3N7z8CRefItemEE, ptr @_ZTI17CBaseRecordVector }, comdat, align 8

; Function Attrs: mustprogress nofree norecurse nosync nounwind willreturn memory(read, inaccessiblemem: none) uwtable
define dso_local noundef i32 @_ZNK8NArchive3N7z11CUpdateItem15GetExtensionPosEv(ptr nocapture noundef nonnull readonly align 8 dereferenceable(68) %this) local_unnamed_addr #0 align 2 {
entry:
  %Name = getelementptr inbounds %"struct.NArchive::N7z::CUpdateItem", ptr %this, i64 0, i32 6
  %Name.val = load ptr, ptr %Name, align 8
  %0 = getelementptr %"struct.NArchive::N7z::CUpdateItem", ptr %this, i64 0, i32 6, i32 1
  %Name.val12 = load i32, ptr %0, align 8, !tbaa !5
  %cmp.i.i = icmp eq i32 %Name.val12, 0
  br i1 %cmp.i.i, label %cleanup, label %if.end.i.i

if.end.i.i:                                       ; preds = %entry
  %idx.ext.i.i = sext i32 %Name.val12 to i64
  %add.ptr.i.i = getelementptr inbounds i32, ptr %Name.val, i64 %idx.ext.i.i
  br label %for.cond.i.i

for.cond.i.i:                                     ; preds = %if.end7.i.i, %if.end.i.i
  %add.ptr.pn.i.i = phi ptr [ %add.ptr.i.i, %if.end.i.i ], [ %p.0.i.i, %if.end7.i.i ]
  %p.0.i.i = getelementptr inbounds i32, ptr %add.ptr.pn.i.i, i64 -1
  %1 = load i32, ptr %p.0.i.i, align 4, !tbaa !11
  %cmp4.i.i = icmp eq i32 %1, 47
  br i1 %cmp4.i.i, label %if.then5.i.i, label %if.end7.i.i

if.then5.i.i:                                     ; preds = %for.cond.i.i
  %sub.ptr.lhs.cast.i.i = ptrtoint ptr %p.0.i.i to i64
  %sub.ptr.rhs.cast.i.i = ptrtoint ptr %Name.val to i64
  %sub.ptr.sub.i.i = sub i64 %sub.ptr.lhs.cast.i.i, %sub.ptr.rhs.cast.i.i
  %2 = lshr exact i64 %sub.ptr.sub.i.i, 2
  %conv.i.i = trunc i64 %2 to i32
  br label %if.end.i

if.end7.i.i:                                      ; preds = %for.cond.i.i
  %cmp9.i.i = icmp eq ptr %p.0.i.i, %Name.val
  br i1 %cmp9.i.i, label %if.end.i, label %for.cond.i.i, !llvm.loop !13

if.end.i:                                         ; preds = %if.end7.i.i, %if.then5.i.i
  %retval.1.i.i = phi i32 [ %conv.i.i, %if.then5.i.i ], [ -1, %if.end7.i.i ]
  br label %for.cond.i

for.cond.i:                                       ; preds = %if.end7.i, %if.end.i
  %add.ptr.pn.i = phi ptr [ %add.ptr.i.i, %if.end.i ], [ %p.0.i, %if.end7.i ]
  %p.0.i = getelementptr inbounds i32, ptr %add.ptr.pn.i, i64 -1
  %3 = load i32, ptr %p.0.i, align 4, !tbaa !11
  %cmp4.i = icmp eq i32 %3, 46
  br i1 %cmp4.i, label %_ZNK11CStringBaseIwE11ReverseFindEw.exit, label %if.end7.i

if.end7.i:                                        ; preds = %for.cond.i
  %cmp9.i = icmp eq ptr %p.0.i, %Name.val
  br i1 %cmp9.i, label %cleanup, label %for.cond.i, !llvm.loop !13

_ZNK11CStringBaseIwE11ReverseFindEw.exit:         ; preds = %for.cond.i
  %sub.ptr.lhs.cast.i = ptrtoint ptr %p.0.i to i64
  %sub.ptr.rhs.cast.i = ptrtoint ptr %Name.val to i64
  %sub.ptr.sub.i = sub i64 %sub.ptr.lhs.cast.i, %sub.ptr.rhs.cast.i
  %4 = lshr exact i64 %sub.ptr.sub.i, 2
  %conv.i = trunc i64 %4 to i32
  %cmp = icmp slt i32 %conv.i, 0
  br i1 %cmp, label %cleanup, label %lor.lhs.false

lor.lhs.false:                                    ; preds = %_ZNK11CStringBaseIwE11ReverseFindEw.exit
  %cmp4 = icmp sgt i32 %retval.1.i.i, %conv.i
  %cmp5 = icmp sgt i32 %retval.1.i.i, -1
  %or.cond = and i1 %cmp5, %cmp4
  %add = add nuw nsw i32 %conv.i, 1
  %spec.select = select i1 %or.cond, i32 %Name.val12, i32 %add
  br label %cleanup

cleanup:                                          ; preds = %if.end7.i, %lor.lhs.false, %entry, %_ZNK11CStringBaseIwE11ReverseFindEw.exit
  %retval.0 = phi i32 [ %Name.val12, %_ZNK11CStringBaseIwE11ReverseFindEw.exit ], [ 0, %entry ], [ %spec.select, %lor.lhs.false ], [ %Name.val12, %if.end7.i ]
  ret i32 %retval.0
}

; Function Attrs: mustprogress nocallback nofree nosync nounwind willreturn memory(argmem: readwrite)
declare void @llvm.lifetime.start.p0(i64 immarg, ptr nocapture) #1

; Function Attrs: mustprogress nocallback nofree nosync nounwind willreturn memory(argmem: readwrite)
declare void @llvm.lifetime.end.p0(i64 immarg, ptr nocapture) #1

; Function Attrs: mustprogress uwtable
define dso_local void @_ZNK8NArchive3N7z11CUpdateItem12GetExtensionEv(ptr noalias sret(%class.CStringBase) align 8 %agg.result, ptr noundef nonnull align 8 dereferenceable(68) %this) local_unnamed_addr #2 align 2 {
entry:
  %Name.i = getelementptr inbounds %"struct.NArchive::N7z::CUpdateItem", ptr %this, i64 0, i32 6
  %Name.val.i = load ptr, ptr %Name.i, align 8
  %0 = getelementptr %"struct.NArchive::N7z::CUpdateItem", ptr %this, i64 0, i32 6, i32 1
  %Name.val12.i = load i32, ptr %0, align 8, !tbaa !5
  %cmp.i.i.i = icmp eq i32 %Name.val12.i, 0
  br i1 %cmp.i.i.i, label %_ZNK8NArchive3N7z11CUpdateItem15GetExtensionPosEv.exit, label %if.end.i.i.i

if.end.i.i.i:                                     ; preds = %entry
  %idx.ext.i.i.i = sext i32 %Name.val12.i to i64
  %add.ptr.i.i.i = getelementptr inbounds i32, ptr %Name.val.i, i64 %idx.ext.i.i.i
  br label %for.cond.i.i.i

for.cond.i.i.i:                                   ; preds = %if.end7.i.i.i, %if.end.i.i.i
  %add.ptr.pn.i.i.i = phi ptr [ %add.ptr.i.i.i, %if.end.i.i.i ], [ %p.0.i.i.i, %if.end7.i.i.i ]
  %p.0.i.i.i = getelementptr inbounds i32, ptr %add.ptr.pn.i.i.i, i64 -1
  %1 = load i32, ptr %p.0.i.i.i, align 4, !tbaa !11
  %cmp4.i.i.i = icmp eq i32 %1, 47
  br i1 %cmp4.i.i.i, label %if.then5.i.i.i, label %if.end7.i.i.i

if.then5.i.i.i:                                   ; preds = %for.cond.i.i.i
  %sub.ptr.lhs.cast.i.i.i = ptrtoint ptr %p.0.i.i.i to i64
  %sub.ptr.rhs.cast.i.i.i = ptrtoint ptr %Name.val.i to i64
  %sub.ptr.sub.i.i.i = sub i64 %sub.ptr.lhs.cast.i.i.i, %sub.ptr.rhs.cast.i.i.i
  %2 = lshr exact i64 %sub.ptr.sub.i.i.i, 2
  %conv.i.i.i = trunc i64 %2 to i32
  br label %if.end.i.i

if.end7.i.i.i:                                    ; preds = %for.cond.i.i.i
  %cmp9.i.i.i = icmp eq ptr %p.0.i.i.i, %Name.val.i
  br i1 %cmp9.i.i.i, label %if.end.i.i, label %for.cond.i.i.i, !llvm.loop !13

if.end.i.i:                                       ; preds = %if.end7.i.i.i, %if.then5.i.i.i
  %retval.1.i.i.i = phi i32 [ %conv.i.i.i, %if.then5.i.i.i ], [ -1, %if.end7.i.i.i ]
  br label %for.cond.i.i

for.cond.i.i:                                     ; preds = %if.end7.i.i, %if.end.i.i
  %add.ptr.pn.i.i = phi ptr [ %add.ptr.i.i.i, %if.end.i.i ], [ %p.0.i.i, %if.end7.i.i ]
  %p.0.i.i = getelementptr inbounds i32, ptr %add.ptr.pn.i.i, i64 -1
  %3 = load i32, ptr %p.0.i.i, align 4, !tbaa !11
  %cmp4.i.i = icmp eq i32 %3, 46
  br i1 %cmp4.i.i, label %_ZNK11CStringBaseIwE11ReverseFindEw.exit.i, label %if.end7.i.i

if.end7.i.i:                                      ; preds = %for.cond.i.i
  %cmp9.i.i = icmp eq ptr %p.0.i.i, %Name.val.i
  br i1 %cmp9.i.i, label %_ZNK8NArchive3N7z11CUpdateItem15GetExtensionPosEv.exit, label %for.cond.i.i, !llvm.loop !13

_ZNK11CStringBaseIwE11ReverseFindEw.exit.i:       ; preds = %for.cond.i.i
  %sub.ptr.lhs.cast.i.i = ptrtoint ptr %p.0.i.i to i64
  %sub.ptr.rhs.cast.i.i = ptrtoint ptr %Name.val.i to i64
  %sub.ptr.sub.i.i = sub i64 %sub.ptr.lhs.cast.i.i, %sub.ptr.rhs.cast.i.i
  %4 = lshr exact i64 %sub.ptr.sub.i.i, 2
  %conv.i.i = trunc i64 %4 to i32
  %cmp.i = icmp slt i32 %conv.i.i, 0
  br i1 %cmp.i, label %_ZNK8NArchive3N7z11CUpdateItem15GetExtensionPosEv.exit, label %lor.lhs.false.i

lor.lhs.false.i:                                  ; preds = %_ZNK11CStringBaseIwE11ReverseFindEw.exit.i
  %cmp4.i = icmp sgt i32 %retval.1.i.i.i, %conv.i.i
  %cmp5.i = icmp sgt i32 %retval.1.i.i.i, -1
  %or.cond.i = and i1 %cmp5.i, %cmp4.i
  %add.i = add nuw nsw i32 %conv.i.i, 1
  %spec.select.i = select i1 %or.cond.i, i32 %Name.val12.i, i32 %add.i
  br label %_ZNK8NArchive3N7z11CUpdateItem15GetExtensionPosEv.exit

_ZNK8NArchive3N7z11CUpdateItem15GetExtensionPosEv.exit: ; preds = %if.end7.i.i, %entry, %_ZNK11CStringBaseIwE11ReverseFindEw.exit.i, %lor.lhs.false.i
  %retval.0.i = phi i32 [ %Name.val12.i, %_ZNK11CStringBaseIwE11ReverseFindEw.exit.i ], [ 0, %entry ], [ %spec.select.i, %lor.lhs.false.i ], [ %Name.val12.i, %if.end7.i.i ]
  %sub.i = sub nsw i32 %Name.val12.i, %retval.0.i
  tail call void @_ZNK11CStringBaseIwE3MidEii(ptr sret(%class.CStringBase) align 8 %agg.result, ptr noundef nonnull align 8 dereferenceable(16) %Name.i, i32 noundef %retval.0.i, i32 noundef %sub.i)
  ret void
}

; Function Attrs: mustprogress nofree norecurse nosync nounwind willreturn memory(read, inaccessiblemem: none) uwtable
define dso_local noundef i32 @_ZN8NArchive3N7z11GetExtIndexEPKc(ptr nocapture noundef readonly %ext) local_unnamed_addr #0 {
entry:
  br label %for.cond.outer

for.cond.outer:                                   ; preds = %for.cond21, %entry
  %extIndex.0.ph = phi i32 [ 1, %entry ], [ %inc20, %for.cond21 ]
  %p.0.ph = phi ptr [ @.str, %entry ], [ %p.3, %for.cond21 ]
  br label %for.cond

for.cond:                                         ; preds = %for.cond.outer, %for.cond
  %p.0 = phi ptr [ %incdec.ptr, %for.cond ], [ %p.0.ph, %for.cond.outer ]
  %incdec.ptr = getelementptr inbounds i8, ptr %p.0, i64 1
  %0 = load i8, ptr %p.0, align 1, !tbaa !15
  switch i8 %0, label %for.cond5.preheader [
    i8 0, label %cleanup36
    i8 32, label %for.cond
  ], !llvm.loop !16

for.cond5.preheader:                              ; preds = %for.cond
  %1 = load i8, ptr %ext, align 1, !tbaa !15
  %2 = and i8 %0, -33
  %3 = or i8 %1, %2
  %or.cond5178 = icmp eq i8 %3, 0
  br i1 %or.cond5178, label %cleanup36, label %if.end13

if.end13:                                         ; preds = %for.cond5.preheader, %cleanup
  %indvars.iv = phi i64 [ %indvars.iv.next, %cleanup ], [ 1, %for.cond5.preheader ]
  %4 = phi i8 [ %6, %cleanup ], [ %1, %for.cond5.preheader ]
  %c.080 = phi i8 [ %5, %cleanup ], [ %0, %for.cond5.preheader ]
  %p.179 = phi ptr [ %incdec.ptr19, %cleanup ], [ %incdec.ptr, %for.cond5.preheader ]
  %cmp16.not = icmp eq i8 %c.080, %4
  br i1 %cmp16.not, label %cleanup, label %for.end

cleanup:                                          ; preds = %if.end13
  %incdec.ptr19 = getelementptr inbounds i8, ptr %p.179, i64 1
  %5 = load i8, ptr %p.179, align 1, !tbaa !15
  %indvars.iv.next = add nuw i64 %indvars.iv, 1
  %arrayidx = getelementptr inbounds i8, ptr %ext, i64 %indvars.iv
  %6 = load i8, ptr %arrayidx, align 1, !tbaa !15
  %cmp7 = icmp eq i8 %6, 0
  %7 = and i8 %5, -33
  %or.cond = icmp eq i8 %7, 0
  %or.cond51 = select i1 %cmp7, i1 %or.cond, i1 false
  br i1 %or.cond51, label %cleanup36, label %if.end13

for.end:                                          ; preds = %if.end13
  %inc20 = add nuw nsw i32 %extIndex.0.ph, 1
  br label %for.cond21

for.cond21:                                       ; preds = %if.end29, %for.end
  %p.3 = phi ptr [ %p.179, %for.end ], [ %incdec.ptr30, %if.end29 ]
  %c.2 = phi i8 [ %c.080, %for.end ], [ %8, %if.end29 ]
  switch i8 %c.2, label %if.end29 [
    i8 0, label %cleanup36
    i8 32, label %for.cond.outer
  ]

if.end29:                                         ; preds = %for.cond21
  %incdec.ptr30 = getelementptr inbounds i8, ptr %p.3, i64 1
  %8 = load i8, ptr %p.3, align 1, !tbaa !15
  br label %for.cond21, !llvm.loop !17

cleanup36:                                        ; preds = %for.cond, %for.cond5.preheader, %cleanup, %for.cond21
  %retval.4.ph = phi i32 [ %inc20, %for.cond21 ], [ %extIndex.0.ph, %cleanup ], [ %extIndex.0.ph, %for.cond5.preheader ], [ %extIndex.0.ph, %for.cond ]
  ret i32 %retval.4.ph
}

; Function Attrs: mustprogress uwtable
define dso_local noundef i32 @_ZN8NArchive3N7z17CFolderOutStream24InitEPKNS0_18CArchiveDatabaseExEjPK13CRecordVectorIbEP20ISequentialOutStream(ptr nocapture noundef nonnull align 8 dereferenceable(80) %this, ptr noundef %db, i32 noundef %startIndex, ptr noundef %extractStatuses, ptr noundef %outStream) local_unnamed_addr #2 align 2 {
entry:
  %_db = getelementptr inbounds %"class.NArchive::N7z::CFolderOutStream2", ptr %this, i64 0, i32 4
  store ptr %db, ptr %_db, align 8, !tbaa !18
  %_startIndex = getelementptr inbounds %"class.NArchive::N7z::CFolderOutStream2", ptr %this, i64 0, i32 7
  store i32 %startIndex, ptr %_startIndex, align 8, !tbaa !26
  %_extractStatuses = getelementptr inbounds %"class.NArchive::N7z::CFolderOutStream2", ptr %this, i64 0, i32 5
  store ptr %extractStatuses, ptr %_extractStatuses, align 8, !tbaa !27
  %_outStream = getelementptr inbounds %"class.NArchive::N7z::CFolderOutStream2", ptr %this, i64 0, i32 6
  %cmp.not.i = icmp eq ptr %outStream, null
  br i1 %cmp.not.i, label %if.end.i, label %if.then.i

if.then.i:                                        ; preds = %entry
  %vtable.i = load ptr, ptr %outStream, align 8, !tbaa !28
  %vfn.i = getelementptr inbounds ptr, ptr %vtable.i, i64 1
  %0 = load ptr, ptr %vfn.i, align 8
  %call.i = tail call noundef i32 %0(ptr noundef nonnull align 8 dereferenceable(8) %outStream)
  br label %if.end.i

if.end.i:                                         ; preds = %if.then.i, %entry
  %1 = load ptr, ptr %_outStream, align 8, !tbaa !30
  %tobool.not.i = icmp eq ptr %1, null
  br i1 %tobool.not.i, label %_ZN9CMyComPtrI20ISequentialOutStreamEaSEPS0_.exit, label %if.then2.i

if.then2.i:                                       ; preds = %if.end.i
  %vtable4.i = load ptr, ptr %1, align 8, !tbaa !28
  %vfn5.i = getelementptr inbounds ptr, ptr %vtable4.i, i64 2
  %2 = load ptr, ptr %vfn5.i, align 8
  %call6.i = tail call noundef i32 %2(ptr noundef nonnull align 8 dereferenceable(8) %1)
  br label %_ZN9CMyComPtrI20ISequentialOutStreamEaSEPS0_.exit

_ZN9CMyComPtrI20ISequentialOutStreamEaSEPS0_.exit: ; preds = %if.end.i, %if.then2.i
  store ptr %outStream, ptr %_outStream, align 8, !tbaa !30
  %_currentIndex = getelementptr inbounds %"class.NArchive::N7z::CFolderOutStream2", ptr %this, i64 0, i32 8
  store i32 0, ptr %_currentIndex, align 4, !tbaa !31
  %_fileIsOpen = getelementptr inbounds %"class.NArchive::N7z::CFolderOutStream2", ptr %this, i64 0, i32 9
  store i8 0, ptr %_fileIsOpen, align 8, !tbaa !32
  %call2 = tail call noundef i32 @_ZN8NArchive3N7z17CFolderOutStream217ProcessEmptyFilesEv(ptr noundef nonnull align 8 dereferenceable(80) %this)
  ret i32 %call2
}

; Function Attrs: mustprogress uwtable
define dso_local noundef i32 @_ZN8NArchive3N7z17CFolderOutStream217ProcessEmptyFilesEv(ptr nocapture noundef nonnull align 8 dereferenceable(80) %this) local_unnamed_addr #2 align 2 {
entry:
  %_db = getelementptr inbounds %"class.NArchive::N7z::CFolderOutStream2", ptr %this, i64 0, i32 4
  %_currentIndex = getelementptr inbounds %"class.NArchive::N7z::CFolderOutStream2", ptr %this, i64 0, i32 8
  %_extractStatuses = getelementptr inbounds %"class.NArchive::N7z::CFolderOutStream2", ptr %this, i64 0, i32 5
  %_startIndex = getelementptr inbounds %"class.NArchive::N7z::CFolderOutStream2", ptr %this, i64 0, i32 7
  %_crcStreamSpec.i = getelementptr inbounds %"class.NArchive::N7z::CFolderOutStream2", ptr %this, i64 0, i32 2
  %_outStream.i = getelementptr inbounds %"class.NArchive::N7z::CFolderOutStream2", ptr %this, i64 0, i32 6
  %_fileIsOpen.i = getelementptr inbounds %"class.NArchive::N7z::CFolderOutStream2", ptr %this, i64 0, i32 9
  %_rem.i = getelementptr inbounds %"class.NArchive::N7z::CFolderOutStream2", ptr %this, i64 0, i32 10
  %.pre = load i32, ptr %_currentIndex, align 4, !tbaa !31
  %0 = load ptr, ptr %_extractStatuses, align 8, !tbaa !27
  %_size.i20 = getelementptr inbounds %class.CBaseRecordVector, ptr %0, i64 0, i32 2
  %1 = load i32, ptr %_size.i20, align 4, !tbaa !33
  %cmp21 = icmp slt i32 %.pre, %1
  br i1 %cmp21, label %land.rhs, label %return

land.rhs:                                         ; preds = %entry, %while.cond.backedge
  %2 = phi ptr [ %31, %while.cond.backedge ], [ %0, %entry ]
  %3 = phi i32 [ %inc.i.i, %while.cond.backedge ], [ %.pre, %entry ]
  %4 = load ptr, ptr %_db, align 8, !tbaa !18
  %5 = load i32, ptr %_startIndex, align 8, !tbaa !26
  %add = add i32 %5, %3
  %_items.i.i = getelementptr inbounds %"struct.NArchive::N7z::CArchiveDatabase", ptr %4, i64 0, i32 5, i32 0, i32 0, i32 3
  %6 = load ptr, ptr %_items.i.i, align 8, !tbaa !36
  %idxprom.i.i = sext i32 %add to i64
  %arrayidx.i.i = getelementptr inbounds ptr, ptr %6, i64 %idxprom.i.i
  %7 = load ptr, ptr %arrayidx.i.i, align 8, !tbaa !37
  %8 = load i64, ptr %7, align 8, !tbaa !38
  %cmp4 = icmp eq i64 %8, 0
  br i1 %cmp4, label %while.body, label %return

while.body:                                       ; preds = %land.rhs
  %9 = load ptr, ptr %_crcStreamSpec.i, align 8, !tbaa !40
  %_items.i.i8 = getelementptr inbounds %class.CBaseRecordVector, ptr %2, i64 0, i32 3
  %10 = load ptr, ptr %_items.i.i8, align 8, !tbaa !36
  %idxprom.i.i9 = sext i32 %3 to i64
  %arrayidx.i.i10 = getelementptr inbounds i8, ptr %10, i64 %idxprom.i.i9
  %11 = load i8, ptr %arrayidx.i.i10, align 1, !tbaa !41, !range !42, !noundef !43
  %tobool.not.i = icmp eq i8 %11, 0
  %12 = load ptr, ptr %_outStream.i, align 8
  %cond.i = select i1 %tobool.not.i, ptr null, ptr %12
  %_stream.i.i = getelementptr inbounds %class.COutStreamWithCRC, ptr %9, i64 0, i32 3
  %cmp.not.i.i.i = icmp eq ptr %cond.i, null
  br i1 %cmp.not.i.i.i, label %if.end.i.i.i, label %if.then.i.i.i

if.then.i.i.i:                                    ; preds = %while.body
  %vtable.i.i.i = load ptr, ptr %cond.i, align 8, !tbaa !28
  %vfn.i.i.i = getelementptr inbounds ptr, ptr %vtable.i.i.i, i64 1
  %13 = load ptr, ptr %vfn.i.i.i, align 8
  %call.i.i.i = tail call noundef i32 %13(ptr noundef nonnull align 8 dereferenceable(8) %cond.i)
  br label %if.end.i.i.i

if.end.i.i.i:                                     ; preds = %if.then.i.i.i, %while.body
  %14 = load ptr, ptr %_stream.i.i, align 8, !tbaa !30
  %tobool.not.i.i.i = icmp eq ptr %14, null
  br i1 %tobool.not.i.i.i, label %_ZN8NArchive3N7z17CFolderOutStream28OpenFileEv.exit, label %if.then2.i.i.i

if.then2.i.i.i:                                   ; preds = %if.end.i.i.i
  %vtable4.i.i.i = load ptr, ptr %14, align 8, !tbaa !28
  %vfn5.i.i.i = getelementptr inbounds ptr, ptr %vtable4.i.i.i, i64 2
  %15 = load ptr, ptr %vfn5.i.i.i, align 8
  %call6.i.i.i = tail call noundef i32 %15(ptr noundef nonnull align 8 dereferenceable(8) %14)
  br label %_ZN8NArchive3N7z17CFolderOutStream28OpenFileEv.exit

_ZN8NArchive3N7z17CFolderOutStream28OpenFileEv.exit: ; preds = %if.end.i.i.i, %if.then2.i.i.i
  store ptr %cond.i, ptr %_stream.i.i, align 8, !tbaa !30
  %16 = load ptr, ptr %_crcStreamSpec.i, align 8, !tbaa !40
  %_size.i.i = getelementptr inbounds %class.COutStreamWithCRC, ptr %16, i64 0, i32 4
  store i64 0, ptr %_size.i.i, align 8, !tbaa !44
  %_calculate.i.i = getelementptr inbounds %class.COutStreamWithCRC, ptr %16, i64 0, i32 6
  store i8 1, ptr %_calculate.i.i, align 4, !tbaa !46
  %_crc.i.i = getelementptr inbounds %class.COutStreamWithCRC, ptr %16, i64 0, i32 5
  store i32 -1, ptr %_crc.i.i, align 8, !tbaa !47
  store i8 1, ptr %_fileIsOpen.i, align 8, !tbaa !32
  %17 = load ptr, ptr %_db, align 8, !tbaa !18
  %18 = load i32, ptr %_startIndex, align 8, !tbaa !26
  %19 = load i32, ptr %_currentIndex, align 4, !tbaa !31
  %add.i = add i32 %19, %18
  %_items.i.i.i = getelementptr inbounds %"struct.NArchive::N7z::CArchiveDatabase", ptr %17, i64 0, i32 5, i32 0, i32 0, i32 3
  %20 = load ptr, ptr %_items.i.i.i, align 8, !tbaa !36
  %idxprom.i.i.i = sext i32 %add.i to i64
  %arrayidx.i.i.i = getelementptr inbounds ptr, ptr %20, i64 %idxprom.i.i.i
  %21 = load ptr, ptr %arrayidx.i.i.i, align 8, !tbaa !37
  %22 = load i64, ptr %21, align 8, !tbaa !38
  store i64 %22, ptr %_rem.i, align 8, !tbaa !48
  %_stream.i.i.i = getelementptr inbounds %class.COutStreamWithCRC, ptr %16, i64 0, i32 3
  %23 = load ptr, ptr %_stream.i.i.i, align 8, !tbaa !30
  %tobool.not.i.i.i.i = icmp eq ptr %23, null
  br i1 %tobool.not.i.i.i.i, label %_ZN8NArchive3N7z17CFolderOutStream29CloseFileEv.exit.i, label %if.then.i.i.i.i

if.then.i.i.i.i:                                  ; preds = %_ZN8NArchive3N7z17CFolderOutStream28OpenFileEv.exit
  %vtable.i.i.i.i = load ptr, ptr %23, align 8, !tbaa !28
  %vfn.i.i.i.i = getelementptr inbounds ptr, ptr %vtable.i.i.i.i, i64 2
  %24 = load ptr, ptr %vfn.i.i.i.i, align 8
  %call.i.i.i.i = tail call noundef i32 %24(ptr noundef nonnull align 8 dereferenceable(8) %23)
  store ptr null, ptr %_stream.i.i.i, align 8, !tbaa !30
  %.pre.i = load i32, ptr %_currentIndex, align 4, !tbaa !31
  br label %_ZN8NArchive3N7z17CFolderOutStream29CloseFileEv.exit.i

_ZN8NArchive3N7z17CFolderOutStream29CloseFileEv.exit.i: ; preds = %if.then.i.i.i.i, %_ZN8NArchive3N7z17CFolderOutStream28OpenFileEv.exit
  %25 = phi i32 [ %19, %_ZN8NArchive3N7z17CFolderOutStream28OpenFileEv.exit ], [ %.pre.i, %if.then.i.i.i.i ]
  store i8 0, ptr %_fileIsOpen.i, align 8, !tbaa !32
  %inc.i.i = add nsw i32 %25, 1
  store i32 %inc.i.i, ptr %_currentIndex, align 4, !tbaa !31
  %IsDir.i = getelementptr inbounds %"struct.NArchive::N7z::CFileItem", ptr %21, i64 0, i32 5
  %26 = load i8, ptr %IsDir.i, align 1, !tbaa !49, !range !42, !noundef !43
  %tobool.not.i18 = icmp eq i8 %26, 0
  br i1 %tobool.not.i18, label %lor.lhs.false.i, label %while.cond.backedge

lor.lhs.false.i:                                  ; preds = %_ZN8NArchive3N7z17CFolderOutStream29CloseFileEv.exit.i
  %CrcDefined.i = getelementptr inbounds %"struct.NArchive::N7z::CFileItem", ptr %21, i64 0, i32 6
  %27 = load i8, ptr %CrcDefined.i, align 2, !tbaa !50, !range !42, !noundef !43
  %tobool2.not.i = icmp eq i8 %27, 0
  br i1 %tobool2.not.i, label %while.cond.backedge, label %lor.rhs.i

lor.rhs.i:                                        ; preds = %lor.lhs.false.i
  %Crc.i = getelementptr inbounds %"struct.NArchive::N7z::CFileItem", ptr %21, i64 0, i32 2
  %28 = load i32, ptr %Crc.i, align 4, !tbaa !51
  %29 = load ptr, ptr %_crcStreamSpec.i, align 8, !tbaa !40
  %_crc.i.i19 = getelementptr inbounds %class.COutStreamWithCRC, ptr %29, i64 0, i32 5
  %30 = load i32, ptr %_crc.i.i19, align 8, !tbaa !47
  %xor.i.i = xor i32 %30, -1
  %cmp.i.not = icmp eq i32 %28, %xor.i.i
  br i1 %cmp.i.not, label %while.cond.backedge, label %return

while.cond.backedge:                              ; preds = %lor.lhs.false.i, %_ZN8NArchive3N7z17CFolderOutStream29CloseFileEv.exit.i, %lor.rhs.i
  %31 = load ptr, ptr %_extractStatuses, align 8, !tbaa !27
  %_size.i = getelementptr inbounds %class.CBaseRecordVector, ptr %31, i64 0, i32 2
  %32 = load i32, ptr %_size.i, align 4, !tbaa !33
  %cmp = icmp slt i32 %inc.i.i, %32
  br i1 %cmp, label %land.rhs, label %return

return:                                           ; preds = %while.cond.backedge, %land.rhs, %lor.rhs.i, %entry
  %retval.2 = phi i32 [ 0, %entry ], [ 0, %while.cond.backedge ], [ 0, %land.rhs ], [ 1, %lor.rhs.i ]
  ret i32 %retval.2
}

; Function Attrs: mustprogress uwtable
define dso_local void @_ZN8NArchive3N7z17CFolderOutStream216ReleaseOutStreamEv(ptr nocapture noundef nonnull align 8 dereferenceable(80) %this) local_unnamed_addr #2 align 2 {
entry:
  %_outStream = getelementptr inbounds %"class.NArchive::N7z::CFolderOutStream2", ptr %this, i64 0, i32 6
  %0 = load ptr, ptr %_outStream, align 8, !tbaa !30
  %tobool.not.i = icmp eq ptr %0, null
  br i1 %tobool.not.i, label %_ZN9CMyComPtrI20ISequentialOutStreamE7ReleaseEv.exit, label %if.then.i

if.then.i:                                        ; preds = %entry
  %vtable.i = load ptr, ptr %0, align 8, !tbaa !28
  %vfn.i = getelementptr inbounds ptr, ptr %vtable.i, i64 2
  %1 = load ptr, ptr %vfn.i, align 8
  %call.i = tail call noundef i32 %1(ptr noundef nonnull align 8 dereferenceable(8) %0)
  store ptr null, ptr %_outStream, align 8, !tbaa !30
  br label %_ZN9CMyComPtrI20ISequentialOutStreamE7ReleaseEv.exit

_ZN9CMyComPtrI20ISequentialOutStreamE7ReleaseEv.exit: ; preds = %entry, %if.then.i
  %_crcStreamSpec = getelementptr inbounds %"class.NArchive::N7z::CFolderOutStream2", ptr %this, i64 0, i32 2
  %2 = load ptr, ptr %_crcStreamSpec, align 8, !tbaa !40
  %_stream.i = getelementptr inbounds %class.COutStreamWithCRC, ptr %2, i64 0, i32 3
  %3 = load ptr, ptr %_stream.i, align 8, !tbaa !30
  %tobool.not.i.i = icmp eq ptr %3, null
  br i1 %tobool.not.i.i, label %_ZN17COutStreamWithCRC13ReleaseStreamEv.exit, label %if.then.i.i

if.then.i.i:                                      ; preds = %_ZN9CMyComPtrI20ISequentialOutStreamE7ReleaseEv.exit
  %vtable.i.i = load ptr, ptr %3, align 8, !tbaa !28
  %vfn.i.i = getelementptr inbounds ptr, ptr %vtable.i.i, i64 2
  %4 = load ptr, ptr %vfn.i.i, align 8
  %call.i.i = tail call noundef i32 %4(ptr noundef nonnull align 8 dereferenceable(8) %3)
  store ptr null, ptr %_stream.i, align 8, !tbaa !30
  br label %_ZN17COutStreamWithCRC13ReleaseStreamEv.exit

_ZN17COutStreamWithCRC13ReleaseStreamEv.exit:     ; preds = %_ZN9CMyComPtrI20ISequentialOutStreamE7ReleaseEv.exit, %if.then.i.i
  ret void
}

; Function Attrs: mustprogress uwtable
define dso_local void @_ZN8NArchive3N7z17CFolderOutStream28OpenFileEv(ptr nocapture noundef nonnull align 8 dereferenceable(80) %this) local_unnamed_addr #2 align 2 {
entry:
  %_crcStreamSpec = getelementptr inbounds %"class.NArchive::N7z::CFolderOutStream2", ptr %this, i64 0, i32 2
  %0 = load ptr, ptr %_crcStreamSpec, align 8, !tbaa !40
  %_extractStatuses = getelementptr inbounds %"class.NArchive::N7z::CFolderOutStream2", ptr %this, i64 0, i32 5
  %1 = load ptr, ptr %_extractStatuses, align 8, !tbaa !27
  %_currentIndex = getelementptr inbounds %"class.NArchive::N7z::CFolderOutStream2", ptr %this, i64 0, i32 8
  %2 = load i32, ptr %_currentIndex, align 4, !tbaa !31
  %_items.i = getelementptr inbounds %class.CBaseRecordVector, ptr %1, i64 0, i32 3
  %3 = load ptr, ptr %_items.i, align 8, !tbaa !36
  %idxprom.i = sext i32 %2 to i64
  %arrayidx.i = getelementptr inbounds i8, ptr %3, i64 %idxprom.i
  %4 = load i8, ptr %arrayidx.i, align 1, !tbaa !41, !range !42, !noundef !43
  %tobool.not = icmp eq i8 %4, 0
  %_outStream = getelementptr inbounds %"class.NArchive::N7z::CFolderOutStream2", ptr %this, i64 0, i32 6
  %5 = load ptr, ptr %_outStream, align 8
  %cond = select i1 %tobool.not, ptr null, ptr %5
  %_stream.i = getelementptr inbounds %class.COutStreamWithCRC, ptr %0, i64 0, i32 3
  %cmp.not.i.i = icmp eq ptr %cond, null
  br i1 %cmp.not.i.i, label %if.end.i.i, label %if.then.i.i

if.then.i.i:                                      ; preds = %entry
  %vtable.i.i = load ptr, ptr %cond, align 8, !tbaa !28
  %vfn.i.i = getelementptr inbounds ptr, ptr %vtable.i.i, i64 1
  %6 = load ptr, ptr %vfn.i.i, align 8
  %call.i.i = tail call noundef i32 %6(ptr noundef nonnull align 8 dereferenceable(8) %cond)
  br label %if.end.i.i

if.end.i.i:                                       ; preds = %if.then.i.i, %entry
  %7 = load ptr, ptr %_stream.i, align 8, !tbaa !30
  %tobool.not.i.i = icmp eq ptr %7, null
  br i1 %tobool.not.i.i, label %_ZN17COutStreamWithCRC9SetStreamEP20ISequentialOutStream.exit, label %if.then2.i.i

if.then2.i.i:                                     ; preds = %if.end.i.i
  %vtable4.i.i = load ptr, ptr %7, align 8, !tbaa !28
  %vfn5.i.i = getelementptr inbounds ptr, ptr %vtable4.i.i, i64 2
  %8 = load ptr, ptr %vfn5.i.i, align 8
  %call6.i.i = tail call noundef i32 %8(ptr noundef nonnull align 8 dereferenceable(8) %7)
  br label %_ZN17COutStreamWithCRC9SetStreamEP20ISequentialOutStream.exit

_ZN17COutStreamWithCRC9SetStreamEP20ISequentialOutStream.exit: ; preds = %if.end.i.i, %if.then2.i.i
  store ptr %cond, ptr %_stream.i, align 8, !tbaa !30
  %9 = load ptr, ptr %_crcStreamSpec, align 8, !tbaa !40
  %_size.i = getelementptr inbounds %class.COutStreamWithCRC, ptr %9, i64 0, i32 4
  store i64 0, ptr %_size.i, align 8, !tbaa !44
  %_calculate.i = getelementptr inbounds %class.COutStreamWithCRC, ptr %9, i64 0, i32 6
  store i8 1, ptr %_calculate.i, align 4, !tbaa !46
  %_crc.i = getelementptr inbounds %class.COutStreamWithCRC, ptr %9, i64 0, i32 5
  store i32 -1, ptr %_crc.i, align 8, !tbaa !47
  %_fileIsOpen = getelementptr inbounds %"class.NArchive::N7z::CFolderOutStream2", ptr %this, i64 0, i32 9
  store i8 1, ptr %_fileIsOpen, align 8, !tbaa !32
  %_db = getelementptr inbounds %"class.NArchive::N7z::CFolderOutStream2", ptr %this, i64 0, i32 4
  %10 = load ptr, ptr %_db, align 8, !tbaa !18
  %_startIndex = getelementptr inbounds %"class.NArchive::N7z::CFolderOutStream2", ptr %this, i64 0, i32 7
  %11 = load i32, ptr %_startIndex, align 8, !tbaa !26
  %12 = load i32, ptr %_currentIndex, align 4, !tbaa !31
  %add = add i32 %12, %11
  %_items.i.i = getelementptr inbounds %"struct.NArchive::N7z::CArchiveDatabase", ptr %10, i64 0, i32 5, i32 0, i32 0, i32 3
  %13 = load ptr, ptr %_items.i.i, align 8, !tbaa !36
  %idxprom.i.i = sext i32 %add to i64
  %arrayidx.i.i = getelementptr inbounds ptr, ptr %13, i64 %idxprom.i.i
  %14 = load ptr, ptr %arrayidx.i.i, align 8, !tbaa !37
  %15 = load i64, ptr %14, align 8, !tbaa !38
  %_rem = getelementptr inbounds %"class.NArchive::N7z::CFolderOutStream2", ptr %this, i64 0, i32 10
  store i64 %15, ptr %_rem, align 8, !tbaa !48
  ret void
}

; Function Attrs: mustprogress uwtable
define dso_local void @_ZN8NArchive3N7z17CFolderOutStream29CloseFileEv(ptr nocapture noundef nonnull align 8 dereferenceable(80) %this) local_unnamed_addr #2 align 2 {
entry:
  %_crcStreamSpec = getelementptr inbounds %"class.NArchive::N7z::CFolderOutStream2", ptr %this, i64 0, i32 2
  %0 = load ptr, ptr %_crcStreamSpec, align 8, !tbaa !40
  %_stream.i = getelementptr inbounds %class.COutStreamWithCRC, ptr %0, i64 0, i32 3
  %1 = load ptr, ptr %_stream.i, align 8, !tbaa !30
  %tobool.not.i.i = icmp eq ptr %1, null
  br i1 %tobool.not.i.i, label %_ZN17COutStreamWithCRC13ReleaseStreamEv.exit, label %if.then.i.i

if.then.i.i:                                      ; preds = %entry
  %vtable.i.i = load ptr, ptr %1, align 8, !tbaa !28
  %vfn.i.i = getelementptr inbounds ptr, ptr %vtable.i.i, i64 2
  %2 = load ptr, ptr %vfn.i.i, align 8
  %call.i.i = tail call noundef i32 %2(ptr noundef nonnull align 8 dereferenceable(8) %1)
  store ptr null, ptr %_stream.i, align 8, !tbaa !30
  br label %_ZN17COutStreamWithCRC13ReleaseStreamEv.exit

_ZN17COutStreamWithCRC13ReleaseStreamEv.exit:     ; preds = %entry, %if.then.i.i
  %_fileIsOpen = getelementptr inbounds %"class.NArchive::N7z::CFolderOutStream2", ptr %this, i64 0, i32 9
  store i8 0, ptr %_fileIsOpen, align 8, !tbaa !32
  %_currentIndex = getelementptr inbounds %"class.NArchive::N7z::CFolderOutStream2", ptr %this, i64 0, i32 8
  %3 = load i32, ptr %_currentIndex, align 4, !tbaa !31
  %inc = add nsw i32 %3, 1
  store i32 %inc, ptr %_currentIndex, align 4, !tbaa !31
  ret void
}

; Function Attrs: mustprogress uwtable
define dso_local noundef i32 @_ZN8NArchive3N7z17CFolderOutStream221CloseFileAndSetResultEv(ptr nocapture noundef nonnull align 8 dereferenceable(80) %this) local_unnamed_addr #2 align 2 {
entry:
  %_db = getelementptr inbounds %"class.NArchive::N7z::CFolderOutStream2", ptr %this, i64 0, i32 4
  %0 = load ptr, ptr %_db, align 8, !tbaa !18
  %_startIndex = getelementptr inbounds %"class.NArchive::N7z::CFolderOutStream2", ptr %this, i64 0, i32 7
  %1 = load i32, ptr %_startIndex, align 8, !tbaa !26
  %_currentIndex = getelementptr inbounds %"class.NArchive::N7z::CFolderOutStream2", ptr %this, i64 0, i32 8
  %2 = load i32, ptr %_currentIndex, align 4, !tbaa !31
  %add = add i32 %2, %1
  %_items.i.i = getelementptr inbounds %"struct.NArchive::N7z::CArchiveDatabase", ptr %0, i64 0, i32 5, i32 0, i32 0, i32 3
  %3 = load ptr, ptr %_items.i.i, align 8, !tbaa !36
  %idxprom.i.i = sext i32 %add to i64
  %arrayidx.i.i = getelementptr inbounds ptr, ptr %3, i64 %idxprom.i.i
  %4 = load ptr, ptr %arrayidx.i.i, align 8, !tbaa !37
  %_crcStreamSpec.i = getelementptr inbounds %"class.NArchive::N7z::CFolderOutStream2", ptr %this, i64 0, i32 2
  %5 = load ptr, ptr %_crcStreamSpec.i, align 8, !tbaa !40
  %_stream.i.i = getelementptr inbounds %class.COutStreamWithCRC, ptr %5, i64 0, i32 3
  %6 = load ptr, ptr %_stream.i.i, align 8, !tbaa !30
  %tobool.not.i.i.i = icmp eq ptr %6, null
  br i1 %tobool.not.i.i.i, label %_ZN8NArchive3N7z17CFolderOutStream29CloseFileEv.exit, label %if.then.i.i.i

if.then.i.i.i:                                    ; preds = %entry
  %vtable.i.i.i = load ptr, ptr %6, align 8, !tbaa !28
  %vfn.i.i.i = getelementptr inbounds ptr, ptr %vtable.i.i.i, i64 2
  %7 = load ptr, ptr %vfn.i.i.i, align 8
  %call.i.i.i = tail call noundef i32 %7(ptr noundef nonnull align 8 dereferenceable(8) %6)
  store ptr null, ptr %_stream.i.i, align 8, !tbaa !30
  %.pre = load i32, ptr %_currentIndex, align 4, !tbaa !31
  br label %_ZN8NArchive3N7z17CFolderOutStream29CloseFileEv.exit

_ZN8NArchive3N7z17CFolderOutStream29CloseFileEv.exit: ; preds = %entry, %if.then.i.i.i
  %8 = phi i32 [ %2, %entry ], [ %.pre, %if.then.i.i.i ]
  %_fileIsOpen.i = getelementptr inbounds %"class.NArchive::N7z::CFolderOutStream2", ptr %this, i64 0, i32 9
  store i8 0, ptr %_fileIsOpen.i, align 8, !tbaa !32
  %inc.i = add nsw i32 %8, 1
  store i32 %inc.i, ptr %_currentIndex, align 4, !tbaa !31
  %IsDir = getelementptr inbounds %"struct.NArchive::N7z::CFileItem", ptr %4, i64 0, i32 5
  %9 = load i8, ptr %IsDir, align 1, !tbaa !49, !range !42, !noundef !43
  %tobool.not = icmp eq i8 %9, 0
  br i1 %tobool.not, label %lor.lhs.false, label %lor.end

lor.lhs.false:                                    ; preds = %_ZN8NArchive3N7z17CFolderOutStream29CloseFileEv.exit
  %CrcDefined = getelementptr inbounds %"struct.NArchive::N7z::CFileItem", ptr %4, i64 0, i32 6
  %10 = load i8, ptr %CrcDefined, align 2, !tbaa !50, !range !42, !noundef !43
  %tobool2.not = icmp eq i8 %10, 0
  br i1 %tobool2.not, label %lor.end, label %lor.rhs

lor.rhs:                                          ; preds = %lor.lhs.false
  %Crc = getelementptr inbounds %"struct.NArchive::N7z::CFileItem", ptr %4, i64 0, i32 2
  %11 = load i32, ptr %Crc, align 4, !tbaa !51
  %12 = load ptr, ptr %_crcStreamSpec.i, align 8, !tbaa !40
  %_crc.i = getelementptr inbounds %class.COutStreamWithCRC, ptr %12, i64 0, i32 5
  %13 = load i32, ptr %_crc.i, align 8, !tbaa !47
  %xor.i = xor i32 %13, -1
  %cmp = icmp ne i32 %11, %xor.i
  %14 = zext i1 %cmp to i32
  br label %lor.end

lor.end:                                          ; preds = %lor.rhs, %lor.lhs.false, %_ZN8NArchive3N7z17CFolderOutStream29CloseFileEv.exit
  %not. = phi i32 [ 0, %lor.lhs.false ], [ 0, %_ZN8NArchive3N7z17CFolderOutStream29CloseFileEv.exit ], [ %14, %lor.rhs ]
  ret i32 %not.
}

; Function Attrs: mustprogress uwtable
define dso_local noundef i32 @_ZN8NArchive3N7z17CFolderOutStream25WriteEPKvjPj(ptr nocapture noundef nonnull align 8 dereferenceable(80) %this, ptr noundef %data, i32 noundef %size, ptr noundef %processedSize) unnamed_addr #2 align 2 {
entry:
  %cur = alloca i32, align 4
  %cmp.not = icmp eq ptr %processedSize, null
  br i1 %cmp.not, label %if.end, label %if.then

if.then:                                          ; preds = %entry
  store i32 0, ptr %processedSize, align 4, !tbaa !52
  br label %if.end

if.end:                                           ; preds = %if.then, %entry
  %cmp2.not110116 = icmp eq i32 %size, 0
  br i1 %cmp2.not110116, label %return, label %while.body.lr.ph.lr.ph

while.body.lr.ph.lr.ph:                           ; preds = %if.end
  %_fileIsOpen = getelementptr inbounds %"class.NArchive::N7z::CFolderOutStream2", ptr %this, i64 0, i32 9
  %_rem = getelementptr inbounds %"class.NArchive::N7z::CFolderOutStream2", ptr %this, i64 0, i32 10
  %_crcStream = getelementptr inbounds %"class.NArchive::N7z::CFolderOutStream2", ptr %this, i64 0, i32 3
  %_currentIndex = getelementptr inbounds %"class.NArchive::N7z::CFolderOutStream2", ptr %this, i64 0, i32 8
  %_extractStatuses = getelementptr inbounds %"class.NArchive::N7z::CFolderOutStream2", ptr %this, i64 0, i32 5
  %_crcStreamSpec.i = getelementptr inbounds %"class.NArchive::N7z::CFolderOutStream2", ptr %this, i64 0, i32 2
  %_outStream.i = getelementptr inbounds %"class.NArchive::N7z::CFolderOutStream2", ptr %this, i64 0, i32 6
  %_db.i78 = getelementptr inbounds %"class.NArchive::N7z::CFolderOutStream2", ptr %this, i64 0, i32 4
  %_startIndex.i79 = getelementptr inbounds %"class.NArchive::N7z::CFolderOutStream2", ptr %this, i64 0, i32 7
  br label %while.body

while.body:                                       ; preds = %while.body.backedge, %while.body.lr.ph.lr.ph
  %data.addr.0112 = phi ptr [ %data, %while.body.lr.ph.lr.ph ], [ %data.addr.0112.be, %while.body.backedge ]
  %size.addr.0111 = phi i32 [ %size, %while.body.lr.ph.lr.ph ], [ %size.addr.0111.be, %while.body.backedge ]
  %0 = load i8, ptr %_fileIsOpen, align 8, !tbaa !32, !range !42, !noundef !43
  %tobool.not = icmp eq i8 %0, 0
  br i1 %tobool.not, label %if.else, label %if.then3

if.then3:                                         ; preds = %while.body
  call void @llvm.lifetime.start.p0(i64 4, ptr nonnull %cur) #16
  %conv = zext i32 %size.addr.0111 to i64
  %1 = load i64, ptr %_rem, align 8, !tbaa !48
  %cmp4 = icmp ugt i64 %1, %conv
  %conv6 = trunc i64 %1 to i32
  %cond = select i1 %cmp4, i32 %size.addr.0111, i32 %conv6
  store i32 %cond, ptr %cur, align 4, !tbaa !52
  %2 = load ptr, ptr %_crcStream, align 8, !tbaa !30
  %vtable = load ptr, ptr %2, align 8, !tbaa !28
  %vfn = getelementptr inbounds ptr, ptr %vtable, i64 5
  %3 = load ptr, ptr %vfn, align 8
  %call7 = call noundef i32 %3(ptr noundef nonnull align 8 dereferenceable(8) %2, ptr noundef %data.addr.0112, i32 noundef %cond, ptr noundef nonnull %cur)
  %cmp8.not = icmp eq i32 %call7, 0
  br i1 %cmp8.not, label %cleanup.cont, label %cleanup40.thread

cleanup.cont:                                     ; preds = %if.then3
  %4 = load i32, ptr %cur, align 4, !tbaa !52
  %cmp11 = icmp eq i32 %4, 0
  br i1 %cmp11, label %cleanup40.thread97, label %if.end13

cleanup40.thread97:                               ; preds = %cleanup.cont
  call void @llvm.lifetime.end.p0(i64 4, ptr nonnull %cur) #16
  br label %return

if.end13:                                         ; preds = %cleanup.cont
  %idx.ext = zext i32 %4 to i64
  %add.ptr = getelementptr inbounds i8, ptr %data.addr.0112, i64 %idx.ext
  %sub = sub i32 %size.addr.0111, %4
  %5 = load i64, ptr %_rem, align 8, !tbaa !48
  %sub16 = sub i64 %5, %idx.ext
  store i64 %sub16, ptr %_rem, align 8, !tbaa !48
  br i1 %cmp.not, label %if.end19, label %if.then18

if.then18:                                        ; preds = %if.end13
  %6 = load i32, ptr %processedSize, align 4, !tbaa !52
  %add = add i32 %6, %4
  store i32 %add, ptr %processedSize, align 4, !tbaa !52
  br label %if.end19

if.end19:                                         ; preds = %if.then18, %if.end13
  %cmp21 = icmp eq i64 %5, %idx.ext
  br i1 %cmp21, label %if.then22, label %cleanup40.thread92

cleanup40.thread92:                               ; preds = %if.end19
  call void @llvm.lifetime.end.p0(i64 4, ptr nonnull %cur) #16
  br label %if.end55

if.then22:                                        ; preds = %if.end19
  %7 = load ptr, ptr %_db.i78, align 8, !tbaa !18
  %8 = load i32, ptr %_startIndex.i79, align 8, !tbaa !26
  %9 = load i32, ptr %_currentIndex, align 4, !tbaa !31
  %add.i = add i32 %9, %8
  %_items.i.i.i = getelementptr inbounds %"struct.NArchive::N7z::CArchiveDatabase", ptr %7, i64 0, i32 5, i32 0, i32 0, i32 3
  %10 = load ptr, ptr %_items.i.i.i, align 8, !tbaa !36
  %idxprom.i.i.i = sext i32 %add.i to i64
  %arrayidx.i.i.i = getelementptr inbounds ptr, ptr %10, i64 %idxprom.i.i.i
  %11 = load ptr, ptr %arrayidx.i.i.i, align 8, !tbaa !37
  %12 = load ptr, ptr %_crcStreamSpec.i, align 8, !tbaa !40
  %_stream.i.i.i = getelementptr inbounds %class.COutStreamWithCRC, ptr %12, i64 0, i32 3
  %13 = load ptr, ptr %_stream.i.i.i, align 8, !tbaa !30
  %tobool.not.i.i.i.i = icmp eq ptr %13, null
  br i1 %tobool.not.i.i.i.i, label %_ZN8NArchive3N7z17CFolderOutStream29CloseFileEv.exit.i, label %if.then.i.i.i.i

if.then.i.i.i.i:                                  ; preds = %if.then22
  %vtable.i.i.i.i = load ptr, ptr %13, align 8, !tbaa !28
  %vfn.i.i.i.i = getelementptr inbounds ptr, ptr %vtable.i.i.i.i, i64 2
  %14 = load ptr, ptr %vfn.i.i.i.i, align 8
  %call.i.i.i.i = call noundef i32 %14(ptr noundef nonnull align 8 dereferenceable(8) %13)
  store ptr null, ptr %_stream.i.i.i, align 8, !tbaa !30
  %.pre.i = load i32, ptr %_currentIndex, align 4, !tbaa !31
  br label %_ZN8NArchive3N7z17CFolderOutStream29CloseFileEv.exit.i

_ZN8NArchive3N7z17CFolderOutStream29CloseFileEv.exit.i: ; preds = %if.then.i.i.i.i, %if.then22
  %15 = phi i32 [ %9, %if.then22 ], [ %.pre.i, %if.then.i.i.i.i ]
  store i8 0, ptr %_fileIsOpen, align 8, !tbaa !32
  %inc.i.i = add nsw i32 %15, 1
  store i32 %inc.i.i, ptr %_currentIndex, align 4, !tbaa !31
  %IsDir.i = getelementptr inbounds %"struct.NArchive::N7z::CFileItem", ptr %11, i64 0, i32 5
  %16 = load i8, ptr %IsDir.i, align 1, !tbaa !49, !range !42, !noundef !43
  %tobool.not.i = icmp eq i8 %16, 0
  br i1 %tobool.not.i, label %lor.lhs.false.i, label %cleanup.cont30

lor.lhs.false.i:                                  ; preds = %_ZN8NArchive3N7z17CFolderOutStream29CloseFileEv.exit.i
  %CrcDefined.i = getelementptr inbounds %"struct.NArchive::N7z::CFileItem", ptr %11, i64 0, i32 6
  %17 = load i8, ptr %CrcDefined.i, align 2, !tbaa !50, !range !42, !noundef !43
  %tobool2.not.i = icmp eq i8 %17, 0
  br i1 %tobool2.not.i, label %cleanup.cont30, label %_ZN8NArchive3N7z17CFolderOutStream221CloseFileAndSetResultEv.exit

_ZN8NArchive3N7z17CFolderOutStream221CloseFileAndSetResultEv.exit: ; preds = %lor.lhs.false.i
  %Crc.i = getelementptr inbounds %"struct.NArchive::N7z::CFileItem", ptr %11, i64 0, i32 2
  %18 = load i32, ptr %Crc.i, align 4, !tbaa !51
  %19 = load ptr, ptr %_crcStreamSpec.i, align 8, !tbaa !40
  %_crc.i.i = getelementptr inbounds %class.COutStreamWithCRC, ptr %19, i64 0, i32 5
  %20 = load i32, ptr %_crc.i.i, align 8, !tbaa !47
  %xor.i.i = xor i32 %20, -1
  %cmp.i.not = icmp eq i32 %18, %xor.i.i
  br i1 %cmp.i.not, label %cleanup.cont30, label %cleanup40.thread

cleanup.cont30:                                   ; preds = %_ZN8NArchive3N7z17CFolderOutStream29CloseFileEv.exit.i, %lor.lhs.false.i, %_ZN8NArchive3N7z17CFolderOutStream221CloseFileAndSetResultEv.exit
  %call32 = call noundef i32 @_ZN8NArchive3N7z17CFolderOutStream217ProcessEmptyFilesEv(ptr noundef nonnull align 8 dereferenceable(80) %this)
  %cmp33.not = icmp eq i32 %call32, 0
  br i1 %cmp33.not, label %cleanup40, label %cleanup40.thread

cleanup40.thread:                                 ; preds = %cleanup.cont30, %_ZN8NArchive3N7z17CFolderOutStream221CloseFileAndSetResultEv.exit, %if.then3
  %retval.4.ph = phi i32 [ %call7, %if.then3 ], [ 1, %_ZN8NArchive3N7z17CFolderOutStream221CloseFileAndSetResultEv.exit ], [ 1, %cleanup.cont30 ]
  call void @llvm.lifetime.end.p0(i64 4, ptr nonnull %cur) #16
  br label %return

cleanup40:                                        ; preds = %cleanup.cont30
  call void @llvm.lifetime.end.p0(i64 4, ptr nonnull %cur) #16
  %cmp2.not110 = icmp eq i32 %sub, 0
  br i1 %cmp2.not110, label %return, label %while.body.backedge

if.else:                                          ; preds = %while.body
  %call44 = call noundef i32 @_ZN8NArchive3N7z17CFolderOutStream217ProcessEmptyFilesEv(ptr noundef nonnull align 8 dereferenceable(80) %this)
  %cmp45.not.not = icmp eq i32 %call44, 0
  br i1 %cmp45.not.not, label %cleanup.cont50, label %return

cleanup.cont50:                                   ; preds = %if.else
  %21 = load i32, ptr %_currentIndex, align 4, !tbaa !31
  %22 = load ptr, ptr %_extractStatuses, align 8, !tbaa !27
  %_size.i = getelementptr inbounds %class.CBaseRecordVector, ptr %22, i64 0, i32 2
  %23 = load i32, ptr %_size.i, align 4, !tbaa !33
  %cmp52 = icmp eq i32 %21, %23
  br i1 %cmp52, label %return, label %if.end54

if.end54:                                         ; preds = %cleanup.cont50
  %24 = load ptr, ptr %_crcStreamSpec.i, align 8, !tbaa !40
  %_items.i.i = getelementptr inbounds %class.CBaseRecordVector, ptr %22, i64 0, i32 3
  %25 = load ptr, ptr %_items.i.i, align 8, !tbaa !36
  %idxprom.i.i = sext i32 %21 to i64
  %arrayidx.i.i = getelementptr inbounds i8, ptr %25, i64 %idxprom.i.i
  %26 = load i8, ptr %arrayidx.i.i, align 1, !tbaa !41, !range !42, !noundef !43
  %tobool.not.i76 = icmp eq i8 %26, 0
  %27 = load ptr, ptr %_outStream.i, align 8
  %cond.i = select i1 %tobool.not.i76, ptr null, ptr %27
  %_stream.i.i = getelementptr inbounds %class.COutStreamWithCRC, ptr %24, i64 0, i32 3
  %cmp.not.i.i.i = icmp eq ptr %cond.i, null
  br i1 %cmp.not.i.i.i, label %if.end.i.i.i, label %if.then.i.i.i

if.then.i.i.i:                                    ; preds = %if.end54
  %vtable.i.i.i = load ptr, ptr %cond.i, align 8, !tbaa !28
  %vfn.i.i.i = getelementptr inbounds ptr, ptr %vtable.i.i.i, i64 1
  %28 = load ptr, ptr %vfn.i.i.i, align 8
  %call.i.i.i = call noundef i32 %28(ptr noundef nonnull align 8 dereferenceable(8) %cond.i)
  br label %if.end.i.i.i

if.end.i.i.i:                                     ; preds = %if.then.i.i.i, %if.end54
  %29 = load ptr, ptr %_stream.i.i, align 8, !tbaa !30
  %tobool.not.i.i.i = icmp eq ptr %29, null
  br i1 %tobool.not.i.i.i, label %_ZN8NArchive3N7z17CFolderOutStream28OpenFileEv.exit, label %if.then2.i.i.i

if.then2.i.i.i:                                   ; preds = %if.end.i.i.i
  %vtable4.i.i.i = load ptr, ptr %29, align 8, !tbaa !28
  %vfn5.i.i.i = getelementptr inbounds ptr, ptr %vtable4.i.i.i, i64 2
  %30 = load ptr, ptr %vfn5.i.i.i, align 8
  %call6.i.i.i = call noundef i32 %30(ptr noundef nonnull align 8 dereferenceable(8) %29)
  br label %_ZN8NArchive3N7z17CFolderOutStream28OpenFileEv.exit

_ZN8NArchive3N7z17CFolderOutStream28OpenFileEv.exit: ; preds = %if.end.i.i.i, %if.then2.i.i.i
  store ptr %cond.i, ptr %_stream.i.i, align 8, !tbaa !30
  %31 = load ptr, ptr %_crcStreamSpec.i, align 8, !tbaa !40
  %_size.i.i = getelementptr inbounds %class.COutStreamWithCRC, ptr %31, i64 0, i32 4
  store i64 0, ptr %_size.i.i, align 8, !tbaa !44
  %_calculate.i.i = getelementptr inbounds %class.COutStreamWithCRC, ptr %31, i64 0, i32 6
  store i8 1, ptr %_calculate.i.i, align 4, !tbaa !46
  %_crc.i.i77 = getelementptr inbounds %class.COutStreamWithCRC, ptr %31, i64 0, i32 5
  store i32 -1, ptr %_crc.i.i77, align 8, !tbaa !47
  store i8 1, ptr %_fileIsOpen, align 8, !tbaa !32
  %32 = load ptr, ptr %_db.i78, align 8, !tbaa !18
  %33 = load i32, ptr %_startIndex.i79, align 8, !tbaa !26
  %34 = load i32, ptr %_currentIndex, align 4, !tbaa !31
  %add.i80 = add i32 %34, %33
  %_items.i.i.i81 = getelementptr inbounds %"struct.NArchive::N7z::CArchiveDatabase", ptr %32, i64 0, i32 5, i32 0, i32 0, i32 3
  %35 = load ptr, ptr %_items.i.i.i81, align 8, !tbaa !36
  %idxprom.i.i.i82 = sext i32 %add.i80 to i64
  %arrayidx.i.i.i83 = getelementptr inbounds ptr, ptr %35, i64 %idxprom.i.i.i82
  %36 = load ptr, ptr %arrayidx.i.i.i83, align 8, !tbaa !37
  %37 = load i64, ptr %36, align 8, !tbaa !38
  store i64 %37, ptr %_rem, align 8, !tbaa !48
  br label %if.end55

if.end55:                                         ; preds = %cleanup40.thread92, %_ZN8NArchive3N7z17CFolderOutStream28OpenFileEv.exit
  %size.addr.2 = phi i32 [ %size.addr.0111, %_ZN8NArchive3N7z17CFolderOutStream28OpenFileEv.exit ], [ %sub, %cleanup40.thread92 ]
  %data.addr.2 = phi ptr [ %data.addr.0112, %_ZN8NArchive3N7z17CFolderOutStream28OpenFileEv.exit ], [ %add.ptr, %cleanup40.thread92 ]
  %cmp2.not = icmp eq i32 %size.addr.2, 0
  br i1 %cmp2.not, label %return, label %while.body.backedge

while.body.backedge:                              ; preds = %if.end55, %cleanup40
  %data.addr.0112.be = phi ptr [ %data.addr.2, %if.end55 ], [ %add.ptr, %cleanup40 ]
  %size.addr.0111.be = phi i32 [ %size.addr.2, %if.end55 ], [ %sub, %cleanup40 ]
  br label %while.body, !llvm.loop !53

return:                                           ; preds = %cleanup40, %cleanup.cont50, %if.else, %if.end55, %if.end, %cleanup40.thread97, %cleanup40.thread
  %retval.7 = phi i32 [ %retval.4.ph, %cleanup40.thread ], [ 0, %cleanup40.thread97 ], [ 0, %if.end ], [ 0, %cleanup40 ], [ -2147467259, %cleanup.cont50 ], [ %call44, %if.else ], [ 0, %if.end55 ]
  ret i32 %retval.7
}

; Function Attrs: mustprogress uwtable
define dso_local void @_ZN8NArchive3N7z14CThreadDecoder7ExecuteEv(ptr noundef nonnull align 8 dereferenceable(536) %this) unnamed_addr #2 align 2 personality ptr @__gxx_personality_v0 {
entry:
  %passwordIsDefined = alloca i8, align 1
  call void @llvm.lifetime.start.p0(i64 1, ptr nonnull %passwordIsDefined) #16
  %Decoder = getelementptr inbounds %"class.NArchive::N7z::CThreadDecoder", ptr %this, i64 0, i32 9
  %InStream = getelementptr inbounds %"class.NArchive::N7z::CThreadDecoder", ptr %this, i64 0, i32 2
  %0 = load ptr, ptr %InStream, align 8, !tbaa !54
  %StartPos = getelementptr inbounds %"class.NArchive::N7z::CThreadDecoder", ptr %this, i64 0, i32 5
  %1 = load i64, ptr %StartPos, align 8, !tbaa !56
  %PackSizes = getelementptr inbounds %"class.NArchive::N7z::CThreadDecoder", ptr %this, i64 0, i32 6
  %2 = load ptr, ptr %PackSizes, align 8, !tbaa !75
  %Folder = getelementptr inbounds %"class.NArchive::N7z::CThreadDecoder", ptr %this, i64 0, i32 7
  %3 = load ptr, ptr %Folder, align 8, !tbaa !76
  %Fos = getelementptr inbounds %"class.NArchive::N7z::CThreadDecoder", ptr %this, i64 0, i32 4
  %4 = load ptr, ptr %Fos, align 8, !tbaa !30
  %GetTextPassword = getelementptr inbounds %"class.NArchive::N7z::CThreadDecoder", ptr %this, i64 0, i32 8
  %5 = load ptr, ptr %GetTextPassword, align 8, !tbaa !77
  %MtMode = getelementptr inbounds %"class.NArchive::N7z::CThreadDecoder", ptr %this, i64 0, i32 10
  %6 = load i8, ptr %MtMode, align 8, !tbaa !78, !range !42, !noundef !43
  %tobool = icmp ne i8 %6, 0
  %NumThreads = getelementptr inbounds %"class.NArchive::N7z::CThreadDecoder", ptr %this, i64 0, i32 11
  %7 = load i32, ptr %NumThreads, align 4, !tbaa !79
  %call7 = invoke noundef i32 @_ZN8NArchive3N7z8CDecoder6DecodeEP9IInStreamyPKyRKNS0_7CFolderEP20ISequentialOutStreamP21ICompressProgressInfoP22ICryptoGetTextPasswordRbbj(ptr noundef nonnull align 8 dereferenceable(232) %Decoder, ptr noundef %0, i64 noundef %1, ptr noundef %2, ptr noundef nonnull align 8 dereferenceable(133) %3, ptr noundef %4, ptr noundef null, ptr noundef %5, ptr noundef nonnull align 1 dereferenceable(1) %passwordIsDefined, i1 noundef zeroext %tobool, i32 noundef %7)
          to label %invoke.cont6 unwind label %lpad

invoke.cont6:                                     ; preds = %entry
  %Result = getelementptr inbounds %"class.NArchive::N7z::CThreadDecoder", ptr %this, i64 0, i32 1
  store i32 %call7, ptr %Result, align 4, !tbaa !80
  call void @llvm.lifetime.end.p0(i64 1, ptr nonnull %passwordIsDefined) #16
  br label %try.cont

lpad:                                             ; preds = %entry
  %8 = landingpad { ptr, i32 }
          catch ptr null
  %9 = extractvalue { ptr, i32 } %8, 0
  call void @llvm.lifetime.end.p0(i64 1, ptr nonnull %passwordIsDefined) #16
  %10 = call ptr @__cxa_begin_catch(ptr %9) #16
  %Result8 = getelementptr inbounds %"class.NArchive::N7z::CThreadDecoder", ptr %this, i64 0, i32 1
  store i32 -2147467259, ptr %Result8, align 4, !tbaa !80
  call void @__cxa_end_catch()
  %.pre = load i32, ptr %Result8, align 4, !tbaa !80
  br label %try.cont

try.cont:                                         ; preds = %lpad, %invoke.cont6
  %11 = phi i32 [ %.pre, %lpad ], [ %call7, %invoke.cont6 ]
  %cmp = icmp eq i32 %11, 0
  br i1 %cmp, label %if.then, label %try.cont.if.end_crit_edge

try.cont.if.end_crit_edge:                        ; preds = %try.cont
  %FosSpec12.phi.trans.insert = getelementptr inbounds %"class.NArchive::N7z::CThreadDecoder", ptr %this, i64 0, i32 3
  %.pre13 = load ptr, ptr %FosSpec12.phi.trans.insert, align 8, !tbaa !81
  br label %if.end

if.then:                                          ; preds = %try.cont
  %Result9 = getelementptr inbounds %"class.NArchive::N7z::CThreadDecoder", ptr %this, i64 0, i32 1
  %FosSpec = getelementptr inbounds %"class.NArchive::N7z::CThreadDecoder", ptr %this, i64 0, i32 3
  %12 = load ptr, ptr %FosSpec, align 8, !tbaa !81
  %_currentIndex.i = getelementptr inbounds %"class.NArchive::N7z::CFolderOutStream2", ptr %12, i64 0, i32 8
  %13 = load i32, ptr %_currentIndex.i, align 4, !tbaa !31
  %_extractStatuses.i = getelementptr inbounds %"class.NArchive::N7z::CFolderOutStream2", ptr %12, i64 0, i32 5
  %14 = load ptr, ptr %_extractStatuses.i, align 8, !tbaa !27
  %_size.i.i = getelementptr inbounds %class.CBaseRecordVector, ptr %14, i64 0, i32 2
  %15 = load i32, ptr %_size.i.i, align 4, !tbaa !33
  %cmp.i = icmp eq i32 %13, %15
  %cond.i = select i1 %cmp.i, i32 0, i32 -2147467259
  store i32 %cond.i, ptr %Result9, align 4, !tbaa !80
  br label %if.end

if.end:                                           ; preds = %try.cont.if.end_crit_edge, %if.then
  %16 = phi ptr [ %.pre13, %try.cont.if.end_crit_edge ], [ %12, %if.then ]
  %_outStream.i = getelementptr inbounds %"class.NArchive::N7z::CFolderOutStream2", ptr %16, i64 0, i32 6
  %17 = load ptr, ptr %_outStream.i, align 8, !tbaa !30
  %tobool.not.i.i = icmp eq ptr %17, null
  br i1 %tobool.not.i.i, label %_ZN9CMyComPtrI20ISequentialOutStreamE7ReleaseEv.exit.i, label %if.then.i.i

if.then.i.i:                                      ; preds = %if.end
  %vtable.i.i = load ptr, ptr %17, align 8, !tbaa !28
  %vfn.i.i = getelementptr inbounds ptr, ptr %vtable.i.i, i64 2
  %18 = load ptr, ptr %vfn.i.i, align 8
  %call.i.i = call noundef i32 %18(ptr noundef nonnull align 8 dereferenceable(8) %17)
  store ptr null, ptr %_outStream.i, align 8, !tbaa !30
  br label %_ZN9CMyComPtrI20ISequentialOutStreamE7ReleaseEv.exit.i

_ZN9CMyComPtrI20ISequentialOutStreamE7ReleaseEv.exit.i: ; preds = %if.then.i.i, %if.end
  %_crcStreamSpec.i = getelementptr inbounds %"class.NArchive::N7z::CFolderOutStream2", ptr %16, i64 0, i32 2
  %19 = load ptr, ptr %_crcStreamSpec.i, align 8, !tbaa !40
  %_stream.i.i = getelementptr inbounds %class.COutStreamWithCRC, ptr %19, i64 0, i32 3
  %20 = load ptr, ptr %_stream.i.i, align 8, !tbaa !30
  %tobool.not.i.i.i = icmp eq ptr %20, null
  br i1 %tobool.not.i.i.i, label %_ZN8NArchive3N7z17CFolderOutStream216ReleaseOutStreamEv.exit, label %if.then.i.i.i

if.then.i.i.i:                                    ; preds = %_ZN9CMyComPtrI20ISequentialOutStreamE7ReleaseEv.exit.i
  %vtable.i.i.i = load ptr, ptr %20, align 8, !tbaa !28
  %vfn.i.i.i = getelementptr inbounds ptr, ptr %vtable.i.i.i, i64 2
  %21 = load ptr, ptr %vfn.i.i.i, align 8
  %call.i.i.i = call noundef i32 %21(ptr noundef nonnull align 8 dereferenceable(8) %20)
  store ptr null, ptr %_stream.i.i, align 8, !tbaa !30
  br label %_ZN8NArchive3N7z17CFolderOutStream216ReleaseOutStreamEv.exit

_ZN8NArchive3N7z17CFolderOutStream216ReleaseOutStreamEv.exit: ; preds = %_ZN9CMyComPtrI20ISequentialOutStreamE7ReleaseEv.exit.i, %if.then.i.i.i
  ret void
}

declare noundef i32 @_ZN8NArchive3N7z8CDecoder6DecodeEP9IInStreamyPKyRKNS0_7CFolderEP20ISequentialOutStreamP21ICompressProgressInfoP22ICryptoGetTextPasswordRbbj(ptr noundef nonnull align 8 dereferenceable(232), ptr noundef, i64 noundef, ptr noundef, ptr noundef nonnull align 8 dereferenceable(133), ptr noundef, ptr noundef, ptr noundef, ptr noundef nonnull align 1 dereferenceable(1), i1 noundef zeroext, i32 noundef) local_unnamed_addr #3

declare i32 @__gxx_personality_v0(...)

declare ptr @__cxa_begin_catch(ptr) local_unnamed_addr

declare void @__cxa_end_catch() local_unnamed_addr

; Function Attrs: mustprogress uwtable
define dso_local noundef i32 @_ZN8NArchive3N7z22CCryptoGetTextPassword21CryptoGetTextPasswordEPPw(ptr nocapture noundef nonnull readonly align 8 dereferenceable(32) %this, ptr nocapture noundef writeonly %password) unnamed_addr #2 align 2 {
entry:
  %Password = getelementptr inbounds %"class.NArchive::N7z::CCryptoGetTextPassword", ptr %this, i64 0, i32 2
  %0 = load ptr, ptr %Password, align 8, !tbaa !82
  %call.i = tail call ptr @SysAllocString(ptr noundef %0)
  store ptr %call.i, ptr %password, align 8, !tbaa !37
  %cmp.not.i = icmp eq ptr %call.i, null
  %cond.i = select i1 %cmp.not.i, i32 -2147024882, i32 0
  ret i32 %cond.i
}

; Function Attrs: uwtable
define dso_local noundef i32 @_ZN8NArchive3N7z6UpdateEP9IInStreamPKNS0_18CArchiveDatabaseExERK13CObjectVectorINS0_11CUpdateItemEERNS0_11COutArchiveERNS0_16CArchiveDatabaseEP20ISequentialOutStreamP22IArchiveUpdateCallbackRKNS0_14CUpdateOptionsEP22ICryptoGetTextPassword(ptr noundef %inStream, ptr noundef %db, ptr noundef nonnull align 8 dereferenceable(32) %updateItems, ptr noundef nonnull align 8 dereferenceable(128) %archive, ptr noundef nonnull align 8 dereferenceable(480) %newDatabase, ptr noundef %seqOutStream, ptr noundef %updateCallback, ptr nocapture noundef nonnull readonly align 8 dereferenceable(43) %options, ptr noundef %getDecoderPassword) local_unnamed_addr #4 personality ptr @__gxx_personality_v0 {
entry:
  %temp.i.i = alloca %"struct.NArchive::N7z::CRefItem", align 8
  %agg.tmp7661898 = alloca %"struct.NArchive::N7z::CRefItem", align 8
  %methodFull.i = alloca %"struct.NArchive::N7z::CMethodFull", align 8
  %prop.i = alloca %struct.CProp, align 8
  %prop10.i = alloca %struct.CProp, align 8
  %prop23.i = alloca %struct.CProp, align 8
  %prop36.i = alloca %struct.CProp, align 8
  %prop49.i = alloca %struct.CProp, align 8
  %methodFull86.i = alloca %"struct.NArchive::N7z::CMethodFull", align 8
  %file.i = alloca %"class.NWindows::NFile::NIO::CInFile", align 8
  %buffer.i = alloca [512 x i8], align 16
  %processedSize.i = alloca i32, align 4
  %fileIndexToUpdateIndexMap = alloca %class.CRecordVector.18, align 8
  %folderRefs = alloca %class.CRecordVector.19, align 8
  %inSizeForReduce = alloca i64, align 8
  %threadDecoder = alloca %"class.NArchive::N7z::CThreadDecoder", align 8
  %groups = alloca %class.CObjectVector.22, align 8
  %ref.tmp = alloca %"struct.NArchive::N7z::CSolidGroup", align 8
  %password = alloca %class.CMyComBSTR, align 8
  %method350 = alloca %"struct.NArchive::N7z::CCompressionMethodMode", align 8
  %encoder = alloca %"class.NArchive::N7z::CEncoder", align 8
  %sb = alloca %class.CStreamBinder, align 8
  %sbOutStream = alloca %class.CMyComPtr, align 8
  %sbInStream = alloca %class.CMyComPtr.23, align 8
  %extractStatuses = alloca %class.CRecordVector.0, align 8
  %newFolder = alloca %"struct.NArchive::N7z::CFolder", align 8
  %file671 = alloca %"struct.NArchive::N7z::CFileItem", align 8
  %file2 = alloca %"struct.NArchive::N7z::CFileItem2", align 8
  %uf = alloca %"struct.NArchive::N7z::CFileItem", align 8
  %refItems = alloca %class.CRecordVector.24, align 8
  %sortByType = alloca i8, align 1
  %agg.tmp766 = alloca %"struct.NArchive::N7z::CRefItem", align 8
  %indices = alloca %class.CRecordVector.1, align 8
  %ext = alloca %class.CStringBase, align 8
  %folderItem = alloca %"struct.NArchive::N7z::CFolder", align 8
  %file928 = alloca %"struct.NArchive::N7z::CFileItem", align 8
  %file2931 = alloca %"struct.NArchive::N7z::CFileItem2", align 8
  %emptyRefs = alloca %class.CRecordVector.18, align 8
  %file1103 = alloca %"struct.NArchive::N7z::CFileItem", align 8
  %file21106 = alloca %"struct.NArchive::N7z::CFileItem2", align 8
  %NumSolidFiles = getelementptr inbounds %"struct.NArchive::N7z::CUpdateOptions", ptr %options, i64 0, i32 6
  %0 = load i64, ptr %NumSolidFiles, align 8, !tbaa !83
  %.fr = freeze i64 %0
  %spec.store.select = tail call i64 @llvm.umax.i64(i64 %.fr, i64 1)
  %cmp1.not = icmp eq ptr %db, null
  br i1 %cmp1.not, label %if.end7, label %cond.end

cond.end:                                         ; preds = %entry
  %StartPosition = getelementptr inbounds %"struct.NArchive::N7z::CArchiveDatabaseEx", ptr %db, i64 0, i32 1, i32 1
  %1 = load i64, ptr %StartPosition, align 8, !tbaa !86
  %cmp2.not = icmp ne i64 %1, 0
  %RemoveSfxBlock = getelementptr inbounds %"struct.NArchive::N7z::CUpdateOptions", ptr %options, i64 0, i32 9
  %2 = load i8, ptr %RemoveSfxBlock, align 1, !range !42
  %tobool.not = icmp eq i8 %2, 0
  %or.cond = select i1 %cmp2.not, i1 %tobool.not, i1 false
  br i1 %or.cond, label %if.then3, label %if.end7

if.then3:                                         ; preds = %cond.end
  %call = tail call fastcc noundef i32 @_ZN8NArchive3N7zL10WriteRangeEP9IInStreamP20ISequentialOutStreamyyP21ICompressProgressInfo(ptr noundef %inStream, ptr noundef %seqOutStream, i64 noundef 0, i64 noundef %1, ptr noundef null)
  %cmp4.not = icmp eq i32 %call, 0
  br i1 %cmp4.not, label %if.end7, label %cleanup1165

if.end7:                                          ; preds = %entry, %if.then3, %cond.end
  call void @llvm.lifetime.start.p0(i64 32, ptr nonnull %fileIndexToUpdateIndexMap) #16
  %_capacity.i.i = getelementptr inbounds %class.CBaseRecordVector, ptr %fileIndexToUpdateIndexMap, i64 0, i32 1
  %_itemSize.i.i = getelementptr inbounds %class.CBaseRecordVector, ptr %fileIndexToUpdateIndexMap, i64 0, i32 4
  call void @llvm.memset.p0.i64(ptr noundef nonnull align 8 dereferenceable(16) %_capacity.i.i, i8 0, i64 16, i1 false)
  store i64 4, ptr %_itemSize.i.i, align 8, !tbaa !95
  store ptr getelementptr inbounds ({ [5 x ptr] }, ptr @_ZTV13CRecordVectorIiE, i64 0, inrange i32 0, i64 2), ptr %fileIndexToUpdateIndexMap, align 8, !tbaa !28
  call void @llvm.lifetime.start.p0(i64 32, ptr nonnull %folderRefs) #16
  %_capacity.i.i1479 = getelementptr inbounds %class.CBaseRecordVector, ptr %folderRefs, i64 0, i32 1
  %_itemSize.i.i1480 = getelementptr inbounds %class.CBaseRecordVector, ptr %folderRefs, i64 0, i32 4
  call void @llvm.memset.p0.i64(ptr noundef nonnull align 8 dereferenceable(16) %_capacity.i.i1479, i8 0, i64 16, i1 false)
  store i64 12, ptr %_itemSize.i.i1480, align 8, !tbaa !95
  store ptr getelementptr inbounds ({ [5 x ptr] }, ptr @_ZTV13CRecordVectorIN8NArchive3N7z13CFolderRepackEE, i64 0, inrange i32 0, i64 2), ptr %folderRefs, align 8, !tbaa !28
  br i1 %cmp1.not, label %if.end123, label %if.then9

if.then9:                                         ; preds = %if.end7
  %_size.i = getelementptr inbounds %"struct.NArchive::N7z::CArchiveDatabase", ptr %db, i64 0, i32 5, i32 0, i32 0, i32 2
  %3 = load i32, ptr %_size.i, align 4, !tbaa !33
  invoke void @_ZN17CBaseRecordVector7ReserveEi(ptr noundef nonnull align 8 dereferenceable(32) %fileIndexToUpdateIndexMap, i32 noundef %3)
          to label %for.cond.preheader unwind label %lpad10

for.cond.preheader:                               ; preds = %if.then9
  %4 = load i32, ptr %_size.i, align 4, !tbaa !33
  %cmp182753 = icmp sgt i32 %4, 0
  br i1 %cmp182753, label %for.body.lr.ph, label %for.cond21.preheader

for.body.lr.ph:                                   ; preds = %for.cond.preheader
  %_items.i = getelementptr inbounds %class.CBaseRecordVector, ptr %fileIndexToUpdateIndexMap, i64 0, i32 3
  %_size.i1482 = getelementptr inbounds %class.CBaseRecordVector, ptr %fileIndexToUpdateIndexMap, i64 0, i32 2
  br label %for.body

for.cond21.preheader:                             ; preds = %_ZN13CRecordVectorIiE3AddEi.exit, %for.cond.preheader
  %_size.i1483 = getelementptr inbounds %class.CBaseRecordVector, ptr %updateItems, i64 0, i32 2
  %5 = load i32, ptr %_size.i1483, align 4, !tbaa !33
  %cmp242755 = icmp sgt i32 %5, 0
  br i1 %cmp242755, label %for.body25.lr.ph, label %for.cond37.preheader

for.body25.lr.ph:                                 ; preds = %for.cond21.preheader
  %_items.i.i = getelementptr inbounds %class.CBaseRecordVector, ptr %updateItems, i64 0, i32 3
  %6 = load ptr, ptr %_items.i.i, align 8, !tbaa !36
  %_items.i1484 = getelementptr inbounds %class.CBaseRecordVector, ptr %fileIndexToUpdateIndexMap, i64 0, i32 3
  %7 = load ptr, ptr %_items.i1484, align 8
  br label %for.body25

for.body:                                         ; preds = %for.body.lr.ph, %_ZN13CRecordVectorIiE3AddEi.exit
  %i.02754 = phi i32 [ 0, %for.body.lr.ph ], [ %inc, %_ZN13CRecordVectorIiE3AddEi.exit ]
  invoke void @_ZN17CBaseRecordVector18ReserveOnePositionEv(ptr noundef nonnull align 8 dereferenceable(32) %fileIndexToUpdateIndexMap)
          to label %_ZN13CRecordVectorIiE3AddEi.exit unwind label %lpad15.loopexit

_ZN13CRecordVectorIiE3AddEi.exit:                 ; preds = %for.body
  %8 = load ptr, ptr %_items.i, align 8, !tbaa !36
  %9 = load i32, ptr %_size.i1482, align 4, !tbaa !33
  %idxprom.i = sext i32 %9 to i64
  %arrayidx.i = getelementptr inbounds i32, ptr %8, i64 %idxprom.i
  store i32 -1, ptr %arrayidx.i, align 4, !tbaa !52
  %10 = load i32, ptr %_size.i1482, align 4, !tbaa !33
  %inc.i = add nsw i32 %10, 1
  store i32 %inc.i, ptr %_size.i1482, align 4, !tbaa !33
  %inc = add nuw nsw i32 %i.02754, 1
  %11 = load i32, ptr %_size.i, align 4, !tbaa !33
  %cmp18 = icmp slt i32 %inc, %11
  br i1 %cmp18, label %for.body, label %for.cond21.preheader, !llvm.loop !96

lpad10:                                           ; preds = %if.then9
  %12 = landingpad { ptr, i32 }
          cleanup
  br label %ehcleanup1152

lpad15.loopexit:                                  ; preds = %for.body
  %lpad.loopexit2297 = landingpad { ptr, i32 }
          cleanup
  br label %ehcleanup1152

lpad15.loopexit.split-lp:                         ; preds = %for.end120
  %lpad.loopexit.split-lp2298 = landingpad { ptr, i32 }
          cleanup
  br label %ehcleanup1152

for.cond37.preheader:                             ; preds = %if.end33, %for.cond21.preheader
  %_size.i1487 = getelementptr inbounds %"struct.NArchive::N7z::CArchiveDatabase", ptr %db, i64 0, i32 3, i32 0, i32 0, i32 2
  %13 = load i32, ptr %_size.i1487, align 4, !tbaa !33
  %cmp402763 = icmp sgt i32 %13, 0
  br i1 %cmp402763, label %for.body41.lr.ph, label %for.end120

for.body41.lr.ph:                                 ; preds = %for.cond37.preheader
  %_items.i1488 = getelementptr inbounds %"struct.NArchive::N7z::CArchiveDatabase", ptr %db, i64 0, i32 4, i32 0, i32 3
  %_items.i1491 = getelementptr inbounds %"struct.NArchive::N7z::CArchiveDatabaseEx", ptr %db, i64 0, i32 4, i32 0, i32 3
  %_items.i.i1494 = getelementptr inbounds %"struct.NArchive::N7z::CArchiveDatabase", ptr %db, i64 0, i32 5, i32 0, i32 0, i32 3
  %_items.i1497 = getelementptr inbounds %class.CBaseRecordVector, ptr %fileIndexToUpdateIndexMap, i64 0, i32 3
  %_items.i.i1500 = getelementptr inbounds %class.CBaseRecordVector, ptr %updateItems, i64 0, i32 3
  %_items.i.i1503 = getelementptr inbounds %"struct.NArchive::N7z::CArchiveDatabase", ptr %db, i64 0, i32 3, i32 0, i32 0, i32 3
  %_items.i1509 = getelementptr inbounds %class.CBaseRecordVector, ptr %folderRefs, i64 0, i32 3
  %_size.i1510 = getelementptr inbounds %class.CBaseRecordVector, ptr %folderRefs, i64 0, i32 2
  %_items.i.i1514 = getelementptr inbounds %"struct.NArchive::N7z::CArchiveDatabaseEx", ptr %db, i64 0, i32 3, i32 0, i32 3
  %_items.i10.i = getelementptr inbounds %class.CBaseRecordVector, ptr %db, i64 0, i32 3
  br label %for.body41

for.body25:                                       ; preds = %for.body25.lr.ph, %if.end33
  %14 = phi i32 [ %5, %for.body25.lr.ph ], [ %18, %if.end33 ]
  %indvars.iv = phi i64 [ 0, %for.body25.lr.ph ], [ %indvars.iv.next, %if.end33 ]
  %arrayidx.i.i = getelementptr inbounds ptr, ptr %6, i64 %indvars.iv
  %15 = load ptr, ptr %arrayidx.i.i, align 8, !tbaa !37
  %16 = load i32, ptr %15, align 8, !tbaa !97
  %cmp29.not = icmp eq i32 %16, -1
  br i1 %cmp29.not, label %if.end33, label %if.then30

if.then30:                                        ; preds = %for.body25
  %idxprom.i1485 = sext i32 %16 to i64
  %arrayidx.i1486 = getelementptr inbounds i32, ptr %7, i64 %idxprom.i1485
  %17 = trunc i64 %indvars.iv to i32
  store i32 %17, ptr %arrayidx.i1486, align 4, !tbaa !52
  %.pre = load i32, ptr %_size.i1483, align 4, !tbaa !33
  br label %if.end33

if.end33:                                         ; preds = %if.then30, %for.body25
  %18 = phi i32 [ %.pre, %if.then30 ], [ %14, %for.body25 ]
  %indvars.iv.next = add nuw nsw i64 %indvars.iv, 1
  %19 = sext i32 %18 to i64
  %cmp24 = icmp slt i64 %indvars.iv.next, %19
  br i1 %cmp24, label %for.body25, label %for.cond37.preheader, !llvm.loop !99

for.body41:                                       ; preds = %for.body41.lr.ph, %cleanup108
  %20 = phi i32 [ %13, %for.body41.lr.ph ], [ %87, %cleanup108 ]
  %indvars.iv3091 = phi i64 [ 0, %for.body41.lr.ph ], [ %indvars.iv.next3092, %cleanup108 ]
  %complexity.02767 = phi i64 [ 0, %for.body41.lr.ph ], [ %complexity.2, %cleanup108 ]
  %inSizeForReduce2.02766 = phi i64 [ 0, %for.body41.lr.ph ], [ %inSizeForReduce2.3, %cleanup108 ]
  %needEncryptedRepack.02765 = phi i8 [ 0, %for.body41.lr.ph ], [ %needEncryptedRepack.2, %cleanup108 ]
  %21 = load ptr, ptr %_items.i1488, align 8, !tbaa !36
  %arrayidx.i1490 = getelementptr inbounds i32, ptr %21, i64 %indvars.iv3091
  %22 = load i32, ptr %arrayidx.i1490, align 4, !tbaa !52
  %cmp492757.not = icmp eq i32 %22, 0
  br i1 %cmp492757.not, label %cleanup108, label %for.body50.lr.ph

for.body50.lr.ph:                                 ; preds = %for.body41
  %23 = load ptr, ptr %_items.i1491, align 8, !tbaa !36
  %arrayidx.i1493 = getelementptr inbounds i32, ptr %23, i64 %indvars.iv3091
  %24 = load i32, ptr %arrayidx.i1493, align 4, !tbaa !52
  %25 = load ptr, ptr %_items.i.i1494, align 8, !tbaa !36
  %26 = load ptr, ptr %_items.i1497, align 8
  %27 = load ptr, ptr %_items.i.i1500, align 8
  br label %for.body50

for.cond.cleanup:                                 ; preds = %if.end69
  %cmp75 = icmp eq i32 %numCopyItems.2, 0
  br i1 %cmp75, label %cleanup108, label %if.end77

for.body50:                                       ; preds = %for.body50.lr.ph, %if.end69
  %indexInFolder.02761 = phi i32 [ 0, %for.body50.lr.ph ], [ %indexInFolder.1, %if.end69 ]
  %numCopyItems.02760 = phi i32 [ 0, %for.body50.lr.ph ], [ %numCopyItems.2, %if.end69 ]
  %repackSize.02759 = phi i64 [ 0, %for.body50.lr.ph ], [ %repackSize.2, %if.end69 ]
  %fi.02758 = phi i32 [ %24, %for.body50.lr.ph ], [ %inc71, %if.end69 ]
  %idxprom.i.i1495 = sext i32 %fi.02758 to i64
  %arrayidx.i.i1496 = getelementptr inbounds ptr, ptr %25, i64 %idxprom.i.i1495
  %28 = load ptr, ptr %arrayidx.i.i1496, align 8, !tbaa !37
  %HasStream = getelementptr inbounds %"struct.NArchive::N7z::CFileItem", ptr %28, i64 0, i32 4
  %29 = load i8, ptr %HasStream, align 8, !tbaa !100, !range !42, !noundef !43
  %tobool55.not = icmp eq i8 %29, 0
  br i1 %tobool55.not, label %if.end69, label %if.then56

if.then56:                                        ; preds = %for.body50
  %inc57 = add nuw i32 %indexInFolder.02761, 1
  %arrayidx.i1499 = getelementptr inbounds i32, ptr %26, i64 %idxprom.i.i1495
  %30 = load i32, ptr %arrayidx.i1499, align 4, !tbaa !52
  %cmp61 = icmp sgt i32 %30, -1
  br i1 %cmp61, label %land.lhs.true62, label %if.end69

land.lhs.true62:                                  ; preds = %if.then56
  %idxprom.i.i1501 = zext i32 %30 to i64
  %arrayidx.i.i1502 = getelementptr inbounds ptr, ptr %27, i64 %idxprom.i.i1501
  %31 = load ptr, ptr %arrayidx.i.i1502, align 8, !tbaa !37
  %NewData = getelementptr inbounds %"struct.NArchive::N7z::CUpdateItem", ptr %31, i64 0, i32 8
  %32 = load i8, ptr %NewData, align 4, !tbaa !101, !range !42, !noundef !43
  %tobool65.not = icmp eq i8 %32, 0
  br i1 %tobool65.not, label %if.then66, label %if.end69

if.then66:                                        ; preds = %land.lhs.true62
  %inc67 = add i32 %numCopyItems.02760, 1
  %33 = load i64, ptr %28, align 8, !tbaa !38
  %add = add i64 %33, %repackSize.02759
  br label %if.end69

if.end69:                                         ; preds = %if.then56, %land.lhs.true62, %if.then66, %for.body50
  %repackSize.2 = phi i64 [ %repackSize.02759, %for.body50 ], [ %repackSize.02759, %land.lhs.true62 ], [ %add, %if.then66 ], [ %repackSize.02759, %if.then56 ]
  %numCopyItems.2 = phi i32 [ %numCopyItems.02760, %for.body50 ], [ %numCopyItems.02760, %land.lhs.true62 ], [ %inc67, %if.then66 ], [ %numCopyItems.02760, %if.then56 ]
  %indexInFolder.1 = phi i32 [ %indexInFolder.02761, %for.body50 ], [ %inc57, %land.lhs.true62 ], [ %inc57, %if.then66 ], [ %inc57, %if.then56 ]
  %inc71 = add i32 %fi.02758, 1
  %cmp49 = icmp ult i32 %indexInFolder.1, %22
  br i1 %cmp49, label %for.body50, label %for.cond.cleanup, !llvm.loop !102

if.end77:                                         ; preds = %for.cond.cleanup
  %34 = load ptr, ptr %_items.i.i1503, align 8, !tbaa !36
  %arrayidx.i.i1505 = getelementptr inbounds ptr, ptr %34, i64 %indvars.iv3091
  %35 = load ptr, ptr %arrayidx.i.i1505, align 8, !tbaa !37
  %_size.i.i = getelementptr %class.CBaseRecordVector, ptr %35, i64 0, i32 2
  %36 = load i32, ptr %_size.i.i, align 4
  %_items.i.i.i = getelementptr %class.CBaseRecordVector, ptr %35, i64 0, i32 3
  %37 = load ptr, ptr %_items.i.i.i, align 8
  %38 = zext i32 %36 to i64
  br label %for.cond.i

for.cond.i:                                       ; preds = %for.body.i, %if.end77
  %indvars.iv.i = phi i64 [ %40, %for.body.i ], [ %38, %if.end77 ]
  %39 = trunc i64 %indvars.iv.i to i32
  %cmp.i = icmp sgt i32 %39, 0
  br i1 %cmp.i, label %for.body.i, label %invoke.cont83

for.body.i:                                       ; preds = %for.cond.i
  %40 = add nsw i64 %indvars.iv.i, -1
  %arrayidx.i.i.i = getelementptr inbounds ptr, ptr %37, i64 %40
  %41 = load ptr, ptr %arrayidx.i.i.i, align 8, !tbaa !37
  %42 = load i64, ptr %41, align 8, !tbaa !103
  %cmp4.i = icmp eq i64 %42, 116459265
  br i1 %cmp4.i, label %invoke.cont83, label %for.cond.i, !llvm.loop !106

invoke.cont83:                                    ; preds = %for.body.i, %for.cond.i
  %cmp1.i = icmp sgt i32 %36, 0
  br i1 %cmp1.i, label %for.body.i1508, label %invoke.cont86

for.body.i1508:                                   ; preds = %invoke.cont83, %for.inc.i
  %indvars.iv.i1506 = phi i64 [ %indvars.iv.next.i, %for.inc.i ], [ 0, %invoke.cont83 ]
  %arrayidx.i.i.i1507 = getelementptr inbounds ptr, ptr %37, i64 %indvars.iv.i1506
  %43 = load ptr, ptr %arrayidx.i.i.i1507, align 8, !tbaa !37
  %44 = load i64, ptr %43, align 8, !tbaa !103
  switch i64 %44, label %for.inc.i [
    i64 50528539, label %invoke.cont86
    i64 50528515, label %invoke.cont86
  ]

for.inc.i:                                        ; preds = %for.body.i1508
  %indvars.iv.next.i = add nuw nsw i64 %indvars.iv.i1506, 1
  %exitcond.not.i = icmp eq i64 %indvars.iv.next.i, %38
  br i1 %exitcond.not.i, label %invoke.cont86, label %for.body.i1508, !llvm.loop !107

invoke.cont86:                                    ; preds = %for.inc.i, %for.body.i1508, %for.body.i1508, %invoke.cont83
  %switch.i = phi i64 [ 0, %invoke.cont83 ], [ 0, %for.inc.i ], [ 4294967296, %for.body.i1508 ], [ 4294967296, %for.body.i1508 ]
  invoke void @_ZN17CBaseRecordVector18ReserveOnePositionEv(ptr noundef nonnull align 8 dereferenceable(32) %folderRefs)
          to label %_ZN13CRecordVectorIN8NArchive3N7z13CFolderRepackEE3AddES2_.exit unwind label %lpad82

_ZN13CRecordVectorIN8NArchive3N7z13CFolderRepackEE3AddES2_.exit: ; preds = %invoke.cont86
  %cond.i = select i1 %cmp.i, i64 8589934592, i64 0
  %45 = or i64 %cond.i, %switch.i
  %rep.sroa.0.4.insert.insert = or i64 %45, %indvars.iv3091
  %46 = load ptr, ptr %_items.i1509, align 8, !tbaa !36
  %47 = load i32, ptr %_size.i1510, align 4, !tbaa !33
  %idxprom.i1511 = sext i32 %47 to i64
  %arrayidx.i1512 = getelementptr inbounds %"struct.NArchive::N7z::CFolderRepack", ptr %46, i64 %idxprom.i1511
  store i64 %rep.sroa.0.4.insert.insert, ptr %arrayidx.i1512, align 4, !tbaa.struct !108
  %item.sroa.2.0.arrayidx.sroa_idx.i = getelementptr inbounds i8, ptr %arrayidx.i1512, i64 8
  store i32 %numCopyItems.2, ptr %item.sroa.2.0.arrayidx.sroa_idx.i, align 4, !tbaa.struct !109
  %48 = load i32, ptr %_size.i1510, align 4, !tbaa !33
  %inc.i1513 = add nsw i32 %48, 1
  store i32 %inc.i1513, ptr %_size.i1510, align 4, !tbaa !33
  %cmp92 = icmp eq i32 %numCopyItems.2, %22
  br i1 %cmp92, label %if.then93, label %if.else

if.then93:                                        ; preds = %_ZN13CRecordVectorIN8NArchive3N7z13CFolderRepackEE3AddES2_.exit
  %49 = load ptr, ptr %_items.i.i1514, align 8, !tbaa !36
  %arrayidx.i.i1516 = getelementptr inbounds i32, ptr %49, i64 %indvars.iv3091
  %50 = load i32, ptr %arrayidx.i.i1516, align 4, !tbaa !52
  %51 = load ptr, ptr %_items.i.i1503, align 8, !tbaa !36
  %arrayidx.i.i.i1518 = getelementptr inbounds ptr, ptr %51, i64 %indvars.iv3091
  %52 = load ptr, ptr %arrayidx.i.i.i1518, align 8, !tbaa !37
  %_size.i.i1519 = getelementptr inbounds %"struct.NArchive::N7z::CFolder", ptr %52, i64 0, i32 2, i32 0, i32 2
  %53 = load i32, ptr %_size.i.i1519, align 4, !tbaa !33
  %cmp13.i = icmp sgt i32 %53, 0
  br i1 %cmp13.i, label %for.body.lr.ph.i, label %if.end104

for.body.lr.ph.i:                                 ; preds = %if.then93
  %54 = load ptr, ptr %_items.i10.i, align 8, !tbaa !36
  %wide.trip.count.i1520 = zext i32 %53 to i64
  %min.iters.check = icmp ult i32 %53, 10
  br i1 %min.iters.check, label %for.body.i1525.preheader, label %vector.scevcheck

vector.scevcheck:                                 ; preds = %for.body.lr.ph.i
  %55 = add nsw i64 %wide.trip.count.i1520, -1
  %56 = trunc i64 %55 to i32
  %57 = add i32 %50, %56
  %58 = icmp slt i32 %57, %50
  %59 = icmp ugt i64 %55, 4294967295
  %60 = or i1 %58, %59
  br i1 %60, label %for.body.i1525.preheader, label %vector.ph

vector.ph:                                        ; preds = %vector.scevcheck
  %n.vec = and i64 %wide.trip.count.i1520, 4294967292
  br label %vector.body

vector.body:                                      ; preds = %vector.body, %vector.ph
  %offset.idx = phi i64 [ 0, %vector.ph ], [ %index.next, %vector.body ]
  %vec.phi = phi <2 x i64> [ zeroinitializer, %vector.ph ], [ %66, %vector.body ]
  %vec.phi4218 = phi <2 x i64> [ zeroinitializer, %vector.ph ], [ %67, %vector.body ]
  %61 = trunc i64 %offset.idx to i32
  %62 = add i32 %50, %61
  %63 = sext i32 %62 to i64
  %64 = getelementptr inbounds i64, ptr %54, i64 %63
  %wide.load = load <2 x i64>, ptr %64, align 8, !tbaa !110
  %65 = getelementptr inbounds i64, ptr %64, i64 2
  %wide.load4219 = load <2 x i64>, ptr %65, align 8, !tbaa !110
  %66 = add <2 x i64> %wide.load, %vec.phi
  %67 = add <2 x i64> %wide.load4219, %vec.phi4218
  %index.next = add nuw i64 %offset.idx, 4
  %68 = icmp eq i64 %index.next, %n.vec
  br i1 %68, label %middle.block, label %vector.body, !llvm.loop !111

middle.block:                                     ; preds = %vector.body
  %bin.rdx = add <2 x i64> %67, %66
  %69 = call i64 @llvm.vector.reduce.add.v2i64(<2 x i64> %bin.rdx)
  %cmp.n = icmp eq i64 %n.vec, %wide.trip.count.i1520
  br i1 %cmp.n, label %if.end104, label %for.body.i1525.preheader

for.body.i1525.preheader:                         ; preds = %vector.scevcheck, %for.body.lr.ph.i, %middle.block
  %indvars.iv.i1521.ph = phi i64 [ 0, %vector.scevcheck ], [ 0, %for.body.lr.ph.i ], [ %n.vec, %middle.block ]
  %size.014.i.ph = phi i64 [ 0, %vector.scevcheck ], [ 0, %for.body.lr.ph.i ], [ %69, %middle.block ]
  %70 = xor i64 %indvars.iv.i1521.ph, -1
  %71 = add nsw i64 %70, %wide.trip.count.i1520
  %xtraiter = and i64 %wide.trip.count.i1520, 3
  %lcmp.mod.not = icmp eq i64 %xtraiter, 0
  br i1 %lcmp.mod.not, label %for.body.i1525.prol.loopexit, label %for.body.i1525.prol

for.body.i1525.prol:                              ; preds = %for.body.i1525.preheader, %for.body.i1525.prol
  %indvars.iv.i1521.prol = phi i64 [ %indvars.iv.next.i1523.prol, %for.body.i1525.prol ], [ %indvars.iv.i1521.ph, %for.body.i1525.preheader ]
  %size.014.i.prol = phi i64 [ %add5.i.prol, %for.body.i1525.prol ], [ %size.014.i.ph, %for.body.i1525.preheader ]
  %prol.iter = phi i64 [ %prol.iter.next, %for.body.i1525.prol ], [ 0, %for.body.i1525.preheader ]
  %72 = trunc i64 %indvars.iv.i1521.prol to i32
  %add.i1522.prol = add i32 %50, %72
  %idxprom.i11.i.prol = sext i32 %add.i1522.prol to i64
  %arrayidx.i12.i.prol = getelementptr inbounds i64, ptr %54, i64 %idxprom.i11.i.prol
  %73 = load i64, ptr %arrayidx.i12.i.prol, align 8, !tbaa !110
  %add5.i.prol = add i64 %73, %size.014.i.prol
  %indvars.iv.next.i1523.prol = add nuw nsw i64 %indvars.iv.i1521.prol, 1
  %prol.iter.next = add i64 %prol.iter, 1
  %prol.iter.cmp.not = icmp eq i64 %prol.iter.next, %xtraiter
  br i1 %prol.iter.cmp.not, label %for.body.i1525.prol.loopexit, label %for.body.i1525.prol, !llvm.loop !114

for.body.i1525.prol.loopexit:                     ; preds = %for.body.i1525.prol, %for.body.i1525.preheader
  %add5.i.lcssa.unr = phi i64 [ undef, %for.body.i1525.preheader ], [ %add5.i.prol, %for.body.i1525.prol ]
  %indvars.iv.i1521.unr = phi i64 [ %indvars.iv.i1521.ph, %for.body.i1525.preheader ], [ %indvars.iv.next.i1523.prol, %for.body.i1525.prol ]
  %size.014.i.unr = phi i64 [ %size.014.i.ph, %for.body.i1525.preheader ], [ %add5.i.prol, %for.body.i1525.prol ]
  %74 = icmp ult i64 %71, 3
  br i1 %74, label %if.end104, label %for.body.i1525

for.body.i1525:                                   ; preds = %for.body.i1525.prol.loopexit, %for.body.i1525
  %indvars.iv.i1521 = phi i64 [ %indvars.iv.next.i1523.3, %for.body.i1525 ], [ %indvars.iv.i1521.unr, %for.body.i1525.prol.loopexit ]
  %size.014.i = phi i64 [ %add5.i.3, %for.body.i1525 ], [ %size.014.i.unr, %for.body.i1525.prol.loopexit ]
  %75 = trunc i64 %indvars.iv.i1521 to i32
  %add.i1522 = add i32 %50, %75
  %idxprom.i11.i = sext i32 %add.i1522 to i64
  %arrayidx.i12.i = getelementptr inbounds i64, ptr %54, i64 %idxprom.i11.i
  %76 = load i64, ptr %arrayidx.i12.i, align 8, !tbaa !110
  %add5.i = add i64 %76, %size.014.i
  %77 = trunc i64 %indvars.iv.i1521 to i32
  %78 = add i32 %77, 1
  %add.i1522.1 = add i32 %50, %78
  %idxprom.i11.i.1 = sext i32 %add.i1522.1 to i64
  %arrayidx.i12.i.1 = getelementptr inbounds i64, ptr %54, i64 %idxprom.i11.i.1
  %79 = load i64, ptr %arrayidx.i12.i.1, align 8, !tbaa !110
  %add5.i.1 = add i64 %79, %add5.i
  %80 = trunc i64 %indvars.iv.i1521 to i32
  %81 = add i32 %80, 2
  %add.i1522.2 = add i32 %50, %81
  %idxprom.i11.i.2 = sext i32 %add.i1522.2 to i64
  %arrayidx.i12.i.2 = getelementptr inbounds i64, ptr %54, i64 %idxprom.i11.i.2
  %82 = load i64, ptr %arrayidx.i12.i.2, align 8, !tbaa !110
  %add5.i.2 = add i64 %82, %add5.i.1
  %83 = trunc i64 %indvars.iv.i1521 to i32
  %84 = add i32 %83, 3
  %add.i1522.3 = add i32 %50, %84
  %idxprom.i11.i.3 = sext i32 %add.i1522.3 to i64
  %arrayidx.i12.i.3 = getelementptr inbounds i64, ptr %54, i64 %idxprom.i11.i.3
  %85 = load i64, ptr %arrayidx.i12.i.3, align 8, !tbaa !110
  %add5.i.3 = add i64 %85, %add5.i.2
  %indvars.iv.next.i1523.3 = add nuw nsw i64 %indvars.iv.i1521, 4
  %exitcond.not.i1524.3 = icmp eq i64 %indvars.iv.next.i1523.3, %wide.trip.count.i1520
  br i1 %exitcond.not.i1524.3, label %if.end104, label %for.body.i1525, !llvm.loop !116

lpad82:                                           ; preds = %invoke.cont86
  %86 = landingpad { ptr, i32 }
          cleanup
  br label %ehcleanup1152

if.else:                                          ; preds = %_ZN13CRecordVectorIN8NArchive3N7z13CFolderRepackEE3AddES2_.exit
  %spec.select = call i64 @llvm.umax.i64(i64 %repackSize.2, i64 %inSizeForReduce2.02766)
  %spec.select2247 = select i1 %cmp.i, i8 1, i8 %needEncryptedRepack.02765
  br label %if.end104

if.end104:                                        ; preds = %for.body.i1525.prol.loopexit, %for.body.i1525, %middle.block, %if.else, %if.then93
  %needEncryptedRepack.1 = phi i8 [ %needEncryptedRepack.02765, %if.then93 ], [ %spec.select2247, %if.else ], [ %needEncryptedRepack.02765, %middle.block ], [ %needEncryptedRepack.02765, %for.body.i1525 ], [ %needEncryptedRepack.02765, %for.body.i1525.prol.loopexit ]
  %inSizeForReduce2.2 = phi i64 [ %inSizeForReduce2.02766, %if.then93 ], [ %spec.select, %if.else ], [ %inSizeForReduce2.02766, %middle.block ], [ %inSizeForReduce2.02766, %for.body.i1525 ], [ %inSizeForReduce2.02766, %for.body.i1525.prol.loopexit ]
  %size.0.lcssa.i.pn = phi i64 [ 0, %if.then93 ], [ %repackSize.2, %if.else ], [ %69, %middle.block ], [ %add5.i.lcssa.unr, %for.body.i1525.prol.loopexit ], [ %add5.i.3, %for.body.i1525 ]
  %complexity.1 = add i64 %size.0.lcssa.i.pn, %complexity.02767
  %.pre3159 = load i32, ptr %_size.i1487, align 4, !tbaa !33
  br label %cleanup108

cleanup108:                                       ; preds = %for.body41, %for.cond.cleanup, %if.end104
  %87 = phi i32 [ %.pre3159, %if.end104 ], [ %20, %for.cond.cleanup ], [ %20, %for.body41 ]
  %needEncryptedRepack.2 = phi i8 [ %needEncryptedRepack.1, %if.end104 ], [ %needEncryptedRepack.02765, %for.cond.cleanup ], [ %needEncryptedRepack.02765, %for.body41 ]
  %inSizeForReduce2.3 = phi i64 [ %inSizeForReduce2.2, %if.end104 ], [ %inSizeForReduce2.02766, %for.cond.cleanup ], [ %inSizeForReduce2.02766, %for.body41 ]
  %complexity.2 = phi i64 [ %complexity.1, %if.end104 ], [ %complexity.02767, %for.cond.cleanup ], [ %complexity.02767, %for.body41 ]
  %indvars.iv.next3092 = add nuw nsw i64 %indvars.iv3091, 1
  %88 = sext i32 %87 to i64
  %cmp40 = icmp slt i64 %indvars.iv.next3092, %88
  br i1 %cmp40, label %for.body41, label %for.end120, !llvm.loop !117

for.end120:                                       ; preds = %cleanup108, %for.cond37.preheader
  %needEncryptedRepack.0.lcssa = phi i8 [ 0, %for.cond37.preheader ], [ %needEncryptedRepack.2, %cleanup108 ]
  %inSizeForReduce2.0.lcssa = phi i64 [ 0, %for.cond37.preheader ], [ %inSizeForReduce2.3, %cleanup108 ]
  %complexity.0.lcssa = phi i64 [ 0, %for.cond37.preheader ], [ %complexity.2, %cleanup108 ]
  invoke void @_ZN13CRecordVectorIN8NArchive3N7z13CFolderRepackEE4SortEPFiPKS2_S5_PvES6_(ptr noundef nonnull align 8 dereferenceable(32) %folderRefs, ptr noundef nonnull @_ZN8NArchive3N7zL20CompareFolderRepacksEPKNS0_13CFolderRepackES3_Pv, ptr noundef nonnull %db)
          to label %if.end123 unwind label %lpad15.loopexit.split-lp

if.end123:                                        ; preds = %for.end120, %if.end7
  %needEncryptedRepack.3 = phi i8 [ 0, %if.end7 ], [ %needEncryptedRepack.0.lcssa, %for.end120 ]
  %inSizeForReduce2.4 = phi i64 [ 0, %if.end7 ], [ %inSizeForReduce2.0.lcssa, %for.end120 ]
  %complexity.3 = phi i64 [ 0, %if.end7 ], [ %complexity.0.lcssa, %for.end120 ]
  call void @llvm.lifetime.start.p0(i64 8, ptr nonnull %inSizeForReduce) #16
  store i64 0, ptr %inSizeForReduce, align 8, !tbaa !110
  %_size.i1526 = getelementptr inbounds %class.CBaseRecordVector, ptr %updateItems, i64 0, i32 2
  %89 = load i32, ptr %_size.i1526, align 4, !tbaa !33
  %cmp1292771 = icmp sgt i32 %89, 0
  br i1 %cmp1292771, label %for.body130.lr.ph, label %for.end154

for.body130.lr.ph:                                ; preds = %if.end123
  %_items.i.i1527 = getelementptr inbounds %class.CBaseRecordVector, ptr %updateItems, i64 0, i32 3
  %90 = load ptr, ptr %_items.i.i1527, align 8, !tbaa !36
  %cmp139.not = icmp ult i64 %.fr, 2
  %wide.trip.count = zext i32 %89 to i64
  br i1 %cmp139.not, label %for.body130.us.preheader, label %for.body130.preheader

for.body130.preheader:                            ; preds = %for.body130.lr.ph
  %xtraiter4490 = and i64 %wide.trip.count, 1
  %91 = icmp eq i32 %89, 1
  br i1 %91, label %for.end154.loopexit4486.unr-lcssa, label %for.body130.preheader.new

for.body130.preheader.new:                        ; preds = %for.body130.preheader
  %unroll_iter = and i64 %wide.trip.count, 4294967294
  br label %for.body130

for.body130.us.preheader:                         ; preds = %for.body130.lr.ph
  %xtraiter4494 = and i64 %wide.trip.count, 1
  %92 = icmp eq i32 %89, 1
  br i1 %92, label %for.end154.loopexit.unr-lcssa, label %for.body130.us.preheader.new

for.body130.us.preheader.new:                     ; preds = %for.body130.us.preheader
  %unroll_iter4499 = and i64 %wide.trip.count, 4294967294
  br label %for.body130.us

for.body130.us:                                   ; preds = %if.end150.us.1, %for.body130.us.preheader.new
  %indvars.iv3093.us = phi i64 [ 0, %for.body130.us.preheader.new ], [ %indvars.iv.next3094.us.1, %if.end150.us.1 ]
  %complexity.42773.us = phi i64 [ %complexity.3, %for.body130.us.preheader.new ], [ %complexity.5.us.1, %if.end150.us.1 ]
  %93 = phi i64 [ 0, %for.body130.us.preheader.new ], [ %101, %if.end150.us.1 ]
  %niter4500 = phi i64 [ 0, %for.body130.us.preheader.new ], [ %niter4500.next.1, %if.end150.us.1 ]
  %arrayidx.i.i1529.us = getelementptr inbounds ptr, ptr %90, i64 %indvars.iv3093.us
  %94 = load ptr, ptr %arrayidx.i.i1529.us, align 8, !tbaa !37
  %NewData134.us = getelementptr inbounds %"struct.NArchive::N7z::CUpdateItem", ptr %94, i64 0, i32 8
  %95 = load i8, ptr %NewData134.us, align 4, !tbaa !101, !range !42, !noundef !43
  %tobool135.not.us = icmp eq i8 %95, 0
  br i1 %tobool135.not.us, label %if.end150.us, label %if.then136.us

if.then136.us:                                    ; preds = %for.body130.us
  %Size137.us = getelementptr inbounds %"struct.NArchive::N7z::CUpdateItem", ptr %94, i64 0, i32 5
  %96 = load i64, ptr %Size137.us, align 8, !tbaa !118
  %add138.us = add i64 %96, %complexity.42773.us
  %cmp145.us = icmp ugt i64 %96, %93
  br i1 %cmp145.us, label %if.then146.us, label %if.end150.us

if.then146.us:                                    ; preds = %if.then136.us
  store i64 %96, ptr %inSizeForReduce, align 8, !tbaa !110
  br label %if.end150.us

if.end150.us:                                     ; preds = %if.then146.us, %if.then136.us, %for.body130.us
  %97 = phi i64 [ %96, %if.then146.us ], [ %93, %if.then136.us ], [ %93, %for.body130.us ]
  %complexity.5.us = phi i64 [ %add138.us, %if.then146.us ], [ %add138.us, %if.then136.us ], [ %complexity.42773.us, %for.body130.us ]
  %indvars.iv.next3094.us = or i64 %indvars.iv3093.us, 1
  %arrayidx.i.i1529.us.1 = getelementptr inbounds ptr, ptr %90, i64 %indvars.iv.next3094.us
  %98 = load ptr, ptr %arrayidx.i.i1529.us.1, align 8, !tbaa !37
  %NewData134.us.1 = getelementptr inbounds %"struct.NArchive::N7z::CUpdateItem", ptr %98, i64 0, i32 8
  %99 = load i8, ptr %NewData134.us.1, align 4, !tbaa !101, !range !42, !noundef !43
  %tobool135.not.us.1 = icmp eq i8 %99, 0
  br i1 %tobool135.not.us.1, label %if.end150.us.1, label %if.then136.us.1

if.then136.us.1:                                  ; preds = %if.end150.us
  %Size137.us.1 = getelementptr inbounds %"struct.NArchive::N7z::CUpdateItem", ptr %98, i64 0, i32 5
  %100 = load i64, ptr %Size137.us.1, align 8, !tbaa !118
  %add138.us.1 = add i64 %100, %complexity.5.us
  %cmp145.us.1 = icmp ugt i64 %100, %97
  br i1 %cmp145.us.1, label %if.then146.us.1, label %if.end150.us.1

if.then146.us.1:                                  ; preds = %if.then136.us.1
  store i64 %100, ptr %inSizeForReduce, align 8, !tbaa !110
  br label %if.end150.us.1

if.end150.us.1:                                   ; preds = %if.then146.us.1, %if.then136.us.1, %if.end150.us
  %101 = phi i64 [ %100, %if.then146.us.1 ], [ %97, %if.then136.us.1 ], [ %97, %if.end150.us ]
  %complexity.5.us.1 = phi i64 [ %add138.us.1, %if.then146.us.1 ], [ %add138.us.1, %if.then136.us.1 ], [ %complexity.5.us, %if.end150.us ]
  %indvars.iv.next3094.us.1 = add nuw nsw i64 %indvars.iv3093.us, 2
  %niter4500.next.1 = add i64 %niter4500, 2
  %niter4500.ncmp.1 = icmp eq i64 %niter4500.next.1, %unroll_iter4499
  br i1 %niter4500.ncmp.1, label %for.end154.loopexit.unr-lcssa, label %for.body130.us, !llvm.loop !119

for.body130:                                      ; preds = %if.end150.1, %for.body130.preheader.new
  %indvars.iv3093 = phi i64 [ 0, %for.body130.preheader.new ], [ %indvars.iv.next3094.1, %if.end150.1 ]
  %complexity.42773 = phi i64 [ %complexity.3, %for.body130.preheader.new ], [ %complexity.5.1, %if.end150.1 ]
  %102 = phi i64 [ 0, %for.body130.preheader.new ], [ %110, %if.end150.1 ]
  %niter = phi i64 [ 0, %for.body130.preheader.new ], [ %niter.next.1, %if.end150.1 ]
  %arrayidx.i.i1529 = getelementptr inbounds ptr, ptr %90, i64 %indvars.iv3093
  %103 = load ptr, ptr %arrayidx.i.i1529, align 8, !tbaa !37
  %NewData134 = getelementptr inbounds %"struct.NArchive::N7z::CUpdateItem", ptr %103, i64 0, i32 8
  %104 = load i8, ptr %NewData134, align 4, !tbaa !101, !range !42, !noundef !43
  %tobool135.not = icmp eq i8 %104, 0
  br i1 %tobool135.not, label %if.end150, label %if.then136

if.then136:                                       ; preds = %for.body130
  %Size137 = getelementptr inbounds %"struct.NArchive::N7z::CUpdateItem", ptr %103, i64 0, i32 5
  %105 = load i64, ptr %Size137, align 8, !tbaa !118
  %add138 = add i64 %105, %complexity.42773
  %add142 = add i64 %105, %102
  store i64 %add142, ptr %inSizeForReduce, align 8, !tbaa !110
  br label %if.end150

if.end150:                                        ; preds = %if.then136, %for.body130
  %106 = phi i64 [ %add142, %if.then136 ], [ %102, %for.body130 ]
  %complexity.5 = phi i64 [ %add138, %if.then136 ], [ %complexity.42773, %for.body130 ]
  %indvars.iv.next3094 = or i64 %indvars.iv3093, 1
  %arrayidx.i.i1529.1 = getelementptr inbounds ptr, ptr %90, i64 %indvars.iv.next3094
  %107 = load ptr, ptr %arrayidx.i.i1529.1, align 8, !tbaa !37
  %NewData134.1 = getelementptr inbounds %"struct.NArchive::N7z::CUpdateItem", ptr %107, i64 0, i32 8
  %108 = load i8, ptr %NewData134.1, align 4, !tbaa !101, !range !42, !noundef !43
  %tobool135.not.1 = icmp eq i8 %108, 0
  br i1 %tobool135.not.1, label %if.end150.1, label %if.then136.1

if.then136.1:                                     ; preds = %if.end150
  %Size137.1 = getelementptr inbounds %"struct.NArchive::N7z::CUpdateItem", ptr %107, i64 0, i32 5
  %109 = load i64, ptr %Size137.1, align 8, !tbaa !118
  %add138.1 = add i64 %109, %complexity.5
  %add142.1 = add i64 %109, %106
  store i64 %add142.1, ptr %inSizeForReduce, align 8, !tbaa !110
  br label %if.end150.1

if.end150.1:                                      ; preds = %if.then136.1, %if.end150
  %110 = phi i64 [ %add142.1, %if.then136.1 ], [ %106, %if.end150 ]
  %complexity.5.1 = phi i64 [ %add138.1, %if.then136.1 ], [ %complexity.5, %if.end150 ]
  %indvars.iv.next3094.1 = add nuw nsw i64 %indvars.iv3093, 2
  %niter.next.1 = add i64 %niter, 2
  %niter.ncmp.1 = icmp eq i64 %niter.next.1, %unroll_iter
  br i1 %niter.ncmp.1, label %for.end154.loopexit4486.unr-lcssa, label %for.body130, !llvm.loop !119

for.end154.loopexit.unr-lcssa:                    ; preds = %if.end150.us.1, %for.body130.us.preheader
  %.lcssa4485.ph = phi i64 [ undef, %for.body130.us.preheader ], [ %101, %if.end150.us.1 ]
  %complexity.5.us.lcssa.ph = phi i64 [ undef, %for.body130.us.preheader ], [ %complexity.5.us.1, %if.end150.us.1 ]
  %indvars.iv3093.us.unr = phi i64 [ 0, %for.body130.us.preheader ], [ %indvars.iv.next3094.us.1, %if.end150.us.1 ]
  %complexity.42773.us.unr = phi i64 [ %complexity.3, %for.body130.us.preheader ], [ %complexity.5.us.1, %if.end150.us.1 ]
  %.unr4495 = phi i64 [ 0, %for.body130.us.preheader ], [ %101, %if.end150.us.1 ]
  %lcmp.mod4496.not = icmp eq i64 %xtraiter4494, 0
  br i1 %lcmp.mod4496.not, label %for.end154, label %for.body130.us.epil

for.body130.us.epil:                              ; preds = %for.end154.loopexit.unr-lcssa
  %arrayidx.i.i1529.us.epil = getelementptr inbounds ptr, ptr %90, i64 %indvars.iv3093.us.unr
  %111 = load ptr, ptr %arrayidx.i.i1529.us.epil, align 8, !tbaa !37
  %NewData134.us.epil = getelementptr inbounds %"struct.NArchive::N7z::CUpdateItem", ptr %111, i64 0, i32 8
  %112 = load i8, ptr %NewData134.us.epil, align 4, !tbaa !101, !range !42, !noundef !43
  %tobool135.not.us.epil = icmp eq i8 %112, 0
  br i1 %tobool135.not.us.epil, label %for.end154, label %if.then136.us.epil

if.then136.us.epil:                               ; preds = %for.body130.us.epil
  %Size137.us.epil = getelementptr inbounds %"struct.NArchive::N7z::CUpdateItem", ptr %111, i64 0, i32 5
  %113 = load i64, ptr %Size137.us.epil, align 8, !tbaa !118
  %add138.us.epil = add i64 %113, %complexity.42773.us.unr
  %cmp145.us.epil = icmp ugt i64 %113, %.unr4495
  br i1 %cmp145.us.epil, label %if.then146.us.epil, label %for.end154

if.then146.us.epil:                               ; preds = %if.then136.us.epil
  store i64 %113, ptr %inSizeForReduce, align 8, !tbaa !110
  br label %for.end154

for.end154.loopexit4486.unr-lcssa:                ; preds = %if.end150.1, %for.body130.preheader
  %.lcssa4487.ph = phi i64 [ undef, %for.body130.preheader ], [ %110, %if.end150.1 ]
  %complexity.5.lcssa.ph = phi i64 [ undef, %for.body130.preheader ], [ %complexity.5.1, %if.end150.1 ]
  %indvars.iv3093.unr = phi i64 [ 0, %for.body130.preheader ], [ %indvars.iv.next3094.1, %if.end150.1 ]
  %complexity.42773.unr = phi i64 [ %complexity.3, %for.body130.preheader ], [ %complexity.5.1, %if.end150.1 ]
  %.unr = phi i64 [ 0, %for.body130.preheader ], [ %110, %if.end150.1 ]
  %lcmp.mod4491.not = icmp eq i64 %xtraiter4490, 0
  br i1 %lcmp.mod4491.not, label %for.end154, label %for.body130.epil

for.body130.epil:                                 ; preds = %for.end154.loopexit4486.unr-lcssa
  %arrayidx.i.i1529.epil = getelementptr inbounds ptr, ptr %90, i64 %indvars.iv3093.unr
  %114 = load ptr, ptr %arrayidx.i.i1529.epil, align 8, !tbaa !37
  %NewData134.epil = getelementptr inbounds %"struct.NArchive::N7z::CUpdateItem", ptr %114, i64 0, i32 8
  %115 = load i8, ptr %NewData134.epil, align 4, !tbaa !101, !range !42, !noundef !43
  %tobool135.not.epil = icmp eq i8 %115, 0
  br i1 %tobool135.not.epil, label %for.end154, label %if.then136.epil

if.then136.epil:                                  ; preds = %for.body130.epil
  %Size137.epil = getelementptr inbounds %"struct.NArchive::N7z::CUpdateItem", ptr %114, i64 0, i32 5
  %116 = load i64, ptr %Size137.epil, align 8, !tbaa !118
  %add138.epil = add i64 %116, %complexity.42773.unr
  %add142.epil = add i64 %116, %.unr
  store i64 %add142.epil, ptr %inSizeForReduce, align 8, !tbaa !110
  br label %for.end154

for.end154:                                       ; preds = %for.end154.loopexit4486.unr-lcssa, %if.then136.epil, %for.body130.epil, %for.end154.loopexit.unr-lcssa, %if.then146.us.epil, %if.then136.us.epil, %for.body130.us.epil, %if.end123
  %117 = phi i64 [ 0, %if.end123 ], [ %.lcssa4485.ph, %for.end154.loopexit.unr-lcssa ], [ %113, %if.then146.us.epil ], [ %.unr4495, %if.then136.us.epil ], [ %.unr4495, %for.body130.us.epil ], [ %.lcssa4487.ph, %for.end154.loopexit4486.unr-lcssa ], [ %add142.epil, %if.then136.epil ], [ %.unr, %for.body130.epil ]
  %complexity.4.lcssa = phi i64 [ %complexity.3, %if.end123 ], [ %complexity.5.us.lcssa.ph, %for.end154.loopexit.unr-lcssa ], [ %add138.us.epil, %if.then146.us.epil ], [ %add138.us.epil, %if.then136.us.epil ], [ %complexity.42773.us.unr, %for.body130.us.epil ], [ %complexity.5.lcssa.ph, %for.end154.loopexit4486.unr-lcssa ], [ %add138.epil, %if.then136.epil ], [ %complexity.42773.unr, %for.body130.epil ]
  %cmp155.not = icmp ugt i64 %inSizeForReduce2.4, %117
  %118 = call i64 @llvm.umax.i64(i64 %inSizeForReduce2.4, i64 %117)
  %cmp158 = icmp ult i64 %118, 65536
  %119 = or i1 %cmp155.not, %cmp158
  br i1 %119, label %120, label %121

120:                                              ; preds = %for.end154
  %simplifycfg.merge = call i64 @llvm.umax.i64(i64 %118, i64 65536)
  store i64 %simplifycfg.merge, ptr %inSizeForReduce, align 8, !tbaa !110
  br label %121

121:                                              ; preds = %for.end154, %120
  %vtable = load ptr, ptr %updateCallback, align 8, !tbaa !28
  %vfn = getelementptr inbounds ptr, ptr %vtable, i64 5
  %122 = load ptr, ptr %vfn, align 8
  %call164 = invoke noundef i32 %122(ptr noundef nonnull align 8 dereferenceable(8) %updateCallback, i64 noundef %complexity.4.lcssa)
          to label %invoke.cont163 unwind label %lpad162

invoke.cont163:                                   ; preds = %121
  %cmp165.not = icmp eq i32 %call164, 0
  br i1 %cmp165.not, label %cleanup.cont170, label %cleanup1145

lpad162:                                          ; preds = %121
  %123 = landingpad { ptr, i32 }
          cleanup
  br label %ehcleanup1146

cleanup.cont170:                                  ; preds = %invoke.cont163
  %call174 = invoke noalias noundef nonnull dereferenceable(72) ptr @_Znwm(i64 noundef 72) #17
          to label %invoke.cont173 unwind label %lpad172

invoke.cont173:                                   ; preds = %cleanup.cont170
  invoke void @_ZN14CLocalProgressC1Ev(ptr noundef nonnull align 8 dereferenceable(66) %call174)
          to label %invoke.cont176 unwind label %lpad175

invoke.cont176:                                   ; preds = %invoke.cont173
  %vtable.i = load ptr, ptr %call174, align 8, !tbaa !28
  %vfn.i = getelementptr inbounds ptr, ptr %vtable.i, i64 1
  %124 = load ptr, ptr %vfn.i, align 8
  %call.i1530 = invoke noundef i32 %124(ptr noundef nonnull align 8 dereferenceable(8) %call174)
          to label %invoke.cont179 unwind label %lpad178

invoke.cont179:                                   ; preds = %invoke.cont176
  invoke void @_ZN14CLocalProgress4InitEP9IProgressb(ptr noundef nonnull align 8 dereferenceable(66) %call174, ptr noundef nonnull %updateCallback, i1 noundef zeroext true)
          to label %invoke.cont181 unwind label %lpad180

invoke.cont181:                                   ; preds = %invoke.cont179
  call void @llvm.lifetime.start.p0(i64 536, ptr nonnull %threadDecoder) #16
  invoke void @_ZN8NArchive3N7z14CThreadDecoderC2Ev(ptr noundef nonnull align 8 dereferenceable(536) %threadDecoder)
          to label %invoke.cont183 unwind label %lpad182

invoke.cont183:                                   ; preds = %invoke.cont181
  %_size.i1531 = getelementptr inbounds %class.CBaseRecordVector, ptr %folderRefs, i64 0, i32 2
  %125 = load i32, ptr %_size.i1531, align 4, !tbaa !33
  %cmp.i1532 = icmp eq i32 %125, 0
  br i1 %cmp.i1532, label %if.end199, label %if.then187

if.then187:                                       ; preds = %invoke.cont183
  %call191 = invoke noundef i32 @_ZN11CVirtThread6CreateEv(ptr noundef nonnull align 8 dereferenceable(233) %threadDecoder)
          to label %invoke.cont190 unwind label %lpad189

invoke.cont190:                                   ; preds = %if.then187
  %cmp192.not = icmp eq i32 %call191, 0
  br i1 %cmp192.not, label %if.end199, label %cleanup1135

lpad172:                                          ; preds = %cleanup.cont170
  %126 = landingpad { ptr, i32 }
          cleanup
  br label %ehcleanup1146

lpad175:                                          ; preds = %invoke.cont173
  %127 = landingpad { ptr, i32 }
          cleanup
  call void @_ZdlPv(ptr noundef nonnull %call174) #18
  br label %ehcleanup1146

lpad178:                                          ; preds = %invoke.cont176
  %128 = landingpad { ptr, i32 }
          cleanup
  br label %ehcleanup1146

lpad180:                                          ; preds = %invoke.cont179
  %129 = landingpad { ptr, i32 }
          cleanup
  br label %if.then.i2195

lpad182:                                          ; preds = %invoke.cont181
  %130 = landingpad { ptr, i32 }
          cleanup
  br label %ehcleanup1138

lpad189:                                          ; preds = %if.then187
  %131 = landingpad { ptr, i32 }
          cleanup
  br label %ehcleanup1136

if.end199:                                        ; preds = %invoke.cont190, %invoke.cont183
  call void @llvm.lifetime.start.p0(i64 32, ptr nonnull %groups) #16
  %_capacity.i.i.i = getelementptr inbounds %class.CBaseRecordVector, ptr %groups, i64 0, i32 1
  %_itemSize.i.i.i = getelementptr inbounds %class.CBaseRecordVector, ptr %groups, i64 0, i32 4
  call void @llvm.memset.p0.i64(ptr noundef nonnull align 8 dereferenceable(16) %_capacity.i.i.i, i8 0, i64 16, i1 false)
  store i64 8, ptr %_itemSize.i.i.i, align 8, !tbaa !95
  store ptr getelementptr inbounds ({ [5 x ptr] }, ptr @_ZTV13CObjectVectorIN8NArchive3N7z11CSolidGroupEE, i64 0, inrange i32 0, i64 2), ptr %groups, align 8, !tbaa !28
  %_itemSize.i.i.i1534 = getelementptr inbounds %class.CBaseRecordVector, ptr %ref.tmp, i64 0, i32 4
  call void @llvm.lifetime.start.p0(i64 32, ptr nonnull %ref.tmp) #16
  %132 = getelementptr inbounds i8, ptr %ref.tmp, i64 8
  call void @llvm.memset.p0.i64(ptr noundef nonnull align 8 dereferenceable(16) %132, i8 0, i64 16, i1 false)
  store i64 4, ptr %_itemSize.i.i.i1534, align 8, !tbaa !95
  store ptr getelementptr inbounds ({ [5 x ptr] }, ptr @_ZTV13CRecordVectorIjE, i64 0, inrange i32 0, i64 2), ptr %ref.tmp, align 8, !tbaa !28
  %call209 = invoke noundef i32 @_ZN13CObjectVectorIN8NArchive3N7z11CSolidGroupEE3AddERKS2_(ptr noundef nonnull align 8 dereferenceable(32) %groups, ptr noundef nonnull align 8 dereferenceable(32) %ref.tmp)
          to label %invoke.cont208 unwind label %lpad207

invoke.cont208:                                   ; preds = %if.end199
  call void @_ZN17CBaseRecordVectorD2Ev(ptr noundef nonnull align 8 dereferenceable(32) %ref.tmp) #16
  call void @llvm.lifetime.end.p0(i64 32, ptr nonnull %ref.tmp) #16
  call void @llvm.lifetime.start.p0(i64 32, ptr nonnull %ref.tmp) #16
  call void @llvm.memset.p0.i64(ptr noundef nonnull align 8 dereferenceable(16) %132, i8 0, i64 16, i1 false)
  store i64 4, ptr %_itemSize.i.i.i1534, align 8, !tbaa !95
  store ptr getelementptr inbounds ({ [5 x ptr] }, ptr @_ZTV13CRecordVectorIjE, i64 0, inrange i32 0, i64 2), ptr %ref.tmp, align 8, !tbaa !28
  %call209.1 = invoke noundef i32 @_ZN13CObjectVectorIN8NArchive3N7z11CSolidGroupEE3AddERKS2_(ptr noundef nonnull align 8 dereferenceable(32) %groups, ptr noundef nonnull align 8 dereferenceable(32) %ref.tmp)
          to label %invoke.cont208.1 unwind label %lpad207

invoke.cont208.1:                                 ; preds = %invoke.cont208
  call void @_ZN17CBaseRecordVectorD2Ev(ptr noundef nonnull align 8 dereferenceable(32) %ref.tmp) #16
  call void @llvm.lifetime.end.p0(i64 32, ptr nonnull %ref.tmp) #16
  call void @llvm.lifetime.start.p0(i64 32, ptr nonnull %ref.tmp) #16
  call void @llvm.memset.p0.i64(ptr noundef nonnull align 8 dereferenceable(16) %132, i8 0, i64 16, i1 false)
  store i64 4, ptr %_itemSize.i.i.i1534, align 8, !tbaa !95
  store ptr getelementptr inbounds ({ [5 x ptr] }, ptr @_ZTV13CRecordVectorIjE, i64 0, inrange i32 0, i64 2), ptr %ref.tmp, align 8, !tbaa !28
  %call209.2 = invoke noundef i32 @_ZN13CObjectVectorIN8NArchive3N7z11CSolidGroupEE3AddERKS2_(ptr noundef nonnull align 8 dereferenceable(32) %groups, ptr noundef nonnull align 8 dereferenceable(32) %ref.tmp)
          to label %invoke.cont208.2 unwind label %lpad207

invoke.cont208.2:                                 ; preds = %invoke.cont208.1
  call void @_ZN17CBaseRecordVectorD2Ev(ptr noundef nonnull align 8 dereferenceable(32) %ref.tmp) #16
  call void @llvm.lifetime.end.p0(i64 32, ptr nonnull %ref.tmp) #16
  call void @llvm.lifetime.start.p0(i64 32, ptr nonnull %ref.tmp) #16
  call void @llvm.memset.p0.i64(ptr noundef nonnull align 8 dereferenceable(16) %132, i8 0, i64 16, i1 false)
  store i64 4, ptr %_itemSize.i.i.i1534, align 8, !tbaa !95
  store ptr getelementptr inbounds ({ [5 x ptr] }, ptr @_ZTV13CRecordVectorIjE, i64 0, inrange i32 0, i64 2), ptr %ref.tmp, align 8, !tbaa !28
  %call209.3 = invoke noundef i32 @_ZN13CObjectVectorIN8NArchive3N7z11CSolidGroupEE3AddERKS2_(ptr noundef nonnull align 8 dereferenceable(32) %groups, ptr noundef nonnull align 8 dereferenceable(32) %ref.tmp)
          to label %invoke.cont208.3 unwind label %lpad207

invoke.cont208.3:                                 ; preds = %invoke.cont208.2
  call void @_ZN17CBaseRecordVectorD2Ev(ptr noundef nonnull align 8 dereferenceable(32) %ref.tmp) #16
  call void @llvm.lifetime.end.p0(i64 32, ptr nonnull %ref.tmp) #16
  %133 = load ptr, ptr %options, align 8, !tbaa !120
  %_size.i1535 = getelementptr inbounds %class.CBaseRecordVector, ptr %133, i64 0, i32 2
  %134 = load i32, ptr %_size.i1535, align 4, !tbaa !33
  %cmp220.not = icmp eq i32 %134, 1
  br i1 %cmp220.not, label %lor.lhs.false, label %if.then224

lpad207:                                          ; preds = %invoke.cont208.2, %invoke.cont208.1, %invoke.cont208, %if.end199
  %135 = landingpad { ptr, i32 }
          cleanup
  call void @_ZN17CBaseRecordVectorD2Ev(ptr noundef nonnull align 8 dereferenceable(32) %ref.tmp) #16
  call void @llvm.lifetime.end.p0(i64 32, ptr nonnull %ref.tmp) #16
  br label %ehcleanup1132

lor.lhs.false:                                    ; preds = %invoke.cont208.3
  %UseFilters = getelementptr inbounds %"struct.NArchive::N7z::CUpdateOptions", ptr %options, i64 0, i32 2
  %136 = load i8, ptr %UseFilters, align 8, !tbaa !121, !range !42, !noundef !43
  %_size.i1536 = getelementptr inbounds %"struct.NArchive::N7z::CCompressionMethodMode", ptr %133, i64 0, i32 1, i32 0, i32 2
  %137 = load i32, ptr %_size.i1536, align 4, !tbaa !33
  %cmp223.not = icmp eq i32 %137, 0
  br i1 %cmp223.not, label %if.end225, label %if.then224

if.then224:                                       ; preds = %lor.lhs.false, %invoke.cont208.3
  br label %if.end225

if.end225:                                        ; preds = %if.then224, %lor.lhs.false
  %useFilters.0 = phi i8 [ 0, %if.then224 ], [ %136, %lor.lhs.false ]
  %138 = load i32, ptr %_size.i1526, align 4, !tbaa !33
  %cmp2292776 = icmp sgt i32 %138, 0
  br i1 %cmp2292776, label %for.body230.lr.ph, label %for.end265

for.body230.lr.ph:                                ; preds = %if.end225
  %_items.i.i1538 = getelementptr inbounds %class.CBaseRecordVector, ptr %updateItems, i64 0, i32 3
  %tobool242.not = icmp eq i8 %useFilters.0, 0
  %_fd.i.i.i = getelementptr inbounds %"class.NWindows::NFile::NIO::CFileBase", ptr %file.i, i64 0, i32 1
  %139 = getelementptr inbounds %"class.NWindows::NFile::NIO::CFileBase", ptr %file.i, i64 0, i32 3, i32 1
  %_capacity.i.i.i.i = getelementptr inbounds %"class.NWindows::NFile::NIO::CFileBase", ptr %file.i, i64 0, i32 3, i32 2
  %_unix_filename.i.i.i = getelementptr inbounds %"class.NWindows::NFile::NIO::CFileBase", ptr %file.i, i64 0, i32 3
  %PasswordIsDefined = getelementptr inbounds %"struct.NArchive::N7z::CCompressionMethodMode", ptr %133, i64 0, i32 3
  %_items.i.i1558 = getelementptr inbounds %class.CBaseRecordVector, ptr %groups, i64 0, i32 3
  br label %for.body230

for.body230:                                      ; preds = %for.body230.lr.ph, %cleanup259
  %140 = phi i32 [ %138, %for.body230.lr.ph ], [ %162, %cleanup259 ]
  %indvars.iv3097 = phi i64 [ 0, %for.body230.lr.ph ], [ %indvars.iv.next3098, %cleanup259 ]
  %141 = load ptr, ptr %_items.i.i1538, align 8, !tbaa !36
  %arrayidx.i.i1540 = getelementptr inbounds ptr, ptr %141, i64 %indvars.iv3097
  %142 = load ptr, ptr %arrayidx.i.i1540, align 8, !tbaa !37
  %NewData235 = getelementptr inbounds %"struct.NArchive::N7z::CUpdateItem", ptr %142, i64 0, i32 8
  %143 = load i8, ptr %NewData235, align 4, !tbaa !101, !range !42, !noundef !43
  %tobool236.not = icmp eq i8 %143, 0
  br i1 %tobool236.not, label %cleanup259, label %lor.lhs.false237

lor.lhs.false237:                                 ; preds = %for.body230
  %IsDir.i = getelementptr inbounds %"struct.NArchive::N7z::CUpdateItem", ptr %142, i64 0, i32 11
  %144 = load i8, ptr %IsDir.i, align 1, !tbaa !122, !range !42, !noundef !43
  %tobool.not.i = icmp eq i8 %144, 0
  %IsAnti.i = getelementptr inbounds %"struct.NArchive::N7z::CUpdateItem", ptr %142, i64 0, i32 10
  %145 = load i8, ptr %IsAnti.i, align 2, !range !42
  %tobool2.not.i = icmp eq i8 %145, 0
  %or.cond.i = select i1 %tobool.not.i, i1 %tobool2.not.i, i1 false
  br i1 %or.cond.i, label %land.rhs.i, label %cleanup259

land.rhs.i:                                       ; preds = %lor.lhs.false237
  %Size.i = getelementptr inbounds %"struct.NArchive::N7z::CUpdateItem", ptr %142, i64 0, i32 5
  %146 = load i64, ptr %Size.i, align 8
  %cmp.i1541.not = icmp eq i64 %146, 0
  br i1 %cmp.i1541.not, label %cleanup259, label %if.end241

if.end241:                                        ; preds = %land.rhs.i
  br i1 %tobool242.not, label %if.end248, label %if.then243

if.then243:                                       ; preds = %if.end241
  %Attrib.i = getelementptr inbounds %"struct.NArchive::N7z::CUpdateItem", ptr %142, i64 0, i32 7
  %147 = load i32, ptr %Attrib.i, align 8, !tbaa !123
  %and.i = and i32 %147, 32768
  %tobool.not.i1542 = icmp eq i32 %and.i, 0
  br i1 %tobool.not.i1542, label %if.end248, label %if.then.i

if.then.i:                                        ; preds = %if.then243
  %148 = and i32 %147, 4784128
  %tobool4.not.i = icmp ne i32 %148, 0
  %cmp.i1544 = icmp ugt i64 %146, 2047
  %or.cond.i1545 = and i1 %cmp.i1544, %tobool4.not.i
  br i1 %or.cond.i1545, label %if.then5.i, label %if.end248

if.then5.i:                                       ; preds = %if.then.i
  call void @llvm.lifetime.start.p0(i64 1088, ptr nonnull %file.i) #16
  store i32 -1, ptr %_fd.i.i.i, align 8, !tbaa !124
  store i64 0, ptr %139, align 8
  %call.i.i.i.i.i1554 = invoke noalias noundef nonnull dereferenceable(4) ptr @_Znam(i64 noundef 4) #17
          to label %call.i.i.i.i.i.noexc unwind label %lpad244

call.i.i.i.i.i.noexc:                             ; preds = %if.then5.i
  store ptr %call.i.i.i.i.i1554, ptr %_unix_filename.i.i.i, align 8, !tbaa !127
  store i8 0, ptr %call.i.i.i.i.i1554, align 1, !tbaa !15
  store i32 4, ptr %_capacity.i.i.i.i, align 4, !tbaa !128
  store ptr getelementptr inbounds ({ [5 x ptr] }, ptr @_ZTVN8NWindows5NFile3NIO7CInFileE, i64 0, inrange i32 0, i64 2), ptr %file.i, align 8, !tbaa !28
  %Name.i = getelementptr inbounds %"struct.NArchive::N7z::CUpdateItem", ptr %142, i64 0, i32 6
  %149 = load ptr, ptr %Name.i, align 8, !tbaa !82
  %call7.i = invoke noundef zeroext i1 @_ZN8NWindows5NFile3NIO7CInFile4OpenEPKwb(ptr noundef nonnull align 8 dereferenceable(1084) %file.i, ptr noundef %149, i1 noundef zeroext false)
          to label %invoke.cont6.i unwind label %lpad.i

invoke.cont6.i:                                   ; preds = %call.i.i.i.i.i.noexc
  br i1 %call7.i, label %if.then8.i, label %cleanup22.i

if.then8.i:                                       ; preds = %invoke.cont6.i
  call void @llvm.lifetime.start.p0(i64 512, ptr nonnull %buffer.i) #16
  call void @llvm.lifetime.start.p0(i64 4, ptr nonnull %processedSize.i) #16
  %call11.i = invoke noundef zeroext i1 @_ZN8NWindows5NFile3NIO7CInFile4ReadEPvjRj(ptr noundef nonnull align 8 dereferenceable(1084) %file.i, ptr noundef nonnull %buffer.i, i32 noundef 512, ptr noundef nonnull align 4 dereferenceable(4) %processedSize.i)
          to label %invoke.cont10.i unwind label %lpad9.i

invoke.cont10.i:                                  ; preds = %if.then8.i
  br i1 %call11.i, label %for.cond.preheader.i, label %if.end17.i

for.cond.preheader.i:                             ; preds = %invoke.cont10.i
  %150 = load i32, ptr %processedSize.i, align 4, !tbaa !52
  %cmp13.not48.not.i = icmp eq i32 %150, 0
  br i1 %cmp13.not48.not.i, label %if.end17.i, label %for.body.preheader.i1547

for.body.preheader.i1547:                         ; preds = %for.cond.preheader.i
  %wide.trip.count.i1546 = zext i32 %150 to i64
  br label %for.body.i1553

for.cond.i1550:                                   ; preds = %for.body.i1553
  %indvars.iv.next.i1548 = add nuw nsw i64 %indvars.iv.i1551, 1
  %exitcond.not.i1549 = icmp eq i64 %indvars.iv.next.i1548, %wide.trip.count.i1546
  br i1 %exitcond.not.i1549, label %if.end17.i, label %for.body.i1553, !llvm.loop !129

lpad.i:                                           ; preds = %call.i.i.i.i.i.noexc
  %151 = landingpad { ptr, i32 }
          cleanup
  br label %ehcleanup.i

lpad9.i:                                          ; preds = %if.then8.i
  %152 = landingpad { ptr, i32 }
          cleanup
  call void @llvm.lifetime.end.p0(i64 4, ptr nonnull %processedSize.i) #16
  call void @llvm.lifetime.end.p0(i64 512, ptr nonnull %buffer.i) #16
  br label %ehcleanup.i

for.body.i1553:                                   ; preds = %for.cond.i1550, %for.body.preheader.i1547
  %indvars.iv.i1551 = phi i64 [ 0, %for.body.preheader.i1547 ], [ %indvars.iv.next.i1548, %for.cond.i1550 ]
  %arrayidx.i1552 = getelementptr inbounds [512 x i8], ptr %buffer.i, i64 0, i64 %indvars.iv.i1551
  %153 = load i8, ptr %arrayidx.i1552, align 1, !tbaa !15
  %cmp15.i = icmp eq i8 %153, 0
  br i1 %cmp15.i, label %cleanup28.i, label %for.cond.i1550

if.end17.i:                                       ; preds = %for.cond.i1550, %for.cond.preheader.i, %invoke.cont10.i
  call void @llvm.lifetime.end.p0(i64 4, ptr nonnull %processedSize.i) #16
  call void @llvm.lifetime.end.p0(i64 512, ptr nonnull %buffer.i) #16
  br label %cleanup22.i

cleanup22.i:                                      ; preds = %if.end17.i, %invoke.cont6.i
  call void @_ZN8NWindows5NFile3NIO9CFileBaseD2Ev(ptr noundef nonnull align 8 dereferenceable(1084) %file.i) #16
  call void @llvm.lifetime.end.p0(i64 1088, ptr nonnull %file.i) #16
  br label %if.end248

ehcleanup.i:                                      ; preds = %lpad9.i, %lpad.i
  %.pn.i = phi { ptr, i32 } [ %152, %lpad9.i ], [ %151, %lpad.i ]
  call void @_ZN8NWindows5NFile3NIO9CFileBaseD2Ev(ptr noundef nonnull align 8 dereferenceable(1084) %file.i) #16
  call void @llvm.lifetime.end.p0(i64 1088, ptr nonnull %file.i) #16
  br label %ehcleanup1132

cleanup28.i:                                      ; preds = %for.body.i1553
  call void @llvm.lifetime.end.p0(i64 4, ptr nonnull %processedSize.i) #16
  call void @llvm.lifetime.end.p0(i64 512, ptr nonnull %buffer.i) #16
  call void @_ZN8NWindows5NFile3NIO9CFileBaseD2Ev(ptr noundef nonnull align 8 dereferenceable(1084) %file.i) #16
  call void @llvm.lifetime.end.p0(i64 1088, ptr nonnull %file.i) #16
  br label %if.end248

lpad244:                                          ; preds = %if.end248, %if.then5.i
  %154 = landingpad { ptr, i32 }
          cleanup
  br label %ehcleanup1132

if.end248:                                        ; preds = %if.then243, %if.then.i, %cleanup22.i, %cleanup28.i, %if.end241
  %filteredGroup.0 = phi i64 [ 0, %if.end241 ], [ 1, %cleanup28.i ], [ 0, %if.then243 ], [ 0, %cleanup22.i ], [ 0, %if.then.i ]
  %155 = load i8, ptr %PasswordIsDefined, align 4, !tbaa !130, !range !42, !noundef !43
  %tobool249.not = icmp eq i8 %155, 0
  %cond.i1555 = select i1 %tobool249.not, i64 0, i64 2
  %add.i1557 = or i64 %cond.i1555, %filteredGroup.0
  %156 = load ptr, ptr %_items.i.i1558, align 8, !tbaa !36
  %arrayidx.i.i1560 = getelementptr inbounds ptr, ptr %156, i64 %add.i1557
  %157 = load ptr, ptr %arrayidx.i.i1560, align 8, !tbaa !37
  invoke void @_ZN17CBaseRecordVector18ReserveOnePositionEv(ptr noundef nonnull align 8 dereferenceable(32) %157)
          to label %_ZN13CRecordVectorIjE3AddEj.exit unwind label %lpad244

_ZN13CRecordVectorIjE3AddEj.exit:                 ; preds = %if.end248
  %_items.i1561 = getelementptr inbounds %class.CBaseRecordVector, ptr %157, i64 0, i32 3
  %158 = load ptr, ptr %_items.i1561, align 8, !tbaa !36
  %_size.i1562 = getelementptr inbounds %class.CBaseRecordVector, ptr %157, i64 0, i32 2
  %159 = load i32, ptr %_size.i1562, align 4, !tbaa !33
  %idxprom.i1563 = sext i32 %159 to i64
  %arrayidx.i1564 = getelementptr inbounds i32, ptr %158, i64 %idxprom.i1563
  %160 = trunc i64 %indvars.iv3097 to i32
  store i32 %160, ptr %arrayidx.i1564, align 4, !tbaa !52
  %161 = load i32, ptr %_size.i1562, align 4, !tbaa !33
  %inc.i1565 = add nsw i32 %161, 1
  store i32 %inc.i1565, ptr %_size.i1562, align 4, !tbaa !33
  %.pre3160 = load i32, ptr %_size.i1526, align 4, !tbaa !33
  br label %cleanup259

cleanup259:                                       ; preds = %lor.lhs.false237, %for.body230, %land.rhs.i, %_ZN13CRecordVectorIjE3AddEj.exit
  %162 = phi i32 [ %140, %lor.lhs.false237 ], [ %140, %for.body230 ], [ %140, %land.rhs.i ], [ %.pre3160, %_ZN13CRecordVectorIjE3AddEj.exit ]
  %indvars.iv.next3098 = add nuw nsw i64 %indvars.iv3097, 1
  %163 = sext i32 %162 to i64
  %cmp229 = icmp slt i64 %indvars.iv.next3098, %163
  br i1 %cmp229, label %for.body230, label %for.end265, !llvm.loop !134

for.end265:                                       ; preds = %cleanup259, %if.end225
  %164 = and i8 %needEncryptedRepack.3, 1
  %tobool268.not = icmp eq i8 %164, 0
  br i1 %tobool268.not, label %if.end320, label %if.then269

if.then269:                                       ; preds = %for.end265
  %call272 = invoke noalias noundef nonnull dereferenceable(32) ptr @_Znwm(i64 noundef 32) #17
          to label %invoke.cont271 unwind label %lpad270

invoke.cont271:                                   ; preds = %if.then269
  %165 = getelementptr inbounds i8, ptr %call272, i64 8
  store i32 0, ptr %165, align 8, !tbaa !135
  store ptr getelementptr inbounds ({ [8 x ptr] }, ptr @_ZTVN8NArchive3N7z22CCryptoGetTextPasswordE, i64 0, inrange i32 0, i64 2), ptr %call272, align 8, !tbaa !28
  %Password.i = getelementptr inbounds %"class.NArchive::N7z::CCryptoGetTextPassword", ptr %call272, i64 0, i32 2
  call void @llvm.memset.p0.i64(ptr noundef nonnull align 8 dereferenceable(16) %Password.i, i8 0, i64 16, i1 false)
  %call.i.i3.i1567 = invoke noalias noundef nonnull dereferenceable(16) ptr @_Znam(i64 noundef 16) #17
          to label %_ZN8NArchive3N7z22CCryptoGetTextPasswordC2Ev.exit unwind label %lpad273

_ZN8NArchive3N7z22CCryptoGetTextPasswordC2Ev.exit: ; preds = %invoke.cont271
  %_capacity.i.i1566 = getelementptr inbounds %"class.NArchive::N7z::CCryptoGetTextPassword", ptr %call272, i64 0, i32 2, i32 2
  store ptr %call.i.i3.i1567, ptr %Password.i, align 8, !tbaa !82
  store i32 0, ptr %call.i.i3.i1567, align 4, !tbaa !11
  store i32 4, ptr %_capacity.i.i1566, align 4, !tbaa !136
  %GetTextPassword = getelementptr inbounds %"class.NArchive::N7z::CThreadDecoder", ptr %threadDecoder, i64 0, i32 8
  store i32 1, ptr %165, align 8, !tbaa !135
  %166 = load ptr, ptr %GetTextPassword, align 8, !tbaa !77
  %tobool.not.i1571 = icmp eq ptr %166, null
  br i1 %tobool.not.i1571, label %_ZN9CMyComPtrI22ICryptoGetTextPasswordEaSEPS0_.exit, label %if.then2.i

if.then2.i:                                       ; preds = %_ZN8NArchive3N7z22CCryptoGetTextPasswordC2Ev.exit
  %vtable4.i = load ptr, ptr %166, align 8, !tbaa !28
  %vfn5.i = getelementptr inbounds ptr, ptr %vtable4.i, i64 2
  %167 = load ptr, ptr %vfn5.i, align 8
  %call6.i1573 = invoke noundef i32 %167(ptr noundef nonnull align 8 dereferenceable(8) %166)
          to label %_ZN9CMyComPtrI22ICryptoGetTextPasswordEaSEPS0_.exit unwind label %lpad270

_ZN9CMyComPtrI22ICryptoGetTextPasswordEaSEPS0_.exit: ; preds = %if.then2.i, %_ZN8NArchive3N7z22CCryptoGetTextPasswordC2Ev.exit
  store ptr %call272, ptr %GetTextPassword, align 8, !tbaa !77
  %168 = load ptr, ptr %options, align 8, !tbaa !120
  %PasswordIsDefined279 = getelementptr inbounds %"struct.NArchive::N7z::CCompressionMethodMode", ptr %168, i64 0, i32 3
  %169 = load i8, ptr %PasswordIsDefined279, align 4, !tbaa !130, !range !42, !noundef !43
  %tobool280.not = icmp eq i8 %169, 0
  br i1 %tobool280.not, label %if.else286, label %if.then281

if.then281:                                       ; preds = %_ZN9CMyComPtrI22ICryptoGetTextPasswordEaSEPS0_.exit
  %Password = getelementptr inbounds %"struct.NArchive::N7z::CCompressionMethodMode", ptr %168, i64 0, i32 4
  %cmp.i1574 = icmp eq ptr %Password, %Password.i
  br i1 %cmp.i1574, label %if.end320, label %if.end.i

if.end.i:                                         ; preds = %if.then281
  %_length.i.i = getelementptr inbounds %"class.NArchive::N7z::CCryptoGetTextPassword", ptr %call272, i64 0, i32 2, i32 1
  store i32 0, ptr %_length.i.i, align 8, !tbaa !5
  %170 = load ptr, ptr %Password.i, align 8, !tbaa !82
  store i32 0, ptr %170, align 4, !tbaa !11
  %_length.i = getelementptr inbounds %"struct.NArchive::N7z::CCompressionMethodMode", ptr %168, i64 0, i32 4, i32 1
  %171 = load i32, ptr %_length.i, align 8, !tbaa !5
  %add.i.i = add nsw i32 %171, 1
  %172 = load i32, ptr %_capacity.i.i1566, align 4, !tbaa !136
  %cmp.i.i = icmp eq i32 %add.i.i, %172
  br i1 %cmp.i.i, label %_ZN11CStringBaseIwE11SetCapacityEi.exit.i, label %if.end.i.i

if.end.i.i:                                       ; preds = %if.end.i
  %conv.i.i = zext i32 %add.i.i to i64
  %173 = icmp slt i32 %171, -1
  %174 = shl nuw nsw i64 %conv.i.i, 2
  %175 = select i1 %173, i64 -1, i64 %174
  %call.i.i1576 = invoke noalias noundef nonnull ptr @_Znam(i64 noundef %175) #17
          to label %call.i.i.noexc unwind label %lpad270

call.i.i.noexc:                                   ; preds = %if.end.i.i
  %cmp3.i.i = icmp sgt i32 %172, 0
  br i1 %cmp3.i.i, label %delete.notnull.i.i, label %if.end9.i.i

delete.notnull.i.i:                               ; preds = %call.i.i.noexc
  call void @_ZdaPv(ptr noundef nonnull %170) #18
  %.pre.i = load i32, ptr %_length.i.i, align 8, !tbaa !5
  %176 = sext i32 %.pre.i to i64
  br label %if.end9.i.i

if.end9.i.i:                                      ; preds = %delete.notnull.i.i, %call.i.i.noexc
  %idxprom13.i.i = phi i64 [ %176, %delete.notnull.i.i ], [ 0, %call.i.i.noexc ]
  store ptr %call.i.i1576, ptr %Password.i, align 8, !tbaa !82
  %arrayidx14.i.i = getelementptr inbounds i32, ptr %call.i.i1576, i64 %idxprom13.i.i
  store i32 0, ptr %arrayidx14.i.i, align 4, !tbaa !11
  store i32 %add.i.i, ptr %_capacity.i.i1566, align 4, !tbaa !136
  br label %_ZN11CStringBaseIwE11SetCapacityEi.exit.i

_ZN11CStringBaseIwE11SetCapacityEi.exit.i:        ; preds = %if.end9.i.i, %if.end.i
  %177 = phi ptr [ %170, %if.end.i ], [ %call.i.i1576, %if.end9.i.i ]
  %178 = load ptr, ptr %Password, align 8, !tbaa !82
  br label %while.cond.i.i

while.cond.i.i:                                   ; preds = %while.cond.i.i, %_ZN11CStringBaseIwE11SetCapacityEi.exit.i
  %src.addr.0.i.i = phi ptr [ %178, %_ZN11CStringBaseIwE11SetCapacityEi.exit.i ], [ %incdec.ptr.i.i, %while.cond.i.i ]
  %dest.addr.0.i.i = phi ptr [ %177, %_ZN11CStringBaseIwE11SetCapacityEi.exit.i ], [ %incdec.ptr1.i.i, %while.cond.i.i ]
  %incdec.ptr.i.i = getelementptr inbounds i32, ptr %src.addr.0.i.i, i64 1
  %179 = load i32, ptr %src.addr.0.i.i, align 4, !tbaa !11
  %incdec.ptr1.i.i = getelementptr inbounds i32, ptr %dest.addr.0.i.i, i64 1
  store i32 %179, ptr %dest.addr.0.i.i, align 4, !tbaa !11
  %cmp.not.i.i = icmp eq i32 %179, 0
  br i1 %cmp.not.i.i, label %_Z12MyStringCopyIwEPT_S1_PKS0_.exit.i, label %while.cond.i.i, !llvm.loop !137

_Z12MyStringCopyIwEPT_S1_PKS0_.exit.i:            ; preds = %while.cond.i.i
  %180 = load i32, ptr %_length.i, align 8, !tbaa !5
  store i32 %180, ptr %_length.i.i, align 8, !tbaa !5
  br label %if.end320

lpad270:                                          ; preds = %if.end.i.i, %if.then2.i, %if.then269
  %181 = landingpad { ptr, i32 }
          cleanup
  br label %ehcleanup1132

lpad273:                                          ; preds = %invoke.cont271
  %182 = landingpad { ptr, i32 }
          cleanup
  call void @_ZdlPv(ptr noundef nonnull %call272) #18
  br label %ehcleanup1132

if.else286:                                       ; preds = %_ZN9CMyComPtrI22ICryptoGetTextPasswordEaSEPS0_.exit
  %tobool287.not = icmp eq ptr %getDecoderPassword, null
  br i1 %tobool287.not, label %cleanup1129, label %if.end289

if.end289:                                        ; preds = %if.else286
  call void @llvm.lifetime.start.p0(i64 8, ptr nonnull %password) #16
  store ptr null, ptr %password, align 8, !tbaa !138
  %vtable296 = load ptr, ptr %getDecoderPassword, align 8, !tbaa !28
  %vfn297 = getelementptr inbounds ptr, ptr %vtable296, i64 5
  %183 = load ptr, ptr %vfn297, align 8
  %call299 = invoke noundef i32 %183(ptr noundef nonnull align 8 dereferenceable(8) %getDecoderPassword, ptr noundef nonnull %password)
          to label %invoke.cont298 unwind label %lpad293

invoke.cont298:                                   ; preds = %if.end289
  %cmp300.not = icmp eq i32 %call299, 0
  br i1 %cmp300.not, label %cleanup.cont305, label %cleanup313

lpad293:                                          ; preds = %if.end289
  %184 = landingpad { ptr, i32 }
          cleanup
  br label %ehcleanup314

cleanup.cont305:                                  ; preds = %invoke.cont298
  %185 = load ptr, ptr %password, align 8, !tbaa !138
  %call312 = invoke noundef nonnull align 8 dereferenceable(16) ptr @_ZN11CStringBaseIwEaSEPKw(ptr noundef nonnull align 8 dereferenceable(16) %Password.i, ptr noundef %185)
          to label %cleanup313 unwind label %lpad307

cleanup313:                                       ; preds = %cleanup.cont305, %invoke.cont298
  %186 = load ptr, ptr %password, align 8, !tbaa !138
  invoke void @SysFreeString(ptr noundef %186)
          to label %_ZN10CMyComBSTRD2Ev.exit unwind label %terminate.lpad.i

terminate.lpad.i:                                 ; preds = %cleanup313
  %187 = landingpad { ptr, i32 }
          catch ptr null
  %188 = extractvalue { ptr, i32 } %187, 0
  call void @__clang_call_terminate(ptr %188) #19
  unreachable

_ZN10CMyComBSTRD2Ev.exit:                         ; preds = %cleanup313
  call void @llvm.lifetime.end.p0(i64 8, ptr nonnull %password) #16
  br i1 %cmp300.not, label %if.end320, label %cleanup1129

lpad307:                                          ; preds = %cleanup.cont305
  %189 = landingpad { ptr, i32 }
          cleanup
  br label %ehcleanup314

ehcleanup314:                                     ; preds = %lpad307, %lpad293
  %.pn2241 = phi { ptr, i32 } [ %189, %lpad307 ], [ %184, %lpad293 ]
  %190 = load ptr, ptr %password, align 8, !tbaa !138
  invoke void @SysFreeString(ptr noundef %190)
          to label %_ZN10CMyComBSTRD2Ev.exit1578 unwind label %terminate.lpad.i1577

terminate.lpad.i1577:                             ; preds = %ehcleanup314
  %191 = landingpad { ptr, i32 }
          catch ptr null
  %192 = extractvalue { ptr, i32 } %191, 0
  call void @__clang_call_terminate(ptr %192) #19
  unreachable

_ZN10CMyComBSTRD2Ev.exit1578:                     ; preds = %ehcleanup314
  call void @llvm.lifetime.end.p0(i64 8, ptr nonnull %password) #16
  br label %ehcleanup1132

if.end320:                                        ; preds = %_Z12MyStringCopyIwEPT_S1_PKS0_.exit.i, %if.then281, %_ZN10CMyComBSTRD2Ev.exit, %for.end265
  %getPasswordSpec.0 = phi ptr [ %call272, %_ZN10CMyComBSTRD2Ev.exit ], [ null, %for.end265 ], [ %call272, %if.then281 ], [ %call272, %_Z12MyStringCopyIwEPT_S1_PKS0_.exit.i ]
  %call324 = invoke noundef i32 @_ZN8NArchive3N7z11COutArchive6CreateEP20ISequentialOutStreamb(ptr noundef nonnull align 8 dereferenceable(128) %archive, ptr noundef %seqOutStream, i1 noundef zeroext false)
          to label %invoke.cont323 unwind label %lpad322

invoke.cont323:                                   ; preds = %if.end320
  %cmp325.not = icmp eq i32 %call324, 0
  br i1 %cmp325.not, label %cleanup.cont330, label %cleanup1129

lpad322:                                          ; preds = %if.end320
  %193 = landingpad { ptr, i32 }
          cleanup
  br label %ehcleanup1132

cleanup.cont330:                                  ; preds = %invoke.cont323
  %call335 = invoke noundef i32 @_ZN8NArchive3N7z11COutArchive23SkipPrefixArchiveHeaderEv(ptr noundef nonnull align 8 dereferenceable(128) %archive)
          to label %invoke.cont334 unwind label %lpad333

invoke.cont334:                                   ; preds = %cleanup.cont330
  %cmp336.not = icmp eq i32 %call335, 0
  br i1 %cmp336.not, label %cleanup.cont341, label %cleanup1129

lpad333:                                          ; preds = %cleanup.cont330
  %194 = landingpad { ptr, i32 }
          cleanup
  br label %ehcleanup1132

cleanup.cont341:                                  ; preds = %invoke.cont334
  %ProgressOffset = getelementptr inbounds %class.CLocalProgress, ptr %call174, i64 0, i32 7
  store i64 0, ptr %ProgressOffset, align 8, !tbaa !140
  %_items.i.i1579 = getelementptr inbounds %class.CBaseRecordVector, ptr %groups, i64 0, i32 3
  %_capacity.i.i.i.i1582 = getelementptr inbounds %class.CBaseRecordVector, ptr %method350, i64 0, i32 1
  %_itemSize.i.i.i.i = getelementptr inbounds %class.CBaseRecordVector, ptr %method350, i64 0, i32 4
  %Binds.i = getelementptr inbounds %"struct.NArchive::N7z::CCompressionMethodMode", ptr %method350, i64 0, i32 1
  %_capacity.i.i.i1583 = getelementptr inbounds %"struct.NArchive::N7z::CCompressionMethodMode", ptr %method350, i64 0, i32 1, i32 0, i32 1
  %_itemSize.i.i.i1584 = getelementptr inbounds %"struct.NArchive::N7z::CCompressionMethodMode", ptr %method350, i64 0, i32 1, i32 0, i32 4
  %NumThreads.i = getelementptr inbounds %"struct.NArchive::N7z::CCompressionMethodMode", ptr %method350, i64 0, i32 2
  %PasswordIsDefined.i = getelementptr inbounds %"struct.NArchive::N7z::CCompressionMethodMode", ptr %method350, i64 0, i32 3
  %Password.i1585 = getelementptr inbounds %"struct.NArchive::N7z::CCompressionMethodMode", ptr %method350, i64 0, i32 4
  %_capacity.i.i1586 = getelementptr inbounds %"struct.NArchive::N7z::CCompressionMethodMode", ptr %method350, i64 0, i32 4, i32 2
  %MaxFilter = getelementptr inbounds %"struct.NArchive::N7z::CUpdateOptions", ptr %options, i64 0, i32 3
  %Props.i.i.i = getelementptr inbounds %struct.CMethod, ptr %methodFull.i, i64 0, i32 1
  %_capacity.i.i.i.i.i.i = getelementptr inbounds %struct.CMethod, ptr %methodFull.i, i64 0, i32 1, i32 0, i32 0, i32 1
  %_itemSize.i.i.i.i.i.i = getelementptr inbounds %struct.CMethod, ptr %methodFull.i, i64 0, i32 1, i32 0, i32 0, i32 4
  %NumInStreams.i.i = getelementptr inbounds %"struct.NArchive::N7z::CMethodFull", ptr %methodFull.i, i64 0, i32 1
  %NumOutStreams.i.i = getelementptr inbounds %"struct.NArchive::N7z::CMethodFull", ptr %methodFull.i, i64 0, i32 2
  %_items.i.i.i1591 = getelementptr inbounds %class.CBaseRecordVector, ptr %method350, i64 0, i32 3
  %Value.i.i = getelementptr inbounds %struct.CProp, ptr %prop.i, i64 0, i32 1
  %wReserved1.i.i.i = getelementptr inbounds %struct.CProp, ptr %prop.i, i64 0, i32 1, i32 0, i32 1
  %_items.i.i132.i = getelementptr inbounds %struct.CMethod, ptr %methodFull.i, i64 0, i32 1, i32 0, i32 0, i32 3
  %_size.i.i.i = getelementptr inbounds %struct.CMethod, ptr %methodFull.i, i64 0, i32 1, i32 0, i32 0, i32 2
  %Value.i137.i = getelementptr inbounds %struct.CProp, ptr %prop10.i, i64 0, i32 1
  %wReserved1.i.i138.i = getelementptr inbounds %struct.CProp, ptr %prop10.i, i64 0, i32 1, i32 0, i32 1
  %Value.i156.i = getelementptr inbounds %struct.CProp, ptr %prop23.i, i64 0, i32 1
  %wReserved1.i.i157.i = getelementptr inbounds %struct.CProp, ptr %prop23.i, i64 0, i32 1, i32 0, i32 1
  %Value.i175.i = getelementptr inbounds %struct.CProp, ptr %prop36.i, i64 0, i32 1
  %wReserved1.i.i176.i = getelementptr inbounds %struct.CProp, ptr %prop36.i, i64 0, i32 1, i32 0, i32 1
  %Value.i194.i = getelementptr inbounds %struct.CProp, ptr %prop49.i, i64 0, i32 1
  %wReserved1.i.i195.i = getelementptr inbounds %struct.CProp, ptr %prop49.i, i64 0, i32 1, i32 0, i32 1
  %_size.i.i222.i = getelementptr inbounds %class.CBaseRecordVector, ptr %method350, i64 0, i32 2
  %_items.i.i1596 = getelementptr inbounds %"struct.NArchive::N7z::CCompressionMethodMode", ptr %method350, i64 0, i32 1, i32 0, i32 3
  %_size.i.i1597 = getelementptr inbounds %"struct.NArchive::N7z::CCompressionMethodMode", ptr %method350, i64 0, i32 1, i32 0, i32 2
  %Props.i.i285.i = getelementptr inbounds %struct.CMethod, ptr %methodFull86.i, i64 0, i32 1
  %_capacity.i.i.i.i.i286.i = getelementptr inbounds %struct.CMethod, ptr %methodFull86.i, i64 0, i32 1, i32 0, i32 0, i32 1
  %_itemSize.i.i.i.i.i287.i = getelementptr inbounds %struct.CMethod, ptr %methodFull86.i, i64 0, i32 1, i32 0, i32 0, i32 4
  %NumInStreams.i288.i = getelementptr inbounds %"struct.NArchive::N7z::CMethodFull", ptr %methodFull86.i, i64 0, i32 1
  %NumOutStreams.i289.i = getelementptr inbounds %"struct.NArchive::N7z::CMethodFull", ptr %methodFull86.i, i64 0, i32 2
  %tobool371.not = icmp eq ptr %getPasswordSpec.0, null
  %Password373 = getelementptr inbounds %"class.NArchive::N7z::CCryptoGetTextPassword", ptr %getPasswordSpec.0, i64 0, i32 2
  %cmp.i1609 = icmp eq ptr %Password373, %Password.i1585
  %_length.i.i1610 = getelementptr inbounds %"struct.NArchive::N7z::CCompressionMethodMode", ptr %method350, i64 0, i32 4, i32 1
  %_length.i1611 = getelementptr inbounds %"class.NArchive::N7z::CCryptoGetTextPassword", ptr %getPasswordSpec.0, i64 0, i32 2, i32 1
  %_items.i1637 = getelementptr inbounds %class.CBaseRecordVector, ptr %folderRefs, i64 0, i32 3
  %_items.i1640 = getelementptr inbounds %"struct.NArchive::N7z::CArchiveDatabase", ptr %db, i64 0, i32 4, i32 0, i32 3
  %_sync.i.i.i = getelementptr inbounds %"struct.NWindows::NSynchronization::CBaseHandleWFMO", ptr %sb, i64 0, i32 1
  %_thereAreBytesToReadEvent.i = getelementptr inbounds %class.CStreamBinder, ptr %sb, i64 0, i32 1
  %_readStreamIsClosedEvent.i = getelementptr inbounds %class.CStreamBinder, ptr %sb, i64 0, i32 2
  %_sync.i.i5.i = getelementptr inbounds %class.CStreamBinder, ptr %sb, i64 0, i32 2, i32 0, i32 0, i32 1
  %_synchroFor_allBytesAreWritenEvent_and_readStreamIsClosedEvent.i = getelementptr inbounds %class.CStreamBinder, ptr %sb, i64 0, i32 3
  %_capacity.i.i1691 = getelementptr inbounds %class.CBaseRecordVector, ptr %extractStatuses, i64 0, i32 1
  %_itemSize.i.i1692 = getelementptr inbounds %class.CBaseRecordVector, ptr %extractStatuses, i64 0, i32 4
  %_items.i1696 = getelementptr inbounds %"struct.NArchive::N7z::CArchiveDatabaseEx", ptr %db, i64 0, i32 4, i32 0, i32 3
  %_items.i.i1708 = getelementptr inbounds %"struct.NArchive::N7z::CArchiveDatabase", ptr %db, i64 0, i32 5, i32 0, i32 0, i32 3
  %_items.i1711 = getelementptr inbounds %class.CBaseRecordVector, ptr %fileIndexToUpdateIndexMap, i64 0, i32 3
  %_items.i.i1714 = getelementptr inbounds %class.CBaseRecordVector, ptr %updateItems, i64 0, i32 3
  %_items.i1717 = getelementptr inbounds %class.CBaseRecordVector, ptr %extractStatuses, i64 0, i32 3
  %_size.i1718 = getelementptr inbounds %class.CBaseRecordVector, ptr %extractStatuses, i64 0, i32 2
  %FosSpec = getelementptr inbounds %"class.NArchive::N7z::CThreadDecoder", ptr %threadDecoder, i64 0, i32 3
  %InStream = getelementptr inbounds %"class.NArchive::N7z::CThreadDecoder", ptr %threadDecoder, i64 0, i32 2
  %cmp.not.i = icmp eq ptr %inStream, null
  %_items.i.i1741 = getelementptr inbounds %"struct.NArchive::N7z::CArchiveDatabase", ptr %db, i64 0, i32 3, i32 0, i32 0, i32 3
  %Folder = getelementptr inbounds %"class.NArchive::N7z::CThreadDecoder", ptr %threadDecoder, i64 0, i32 7
  %_items.i4.i1748 = getelementptr inbounds %"struct.NArchive::N7z::CArchiveDatabaseEx", ptr %db, i64 0, i32 2, i32 0, i32 3
  %_items.i.i1745 = getelementptr inbounds %"struct.NArchive::N7z::CArchiveDatabaseEx", ptr %db, i64 0, i32 3, i32 0, i32 3
  %DataStartPosition.i1744 = getelementptr inbounds %"struct.NArchive::N7z::CArchiveDatabaseEx", ptr %db, i64 0, i32 1, i32 3
  %StartPos = getelementptr inbounds %"class.NArchive::N7z::CThreadDecoder", ptr %threadDecoder, i64 0, i32 5
  %_items.i1755 = getelementptr inbounds %class.CBaseRecordVector, ptr %db, i64 0, i32 3
  %PackSizes568 = getelementptr inbounds %"class.NArchive::N7z::CThreadDecoder", ptr %threadDecoder, i64 0, i32 6
  %_size.i1758 = getelementptr inbounds %class.CBaseRecordVector, ptr %newDatabase, i64 0, i32 2
  %_capacity.i.i.i.i1759 = getelementptr inbounds %class.CBaseRecordVector, ptr %newFolder, i64 0, i32 1
  %_itemSize.i.i.i.i1760 = getelementptr inbounds %class.CBaseRecordVector, ptr %newFolder, i64 0, i32 4
  %BindPairs.i = getelementptr inbounds %"struct.NArchive::N7z::CFolder", ptr %newFolder, i64 0, i32 1
  %_capacity.i.i.i1761 = getelementptr inbounds %"struct.NArchive::N7z::CFolder", ptr %newFolder, i64 0, i32 1, i32 0, i32 1
  %_itemSize.i.i.i1762 = getelementptr inbounds %"struct.NArchive::N7z::CFolder", ptr %newFolder, i64 0, i32 1, i32 0, i32 4
  %PackStreams.i = getelementptr inbounds %"struct.NArchive::N7z::CFolder", ptr %newFolder, i64 0, i32 2
  %_capacity.i.i8.i = getelementptr inbounds %"struct.NArchive::N7z::CFolder", ptr %newFolder, i64 0, i32 2, i32 0, i32 1
  %_itemSize.i.i9.i = getelementptr inbounds %"struct.NArchive::N7z::CFolder", ptr %newFolder, i64 0, i32 2, i32 0, i32 4
  %UnpackSizes.i = getelementptr inbounds %"struct.NArchive::N7z::CFolder", ptr %newFolder, i64 0, i32 3
  %_capacity.i.i10.i = getelementptr inbounds %"struct.NArchive::N7z::CFolder", ptr %newFolder, i64 0, i32 3, i32 0, i32 1
  %_itemSize.i.i11.i = getelementptr inbounds %"struct.NArchive::N7z::CFolder", ptr %newFolder, i64 0, i32 3, i32 0, i32 4
  %UnpackCRCDefined.i = getelementptr inbounds %"struct.NArchive::N7z::CFolder", ptr %newFolder, i64 0, i32 5
  %SeqStream580 = getelementptr inbounds %"class.NArchive::N7z::COutArchive", ptr %archive, i64 0, i32 9
  %FinishedEvent.i = getelementptr inbounds %struct.CVirtThread, ptr %threadDecoder, i64 0, i32 2
  %Result = getelementptr inbounds %"class.NArchive::N7z::CThreadDecoder", ptr %threadDecoder, i64 0, i32 1
  %_items.i1766 = getelementptr inbounds %class.CBaseRecordVector, ptr %newDatabase, i64 0, i32 3
  %OutSize = getelementptr %class.CLocalProgress, ptr %call174, i64 0, i32 9
  %_size.i.i1769 = getelementptr inbounds %"struct.NArchive::N7z::CFolder", ptr %newFolder, i64 0, i32 3, i32 0, i32 2
  %_size.i.i.i1771 = getelementptr inbounds %"struct.NArchive::N7z::CFolder", ptr %newFolder, i64 0, i32 1, i32 0, i32 2
  %_items.i.i.i1772 = getelementptr inbounds %"struct.NArchive::N7z::CFolder", ptr %newFolder, i64 0, i32 1, i32 0, i32 3
  %_items.i.i1776 = getelementptr inbounds %"struct.NArchive::N7z::CFolder", ptr %newFolder, i64 0, i32 3, i32 0, i32 3
  %InSize = getelementptr inbounds %class.CLocalProgress, ptr %call174, i64 0, i32 8
  %Folders620 = getelementptr inbounds %"struct.NArchive::N7z::CArchiveDatabase", ptr %newDatabase, i64 0, i32 3
  %_items.i.i1779 = getelementptr inbounds %"struct.NArchive::N7z::CArchiveDatabase", ptr %newDatabase, i64 0, i32 3, i32 0, i32 0, i32 3
  %_size.i.i1780 = getelementptr inbounds %"struct.NArchive::N7z::CArchiveDatabase", ptr %newDatabase, i64 0, i32 3, i32 0, i32 0, i32 2
  %NumUnpackStreamsVector652 = getelementptr inbounds %"struct.NArchive::N7z::CArchiveDatabase", ptr %newDatabase, i64 0, i32 4
  %_items.i1832 = getelementptr inbounds %"struct.NArchive::N7z::CArchiveDatabase", ptr %newDatabase, i64 0, i32 4, i32 0, i32 3
  %_size.i1833 = getelementptr inbounds %"struct.NArchive::N7z::CArchiveDatabase", ptr %newDatabase, i64 0, i32 4, i32 0, i32 2
  %Name.i1845 = getelementptr inbounds %"struct.NArchive::N7z::CFileItem", ptr %file671, i64 0, i32 3
  %_capacity.i.i1846 = getelementptr inbounds %"struct.NArchive::N7z::CFileItem", ptr %file671, i64 0, i32 3, i32 2
  %HasStream.i = getelementptr inbounds %"struct.NArchive::N7z::CFileItem", ptr %file671, i64 0, i32 4
  %CrcDefined.i = getelementptr inbounds %"struct.NArchive::N7z::CFileItem", ptr %file671, i64 0, i32 6
  %Name.i1856 = getelementptr inbounds %"struct.NArchive::N7z::CFileItem", ptr %uf, i64 0, i32 3
  %HasStream.i1859 = getelementptr inbounds %"struct.NArchive::N7z::CFileItem", ptr %uf, i64 0, i32 4
  %CrcDefined.i1861 = getelementptr inbounds %"struct.NArchive::N7z::CFileItem", ptr %uf, i64 0, i32 6
  %Crc = getelementptr inbounds %"struct.NArchive::N7z::CFileItem", ptr %file671, i64 0, i32 2
  %Crc702 = getelementptr inbounds %"struct.NArchive::N7z::CFileItem", ptr %uf, i64 0, i32 2
  %_length.i.i.i = getelementptr inbounds %"struct.NArchive::N7z::CFileItem", ptr %file671, i64 0, i32 3, i32 1
  %_length.i.i1866 = getelementptr inbounds %"struct.NArchive::N7z::CFileItem", ptr %uf, i64 0, i32 3, i32 1
  %_capacity.i.i1887 = getelementptr inbounds %class.CBaseRecordVector, ptr %refItems, i64 0, i32 1
  %_itemSize.i.i1888 = getelementptr inbounds %class.CBaseRecordVector, ptr %refItems, i64 0, i32 4
  %cmp761 = icmp ugt i64 %.fr, 1
  %frombool762 = zext i1 %cmp761 to i8
  %_items.i1899 = getelementptr inbounds %class.CBaseRecordVector, ptr %refItems, i64 0, i32 3
  %_size.i1900 = getelementptr inbounds %class.CBaseRecordVector, ptr %refItems, i64 0, i32 2
  %_capacity.i.i1923 = getelementptr inbounds %class.CBaseRecordVector, ptr %indices, i64 0, i32 1
  %_itemSize.i.i1924 = getelementptr inbounds %class.CBaseRecordVector, ptr %indices, i64 0, i32 4
  %_items.i1928 = getelementptr inbounds %class.CBaseRecordVector, ptr %indices, i64 0, i32 3
  %_size.i1929 = getelementptr inbounds %class.CBaseRecordVector, ptr %indices, i64 0, i32 2
  %NumSolidBytes = getelementptr inbounds %"struct.NArchive::N7z::CUpdateOptions", ptr %options, i64 0, i32 7
  %SolidExtension = getelementptr inbounds %"struct.NArchive::N7z::CUpdateOptions", ptr %options, i64 0, i32 8
  %_length.i1951 = getelementptr inbounds %class.CStringBase, ptr %ext, i64 0, i32 1
  %_capacity.i.i.i.i1990 = getelementptr inbounds %class.CBaseRecordVector, ptr %folderItem, i64 0, i32 1
  %_itemSize.i.i.i.i1991 = getelementptr inbounds %class.CBaseRecordVector, ptr %folderItem, i64 0, i32 4
  %BindPairs.i1992 = getelementptr inbounds %"struct.NArchive::N7z::CFolder", ptr %folderItem, i64 0, i32 1
  %_capacity.i.i.i1993 = getelementptr inbounds %"struct.NArchive::N7z::CFolder", ptr %folderItem, i64 0, i32 1, i32 0, i32 1
  %_itemSize.i.i.i1994 = getelementptr inbounds %"struct.NArchive::N7z::CFolder", ptr %folderItem, i64 0, i32 1, i32 0, i32 4
  %PackStreams.i1995 = getelementptr inbounds %"struct.NArchive::N7z::CFolder", ptr %folderItem, i64 0, i32 2
  %_capacity.i.i8.i1996 = getelementptr inbounds %"struct.NArchive::N7z::CFolder", ptr %folderItem, i64 0, i32 2, i32 0, i32 1
  %_itemSize.i.i9.i1997 = getelementptr inbounds %"struct.NArchive::N7z::CFolder", ptr %folderItem, i64 0, i32 2, i32 0, i32 4
  %UnpackSizes.i1998 = getelementptr inbounds %"struct.NArchive::N7z::CFolder", ptr %folderItem, i64 0, i32 3
  %_capacity.i.i10.i1999 = getelementptr inbounds %"struct.NArchive::N7z::CFolder", ptr %folderItem, i64 0, i32 3, i32 0, i32 1
  %_itemSize.i.i11.i2000 = getelementptr inbounds %"struct.NArchive::N7z::CFolder", ptr %folderItem, i64 0, i32 3, i32 0, i32 4
  %UnpackCRCDefined.i2001 = getelementptr inbounds %"struct.NArchive::N7z::CFolder", ptr %folderItem, i64 0, i32 5
  %_size.i.i2007 = getelementptr inbounds %"struct.NArchive::N7z::CFolder", ptr %folderItem, i64 0, i32 3, i32 0, i32 2
  %_size.i.i.i2009 = getelementptr inbounds %"struct.NArchive::N7z::CFolder", ptr %folderItem, i64 0, i32 1, i32 0, i32 2
  %_items.i.i.i2012 = getelementptr inbounds %"struct.NArchive::N7z::CFolder", ptr %folderItem, i64 0, i32 1, i32 0, i32 3
  %_items.i.i2032 = getelementptr inbounds %"struct.NArchive::N7z::CFolder", ptr %folderItem, i64 0, i32 3, i32 0, i32 3
  %Name.i2059 = getelementptr inbounds %"struct.NArchive::N7z::CFileItem", ptr %file928, i64 0, i32 3
  %HasStream.i2062 = getelementptr inbounds %"struct.NArchive::N7z::CFileItem", ptr %file928, i64 0, i32 4
  %IsDir.i2063 = getelementptr inbounds %"struct.NArchive::N7z::CFileItem", ptr %file928, i64 0, i32 5
  %CrcDefined.i2064 = getelementptr inbounds %"struct.NArchive::N7z::CFileItem", ptr %file928, i64 0, i32 6
  %IsAnti = getelementptr inbounds %"struct.NArchive::N7z::CFileItem2", ptr %file2931, i64 0, i32 8
  %Crc953 = getelementptr inbounds %"struct.NArchive::N7z::CFileItem", ptr %file928, i64 0, i32 2
  %brmerge = select i1 %tobool371.not, i1 true, i1 %cmp.i1609
  %195 = getelementptr inbounds %"struct.NArchive::N7z::CFileItem", ptr %file928, i64 0, i32 3, i32 1
  %scevgep = getelementptr i8, ptr %call174, i64 64
  br label %for.body346

for.body346:                                      ; preds = %cleanup.cont341, %for.inc1038
  %indvars.iv3145 = phi i64 [ 0, %cleanup.cont341 ], [ %indvars.iv.next3146, %for.inc1038 ]
  %retval.92845 = phi i32 [ 0, %cleanup.cont341 ], [ %retval.31, %for.inc1038 ]
  %folderRefIndex.02844 = phi i32 [ 0, %cleanup.cont341 ], [ %folderRefIndex.12361, %for.inc1038 ]
  %196 = load ptr, ptr %_items.i.i1579, align 8, !tbaa !36
  %arrayidx.i.i1581 = getelementptr inbounds ptr, ptr %196, i64 %indvars.iv3145
  %197 = load ptr, ptr %arrayidx.i.i1581, align 8, !tbaa !37
  call void @llvm.lifetime.start.p0(i64 88, ptr nonnull %method350) #16
  call void @llvm.memset.p0.i64(ptr noundef nonnull align 8 dereferenceable(16) %_capacity.i.i.i.i1582, i8 0, i64 16, i1 false)
  store i64 8, ptr %_itemSize.i.i.i.i, align 8, !tbaa !95
  store ptr getelementptr inbounds ({ [5 x ptr] }, ptr @_ZTV13CObjectVectorIN8NArchive3N7z11CMethodFullEE, i64 0, inrange i32 0, i64 2), ptr %method350, align 8, !tbaa !28
  call void @llvm.memset.p0.i64(ptr noundef nonnull align 8 dereferenceable(16) %_capacity.i.i.i1583, i8 0, i64 16, i1 false)
  store i64 16, ptr %_itemSize.i.i.i1584, align 8, !tbaa !95
  store ptr getelementptr inbounds ({ [5 x ptr] }, ptr @_ZTV13CRecordVectorIN8NArchive3N7z5CBindEE, i64 0, inrange i32 0, i64 2), ptr %Binds.i, align 8, !tbaa !28
  store i32 1, ptr %NumThreads.i, align 8, !tbaa !145
  store i8 0, ptr %PasswordIsDefined.i, align 4, !tbaa !130
  call void @llvm.memset.p0.i64(ptr noundef nonnull align 8 dereferenceable(16) %Password.i1585, i8 0, i64 16, i1 false)
  %call.i.i5.i = invoke noalias noundef nonnull dereferenceable(16) ptr @_Znam(i64 noundef 16) #17
          to label %_ZN8NArchive3N7z22CCompressionMethodModeC2Ev.exit unwind label %lpad2.i

lpad2.i:                                          ; preds = %for.body346
  %198 = landingpad { ptr, i32 }
          cleanup
  call void @_ZN17CBaseRecordVectorD2Ev(ptr noundef nonnull align 8 dereferenceable(32) %Binds.i) #16
  call void @_ZN13CObjectVectorIN8NArchive3N7z11CMethodFullEED2Ev(ptr noundef nonnull align 8 dereferenceable(32) %method350) #16
  br label %ehcleanup1033

_ZN8NArchive3N7z22CCompressionMethodModeC2Ev.exit: ; preds = %for.body346
  store ptr %call.i.i5.i, ptr %Password.i1585, align 8, !tbaa !82
  store i32 0, ptr %call.i.i5.i, align 4, !tbaa !11
  store i32 4, ptr %_capacity.i.i1586, align 4, !tbaa !136
  %and.i15883165 = and i64 %indvars.iv3145, 1
  %cmp.i1589.not = icmp eq i64 %and.i15883165, 0
  %199 = load ptr, ptr %options, align 8, !tbaa !120
  br i1 %cmp.i1589.not, label %if.else360, label %if.then356

if.then356:                                       ; preds = %_ZN8NArchive3N7z22CCompressionMethodModeC2Ev.exit
  %200 = load i8, ptr %MaxFilter, align 1, !tbaa !146, !range !42, !noundef !43
  %call.i1605 = invoke noundef nonnull align 8 dereferenceable(88) ptr @_ZN8NArchive3N7z22CCompressionMethodModeaSERKS1_(ptr noundef nonnull align 8 dereferenceable(88) %method350, ptr noundef nonnull align 8 dereferenceable(88) %199)
          to label %call.i.noexc1604 unwind label %lpad353

call.i.noexc1604:                                 ; preds = %if.then356
  %tobool358.not = icmp eq i8 %200, 0
  br i1 %tobool358.not, label %if.else.i, label %if.then.i1590

if.then.i1590:                                    ; preds = %call.i.noexc1604
  call void @llvm.lifetime.start.p0(i64 48, ptr nonnull %methodFull.i) #16
  call void @llvm.memset.p0.i64(ptr noundef nonnull align 8 dereferenceable(16) %_capacity.i.i.i.i.i.i, i8 0, i64 16, i1 false)
  store i64 8, ptr %_itemSize.i.i.i.i.i.i, align 8, !tbaa !95
  store ptr getelementptr inbounds ({ [5 x ptr] }, ptr @_ZTV13CObjectVectorI5CPropE, i64 0, inrange i32 0, i64 2), ptr %Props.i.i.i, align 8, !tbaa !28
  store i64 50528539, ptr %methodFull.i, align 8, !tbaa !147
  store i32 4, ptr %NumInStreams.i.i, align 8, !tbaa !150
  store i32 1, ptr %NumOutStreams.i.i, align 4, !tbaa !152
  %call.i129.i = invoke noalias noundef nonnull dereferenceable(48) ptr @_Znwm(i64 noundef 48) #17
          to label %call.i.noexc.i unwind label %lpad.i1600

call.i.noexc.i:                                   ; preds = %if.then.i1590
  store i64 50528539, ptr %call.i129.i, align 8, !tbaa !147
  %Props.i.i.i.i = getelementptr inbounds %struct.CMethod, ptr %call.i129.i, i64 0, i32 1
  %_capacity.i.i.i.i.i.i.i = getelementptr inbounds %struct.CMethod, ptr %call.i129.i, i64 0, i32 1, i32 0, i32 0, i32 1
  %_itemSize.i.i.i.i.i.i.i = getelementptr inbounds %struct.CMethod, ptr %call.i129.i, i64 0, i32 1, i32 0, i32 0, i32 4
  call void @llvm.memset.p0.i64(ptr noundef nonnull align 8 dereferenceable(16) %_capacity.i.i.i.i.i.i.i, i8 0, i64 16, i1 false)
  store i64 8, ptr %_itemSize.i.i.i.i.i.i.i, align 8, !tbaa !95
  store ptr getelementptr inbounds ({ [5 x ptr] }, ptr @_ZTV13CObjectVectorI5CPropE, i64 0, inrange i32 0, i64 2), ptr %Props.i.i.i.i, align 8, !tbaa !28
  %call.i.i.i.i.i = invoke noundef nonnull align 8 dereferenceable(32) ptr @_ZN13CObjectVectorI5CPropEaSERKS1_(ptr noundef nonnull align 8 dereferenceable(32) %Props.i.i.i.i, ptr noundef nonnull align 8 dereferenceable(32) %Props.i.i.i)
          to label %_ZN8NArchive3N7z11CMethodFullC2ERKS1_.exit.i.i unwind label %lpad.i.i.i.i.i

lpad.i.i.i.i.i:                                   ; preds = %call.i.noexc.i
  %201 = landingpad { ptr, i32 }
          cleanup
  call void @_ZN17CBaseRecordVectorD2Ev(ptr noundef nonnull align 8 dereferenceable(32) %Props.i.i.i.i) #16
  call void @_ZdlPv(ptr noundef nonnull %call.i129.i) #18
  br label %ehcleanup84.i

_ZN8NArchive3N7z11CMethodFullC2ERKS1_.exit.i.i:   ; preds = %call.i.noexc.i
  %NumInStreams.i.i.i = getelementptr inbounds %"struct.NArchive::N7z::CMethodFull", ptr %call.i129.i, i64 0, i32 1
  %202 = load i64, ptr %NumInStreams.i.i, align 8
  store i64 %202, ptr %NumInStreams.i.i.i, align 8
  invoke void @_ZN17CBaseRecordVector13InsertOneItemEi(ptr noundef nonnull align 8 dereferenceable(32) %method350, i32 noundef 0)
          to label %_ZN13CObjectVectorIN8NArchive3N7z11CMethodFullEE6InsertEiRKS2_.exit.i unwind label %lpad.i1600

_ZN13CObjectVectorIN8NArchive3N7z11CMethodFullEE6InsertEiRKS2_.exit.i: ; preds = %_ZN8NArchive3N7z11CMethodFullC2ERKS1_.exit.i.i
  %203 = load ptr, ptr %_items.i.i.i1591, align 8, !tbaa !36
  store ptr %call.i129.i, ptr %203, align 8, !tbaa !37
  store i64 196865, ptr %methodFull.i, align 8, !tbaa !147
  store i32 1, ptr %NumInStreams.i.i, align 8, !tbaa !150
  store i32 1, ptr %NumOutStreams.i.i, align 4, !tbaa !152
  call void @llvm.lifetime.start.p0(i64 24, ptr nonnull %prop.i) #16
  store i16 0, ptr %Value.i.i, align 8, !tbaa !153
  store i16 0, ptr %wReserved1.i.i.i, align 2, !tbaa !156
  store i32 12, ptr %prop.i, align 8, !tbaa !157
  %call7.i1592 = invoke noundef nonnull align 8 dereferenceable(16) ptr @_ZN8NWindows4NCOM12CPropVariantaSEj(ptr noundef nonnull align 8 dereferenceable(16) %Value.i.i, i32 noundef 1)
          to label %invoke.cont6.i1593 unwind label %lpad5.i

invoke.cont6.i1593:                               ; preds = %_ZN13CObjectVectorIN8NArchive3N7z11CMethodFullEE6InsertEiRKS2_.exit.i
  %call.i134.i = invoke noalias noundef nonnull dereferenceable(24) ptr @_Znwm(i64 noundef 24) #17
          to label %call.i.noexc133.i unwind label %lpad5.i

call.i.noexc133.i:                                ; preds = %invoke.cont6.i1593
  %204 = load i32, ptr %prop.i, align 8, !tbaa !157
  store i32 %204, ptr %call.i134.i, align 8, !tbaa !157
  %Value.i.i.i = getelementptr inbounds %struct.CProp, ptr %call.i134.i, i64 0, i32 1
  invoke void @_ZN8NWindows4NCOM12CPropVariantC1ERKS1_(ptr noundef nonnull align 8 dereferenceable(16) %Value.i.i.i, ptr noundef nonnull align 8 dereferenceable(16) %Value.i.i)
          to label %invoke.cont.i.i unwind label %lpad.i.i

invoke.cont.i.i:                                  ; preds = %call.i.noexc133.i
  invoke void @_ZN17CBaseRecordVector18ReserveOnePositionEv(ptr noundef nonnull align 8 dereferenceable(32) %Props.i.i.i)
          to label %_ZN13CObjectVectorI5CPropE3AddERKS0_.exit.i unwind label %lpad5.i

lpad.i.i:                                         ; preds = %call.i.noexc133.i
  %205 = landingpad { ptr, i32 }
          cleanup
  call void @_ZdlPv(ptr noundef nonnull %call.i134.i) #18
  br label %lpad5.body.i

_ZN13CObjectVectorI5CPropE3AddERKS0_.exit.i:      ; preds = %invoke.cont.i.i
  %206 = load ptr, ptr %_items.i.i132.i, align 8, !tbaa !36
  %207 = load i32, ptr %_size.i.i.i, align 4, !tbaa !33
  %idxprom.i.i.i = sext i32 %207 to i64
  %arrayidx.i.i.i1594 = getelementptr inbounds ptr, ptr %206, i64 %idxprom.i.i.i
  store ptr %call.i134.i, ptr %arrayidx.i.i.i1594, align 8, !tbaa !37
  %inc.i.i.i = add nsw i32 %207, 1
  store i32 %inc.i.i.i, ptr %_size.i.i.i, align 4, !tbaa !33
  %call.i.i.i = invoke noundef i32 @_ZN8NWindows4NCOM12CPropVariant5ClearEv(ptr noundef nonnull align 8 dereferenceable(16) %Value.i.i)
          to label %_ZN5CPropD2Ev.exit.i unwind label %terminate.lpad.i.i.i

terminate.lpad.i.i.i:                             ; preds = %_ZN13CObjectVectorI5CPropE3AddERKS0_.exit.i
  %208 = landingpad { ptr, i32 }
          catch ptr null
  %209 = extractvalue { ptr, i32 } %208, 0
  call void @__clang_call_terminate(ptr %209) #19
  unreachable

_ZN5CPropD2Ev.exit.i:                             ; preds = %_ZN13CObjectVectorI5CPropE3AddERKS0_.exit.i
  call void @llvm.lifetime.end.p0(i64 24, ptr nonnull %prop.i) #16
  call void @llvm.lifetime.start.p0(i64 24, ptr nonnull %prop10.i) #16
  store i16 0, ptr %Value.i137.i, align 8, !tbaa !153
  store i16 0, ptr %wReserved1.i.i138.i, align 2, !tbaa !156
  store i32 9, ptr %prop10.i, align 8, !tbaa !157
  %call17.i = invoke noundef nonnull align 8 dereferenceable(16) ptr @_ZN8NWindows4NCOM12CPropVariantaSEPKw(ptr noundef nonnull align 8 dereferenceable(16) %Value.i137.i, ptr noundef nonnull @.str.1)
          to label %invoke.cont16.i unwind label %lpad15.i

invoke.cont16.i:                                  ; preds = %_ZN5CPropD2Ev.exit.i
  %call.i149.i = invoke noalias noundef nonnull dereferenceable(24) ptr @_Znwm(i64 noundef 24) #17
          to label %call.i.noexc148.i unwind label %lpad15.i

call.i.noexc148.i:                                ; preds = %invoke.cont16.i
  %210 = load i32, ptr %prop10.i, align 8, !tbaa !157
  store i32 %210, ptr %call.i149.i, align 8, !tbaa !157
  %Value.i.i139.i = getelementptr inbounds %struct.CProp, ptr %call.i149.i, i64 0, i32 1
  invoke void @_ZN8NWindows4NCOM12CPropVariantC1ERKS1_(ptr noundef nonnull align 8 dereferenceable(16) %Value.i.i139.i, ptr noundef nonnull align 8 dereferenceable(16) %Value.i137.i)
          to label %invoke.cont.i146.i unwind label %lpad.i147.i

invoke.cont.i146.i:                               ; preds = %call.i.noexc148.i
  invoke void @_ZN17CBaseRecordVector18ReserveOnePositionEv(ptr noundef nonnull align 8 dereferenceable(32) %Props.i.i.i)
          to label %_ZN13CObjectVectorI5CPropE3AddERKS0_.exit151.i unwind label %lpad15.i

lpad.i147.i:                                      ; preds = %call.i.noexc148.i
  %211 = landingpad { ptr, i32 }
          cleanup
  call void @_ZdlPv(ptr noundef nonnull %call.i149.i) #18
  br label %lpad15.body.i

_ZN13CObjectVectorI5CPropE3AddERKS0_.exit151.i:   ; preds = %invoke.cont.i146.i
  %212 = load ptr, ptr %_items.i.i132.i, align 8, !tbaa !36
  %213 = load i32, ptr %_size.i.i.i, align 4, !tbaa !33
  %idxprom.i.i143.i = sext i32 %213 to i64
  %arrayidx.i.i144.i = getelementptr inbounds ptr, ptr %212, i64 %idxprom.i.i143.i
  store ptr %call.i149.i, ptr %arrayidx.i.i144.i, align 8, !tbaa !37
  %inc.i.i145.i = add nsw i32 %213, 1
  store i32 %inc.i.i145.i, ptr %_size.i.i.i, align 4, !tbaa !33
  %call.i.i153.i = invoke noundef i32 @_ZN8NWindows4NCOM12CPropVariant5ClearEv(ptr noundef nonnull align 8 dereferenceable(16) %Value.i137.i)
          to label %_ZN5CPropD2Ev.exit155.i unwind label %terminate.lpad.i.i154.i

terminate.lpad.i.i154.i:                          ; preds = %_ZN13CObjectVectorI5CPropE3AddERKS0_.exit151.i
  %214 = landingpad { ptr, i32 }
          catch ptr null
  %215 = extractvalue { ptr, i32 } %214, 0
  call void @__clang_call_terminate(ptr %215) #19
  unreachable

_ZN5CPropD2Ev.exit155.i:                          ; preds = %_ZN13CObjectVectorI5CPropE3AddERKS0_.exit151.i
  call void @llvm.lifetime.end.p0(i64 24, ptr nonnull %prop10.i) #16
  call void @llvm.lifetime.start.p0(i64 24, ptr nonnull %prop23.i) #16
  store i16 0, ptr %Value.i156.i, align 8, !tbaa !153
  store i16 0, ptr %wReserved1.i.i157.i, align 2, !tbaa !156
  store i32 1, ptr %prop23.i, align 8, !tbaa !157
  %call30.i = invoke noundef nonnull align 8 dereferenceable(16) ptr @_ZN8NWindows4NCOM12CPropVariantaSEj(ptr noundef nonnull align 8 dereferenceable(16) %Value.i156.i, i32 noundef 1048576)
          to label %invoke.cont29.i unwind label %lpad28.i

invoke.cont29.i:                                  ; preds = %_ZN5CPropD2Ev.exit155.i
  %call.i168.i = invoke noalias noundef nonnull dereferenceable(24) ptr @_Znwm(i64 noundef 24) #17
          to label %call.i.noexc167.i unwind label %lpad28.i

call.i.noexc167.i:                                ; preds = %invoke.cont29.i
  %216 = load i32, ptr %prop23.i, align 8, !tbaa !157
  store i32 %216, ptr %call.i168.i, align 8, !tbaa !157
  %Value.i.i158.i = getelementptr inbounds %struct.CProp, ptr %call.i168.i, i64 0, i32 1
  invoke void @_ZN8NWindows4NCOM12CPropVariantC1ERKS1_(ptr noundef nonnull align 8 dereferenceable(16) %Value.i.i158.i, ptr noundef nonnull align 8 dereferenceable(16) %Value.i156.i)
          to label %invoke.cont.i165.i unwind label %lpad.i166.i

invoke.cont.i165.i:                               ; preds = %call.i.noexc167.i
  invoke void @_ZN17CBaseRecordVector18ReserveOnePositionEv(ptr noundef nonnull align 8 dereferenceable(32) %Props.i.i.i)
          to label %_ZN13CObjectVectorI5CPropE3AddERKS0_.exit170.i unwind label %lpad28.i

lpad.i166.i:                                      ; preds = %call.i.noexc167.i
  %217 = landingpad { ptr, i32 }
          cleanup
  call void @_ZdlPv(ptr noundef nonnull %call.i168.i) #18
  br label %lpad28.body.i

_ZN13CObjectVectorI5CPropE3AddERKS0_.exit170.i:   ; preds = %invoke.cont.i165.i
  %218 = load ptr, ptr %_items.i.i132.i, align 8, !tbaa !36
  %219 = load i32, ptr %_size.i.i.i, align 4, !tbaa !33
  %idxprom.i.i162.i = sext i32 %219 to i64
  %arrayidx.i.i163.i = getelementptr inbounds ptr, ptr %218, i64 %idxprom.i.i162.i
  store ptr %call.i168.i, ptr %arrayidx.i.i163.i, align 8, !tbaa !37
  %inc.i.i164.i = add nsw i32 %219, 1
  store i32 %inc.i.i164.i, ptr %_size.i.i.i, align 4, !tbaa !33
  %call.i.i172.i = invoke noundef i32 @_ZN8NWindows4NCOM12CPropVariant5ClearEv(ptr noundef nonnull align 8 dereferenceable(16) %Value.i156.i)
          to label %_ZN5CPropD2Ev.exit174.i unwind label %terminate.lpad.i.i173.i

terminate.lpad.i.i173.i:                          ; preds = %_ZN13CObjectVectorI5CPropE3AddERKS0_.exit170.i
  %220 = landingpad { ptr, i32 }
          catch ptr null
  %221 = extractvalue { ptr, i32 } %220, 0
  call void @__clang_call_terminate(ptr %221) #19
  unreachable

_ZN5CPropD2Ev.exit174.i:                          ; preds = %_ZN13CObjectVectorI5CPropE3AddERKS0_.exit170.i
  call void @llvm.lifetime.end.p0(i64 24, ptr nonnull %prop23.i) #16
  call void @llvm.lifetime.start.p0(i64 24, ptr nonnull %prop36.i) #16
  store i16 0, ptr %Value.i175.i, align 8, !tbaa !153
  store i16 0, ptr %wReserved1.i.i176.i, align 2, !tbaa !156
  store i32 8, ptr %prop36.i, align 8, !tbaa !157
  %call43.i = invoke noundef nonnull align 8 dereferenceable(16) ptr @_ZN8NWindows4NCOM12CPropVariantaSEj(ptr noundef nonnull align 8 dereferenceable(16) %Value.i175.i, i32 noundef 64)
          to label %invoke.cont42.i unwind label %lpad41.i

invoke.cont42.i:                                  ; preds = %_ZN5CPropD2Ev.exit174.i
  %call.i187.i = invoke noalias noundef nonnull dereferenceable(24) ptr @_Znwm(i64 noundef 24) #17
          to label %call.i.noexc186.i unwind label %lpad41.i

call.i.noexc186.i:                                ; preds = %invoke.cont42.i
  %222 = load i32, ptr %prop36.i, align 8, !tbaa !157
  store i32 %222, ptr %call.i187.i, align 8, !tbaa !157
  %Value.i.i177.i = getelementptr inbounds %struct.CProp, ptr %call.i187.i, i64 0, i32 1
  invoke void @_ZN8NWindows4NCOM12CPropVariantC1ERKS1_(ptr noundef nonnull align 8 dereferenceable(16) %Value.i.i177.i, ptr noundef nonnull align 8 dereferenceable(16) %Value.i175.i)
          to label %invoke.cont.i184.i unwind label %lpad.i185.i

invoke.cont.i184.i:                               ; preds = %call.i.noexc186.i
  invoke void @_ZN17CBaseRecordVector18ReserveOnePositionEv(ptr noundef nonnull align 8 dereferenceable(32) %Props.i.i.i)
          to label %_ZN13CObjectVectorI5CPropE3AddERKS0_.exit189.i unwind label %lpad41.i

lpad.i185.i:                                      ; preds = %call.i.noexc186.i
  %223 = landingpad { ptr, i32 }
          cleanup
  call void @_ZdlPv(ptr noundef nonnull %call.i187.i) #18
  br label %lpad41.body.i

_ZN13CObjectVectorI5CPropE3AddERKS0_.exit189.i:   ; preds = %invoke.cont.i184.i
  %224 = load ptr, ptr %_items.i.i132.i, align 8, !tbaa !36
  %225 = load i32, ptr %_size.i.i.i, align 4, !tbaa !33
  %idxprom.i.i181.i = sext i32 %225 to i64
  %arrayidx.i.i182.i = getelementptr inbounds ptr, ptr %224, i64 %idxprom.i.i181.i
  store ptr %call.i187.i, ptr %arrayidx.i.i182.i, align 8, !tbaa !37
  %inc.i.i183.i = add nsw i32 %225, 1
  store i32 %inc.i.i183.i, ptr %_size.i.i.i, align 4, !tbaa !33
  %call.i.i191.i = invoke noundef i32 @_ZN8NWindows4NCOM12CPropVariant5ClearEv(ptr noundef nonnull align 8 dereferenceable(16) %Value.i175.i)
          to label %_ZN5CPropD2Ev.exit193.i unwind label %terminate.lpad.i.i192.i

terminate.lpad.i.i192.i:                          ; preds = %_ZN13CObjectVectorI5CPropE3AddERKS0_.exit189.i
  %226 = landingpad { ptr, i32 }
          catch ptr null
  %227 = extractvalue { ptr, i32 } %226, 0
  call void @__clang_call_terminate(ptr %227) #19
  unreachable

_ZN5CPropD2Ev.exit193.i:                          ; preds = %_ZN13CObjectVectorI5CPropE3AddERKS0_.exit189.i
  call void @llvm.lifetime.end.p0(i64 24, ptr nonnull %prop36.i) #16
  call void @llvm.lifetime.start.p0(i64 24, ptr nonnull %prop49.i) #16
  store i16 0, ptr %Value.i194.i, align 8, !tbaa !153
  store i16 0, ptr %wReserved1.i.i195.i, align 2, !tbaa !156
  store i32 13, ptr %prop49.i, align 8, !tbaa !157
  %call56.i = invoke noundef nonnull align 8 dereferenceable(16) ptr @_ZN8NWindows4NCOM12CPropVariantaSEj(ptr noundef nonnull align 8 dereferenceable(16) %Value.i194.i, i32 noundef 1)
          to label %invoke.cont55.i unwind label %lpad54.i

invoke.cont55.i:                                  ; preds = %_ZN5CPropD2Ev.exit193.i
  %call.i206.i = invoke noalias noundef nonnull dereferenceable(24) ptr @_Znwm(i64 noundef 24) #17
          to label %call.i.noexc205.i unwind label %lpad54.i

call.i.noexc205.i:                                ; preds = %invoke.cont55.i
  %228 = load i32, ptr %prop49.i, align 8, !tbaa !157
  store i32 %228, ptr %call.i206.i, align 8, !tbaa !157
  %Value.i.i196.i = getelementptr inbounds %struct.CProp, ptr %call.i206.i, i64 0, i32 1
  invoke void @_ZN8NWindows4NCOM12CPropVariantC1ERKS1_(ptr noundef nonnull align 8 dereferenceable(16) %Value.i.i196.i, ptr noundef nonnull align 8 dereferenceable(16) %Value.i194.i)
          to label %invoke.cont.i203.i unwind label %lpad.i204.i

invoke.cont.i203.i:                               ; preds = %call.i.noexc205.i
  invoke void @_ZN17CBaseRecordVector18ReserveOnePositionEv(ptr noundef nonnull align 8 dereferenceable(32) %Props.i.i.i)
          to label %_ZN13CObjectVectorI5CPropE3AddERKS0_.exit208.i unwind label %lpad54.i

lpad.i204.i:                                      ; preds = %call.i.noexc205.i
  %229 = landingpad { ptr, i32 }
          cleanup
  call void @_ZdlPv(ptr noundef nonnull %call.i206.i) #18
  br label %lpad54.body.i

_ZN13CObjectVectorI5CPropE3AddERKS0_.exit208.i:   ; preds = %invoke.cont.i203.i
  %230 = load ptr, ptr %_items.i.i132.i, align 8, !tbaa !36
  %231 = load i32, ptr %_size.i.i.i, align 4, !tbaa !33
  %idxprom.i.i200.i = sext i32 %231 to i64
  %arrayidx.i.i201.i = getelementptr inbounds ptr, ptr %230, i64 %idxprom.i.i200.i
  store ptr %call.i206.i, ptr %arrayidx.i.i201.i, align 8, !tbaa !37
  %inc.i.i202.i = add nsw i32 %231, 1
  store i32 %inc.i.i202.i, ptr %_size.i.i.i, align 4, !tbaa !33
  %call.i.i210.i = invoke noundef i32 @_ZN8NWindows4NCOM12CPropVariant5ClearEv(ptr noundef nonnull align 8 dereferenceable(16) %Value.i194.i)
          to label %_ZN5CPropD2Ev.exit212.i unwind label %terminate.lpad.i.i211.i

terminate.lpad.i.i211.i:                          ; preds = %_ZN13CObjectVectorI5CPropE3AddERKS0_.exit208.i
  %232 = landingpad { ptr, i32 }
          catch ptr null
  %233 = extractvalue { ptr, i32 } %232, 0
  call void @__clang_call_terminate(ptr %233) #19
  unreachable

_ZN5CPropD2Ev.exit212.i:                          ; preds = %_ZN13CObjectVectorI5CPropE3AddERKS0_.exit208.i
  call void @llvm.lifetime.end.p0(i64 24, ptr nonnull %prop49.i) #16
  %call.i228.i = invoke noalias noundef nonnull dereferenceable(48) ptr @_Znwm(i64 noundef 48) #17
          to label %call.i.noexc227.i unwind label %lpad.i1600

call.i.noexc227.i:                                ; preds = %_ZN5CPropD2Ev.exit212.i
  %234 = load i64, ptr %methodFull.i, align 8, !tbaa !147
  store i64 %234, ptr %call.i228.i, align 8, !tbaa !147
  %Props.i.i.i213.i = getelementptr inbounds %struct.CMethod, ptr %call.i228.i, i64 0, i32 1
  %_capacity.i.i.i.i.i.i215.i = getelementptr inbounds %struct.CMethod, ptr %call.i228.i, i64 0, i32 1, i32 0, i32 0, i32 1
  %_itemSize.i.i.i.i.i.i216.i = getelementptr inbounds %struct.CMethod, ptr %call.i228.i, i64 0, i32 1, i32 0, i32 0, i32 4
  call void @llvm.memset.p0.i64(ptr noundef nonnull align 8 dereferenceable(16) %_capacity.i.i.i.i.i.i215.i, i8 0, i64 16, i1 false)
  store i64 8, ptr %_itemSize.i.i.i.i.i.i216.i, align 8, !tbaa !95
  store ptr getelementptr inbounds ({ [5 x ptr] }, ptr @_ZTV13CObjectVectorI5CPropE, i64 0, inrange i32 0, i64 2), ptr %Props.i.i.i213.i, align 8, !tbaa !28
  %call.i.i.i.i217.i = invoke noundef nonnull align 8 dereferenceable(32) ptr @_ZN13CObjectVectorI5CPropEaSERKS1_(ptr noundef nonnull align 8 dereferenceable(32) %Props.i.i.i213.i, ptr noundef nonnull align 8 dereferenceable(32) %Props.i.i.i)
          to label %_ZN8NArchive3N7z11CMethodFullC2ERKS1_.exit.i226.i unwind label %lpad.i.i.i.i218.i

lpad.i.i.i.i218.i:                                ; preds = %call.i.noexc227.i
  %235 = landingpad { ptr, i32 }
          cleanup
  call void @_ZN17CBaseRecordVectorD2Ev(ptr noundef nonnull align 8 dereferenceable(32) %Props.i.i.i213.i) #16
  call void @_ZdlPv(ptr noundef nonnull %call.i228.i) #18
  br label %ehcleanup84.i

_ZN8NArchive3N7z11CMethodFullC2ERKS1_.exit.i226.i: ; preds = %call.i.noexc227.i
  %NumInStreams.i.i219.i = getelementptr inbounds %"struct.NArchive::N7z::CMethodFull", ptr %call.i228.i, i64 0, i32 1
  %236 = load i64, ptr %NumInStreams.i.i, align 8
  store i64 %236, ptr %NumInStreams.i.i219.i, align 8
  invoke void @_ZN17CBaseRecordVector18ReserveOnePositionEv(ptr noundef nonnull align 8 dereferenceable(32) %method350)
          to label %_ZN13CObjectVectorIN8NArchive3N7z11CMethodFullEE3AddERKS2_.exit.i unwind label %lpad.i1600

_ZN13CObjectVectorIN8NArchive3N7z11CMethodFullEE3AddERKS2_.exit.i: ; preds = %_ZN8NArchive3N7z11CMethodFullC2ERKS1_.exit.i226.i
  %237 = load ptr, ptr %_items.i.i.i1591, align 8, !tbaa !36
  %238 = load i32, ptr %_size.i.i222.i, align 4, !tbaa !33
  %idxprom.i.i223.i = sext i32 %238 to i64
  %arrayidx.i.i224.i = getelementptr inbounds ptr, ptr %237, i64 %idxprom.i.i223.i
  store ptr %call.i228.i, ptr %arrayidx.i.i224.i, align 8, !tbaa !37
  %inc.i.i225.i = add nsw i32 %238, 1
  store i32 %inc.i.i225.i, ptr %_size.i.i222.i, align 4, !tbaa !33
  %call.i246.i = invoke noalias noundef nonnull dereferenceable(48) ptr @_Znwm(i64 noundef 48) #17
          to label %call.i.noexc245.i unwind label %lpad.i1600

call.i.noexc245.i:                                ; preds = %_ZN13CObjectVectorIN8NArchive3N7z11CMethodFullEE3AddERKS2_.exit.i
  %239 = load i64, ptr %methodFull.i, align 8, !tbaa !147
  store i64 %239, ptr %call.i246.i, align 8, !tbaa !147
  %Props.i.i.i231.i = getelementptr inbounds %struct.CMethod, ptr %call.i246.i, i64 0, i32 1
  %_capacity.i.i.i.i.i.i233.i = getelementptr inbounds %struct.CMethod, ptr %call.i246.i, i64 0, i32 1, i32 0, i32 0, i32 1
  %_itemSize.i.i.i.i.i.i234.i = getelementptr inbounds %struct.CMethod, ptr %call.i246.i, i64 0, i32 1, i32 0, i32 0, i32 4
  call void @llvm.memset.p0.i64(ptr noundef nonnull align 8 dereferenceable(16) %_capacity.i.i.i.i.i.i233.i, i8 0, i64 16, i1 false)
  store i64 8, ptr %_itemSize.i.i.i.i.i.i234.i, align 8, !tbaa !95
  store ptr getelementptr inbounds ({ [5 x ptr] }, ptr @_ZTV13CObjectVectorI5CPropE, i64 0, inrange i32 0, i64 2), ptr %Props.i.i.i231.i, align 8, !tbaa !28
  %call.i.i.i.i235.i = invoke noundef nonnull align 8 dereferenceable(32) ptr @_ZN13CObjectVectorI5CPropEaSERKS1_(ptr noundef nonnull align 8 dereferenceable(32) %Props.i.i.i231.i, ptr noundef nonnull align 8 dereferenceable(32) %Props.i.i.i)
          to label %_ZN8NArchive3N7z11CMethodFullC2ERKS1_.exit.i244.i unwind label %lpad.i.i.i.i236.i

lpad.i.i.i.i236.i:                                ; preds = %call.i.noexc245.i
  %240 = landingpad { ptr, i32 }
          cleanup
  call void @_ZN17CBaseRecordVectorD2Ev(ptr noundef nonnull align 8 dereferenceable(32) %Props.i.i.i231.i) #16
  call void @_ZdlPv(ptr noundef nonnull %call.i246.i) #18
  br label %ehcleanup84.i

_ZN8NArchive3N7z11CMethodFullC2ERKS1_.exit.i244.i: ; preds = %call.i.noexc245.i
  %NumInStreams.i.i237.i = getelementptr inbounds %"struct.NArchive::N7z::CMethodFull", ptr %call.i246.i, i64 0, i32 1
  %241 = load i64, ptr %NumInStreams.i.i, align 8
  store i64 %241, ptr %NumInStreams.i.i237.i, align 8
  invoke void @_ZN17CBaseRecordVector18ReserveOnePositionEv(ptr noundef nonnull align 8 dereferenceable(32) %method350)
          to label %_ZN13CObjectVectorIN8NArchive3N7z11CMethodFullEE3AddERKS2_.exit249.i unwind label %lpad.i1600

_ZN13CObjectVectorIN8NArchive3N7z11CMethodFullEE3AddERKS2_.exit249.i: ; preds = %_ZN8NArchive3N7z11CMethodFullC2ERKS1_.exit.i244.i
  %242 = load ptr, ptr %_items.i.i.i1591, align 8, !tbaa !36
  %243 = load i32, ptr %_size.i.i222.i, align 4, !tbaa !33
  %idxprom.i.i241.i = sext i32 %243 to i64
  %arrayidx.i.i242.i = getelementptr inbounds ptr, ptr %242, i64 %idxprom.i.i241.i
  store ptr %call.i246.i, ptr %arrayidx.i.i242.i, align 8, !tbaa !37
  %inc.i.i243.i = add nsw i32 %243, 1
  store i32 %inc.i.i243.i, ptr %_size.i.i222.i, align 4, !tbaa !33
  invoke void @_ZN17CBaseRecordVector18ReserveOnePositionEv(ptr noundef nonnull align 8 dereferenceable(32) %Binds.i)
          to label %_ZN13CRecordVectorIN8NArchive3N7z5CBindEE3AddES2_.exit.i unwind label %lpad68.i

_ZN13CRecordVectorIN8NArchive3N7z5CBindEE3AddES2_.exit.i: ; preds = %_ZN13CObjectVectorIN8NArchive3N7z11CMethodFullEE3AddERKS2_.exit249.i
  %244 = load ptr, ptr %_items.i.i1596, align 8, !tbaa !36
  %245 = load i32, ptr %_size.i.i1597, align 4, !tbaa !33
  %idxprom.i.i1598 = sext i32 %245 to i64
  %arrayidx.i.i1599 = getelementptr inbounds %"struct.NArchive::N7z::CBind", ptr %244, i64 %idxprom.i.i1598
  store i64 1, ptr %arrayidx.i.i1599, align 4, !tbaa.struct !160
  %item.sroa.2.0.arrayidx.sroa_idx.i.i = getelementptr inbounds i8, ptr %arrayidx.i.i1599, i64 8
  store i64 0, ptr %item.sroa.2.0.arrayidx.sroa_idx.i.i, align 4, !tbaa.struct !161
  %246 = load i32, ptr %_size.i.i1597, align 4, !tbaa !33
  %inc.i.i = add nsw i32 %246, 1
  store i32 %inc.i.i, ptr %_size.i.i1597, align 4, !tbaa !33
  invoke void @_ZN17CBaseRecordVector18ReserveOnePositionEv(ptr noundef nonnull align 8 dereferenceable(32) %Binds.i)
          to label %_ZN13CRecordVectorIN8NArchive3N7z5CBindEE3AddES2_.exit256.i unwind label %lpad68.i

_ZN13CRecordVectorIN8NArchive3N7z5CBindEE3AddES2_.exit256.i: ; preds = %_ZN13CRecordVectorIN8NArchive3N7z5CBindEE3AddES2_.exit.i
  %247 = load ptr, ptr %_items.i.i1596, align 8, !tbaa !36
  %248 = load i32, ptr %_size.i.i1597, align 4, !tbaa !33
  %idxprom.i252.i = sext i32 %248 to i64
  %arrayidx.i253.i = getelementptr inbounds %"struct.NArchive::N7z::CBind", ptr %247, i64 %idxprom.i252.i
  store i64 2, ptr %arrayidx.i253.i, align 4, !tbaa.struct !160
  %item.sroa.2.0.arrayidx.sroa_idx.i254.i = getelementptr inbounds i8, ptr %arrayidx.i253.i, i64 8
  store i64 4294967296, ptr %item.sroa.2.0.arrayidx.sroa_idx.i254.i, align 4, !tbaa.struct !161
  %249 = load i32, ptr %_size.i.i1597, align 4, !tbaa !33
  %inc.i255.i = add nsw i32 %249, 1
  store i32 %inc.i255.i, ptr %_size.i.i1597, align 4, !tbaa !33
  invoke void @_ZN17CBaseRecordVector18ReserveOnePositionEv(ptr noundef nonnull align 8 dereferenceable(32) %Binds.i)
          to label %_ZN13CRecordVectorIN8NArchive3N7z5CBindEE3AddES2_.exit263.i unwind label %lpad68.i

_ZN13CRecordVectorIN8NArchive3N7z5CBindEE3AddES2_.exit263.i: ; preds = %_ZN13CRecordVectorIN8NArchive3N7z5CBindEE3AddES2_.exit256.i
  %250 = load ptr, ptr %_items.i.i1596, align 8, !tbaa !36
  %251 = load i32, ptr %_size.i.i1597, align 4, !tbaa !33
  %idxprom.i259.i = sext i32 %251 to i64
  %arrayidx.i260.i = getelementptr inbounds %"struct.NArchive::N7z::CBind", ptr %250, i64 %idxprom.i259.i
  store i64 3, ptr %arrayidx.i260.i, align 4, !tbaa.struct !160
  %item.sroa.2.0.arrayidx.sroa_idx.i261.i = getelementptr inbounds i8, ptr %arrayidx.i260.i, i64 8
  store i64 8589934592, ptr %item.sroa.2.0.arrayidx.sroa_idx.i261.i, align 4, !tbaa.struct !161
  %252 = load i32, ptr %_size.i.i1597, align 4, !tbaa !33
  %inc.i262.i = add nsw i32 %252, 1
  store i32 %inc.i262.i, ptr %_size.i.i1597, align 4, !tbaa !33
  store ptr getelementptr inbounds ({ [5 x ptr] }, ptr @_ZTV13CObjectVectorI5CPropE, i64 0, inrange i32 0, i64 2), ptr %Props.i.i.i, align 8, !tbaa !28
  invoke void @_ZN17CBaseRecordVector5ClearEv(ptr noundef nonnull align 8 dereferenceable(32) %Props.i.i.i)
          to label %_ZN7CMethodD2Ev.exit.i unwind label %terminate.lpad.i.i264.i

terminate.lpad.i.i264.i:                          ; preds = %_ZN13CRecordVectorIN8NArchive3N7z5CBindEE3AddES2_.exit263.i
  %253 = landingpad { ptr, i32 }
          catch ptr null
  %254 = extractvalue { ptr, i32 } %253, 0
  call void @__clang_call_terminate(ptr %254) #19
  unreachable

_ZN7CMethodD2Ev.exit.i:                           ; preds = %_ZN13CRecordVectorIN8NArchive3N7z5CBindEE3AddES2_.exit263.i
  call void @_ZN17CBaseRecordVectorD2Ev(ptr noundef nonnull align 8 dereferenceable(32) %Props.i.i.i) #16
  call void @llvm.lifetime.end.p0(i64 48, ptr nonnull %methodFull.i) #16
  br label %if.end364

lpad.i1600:                                       ; preds = %_ZN8NArchive3N7z11CMethodFullC2ERKS1_.exit.i244.i, %_ZN13CObjectVectorIN8NArchive3N7z11CMethodFullEE3AddERKS2_.exit.i, %_ZN8NArchive3N7z11CMethodFullC2ERKS1_.exit.i226.i, %_ZN5CPropD2Ev.exit212.i, %_ZN8NArchive3N7z11CMethodFullC2ERKS1_.exit.i.i, %if.then.i1590
  %255 = landingpad { ptr, i32 }
          cleanup
  br label %ehcleanup84.i

lpad5.i:                                          ; preds = %invoke.cont.i.i, %invoke.cont6.i1593, %_ZN13CObjectVectorIN8NArchive3N7z11CMethodFullEE6InsertEiRKS2_.exit.i
  %256 = landingpad { ptr, i32 }
          cleanup
  br label %lpad5.body.i

lpad5.body.i:                                     ; preds = %lpad5.i, %lpad.i.i
  %eh.lpad-body135.i = phi { ptr, i32 } [ %256, %lpad5.i ], [ %205, %lpad.i.i ]
  %call.i.i266.i = invoke noundef i32 @_ZN8NWindows4NCOM12CPropVariant5ClearEv(ptr noundef nonnull align 8 dereferenceable(16) %Value.i.i)
          to label %ehcleanup.i1601 unwind label %terminate.lpad.i.i267.i

terminate.lpad.i.i267.i:                          ; preds = %lpad5.body.i
  %257 = landingpad { ptr, i32 }
          catch ptr null
  %258 = extractvalue { ptr, i32 } %257, 0
  call void @__clang_call_terminate(ptr %258) #19
  unreachable

ehcleanup.i1601:                                  ; preds = %lpad5.body.i
  call void @llvm.lifetime.end.p0(i64 24, ptr nonnull %prop.i) #16
  br label %ehcleanup84.i

lpad15.i:                                         ; preds = %invoke.cont.i146.i, %invoke.cont16.i, %_ZN5CPropD2Ev.exit.i
  %259 = landingpad { ptr, i32 }
          cleanup
  br label %lpad15.body.i

lpad15.body.i:                                    ; preds = %lpad15.i, %lpad.i147.i
  %eh.lpad-body150.i = phi { ptr, i32 } [ %259, %lpad15.i ], [ %211, %lpad.i147.i ]
  %call.i.i270.i = invoke noundef i32 @_ZN8NWindows4NCOM12CPropVariant5ClearEv(ptr noundef nonnull align 8 dereferenceable(16) %Value.i137.i)
          to label %ehcleanup22.i unwind label %terminate.lpad.i.i271.i

terminate.lpad.i.i271.i:                          ; preds = %lpad15.body.i
  %260 = landingpad { ptr, i32 }
          catch ptr null
  %261 = extractvalue { ptr, i32 } %260, 0
  call void @__clang_call_terminate(ptr %261) #19
  unreachable

ehcleanup22.i:                                    ; preds = %lpad15.body.i
  call void @llvm.lifetime.end.p0(i64 24, ptr nonnull %prop10.i) #16
  br label %ehcleanup84.i

lpad28.i:                                         ; preds = %invoke.cont.i165.i, %invoke.cont29.i, %_ZN5CPropD2Ev.exit155.i
  %262 = landingpad { ptr, i32 }
          cleanup
  br label %lpad28.body.i

lpad28.body.i:                                    ; preds = %lpad28.i, %lpad.i166.i
  %eh.lpad-body169.i = phi { ptr, i32 } [ %262, %lpad28.i ], [ %217, %lpad.i166.i ]
  %call.i.i274.i = invoke noundef i32 @_ZN8NWindows4NCOM12CPropVariant5ClearEv(ptr noundef nonnull align 8 dereferenceable(16) %Value.i156.i)
          to label %ehcleanup35.i unwind label %terminate.lpad.i.i275.i

terminate.lpad.i.i275.i:                          ; preds = %lpad28.body.i
  %263 = landingpad { ptr, i32 }
          catch ptr null
  %264 = extractvalue { ptr, i32 } %263, 0
  call void @__clang_call_terminate(ptr %264) #19
  unreachable

ehcleanup35.i:                                    ; preds = %lpad28.body.i
  call void @llvm.lifetime.end.p0(i64 24, ptr nonnull %prop23.i) #16
  br label %ehcleanup84.i

lpad41.i:                                         ; preds = %invoke.cont.i184.i, %invoke.cont42.i, %_ZN5CPropD2Ev.exit174.i
  %265 = landingpad { ptr, i32 }
          cleanup
  br label %lpad41.body.i

lpad41.body.i:                                    ; preds = %lpad41.i, %lpad.i185.i
  %eh.lpad-body188.i = phi { ptr, i32 } [ %265, %lpad41.i ], [ %223, %lpad.i185.i ]
  %call.i.i278.i = invoke noundef i32 @_ZN8NWindows4NCOM12CPropVariant5ClearEv(ptr noundef nonnull align 8 dereferenceable(16) %Value.i175.i)
          to label %ehcleanup48.i unwind label %terminate.lpad.i.i279.i

terminate.lpad.i.i279.i:                          ; preds = %lpad41.body.i
  %266 = landingpad { ptr, i32 }
          catch ptr null
  %267 = extractvalue { ptr, i32 } %266, 0
  call void @__clang_call_terminate(ptr %267) #19
  unreachable

ehcleanup48.i:                                    ; preds = %lpad41.body.i
  call void @llvm.lifetime.end.p0(i64 24, ptr nonnull %prop36.i) #16
  br label %ehcleanup84.i

lpad54.i:                                         ; preds = %invoke.cont.i203.i, %invoke.cont55.i, %_ZN5CPropD2Ev.exit193.i
  %268 = landingpad { ptr, i32 }
          cleanup
  br label %lpad54.body.i

lpad54.body.i:                                    ; preds = %lpad54.i, %lpad.i204.i
  %eh.lpad-body207.i = phi { ptr, i32 } [ %268, %lpad54.i ], [ %229, %lpad.i204.i ]
  %call.i.i282.i = invoke noundef i32 @_ZN8NWindows4NCOM12CPropVariant5ClearEv(ptr noundef nonnull align 8 dereferenceable(16) %Value.i194.i)
          to label %ehcleanup61.i unwind label %terminate.lpad.i.i283.i

terminate.lpad.i.i283.i:                          ; preds = %lpad54.body.i
  %269 = landingpad { ptr, i32 }
          catch ptr null
  %270 = extractvalue { ptr, i32 } %269, 0
  call void @__clang_call_terminate(ptr %270) #19
  unreachable

ehcleanup61.i:                                    ; preds = %lpad54.body.i
  call void @llvm.lifetime.end.p0(i64 24, ptr nonnull %prop49.i) #16
  br label %ehcleanup84.i

lpad68.i:                                         ; preds = %_ZN13CRecordVectorIN8NArchive3N7z5CBindEE3AddES2_.exit256.i, %_ZN13CRecordVectorIN8NArchive3N7z5CBindEE3AddES2_.exit.i, %_ZN13CObjectVectorIN8NArchive3N7z11CMethodFullEE3AddERKS2_.exit249.i
  %271 = landingpad { ptr, i32 }
          cleanup
  br label %ehcleanup84.i

ehcleanup84.i:                                    ; preds = %lpad68.i, %ehcleanup61.i, %ehcleanup48.i, %ehcleanup35.i, %ehcleanup22.i, %ehcleanup.i1601, %lpad.i1600, %lpad.i.i.i.i236.i, %lpad.i.i.i.i218.i, %lpad.i.i.i.i.i
  %.pn315.i = phi { ptr, i32 } [ %271, %lpad68.i ], [ %eh.lpad-body207.i, %ehcleanup61.i ], [ %eh.lpad-body188.i, %ehcleanup48.i ], [ %eh.lpad-body169.i, %ehcleanup35.i ], [ %eh.lpad-body150.i, %ehcleanup22.i ], [ %eh.lpad-body135.i, %ehcleanup.i1601 ], [ %201, %lpad.i.i.i.i.i ], [ %235, %lpad.i.i.i.i218.i ], [ %255, %lpad.i1600 ], [ %240, %lpad.i.i.i.i236.i ]
  call void @_ZN7CMethodD2Ev(ptr noundef nonnull align 8 dereferenceable(48) %methodFull.i) #16
  call void @llvm.lifetime.end.p0(i64 48, ptr nonnull %methodFull.i) #16
  br label %ehcleanup1031

if.else.i:                                        ; preds = %call.i.noexc1604
  call void @llvm.lifetime.start.p0(i64 48, ptr nonnull %methodFull86.i) #16
  call void @llvm.memset.p0.i64(ptr noundef nonnull align 8 dereferenceable(16) %_capacity.i.i.i.i.i286.i, i8 0, i64 16, i1 false)
  store i64 8, ptr %_itemSize.i.i.i.i.i287.i, align 8, !tbaa !95
  store ptr getelementptr inbounds ({ [5 x ptr] }, ptr @_ZTV13CObjectVectorI5CPropE, i64 0, inrange i32 0, i64 2), ptr %Props.i.i285.i, align 8, !tbaa !28
  store i64 50528515, ptr %methodFull86.i, align 8, !tbaa !147
  store i32 1, ptr %NumInStreams.i288.i, align 8, !tbaa !150
  store i32 1, ptr %NumOutStreams.i289.i, align 4, !tbaa !152
  %call.i301.i = invoke noalias noundef nonnull dereferenceable(48) ptr @_Znwm(i64 noundef 48) #17
          to label %call.i.noexc300.i unwind label %lpad87.i

call.i.noexc300.i:                                ; preds = %if.else.i
  store i64 50528515, ptr %call.i301.i, align 8, !tbaa !147
  %Props.i.i.i290.i = getelementptr inbounds %struct.CMethod, ptr %call.i301.i, i64 0, i32 1
  %_capacity.i.i.i.i.i.i292.i = getelementptr inbounds %struct.CMethod, ptr %call.i301.i, i64 0, i32 1, i32 0, i32 0, i32 1
  %_itemSize.i.i.i.i.i.i293.i = getelementptr inbounds %struct.CMethod, ptr %call.i301.i, i64 0, i32 1, i32 0, i32 0, i32 4
  call void @llvm.memset.p0.i64(ptr noundef nonnull align 8 dereferenceable(16) %_capacity.i.i.i.i.i.i292.i, i8 0, i64 16, i1 false)
  store i64 8, ptr %_itemSize.i.i.i.i.i.i293.i, align 8, !tbaa !95
  store ptr getelementptr inbounds ({ [5 x ptr] }, ptr @_ZTV13CObjectVectorI5CPropE, i64 0, inrange i32 0, i64 2), ptr %Props.i.i.i290.i, align 8, !tbaa !28
  %call.i.i.i.i294.i = invoke noundef nonnull align 8 dereferenceable(32) ptr @_ZN13CObjectVectorI5CPropEaSERKS1_(ptr noundef nonnull align 8 dereferenceable(32) %Props.i.i.i290.i, ptr noundef nonnull align 8 dereferenceable(32) %Props.i.i285.i)
          to label %_ZN8NArchive3N7z11CMethodFullC2ERKS1_.exit.i299.i unwind label %lpad.i.i.i.i295.i

lpad.i.i.i.i295.i:                                ; preds = %call.i.noexc300.i
  %272 = landingpad { ptr, i32 }
          cleanup
  call void @_ZN17CBaseRecordVectorD2Ev(ptr noundef nonnull align 8 dereferenceable(32) %Props.i.i.i290.i) #16
  call void @_ZdlPv(ptr noundef nonnull %call.i301.i) #18
  br label %ehcleanup102.i

_ZN8NArchive3N7z11CMethodFullC2ERKS1_.exit.i299.i: ; preds = %call.i.noexc300.i
  %NumInStreams.i.i296.i = getelementptr inbounds %"struct.NArchive::N7z::CMethodFull", ptr %call.i301.i, i64 0, i32 1
  %273 = load i64, ptr %NumInStreams.i288.i, align 8
  store i64 %273, ptr %NumInStreams.i.i296.i, align 8
  invoke void @_ZN17CBaseRecordVector13InsertOneItemEi(ptr noundef nonnull align 8 dereferenceable(32) %method350, i32 noundef 0)
          to label %_ZN13CObjectVectorIN8NArchive3N7z11CMethodFullEE6InsertEiRKS2_.exit303.i unwind label %lpad87.i

_ZN13CObjectVectorIN8NArchive3N7z11CMethodFullEE6InsertEiRKS2_.exit303.i: ; preds = %_ZN8NArchive3N7z11CMethodFullC2ERKS1_.exit.i299.i
  %274 = load ptr, ptr %_items.i.i.i1591, align 8, !tbaa !36
  store ptr %call.i301.i, ptr %274, align 8, !tbaa !37
  invoke void @_ZN17CBaseRecordVector18ReserveOnePositionEv(ptr noundef nonnull align 8 dereferenceable(32) %Binds.i)
          to label %_ZN13CRecordVectorIN8NArchive3N7z5CBindEE3AddES2_.exit310.i unwind label %lpad98.i

_ZN13CRecordVectorIN8NArchive3N7z5CBindEE3AddES2_.exit310.i: ; preds = %_ZN13CObjectVectorIN8NArchive3N7z11CMethodFullEE6InsertEiRKS2_.exit303.i
  %275 = load ptr, ptr %_items.i.i1596, align 8, !tbaa !36
  %276 = load i32, ptr %_size.i.i1597, align 4, !tbaa !33
  %idxprom.i306.i = sext i32 %276 to i64
  %arrayidx.i307.i = getelementptr inbounds %"struct.NArchive::N7z::CBind", ptr %275, i64 %idxprom.i306.i
  store i64 1, ptr %arrayidx.i307.i, align 4, !tbaa.struct !160
  %item.sroa.2.0.arrayidx.sroa_idx.i308.i = getelementptr inbounds i8, ptr %arrayidx.i307.i, i64 8
  store i64 0, ptr %item.sroa.2.0.arrayidx.sroa_idx.i308.i, align 4, !tbaa.struct !161
  %277 = load i32, ptr %_size.i.i1597, align 4, !tbaa !33
  %inc.i309.i = add nsw i32 %277, 1
  store i32 %inc.i309.i, ptr %_size.i.i1597, align 4, !tbaa !33
  store ptr getelementptr inbounds ({ [5 x ptr] }, ptr @_ZTV13CObjectVectorI5CPropE, i64 0, inrange i32 0, i64 2), ptr %Props.i.i285.i, align 8, !tbaa !28
  invoke void @_ZN17CBaseRecordVector5ClearEv(ptr noundef nonnull align 8 dereferenceable(32) %Props.i.i285.i)
          to label %_ZN7CMethodD2Ev.exit313.i unwind label %terminate.lpad.i.i312.i

terminate.lpad.i.i312.i:                          ; preds = %_ZN13CRecordVectorIN8NArchive3N7z5CBindEE3AddES2_.exit310.i
  %278 = landingpad { ptr, i32 }
          catch ptr null
  %279 = extractvalue { ptr, i32 } %278, 0
  call void @__clang_call_terminate(ptr %279) #19
  unreachable

_ZN7CMethodD2Ev.exit313.i:                        ; preds = %_ZN13CRecordVectorIN8NArchive3N7z5CBindEE3AddES2_.exit310.i
  call void @_ZN17CBaseRecordVectorD2Ev(ptr noundef nonnull align 8 dereferenceable(32) %Props.i.i285.i) #16
  call void @llvm.lifetime.end.p0(i64 48, ptr nonnull %methodFull86.i) #16
  br label %if.end364

lpad87.i:                                         ; preds = %_ZN8NArchive3N7z11CMethodFullC2ERKS1_.exit.i299.i, %if.else.i
  %280 = landingpad { ptr, i32 }
          cleanup
  br label %ehcleanup102.i

lpad98.i:                                         ; preds = %_ZN13CObjectVectorIN8NArchive3N7z11CMethodFullEE6InsertEiRKS2_.exit303.i
  %281 = landingpad { ptr, i32 }
          cleanup
  br label %ehcleanup102.i

ehcleanup102.i:                                   ; preds = %lpad98.i, %lpad87.i, %lpad.i.i.i.i295.i
  %.pn.i1602 = phi { ptr, i32 } [ %281, %lpad98.i ], [ %280, %lpad87.i ], [ %272, %lpad.i.i.i.i295.i ]
  call void @_ZN7CMethodD2Ev(ptr noundef nonnull align 8 dereferenceable(48) %methodFull86.i) #16
  call void @llvm.lifetime.end.p0(i64 48, ptr nonnull %methodFull86.i) #16
  br label %ehcleanup1031

lpad353:                                          ; preds = %if.end.i.i1618, %if.then356, %if.else360
  %282 = landingpad { ptr, i32 }
          cleanup
  br label %ehcleanup1031

if.else360:                                       ; preds = %_ZN8NArchive3N7z22CCompressionMethodModeC2Ev.exit
  %call363 = invoke noundef nonnull align 8 dereferenceable(88) ptr @_ZN8NArchive3N7z22CCompressionMethodModeaSERKS1_(ptr noundef nonnull align 8 dereferenceable(88) %method350, ptr noundef nonnull align 8 dereferenceable(88) %199)
          to label %if.end364 unwind label %lpad353

if.end364:                                        ; preds = %_ZN7CMethodD2Ev.exit313.i, %_ZN7CMethodD2Ev.exit.i, %if.else360
  %cmp.i1608.not = icmp ult i64 %indvars.iv3145, 2
  br i1 %cmp.i1608.not, label %if.else380, label %if.then367

if.then367:                                       ; preds = %if.end364
  %283 = load i8, ptr %PasswordIsDefined.i, align 4, !tbaa !130, !range !42, !noundef !43
  %tobool369.not = icmp eq i8 %283, 0
  br i1 %tobool369.not, label %if.then370, label %if.end384

if.then370:                                       ; preds = %if.then367
  br i1 %brmerge, label %if.end377, label %if.end.i1615

if.end.i1615:                                     ; preds = %if.then370
  store i32 0, ptr %_length.i.i1610, align 8, !tbaa !5
  %284 = load ptr, ptr %Password.i1585, align 8, !tbaa !82
  store i32 0, ptr %284, align 4, !tbaa !11
  %285 = load i32, ptr %_length.i1611, align 8, !tbaa !5
  %add.i.i1612 = add nsw i32 %285, 1
  %286 = load i32, ptr %_capacity.i.i1586, align 4, !tbaa !136
  %cmp.i.i1614 = icmp eq i32 %add.i.i1612, %286
  br i1 %cmp.i.i1614, label %_ZN11CStringBaseIwE11SetCapacityEi.exit.i1624, label %if.end.i.i1618

if.end.i.i1618:                                   ; preds = %if.end.i1615
  %conv.i.i1616 = zext i32 %add.i.i1612 to i64
  %287 = icmp slt i32 %285, -1
  %288 = shl nuw nsw i64 %conv.i.i1616, 2
  %289 = select i1 %287, i64 -1, i64 %288
  %call.i.i1633 = invoke noalias noundef nonnull ptr @_Znam(i64 noundef %289) #17
          to label %call.i.i.noexc1632 unwind label %lpad353

call.i.i.noexc1632:                               ; preds = %if.end.i.i1618
  %cmp3.i.i1617 = icmp sgt i32 %286, 0
  br i1 %cmp3.i.i1617, label %delete.notnull.i.i1620, label %if.end9.i.i1623

delete.notnull.i.i1620:                           ; preds = %call.i.i.noexc1632
  call void @_ZdaPv(ptr noundef nonnull %284) #18
  %.pre.i1619 = load i32, ptr %_length.i.i1610, align 8, !tbaa !5
  %290 = sext i32 %.pre.i1619 to i64
  br label %if.end9.i.i1623

if.end9.i.i1623:                                  ; preds = %delete.notnull.i.i1620, %call.i.i.noexc1632
  %idxprom13.i.i1621 = phi i64 [ %290, %delete.notnull.i.i1620 ], [ 0, %call.i.i.noexc1632 ]
  store ptr %call.i.i1633, ptr %Password.i1585, align 8, !tbaa !82
  %arrayidx14.i.i1622 = getelementptr inbounds i32, ptr %call.i.i1633, i64 %idxprom13.i.i1621
  store i32 0, ptr %arrayidx14.i.i1622, align 4, !tbaa !11
  store i32 %add.i.i1612, ptr %_capacity.i.i1586, align 4, !tbaa !136
  br label %_ZN11CStringBaseIwE11SetCapacityEi.exit.i1624

_ZN11CStringBaseIwE11SetCapacityEi.exit.i1624:    ; preds = %if.end9.i.i1623, %if.end.i1615
  %291 = phi ptr [ %284, %if.end.i1615 ], [ %call.i.i1633, %if.end9.i.i1623 ]
  %292 = load ptr, ptr %Password373, align 8, !tbaa !82
  br label %while.cond.i.i1630

while.cond.i.i1630:                               ; preds = %while.cond.i.i1630, %_ZN11CStringBaseIwE11SetCapacityEi.exit.i1624
  %src.addr.0.i.i1625 = phi ptr [ %292, %_ZN11CStringBaseIwE11SetCapacityEi.exit.i1624 ], [ %incdec.ptr.i.i1627, %while.cond.i.i1630 ]
  %dest.addr.0.i.i1626 = phi ptr [ %291, %_ZN11CStringBaseIwE11SetCapacityEi.exit.i1624 ], [ %incdec.ptr1.i.i1628, %while.cond.i.i1630 ]
  %incdec.ptr.i.i1627 = getelementptr inbounds i32, ptr %src.addr.0.i.i1625, i64 1
  %293 = load i32, ptr %src.addr.0.i.i1625, align 4, !tbaa !11
  %incdec.ptr1.i.i1628 = getelementptr inbounds i32, ptr %dest.addr.0.i.i1626, i64 1
  store i32 %293, ptr %dest.addr.0.i.i1626, align 4, !tbaa !11
  %cmp.not.i.i1629 = icmp eq i32 %293, 0
  br i1 %cmp.not.i.i1629, label %_Z12MyStringCopyIwEPT_S1_PKS0_.exit.i1631, label %while.cond.i.i1630, !llvm.loop !137

_Z12MyStringCopyIwEPT_S1_PKS0_.exit.i1631:        ; preds = %while.cond.i.i1630
  %294 = load i32, ptr %_length.i1611, align 8, !tbaa !5
  store i32 %294, ptr %_length.i.i1610, align 8, !tbaa !5
  br label %if.end377

if.end377:                                        ; preds = %if.then370, %_Z12MyStringCopyIwEPT_S1_PKS0_.exit.i1631
  store i8 1, ptr %PasswordIsDefined.i, align 4, !tbaa !130
  br label %if.end384

if.else380:                                       ; preds = %if.end364
  store i8 0, ptr %PasswordIsDefined.i, align 4, !tbaa !130
  store i32 0, ptr %_length.i.i1610, align 8, !tbaa !5
  %295 = load ptr, ptr %Password.i1585, align 8, !tbaa !82
  store i32 0, ptr %295, align 4, !tbaa !11
  br label %if.end384

if.end384:                                        ; preds = %if.then367, %if.end377, %if.else380
  call void @llvm.lifetime.start.p0(i64 440, ptr nonnull %encoder) #16
  invoke void @_ZN8NArchive3N7z8CEncoderC1ERKNS0_22CCompressionMethodModeE(ptr noundef nonnull align 8 dereferenceable(433) %encoder, ptr noundef nonnull align 8 dereferenceable(88) %method350)
          to label %for.cond387.preheader unwind label %lpad385

for.cond387.preheader:                            ; preds = %if.end384
  %296 = load i32, ptr %_size.i1531, align 4, !tbaa !33
  %cmp3912789 = icmp slt i32 %folderRefIndex.02844, %296
  br i1 %cmp3912789, label %for.body392.preheader, label %for.end749

for.body392.preheader:                            ; preds = %for.cond387.preheader
  %297 = sext i32 %folderRefIndex.02844 to i64
  br label %for.body392

for.body392:                                      ; preds = %for.body392.preheader, %for.inc747
  %indvars.iv3108 = phi i64 [ %297, %for.body392.preheader ], [ %indvars.iv.next3109, %for.inc747 ]
  %retval.102791 = phi i32 [ %retval.92845, %for.body392.preheader ], [ %retval.19, %for.inc747 ]
  %298 = load ptr, ptr %_items.i1637, align 8, !tbaa !36
  %Group397 = getelementptr inbounds %"struct.NArchive::N7z::CFolderRepack", ptr %298, i64 %indvars.iv3108, i32 1
  %299 = load i32, ptr %Group397, align 4, !tbaa !162
  %300 = zext i32 %299 to i64
  %cmp398.not = icmp eq i64 %indvars.iv3145, %300
  br i1 %cmp398.not, label %if.end400, label %for.end749.loopexit

lpad385:                                          ; preds = %if.end384
  %301 = landingpad { ptr, i32 }
          cleanup
  br label %ehcleanup1029

if.end400:                                        ; preds = %for.body392
  %arrayidx.i1639 = getelementptr inbounds %"struct.NArchive::N7z::CFolderRepack", ptr %298, i64 %indvars.iv3108
  %302 = load i32, ptr %arrayidx.i1639, align 4, !tbaa !164
  %NumCopyFiles402 = getelementptr inbounds %"struct.NArchive::N7z::CFolderRepack", ptr %298, i64 %indvars.iv3108, i32 2
  %303 = load i32, ptr %NumCopyFiles402, align 4, !tbaa !165
  %304 = load ptr, ptr %_items.i1640, align 8, !tbaa !36
  %idxprom.i1641 = sext i32 %302 to i64
  %arrayidx.i1642 = getelementptr inbounds i32, ptr %304, i64 %idxprom.i1641
  %305 = load i32, ptr %arrayidx.i1642, align 4, !tbaa !52
  %cmp407 = icmp eq i32 %303, %305
  br i1 %cmp407, label %if.then408, label %if.else465

if.then408:                                       ; preds = %if.end400
  %306 = load ptr, ptr %_items.i.i1745, align 8, !tbaa !36
  %arrayidx.i.i1645 = getelementptr inbounds i32, ptr %306, i64 %idxprom.i1641
  %307 = load i32, ptr %arrayidx.i.i1645, align 4, !tbaa !52
  %308 = load ptr, ptr %_items.i.i1741, align 8, !tbaa !36
  %arrayidx.i.i.i1647 = getelementptr inbounds ptr, ptr %308, i64 %idxprom.i1641
  %309 = load ptr, ptr %arrayidx.i.i.i1647, align 8, !tbaa !37
  %_size.i.i1648 = getelementptr inbounds %"struct.NArchive::N7z::CFolder", ptr %309, i64 0, i32 2, i32 0, i32 2
  %310 = load i32, ptr %_size.i.i1648, align 4, !tbaa !33
  %cmp13.i1649 = icmp sgt i32 %310, 0
  br i1 %cmp13.i1649, label %for.body.lr.ph.i1652, label %invoke.cont416

for.body.lr.ph.i1652:                             ; preds = %if.then408
  %311 = load ptr, ptr %_items.i1755, align 8, !tbaa !36
  %wide.trip.count.i1651 = zext i32 %310 to i64
  %min.iters.check4242 = icmp ult i32 %310, 10
  br i1 %min.iters.check4242, label %for.body.i1662.preheader, label %vector.scevcheck4239

vector.scevcheck4239:                             ; preds = %for.body.lr.ph.i1652
  %312 = add nsw i64 %wide.trip.count.i1651, -1
  %313 = trunc i64 %312 to i32
  %314 = add i32 %307, %313
  %315 = icmp slt i32 %314, %307
  %316 = icmp ugt i64 %312, 4294967295
  %317 = or i1 %315, %316
  br i1 %317, label %for.body.i1662.preheader, label %vector.ph4243

vector.ph4243:                                    ; preds = %vector.scevcheck4239
  %n.vec4245 = and i64 %wide.trip.count.i1651, 4294967292
  br label %vector.body4248

vector.body4248:                                  ; preds = %vector.body4248, %vector.ph4243
  %offset.idx4252 = phi i64 [ 0, %vector.ph4243 ], [ %index.next4255, %vector.body4248 ]
  %vec.phi4250 = phi <2 x i64> [ zeroinitializer, %vector.ph4243 ], [ %323, %vector.body4248 ]
  %vec.phi4251 = phi <2 x i64> [ zeroinitializer, %vector.ph4243 ], [ %324, %vector.body4248 ]
  %318 = trunc i64 %offset.idx4252 to i32
  %319 = add i32 %307, %318
  %320 = sext i32 %319 to i64
  %321 = getelementptr inbounds i64, ptr %311, i64 %320
  %wide.load4253 = load <2 x i64>, ptr %321, align 8, !tbaa !110
  %322 = getelementptr inbounds i64, ptr %321, i64 2
  %wide.load4254 = load <2 x i64>, ptr %322, align 8, !tbaa !110
  %323 = add <2 x i64> %wide.load4253, %vec.phi4250
  %324 = add <2 x i64> %wide.load4254, %vec.phi4251
  %index.next4255 = add nuw i64 %offset.idx4252, 4
  %325 = icmp eq i64 %index.next4255, %n.vec4245
  br i1 %325, label %middle.block4240, label %vector.body4248, !llvm.loop !166

middle.block4240:                                 ; preds = %vector.body4248
  %bin.rdx4256 = add <2 x i64> %324, %323
  %326 = call i64 @llvm.vector.reduce.add.v2i64(<2 x i64> %bin.rdx4256)
  %cmp.n4247 = icmp eq i64 %n.vec4245, %wide.trip.count.i1651
  br i1 %cmp.n4247, label %invoke.cont416, label %for.body.i1662.preheader

for.body.i1662.preheader:                         ; preds = %vector.scevcheck4239, %for.body.lr.ph.i1652, %middle.block4240
  %indvars.iv.i1654.ph = phi i64 [ 0, %vector.scevcheck4239 ], [ 0, %for.body.lr.ph.i1652 ], [ %n.vec4245, %middle.block4240 ]
  %size.014.i1655.ph = phi i64 [ 0, %vector.scevcheck4239 ], [ 0, %for.body.lr.ph.i1652 ], [ %326, %middle.block4240 ]
  %327 = xor i64 %indvars.iv.i1654.ph, -1
  %328 = add nsw i64 %327, %wide.trip.count.i1651
  %xtraiter4504 = and i64 %wide.trip.count.i1651, 3
  %lcmp.mod4505.not = icmp eq i64 %xtraiter4504, 0
  br i1 %lcmp.mod4505.not, label %for.body.i1662.prol.loopexit, label %for.body.i1662.prol

for.body.i1662.prol:                              ; preds = %for.body.i1662.preheader, %for.body.i1662.prol
  %indvars.iv.i1654.prol = phi i64 [ %indvars.iv.next.i1660.prol, %for.body.i1662.prol ], [ %indvars.iv.i1654.ph, %for.body.i1662.preheader ]
  %size.014.i1655.prol = phi i64 [ %add5.i1659.prol, %for.body.i1662.prol ], [ %size.014.i1655.ph, %for.body.i1662.preheader ]
  %prol.iter4506 = phi i64 [ %prol.iter4506.next, %for.body.i1662.prol ], [ 0, %for.body.i1662.preheader ]
  %329 = trunc i64 %indvars.iv.i1654.prol to i32
  %add.i1656.prol = add i32 %307, %329
  %idxprom.i11.i1657.prol = sext i32 %add.i1656.prol to i64
  %arrayidx.i12.i1658.prol = getelementptr inbounds i64, ptr %311, i64 %idxprom.i11.i1657.prol
  %330 = load i64, ptr %arrayidx.i12.i1658.prol, align 8, !tbaa !110
  %add5.i1659.prol = add i64 %330, %size.014.i1655.prol
  %indvars.iv.next.i1660.prol = add nuw nsw i64 %indvars.iv.i1654.prol, 1
  %prol.iter4506.next = add i64 %prol.iter4506, 1
  %prol.iter4506.cmp.not = icmp eq i64 %prol.iter4506.next, %xtraiter4504
  br i1 %prol.iter4506.cmp.not, label %for.body.i1662.prol.loopexit, label %for.body.i1662.prol, !llvm.loop !167

for.body.i1662.prol.loopexit:                     ; preds = %for.body.i1662.prol, %for.body.i1662.preheader
  %add5.i1659.lcssa.unr = phi i64 [ undef, %for.body.i1662.preheader ], [ %add5.i1659.prol, %for.body.i1662.prol ]
  %indvars.iv.i1654.unr = phi i64 [ %indvars.iv.i1654.ph, %for.body.i1662.preheader ], [ %indvars.iv.next.i1660.prol, %for.body.i1662.prol ]
  %size.014.i1655.unr = phi i64 [ %size.014.i1655.ph, %for.body.i1662.preheader ], [ %add5.i1659.prol, %for.body.i1662.prol ]
  %331 = icmp ult i64 %328, 3
  br i1 %331, label %invoke.cont416, label %for.body.i1662

for.body.i1662:                                   ; preds = %for.body.i1662.prol.loopexit, %for.body.i1662
  %indvars.iv.i1654 = phi i64 [ %indvars.iv.next.i1660.3, %for.body.i1662 ], [ %indvars.iv.i1654.unr, %for.body.i1662.prol.loopexit ]
  %size.014.i1655 = phi i64 [ %add5.i1659.3, %for.body.i1662 ], [ %size.014.i1655.unr, %for.body.i1662.prol.loopexit ]
  %332 = trunc i64 %indvars.iv.i1654 to i32
  %add.i1656 = add i32 %307, %332
  %idxprom.i11.i1657 = sext i32 %add.i1656 to i64
  %arrayidx.i12.i1658 = getelementptr inbounds i64, ptr %311, i64 %idxprom.i11.i1657
  %333 = load i64, ptr %arrayidx.i12.i1658, align 8, !tbaa !110
  %add5.i1659 = add i64 %333, %size.014.i1655
  %334 = trunc i64 %indvars.iv.i1654 to i32
  %335 = add i32 %334, 1
  %add.i1656.1 = add i32 %307, %335
  %idxprom.i11.i1657.1 = sext i32 %add.i1656.1 to i64
  %arrayidx.i12.i1658.1 = getelementptr inbounds i64, ptr %311, i64 %idxprom.i11.i1657.1
  %336 = load i64, ptr %arrayidx.i12.i1658.1, align 8, !tbaa !110
  %add5.i1659.1 = add i64 %336, %add5.i1659
  %337 = trunc i64 %indvars.iv.i1654 to i32
  %338 = add i32 %337, 2
  %add.i1656.2 = add i32 %307, %338
  %idxprom.i11.i1657.2 = sext i32 %add.i1656.2 to i64
  %arrayidx.i12.i1658.2 = getelementptr inbounds i64, ptr %311, i64 %idxprom.i11.i1657.2
  %339 = load i64, ptr %arrayidx.i12.i1658.2, align 8, !tbaa !110
  %add5.i1659.2 = add i64 %339, %add5.i1659.1
  %340 = trunc i64 %indvars.iv.i1654 to i32
  %341 = add i32 %340, 3
  %add.i1656.3 = add i32 %307, %341
  %idxprom.i11.i1657.3 = sext i32 %add.i1656.3 to i64
  %arrayidx.i12.i1658.3 = getelementptr inbounds i64, ptr %311, i64 %idxprom.i11.i1657.3
  %342 = load i64, ptr %arrayidx.i12.i1658.3, align 8, !tbaa !110
  %add5.i1659.3 = add i64 %342, %add5.i1659.2
  %indvars.iv.next.i1660.3 = add nuw nsw i64 %indvars.iv.i1654, 4
  %exitcond.not.i1661.3 = icmp eq i64 %indvars.iv.next.i1660.3, %wide.trip.count.i1651
  br i1 %exitcond.not.i1661.3, label %invoke.cont416, label %for.body.i1662, !llvm.loop !168

invoke.cont416:                                   ; preds = %for.body.i1662.prol.loopexit, %for.body.i1662, %middle.block4240, %if.then408
  %size.0.lcssa.i1653 = phi i64 [ 0, %if.then408 ], [ %326, %middle.block4240 ], [ %add5.i1659.lcssa.unr, %for.body.i1662.prol.loopexit ], [ %add5.i1659.3, %for.body.i1662 ]
  %343 = load ptr, ptr %_items.i4.i1748, align 8, !tbaa !36
  %idxprom.i5.i = sext i32 %307 to i64
  %arrayidx.i6.i = getelementptr inbounds i64, ptr %343, i64 %idxprom.i5.i
  %344 = load i64, ptr %arrayidx.i6.i, align 8, !tbaa !110
  %345 = load i64, ptr %DataStartPosition.i1744, align 8, !tbaa !169
  %add3.i = add i64 %345, %344
  %346 = load ptr, ptr %SeqStream580, align 8, !tbaa !30
  %call421 = invoke fastcc noundef i32 @_ZN8NArchive3N7zL10WriteRangeEP9IInStreamP20ISequentialOutStreamyyP21ICompressProgressInfo(ptr noundef %inStream, ptr noundef %346, i64 noundef %add3.i, i64 noundef %size.0.lcssa.i1653, ptr noundef nonnull %call174)
          to label %invoke.cont420 unwind label %lpad413

invoke.cont420:                                   ; preds = %invoke.cont416
  %cmp422.not = icmp eq i32 %call421, 0
  %retval.10.call421 = select i1 %cmp422.not, i32 %retval.102791, i32 %call421
  br i1 %cmp422.not, label %cleanup.cont427, label %cleanup1026.loopexit

lpad404:                                          ; preds = %if.end651
  %347 = landingpad { ptr, i32 }
          cleanup
  br label %ehcleanup1027

lpad413:                                          ; preds = %invoke.cont416
  %348 = landingpad { ptr, i32 }
          cleanup
  br label %ehcleanup1027

cleanup.cont427:                                  ; preds = %invoke.cont420
  %349 = load i64, ptr %ProgressOffset, align 8, !tbaa !140
  %add430 = add i64 %349, %size.0.lcssa.i1653
  store i64 %add430, ptr %ProgressOffset, align 8, !tbaa !140
  %350 = load ptr, ptr %_items.i.i1741, align 8, !tbaa !36
  %arrayidx.i.i1669 = getelementptr inbounds ptr, ptr %350, i64 %idxprom.i1641
  %351 = load ptr, ptr %arrayidx.i.i1669, align 8, !tbaa !37
  %352 = load ptr, ptr %_items.i.i1745, align 8, !tbaa !36
  %arrayidx.i1672 = getelementptr inbounds i32, ptr %352, i64 %idxprom.i1641
  %353 = load i32, ptr %arrayidx.i1672, align 4, !tbaa !52
  %_size.i1673 = getelementptr inbounds %"struct.NArchive::N7z::CFolder", ptr %351, i64 0, i32 2, i32 0, i32 2
  %354 = load i32, ptr %_size.i1673, align 4, !tbaa !33
  %cmp4422784 = icmp sgt i32 %354, 0
  br i1 %cmp4422784, label %for.body444, label %for.cond.cleanup443

for.cond.cleanup443:                              ; preds = %_ZN13CRecordVectorIyE3AddEy.exit, %cleanup.cont427
  %call.i1681 = invoke noalias noundef nonnull dereferenceable(136) ptr @_Znwm(i64 noundef 136) #17
          to label %call.i.noexc1680 unwind label %lpad435

call.i.noexc1680:                                 ; preds = %for.cond.cleanup443
  invoke void @_ZN8NArchive3N7z7CFolderC2ERKS1_(ptr noundef nonnull align 8 dereferenceable(133) %call.i1681, ptr noundef nonnull align 8 dereferenceable(133) %351)
          to label %invoke.cont.i unwind label %lpad.i1679

invoke.cont.i:                                    ; preds = %call.i.noexc1680
  invoke void @_ZN17CBaseRecordVector18ReserveOnePositionEv(ptr noundef nonnull align 8 dereferenceable(32) %Folders620)
          to label %_ZN13CObjectVectorIN8NArchive3N7z7CFolderEE3AddERKS2_.exit unwind label %lpad435

lpad.i1679:                                       ; preds = %call.i.noexc1680
  %355 = landingpad { ptr, i32 }
          cleanup
  call void @_ZdlPv(ptr noundef nonnull %call.i1681) #18
  br label %ehcleanup1027

_ZN13CObjectVectorIN8NArchive3N7z7CFolderEE3AddERKS2_.exit: ; preds = %invoke.cont.i
  %356 = load ptr, ptr %_items.i.i1779, align 8, !tbaa !36
  %357 = load i32, ptr %_size.i.i1780, align 4, !tbaa !33
  %idxprom.i.i1676 = sext i32 %357 to i64
  %arrayidx.i.i1677 = getelementptr inbounds ptr, ptr %356, i64 %idxprom.i.i1676
  store ptr %call.i1681, ptr %arrayidx.i.i1677, align 8, !tbaa !37
  %inc.i.i1678 = add nsw i32 %357, 1
  store i32 %inc.i.i1678, ptr %_size.i.i1780, align 4, !tbaa !33
  br label %if.end651

lpad435:                                          ; preds = %invoke.cont.i, %for.cond.cleanup443
  %358 = landingpad { ptr, i32 }
          cleanup
  br label %ehcleanup1027

lpad439:                                          ; preds = %for.body444
  %359 = landingpad { ptr, i32 }
          cleanup
  br label %ehcleanup1027

for.body444:                                      ; preds = %cleanup.cont427, %_ZN13CRecordVectorIyE3AddEy.exit
  %indvars.iv3105 = phi i64 [ %indvars.iv.next3106, %_ZN13CRecordVectorIyE3AddEy.exit ], [ 0, %cleanup.cont427 ]
  %360 = trunc i64 %indvars.iv3105 to i32
  %add446 = add i32 %353, %360
  %361 = load ptr, ptr %_items.i1755, align 8, !tbaa !36
  %idxprom.i1684 = sext i32 %add446 to i64
  %arrayidx.i1685 = getelementptr inbounds i64, ptr %361, i64 %idxprom.i1684
  %362 = load i64, ptr %arrayidx.i1685, align 8, !tbaa !110
  invoke void @_ZN17CBaseRecordVector18ReserveOnePositionEv(ptr noundef nonnull align 8 dereferenceable(32) %newDatabase)
          to label %_ZN13CRecordVectorIyE3AddEy.exit unwind label %lpad439

_ZN13CRecordVectorIyE3AddEy.exit:                 ; preds = %for.body444
  %363 = load ptr, ptr %_items.i1766, align 8, !tbaa !36
  %364 = load i32, ptr %_size.i1758, align 4, !tbaa !33
  %idxprom.i1688 = sext i32 %364 to i64
  %arrayidx.i1689 = getelementptr inbounds i64, ptr %363, i64 %idxprom.i1688
  store i64 %362, ptr %arrayidx.i1689, align 8, !tbaa !110
  %inc.i1690 = add nsw i32 %364, 1
  store i32 %inc.i1690, ptr %_size.i1758, align 4, !tbaa !33
  %indvars.iv.next3106 = add nuw nsw i64 %indvars.iv3105, 1
  %365 = load i32, ptr %_size.i1673, align 4, !tbaa !33
  %366 = sext i32 %365 to i64
  %cmp442 = icmp slt i64 %indvars.iv.next3106, %366
  br i1 %cmp442, label %for.body444, label %for.cond.cleanup443, !llvm.loop !170

if.else465:                                       ; preds = %if.end400
  call void @llvm.lifetime.start.p0(i64 184, ptr nonnull %sb) #16
  store ptr null, ptr %_sync.i.i.i, align 8, !tbaa !171
  store ptr getelementptr inbounds ({ [3 x ptr] }, ptr @_ZTVN8NWindows16NSynchronization21CManualResetEventWFMOE, i64 0, inrange i32 0, i64 2), ptr %sb, align 8, !tbaa !28
  store i32 0, ptr %_thereAreBytesToReadEvent.i, align 8, !tbaa !173
  store ptr null, ptr %_sync.i.i5.i, align 8, !tbaa !171
  store ptr getelementptr inbounds ({ [3 x ptr] }, ptr @_ZTVN8NWindows16NSynchronization21CManualResetEventWFMOE, i64 0, inrange i32 0, i64 2), ptr %_readStreamIsClosedEvent.i, align 8, !tbaa !28
  store ptr null, ptr %_synchroFor_allBytesAreWritenEvent_and_readStreamIsClosedEvent.i, align 8, !tbaa !174
  %call471 = invoke noundef i32 @_ZN13CStreamBinder12CreateEventsEv(ptr noundef nonnull align 8 dereferenceable(184) %sb)
          to label %invoke.cont470 unwind label %lpad469

invoke.cont470:                                   ; preds = %if.else465
  %cmp472.not = icmp eq i32 %call471, 0
  %retval.10.call471 = select i1 %cmp472.not, i32 %retval.102791, i32 %call471
  br i1 %cmp472.not, label %cleanup.cont477, label %cleanup645

lpad469:                                          ; preds = %if.else465
  %367 = landingpad { ptr, i32 }
          cleanup
  br label %ehcleanup646

cleanup.cont477:                                  ; preds = %invoke.cont470
  call void @llvm.lifetime.start.p0(i64 8, ptr nonnull %sbOutStream) #16
  store ptr null, ptr %sbOutStream, align 8, !tbaa !30
  call void @llvm.lifetime.start.p0(i64 8, ptr nonnull %sbInStream) #16
  store ptr null, ptr %sbInStream, align 8, !tbaa !179
  invoke void @_ZN13CStreamBinder13CreateStreamsEPP19ISequentialInStreamPP20ISequentialOutStream(ptr noundef nonnull align 8 dereferenceable(184) %sb, ptr noundef nonnull %sbInStream, ptr noundef nonnull %sbOutStream)
          to label %invoke.cont488 unwind label %lpad483

invoke.cont488:                                   ; preds = %cleanup.cont477
  call void @llvm.lifetime.start.p0(i64 32, ptr nonnull %extractStatuses) #16
  call void @llvm.memset.p0.i64(ptr noundef nonnull align 8 dereferenceable(16) %_capacity.i.i1691, i8 0, i64 16, i1 false)
  store i64 1, ptr %_itemSize.i.i1692, align 8, !tbaa !95
  store ptr getelementptr inbounds ({ [5 x ptr] }, ptr @_ZTV13CRecordVectorIbE, i64 0, inrange i32 0, i64 2), ptr %extractStatuses, align 8, !tbaa !28
