; ModuleID = '/usr/local/google/home/aeubanks/repos/test-suite/MultiSource/Benchmarks/Bullet/btDiscreteDynamicsWorld.cpp'
source_filename = "/usr/local/google/home/aeubanks/repos/test-suite/MultiSource/Benchmarks/Bullet/btDiscreteDynamicsWorld.cpp"
target datalayout = "e-m:e-p270:32:32-p271:32:32-p272:64:64-i64:64-f80:128-n8:16:32:64-S128"
target triple = "x86_64-unknown-linux-gnu"

%class.btDynamicsWorld = type <{ %class.btCollisionWorld.base, [7 x i8], ptr, ptr, ptr, %struct.btContactSolverInfo, [4 x i8] }>
%class.btCollisionWorld.base = type <{ ptr, %class.btAlignedObjectArray, ptr, %struct.btDispatcherInfo, ptr, ptr, ptr, i8 }>
%class.btAlignedObjectArray = type <{ %class.btAlignedAllocator, [3 x i8], i32, i32, [4 x i8], ptr, i8, [7 x i8] }>
%class.btAlignedAllocator = type { i8 }
%struct.btDispatcherInfo = type { float, i32, i32, float, i8, ptr, i8, i8, i8, float, i8, float, ptr }
%struct.btContactSolverInfo = type { %struct.btContactSolverInfoData }
%struct.btContactSolverInfoData = type { float, float, float, float, float, i32, float, float, float, float, float, i32, float, float, float, i32, i32 }
%class.btDiscreteDynamicsWorld = type <{ %class.btDynamicsWorld.base, [4 x i8], ptr, ptr, %class.btAlignedObjectArray.8, %class.btAlignedObjectArray.12, %class.btVector3, float, i8, i8, i8, i8, %class.btAlignedObjectArray.16, i32, [4 x i8] }>
%class.btDynamicsWorld.base = type <{ %class.btCollisionWorld.base, [7 x i8], ptr, ptr, ptr, %struct.btContactSolverInfo }>
%class.btAlignedObjectArray.8 = type <{ %class.btAlignedAllocator.9, [3 x i8], i32, i32, [4 x i8], ptr, i8, [7 x i8] }>
%class.btAlignedAllocator.9 = type { i8 }
%class.btAlignedObjectArray.12 = type <{ %class.btAlignedAllocator.13, [3 x i8], i32, i32, [4 x i8], ptr, i8, [7 x i8] }>
%class.btAlignedAllocator.13 = type { i8 }
%class.btVector3 = type { [4 x float] }
%class.btAlignedObjectArray.16 = type <{ %class.btAlignedAllocator.17, [3 x i8], i32, i32, [4 x i8], ptr, i8, [7 x i8] }>
%class.btAlignedAllocator.17 = type { i8 }
%class.btCollisionWorld = type <{ ptr, %class.btAlignedObjectArray, ptr, %struct.btDispatcherInfo, ptr, ptr, ptr, i8, [7 x i8] }>
%class.btCollisionObject = type { ptr, %class.btTransform, %class.btTransform, %class.btVector3, %class.btVector3, %class.btVector3, i8, float, ptr, ptr, ptr, i32, i32, i32, i32, float, float, float, ptr, i32, float, float, float, i8, [7 x i8] }
%class.btTransform = type { %class.btMatrix3x3, %class.btVector3 }
%class.btMatrix3x3 = type { [3 x %class.btVector3] }
%class.btPersistentManifold = type { %struct.btTypedObject, [4 x i8], [4 x %class.btManifoldPoint], ptr, ptr, i32, float, float, i32 }
%struct.btTypedObject = type { i32 }
%class.btManifoldPoint = type <{ %class.btVector3, %class.btVector3, %class.btVector3, %class.btVector3, %class.btVector3, float, float, float, i32, i32, i32, i32, [4 x i8], ptr, float, i8, [3 x i8], float, float, i32, %class.btVector3, %class.btVector3, [4 x i8] }>
%class.btTypedConstraint = type { ptr, %struct.btTypedObject, i32, i32, i8, ptr, ptr, float, float, %class.btVector3, %class.btVector3, %class.btVector3 }
%class.btPoint2PointConstraint = type <{ %class.btTypedConstraint, [3 x %class.btJacobianEntry], %class.btVector3, %class.btVector3, i8, [3 x i8], %struct.btConstraintSetting, [4 x i8] }>
%class.btJacobianEntry = type { %class.btVector3, %class.btVector3, %class.btVector3, %class.btVector3, %class.btVector3, float }
%struct.btConstraintSetting = type { float, float, float }
%class.btHingeConstraint = type { %class.btTypedConstraint, [3 x %class.btJacobianEntry], [3 x %class.btJacobianEntry], %class.btTransform, %class.btTransform, float, float, float, float, float, float, float, float, float, float, float, float, float, i8, i8, i8, i8, i8, float }
%class.btConeTwistConstraint = type { %class.btTypedConstraint, [3 x %class.btJacobianEntry], %class.btTransform, %class.btTransform, float, float, float, float, float, float, float, float, %class.btVector3, %class.btVector3, float, float, float, float, float, float, float, float, i8, i8, i8, i8, float, float, %class.btVector3, i8, i8, %class.btQuaternion, float, %class.btVector3 }
%class.btQuaternion = type { %class.btQuadWord }
%class.btQuadWord = type { [4 x float] }
%class.btRigidBody = type <{ %class.btCollisionObject, %class.btMatrix3x3, %class.btVector3, %class.btVector3, float, %class.btVector3, %class.btVector3, %class.btVector3, %class.btVector3, %class.btVector3, %class.btVector3, %class.btVector3, float, float, i8, [3 x i8], float, float, float, float, float, float, ptr, %class.btAlignedObjectArray.8, i32, i32, i32, [4 x i8] }>
%class.btGeneric6DofConstraint = type <{ %class.btTypedConstraint, %class.btTransform, %class.btTransform, [3 x %class.btJacobianEntry], [3 x %class.btJacobianEntry], %class.btTranslationalLimitMotor, [3 x %class.btRotationalLimitMotor], float, %class.btTransform, %class.btTransform, %class.btVector3, [3 x %class.btVector3], %class.btVector3, %class.btVector3, i8, i8, [6 x i8] }>
%class.btTranslationalLimitMotor = type { %class.btVector3, %class.btVector3, %class.btVector3, float, float, float, [3 x i8], %class.btVector3, %class.btVector3, %class.btVector3, %class.btVector3, [3 x i32] }
%class.btRotationalLimitMotor = type { float, float, float, float, float, float, float, float, float, i8, float, float, i32, float }
%class.btSliderConstraint = type <{ %class.btTypedConstraint, i8, [3 x i8], %class.btTransform, %class.btTransform, i8, [3 x i8], float, float, float, float, float, float, float, float, float, float, float, float, float, float, float, float, float, float, float, float, float, float, i8, i8, [2 x i8], [3 x %class.btJacobianEntry], [3 x float], [3 x %class.btJacobianEntry], float, %class.btTransform, %class.btTransform, %class.btVector3, %class.btVector3, %class.btVector3, %class.btVector3, %class.btVector3, %class.btVector3, %class.btVector3, %class.btVector3, float, float, float, float, i8, [3 x i8], float, float, float, i8, [3 x i8], float, float, float, [4 x i8] }>
%class.DebugDrawcallback = type { %class.btTriangleCallback, %class.btInternalTriangleIndexCallback, ptr, %class.btVector3, %class.btTransform }
%class.btTriangleCallback = type { ptr }
%class.btInternalTriangleIndexCallback = type { ptr }
%class.btCollisionShape = type { ptr, i32, ptr }
%class.btCompoundShape = type { %class.btCollisionShape, %class.btAlignedObjectArray.40, %class.btVector3, %class.btVector3, ptr, i32, float, %class.btVector3 }
%class.btAlignedObjectArray.40 = type <{ %class.btAlignedAllocator.41, [3 x i8], i32, i32, [4 x i8], ptr, i8, [7 x i8] }>
%class.btAlignedAllocator.41 = type { i8 }
%struct.btCompoundShapeChild = type { %class.btTransform, ptr, i32, float, ptr }
%class.btMultiSphereShape = type { %class.btConvexInternalAabbCachingShape.base, [7 x i8], %class.btAlignedObjectArray.44, %class.btAlignedObjectArray.48 }
%class.btConvexInternalAabbCachingShape.base = type <{ %class.btConvexInternalShape, %class.btVector3, %class.btVector3, i8 }>
%class.btConvexInternalShape = type { %class.btConvexShape, %class.btVector3, %class.btVector3, float, float }
%class.btConvexShape = type { %class.btCollisionShape }
%class.btAlignedObjectArray.44 = type <{ %class.btAlignedAllocator.45, [3 x i8], i32, i32, [4 x i8], ptr, i8, [7 x i8] }>
%class.btAlignedAllocator.45 = type { i8 }
%class.btAlignedObjectArray.48 = type <{ %class.btAlignedAllocator.49, [3 x i8], i32, i32, [4 x i8], ptr, i8, [7 x i8] }>
%class.btAlignedAllocator.49 = type { i8 }
%class.btCapsuleShape = type <{ %class.btConvexInternalShape, i32, [4 x i8] }>
%class.btConeShape = type { %class.btConvexInternalShape, float, float, float, [3 x i32] }
%class.btCylinderShape = type <{ %class.btConvexInternalShape, i32, [4 x i8] }>
%class.btStaticPlaneShape = type { %class.btConcaveShape.base, %class.btVector3, %class.btVector3, %class.btVector3, float, %class.btVector3 }
%class.btConcaveShape.base = type <{ %class.btCollisionShape, float }>
%class.btConvexTriangleMeshShape = type { %class.btPolyhedralConvexAabbCachingShape.base, ptr }
%class.btPolyhedralConvexAabbCachingShape.base = type <{ %class.btPolyhedralConvexShape, %class.btVector3, %class.btVector3, i8 }>
%class.btPolyhedralConvexShape = type { %class.btConvexInternalShape }
%struct.InplaceSolverIslandCallback = type { %"struct.btSimulationIslandManager::IslandCallback", ptr, ptr, ptr, i32, ptr, ptr, ptr }
%"struct.btSimulationIslandManager::IslandCallback" = type { ptr }
%class.btSimulationIslandManager = type <{ ptr, %class.btUnionFind, %class.btAlignedObjectArray.4, %class.btAlignedObjectArray, i8, [7 x i8] }>
%class.btUnionFind = type { %class.btAlignedObjectArray.0 }
%class.btAlignedObjectArray.0 = type <{ %class.btAlignedAllocator.1, [3 x i8], i32, i32, [4 x i8], ptr, i8, [7 x i8] }>
%class.btAlignedAllocator.1 = type { i8 }
%class.btAlignedObjectArray.4 = type <{ %class.btAlignedAllocator.5, [3 x i8], i32, i32, [4 x i8], ptr, i8, [7 x i8] }>
%class.btAlignedAllocator.5 = type { i8 }
%struct.btElement = type { i32, i32 }
%class.btClosestNotMeConvexResultCallback = type { %"struct.btCollisionWorld::ClosestConvexResultCallback", ptr, float, ptr, ptr }
%"struct.btCollisionWorld::ClosestConvexResultCallback" = type { %"struct.btCollisionWorld::ConvexResultCallback", %class.btVector3, %class.btVector3, %class.btVector3, %class.btVector3, ptr }
%"struct.btCollisionWorld::ConvexResultCallback" = type { ptr, float, i16, i16 }
%class.btSphereShape = type { %class.btConvexInternalShape }
%struct.btBroadphaseProxy = type <{ ptr, i16, i16, [4 x i8], ptr, i32, %class.btVector3, %class.btVector3, [4 x i8] }>
%struct.btBroadphasePair = type { ptr, ptr, ptr, %union.anon.52 }
%union.anon.52 = type { ptr }
%"struct.btCollisionWorld::LocalConvexResult" = type <{ ptr, ptr, %class.btVector3, %class.btVector3, float, [4 x i8] }>

$_ZN20btAlignedObjectArrayIP17btActionInterfaceED2Ev = comdat any

$__clang_call_terminate = comdat any

$_ZN20btAlignedObjectArrayIP11btRigidBodyED2Ev = comdat any

$_ZN20btAlignedObjectArrayIP17btTypedConstraintED2Ev = comdat any

$_ZN12btIDebugDraw8drawAabbERK9btVector3S2_S2_ = comdat any

$_ZN15btTransformUtil18integrateTransformERK11btTransformRK9btVector3S5_fRS0_ = comdat any

$_ZN16btCollisionWorld20ConvexResultCallbackD2Ev = comdat any

$_ZN17DebugDrawcallbackD2Ev = comdat any

$_ZN12btIDebugDraw13drawTransformERK11btTransformf = comdat any

$_ZN12btIDebugDraw7drawArcERK9btVector3S2_S2_ffffS2_bf = comdat any

$_ZN12btIDebugDraw15drawSpherePatchERK9btVector3S2_S2_fffffS2_f = comdat any

$_ZN12btIDebugDraw7drawBoxERK9btVector3S2_RK11btTransformS2_ = comdat any

$_ZN16btCollisionWorld14setDebugDrawerEP12btIDebugDraw = comdat any

$_ZN16btCollisionWorld14getDebugDrawerEv = comdat any

$_ZNK23btDiscreteDynamicsWorld12getWorldTypeEv = comdat any

$_ZN23btDiscreteDynamicsWorld11setNumTasksEi = comdat any

$_ZN23btDiscreteDynamicsWorld14updateVehiclesEf = comdat any

$_ZNK11btMatrix3x311getRotationER12btQuaternion = comdat any

$_ZN25btSimulationIslandManager14IslandCallbackD2Ev = comdat any

$_ZN34btClosestNotMeConvexResultCallbackD0Ev = comdat any

$_ZNK34btClosestNotMeConvexResultCallback14needsCollisionEP17btBroadphaseProxy = comdat any

$_ZN34btClosestNotMeConvexResultCallback15addSingleResultERN16btCollisionWorld17LocalConvexResultEb = comdat any

$_ZN17DebugDrawcallbackD0Ev = comdat any

$_ZN17DebugDrawcallback15processTriangleEP9btVector3ii = comdat any

$_ZN17DebugDrawcallback28internalProcessTriangleIndexEP9btVector3ii = comdat any

$_ZThn8_N17DebugDrawcallbackD1Ev = comdat any

$_ZThn8_N17DebugDrawcallbackD0Ev = comdat any

$_ZThn8_N17DebugDrawcallback28internalProcessTriangleIndexEP9btVector3ii = comdat any

$_ZN20btAlignedObjectArrayIP17btTypedConstraintE17quickSortInternalI33btSortConstraintOnIslandPredicateEEvT_ii = comdat any

$_ZTS15btDynamicsWorld = comdat any

$_ZTI15btDynamicsWorld = comdat any

$_ZTSN25btSimulationIslandManager14IslandCallbackE = comdat any

$_ZTIN25btSimulationIslandManager14IslandCallbackE = comdat any

$_ZTV34btClosestNotMeConvexResultCallback = comdat any

$_ZTS34btClosestNotMeConvexResultCallback = comdat any

$_ZTSN16btCollisionWorld27ClosestConvexResultCallbackE = comdat any

$_ZTSN16btCollisionWorld20ConvexResultCallbackE = comdat any

$_ZTIN16btCollisionWorld20ConvexResultCallbackE = comdat any

$_ZTIN16btCollisionWorld27ClosestConvexResultCallbackE = comdat any

$_ZTI34btClosestNotMeConvexResultCallback = comdat any

$_ZTV17DebugDrawcallback = comdat any

$_ZTS17DebugDrawcallback = comdat any

$_ZTI17DebugDrawcallback = comdat any

@_ZTV23btDiscreteDynamicsWorld = dso_local unnamed_addr constant { [42 x ptr] } { [42 x ptr] [ptr null, ptr @_ZTI23btDiscreteDynamicsWorld, ptr @_ZN23btDiscreteDynamicsWorldD2Ev, ptr @_ZN23btDiscreteDynamicsWorldD0Ev, ptr @_ZN16btCollisionWorld11updateAabbsEv, ptr @_ZN16btCollisionWorld14setDebugDrawerEP12btIDebugDraw, ptr @_ZN16btCollisionWorld14getDebugDrawerEv, ptr @_ZN23btDiscreteDynamicsWorld18addCollisionObjectEP17btCollisionObjectss, ptr @_ZN23btDiscreteDynamicsWorld21removeCollisionObjectEP17btCollisionObject, ptr @_ZN16btCollisionWorld33performDiscreteCollisionDetectionEv, ptr @_ZN23btDiscreteDynamicsWorld14stepSimulationEfif, ptr @_ZN23btDiscreteDynamicsWorld14debugDrawWorldEv, ptr @_ZN23btDiscreteDynamicsWorld13addConstraintEP17btTypedConstraintb, ptr @_ZN23btDiscreteDynamicsWorld16removeConstraintEP17btTypedConstraint, ptr @_ZN23btDiscreteDynamicsWorld9addActionEP17btActionInterface, ptr @_ZN23btDiscreteDynamicsWorld12removeActionEP17btActionInterface, ptr @_ZN23btDiscreteDynamicsWorld10setGravityERK9btVector3, ptr @_ZNK23btDiscreteDynamicsWorld10getGravityEv, ptr @_ZN23btDiscreteDynamicsWorld23synchronizeMotionStatesEv, ptr @_ZN23btDiscreteDynamicsWorld12addRigidBodyEP11btRigidBody, ptr @_ZN23btDiscreteDynamicsWorld15removeRigidBodyEP11btRigidBody, ptr @_ZN23btDiscreteDynamicsWorld19setConstraintSolverEP18btConstraintSolver, ptr @_ZN23btDiscreteDynamicsWorld19getConstraintSolverEv, ptr @_ZNK23btDiscreteDynamicsWorld17getNumConstraintsEv, ptr @_ZN23btDiscreteDynamicsWorld13getConstraintEi, ptr @_ZNK23btDiscreteDynamicsWorld13getConstraintEi, ptr @_ZNK23btDiscreteDynamicsWorld12getWorldTypeEv, ptr @_ZN23btDiscreteDynamicsWorld11clearForcesEv, ptr @_ZN23btDiscreteDynamicsWorld10addVehicleEP17btActionInterface, ptr @_ZN23btDiscreteDynamicsWorld13removeVehicleEP17btActionInterface, ptr @_ZN23btDiscreteDynamicsWorld12addCharacterEP17btActionInterface, ptr @_ZN23btDiscreteDynamicsWorld15removeCharacterEP17btActionInterface, ptr @_ZN23btDiscreteDynamicsWorld25predictUnconstraintMotionEf, ptr @_ZN23btDiscreteDynamicsWorld19integrateTransformsEf, ptr @_ZN23btDiscreteDynamicsWorld26calculateSimulationIslandsEv, ptr @_ZN23btDiscreteDynamicsWorld16solveConstraintsER19btContactSolverInfo, ptr @_ZN23btDiscreteDynamicsWorld28internalSingleStepSimulationEf, ptr @_ZN23btDiscreteDynamicsWorld18saveKinematicStateEf, ptr @_ZN23btDiscreteDynamicsWorld12addRigidBodyEP11btRigidBodyss, ptr @_ZN23btDiscreteDynamicsWorld12applyGravityEv, ptr @_ZN23btDiscreteDynamicsWorld11setNumTasksEi, ptr @_ZN23btDiscreteDynamicsWorld14updateVehiclesEf] }, align 8
@.str = private unnamed_addr constant [15 x i8] c"debugDrawWorld\00", align 1
@.str.1 = private unnamed_addr constant [24 x i8] c"synchronizeMotionStates\00", align 1
@.str.2 = private unnamed_addr constant [15 x i8] c"stepSimulation\00", align 1
@gDisableDeactivation = external local_unnamed_addr global i8, align 1
@.str.3 = private unnamed_addr constant [29 x i8] c"internalSingleStepSimulation\00", align 1
@.str.4 = private unnamed_addr constant [14 x i8] c"updateActions\00", align 1
@.str.5 = private unnamed_addr constant [22 x i8] c"updateActivationState\00", align 1
@.str.6 = private unnamed_addr constant [17 x i8] c"solveConstraints\00", align 1
@.str.7 = private unnamed_addr constant [27 x i8] c"calculateSimulationIslands\00", align 1
@gNumClampedCcdMotions = dso_local local_unnamed_addr global i32 0, align 4
@.str.8 = private unnamed_addr constant [20 x i8] c"integrateTransforms\00", align 1
@.str.9 = private unnamed_addr constant [20 x i8] c"CCD motion clamping\00", align 1
@.str.10 = private unnamed_addr constant [26 x i8] c"predictUnconstraintMotion\00", align 1
@_ZTVN10__cxxabiv120__si_class_type_infoE = external global ptr
@_ZTS23btDiscreteDynamicsWorld = dso_local constant [26 x i8] c"23btDiscreteDynamicsWorld\00", align 1
@_ZTS15btDynamicsWorld = linkonce_odr dso_local constant [18 x i8] c"15btDynamicsWorld\00", comdat, align 1
@_ZTI16btCollisionWorld = external constant ptr
@_ZTI15btDynamicsWorld = linkonce_odr dso_local constant { ptr, ptr, ptr } { ptr getelementptr inbounds (ptr, ptr @_ZTVN10__cxxabiv120__si_class_type_infoE, i64 2), ptr @_ZTS15btDynamicsWorld, ptr @_ZTI16btCollisionWorld }, comdat, align 8
@_ZTI23btDiscreteDynamicsWorld = dso_local constant { ptr, ptr, ptr } { ptr getelementptr inbounds (ptr, ptr @_ZTVN10__cxxabiv120__si_class_type_infoE, i64 2), ptr @_ZTS23btDiscreteDynamicsWorld, ptr @_ZTI15btDynamicsWorld }, align 8
@gDeactivationTime = external local_unnamed_addr global float, align 4
@_ZTVZN23btDiscreteDynamicsWorld16solveConstraintsER19btContactSolverInfoE27InplaceSolverIslandCallback = internal unnamed_addr constant { [5 x ptr] } { [5 x ptr] [ptr null, ptr @_ZTIZN23btDiscreteDynamicsWorld16solveConstraintsER19btContactSolverInfoE27InplaceSolverIslandCallback, ptr @_ZN25btSimulationIslandManager14IslandCallbackD2Ev, ptr @_ZZN23btDiscreteDynamicsWorld16solveConstraintsER19btContactSolverInfoEN27InplaceSolverIslandCallbackD0Ev, ptr @_ZZN23btDiscreteDynamicsWorld16solveConstraintsER19btContactSolverInfoEN27InplaceSolverIslandCallback13ProcessIslandEPP17btCollisionObjectiPP20btPersistentManifoldii] }, align 8
@_ZTSZN23btDiscreteDynamicsWorld16solveConstraintsER19btContactSolverInfoE27InplaceSolverIslandCallback = internal constant [99 x i8] c"ZN23btDiscreteDynamicsWorld16solveConstraintsER19btContactSolverInfoE27InplaceSolverIslandCallback\00", align 1
@_ZTVN10__cxxabiv117__class_type_infoE = external global ptr
@_ZTSN25btSimulationIslandManager14IslandCallbackE = linkonce_odr dso_local constant [46 x i8] c"N25btSimulationIslandManager14IslandCallbackE\00", comdat, align 1
@_ZTIN25btSimulationIslandManager14IslandCallbackE = linkonce_odr dso_local constant { ptr, ptr } { ptr getelementptr inbounds (ptr, ptr @_ZTVN10__cxxabiv117__class_type_infoE, i64 2), ptr @_ZTSN25btSimulationIslandManager14IslandCallbackE }, comdat, align 8
@_ZTIZN23btDiscreteDynamicsWorld16solveConstraintsER19btContactSolverInfoE27InplaceSolverIslandCallback = internal constant { ptr, ptr, ptr } { ptr getelementptr inbounds (ptr, ptr @_ZTVN10__cxxabiv120__si_class_type_infoE, i64 2), ptr @_ZTSZN23btDiscreteDynamicsWorld16solveConstraintsER19btContactSolverInfoE27InplaceSolverIslandCallback, ptr @_ZTIN25btSimulationIslandManager14IslandCallbackE }, align 8
@_ZTV34btClosestNotMeConvexResultCallback = linkonce_odr dso_local unnamed_addr constant { [6 x ptr] } { [6 x ptr] [ptr null, ptr @_ZTI34btClosestNotMeConvexResultCallback, ptr @_ZN16btCollisionWorld20ConvexResultCallbackD2Ev, ptr @_ZN34btClosestNotMeConvexResultCallbackD0Ev, ptr @_ZNK34btClosestNotMeConvexResultCallback14needsCollisionEP17btBroadphaseProxy, ptr @_ZN34btClosestNotMeConvexResultCallback15addSingleResultERN16btCollisionWorld17LocalConvexResultEb] }, comdat, align 8
@_ZTS34btClosestNotMeConvexResultCallback = linkonce_odr dso_local constant [37 x i8] c"34btClosestNotMeConvexResultCallback\00", comdat, align 1
@_ZTSN16btCollisionWorld27ClosestConvexResultCallbackE = linkonce_odr dso_local constant [50 x i8] c"N16btCollisionWorld27ClosestConvexResultCallbackE\00", comdat, align 1
@_ZTSN16btCollisionWorld20ConvexResultCallbackE = linkonce_odr dso_local constant [43 x i8] c"N16btCollisionWorld20ConvexResultCallbackE\00", comdat, align 1
@_ZTIN16btCollisionWorld20ConvexResultCallbackE = linkonce_odr dso_local constant { ptr, ptr } { ptr getelementptr inbounds (ptr, ptr @_ZTVN10__cxxabiv117__class_type_infoE, i64 2), ptr @_ZTSN16btCollisionWorld20ConvexResultCallbackE }, comdat, align 8
@_ZTIN16btCollisionWorld27ClosestConvexResultCallbackE = linkonce_odr dso_local constant { ptr, ptr, ptr } { ptr getelementptr inbounds (ptr, ptr @_ZTVN10__cxxabiv120__si_class_type_infoE, i64 2), ptr @_ZTSN16btCollisionWorld27ClosestConvexResultCallbackE, ptr @_ZTIN16btCollisionWorld20ConvexResultCallbackE }, comdat, align 8
@_ZTI34btClosestNotMeConvexResultCallback = linkonce_odr dso_local constant { ptr, ptr, ptr } { ptr getelementptr inbounds (ptr, ptr @_ZTVN10__cxxabiv120__si_class_type_infoE, i64 2), ptr @_ZTS34btClosestNotMeConvexResultCallback, ptr @_ZTIN16btCollisionWorld27ClosestConvexResultCallbackE }, comdat, align 8
@_ZTV13btSphereShape = external unnamed_addr constant { [20 x ptr] }, align 8
@_ZTV17DebugDrawcallback = linkonce_odr dso_local unnamed_addr constant { [6 x ptr], [5 x ptr] } { [6 x ptr] [ptr null, ptr @_ZTI17DebugDrawcallback, ptr @_ZN17DebugDrawcallbackD2Ev, ptr @_ZN17DebugDrawcallbackD0Ev, ptr @_ZN17DebugDrawcallback15processTriangleEP9btVector3ii, ptr @_ZN17DebugDrawcallback28internalProcessTriangleIndexEP9btVector3ii], [5 x ptr] [ptr inttoptr (i64 -8 to ptr), ptr @_ZTI17DebugDrawcallback, ptr @_ZThn8_N17DebugDrawcallbackD1Ev, ptr @_ZThn8_N17DebugDrawcallbackD0Ev, ptr @_ZThn8_N17DebugDrawcallback28internalProcessTriangleIndexEP9btVector3ii] }, comdat, align 8
@_ZTVN10__cxxabiv121__vmi_class_type_infoE = external global ptr
@_ZTS17DebugDrawcallback = linkonce_odr dso_local constant [20 x i8] c"17DebugDrawcallback\00", comdat, align 1
@_ZTI18btTriangleCallback = external constant ptr
@_ZTI31btInternalTriangleIndexCallback = external constant ptr
@_ZTI17DebugDrawcallback = linkonce_odr dso_local constant { ptr, ptr, i32, i32, ptr, i64, ptr, i64 } { ptr getelementptr inbounds (ptr, ptr @_ZTVN10__cxxabiv121__vmi_class_type_infoE, i64 2), ptr @_ZTS17DebugDrawcallback, i32 0, i32 2, ptr @_ZTI18btTriangleCallback, i64 2, ptr @_ZTI31btInternalTriangleIndexCallback, i64 2050 }, comdat, align 8

@_ZN23btDiscreteDynamicsWorldC1EP12btDispatcherP21btBroadphaseInterfaceP18btConstraintSolverP24btCollisionConfiguration = dso_local unnamed_addr alias void (ptr, ptr, ptr, ptr, ptr), ptr @_ZN23btDiscreteDynamicsWorldC2EP12btDispatcherP21btBroadphaseInterfaceP18btConstraintSolverP24btCollisionConfiguration
@_ZN23btDiscreteDynamicsWorldD1Ev = dso_local unnamed_addr alias void (ptr), ptr @_ZN23btDiscreteDynamicsWorldD2Ev

; Function Attrs: uwtable
define dso_local void @_ZN23btDiscreteDynamicsWorldC2EP12btDispatcherP21btBroadphaseInterfaceP18btConstraintSolverP24btCollisionConfiguration(ptr noundef nonnull align 8 dereferenceable(372) %0, ptr noundef %1, ptr noundef %2, ptr noundef %3, ptr noundef %4) unnamed_addr #0 align 2 personality ptr @__gxx_personality_v0 {
  tail call void @_ZN16btCollisionWorldC2EP12btDispatcherP21btBroadphaseInterfaceP24btCollisionConfiguration(ptr noundef nonnull align 8 dereferenceable(129) %0, ptr noundef %1, ptr noundef %2, ptr noundef %4)
  %6 = getelementptr inbounds %class.btDynamicsWorld, ptr %0, i64 0, i32 2
  %7 = getelementptr inbounds %class.btDynamicsWorld, ptr %0, i64 0, i32 5
  tail call void @llvm.memset.p0.i64(ptr noundef nonnull align 8 dereferenceable(24) %6, i8 0, i64 24, i1 false)
  store <2 x float> <float 0x3FE3333340000000, float 1.000000e+00>, ptr %7, align 8, !tbaa !5
  %8 = getelementptr inbounds %class.btDynamicsWorld, ptr %0, i64 0, i32 5, i32 0, i32 2
  store float 0x3FD3333340000000, ptr %8, align 8, !tbaa !9
  %9 = getelementptr inbounds %class.btDynamicsWorld, ptr %0, i64 0, i32 5, i32 0, i32 4
  store float 0.000000e+00, ptr %9, align 8, !tbaa !12
  %10 = getelementptr inbounds %class.btDynamicsWorld, ptr %0, i64 0, i32 5, i32 0, i32 6
  %11 = getelementptr inbounds %class.btDynamicsWorld, ptr %0, i64 0, i32 5, i32 0, i32 5
  store i32 10, ptr %11, align 4, !tbaa !13
  %12 = getelementptr inbounds %class.btDynamicsWorld, ptr %0, i64 0, i32 5, i32 0, i32 10
  store float 0.000000e+00, ptr %12, align 8, !tbaa !14
  store <4 x float> <float 2.000000e+01, float 1.000000e+00, float 0x3FC99999A0000000, float 0x3FB99999A0000000>, ptr %10, align 8, !tbaa !5
  %13 = getelementptr inbounds %class.btDynamicsWorld, ptr %0, i64 0, i32 5, i32 0, i32 11
  store i32 0, ptr %13, align 4, !tbaa !15
  %14 = getelementptr inbounds %class.btDynamicsWorld, ptr %0, i64 0, i32 5, i32 0, i32 12
  store <2 x float> <float 0xBF947AE140000000, float 0.000000e+00>, ptr %14, align 8, !tbaa !5
  %15 = getelementptr inbounds %class.btDynamicsWorld, ptr %0, i64 0, i32 5, i32 0, i32 14
  store float 0x3FEB333340000000, ptr %15, align 8, !tbaa !16
  %16 = getelementptr inbounds %class.btDynamicsWorld, ptr %0, i64 0, i32 5, i32 0, i32 15
  store i32 260, ptr %16, align 4, !tbaa !17
  %17 = getelementptr inbounds %class.btDynamicsWorld, ptr %0, i64 0, i32 5, i32 0, i32 16
  store i32 2, ptr %17, align 8, !tbaa !18
  store ptr getelementptr inbounds ({ [42 x ptr] }, ptr @_ZTV23btDiscreteDynamicsWorld, i64 0, inrange i32 0, i64 2), ptr %0, align 8, !tbaa !19
  %18 = getelementptr inbounds %class.btDiscreteDynamicsWorld, ptr %0, i64 0, i32 2
  store ptr %3, ptr %18, align 8, !tbaa !21
  %19 = getelementptr inbounds %class.btDiscreteDynamicsWorld, ptr %0, i64 0, i32 4
  %20 = getelementptr inbounds %class.btDiscreteDynamicsWorld, ptr %0, i64 0, i32 4, i32 6
  store i8 1, ptr %20, align 8, !tbaa !38
  %21 = getelementptr inbounds %class.btDiscreteDynamicsWorld, ptr %0, i64 0, i32 4, i32 5
  store ptr null, ptr %21, align 8, !tbaa !39
  %22 = getelementptr inbounds %class.btDiscreteDynamicsWorld, ptr %0, i64 0, i32 4, i32 2
  store i32 0, ptr %22, align 4, !tbaa !40
  %23 = getelementptr inbounds %class.btDiscreteDynamicsWorld, ptr %0, i64 0, i32 4, i32 3
  store i32 0, ptr %23, align 8, !tbaa !41
  %24 = getelementptr inbounds %class.btDiscreteDynamicsWorld, ptr %0, i64 0, i32 5
  %25 = getelementptr inbounds %class.btDiscreteDynamicsWorld, ptr %0, i64 0, i32 5, i32 6
  store i8 1, ptr %25, align 8, !tbaa !42
  %26 = getelementptr inbounds %class.btDiscreteDynamicsWorld, ptr %0, i64 0, i32 5, i32 5
  store ptr null, ptr %26, align 8, !tbaa !43
  %27 = getelementptr inbounds %class.btDiscreteDynamicsWorld, ptr %0, i64 0, i32 5, i32 2
  store i32 0, ptr %27, align 4, !tbaa !44
  %28 = getelementptr inbounds %class.btDiscreteDynamicsWorld, ptr %0, i64 0, i32 5, i32 3
  store i32 0, ptr %28, align 8, !tbaa !45
  %29 = getelementptr inbounds %class.btDiscreteDynamicsWorld, ptr %0, i64 0, i32 6
  store <4 x float> <float 0.000000e+00, float -1.000000e+01, float 0.000000e+00, float 0.000000e+00>, ptr %29, align 8, !tbaa !5
  %30 = getelementptr inbounds %class.btDiscreteDynamicsWorld, ptr %0, i64 0, i32 7
  store float 0x3F91111120000000, ptr %30, align 8, !tbaa !46
  %31 = getelementptr inbounds %class.btDiscreteDynamicsWorld, ptr %0, i64 0, i32 10
  store i8 0, ptr %31, align 2, !tbaa !47
  %32 = getelementptr inbounds %class.btDiscreteDynamicsWorld, ptr %0, i64 0, i32 12
  %33 = getelementptr inbounds %class.btDiscreteDynamicsWorld, ptr %0, i64 0, i32 12, i32 6
  store i8 1, ptr %33, align 8, !tbaa !48
  %34 = getelementptr inbounds %class.btDiscreteDynamicsWorld, ptr %0, i64 0, i32 12, i32 5
  store ptr null, ptr %34, align 8, !tbaa !49
  %35 = getelementptr inbounds %class.btDiscreteDynamicsWorld, ptr %0, i64 0, i32 12, i32 2
  store i32 0, ptr %35, align 4, !tbaa !50
  %36 = getelementptr inbounds %class.btDiscreteDynamicsWorld, ptr %0, i64 0, i32 12, i32 3
  store i32 0, ptr %36, align 8, !tbaa !51
  %37 = getelementptr inbounds %class.btDiscreteDynamicsWorld, ptr %0, i64 0, i32 13
  store i32 0, ptr %37, align 8, !tbaa !52
  %38 = icmp eq ptr %3, null
  br i1 %38, label %39, label %45

39:                                               ; preds = %5
  %40 = invoke noundef ptr @_Z22btAlignedAllocInternalmi(i64 noundef 240, i32 noundef 16)
          to label %41 unwind label %43

41:                                               ; preds = %39
  invoke void @_ZN35btSequentialImpulseConstraintSolverC1Ev(ptr noundef nonnull align 8 dereferenceable(240) %40)
          to label %42 unwind label %43

42:                                               ; preds = %41
  store ptr %40, ptr %18, align 8, !tbaa !21
  br label %45

43:                                               ; preds = %41, %39
  %44 = landingpad { ptr, i32 }
          cleanup
  br label %55

45:                                               ; preds = %5, %42
  %46 = phi i8 [ 1, %42 ], [ 0, %5 ]
  %47 = getelementptr inbounds %class.btDiscreteDynamicsWorld, ptr %0, i64 0, i32 9
  store i8 %46, ptr %47, align 1, !tbaa !53
  %48 = invoke noundef ptr @_Z22btAlignedAllocInternalmi(i64 noundef 112, i32 noundef 16)
          to label %49 unwind label %53

49:                                               ; preds = %45
  invoke void @_ZN25btSimulationIslandManagerC1Ev(ptr noundef nonnull align 8 dereferenceable(105) %48)
          to label %50 unwind label %53

50:                                               ; preds = %49
  %51 = getelementptr inbounds %class.btDiscreteDynamicsWorld, ptr %0, i64 0, i32 3
  store ptr %48, ptr %51, align 8, !tbaa !54
  %52 = getelementptr inbounds %class.btDiscreteDynamicsWorld, ptr %0, i64 0, i32 8
  store i8 1, ptr %52, align 4, !tbaa !55
  ret void

53:                                               ; preds = %49, %45
  %54 = landingpad { ptr, i32 }
          cleanup
  br label %55

55:                                               ; preds = %53, %43
  %56 = phi { ptr, i32 } [ %54, %53 ], [ %44, %43 ]
  invoke void @_ZN20btAlignedObjectArrayIP17btActionInterfaceED2Ev(ptr noundef nonnull align 8 dereferenceable(25) %32)
          to label %57 unwind label %61

57:                                               ; preds = %55
  invoke void @_ZN20btAlignedObjectArrayIP11btRigidBodyED2Ev(ptr noundef nonnull align 8 dereferenceable(25) %24)
          to label %58 unwind label %61

58:                                               ; preds = %57
  invoke void @_ZN20btAlignedObjectArrayIP17btTypedConstraintED2Ev(ptr noundef nonnull align 8 dereferenceable(25) %19)
          to label %59 unwind label %61

59:                                               ; preds = %58
  invoke void @_ZN16btCollisionWorldD2Ev(ptr noundef nonnull align 8 dereferenceable(228) %0)
          to label %60 unwind label %61

60:                                               ; preds = %59
  resume { ptr, i32 } %56

61:                                               ; preds = %59, %58, %57, %55
  %62 = landingpad { ptr, i32 }
          catch ptr null
  %63 = extractvalue { ptr, i32 } %62, 0
  tail call void @__clang_call_terminate(ptr %63) #20
  unreachable
}

declare i32 @__gxx_personality_v0(...)

; Function Attrs: mustprogress nocallback nofree nosync nounwind willreturn memory(argmem: readwrite)
declare void @llvm.lifetime.start.p0(i64 immarg, ptr nocapture) #1

; Function Attrs: mustprogress nocallback nofree nosync nounwind willreturn memory(argmem: readwrite)
declare void @llvm.lifetime.end.p0(i64 immarg, ptr nocapture) #1

declare noundef ptr @_Z22btAlignedAllocInternalmi(i64 noundef, i32 noundef) local_unnamed_addr #2

declare void @_ZN35btSequentialImpulseConstraintSolverC1Ev(ptr noundef nonnull align 8 dereferenceable(240)) unnamed_addr #2

declare void @_ZN25btSimulationIslandManagerC1Ev(ptr noundef nonnull align 8 dereferenceable(105)) unnamed_addr #2

; Function Attrs: uwtable
define linkonce_odr dso_local void @_ZN20btAlignedObjectArrayIP17btActionInterfaceED2Ev(ptr noundef nonnull align 8 dereferenceable(25) %0) unnamed_addr #0 comdat align 2 {
  %2 = getelementptr inbounds %class.btAlignedObjectArray.16, ptr %0, i64 0, i32 5
  %3 = load ptr, ptr %2, align 8, !tbaa !49
  %4 = icmp eq ptr %3, null
  %5 = getelementptr inbounds %class.btAlignedObjectArray.16, ptr %0, i64 0, i32 6
  %6 = load i8, ptr %5, align 8
  %7 = icmp eq i8 %6, 0
  %8 = select i1 %4, i1 true, i1 %7
  br i1 %8, label %10, label %9

9:                                                ; preds = %1
  tail call void @_Z21btAlignedFreeInternalPv(ptr noundef nonnull %3)
  br label %10

10:                                               ; preds = %1, %9
  store i8 1, ptr %5, align 8, !tbaa !48
  store ptr null, ptr %2, align 8, !tbaa !49
  %11 = getelementptr inbounds %class.btAlignedObjectArray.16, ptr %0, i64 0, i32 2
  store i32 0, ptr %11, align 4, !tbaa !50
  %12 = getelementptr inbounds %class.btAlignedObjectArray.16, ptr %0, i64 0, i32 3
  store i32 0, ptr %12, align 8, !tbaa !51
  ret void
}

; Function Attrs: noinline noreturn nounwind
define linkonce_odr hidden void @__clang_call_terminate(ptr noundef %0) local_unnamed_addr #3 comdat {
  %2 = tail call ptr @__cxa_begin_catch(ptr %0) #21
  tail call void @_ZSt9terminatev() #20
  unreachable
}

declare ptr @__cxa_begin_catch(ptr) local_unnamed_addr

declare void @_ZSt9terminatev() local_unnamed_addr

; Function Attrs: uwtable
define linkonce_odr dso_local void @_ZN20btAlignedObjectArrayIP11btRigidBodyED2Ev(ptr noundef nonnull align 8 dereferenceable(25) %0) unnamed_addr #0 comdat align 2 {
  %2 = getelementptr inbounds %class.btAlignedObjectArray.12, ptr %0, i64 0, i32 5
  %3 = load ptr, ptr %2, align 8, !tbaa !43
  %4 = icmp eq ptr %3, null
  %5 = getelementptr inbounds %class.btAlignedObjectArray.12, ptr %0, i64 0, i32 6
  %6 = load i8, ptr %5, align 8
  %7 = icmp eq i8 %6, 0
  %8 = select i1 %4, i1 true, i1 %7
  br i1 %8, label %10, label %9

9:                                                ; preds = %1
  tail call void @_Z21btAlignedFreeInternalPv(ptr noundef nonnull %3)
  br label %10

10:                                               ; preds = %1, %9
  store i8 1, ptr %5, align 8, !tbaa !42
  store ptr null, ptr %2, align 8, !tbaa !43
  %11 = getelementptr inbounds %class.btAlignedObjectArray.12, ptr %0, i64 0, i32 2
  store i32 0, ptr %11, align 4, !tbaa !44
  %12 = getelementptr inbounds %class.btAlignedObjectArray.12, ptr %0, i64 0, i32 3
  store i32 0, ptr %12, align 8, !tbaa !45
  ret void
}

; Function Attrs: uwtable
define linkonce_odr dso_local void @_ZN20btAlignedObjectArrayIP17btTypedConstraintED2Ev(ptr noundef nonnull align 8 dereferenceable(25) %0) unnamed_addr #0 comdat align 2 {
  %2 = getelementptr inbounds %class.btAlignedObjectArray.8, ptr %0, i64 0, i32 5
  %3 = load ptr, ptr %2, align 8, !tbaa !39
  %4 = icmp eq ptr %3, null
  %5 = getelementptr inbounds %class.btAlignedObjectArray.8, ptr %0, i64 0, i32 6
  %6 = load i8, ptr %5, align 8
  %7 = icmp eq i8 %6, 0
  %8 = select i1 %4, i1 true, i1 %7
  br i1 %8, label %10, label %9

9:                                                ; preds = %1
  tail call void @_Z21btAlignedFreeInternalPv(ptr noundef nonnull %3)
  br label %10

10:                                               ; preds = %1, %9
  store i8 1, ptr %5, align 8, !tbaa !38
  store ptr null, ptr %2, align 8, !tbaa !39
  %11 = getelementptr inbounds %class.btAlignedObjectArray.8, ptr %0, i64 0, i32 2
  store i32 0, ptr %11, align 4, !tbaa !40
  %12 = getelementptr inbounds %class.btAlignedObjectArray.8, ptr %0, i64 0, i32 3
  store i32 0, ptr %12, align 8, !tbaa !41
  ret void
}

; Function Attrs: uwtable
define dso_local void @_ZN23btDiscreteDynamicsWorldD2Ev(ptr noundef nonnull align 8 dereferenceable(372) %0) unnamed_addr #0 align 2 personality ptr @__gxx_personality_v0 {
  store ptr getelementptr inbounds ({ [42 x ptr] }, ptr @_ZTV23btDiscreteDynamicsWorld, i64 0, inrange i32 0, i64 2), ptr %0, align 8, !tbaa !19
  %2 = getelementptr inbounds %class.btDiscreteDynamicsWorld, ptr %0, i64 0, i32 8
  %3 = load i8, ptr %2, align 4, !tbaa !55, !range !56, !noundef !57
  %4 = icmp eq i8 %3, 0
  br i1 %4, label %15, label %5

5:                                                ; preds = %1
  %6 = getelementptr inbounds %class.btDiscreteDynamicsWorld, ptr %0, i64 0, i32 3
  %7 = load ptr, ptr %6, align 8, !tbaa !54
  %8 = load ptr, ptr %7, align 8, !tbaa !19
  %9 = load ptr, ptr %8, align 8
  invoke void %9(ptr noundef nonnull align 8 dereferenceable(105) %7)
          to label %10 unwind label %12

10:                                               ; preds = %5
  %11 = load ptr, ptr %6, align 8, !tbaa !54
  invoke void @_Z21btAlignedFreeInternalPv(ptr noundef %11)
          to label %15 unwind label %12

12:                                               ; preds = %24, %19, %10, %5
  %13 = landingpad { ptr, i32 }
          cleanup
  %14 = getelementptr inbounds %class.btDiscreteDynamicsWorld, ptr %0, i64 0, i32 12
  invoke void @_ZN20btAlignedObjectArrayIP17btActionInterfaceED2Ev(ptr noundef nonnull align 8 dereferenceable(25) %14)
          to label %64 unwind label %75

15:                                               ; preds = %10, %1
  %16 = getelementptr inbounds %class.btDiscreteDynamicsWorld, ptr %0, i64 0, i32 9
  %17 = load i8, ptr %16, align 1, !tbaa !53, !range !56, !noundef !57
  %18 = icmp eq i8 %17, 0
  br i1 %18, label %26, label %19

19:                                               ; preds = %15
  %20 = getelementptr inbounds %class.btDiscreteDynamicsWorld, ptr %0, i64 0, i32 2
  %21 = load ptr, ptr %20, align 8, !tbaa !21
  %22 = load ptr, ptr %21, align 8, !tbaa !19
  %23 = load ptr, ptr %22, align 8
  invoke void %23(ptr noundef nonnull align 8 dereferenceable(8) %21)
          to label %24 unwind label %12

24:                                               ; preds = %19
  %25 = load ptr, ptr %20, align 8, !tbaa !21
  invoke void @_Z21btAlignedFreeInternalPv(ptr noundef %25)
          to label %26 unwind label %12

26:                                               ; preds = %24, %15
  %27 = getelementptr inbounds %class.btDiscreteDynamicsWorld, ptr %0, i64 0, i32 12, i32 5
  %28 = load ptr, ptr %27, align 8, !tbaa !49
  %29 = icmp eq ptr %28, null
  %30 = getelementptr inbounds %class.btDiscreteDynamicsWorld, ptr %0, i64 0, i32 12, i32 6
  %31 = load i8, ptr %30, align 8
  %32 = icmp eq i8 %31, 0
  %33 = select i1 %29, i1 true, i1 %32
  br i1 %33, label %35, label %34

34:                                               ; preds = %26
  invoke void @_Z21btAlignedFreeInternalPv(ptr noundef nonnull %28)
          to label %35 unwind label %60

35:                                               ; preds = %34, %26
  store i8 1, ptr %30, align 8, !tbaa !48
  store ptr null, ptr %27, align 8, !tbaa !49
  %36 = getelementptr inbounds %class.btDiscreteDynamicsWorld, ptr %0, i64 0, i32 12, i32 2
  store i32 0, ptr %36, align 4, !tbaa !50
  %37 = getelementptr inbounds %class.btDiscreteDynamicsWorld, ptr %0, i64 0, i32 12, i32 3
  store i32 0, ptr %37, align 8, !tbaa !51
  %38 = getelementptr inbounds %class.btDiscreteDynamicsWorld, ptr %0, i64 0, i32 5, i32 5
  %39 = load ptr, ptr %38, align 8, !tbaa !43
  %40 = icmp eq ptr %39, null
  %41 = getelementptr inbounds %class.btDiscreteDynamicsWorld, ptr %0, i64 0, i32 5, i32 6
  %42 = load i8, ptr %41, align 8
  %43 = icmp eq i8 %42, 0
  %44 = select i1 %40, i1 true, i1 %43
  br i1 %44, label %46, label %45

45:                                               ; preds = %35
  invoke void @_Z21btAlignedFreeInternalPv(ptr noundef nonnull %39)
          to label %46 unwind label %62

46:                                               ; preds = %45, %35
  store i8 1, ptr %41, align 8, !tbaa !42
  store ptr null, ptr %38, align 8, !tbaa !43
  %47 = getelementptr inbounds %class.btDiscreteDynamicsWorld, ptr %0, i64 0, i32 5, i32 2
  store i32 0, ptr %47, align 4, !tbaa !44
  %48 = getelementptr inbounds %class.btDiscreteDynamicsWorld, ptr %0, i64 0, i32 5, i32 3
  store i32 0, ptr %48, align 8, !tbaa !45
  %49 = getelementptr inbounds %class.btDiscreteDynamicsWorld, ptr %0, i64 0, i32 4, i32 5
  %50 = load ptr, ptr %49, align 8, !tbaa !39
  %51 = icmp eq ptr %50, null
  %52 = getelementptr inbounds %class.btDiscreteDynamicsWorld, ptr %0, i64 0, i32 4, i32 6
  %53 = load i8, ptr %52, align 8
  %54 = icmp eq i8 %53, 0
  %55 = select i1 %51, i1 true, i1 %54
  br i1 %55, label %57, label %56

56:                                               ; preds = %46
  invoke void @_Z21btAlignedFreeInternalPv(ptr noundef nonnull %50)
          to label %57 unwind label %67

57:                                               ; preds = %56, %46
  store i8 1, ptr %52, align 8, !tbaa !38
  store ptr null, ptr %49, align 8, !tbaa !39
  %58 = getelementptr inbounds %class.btDiscreteDynamicsWorld, ptr %0, i64 0, i32 4, i32 2
  store i32 0, ptr %58, align 4, !tbaa !40
  %59 = getelementptr inbounds %class.btDiscreteDynamicsWorld, ptr %0, i64 0, i32 4, i32 3
  store i32 0, ptr %59, align 8, !tbaa !41
  tail call void @_ZN16btCollisionWorldD2Ev(ptr noundef nonnull align 8 dereferenceable(228) %0)
  ret void

60:                                               ; preds = %34
  %61 = landingpad { ptr, i32 }
          cleanup
  br label %64

62:                                               ; preds = %45
  %63 = landingpad { ptr, i32 }
          cleanup
  br label %69

64:                                               ; preds = %12, %60
  %65 = phi { ptr, i32 } [ %61, %60 ], [ %13, %12 ]
  %66 = getelementptr inbounds %class.btDiscreteDynamicsWorld, ptr %0, i64 0, i32 5
  invoke void @_ZN20btAlignedObjectArrayIP11btRigidBodyED2Ev(ptr noundef nonnull align 8 dereferenceable(25) %66)
          to label %69 unwind label %75

67:                                               ; preds = %56
  %68 = landingpad { ptr, i32 }
          cleanup
  br label %72

69:                                               ; preds = %64, %62
  %70 = phi { ptr, i32 } [ %63, %62 ], [ %65, %64 ]
  %71 = getelementptr inbounds %class.btDiscreteDynamicsWorld, ptr %0, i64 0, i32 4
  invoke void @_ZN20btAlignedObjectArrayIP17btTypedConstraintED2Ev(ptr noundef nonnull align 8 dereferenceable(25) %71)
          to label %72 unwind label %75

72:                                               ; preds = %69, %67
  %73 = phi { ptr, i32 } [ %68, %67 ], [ %70, %69 ]
  invoke void @_ZN16btCollisionWorldD2Ev(ptr noundef nonnull align 8 dereferenceable(228) %0)
          to label %74 unwind label %75

74:                                               ; preds = %72
  resume { ptr, i32 } %73

75:                                               ; preds = %72, %69, %64, %12
  %76 = landingpad { ptr, i32 }
          catch ptr null
  %77 = extractvalue { ptr, i32 } %76, 0
  tail call void @__clang_call_terminate(ptr %77) #20
  unreachable
}

declare void @_Z21btAlignedFreeInternalPv(ptr noundef) local_unnamed_addr #2

; Function Attrs: uwtable
define dso_local void @_ZN23btDiscreteDynamicsWorldD0Ev(ptr noundef nonnull align 8 dereferenceable(372) %0) unnamed_addr #0 align 2 personality ptr @__gxx_personality_v0 {
  invoke void @_ZN23btDiscreteDynamicsWorldD2Ev(ptr noundef nonnull align 8 dereferenceable(372) %0)
          to label %2 unwind label %3

2:                                                ; preds = %1
  tail call void @_ZdlPv(ptr noundef nonnull %0) #22
  ret void

3:                                                ; preds = %1
  %4 = landingpad { ptr, i32 }
          cleanup
  tail call void @_ZdlPv(ptr noundef nonnull %0) #22
  resume { ptr, i32 } %4
}

; Function Attrs: nobuiltin nounwind
declare void @_ZdlPv(ptr noundef) local_unnamed_addr #4

; Function Attrs: uwtable
define dso_local void @_ZN23btDiscreteDynamicsWorld18saveKinematicStateEf(ptr nocapture noundef nonnull readonly align 8 dereferenceable(372) %0, float noundef %1) unnamed_addr #0 align 2 {
  %3 = getelementptr inbounds %class.btCollisionWorld, ptr %0, i64 0, i32 1, i32 2
  %4 = load i32, ptr %3, align 4, !tbaa !58
  %5 = icmp sgt i32 %4, 0
  br i1 %5, label %6, label %8

6:                                                ; preds = %2
  %7 = getelementptr inbounds %class.btCollisionWorld, ptr %0, i64 0, i32 1, i32 5
  br label %9

8:                                                ; preds = %31, %2
  ret void

9:                                                ; preds = %6, %31
  %10 = phi i32 [ %4, %6 ], [ %32, %31 ]
  %11 = phi i64 [ 0, %6 ], [ %33, %31 ]
  %12 = load ptr, ptr %7, align 8, !tbaa !59
  %13 = getelementptr inbounds ptr, ptr %12, i64 %11
  %14 = load ptr, ptr %13, align 8, !tbaa !60
  %15 = getelementptr inbounds %class.btCollisionObject, ptr %14, i64 0, i32 19
  %16 = load i32, ptr %15, align 8, !tbaa !61
  %17 = icmp ne i32 %16, 2
  %18 = icmp eq ptr %14, null
  %19 = select i1 %17, i1 true, i1 %18
  br i1 %19, label %31, label %20

20:                                               ; preds = %9
  %21 = getelementptr inbounds %class.btCollisionObject, ptr %14, i64 0, i32 14
  %22 = load i32, ptr %21, align 4, !tbaa !65
  %23 = icmp eq i32 %22, 2
  br i1 %23, label %31, label %24

24:                                               ; preds = %20
  %25 = getelementptr inbounds %class.btCollisionObject, ptr %14, i64 0, i32 11
  %26 = load i32, ptr %25, align 8, !tbaa !66
  %27 = and i32 %26, 2
  %28 = icmp eq i32 %27, 0
  br i1 %28, label %31, label %29

29:                                               ; preds = %24
  tail call void @_ZN11btRigidBody18saveKinematicStateEf(ptr noundef nonnull align 8 dereferenceable(564) %14, float noundef %1)
  %30 = load i32, ptr %3, align 4, !tbaa !58
  br label %31

31:                                               ; preds = %24, %29, %20, %9
  %32 = phi i32 [ %10, %24 ], [ %30, %29 ], [ %10, %20 ], [ %10, %9 ]
  %33 = add nuw nsw i64 %11, 1
  %34 = sext i32 %32 to i64
  %35 = icmp slt i64 %33, %34
  br i1 %35, label %9, label %8
}

declare void @_ZN11btRigidBody18saveKinematicStateEf(ptr noundef nonnull align 8 dereferenceable(564), float noundef) local_unnamed_addr #2

; Function Attrs: uwtable
define dso_local void @_ZN23btDiscreteDynamicsWorld14debugDrawWorldEv(ptr noundef nonnull align 8 dereferenceable(372) %0) unnamed_addr #0 align 2 personality ptr @__gxx_personality_v0 {
  %2 = alloca %class.btVector3, align 4
  %3 = alloca %class.btVector3, align 4
  %4 = alloca %class.btVector3, align 4
  %5 = alloca %class.btVector3, align 4
  %6 = alloca %class.btVector3, align 16
  tail call void @_ZN15CProfileManager13Start_ProfileEPKc(ptr noundef nonnull @.str)
  %7 = load ptr, ptr %0, align 8, !tbaa !19
  %8 = getelementptr inbounds ptr, ptr %7, i64 4
  %9 = load ptr, ptr %8, align 8
  %10 = invoke noundef ptr %9(ptr noundef nonnull align 8 dereferenceable(129) %0)
          to label %11 unwind label %36

11:                                               ; preds = %1
  %12 = icmp eq ptr %10, null
  br i1 %12, label %81, label %13

13:                                               ; preds = %11
  %14 = load ptr, ptr %0, align 8, !tbaa !19
  %15 = getelementptr inbounds ptr, ptr %14, i64 4
  %16 = load ptr, ptr %15, align 8
  %17 = invoke noundef ptr %16(ptr noundef nonnull align 8 dereferenceable(129) %0)
          to label %18 unwind label %36

18:                                               ; preds = %13
  %19 = load ptr, ptr %17, align 8, !tbaa !19
  %20 = getelementptr inbounds ptr, ptr %19, i64 12
  %21 = load ptr, ptr %20, align 8
  %22 = invoke noundef i32 %21(ptr noundef nonnull align 8 dereferenceable(8) %17)
          to label %23 unwind label %36

23:                                               ; preds = %18
  %24 = and i32 %22, 8
  %25 = icmp eq i32 %24, 0
  br i1 %25, label %81, label %26

26:                                               ; preds = %23
  %27 = getelementptr inbounds %class.btCollisionWorld, ptr %0, i64 0, i32 2
  %28 = load ptr, ptr %27, align 8, !tbaa !67
  %29 = load ptr, ptr %28, align 8, !tbaa !19
  %30 = getelementptr inbounds ptr, ptr %29, i64 9
  %31 = load ptr, ptr %30, align 8
  %32 = invoke noundef i32 %31(ptr noundef nonnull align 8 dereferenceable(8) %28)
          to label %33 unwind label %38

33:                                               ; preds = %26
  call void @llvm.lifetime.start.p0(i64 16, ptr nonnull %2) #21
  %34 = icmp sgt i32 %32, 0
  call void @llvm.memset.p0.i64(ptr noundef nonnull align 4 dereferenceable(16) %2, i8 0, i64 16, i1 false)
  br i1 %34, label %40, label %35

35:                                               ; preds = %53, %33
  call void @llvm.lifetime.end.p0(i64 16, ptr nonnull %2) #21
  br label %81

36:                                               ; preds = %18, %13, %1
  %37 = landingpad { ptr, i32 }
          cleanup
  br label %269

38:                                               ; preds = %26
  %39 = landingpad { ptr, i32 }
          cleanup
  br label %269

40:                                               ; preds = %33, %53
  %41 = phi i32 [ %54, %53 ], [ 0, %33 ]
  %42 = load ptr, ptr %27, align 8, !tbaa !67
  %43 = load ptr, ptr %42, align 8, !tbaa !19
  %44 = getelementptr inbounds ptr, ptr %43, i64 10
  %45 = load ptr, ptr %44, align 8
  %46 = invoke noundef ptr %45(ptr noundef nonnull align 8 dereferenceable(8) %42, i32 noundef %41)
          to label %47 unwind label %56

47:                                               ; preds = %40
  %48 = getelementptr inbounds %class.btPersistentManifold, ptr %46, i64 0, i32 5
  %49 = load i32, ptr %48, align 8, !tbaa !68
  %50 = icmp sgt i32 %49, 0
  br i1 %50, label %51, label %53

51:                                               ; preds = %47
  %52 = zext i32 %49 to i64
  br label %58

53:                                               ; preds = %74, %47
  %54 = add nuw nsw i32 %41, 1
  %55 = icmp eq i32 %54, %32
  br i1 %55, label %35, label %40

56:                                               ; preds = %40
  %57 = landingpad { ptr, i32 }
          cleanup
  br label %79

58:                                               ; preds = %51, %74
  %59 = phi i64 [ 0, %51 ], [ %75, %74 ]
  %60 = load ptr, ptr %0, align 8, !tbaa !19
  %61 = getelementptr inbounds ptr, ptr %60, i64 4
  %62 = load ptr, ptr %61, align 8
  %63 = invoke noundef ptr %62(ptr noundef nonnull align 8 dereferenceable(129) %0)
          to label %64 unwind label %77

64:                                               ; preds = %58
  %65 = getelementptr inbounds %class.btPersistentManifold, ptr %46, i64 0, i32 2, i64 %59, i32 2
  %66 = getelementptr inbounds %class.btPersistentManifold, ptr %46, i64 0, i32 2, i64 %59, i32 4
  %67 = getelementptr inbounds %class.btPersistentManifold, ptr %46, i64 0, i32 2, i64 %59, i32 5
  %68 = load float, ptr %67, align 8, !tbaa !71
  %69 = getelementptr inbounds %class.btPersistentManifold, ptr %46, i64 0, i32 2, i64 %59, i32 19
  %70 = load i32, ptr %69, align 8, !tbaa !73
  %71 = load ptr, ptr %63, align 8, !tbaa !19
  %72 = getelementptr inbounds ptr, ptr %71, i64 8
  %73 = load ptr, ptr %72, align 8
  invoke void %73(ptr noundef nonnull align 8 dereferenceable(8) %63, ptr noundef nonnull align 4 dereferenceable(16) %65, ptr noundef nonnull align 4 dereferenceable(16) %66, float noundef %68, i32 noundef %70, ptr noundef nonnull align 4 dereferenceable(16) %2)
          to label %74 unwind label %77

74:                                               ; preds = %64
  %75 = add nuw nsw i64 %59, 1
  %76 = icmp eq i64 %75, %52
  br i1 %76, label %53, label %58

77:                                               ; preds = %64, %58
  %78 = landingpad { ptr, i32 }
          cleanup
  br label %79

79:                                               ; preds = %77, %56
  %80 = phi { ptr, i32 } [ %78, %77 ], [ %57, %56 ]
  call void @llvm.lifetime.end.p0(i64 16, ptr nonnull %2) #21
  br label %269

81:                                               ; preds = %35, %23, %11
  %82 = load ptr, ptr %0, align 8, !tbaa !19
  %83 = getelementptr inbounds ptr, ptr %82, i64 4
  %84 = load ptr, ptr %83, align 8
  %85 = invoke noundef ptr %84(ptr noundef nonnull align 8 dereferenceable(129) %0)
          to label %86 unwind label %101

86:                                               ; preds = %81
  %87 = icmp eq ptr %85, null
  br i1 %87, label %124, label %88

88:                                               ; preds = %86
  %89 = load ptr, ptr %0, align 8, !tbaa !19
  %90 = getelementptr inbounds ptr, ptr %89, i64 4
  %91 = load ptr, ptr %90, align 8
  %92 = invoke noundef ptr %91(ptr noundef nonnull align 8 dereferenceable(129) %0)
          to label %93 unwind label %103

93:                                               ; preds = %88
  %94 = load ptr, ptr %92, align 8, !tbaa !19
  %95 = getelementptr inbounds ptr, ptr %94, i64 12
  %96 = load ptr, ptr %95, align 8
  %97 = invoke noundef i32 %96(ptr noundef nonnull align 8 dereferenceable(8) %92)
          to label %98 unwind label %103

98:                                               ; preds = %93
  %99 = and i32 %97, 6144
  %100 = icmp eq i32 %99, 0
  br i1 %100, label %124, label %105

101:                                              ; preds = %136, %131, %124, %81
  %102 = landingpad { ptr, i32 }
          cleanup
  br label %269

103:                                              ; preds = %93, %88
  %104 = landingpad { ptr, i32 }
          cleanup
  br label %269

105:                                              ; preds = %98
  %106 = load ptr, ptr %0, align 8, !tbaa !19
  %107 = getelementptr inbounds ptr, ptr %106, i64 21
  %108 = load ptr, ptr %107, align 8
  %109 = invoke noundef i32 %108(ptr noundef nonnull align 8 dereferenceable(372) %0)
          to label %110 unwind label %114

110:                                              ; preds = %105, %121
  %111 = phi i32 [ %112, %121 ], [ %109, %105 ]
  %112 = add nsw i32 %111, -1
  %113 = icmp sgt i32 %111, 0
  br i1 %113, label %116, label %124

114:                                              ; preds = %105
  %115 = landingpad { ptr, i32 }
          cleanup
  br label %269

116:                                              ; preds = %110
  %117 = load ptr, ptr %0, align 8, !tbaa !19
  %118 = getelementptr inbounds ptr, ptr %117, i64 22
  %119 = load ptr, ptr %118, align 8
  %120 = invoke noundef ptr %119(ptr noundef nonnull align 8 dereferenceable(372) %0, i32 noundef %112)
          to label %121 unwind label %122

121:                                              ; preds = %116
  invoke void @_ZN23btDiscreteDynamicsWorld19debugDrawConstraintEP17btTypedConstraint(ptr noundef nonnull align 8 dereferenceable(372) %0, ptr noundef %120)
          to label %110 unwind label %122

122:                                              ; preds = %121, %116
  %123 = landingpad { ptr, i32 }
          cleanup
  br label %269

124:                                              ; preds = %110, %86, %98
  %125 = load ptr, ptr %0, align 8, !tbaa !19
  %126 = getelementptr inbounds ptr, ptr %125, i64 4
  %127 = load ptr, ptr %126, align 8
  %128 = invoke noundef ptr %127(ptr noundef nonnull align 8 dereferenceable(129) %0)
          to label %129 unwind label %101

129:                                              ; preds = %124
  %130 = icmp eq ptr %128, null
  br i1 %130, label %268, label %131

131:                                              ; preds = %129
  %132 = load ptr, ptr %0, align 8, !tbaa !19
  %133 = getelementptr inbounds ptr, ptr %132, i64 4
  %134 = load ptr, ptr %133, align 8
  %135 = invoke noundef ptr %134(ptr noundef nonnull align 8 dereferenceable(129) %0)
          to label %136 unwind label %101

136:                                              ; preds = %131
  %137 = load ptr, ptr %135, align 8, !tbaa !19
  %138 = getelementptr inbounds ptr, ptr %137, i64 12
  %139 = load ptr, ptr %138, align 8
  %140 = invoke noundef i32 %139(ptr noundef nonnull align 8 dereferenceable(8) %135)
          to label %141 unwind label %101

141:                                              ; preds = %136
  %142 = and i32 %140, 3
  %143 = icmp eq i32 %142, 0
  br i1 %143, label %268, label %144

144:                                              ; preds = %141
  %145 = getelementptr inbounds %class.btCollisionWorld, ptr %0, i64 0, i32 1, i32 2
  %146 = load i32, ptr %145, align 4, !tbaa !58
  %147 = icmp sgt i32 %146, 0
  br i1 %147, label %148, label %228

148:                                              ; preds = %144
  %149 = getelementptr inbounds %class.btCollisionWorld, ptr %0, i64 0, i32 1, i32 5
  %150 = getelementptr inbounds [4 x float], ptr %3, i64 0, i64 1
  %151 = getelementptr inbounds [4 x float], ptr %3, i64 0, i64 3
  %152 = getelementptr inbounds %class.btCollisionWorld, ptr %0, i64 0, i32 6
  br label %153

153:                                              ; preds = %148, %223
  %154 = phi i64 [ 0, %148 ], [ %224, %223 ]
  %155 = load ptr, ptr %149, align 8, !tbaa !59
  %156 = getelementptr inbounds ptr, ptr %155, i64 %154
  %157 = load ptr, ptr %156, align 8, !tbaa !60
  %158 = load ptr, ptr %0, align 8, !tbaa !19
  %159 = getelementptr inbounds ptr, ptr %158, i64 4
  %160 = load ptr, ptr %159, align 8
  %161 = invoke noundef ptr %160(ptr noundef nonnull align 8 dereferenceable(129) %0)
          to label %162 unwind label %184

162:                                              ; preds = %153
  %163 = icmp eq ptr %161, null
  br i1 %163, label %200, label %164

164:                                              ; preds = %162
  %165 = load ptr, ptr %0, align 8, !tbaa !19
  %166 = getelementptr inbounds ptr, ptr %165, i64 4
  %167 = load ptr, ptr %166, align 8
  %168 = invoke noundef ptr %167(ptr noundef nonnull align 8 dereferenceable(129) %0)
          to label %169 unwind label %184

169:                                              ; preds = %164
  %170 = load ptr, ptr %168, align 8, !tbaa !19
  %171 = getelementptr inbounds ptr, ptr %170, i64 12
  %172 = load ptr, ptr %171, align 8
  %173 = invoke noundef i32 %172(ptr noundef nonnull align 8 dereferenceable(8) %168)
          to label %174 unwind label %184

174:                                              ; preds = %169
  %175 = and i32 %173, 1
  %176 = icmp eq i32 %175, 0
  br i1 %176, label %200, label %177

177:                                              ; preds = %174
  call void @llvm.lifetime.start.p0(i64 16, ptr nonnull %3) #21
  %178 = getelementptr inbounds %class.btCollisionObject, ptr %157, i64 0, i32 14
  %179 = load i32, ptr %178, align 4, !tbaa !65
  switch i32 %179, label %193 [
    i32 1, label %188
    i32 2, label %189
    i32 3, label %190
    i32 4, label %191
    i32 5, label %192
  ]

180:                                              ; preds = %254
  %181 = landingpad { ptr, i32 }
          cleanup
  br label %269

182:                                              ; preds = %228, %235, %240
  %183 = landingpad { ptr, i32 }
          cleanup
  br label %269

184:                                              ; preds = %203, %169, %164, %153
  %185 = landingpad { ptr, i32 }
          cleanup
  br label %269

186:                                              ; preds = %194
  %187 = landingpad { ptr, i32 }
          cleanup
  call void @llvm.lifetime.end.p0(i64 16, ptr nonnull %3) #21
  br label %269

188:                                              ; preds = %177
  store float 2.550000e+02, ptr %3, align 4, !tbaa.struct !74
  br label %194

189:                                              ; preds = %177
  store float 0.000000e+00, ptr %3, align 4, !tbaa.struct !74
  br label %194

190:                                              ; preds = %177
  store float 0.000000e+00, ptr %3, align 4, !tbaa.struct !74
  br label %194

191:                                              ; preds = %177
  store float 2.550000e+02, ptr %3, align 4, !tbaa.struct !74
  br label %194

192:                                              ; preds = %177
  store float 2.550000e+02, ptr %3, align 4, !tbaa.struct !74
  br label %194

193:                                              ; preds = %177
  store float 2.550000e+02, ptr %3, align 4, !tbaa.struct !74
  br label %194

194:                                              ; preds = %193, %192, %191, %190, %189, %188
  %195 = phi <2 x float> [ zeroinitializer, %193 ], [ <float 2.550000e+02, float 0.000000e+00>, %192 ], [ zeroinitializer, %191 ], [ <float 2.550000e+02, float 2.550000e+02>, %190 ], [ <float 2.550000e+02, float 0.000000e+00>, %189 ], [ <float 2.550000e+02, float 2.550000e+02>, %188 ]
  store <2 x float> %195, ptr %150, align 4
  store float 0.000000e+00, ptr %151, align 4
  %196 = getelementptr inbounds %class.btCollisionObject, ptr %157, i64 0, i32 1
  %197 = getelementptr inbounds %class.btCollisionObject, ptr %157, i64 0, i32 9
  %198 = load ptr, ptr %197, align 8, !tbaa !76
  invoke void @_ZN23btDiscreteDynamicsWorld15debugDrawObjectERK11btTransformPK16btCollisionShapeRK9btVector3(ptr noundef nonnull align 8 dereferenceable(372) %0, ptr noundef nonnull align 4 dereferenceable(64) %196, ptr noundef %198, ptr noundef nonnull align 4 dereferenceable(16) %3)
          to label %199 unwind label %186

199:                                              ; preds = %194
  call void @llvm.lifetime.end.p0(i64 16, ptr nonnull %3) #21
  br label %200

200:                                              ; preds = %199, %174, %162
  %201 = load ptr, ptr %152, align 8, !tbaa !77
  %202 = icmp eq ptr %201, null
  br i1 %202, label %223, label %203

203:                                              ; preds = %200
  %204 = load ptr, ptr %201, align 8, !tbaa !19
  %205 = getelementptr inbounds ptr, ptr %204, i64 12
  %206 = load ptr, ptr %205, align 8
  %207 = invoke noundef i32 %206(ptr noundef nonnull align 8 dereferenceable(8) %201)
          to label %208 unwind label %184

208:                                              ; preds = %203
  %209 = and i32 %207, 2
  %210 = icmp eq i32 %209, 0
  br i1 %210, label %223, label %211

211:                                              ; preds = %208
  call void @llvm.lifetime.start.p0(i64 16, ptr nonnull %4) #21
  call void @llvm.lifetime.start.p0(i64 16, ptr nonnull %5) #21
  call void @llvm.lifetime.start.p0(i64 16, ptr nonnull %6) #21
  store <4 x float> <float 1.000000e+00, float 0.000000e+00, float 0.000000e+00, float 0.000000e+00>, ptr %6, align 16, !tbaa !5
  %212 = getelementptr inbounds %class.btCollisionObject, ptr %157, i64 0, i32 9
  %213 = load ptr, ptr %212, align 8, !tbaa !76
  %214 = getelementptr inbounds %class.btCollisionObject, ptr %157, i64 0, i32 1
  %215 = load ptr, ptr %213, align 8, !tbaa !19
  %216 = getelementptr inbounds ptr, ptr %215, i64 2
  %217 = load ptr, ptr %216, align 8
  invoke void %217(ptr noundef nonnull align 8 dereferenceable(24) %213, ptr noundef nonnull align 4 dereferenceable(64) %214, ptr noundef nonnull align 4 dereferenceable(16) %4, ptr noundef nonnull align 4 dereferenceable(16) %5)
          to label %218 unwind label %221

218:                                              ; preds = %211
  %219 = load ptr, ptr %152, align 8, !tbaa !77
  invoke void @_ZN12btIDebugDraw8drawAabbERK9btVector3S2_S2_(ptr noundef nonnull align 8 dereferenceable(8) %219, ptr noundef nonnull align 4 dereferenceable(16) %4, ptr noundef nonnull align 4 dereferenceable(16) %5, ptr noundef nonnull align 4 dereferenceable(16) %6)
          to label %220 unwind label %221

220:                                              ; preds = %218
  call void @llvm.lifetime.end.p0(i64 16, ptr nonnull %6) #21
  call void @llvm.lifetime.end.p0(i64 16, ptr nonnull %5) #21
  call void @llvm.lifetime.end.p0(i64 16, ptr nonnull %4) #21
  br label %223

221:                                              ; preds = %218, %211
  %222 = landingpad { ptr, i32 }
          cleanup
  call void @llvm.lifetime.end.p0(i64 16, ptr nonnull %6) #21
  call void @llvm.lifetime.end.p0(i64 16, ptr nonnull %5) #21
  call void @llvm.lifetime.end.p0(i64 16, ptr nonnull %4) #21
  br label %269

223:                                              ; preds = %220, %208, %200
  %224 = add nuw nsw i64 %154, 1
  %225 = load i32, ptr %145, align 4, !tbaa !58
  %226 = sext i32 %225 to i64
  %227 = icmp slt i64 %224, %226
  br i1 %227, label %153, label %228

228:                                              ; preds = %223, %144
  %229 = load ptr, ptr %0, align 8, !tbaa !19
  %230 = getelementptr inbounds ptr, ptr %229, i64 4
  %231 = load ptr, ptr %230, align 8
  %232 = invoke noundef ptr %231(ptr noundef nonnull align 8 dereferenceable(129) %0)
          to label %233 unwind label %182

233:                                              ; preds = %228
  %234 = icmp eq ptr %232, null
  br i1 %234, label %268, label %235

235:                                              ; preds = %233
  %236 = load ptr, ptr %0, align 8, !tbaa !19
  %237 = getelementptr inbounds ptr, ptr %236, i64 4
  %238 = load ptr, ptr %237, align 8
  %239 = invoke noundef ptr %238(ptr noundef nonnull align 8 dereferenceable(129) %0)
          to label %240 unwind label %182

240:                                              ; preds = %235
  %241 = load ptr, ptr %239, align 8, !tbaa !19
  %242 = getelementptr inbounds ptr, ptr %241, i64 12
  %243 = load ptr, ptr %242, align 8
  %244 = invoke noundef i32 %243(ptr noundef nonnull align 8 dereferenceable(8) %239)
          to label %245 unwind label %182

245:                                              ; preds = %240
  %246 = icmp eq i32 %244, 0
  br i1 %246, label %268, label %247

247:                                              ; preds = %245
  %248 = getelementptr inbounds %class.btDiscreteDynamicsWorld, ptr %0, i64 0, i32 12, i32 2
  %249 = load i32, ptr %248, align 4, !tbaa !50
  %250 = icmp sgt i32 %249, 0
  br i1 %250, label %251, label %268

251:                                              ; preds = %247
  %252 = getelementptr inbounds %class.btDiscreteDynamicsWorld, ptr %0, i64 0, i32 12, i32 5
  %253 = getelementptr inbounds %class.btCollisionWorld, ptr %0, i64 0, i32 6
  br label %254

254:                                              ; preds = %251, %263
  %255 = phi i64 [ 0, %251 ], [ %264, %263 ]
  %256 = load ptr, ptr %252, align 8, !tbaa !49
  %257 = getelementptr inbounds ptr, ptr %256, i64 %255
  %258 = load ptr, ptr %257, align 8, !tbaa !60
  %259 = load ptr, ptr %253, align 8, !tbaa !77
  %260 = load ptr, ptr %258, align 8, !tbaa !19
  %261 = getelementptr inbounds ptr, ptr %260, i64 3
  %262 = load ptr, ptr %261, align 8
  invoke void %262(ptr noundef nonnull align 8 dereferenceable(8) %258, ptr noundef %259)
          to label %263 unwind label %180

263:                                              ; preds = %254
  %264 = add nuw nsw i64 %255, 1
  %265 = load i32, ptr %248, align 4, !tbaa !50
  %266 = sext i32 %265 to i64
  %267 = icmp slt i64 %264, %266
  br i1 %267, label %254, label %268

268:                                              ; preds = %263, %247, %233, %245, %141, %129
  call void @_ZN15CProfileManager12Stop_ProfileEv()
  ret void

269:                                              ; preds = %180, %182, %101, %103, %122, %114, %184, %186, %221, %38, %79, %36
  %270 = phi { ptr, i32 } [ %37, %36 ], [ %80, %79 ], [ %39, %38 ], [ %102, %101 ], [ %104, %103 ], [ %123, %122 ], [ %115, %114 ], [ %222, %221 ], [ %185, %184 ], [ %187, %186 ], [ %181, %180 ], [ %183, %182 ]
  invoke void @_ZN15CProfileManager12Stop_ProfileEv()
          to label %271 unwind label %272

271:                                              ; preds = %269
  resume { ptr, i32 } %270

272:                                              ; preds = %269
  %273 = landingpad { ptr, i32 }
          catch ptr null
  %274 = extractvalue { ptr, i32 } %273, 0
  call void @__clang_call_terminate(ptr %274) #20
  unreachable
}

; Function Attrs: uwtable
define dso_local void @_ZN23btDiscreteDynamicsWorld19debugDrawConstraintEP17btTypedConstraint(ptr noundef nonnull align 8 dereferenceable(372) %0, ptr noundef %1) local_unnamed_addr #5 align 2 {
  %3 = alloca %class.btTransform, align 4
  %4 = alloca %class.btTransform, align 16
  %5 = alloca %class.btVector3, align 8
  %6 = alloca %class.btVector3, align 8
  %7 = alloca %class.btVector3, align 4
  %8 = alloca %class.btTransform, align 16
  %9 = alloca %class.btVector3, align 8
  %10 = alloca %class.btVector3, align 8
  %11 = alloca %class.btVector3, align 4
  %12 = alloca %class.btVector3, align 4
  %13 = alloca %class.btVector3, align 4
  %14 = alloca %class.btVector3, align 8
  %15 = alloca %class.btVector3, align 8
  %16 = alloca %class.btVector3, align 4
  %17 = alloca %class.btTransform, align 16
  %18 = alloca %class.btVector3, align 8
  %19 = alloca %class.btVector3, align 8
  %20 = alloca %class.btVector3, align 4
  %21 = alloca %class.btVector3, align 8
  %22 = alloca %class.btVector3, align 8
  %23 = alloca %class.btVector3, align 4
  %24 = alloca %class.btVector3, align 4
  %25 = alloca %class.btVector3, align 4
  %26 = alloca %class.btVector3, align 4
  %27 = alloca %class.btVector3, align 4
  %28 = alloca %class.btTransform, align 4
  %29 = alloca %class.btVector3, align 8
  %30 = alloca %class.btVector3, align 8
  %31 = alloca %class.btVector3, align 4
  %32 = alloca %class.btVector3, align 8
  %33 = alloca %class.btVector3, align 8
  %34 = alloca %class.btVector3, align 4
  %35 = load ptr, ptr %0, align 8, !tbaa !19
  %36 = getelementptr inbounds ptr, ptr %35, i64 4
  %37 = load ptr, ptr %36, align 8
  %38 = tail call noundef ptr %37(ptr noundef nonnull align 8 dereferenceable(129) %0)
  %39 = load ptr, ptr %38, align 8, !tbaa !19
  %40 = getelementptr inbounds ptr, ptr %39, i64 12
  %41 = load ptr, ptr %40, align 8
  %42 = tail call noundef i32 %41(ptr noundef nonnull align 8 dereferenceable(8) %38)
  %43 = and i32 %42, 2048
  %44 = icmp eq i32 %43, 0
  %45 = load ptr, ptr %0, align 8, !tbaa !19
  %46 = getelementptr inbounds ptr, ptr %45, i64 4
  %47 = load ptr, ptr %46, align 8
  %48 = tail call noundef ptr %47(ptr noundef nonnull align 8 dereferenceable(129) %0)
  %49 = load ptr, ptr %48, align 8, !tbaa !19
  %50 = getelementptr inbounds ptr, ptr %49, i64 12
  %51 = load ptr, ptr %50, align 8
  %52 = tail call noundef i32 %51(ptr noundef nonnull align 8 dereferenceable(8) %48)
  %53 = and i32 %52, 4096
  %54 = icmp eq i32 %53, 0
  %55 = getelementptr inbounds %class.btTypedConstraint, ptr %1, i64 0, i32 8
  %56 = load float, ptr %55, align 4, !tbaa !78
  %57 = fcmp ugt float %56, 0.000000e+00
  br i1 %57, label %58, label %1194

58:                                               ; preds = %2
  %59 = getelementptr inbounds i8, ptr %1, i64 8
  %60 = load i32, ptr %59, align 8, !tbaa !80
  switch i32 %60, label %1194 [
    i32 3, label %61
    i32 4, label %177
    i32 5, label %421
    i32 6, label %968
    i32 7, label %1095
  ]

61:                                               ; preds = %58
  call void @llvm.lifetime.start.p0(i64 64, ptr nonnull %3) #21
  store float 1.000000e+00, ptr %3, align 4, !tbaa !5
  %62 = getelementptr inbounds [4 x float], ptr %3, i64 0, i64 1
  %63 = getelementptr inbounds [3 x %class.btVector3], ptr %3, i64 0, i64 1, i32 0, i64 1
  call void @llvm.memset.p0.i64(ptr noundef nonnull align 4 dereferenceable(16) %62, i8 0, i64 16, i1 false)
  store float 1.000000e+00, ptr %63, align 4, !tbaa !5
  %64 = getelementptr inbounds [3 x %class.btVector3], ptr %3, i64 0, i64 1, i32 0, i64 2
  %65 = getelementptr inbounds [3 x %class.btVector3], ptr %3, i64 0, i64 2, i32 0, i64 2
  call void @llvm.memset.p0.i64(ptr noundef nonnull align 4 dereferenceable(16) %64, i8 0, i64 16, i1 false)
  store float 1.000000e+00, ptr %65, align 4, !tbaa !5
  %66 = getelementptr inbounds [3 x %class.btVector3], ptr %3, i64 0, i64 2, i32 0, i64 3
  store i32 0, ptr %66, align 4
  %67 = getelementptr inbounds %class.btPoint2PointConstraint, ptr %1, i64 0, i32 2
  %68 = load <2 x float>, ptr %67, align 4, !tbaa.struct !74
  %69 = getelementptr inbounds %class.btPoint2PointConstraint, ptr %1, i64 0, i32 2, i32 0, i64 2
  %70 = load <2 x float>, ptr %69, align 4, !tbaa.struct !81
  %71 = getelementptr inbounds %class.btTypedConstraint, ptr %1, i64 0, i32 5
  %72 = load ptr, ptr %71, align 8, !tbaa !82
  %73 = getelementptr inbounds %class.btCollisionObject, ptr %72, i64 0, i32 1
  %74 = extractelement <2 x float> %68, i64 0
  %75 = getelementptr inbounds %class.btCollisionObject, ptr %72, i64 0, i32 1, i32 0, i32 0, i64 0, i32 0, i64 1
  %76 = extractelement <2 x float> %68, i64 1
  %77 = getelementptr inbounds %class.btCollisionObject, ptr %72, i64 0, i32 1, i32 0, i32 0, i64 0, i32 0, i64 2
  %78 = extractelement <2 x float> %70, i64 0
  %79 = getelementptr inbounds %class.btCollisionObject, ptr %72, i64 0, i32 1, i32 1
  %80 = getelementptr inbounds %class.btCollisionObject, ptr %72, i64 0, i32 1, i32 0, i32 0, i64 1
  %81 = getelementptr inbounds %class.btCollisionObject, ptr %72, i64 0, i32 1, i32 0, i32 0, i64 1, i32 0, i64 1
  %82 = getelementptr inbounds %class.btCollisionObject, ptr %72, i64 0, i32 1, i32 0, i32 0, i64 1, i32 0, i64 2
  %83 = load float, ptr %73, align 4, !tbaa !5
  %84 = load float, ptr %75, align 4, !tbaa !5
  %85 = load float, ptr %77, align 4, !tbaa !5
  %86 = load float, ptr %80, align 4, !tbaa !5
  %87 = load float, ptr %81, align 4, !tbaa !5
  %88 = shufflevector <2 x float> %68, <2 x float> poison, <2 x i32> <i32 1, i32 1>
  %89 = insertelement <2 x float> poison, float %84, i64 0
  %90 = insertelement <2 x float> %89, float %87, i64 1
  %91 = fmul <2 x float> %88, %90
  %92 = insertelement <2 x float> poison, float %83, i64 0
  %93 = insertelement <2 x float> %92, float %86, i64 1
  %94 = shufflevector <2 x float> %68, <2 x float> poison, <2 x i32> zeroinitializer
  %95 = tail call <2 x float> @llvm.fmuladd.v2f32(<2 x float> %93, <2 x float> %94, <2 x float> %91)
  %96 = load float, ptr %82, align 4, !tbaa !5
  %97 = insertelement <2 x float> poison, float %85, i64 0
  %98 = insertelement <2 x float> %97, float %96, i64 1
  %99 = shufflevector <2 x float> %70, <2 x float> poison, <2 x i32> zeroinitializer
  %100 = tail call <2 x float> @llvm.fmuladd.v2f32(<2 x float> %98, <2 x float> %99, <2 x float> %95)
  %101 = load <2 x float>, ptr %79, align 4, !tbaa !5
  %102 = fadd <2 x float> %101, %100
  %103 = getelementptr inbounds %class.btCollisionObject, ptr %72, i64 0, i32 1, i32 0, i32 0, i64 2
  %104 = load float, ptr %103, align 4, !tbaa !5
  %105 = getelementptr inbounds %class.btCollisionObject, ptr %72, i64 0, i32 1, i32 0, i32 0, i64 2, i32 0, i64 1
  %106 = load float, ptr %105, align 4, !tbaa !5
  %107 = fmul float %76, %106
  %108 = tail call float @llvm.fmuladd.f32(float %104, float %74, float %107)
  %109 = getelementptr inbounds %class.btCollisionObject, ptr %72, i64 0, i32 1, i32 0, i32 0, i64 2, i32 0, i64 2
  %110 = load float, ptr %109, align 4, !tbaa !5
  %111 = tail call float @llvm.fmuladd.f32(float %110, float %78, float %108)
  %112 = getelementptr inbounds %class.btCollisionObject, ptr %72, i64 0, i32 1, i32 1, i32 0, i64 2
  %113 = load float, ptr %112, align 4, !tbaa !5
  %114 = fadd float %113, %111
  %115 = insertelement <2 x float> <float poison, float 0.000000e+00>, float %114, i64 0
  %116 = getelementptr inbounds %class.btTransform, ptr %3, i64 0, i32 1
  store <2 x float> %102, ptr %116, align 4, !tbaa.struct !74
  %117 = getelementptr inbounds %class.btTransform, ptr %3, i64 0, i32 1, i32 0, i64 2
  store <2 x float> %115, ptr %117, align 4, !tbaa.struct !81
  %118 = load ptr, ptr %0, align 8, !tbaa !19
  %119 = getelementptr inbounds ptr, ptr %118, i64 4
  %120 = load ptr, ptr %119, align 8
  %121 = tail call noundef ptr %120(ptr noundef nonnull align 8 dereferenceable(129) %0)
  call void @_ZN12btIDebugDraw13drawTransformERK11btTransformf(ptr noundef nonnull align 8 dereferenceable(8) %121, ptr noundef nonnull align 4 dereferenceable(64) %3, float noundef %56)
  %122 = getelementptr inbounds %class.btPoint2PointConstraint, ptr %1, i64 0, i32 3
  %123 = load <2 x float>, ptr %122, align 4, !tbaa.struct !74
  %124 = getelementptr inbounds %class.btPoint2PointConstraint, ptr %1, i64 0, i32 3, i32 0, i64 2
  %125 = load <2 x float>, ptr %124, align 4, !tbaa.struct !81
  %126 = getelementptr inbounds %class.btTypedConstraint, ptr %1, i64 0, i32 6
  %127 = load ptr, ptr %126, align 8, !tbaa !83
  %128 = getelementptr inbounds %class.btCollisionObject, ptr %127, i64 0, i32 1
  %129 = extractelement <2 x float> %123, i64 0
  %130 = getelementptr inbounds %class.btCollisionObject, ptr %127, i64 0, i32 1, i32 0, i32 0, i64 0, i32 0, i64 1
  %131 = extractelement <2 x float> %123, i64 1
  %132 = getelementptr inbounds %class.btCollisionObject, ptr %127, i64 0, i32 1, i32 0, i32 0, i64 0, i32 0, i64 2
  %133 = extractelement <2 x float> %125, i64 0
  %134 = getelementptr inbounds %class.btCollisionObject, ptr %127, i64 0, i32 1, i32 1
  %135 = getelementptr inbounds %class.btCollisionObject, ptr %127, i64 0, i32 1, i32 0, i32 0, i64 1
  %136 = getelementptr inbounds %class.btCollisionObject, ptr %127, i64 0, i32 1, i32 0, i32 0, i64 1, i32 0, i64 1
  %137 = getelementptr inbounds %class.btCollisionObject, ptr %127, i64 0, i32 1, i32 0, i32 0, i64 1, i32 0, i64 2
  %138 = load float, ptr %128, align 4, !tbaa !5
  %139 = load float, ptr %130, align 4, !tbaa !5
  %140 = load float, ptr %132, align 4, !tbaa !5
  %141 = load float, ptr %135, align 4, !tbaa !5
  %142 = load float, ptr %136, align 4, !tbaa !5
  %143 = shufflevector <2 x float> %123, <2 x float> poison, <2 x i32> <i32 1, i32 1>
  %144 = insertelement <2 x float> poison, float %139, i64 0
  %145 = insertelement <2 x float> %144, float %142, i64 1
  %146 = fmul <2 x float> %143, %145
  %147 = insertelement <2 x float> poison, float %138, i64 0
  %148 = insertelement <2 x float> %147, float %141, i64 1
  %149 = shufflevector <2 x float> %123, <2 x float> poison, <2 x i32> zeroinitializer
  %150 = call <2 x float> @llvm.fmuladd.v2f32(<2 x float> %148, <2 x float> %149, <2 x float> %146)
  %151 = load float, ptr %137, align 4, !tbaa !5
  %152 = insertelement <2 x float> poison, float %140, i64 0
  %153 = insertelement <2 x float> %152, float %151, i64 1
  %154 = shufflevector <2 x float> %125, <2 x float> poison, <2 x i32> zeroinitializer
  %155 = call <2 x float> @llvm.fmuladd.v2f32(<2 x float> %153, <2 x float> %154, <2 x float> %150)
  %156 = load <2 x float>, ptr %134, align 4, !tbaa !5
  %157 = fadd <2 x float> %156, %155
  %158 = getelementptr inbounds %class.btCollisionObject, ptr %127, i64 0, i32 1, i32 0, i32 0, i64 2
  %159 = load float, ptr %158, align 4, !tbaa !5
  %160 = getelementptr inbounds %class.btCollisionObject, ptr %127, i64 0, i32 1, i32 0, i32 0, i64 2, i32 0, i64 1
  %161 = load float, ptr %160, align 4, !tbaa !5
  %162 = fmul float %131, %161
  %163 = call float @llvm.fmuladd.f32(float %159, float %129, float %162)
  %164 = getelementptr inbounds %class.btCollisionObject, ptr %127, i64 0, i32 1, i32 0, i32 0, i64 2, i32 0, i64 2
  %165 = load float, ptr %164, align 4, !tbaa !5
  %166 = call float @llvm.fmuladd.f32(float %165, float %133, float %163)
  %167 = getelementptr inbounds %class.btCollisionObject, ptr %127, i64 0, i32 1, i32 1, i32 0, i64 2
  %168 = load float, ptr %167, align 4, !tbaa !5
  %169 = fadd float %168, %166
  %170 = insertelement <2 x float> <float poison, float 0.000000e+00>, float %169, i64 0
  store <2 x float> %157, ptr %116, align 4, !tbaa.struct !74
  store <2 x float> %170, ptr %117, align 4, !tbaa.struct !81
  br i1 %44, label %176, label %171

171:                                              ; preds = %61
  %172 = load ptr, ptr %0, align 8, !tbaa !19
  %173 = getelementptr inbounds ptr, ptr %172, i64 4
  %174 = load ptr, ptr %173, align 8
  %175 = call noundef ptr %174(ptr noundef nonnull align 8 dereferenceable(129) %0)
  call void @_ZN12btIDebugDraw13drawTransformERK11btTransformf(ptr noundef nonnull align 8 dereferenceable(8) %175, ptr noundef nonnull align 4 dereferenceable(64) %3, float noundef %56)
  br label %176

176:                                              ; preds = %171, %61
  call void @llvm.lifetime.end.p0(i64 64, ptr nonnull %3) #21
  br label %1194

177:                                              ; preds = %58
  call void @llvm.lifetime.start.p0(i64 64, ptr nonnull %4) #21
  %178 = getelementptr inbounds %class.btTypedConstraint, ptr %1, i64 0, i32 5
  %179 = load ptr, ptr %178, align 8, !tbaa !82
  %180 = getelementptr inbounds %class.btCollisionObject, ptr %179, i64 0, i32 1
  %181 = getelementptr inbounds %class.btHingeConstraint, ptr %1, i64 0, i32 3
  tail call void @llvm.experimental.noalias.scope.decl(metadata !84)
  %182 = getelementptr inbounds %class.btHingeConstraint, ptr %1, i64 0, i32 3, i32 0, i32 0, i64 1
  %183 = getelementptr inbounds %class.btCollisionObject, ptr %179, i64 0, i32 1, i32 0, i32 0, i64 0, i32 0, i64 1
  %184 = getelementptr inbounds %class.btHingeConstraint, ptr %1, i64 0, i32 3, i32 0, i32 0, i64 2
  %185 = getelementptr inbounds %class.btCollisionObject, ptr %179, i64 0, i32 1, i32 0, i32 0, i64 0, i32 0, i64 2
  %186 = getelementptr inbounds %class.btHingeConstraint, ptr %1, i64 0, i32 3, i32 0, i32 0, i64 0, i32 0, i64 2
  %187 = load float, ptr %186, align 4, !tbaa !5, !noalias !87
  %188 = getelementptr inbounds %class.btHingeConstraint, ptr %1, i64 0, i32 3, i32 0, i32 0, i64 1, i32 0, i64 2
  %189 = load float, ptr %188, align 4, !tbaa !5, !noalias !87
  %190 = getelementptr inbounds %class.btHingeConstraint, ptr %1, i64 0, i32 3, i32 0, i32 0, i64 2, i32 0, i64 2
  %191 = load float, ptr %190, align 4, !tbaa !5, !noalias !87
  %192 = getelementptr inbounds %class.btCollisionObject, ptr %179, i64 0, i32 1, i32 0, i32 0, i64 1
  %193 = getelementptr inbounds %class.btCollisionObject, ptr %179, i64 0, i32 1, i32 0, i32 0, i64 1, i32 0, i64 1
  %194 = getelementptr inbounds %class.btCollisionObject, ptr %179, i64 0, i32 1, i32 0, i32 0, i64 1, i32 0, i64 2
  %195 = getelementptr inbounds %class.btCollisionObject, ptr %179, i64 0, i32 1, i32 0, i32 0, i64 2
  %196 = load float, ptr %195, align 4, !tbaa !5, !noalias !87
  %197 = getelementptr inbounds %class.btCollisionObject, ptr %179, i64 0, i32 1, i32 0, i32 0, i64 2, i32 0, i64 1
  %198 = load float, ptr %197, align 4, !tbaa !5, !noalias !87
  %199 = getelementptr inbounds %class.btCollisionObject, ptr %179, i64 0, i32 1, i32 0, i32 0, i64 2, i32 0, i64 2
  %200 = load float, ptr %199, align 4, !tbaa !5, !noalias !87
  %201 = fmul float %189, %198
  %202 = tail call float @llvm.fmuladd.f32(float %187, float %196, float %201)
  %203 = tail call float @llvm.fmuladd.f32(float %191, float %200, float %202)
  %204 = getelementptr inbounds %class.btHingeConstraint, ptr %1, i64 0, i32 3, i32 1
  %205 = load float, ptr %204, align 4, !tbaa !5, !noalias !84
  %206 = getelementptr inbounds %class.btHingeConstraint, ptr %1, i64 0, i32 3, i32 1, i32 0, i64 1
  %207 = load float, ptr %206, align 4, !tbaa !5, !noalias !84
  %208 = getelementptr inbounds %class.btHingeConstraint, ptr %1, i64 0, i32 3, i32 1, i32 0, i64 2
  %209 = load float, ptr %208, align 4, !tbaa !5, !noalias !84
  %210 = getelementptr inbounds %class.btCollisionObject, ptr %179, i64 0, i32 1, i32 1
  %211 = load float, ptr %180, align 4, !tbaa !5, !noalias !87
  %212 = load float, ptr %183, align 4, !tbaa !5, !noalias !87
  %213 = load float, ptr %185, align 4, !tbaa !5, !noalias !87
  %214 = fmul float %212, %189
  %215 = tail call float @llvm.fmuladd.f32(float %187, float %211, float %214)
  %216 = tail call float @llvm.fmuladd.f32(float %191, float %213, float %215)
  %217 = load float, ptr %192, align 4, !tbaa !5, !noalias !87
  %218 = load float, ptr %193, align 4, !tbaa !5, !noalias !87
  %219 = load float, ptr %194, align 4, !tbaa !5, !noalias !87
  %220 = fmul float %189, %218
  %221 = tail call float @llvm.fmuladd.f32(float %187, float %217, float %220)
  %222 = tail call float @llvm.fmuladd.f32(float %191, float %219, float %221)
  %223 = insertelement <2 x float> poison, float %212, i64 0
  %224 = insertelement <2 x float> %223, float %218, i64 1
  %225 = insertelement <2 x float> poison, float %207, i64 0
  %226 = shufflevector <2 x float> %225, <2 x float> poison, <2 x i32> zeroinitializer
  %227 = fmul <2 x float> %224, %226
  %228 = insertelement <2 x float> poison, float %211, i64 0
  %229 = insertelement <2 x float> %228, float %217, i64 1
  %230 = insertelement <2 x float> poison, float %205, i64 0
  %231 = shufflevector <2 x float> %230, <2 x float> poison, <2 x i32> zeroinitializer
  %232 = tail call <2 x float> @llvm.fmuladd.v2f32(<2 x float> %229, <2 x float> %231, <2 x float> %227)
  %233 = insertelement <2 x float> poison, float %213, i64 0
  %234 = insertelement <2 x float> %233, float %219, i64 1
  %235 = insertelement <2 x float> poison, float %209, i64 0
  %236 = shufflevector <2 x float> %235, <2 x float> poison, <2 x i32> zeroinitializer
  %237 = tail call <2 x float> @llvm.fmuladd.v2f32(<2 x float> %234, <2 x float> %236, <2 x float> %232)
  %238 = load <2 x float>, ptr %210, align 4, !tbaa !5, !noalias !84
  %239 = fadd <2 x float> %238, %237
  %240 = fmul float %198, %207
  %241 = tail call float @llvm.fmuladd.f32(float %196, float %205, float %240)
  %242 = tail call float @llvm.fmuladd.f32(float %200, float %209, float %241)
  %243 = getelementptr inbounds %class.btCollisionObject, ptr %179, i64 0, i32 1, i32 1, i32 0, i64 2
  %244 = load float, ptr %243, align 4, !tbaa !5, !noalias !84
  %245 = fadd float %242, %244
  %246 = insertelement <2 x float> <float poison, float 0.000000e+00>, float %245, i64 0
  %247 = load <2 x float>, ptr %181, align 4, !tbaa !5, !noalias !87
  %248 = load <2 x float>, ptr %182, align 4, !tbaa !5, !noalias !87
  %249 = shufflevector <2 x float> %223, <2 x float> poison, <2 x i32> zeroinitializer
  %250 = fmul <2 x float> %249, %248
  %251 = shufflevector <2 x float> %228, <2 x float> poison, <2 x i32> zeroinitializer
  %252 = tail call <2 x float> @llvm.fmuladd.v2f32(<2 x float> %247, <2 x float> %251, <2 x float> %250)
  %253 = load <2 x float>, ptr %184, align 4, !tbaa !5, !noalias !87
  %254 = shufflevector <2 x float> %233, <2 x float> poison, <2 x i32> zeroinitializer
  %255 = tail call <2 x float> @llvm.fmuladd.v2f32(<2 x float> %253, <2 x float> %254, <2 x float> %252)
  store <2 x float> %255, ptr %4, align 16, !alias.scope !84
  %256 = getelementptr inbounds i8, ptr %4, i64 8
  store float %216, ptr %256, align 8, !tbaa.struct !81, !alias.scope !84
  %257 = getelementptr inbounds i8, ptr %4, i64 12
  store float 0.000000e+00, ptr %257, align 4, !tbaa.struct !90, !alias.scope !84
  %258 = getelementptr inbounds [3 x %class.btVector3], ptr %4, i64 0, i64 1
  %259 = insertelement <2 x float> poison, float %218, i64 0
  %260 = shufflevector <2 x float> %259, <2 x float> poison, <2 x i32> zeroinitializer
  %261 = fmul <2 x float> %248, %260
  %262 = insertelement <2 x float> poison, float %217, i64 0
  %263 = shufflevector <2 x float> %262, <2 x float> poison, <2 x i32> zeroinitializer
  %264 = tail call <2 x float> @llvm.fmuladd.v2f32(<2 x float> %247, <2 x float> %263, <2 x float> %261)
  %265 = insertelement <2 x float> poison, float %219, i64 0
  %266 = shufflevector <2 x float> %265, <2 x float> poison, <2 x i32> zeroinitializer
  %267 = tail call <2 x float> @llvm.fmuladd.v2f32(<2 x float> %253, <2 x float> %266, <2 x float> %264)
  store <2 x float> %267, ptr %258, align 16, !alias.scope !84
  %268 = getelementptr inbounds [3 x %class.btVector3], ptr %4, i64 0, i64 1, i32 0, i64 2
  store float %222, ptr %268, align 8, !tbaa.struct !81, !alias.scope !84
  %269 = getelementptr inbounds [3 x %class.btVector3], ptr %4, i64 0, i64 1, i32 0, i64 3
  store float 0.000000e+00, ptr %269, align 4, !tbaa.struct !90, !alias.scope !84
  %270 = getelementptr inbounds [3 x %class.btVector3], ptr %4, i64 0, i64 2
  %271 = insertelement <2 x float> poison, float %198, i64 0
  %272 = shufflevector <2 x float> %271, <2 x float> poison, <2 x i32> zeroinitializer
  %273 = fmul <2 x float> %248, %272
  %274 = insertelement <2 x float> poison, float %196, i64 0
  %275 = shufflevector <2 x float> %274, <2 x float> poison, <2 x i32> zeroinitializer
  %276 = tail call <2 x float> @llvm.fmuladd.v2f32(<2 x float> %247, <2 x float> %275, <2 x float> %273)
  %277 = insertelement <2 x float> poison, float %200, i64 0
  %278 = shufflevector <2 x float> %277, <2 x float> poison, <2 x i32> zeroinitializer
  %279 = tail call <2 x float> @llvm.fmuladd.v2f32(<2 x float> %253, <2 x float> %278, <2 x float> %276)
  store <2 x float> %279, ptr %270, align 16, !alias.scope !84
  %280 = getelementptr inbounds [3 x %class.btVector3], ptr %4, i64 0, i64 2, i32 0, i64 2
  store float %203, ptr %280, align 8, !tbaa.struct !81, !alias.scope !84
  %281 = getelementptr inbounds [3 x %class.btVector3], ptr %4, i64 0, i64 2, i32 0, i64 3
  store float 0.000000e+00, ptr %281, align 4, !tbaa.struct !90, !alias.scope !84
  %282 = getelementptr inbounds %class.btTransform, ptr %4, i64 0, i32 1
  store <2 x float> %239, ptr %282, align 16, !tbaa.struct !74, !alias.scope !84
  %283 = getelementptr inbounds %class.btTransform, ptr %4, i64 0, i32 1, i32 0, i64 2
  store <2 x float> %246, ptr %283, align 8, !tbaa.struct !81, !alias.scope !84
  br i1 %44, label %289, label %284

284:                                              ; preds = %177
  %285 = load ptr, ptr %0, align 8, !tbaa !19
  %286 = getelementptr inbounds ptr, ptr %285, i64 4
  %287 = load ptr, ptr %286, align 8
  %288 = tail call noundef ptr %287(ptr noundef nonnull align 8 dereferenceable(129) %0)
  call void @_ZN12btIDebugDraw13drawTransformERK11btTransformf(ptr noundef nonnull align 8 dereferenceable(8) %288, ptr noundef nonnull align 4 dereferenceable(64) %4, float noundef %56)
  br label %289

289:                                              ; preds = %284, %177
  %290 = getelementptr inbounds %class.btTypedConstraint, ptr %1, i64 0, i32 6
  %291 = load ptr, ptr %290, align 8, !tbaa !83
  %292 = getelementptr inbounds %class.btCollisionObject, ptr %291, i64 0, i32 1
  %293 = getelementptr inbounds %class.btHingeConstraint, ptr %1, i64 0, i32 4
  %294 = getelementptr inbounds %class.btHingeConstraint, ptr %1, i64 0, i32 4, i32 0, i32 0, i64 1
  %295 = getelementptr inbounds %class.btCollisionObject, ptr %291, i64 0, i32 1, i32 0, i32 0, i64 0, i32 0, i64 1
  %296 = getelementptr inbounds %class.btHingeConstraint, ptr %1, i64 0, i32 4, i32 0, i32 0, i64 2
  %297 = getelementptr inbounds %class.btCollisionObject, ptr %291, i64 0, i32 1, i32 0, i32 0, i64 0, i32 0, i64 2
  %298 = getelementptr inbounds %class.btHingeConstraint, ptr %1, i64 0, i32 4, i32 0, i32 0, i64 0, i32 0, i64 2
  %299 = load float, ptr %298, align 4, !tbaa !5, !noalias !91
  %300 = getelementptr inbounds %class.btHingeConstraint, ptr %1, i64 0, i32 4, i32 0, i32 0, i64 1, i32 0, i64 2
  %301 = load float, ptr %300, align 4, !tbaa !5, !noalias !91
  %302 = getelementptr inbounds %class.btHingeConstraint, ptr %1, i64 0, i32 4, i32 0, i32 0, i64 2, i32 0, i64 2
  %303 = load float, ptr %302, align 4, !tbaa !5, !noalias !91
  %304 = getelementptr inbounds %class.btCollisionObject, ptr %291, i64 0, i32 1, i32 0, i32 0, i64 1
  %305 = getelementptr inbounds %class.btCollisionObject, ptr %291, i64 0, i32 1, i32 0, i32 0, i64 1, i32 0, i64 1
  %306 = getelementptr inbounds %class.btCollisionObject, ptr %291, i64 0, i32 1, i32 0, i32 0, i64 1, i32 0, i64 2
  %307 = getelementptr inbounds %class.btCollisionObject, ptr %291, i64 0, i32 1, i32 0, i32 0, i64 2
  %308 = load float, ptr %307, align 4, !tbaa !5, !noalias !91
  %309 = getelementptr inbounds %class.btCollisionObject, ptr %291, i64 0, i32 1, i32 0, i32 0, i64 2, i32 0, i64 1
  %310 = load float, ptr %309, align 4, !tbaa !5, !noalias !91
  %311 = getelementptr inbounds %class.btCollisionObject, ptr %291, i64 0, i32 1, i32 0, i32 0, i64 2, i32 0, i64 2
  %312 = load float, ptr %311, align 4, !tbaa !5, !noalias !91
  %313 = fmul float %301, %310
  %314 = call float @llvm.fmuladd.f32(float %299, float %308, float %313)
  %315 = call float @llvm.fmuladd.f32(float %303, float %312, float %314)
  %316 = getelementptr inbounds %class.btHingeConstraint, ptr %1, i64 0, i32 4, i32 1
  %317 = load float, ptr %316, align 4, !tbaa !5, !noalias !96
  %318 = getelementptr inbounds %class.btHingeConstraint, ptr %1, i64 0, i32 4, i32 1, i32 0, i64 1
  %319 = load float, ptr %318, align 4, !tbaa !5, !noalias !96
  %320 = getelementptr inbounds %class.btHingeConstraint, ptr %1, i64 0, i32 4, i32 1, i32 0, i64 2
  %321 = load float, ptr %320, align 4, !tbaa !5, !noalias !96
  %322 = getelementptr inbounds %class.btCollisionObject, ptr %291, i64 0, i32 1, i32 1
  %323 = load float, ptr %292, align 4, !tbaa !5, !noalias !91
  %324 = load float, ptr %295, align 4, !tbaa !5, !noalias !91
  %325 = load float, ptr %297, align 4, !tbaa !5, !noalias !91
  %326 = fmul float %324, %301
  %327 = call float @llvm.fmuladd.f32(float %299, float %323, float %326)
  %328 = call float @llvm.fmuladd.f32(float %303, float %325, float %327)
  %329 = load float, ptr %304, align 4, !tbaa !5, !noalias !91
  %330 = load float, ptr %305, align 4, !tbaa !5, !noalias !91
  %331 = load float, ptr %306, align 4, !tbaa !5, !noalias !91
  %332 = fmul float %301, %330
  %333 = call float @llvm.fmuladd.f32(float %299, float %329, float %332)
  %334 = call float @llvm.fmuladd.f32(float %303, float %331, float %333)
  %335 = insertelement <2 x float> poison, float %324, i64 0
  %336 = insertelement <2 x float> %335, float %330, i64 1
  %337 = insertelement <2 x float> poison, float %319, i64 0
  %338 = shufflevector <2 x float> %337, <2 x float> poison, <2 x i32> zeroinitializer
  %339 = fmul <2 x float> %336, %338
  %340 = insertelement <2 x float> poison, float %323, i64 0
  %341 = insertelement <2 x float> %340, float %329, i64 1
  %342 = insertelement <2 x float> poison, float %317, i64 0
  %343 = shufflevector <2 x float> %342, <2 x float> poison, <2 x i32> zeroinitializer
  %344 = call <2 x float> @llvm.fmuladd.v2f32(<2 x float> %341, <2 x float> %343, <2 x float> %339)
  %345 = insertelement <2 x float> poison, float %325, i64 0
  %346 = insertelement <2 x float> %345, float %331, i64 1
  %347 = insertelement <2 x float> poison, float %321, i64 0
  %348 = shufflevector <2 x float> %347, <2 x float> poison, <2 x i32> zeroinitializer
  %349 = call <2 x float> @llvm.fmuladd.v2f32(<2 x float> %346, <2 x float> %348, <2 x float> %344)
  %350 = load <2 x float>, ptr %322, align 4, !tbaa !5, !noalias !96
  %351 = fadd <2 x float> %350, %349
  %352 = fmul float %310, %319
  %353 = call float @llvm.fmuladd.f32(float %308, float %317, float %352)
  %354 = call float @llvm.fmuladd.f32(float %312, float %321, float %353)
  %355 = getelementptr inbounds %class.btCollisionObject, ptr %291, i64 0, i32 1, i32 1, i32 0, i64 2
  %356 = load float, ptr %355, align 4, !tbaa !5, !noalias !96
  %357 = fadd float %354, %356
  %358 = insertelement <2 x float> <float poison, float 0.000000e+00>, float %357, i64 0
  %359 = load <2 x float>, ptr %293, align 4, !tbaa !5, !noalias !91
  %360 = load <2 x float>, ptr %294, align 4, !tbaa !5, !noalias !91
  %361 = shufflevector <2 x float> %335, <2 x float> poison, <2 x i32> zeroinitializer
  %362 = fmul <2 x float> %361, %360
  %363 = shufflevector <2 x float> %340, <2 x float> poison, <2 x i32> zeroinitializer
  %364 = call <2 x float> @llvm.fmuladd.v2f32(<2 x float> %359, <2 x float> %363, <2 x float> %362)
  %365 = load <2 x float>, ptr %296, align 4, !tbaa !5, !noalias !91
  %366 = shufflevector <2 x float> %345, <2 x float> poison, <2 x i32> zeroinitializer
  %367 = call <2 x float> @llvm.fmuladd.v2f32(<2 x float> %365, <2 x float> %366, <2 x float> %364)
  store <2 x float> %367, ptr %4, align 16
  store float %328, ptr %256, align 8, !tbaa.struct !81
  store float 0.000000e+00, ptr %257, align 4, !tbaa.struct !90
  %368 = insertelement <2 x float> poison, float %330, i64 0
  %369 = shufflevector <2 x float> %368, <2 x float> poison, <2 x i32> zeroinitializer
  %370 = fmul <2 x float> %360, %369
  %371 = insertelement <2 x float> poison, float %329, i64 0
  %372 = shufflevector <2 x float> %371, <2 x float> poison, <2 x i32> zeroinitializer
  %373 = call <2 x float> @llvm.fmuladd.v2f32(<2 x float> %359, <2 x float> %372, <2 x float> %370)
  %374 = insertelement <2 x float> poison, float %331, i64 0
  %375 = shufflevector <2 x float> %374, <2 x float> poison, <2 x i32> zeroinitializer
  %376 = call <2 x float> @llvm.fmuladd.v2f32(<2 x float> %365, <2 x float> %375, <2 x float> %373)
  store <2 x float> %376, ptr %258, align 16
  store float %334, ptr %268, align 8, !tbaa.struct !81
  store float 0.000000e+00, ptr %269, align 4, !tbaa.struct !90
  %377 = insertelement <2 x float> poison, float %310, i64 0
  %378 = shufflevector <2 x float> %377, <2 x float> poison, <2 x i32> zeroinitializer
  %379 = fmul <2 x float> %360, %378
  %380 = insertelement <2 x float> poison, float %308, i64 0
  %381 = shufflevector <2 x float> %380, <2 x float> poison, <2 x i32> zeroinitializer
  %382 = call <2 x float> @llvm.fmuladd.v2f32(<2 x float> %359, <2 x float> %381, <2 x float> %379)
  %383 = insertelement <2 x float> poison, float %312, i64 0
  %384 = shufflevector <2 x float> %383, <2 x float> poison, <2 x i32> zeroinitializer
  %385 = call <2 x float> @llvm.fmuladd.v2f32(<2 x float> %365, <2 x float> %384, <2 x float> %382)
  store <2 x float> %385, ptr %270, align 16
  store float %315, ptr %280, align 8, !tbaa.struct !81
  store float 0.000000e+00, ptr %281, align 4, !tbaa.struct !90
  store <2 x float> %351, ptr %282, align 16, !tbaa.struct !74
  store <2 x float> %358, ptr %283, align 8, !tbaa.struct !81
  br i1 %44, label %391, label %386

386:                                              ; preds = %289
  %387 = load ptr, ptr %0, align 8, !tbaa !19
  %388 = getelementptr inbounds ptr, ptr %387, i64 4
  %389 = load ptr, ptr %388, align 8
  %390 = call noundef ptr %389(ptr noundef nonnull align 8 dereferenceable(129) %0)
  call void @_ZN12btIDebugDraw13drawTransformERK11btTransformf(ptr noundef nonnull align 8 dereferenceable(8) %390, ptr noundef nonnull align 4 dereferenceable(64) %4, float noundef %56)
  br label %391

391:                                              ; preds = %386, %289
  %392 = getelementptr inbounds %class.btHingeConstraint, ptr %1, i64 0, i32 10
  %393 = load float, ptr %392, align 4, !tbaa !97
  %394 = getelementptr inbounds %class.btHingeConstraint, ptr %1, i64 0, i32 11
  %395 = load float, ptr %394, align 8, !tbaa !99
  %396 = fcmp oeq float %393, %395
  %397 = or i1 %396, %54
  br i1 %397, label %420, label %398

398:                                              ; preds = %391
  %399 = fcmp ule float %393, %395
  %400 = select i1 %399, float %393, float 0.000000e+00
  %401 = select i1 %399, float %395, float 0x401921FB60000000
  call void @llvm.lifetime.start.p0(i64 16, ptr nonnull %5) #21
  %402 = load <4 x float>, ptr %256, align 8
  %403 = shufflevector <4 x float> %402, <4 x float> poison, <2 x i32> <i32 0, i32 undef>
  %404 = load float, ptr %268, align 8, !tbaa !5
  %405 = insertelement <2 x float> %403, float %404, i64 1
  %406 = load float, ptr %280, align 8, !tbaa !5
  %407 = insertelement <2 x float> <float poison, float 0.000000e+00>, float %406, i64 0
  store <2 x float> %405, ptr %5, align 8
  %408 = getelementptr inbounds { <2 x float>, <2 x float> }, ptr %5, i64 0, i32 1
  store <2 x float> %407, ptr %408, align 8
  call void @llvm.lifetime.start.p0(i64 16, ptr nonnull %6) #21
  %409 = load <4 x float>, ptr %4, align 16
  %410 = shufflevector <4 x float> %409, <4 x float> poison, <2 x i32> <i32 0, i32 undef>
  %411 = extractelement <4 x float> %402, i64 2
  %412 = insertelement <2 x float> %410, float %411, i64 1
  %413 = load float, ptr %270, align 16, !tbaa !5
  %414 = insertelement <2 x float> <float poison, float 0.000000e+00>, float %413, i64 0
  store <2 x float> %412, ptr %6, align 8
  %415 = getelementptr inbounds { <2 x float>, <2 x float> }, ptr %6, i64 0, i32 1
  store <2 x float> %414, ptr %415, align 8
  %416 = load ptr, ptr %0, align 8, !tbaa !19
  %417 = getelementptr inbounds ptr, ptr %416, i64 4
  %418 = load ptr, ptr %417, align 8
  %419 = call noundef ptr %418(ptr noundef nonnull align 8 dereferenceable(129) %0)
  call void @llvm.lifetime.start.p0(i64 16, ptr nonnull %7) #21
  call void @llvm.memset.p0.i64(ptr noundef nonnull align 4 dereferenceable(16) %7, i8 0, i64 16, i1 false)
  call void @_ZN12btIDebugDraw7drawArcERK9btVector3S2_S2_ffffS2_bf(ptr noundef nonnull align 8 dereferenceable(8) %419, ptr noundef nonnull align 4 dereferenceable(16) %282, ptr noundef nonnull align 4 dereferenceable(16) %5, ptr noundef nonnull align 4 dereferenceable(16) %6, float noundef %56, float noundef %56, float noundef %400, float noundef %401, ptr noundef nonnull align 4 dereferenceable(16) %7, i1 noundef zeroext %399, float noundef 1.000000e+01)
  call void @llvm.lifetime.end.p0(i64 16, ptr nonnull %7) #21
  call void @llvm.lifetime.end.p0(i64 16, ptr nonnull %6) #21
  call void @llvm.lifetime.end.p0(i64 16, ptr nonnull %5) #21
  br label %420

420:                                              ; preds = %391, %398
  call void @llvm.lifetime.end.p0(i64 64, ptr nonnull %4) #21
  br label %1194

421:                                              ; preds = %58
  call void @llvm.lifetime.start.p0(i64 64, ptr nonnull %8) #21
  %422 = getelementptr inbounds %class.btTypedConstraint, ptr %1, i64 0, i32 5
  %423 = load ptr, ptr %422, align 8, !tbaa !82
  %424 = getelementptr inbounds %class.btCollisionObject, ptr %423, i64 0, i32 1
  %425 = getelementptr inbounds %class.btConeTwistConstraint, ptr %1, i64 0, i32 2
  tail call void @llvm.experimental.noalias.scope.decl(metadata !100)
  %426 = getelementptr inbounds %class.btConeTwistConstraint, ptr %1, i64 0, i32 2, i32 0, i32 0, i64 1
  %427 = getelementptr inbounds %class.btCollisionObject, ptr %423, i64 0, i32 1, i32 0, i32 0, i64 0, i32 0, i64 1
  %428 = getelementptr inbounds %class.btConeTwistConstraint, ptr %1, i64 0, i32 2, i32 0, i32 0, i64 2
  %429 = getelementptr inbounds %class.btCollisionObject, ptr %423, i64 0, i32 1, i32 0, i32 0, i64 0, i32 0, i64 2
  %430 = getelementptr inbounds %class.btConeTwistConstraint, ptr %1, i64 0, i32 2, i32 0, i32 0, i64 0, i32 0, i64 2
  %431 = load float, ptr %430, align 4, !tbaa !5, !noalias !103
  %432 = getelementptr inbounds %class.btConeTwistConstraint, ptr %1, i64 0, i32 2, i32 0, i32 0, i64 1, i32 0, i64 2
  %433 = load float, ptr %432, align 4, !tbaa !5, !noalias !103
  %434 = getelementptr inbounds %class.btConeTwistConstraint, ptr %1, i64 0, i32 2, i32 0, i32 0, i64 2, i32 0, i64 2
  %435 = load float, ptr %434, align 4, !tbaa !5, !noalias !103
  %436 = getelementptr inbounds %class.btCollisionObject, ptr %423, i64 0, i32 1, i32 0, i32 0, i64 1
  %437 = getelementptr inbounds %class.btCollisionObject, ptr %423, i64 0, i32 1, i32 0, i32 0, i64 1, i32 0, i64 1
  %438 = getelementptr inbounds %class.btCollisionObject, ptr %423, i64 0, i32 1, i32 0, i32 0, i64 1, i32 0, i64 2
  %439 = getelementptr inbounds %class.btCollisionObject, ptr %423, i64 0, i32 1, i32 0, i32 0, i64 2
  %440 = load float, ptr %439, align 4, !tbaa !5, !noalias !103
  %441 = getelementptr inbounds %class.btCollisionObject, ptr %423, i64 0, i32 1, i32 0, i32 0, i64 2, i32 0, i64 1
  %442 = load float, ptr %441, align 4, !tbaa !5, !noalias !103
  %443 = getelementptr inbounds %class.btCollisionObject, ptr %423, i64 0, i32 1, i32 0, i32 0, i64 2, i32 0, i64 2
  %444 = load float, ptr %443, align 4, !tbaa !5, !noalias !103
  %445 = fmul float %433, %442
  %446 = tail call float @llvm.fmuladd.f32(float %431, float %440, float %445)
  %447 = tail call float @llvm.fmuladd.f32(float %435, float %444, float %446)
  %448 = getelementptr inbounds %class.btConeTwistConstraint, ptr %1, i64 0, i32 2, i32 1
  %449 = load float, ptr %448, align 4, !tbaa !5, !noalias !100
  %450 = getelementptr inbounds %class.btConeTwistConstraint, ptr %1, i64 0, i32 2, i32 1, i32 0, i64 1
  %451 = load float, ptr %450, align 4, !tbaa !5, !noalias !100
  %452 = getelementptr inbounds %class.btConeTwistConstraint, ptr %1, i64 0, i32 2, i32 1, i32 0, i64 2
  %453 = load float, ptr %452, align 4, !tbaa !5, !noalias !100
  %454 = getelementptr inbounds %class.btCollisionObject, ptr %423, i64 0, i32 1, i32 1
  %455 = load float, ptr %424, align 4, !tbaa !5, !noalias !103
  %456 = load float, ptr %427, align 4, !tbaa !5, !noalias !103
  %457 = load float, ptr %429, align 4, !tbaa !5, !noalias !103
  %458 = fmul float %456, %433
  %459 = tail call float @llvm.fmuladd.f32(float %431, float %455, float %458)
  %460 = tail call float @llvm.fmuladd.f32(float %435, float %457, float %459)
  %461 = load float, ptr %436, align 4, !tbaa !5, !noalias !103
  %462 = load float, ptr %437, align 4, !tbaa !5, !noalias !103
  %463 = load float, ptr %438, align 4, !tbaa !5, !noalias !103
  %464 = fmul float %433, %462
  %465 = tail call float @llvm.fmuladd.f32(float %431, float %461, float %464)
  %466 = tail call float @llvm.fmuladd.f32(float %435, float %463, float %465)
  %467 = insertelement <2 x float> poison, float %456, i64 0
  %468 = insertelement <2 x float> %467, float %462, i64 1
  %469 = insertelement <2 x float> poison, float %451, i64 0
  %470 = shufflevector <2 x float> %469, <2 x float> poison, <2 x i32> zeroinitializer
  %471 = fmul <2 x float> %468, %470
  %472 = insertelement <2 x float> poison, float %455, i64 0
  %473 = insertelement <2 x float> %472, float %461, i64 1
  %474 = insertelement <2 x float> poison, float %449, i64 0
  %475 = shufflevector <2 x float> %474, <2 x float> poison, <2 x i32> zeroinitializer
  %476 = tail call <2 x float> @llvm.fmuladd.v2f32(<2 x float> %473, <2 x float> %475, <2 x float> %471)
  %477 = insertelement <2 x float> poison, float %457, i64 0
  %478 = insertelement <2 x float> %477, float %463, i64 1
  %479 = insertelement <2 x float> poison, float %453, i64 0
  %480 = shufflevector <2 x float> %479, <2 x float> poison, <2 x i32> zeroinitializer
  %481 = tail call <2 x float> @llvm.fmuladd.v2f32(<2 x float> %478, <2 x float> %480, <2 x float> %476)
  %482 = load <2 x float>, ptr %454, align 4, !tbaa !5, !noalias !100
  %483 = fadd <2 x float> %482, %481
  %484 = fmul float %442, %451
  %485 = tail call float @llvm.fmuladd.f32(float %440, float %449, float %484)
  %486 = tail call float @llvm.fmuladd.f32(float %444, float %453, float %485)
  %487 = getelementptr inbounds %class.btCollisionObject, ptr %423, i64 0, i32 1, i32 1, i32 0, i64 2
  %488 = load float, ptr %487, align 4, !tbaa !5, !noalias !100
  %489 = fadd float %486, %488
  %490 = insertelement <2 x float> <float poison, float 0.000000e+00>, float %489, i64 0
  %491 = getelementptr inbounds i8, ptr %8, i64 4
  %492 = load <2 x float>, ptr %425, align 4, !tbaa !5, !noalias !103
  %493 = load <2 x float>, ptr %426, align 4, !tbaa !5, !noalias !103
  %494 = shufflevector <2 x float> %467, <2 x float> poison, <2 x i32> zeroinitializer
  %495 = fmul <2 x float> %494, %493
  %496 = shufflevector <2 x float> %472, <2 x float> poison, <2 x i32> zeroinitializer
  %497 = tail call <2 x float> @llvm.fmuladd.v2f32(<2 x float> %492, <2 x float> %496, <2 x float> %495)
  %498 = load <2 x float>, ptr %428, align 4, !tbaa !5, !noalias !103
  %499 = shufflevector <2 x float> %477, <2 x float> poison, <2 x i32> zeroinitializer
  %500 = tail call <2 x float> @llvm.fmuladd.v2f32(<2 x float> %498, <2 x float> %499, <2 x float> %497)
  store <2 x float> %500, ptr %8, align 16, !alias.scope !100
  %501 = getelementptr inbounds i8, ptr %8, i64 8
  store float %460, ptr %501, align 8, !tbaa.struct !81, !alias.scope !100
  %502 = getelementptr inbounds i8, ptr %8, i64 12
  store float 0.000000e+00, ptr %502, align 4, !tbaa.struct !90, !alias.scope !100
  %503 = getelementptr inbounds [3 x %class.btVector3], ptr %8, i64 0, i64 1
  %504 = getelementptr inbounds [3 x %class.btVector3], ptr %8, i64 0, i64 1, i32 0, i64 1
  %505 = insertelement <2 x float> poison, float %462, i64 0
  %506 = shufflevector <2 x float> %505, <2 x float> poison, <2 x i32> zeroinitializer
  %507 = fmul <2 x float> %493, %506
  %508 = insertelement <2 x float> poison, float %461, i64 0
  %509 = shufflevector <2 x float> %508, <2 x float> poison, <2 x i32> zeroinitializer
  %510 = tail call <2 x float> @llvm.fmuladd.v2f32(<2 x float> %492, <2 x float> %509, <2 x float> %507)
  %511 = insertelement <2 x float> poison, float %463, i64 0
  %512 = shufflevector <2 x float> %511, <2 x float> poison, <2 x i32> zeroinitializer
  %513 = tail call <2 x float> @llvm.fmuladd.v2f32(<2 x float> %498, <2 x float> %512, <2 x float> %510)
  store <2 x float> %513, ptr %503, align 16, !alias.scope !100
  %514 = getelementptr inbounds [3 x %class.btVector3], ptr %8, i64 0, i64 1, i32 0, i64 2
  store float %466, ptr %514, align 8, !tbaa.struct !81, !alias.scope !100
  %515 = getelementptr inbounds [3 x %class.btVector3], ptr %8, i64 0, i64 1, i32 0, i64 3
  store float 0.000000e+00, ptr %515, align 4, !tbaa.struct !90, !alias.scope !100
  %516 = getelementptr inbounds [3 x %class.btVector3], ptr %8, i64 0, i64 2
  %517 = getelementptr inbounds [3 x %class.btVector3], ptr %8, i64 0, i64 2, i32 0, i64 1
  %518 = insertelement <2 x float> poison, float %442, i64 0
  %519 = shufflevector <2 x float> %518, <2 x float> poison, <2 x i32> zeroinitializer
  %520 = fmul <2 x float> %493, %519
  %521 = insertelement <2 x float> poison, float %440, i64 0
  %522 = shufflevector <2 x float> %521, <2 x float> poison, <2 x i32> zeroinitializer
  %523 = tail call <2 x float> @llvm.fmuladd.v2f32(<2 x float> %492, <2 x float> %522, <2 x float> %520)
  %524 = insertelement <2 x float> poison, float %444, i64 0
  %525 = shufflevector <2 x float> %524, <2 x float> poison, <2 x i32> zeroinitializer
  %526 = tail call <2 x float> @llvm.fmuladd.v2f32(<2 x float> %498, <2 x float> %525, <2 x float> %523)
  store <2 x float> %526, ptr %516, align 16, !alias.scope !100
  %527 = getelementptr inbounds [3 x %class.btVector3], ptr %8, i64 0, i64 2, i32 0, i64 2
  store float %447, ptr %527, align 8, !tbaa.struct !81, !alias.scope !100
  %528 = getelementptr inbounds [3 x %class.btVector3], ptr %8, i64 0, i64 2, i32 0, i64 3
  store float 0.000000e+00, ptr %528, align 4, !tbaa.struct !90, !alias.scope !100
  %529 = getelementptr inbounds %class.btTransform, ptr %8, i64 0, i32 1
  store <2 x float> %483, ptr %529, align 16, !tbaa.struct !74, !alias.scope !100
  %530 = getelementptr inbounds %class.btTransform, ptr %8, i64 0, i32 1, i32 0, i64 2
  store <2 x float> %490, ptr %530, align 8, !tbaa.struct !81, !alias.scope !100
  br i1 %44, label %536, label %531

531:                                              ; preds = %421
  %532 = load ptr, ptr %0, align 8, !tbaa !19
  %533 = getelementptr inbounds ptr, ptr %532, i64 4
  %534 = load ptr, ptr %533, align 8
  %535 = tail call noundef ptr %534(ptr noundef nonnull align 8 dereferenceable(129) %0)
  call void @_ZN12btIDebugDraw13drawTransformERK11btTransformf(ptr noundef nonnull align 8 dereferenceable(8) %535, ptr noundef nonnull align 4 dereferenceable(64) %8, float noundef %56)
  br label %536

536:                                              ; preds = %531, %421
  %537 = getelementptr inbounds %class.btTypedConstraint, ptr %1, i64 0, i32 6
  %538 = load ptr, ptr %537, align 8, !tbaa !83
  %539 = getelementptr inbounds %class.btCollisionObject, ptr %538, i64 0, i32 1
  %540 = getelementptr inbounds %class.btConeTwistConstraint, ptr %1, i64 0, i32 3
  %541 = getelementptr inbounds %class.btConeTwistConstraint, ptr %1, i64 0, i32 3, i32 0, i32 0, i64 1
  %542 = getelementptr inbounds %class.btCollisionObject, ptr %538, i64 0, i32 1, i32 0, i32 0, i64 0, i32 0, i64 1
  %543 = getelementptr inbounds %class.btConeTwistConstraint, ptr %1, i64 0, i32 3, i32 0, i32 0, i64 2
  %544 = getelementptr inbounds %class.btCollisionObject, ptr %538, i64 0, i32 1, i32 0, i32 0, i64 0, i32 0, i64 2
  %545 = getelementptr inbounds %class.btConeTwistConstraint, ptr %1, i64 0, i32 3, i32 0, i32 0, i64 0, i32 0, i64 2
  %546 = load float, ptr %545, align 4, !tbaa !5, !noalias !106
  %547 = getelementptr inbounds %class.btConeTwistConstraint, ptr %1, i64 0, i32 3, i32 0, i32 0, i64 1, i32 0, i64 2
  %548 = load float, ptr %547, align 4, !tbaa !5, !noalias !106
  %549 = getelementptr inbounds %class.btConeTwistConstraint, ptr %1, i64 0, i32 3, i32 0, i32 0, i64 2, i32 0, i64 2
  %550 = load float, ptr %549, align 4, !tbaa !5, !noalias !106
  %551 = getelementptr inbounds %class.btCollisionObject, ptr %538, i64 0, i32 1, i32 0, i32 0, i64 1
  %552 = getelementptr inbounds %class.btCollisionObject, ptr %538, i64 0, i32 1, i32 0, i32 0, i64 1, i32 0, i64 1
  %553 = getelementptr inbounds %class.btCollisionObject, ptr %538, i64 0, i32 1, i32 0, i32 0, i64 1, i32 0, i64 2
  %554 = getelementptr inbounds %class.btCollisionObject, ptr %538, i64 0, i32 1, i32 0, i32 0, i64 2
  %555 = load float, ptr %554, align 4, !tbaa !5, !noalias !106
  %556 = getelementptr inbounds %class.btCollisionObject, ptr %538, i64 0, i32 1, i32 0, i32 0, i64 2, i32 0, i64 1
  %557 = load float, ptr %556, align 4, !tbaa !5, !noalias !106
  %558 = getelementptr inbounds %class.btCollisionObject, ptr %538, i64 0, i32 1, i32 0, i32 0, i64 2, i32 0, i64 2
  %559 = load float, ptr %558, align 4, !tbaa !5, !noalias !106
  %560 = fmul float %548, %557
  %561 = call float @llvm.fmuladd.f32(float %546, float %555, float %560)
  %562 = call float @llvm.fmuladd.f32(float %550, float %559, float %561)
  %563 = getelementptr inbounds %class.btConeTwistConstraint, ptr %1, i64 0, i32 3, i32 1
  %564 = load float, ptr %563, align 4, !tbaa !5, !noalias !111
  %565 = getelementptr inbounds %class.btConeTwistConstraint, ptr %1, i64 0, i32 3, i32 1, i32 0, i64 1
  %566 = load float, ptr %565, align 4, !tbaa !5, !noalias !111
  %567 = getelementptr inbounds %class.btConeTwistConstraint, ptr %1, i64 0, i32 3, i32 1, i32 0, i64 2
  %568 = load float, ptr %567, align 4, !tbaa !5, !noalias !111
  %569 = getelementptr inbounds %class.btCollisionObject, ptr %538, i64 0, i32 1, i32 1
  %570 = load float, ptr %539, align 4, !tbaa !5, !noalias !106
  %571 = load float, ptr %542, align 4, !tbaa !5, !noalias !106
  %572 = load float, ptr %544, align 4, !tbaa !5, !noalias !106
  %573 = fmul float %571, %548
  %574 = call float @llvm.fmuladd.f32(float %546, float %570, float %573)
  %575 = call float @llvm.fmuladd.f32(float %550, float %572, float %574)
  %576 = load float, ptr %551, align 4, !tbaa !5, !noalias !106
  %577 = load float, ptr %552, align 4, !tbaa !5, !noalias !106
  %578 = load float, ptr %553, align 4, !tbaa !5, !noalias !106
  %579 = fmul float %548, %577
  %580 = call float @llvm.fmuladd.f32(float %546, float %576, float %579)
  %581 = call float @llvm.fmuladd.f32(float %550, float %578, float %580)
  %582 = insertelement <2 x float> poison, float %571, i64 0
  %583 = insertelement <2 x float> %582, float %577, i64 1
  %584 = insertelement <2 x float> poison, float %566, i64 0
  %585 = shufflevector <2 x float> %584, <2 x float> poison, <2 x i32> zeroinitializer
  %586 = fmul <2 x float> %583, %585
  %587 = insertelement <2 x float> poison, float %570, i64 0
  %588 = insertelement <2 x float> %587, float %576, i64 1
  %589 = insertelement <2 x float> poison, float %564, i64 0
  %590 = shufflevector <2 x float> %589, <2 x float> poison, <2 x i32> zeroinitializer
  %591 = call <2 x float> @llvm.fmuladd.v2f32(<2 x float> %588, <2 x float> %590, <2 x float> %586)
  %592 = insertelement <2 x float> poison, float %572, i64 0
  %593 = insertelement <2 x float> %592, float %578, i64 1
  %594 = insertelement <2 x float> poison, float %568, i64 0
  %595 = shufflevector <2 x float> %594, <2 x float> poison, <2 x i32> zeroinitializer
  %596 = call <2 x float> @llvm.fmuladd.v2f32(<2 x float> %593, <2 x float> %595, <2 x float> %591)
  %597 = load <2 x float>, ptr %569, align 4, !tbaa !5, !noalias !111
  %598 = fadd <2 x float> %597, %596
  %599 = fmul float %557, %566
  %600 = call float @llvm.fmuladd.f32(float %555, float %564, float %599)
  %601 = call float @llvm.fmuladd.f32(float %559, float %568, float %600)
  %602 = getelementptr inbounds %class.btCollisionObject, ptr %538, i64 0, i32 1, i32 1, i32 0, i64 2
  %603 = load float, ptr %602, align 4, !tbaa !5, !noalias !111
  %604 = fadd float %601, %603
  %605 = insertelement <2 x float> <float poison, float 0.000000e+00>, float %604, i64 0
  %606 = load <2 x float>, ptr %540, align 4, !tbaa !5, !noalias !106
  %607 = load <2 x float>, ptr %541, align 4, !tbaa !5, !noalias !106
  %608 = shufflevector <2 x float> %582, <2 x float> poison, <2 x i32> zeroinitializer
  %609 = fmul <2 x float> %608, %607
  %610 = shufflevector <2 x float> %587, <2 x float> poison, <2 x i32> zeroinitializer
  %611 = call <2 x float> @llvm.fmuladd.v2f32(<2 x float> %606, <2 x float> %610, <2 x float> %609)
  %612 = load <2 x float>, ptr %543, align 4, !tbaa !5, !noalias !106
  %613 = shufflevector <2 x float> %592, <2 x float> poison, <2 x i32> zeroinitializer
  %614 = call <2 x float> @llvm.fmuladd.v2f32(<2 x float> %612, <2 x float> %613, <2 x float> %611)
  store <2 x float> %614, ptr %8, align 16
  store float %575, ptr %501, align 8, !tbaa.struct !81
  store float 0.000000e+00, ptr %502, align 4, !tbaa.struct !90
  %615 = insertelement <2 x float> poison, float %577, i64 0
  %616 = shufflevector <2 x float> %615, <2 x float> poison, <2 x i32> zeroinitializer
  %617 = fmul <2 x float> %607, %616
  %618 = insertelement <2 x float> poison, float %576, i64 0
  %619 = shufflevector <2 x float> %618, <2 x float> poison, <2 x i32> zeroinitializer
  %620 = call <2 x float> @llvm.fmuladd.v2f32(<2 x float> %606, <2 x float> %619, <2 x float> %617)
  %621 = insertelement <2 x float> poison, float %578, i64 0
  %622 = shufflevector <2 x float> %621, <2 x float> poison, <2 x i32> zeroinitializer
  %623 = call <2 x float> @llvm.fmuladd.v2f32(<2 x float> %612, <2 x float> %622, <2 x float> %620)
  store <2 x float> %623, ptr %503, align 16
  store float %581, ptr %514, align 8, !tbaa.struct !81
  store float 0.000000e+00, ptr %515, align 4, !tbaa.struct !90
  %624 = insertelement <2 x float> poison, float %557, i64 0
  %625 = shufflevector <2 x float> %624, <2 x float> poison, <2 x i32> zeroinitializer
  %626 = fmul <2 x float> %607, %625
  %627 = insertelement <2 x float> poison, float %555, i64 0
  %628 = shufflevector <2 x float> %627, <2 x float> poison, <2 x i32> zeroinitializer
  %629 = call <2 x float> @llvm.fmuladd.v2f32(<2 x float> %606, <2 x float> %628, <2 x float> %626)
  %630 = insertelement <2 x float> poison, float %559, i64 0
  %631 = shufflevector <2 x float> %630, <2 x float> poison, <2 x i32> zeroinitializer
  %632 = call <2 x float> @llvm.fmuladd.v2f32(<2 x float> %612, <2 x float> %631, <2 x float> %629)
  store <2 x float> %632, ptr %516, align 16
  store float %562, ptr %527, align 8, !tbaa.struct !81
  store float 0.000000e+00, ptr %528, align 4, !tbaa.struct !90
  store <2 x float> %598, ptr %529, align 16, !tbaa.struct !74
  store <2 x float> %605, ptr %530, align 8, !tbaa.struct !81
  br i1 %44, label %638, label %633

633:                                              ; preds = %536
  %634 = load ptr, ptr %0, align 8, !tbaa !19
  %635 = getelementptr inbounds ptr, ptr %634, i64 4
  %636 = load ptr, ptr %635, align 8
  %637 = call noundef ptr %636(ptr noundef nonnull align 8 dereferenceable(129) %0)
  call void @_ZN12btIDebugDraw13drawTransformERK11btTransformf(ptr noundef nonnull align 8 dereferenceable(8) %637, ptr noundef nonnull align 4 dereferenceable(64) %8, float noundef %56)
  br label %638

638:                                              ; preds = %633, %536
  br i1 %54, label %967, label %639

639:                                              ; preds = %638
  call void @llvm.lifetime.start.p0(i64 16, ptr nonnull %9) #21
  %640 = call { <2 x float>, <2 x float> } @_ZNK21btConeTwistConstraint16GetPointForAngleEff(ptr noundef nonnull align 8 dereferenceable(640) %1, float noundef 0x401858EB60000000, float noundef %56)
  %641 = extractvalue { <2 x float>, <2 x float> } %640, 0
  %642 = getelementptr inbounds { <2 x float>, <2 x float> }, ptr %9, i64 0, i32 1
  %643 = extractvalue { <2 x float>, <2 x float> } %640, 1
  %644 = extractelement <2 x float> %641, i64 0
  %645 = extractelement <2 x float> %641, i64 1
  %646 = extractelement <2 x float> %643, i64 0
  %647 = load <4 x float>, ptr %8, align 16
  %648 = shufflevector <4 x float> %647, <4 x float> poison, <2 x i32> <i32 0, i32 undef>
  %649 = load <4 x float>, ptr %491, align 4
  %650 = shufflevector <4 x float> %649, <4 x float> poison, <2 x i32> <i32 0, i32 undef>
  %651 = load <4 x float>, ptr %501, align 8
  %652 = shufflevector <4 x float> %651, <4 x float> poison, <2 x i32> <i32 0, i32 undef>
  %653 = load float, ptr %503, align 16, !tbaa !5
  %654 = load float, ptr %504, align 4, !tbaa !5
  %655 = insertelement <2 x float> %650, float %654, i64 1
  %656 = shufflevector <2 x float> %641, <2 x float> poison, <2 x i32> <i32 1, i32 1>
  %657 = fmul <2 x float> %655, %656
  %658 = insertelement <2 x float> %648, float %653, i64 1
  %659 = shufflevector <2 x float> %641, <2 x float> poison, <2 x i32> zeroinitializer
  %660 = call <2 x float> @llvm.fmuladd.v2f32(<2 x float> %658, <2 x float> %659, <2 x float> %657)
  %661 = load float, ptr %514, align 8, !tbaa !5
  %662 = insertelement <2 x float> %652, float %661, i64 1
  %663 = shufflevector <2 x float> %643, <2 x float> poison, <2 x i32> zeroinitializer
  %664 = call <2 x float> @llvm.fmuladd.v2f32(<2 x float> %662, <2 x float> %663, <2 x float> %660)
  %665 = load <2 x float>, ptr %529, align 16, !tbaa !5
  %666 = fadd <2 x float> %664, %665
  %667 = load float, ptr %516, align 16, !tbaa !5
  %668 = load float, ptr %517, align 4, !tbaa !5
  %669 = fmul float %645, %668
  %670 = call float @llvm.fmuladd.f32(float %667, float %644, float %669)
  %671 = load float, ptr %527, align 8, !tbaa !5
  %672 = call float @llvm.fmuladd.f32(float %671, float %646, float %670)
  %673 = load float, ptr %530, align 8, !tbaa !5
  %674 = fadd float %673, %672
  %675 = insertelement <2 x float> <float poison, float 0.000000e+00>, float %674, i64 0
  store <2 x float> %666, ptr %9, align 8, !tbaa.struct !74
  store <2 x float> %675, ptr %642, align 8, !tbaa.struct !81
  %676 = getelementptr inbounds { <2 x float>, <2 x float> }, ptr %10, i64 0, i32 1
  br label %686

677:                                              ; preds = %743
  %678 = getelementptr inbounds %class.btConeTwistConstraint, ptr %1, i64 0, i32 10
  %679 = load float, ptr %678, align 4, !tbaa !112
  %680 = getelementptr inbounds %class.btConeTwistConstraint, ptr %1, i64 0, i32 19
  %681 = load float, ptr %680, align 8, !tbaa !116
  %682 = load ptr, ptr %537, align 8, !tbaa !83
  %683 = getelementptr inbounds %class.btRigidBody, ptr %682, i64 0, i32 4
  %684 = load float, ptr %683, align 8, !tbaa !117
  %685 = fcmp ogt float %684, 0.000000e+00
  br i1 %685, label %746, label %840

686:                                              ; preds = %639, %743
  %687 = phi i32 [ 0, %639 ], [ %744, %743 ]
  %688 = sitofp i32 %687 to float
  %689 = fmul float %688, 0x401921FB40000000
  %690 = fmul float %689, 3.125000e-02
  call void @llvm.lifetime.start.p0(i64 16, ptr nonnull %10) #21
  %691 = call { <2 x float>, <2 x float> } @_ZNK21btConeTwistConstraint16GetPointForAngleEff(ptr noundef nonnull align 8 dereferenceable(640) %1, float noundef %690, float noundef %56)
  %692 = extractvalue { <2 x float>, <2 x float> } %691, 0
  %693 = extractvalue { <2 x float>, <2 x float> } %691, 1
  %694 = extractelement <2 x float> %692, i64 0
  %695 = extractelement <2 x float> %692, i64 1
  %696 = extractelement <2 x float> %693, i64 0
  %697 = load <4 x float>, ptr %8, align 16
  %698 = shufflevector <4 x float> %697, <4 x float> poison, <2 x i32> <i32 0, i32 undef>
  %699 = load <4 x float>, ptr %491, align 4
  %700 = shufflevector <4 x float> %699, <4 x float> poison, <2 x i32> <i32 0, i32 undef>
  %701 = load <4 x float>, ptr %501, align 8
  %702 = shufflevector <4 x float> %701, <4 x float> poison, <2 x i32> <i32 0, i32 undef>
  %703 = load float, ptr %503, align 16, !tbaa !5
  %704 = load float, ptr %504, align 4, !tbaa !5
  %705 = insertelement <2 x float> %700, float %704, i64 1
  %706 = shufflevector <2 x float> %692, <2 x float> poison, <2 x i32> <i32 1, i32 1>
  %707 = fmul <2 x float> %705, %706
  %708 = insertelement <2 x float> %698, float %703, i64 1
  %709 = shufflevector <2 x float> %692, <2 x float> poison, <2 x i32> zeroinitializer
  %710 = call <2 x float> @llvm.fmuladd.v2f32(<2 x float> %708, <2 x float> %709, <2 x float> %707)
  %711 = load float, ptr %514, align 8, !tbaa !5
  %712 = insertelement <2 x float> %702, float %711, i64 1
  %713 = shufflevector <2 x float> %693, <2 x float> poison, <2 x i32> zeroinitializer
  %714 = call <2 x float> @llvm.fmuladd.v2f32(<2 x float> %712, <2 x float> %713, <2 x float> %710)
  %715 = load <2 x float>, ptr %529, align 16, !tbaa !5
  %716 = fadd <2 x float> %714, %715
  %717 = load float, ptr %516, align 16, !tbaa !5
  %718 = load float, ptr %517, align 4, !tbaa !5
  %719 = fmul float %695, %718
  %720 = call float @llvm.fmuladd.f32(float %717, float %694, float %719)
  %721 = load float, ptr %527, align 8, !tbaa !5
  %722 = call float @llvm.fmuladd.f32(float %721, float %696, float %720)
  %723 = load float, ptr %530, align 8, !tbaa !5
  %724 = fadd float %723, %722
  %725 = insertelement <2 x float> <float poison, float 0.000000e+00>, float %724, i64 0
  store <2 x float> %716, ptr %10, align 8, !tbaa.struct !74
  store <2 x float> %725, ptr %676, align 8, !tbaa.struct !81
  %726 = load ptr, ptr %0, align 8, !tbaa !19
  %727 = getelementptr inbounds ptr, ptr %726, i64 4
  %728 = load ptr, ptr %727, align 8
  %729 = call noundef ptr %728(ptr noundef nonnull align 8 dereferenceable(129) %0)
  call void @llvm.lifetime.start.p0(i64 16, ptr nonnull %11) #21
  call void @llvm.memset.p0.i64(ptr noundef nonnull align 4 dereferenceable(16) %11, i8 0, i64 16, i1 false)
  %730 = load ptr, ptr %729, align 8, !tbaa !19
  %731 = getelementptr inbounds ptr, ptr %730, i64 5
  %732 = load ptr, ptr %731, align 8
  call void %732(ptr noundef nonnull align 8 dereferenceable(8) %729, ptr noundef nonnull align 4 dereferenceable(16) %9, ptr noundef nonnull align 4 dereferenceable(16) %10, ptr noundef nonnull align 4 dereferenceable(16) %11)
  call void @llvm.lifetime.end.p0(i64 16, ptr nonnull %11) #21
  %733 = and i32 %687, 3
  %734 = icmp eq i32 %733, 0
  br i1 %734, label %735, label %743

735:                                              ; preds = %686
  %736 = load ptr, ptr %0, align 8, !tbaa !19
  %737 = getelementptr inbounds ptr, ptr %736, i64 4
  %738 = load ptr, ptr %737, align 8
  %739 = call noundef ptr %738(ptr noundef nonnull align 8 dereferenceable(129) %0)
  call void @llvm.lifetime.start.p0(i64 16, ptr nonnull %12) #21
  call void @llvm.memset.p0.i64(ptr noundef nonnull align 4 dereferenceable(16) %12, i8 0, i64 16, i1 false)
  %740 = load ptr, ptr %739, align 8, !tbaa !19
  %741 = getelementptr inbounds ptr, ptr %740, i64 5
  %742 = load ptr, ptr %741, align 8
  call void %742(ptr noundef nonnull align 8 dereferenceable(8) %739, ptr noundef nonnull align 4 dereferenceable(16) %529, ptr noundef nonnull align 4 dereferenceable(16) %10, ptr noundef nonnull align 4 dereferenceable(16) %12)
  call void @llvm.lifetime.end.p0(i64 16, ptr nonnull %12) #21
  br label %743

743:                                              ; preds = %735, %686
  call void @llvm.memcpy.p0.p0.i64(ptr noundef nonnull align 8 dereferenceable(16) %9, ptr noundef nonnull align 8 dereferenceable(16) %10, i64 16, i1 false), !tbaa.struct !74
  call void @llvm.lifetime.end.p0(i64 16, ptr nonnull %10) #21
  %744 = add nuw nsw i32 %687, 1
  %745 = icmp eq i32 %744, 32
  br i1 %745, label %677, label %686

746:                                              ; preds = %677
  %747 = getelementptr inbounds %class.btCollisionObject, ptr %682, i64 0, i32 1
  %748 = getelementptr inbounds %class.btCollisionObject, ptr %682, i64 0, i32 1, i32 0, i32 0, i64 0, i32 0, i64 1
  %749 = getelementptr inbounds %class.btCollisionObject, ptr %682, i64 0, i32 1, i32 0, i32 0, i64 0, i32 0, i64 2
  %750 = load <2 x float>, ptr %540, align 4, !tbaa !5, !noalias !119
  %751 = load <2 x float>, ptr %541, align 4, !tbaa !5, !noalias !119
  %752 = load <2 x float>, ptr %543, align 4, !tbaa !5, !noalias !119
  %753 = load float, ptr %549, align 4, !tbaa !5, !noalias !119
  %754 = getelementptr inbounds %class.btCollisionObject, ptr %682, i64 0, i32 1, i32 0, i32 0, i64 1
  %755 = getelementptr inbounds %class.btCollisionObject, ptr %682, i64 0, i32 1, i32 0, i32 0, i64 1, i32 0, i64 1
  %756 = getelementptr inbounds %class.btCollisionObject, ptr %682, i64 0, i32 1, i32 0, i32 0, i64 1, i32 0, i64 2
  %757 = getelementptr inbounds %class.btCollisionObject, ptr %682, i64 0, i32 1, i32 0, i32 0, i64 2
  %758 = getelementptr inbounds %class.btCollisionObject, ptr %682, i64 0, i32 1, i32 0, i32 0, i64 2, i32 0, i64 1
  %759 = load float, ptr %758, align 4, !tbaa !5, !noalias !119
  %760 = getelementptr inbounds %class.btCollisionObject, ptr %682, i64 0, i32 1, i32 0, i32 0, i64 2, i32 0, i64 2
  %761 = load float, ptr %760, align 4, !tbaa !5, !noalias !119
  %762 = insertelement <2 x float> poison, float %759, i64 0
  %763 = shufflevector <2 x float> %762, <2 x float> poison, <2 x i32> zeroinitializer
  %764 = fmul <2 x float> %751, %763
  %765 = insertelement <2 x float> poison, float %761, i64 0
  %766 = shufflevector <2 x float> %765, <2 x float> poison, <2 x i32> zeroinitializer
  %767 = load float, ptr %567, align 4, !tbaa !5, !noalias !124
  %768 = getelementptr inbounds %class.btCollisionObject, ptr %682, i64 0, i32 1, i32 1
  %769 = load float, ptr %545, align 4, !tbaa !5, !noalias !119
  %770 = load float, ptr %547, align 4, !tbaa !5, !noalias !119
  %771 = load float, ptr %757, align 4, !tbaa !5, !noalias !119
  %772 = load float, ptr %563, align 4, !tbaa !5, !noalias !124
  %773 = load float, ptr %565, align 4, !tbaa !5, !noalias !124
  %774 = insertelement <4 x float> poison, float %773, i64 0
  %775 = insertelement <4 x float> %774, float %770, i64 1
  %776 = shufflevector <4 x float> %775, <4 x float> poison, <4 x i32> <i32 0, i32 1, i32 1, i32 1>
  %777 = insertelement <4 x float> poison, float %759, i64 0
  %778 = insertelement <4 x float> poison, float %771, i64 0
  %779 = insertelement <4 x float> %778, float %769, i64 1
  %780 = shufflevector <4 x float> %779, <4 x float> poison, <4 x i32> <i32 0, i32 1, i32 1, i32 1>
  %781 = insertelement <4 x float> poison, float %772, i64 0
  %782 = insertelement <2 x float> poison, float %771, i64 0
  %783 = shufflevector <2 x float> %782, <2 x float> poison, <2 x i32> zeroinitializer
  %784 = call <2 x float> @llvm.fmuladd.v2f32(<2 x float> %750, <2 x float> %783, <2 x float> %764)
  %785 = call <2 x float> @llvm.fmuladd.v2f32(<2 x float> %752, <2 x float> %766, <2 x float> %784)
  %786 = load float, ptr %748, align 4, !tbaa !5, !noalias !119
  %787 = load float, ptr %749, align 4, !tbaa !5, !noalias !119
  %788 = insertelement <2 x float> poison, float %786, i64 0
  %789 = shufflevector <2 x float> %788, <2 x float> poison, <2 x i32> zeroinitializer
  %790 = fmul <2 x float> %789, %751
  %791 = insertelement <2 x float> poison, float %787, i64 0
  %792 = shufflevector <2 x float> %791, <2 x float> poison, <2 x i32> zeroinitializer
  %793 = load float, ptr %755, align 4, !tbaa !5, !noalias !119
  %794 = load float, ptr %756, align 4, !tbaa !5, !noalias !119
  %795 = insertelement <2 x float> poison, float %793, i64 0
  %796 = shufflevector <2 x float> %795, <2 x float> poison, <2 x i32> zeroinitializer
  %797 = fmul <2 x float> %751, %796
  %798 = insertelement <2 x float> poison, float %794, i64 0
  %799 = shufflevector <2 x float> %798, <2 x float> poison, <2 x i32> zeroinitializer
  %800 = load <2 x float>, ptr %768, align 4, !tbaa !5, !noalias !124
  %801 = load float, ptr %747, align 4, !tbaa !5, !noalias !119
  %802 = insertelement <2 x float> poison, float %801, i64 0
  %803 = shufflevector <2 x float> %802, <2 x float> poison, <2 x i32> zeroinitializer
  %804 = call <2 x float> @llvm.fmuladd.v2f32(<2 x float> %750, <2 x float> %803, <2 x float> %790)
  %805 = call <2 x float> @llvm.fmuladd.v2f32(<2 x float> %752, <2 x float> %792, <2 x float> %804)
  %806 = load float, ptr %754, align 4, !tbaa !5, !noalias !119
  %807 = insertelement <4 x float> %777, float %786, i64 1
  %808 = insertelement <4 x float> %807, float %793, i64 2
  %809 = shufflevector <4 x float> %808, <4 x float> poison, <4 x i32> <i32 0, i32 1, i32 2, i32 0>
  %810 = fmul <4 x float> %776, %809
  %811 = insertelement <4 x float> %781, float %801, i64 1
  %812 = insertelement <4 x float> %811, float %806, i64 2
  %813 = insertelement <4 x float> %812, float %771, i64 3
  %814 = call <4 x float> @llvm.fmuladd.v4f32(<4 x float> %780, <4 x float> %813, <4 x float> %810)
  %815 = insertelement <2 x float> poison, float %806, i64 0
  %816 = shufflevector <2 x float> %815, <2 x float> poison, <2 x i32> zeroinitializer
  %817 = call <2 x float> @llvm.fmuladd.v2f32(<2 x float> %750, <2 x float> %816, <2 x float> %797)
  %818 = call <2 x float> @llvm.fmuladd.v2f32(<2 x float> %752, <2 x float> %799, <2 x float> %817)
  %819 = insertelement <2 x float> %788, float %793, i64 1
  %820 = insertelement <2 x float> poison, float %773, i64 0
  %821 = shufflevector <2 x float> %820, <2 x float> poison, <2 x i32> zeroinitializer
  %822 = fmul <2 x float> %819, %821
  %823 = insertelement <2 x float> %802, float %806, i64 1
  %824 = insertelement <2 x float> poison, float %772, i64 0
  %825 = shufflevector <2 x float> %824, <2 x float> poison, <2 x i32> zeroinitializer
  %826 = call <2 x float> @llvm.fmuladd.v2f32(<2 x float> %823, <2 x float> %825, <2 x float> %822)
  %827 = insertelement <2 x float> %791, float %794, i64 1
  %828 = insertelement <2 x float> poison, float %767, i64 0
  %829 = shufflevector <2 x float> %828, <2 x float> poison, <2 x i32> zeroinitializer
  %830 = call <2 x float> @llvm.fmuladd.v2f32(<2 x float> %827, <2 x float> %829, <2 x float> %826)
  %831 = fadd <2 x float> %800, %830
  %832 = insertelement <4 x float> poison, float %761, i64 0
  %833 = insertelement <4 x float> %832, float %753, i64 1
  %834 = shufflevector <4 x float> %833, <4 x float> poison, <4 x i32> <i32 0, i32 1, i32 1, i32 1>
  %835 = insertelement <4 x float> poison, float %767, i64 0
  %836 = insertelement <4 x float> %835, float %787, i64 1
  %837 = insertelement <4 x float> %836, float %794, i64 2
  %838 = insertelement <4 x float> %837, float %761, i64 3
  %839 = call <4 x float> @llvm.fmuladd.v4f32(<4 x float> %834, <4 x float> %838, <4 x float> %814)
  br label %935

840:                                              ; preds = %677
  %841 = load ptr, ptr %422, align 8, !tbaa !82
  %842 = getelementptr inbounds %class.btCollisionObject, ptr %841, i64 0, i32 1
  %843 = getelementptr inbounds %class.btCollisionObject, ptr %841, i64 0, i32 1, i32 0, i32 0, i64 0, i32 0, i64 1
  %844 = getelementptr inbounds %class.btCollisionObject, ptr %841, i64 0, i32 1, i32 0, i32 0, i64 0, i32 0, i64 2
  %845 = load <2 x float>, ptr %425, align 4, !tbaa !5, !noalias !125
  %846 = load <2 x float>, ptr %426, align 4, !tbaa !5, !noalias !125
  %847 = load <2 x float>, ptr %428, align 4, !tbaa !5, !noalias !125
  %848 = load float, ptr %434, align 4, !tbaa !5, !noalias !125
  %849 = getelementptr inbounds %class.btCollisionObject, ptr %841, i64 0, i32 1, i32 0, i32 0, i64 1
  %850 = getelementptr inbounds %class.btCollisionObject, ptr %841, i64 0, i32 1, i32 0, i32 0, i64 1, i32 0, i64 1
  %851 = getelementptr inbounds %class.btCollisionObject, ptr %841, i64 0, i32 1, i32 0, i32 0, i64 1, i32 0, i64 2
  %852 = getelementptr inbounds %class.btCollisionObject, ptr %841, i64 0, i32 1, i32 0, i32 0, i64 2
  %853 = getelementptr inbounds %class.btCollisionObject, ptr %841, i64 0, i32 1, i32 0, i32 0, i64 2, i32 0, i64 1
  %854 = load float, ptr %853, align 4, !tbaa !5, !noalias !125
  %855 = getelementptr inbounds %class.btCollisionObject, ptr %841, i64 0, i32 1, i32 0, i32 0, i64 2, i32 0, i64 2
  %856 = load float, ptr %855, align 4, !tbaa !5, !noalias !125
  %857 = insertelement <2 x float> poison, float %854, i64 0
  %858 = shufflevector <2 x float> %857, <2 x float> poison, <2 x i32> zeroinitializer
  %859 = fmul <2 x float> %846, %858
  %860 = insertelement <2 x float> poison, float %856, i64 0
  %861 = shufflevector <2 x float> %860, <2 x float> poison, <2 x i32> zeroinitializer
  %862 = load float, ptr %452, align 4, !tbaa !5, !noalias !130
  %863 = getelementptr inbounds %class.btCollisionObject, ptr %841, i64 0, i32 1, i32 1
  %864 = load float, ptr %430, align 4, !tbaa !5, !noalias !125
  %865 = load float, ptr %432, align 4, !tbaa !5, !noalias !125
  %866 = load float, ptr %852, align 4, !tbaa !5, !noalias !125
  %867 = load float, ptr %448, align 4, !tbaa !5, !noalias !130
  %868 = load float, ptr %450, align 4, !tbaa !5, !noalias !130
  %869 = insertelement <4 x float> poison, float %868, i64 0
  %870 = insertelement <4 x float> %869, float %865, i64 1
  %871 = shufflevector <4 x float> %870, <4 x float> poison, <4 x i32> <i32 0, i32 1, i32 1, i32 1>
  %872 = insertelement <4 x float> poison, float %854, i64 0
  %873 = insertelement <4 x float> poison, float %866, i64 0
  %874 = insertelement <4 x float> %873, float %864, i64 1
  %875 = shufflevector <4 x float> %874, <4 x float> poison, <4 x i32> <i32 0, i32 1, i32 1, i32 1>
  %876 = insertelement <4 x float> poison, float %867, i64 0
  %877 = insertelement <2 x float> poison, float %866, i64 0
  %878 = shufflevector <2 x float> %877, <2 x float> poison, <2 x i32> zeroinitializer
  %879 = call <2 x float> @llvm.fmuladd.v2f32(<2 x float> %845, <2 x float> %878, <2 x float> %859)
  %880 = call <2 x float> @llvm.fmuladd.v2f32(<2 x float> %847, <2 x float> %861, <2 x float> %879)
  %881 = load float, ptr %843, align 4, !tbaa !5, !noalias !125
  %882 = load float, ptr %844, align 4, !tbaa !5, !noalias !125
  %883 = insertelement <2 x float> poison, float %881, i64 0
  %884 = shufflevector <2 x float> %883, <2 x float> poison, <2 x i32> zeroinitializer
  %885 = fmul <2 x float> %884, %846
  %886 = insertelement <2 x float> poison, float %882, i64 0
  %887 = shufflevector <2 x float> %886, <2 x float> poison, <2 x i32> zeroinitializer
  %888 = load float, ptr %850, align 4, !tbaa !5, !noalias !125
  %889 = load float, ptr %851, align 4, !tbaa !5, !noalias !125
  %890 = insertelement <2 x float> poison, float %888, i64 0
  %891 = shufflevector <2 x float> %890, <2 x float> poison, <2 x i32> zeroinitializer
  %892 = fmul <2 x float> %846, %891
  %893 = insertelement <2 x float> poison, float %889, i64 0
  %894 = shufflevector <2 x float> %893, <2 x float> poison, <2 x i32> zeroinitializer
  %895 = load <2 x float>, ptr %863, align 4, !tbaa !5, !noalias !130
  %896 = load float, ptr %842, align 4, !tbaa !5, !noalias !125
  %897 = insertelement <2 x float> poison, float %896, i64 0
  %898 = shufflevector <2 x float> %897, <2 x float> poison, <2 x i32> zeroinitializer
  %899 = call <2 x float> @llvm.fmuladd.v2f32(<2 x float> %845, <2 x float> %898, <2 x float> %885)
  %900 = call <2 x float> @llvm.fmuladd.v2f32(<2 x float> %847, <2 x float> %887, <2 x float> %899)
  %901 = load float, ptr %849, align 4, !tbaa !5, !noalias !125
  %902 = insertelement <4 x float> %872, float %881, i64 1
  %903 = insertelement <4 x float> %902, float %888, i64 2
  %904 = shufflevector <4 x float> %903, <4 x float> poison, <4 x i32> <i32 0, i32 1, i32 2, i32 0>
  %905 = fmul <4 x float> %871, %904
  %906 = insertelement <4 x float> %876, float %896, i64 1
  %907 = insertelement <4 x float> %906, float %901, i64 2
  %908 = insertelement <4 x float> %907, float %866, i64 3
  %909 = call <4 x float> @llvm.fmuladd.v4f32(<4 x float> %875, <4 x float> %908, <4 x float> %905)
  %910 = insertelement <2 x float> poison, float %901, i64 0
  %911 = shufflevector <2 x float> %910, <2 x float> poison, <2 x i32> zeroinitializer
  %912 = call <2 x float> @llvm.fmuladd.v2f32(<2 x float> %845, <2 x float> %911, <2 x float> %892)
  %913 = call <2 x float> @llvm.fmuladd.v2f32(<2 x float> %847, <2 x float> %894, <2 x float> %912)
  %914 = insertelement <2 x float> %883, float %888, i64 1
  %915 = insertelement <2 x float> poison, float %868, i64 0
  %916 = shufflevector <2 x float> %915, <2 x float> poison, <2 x i32> zeroinitializer
  %917 = fmul <2 x float> %914, %916
  %918 = insertelement <2 x float> %897, float %901, i64 1
  %919 = insertelement <2 x float> poison, float %867, i64 0
  %920 = shufflevector <2 x float> %919, <2 x float> poison, <2 x i32> zeroinitializer
  %921 = call <2 x float> @llvm.fmuladd.v2f32(<2 x float> %918, <2 x float> %920, <2 x float> %917)
  %922 = insertelement <2 x float> %886, float %889, i64 1
  %923 = insertelement <2 x float> poison, float %862, i64 0
  %924 = shufflevector <2 x float> %923, <2 x float> poison, <2 x i32> zeroinitializer
  %925 = call <2 x float> @llvm.fmuladd.v2f32(<2 x float> %922, <2 x float> %924, <2 x float> %921)
  %926 = fadd <2 x float> %895, %925
  %927 = insertelement <4 x float> poison, float %856, i64 0
  %928 = insertelement <4 x float> %927, float %848, i64 1
  %929 = shufflevector <4 x float> %928, <4 x float> poison, <4 x i32> <i32 0, i32 1, i32 1, i32 1>
  %930 = insertelement <4 x float> poison, float %862, i64 0
  %931 = insertelement <4 x float> %930, float %882, i64 1
  %932 = insertelement <4 x float> %931, float %889, i64 2
  %933 = insertelement <4 x float> %932, float %856, i64 3
  %934 = call <4 x float> @llvm.fmuladd.v4f32(<4 x float> %929, <4 x float> %933, <4 x float> %909)
  br label %935

935:                                              ; preds = %840, %746
  %936 = phi ptr [ %841, %840 ], [ %682, %746 ]
  %937 = phi <2 x float> [ %900, %840 ], [ %805, %746 ]
  %938 = phi <2 x float> [ %913, %840 ], [ %818, %746 ]
  %939 = phi <2 x float> [ %880, %840 ], [ %785, %746 ]
  %940 = phi <4 x float> [ %934, %840 ], [ %839, %746 ]
  %941 = phi <2 x float> [ %926, %840 ], [ %831, %746 ]
  %942 = getelementptr inbounds %class.btCollisionObject, ptr %936, i64 0, i32 1, i32 1, i32 0, i64 2
  %943 = load float, ptr %942, align 4, !tbaa !5, !noalias !57
  %944 = extractelement <4 x float> %940, i64 0
  %945 = fadd float %944, %943
  %946 = insertelement <2 x float> <float poison, float 0.000000e+00>, float %945, i64 0
  store <2 x float> %937, ptr %8, align 16
  %947 = extractelement <4 x float> %940, i64 1
  store float %947, ptr %501, align 8
  store float 0.000000e+00, ptr %502, align 4
  store <2 x float> %938, ptr %503, align 16
  %948 = extractelement <4 x float> %940, i64 2
  store float %948, ptr %514, align 8
  store float 0.000000e+00, ptr %515, align 4
  store <2 x float> %939, ptr %516, align 16
  %949 = extractelement <4 x float> %940, i64 3
  store float %949, ptr %527, align 8
  store float 0.000000e+00, ptr %528, align 4
  store <2 x float> %941, ptr %529, align 16
  store <2 x float> %946, ptr %530, align 8
  call void @llvm.lifetime.start.p0(i64 16, ptr nonnull %13) #21
  call void @llvm.memcpy.p0.p0.i64(ptr noundef nonnull align 4 dereferenceable(16) %13, ptr noundef nonnull align 16 dereferenceable(16) %529, i64 16, i1 false), !tbaa.struct !74
  call void @llvm.lifetime.start.p0(i64 16, ptr nonnull %14) #21
  %950 = load <4 x float>, ptr %8, align 16
  %951 = shufflevector <4 x float> %950, <4 x float> poison, <2 x i32> <i32 0, i32 undef>
  %952 = shufflevector <2 x float> %951, <2 x float> %938, <2 x i32> <i32 0, i32 2>
  %953 = insertelement <2 x float> %939, float 0.000000e+00, i64 1
  store <2 x float> %952, ptr %14, align 8
  %954 = getelementptr inbounds { <2 x float>, <2 x float> }, ptr %14, i64 0, i32 1
  store <2 x float> %953, ptr %954, align 8
  call void @llvm.lifetime.start.p0(i64 16, ptr nonnull %15) #21
  %955 = load <4 x float>, ptr %491, align 4
  %956 = shufflevector <4 x float> %955, <4 x float> poison, <2 x i32> <i32 0, i32 undef>
  %957 = shufflevector <2 x float> %956, <2 x float> %938, <2 x i32> <i32 0, i32 3>
  %958 = shufflevector <2 x float> <float poison, float 0.000000e+00>, <2 x float> %939, <2 x i32> <i32 3, i32 1>
  store <2 x float> %957, ptr %15, align 8
  %959 = getelementptr inbounds { <2 x float>, <2 x float> }, ptr %15, i64 0, i32 1
  store <2 x float> %958, ptr %959, align 8
  %960 = load ptr, ptr %0, align 8, !tbaa !19
  %961 = getelementptr inbounds ptr, ptr %960, i64 4
  %962 = load ptr, ptr %961, align 8
  %963 = call noundef ptr %962(ptr noundef nonnull align 8 dereferenceable(129) %0)
  %964 = fneg float %681
  %965 = fsub float %964, %679
  %966 = fsub float %679, %681
  call void @llvm.lifetime.start.p0(i64 16, ptr nonnull %16) #21
  call void @llvm.memset.p0.i64(ptr noundef nonnull align 4 dereferenceable(16) %16, i8 0, i64 16, i1 false)
  call void @_ZN12btIDebugDraw7drawArcERK9btVector3S2_S2_ffffS2_bf(ptr noundef nonnull align 8 dereferenceable(8) %963, ptr noundef nonnull align 4 dereferenceable(16) %13, ptr noundef nonnull align 4 dereferenceable(16) %14, ptr noundef nonnull align 4 dereferenceable(16) %15, float noundef %56, float noundef %56, float noundef %965, float noundef %966, ptr noundef nonnull align 4 dereferenceable(16) %16, i1 noundef zeroext true, float noundef 1.000000e+01)
  call void @llvm.lifetime.end.p0(i64 16, ptr nonnull %16) #21
  call void @llvm.lifetime.end.p0(i64 16, ptr nonnull %15) #21
  call void @llvm.lifetime.end.p0(i64 16, ptr nonnull %14) #21
  call void @llvm.lifetime.end.p0(i64 16, ptr nonnull %13) #21
  call void @llvm.lifetime.end.p0(i64 16, ptr nonnull %9) #21
  br label %967

967:                                              ; preds = %935, %638
  call void @llvm.lifetime.end.p0(i64 64, ptr nonnull %8) #21
  br label %1194

968:                                              ; preds = %58
  call void @llvm.lifetime.start.p0(i64 64, ptr nonnull %17) #21
  %969 = getelementptr inbounds %class.btGeneric6DofConstraint, ptr %1, i64 0, i32 8
  call void @llvm.memcpy.p0.p0.i64(ptr noundef nonnull align 16 dereferenceable(16) %17, ptr noundef nonnull align 4 dereferenceable(16) %969, i64 16, i1 false), !tbaa.struct !74
  %970 = getelementptr inbounds %class.btGeneric6DofConstraint, ptr %1, i64 0, i32 8, i32 0, i32 0, i64 1
  %971 = getelementptr inbounds [3 x %class.btVector3], ptr %17, i64 0, i64 1
  call void @llvm.memcpy.p0.p0.i64(ptr noundef nonnull align 16 dereferenceable(16) %971, ptr noundef nonnull align 4 dereferenceable(16) %970, i64 16, i1 false), !tbaa.struct !74
  %972 = getelementptr inbounds %class.btGeneric6DofConstraint, ptr %1, i64 0, i32 8, i32 0, i32 0, i64 2
  %973 = getelementptr inbounds [3 x %class.btVector3], ptr %17, i64 0, i64 2
  call void @llvm.memcpy.p0.p0.i64(ptr noundef nonnull align 16 dereferenceable(16) %973, ptr noundef nonnull align 4 dereferenceable(16) %972, i64 16, i1 false), !tbaa.struct !74
  %974 = getelementptr inbounds %class.btTransform, ptr %17, i64 0, i32 1
  %975 = getelementptr inbounds %class.btGeneric6DofConstraint, ptr %1, i64 0, i32 8, i32 1
  call void @llvm.memcpy.p0.p0.i64(ptr noundef nonnull align 16 dereferenceable(16) %974, ptr noundef nonnull align 4 dereferenceable(16) %975, i64 16, i1 false), !tbaa.struct !74
  br i1 %44, label %981, label %976

976:                                              ; preds = %968
  %977 = load ptr, ptr %0, align 8, !tbaa !19
  %978 = getelementptr inbounds ptr, ptr %977, i64 4
  %979 = load ptr, ptr %978, align 8
  %980 = tail call noundef ptr %979(ptr noundef nonnull align 8 dereferenceable(129) %0)
  call void @_ZN12btIDebugDraw13drawTransformERK11btTransformf(ptr noundef nonnull align 8 dereferenceable(8) %980, ptr noundef nonnull align 4 dereferenceable(64) %17, float noundef %56)
  br label %981

981:                                              ; preds = %976, %968
  %982 = getelementptr inbounds %class.btGeneric6DofConstraint, ptr %1, i64 0, i32 9
  call void @llvm.memcpy.p0.p0.i64(ptr noundef nonnull align 16 dereferenceable(16) %17, ptr noundef nonnull align 4 dereferenceable(16) %982, i64 16, i1 false), !tbaa.struct !74
  %983 = getelementptr inbounds %class.btGeneric6DofConstraint, ptr %1, i64 0, i32 9, i32 0, i32 0, i64 1
  call void @llvm.memcpy.p0.p0.i64(ptr noundef nonnull align 16 dereferenceable(16) %971, ptr noundef nonnull align 4 dereferenceable(16) %983, i64 16, i1 false), !tbaa.struct !74
  %984 = getelementptr inbounds %class.btGeneric6DofConstraint, ptr %1, i64 0, i32 9, i32 0, i32 0, i64 2
  call void @llvm.memcpy.p0.p0.i64(ptr noundef nonnull align 16 dereferenceable(16) %973, ptr noundef nonnull align 4 dereferenceable(16) %984, i64 16, i1 false), !tbaa.struct !74
  %985 = getelementptr inbounds %class.btGeneric6DofConstraint, ptr %1, i64 0, i32 9, i32 1
  call void @llvm.memcpy.p0.p0.i64(ptr noundef nonnull align 16 dereferenceable(16) %974, ptr noundef nonnull align 4 dereferenceable(16) %985, i64 16, i1 false), !tbaa.struct !74
  br i1 %44, label %991, label %986

986:                                              ; preds = %981
  %987 = load ptr, ptr %0, align 8, !tbaa !19
  %988 = getelementptr inbounds ptr, ptr %987, i64 4
  %989 = load ptr, ptr %988, align 8
  %990 = call noundef ptr %989(ptr noundef nonnull align 8 dereferenceable(129) %0)
  call void @_ZN12btIDebugDraw13drawTransformERK11btTransformf(ptr noundef nonnull align 8 dereferenceable(8) %990, ptr noundef nonnull align 4 dereferenceable(64) %17, float noundef %56)
  br label %991

991:                                              ; preds = %986, %981
  br i1 %54, label %1094, label %992

992:                                              ; preds = %991
  call void @llvm.memcpy.p0.p0.i64(ptr noundef nonnull align 16 dereferenceable(16) %17, ptr noundef nonnull align 4 dereferenceable(16) %969, i64 16, i1 false), !tbaa.struct !74
  call void @llvm.memcpy.p0.p0.i64(ptr noundef nonnull align 16 dereferenceable(16) %971, ptr noundef nonnull align 4 dereferenceable(16) %970, i64 16, i1 false), !tbaa.struct !74
  call void @llvm.memcpy.p0.p0.i64(ptr noundef nonnull align 16 dereferenceable(16) %973, ptr noundef nonnull align 4 dereferenceable(16) %972, i64 16, i1 false), !tbaa.struct !74
  call void @llvm.memcpy.p0.p0.i64(ptr noundef nonnull align 16 dereferenceable(16) %974, ptr noundef nonnull align 4 dereferenceable(16) %975, i64 16, i1 false), !tbaa.struct !74
  call void @llvm.lifetime.start.p0(i64 16, ptr nonnull %18) #21
  %993 = getelementptr inbounds float, ptr %17, i64 2
  %994 = getelementptr inbounds [3 x %class.btVector3], ptr %17, i64 0, i64 1, i32 0, i64 2
  %995 = getelementptr inbounds [3 x %class.btVector3], ptr %17, i64 0, i64 2, i32 0, i64 2
  %996 = load <4 x float>, ptr %993, align 8
  %997 = shufflevector <4 x float> %996, <4 x float> poison, <2 x i32> <i32 0, i32 undef>
  %998 = load float, ptr %994, align 8, !tbaa !5
  %999 = insertelement <2 x float> %997, float %998, i64 1
  %1000 = load float, ptr %995, align 8, !tbaa !5
  %1001 = insertelement <2 x float> <float poison, float 0.000000e+00>, float %1000, i64 0
  store <2 x float> %999, ptr %18, align 8
  %1002 = getelementptr inbounds { <2 x float>, <2 x float> }, ptr %18, i64 0, i32 1
  store <2 x float> %1001, ptr %1002, align 8
  call void @llvm.lifetime.start.p0(i64 16, ptr nonnull %19) #21
  %1003 = load <4 x float>, ptr %17, align 16
  %1004 = shufflevector <4 x float> %1003, <4 x float> poison, <2 x i32> <i32 0, i32 undef>
  %1005 = extractelement <4 x float> %996, i64 2
  %1006 = insertelement <2 x float> %1004, float %1005, i64 1
  %1007 = load float, ptr %973, align 16, !tbaa !5
  %1008 = insertelement <2 x float> <float poison, float 0.000000e+00>, float %1007, i64 0
  store <2 x float> %1006, ptr %19, align 8
  %1009 = getelementptr inbounds { <2 x float>, <2 x float> }, ptr %19, i64 0, i32 1
  store <2 x float> %1008, ptr %1009, align 8
  %1010 = getelementptr inbounds %class.btGeneric6DofConstraint, ptr %1, i64 0, i32 6, i64 1
  %1011 = load float, ptr %1010, align 4, !tbaa !131
  %1012 = getelementptr inbounds %class.btGeneric6DofConstraint, ptr %1, i64 0, i32 6, i64 1, i32 1
  %1013 = load float, ptr %1012, align 4, !tbaa !133
  %1014 = getelementptr inbounds %class.btGeneric6DofConstraint, ptr %1, i64 0, i32 6, i64 2
  %1015 = load float, ptr %1014, align 4, !tbaa !131
  %1016 = getelementptr inbounds %class.btGeneric6DofConstraint, ptr %1, i64 0, i32 6, i64 2, i32 1
  %1017 = load float, ptr %1016, align 4, !tbaa !133
  %1018 = load ptr, ptr %0, align 8, !tbaa !19
  %1019 = getelementptr inbounds ptr, ptr %1018, i64 4
  %1020 = load ptr, ptr %1019, align 8
  %1021 = call noundef ptr %1020(ptr noundef nonnull align 8 dereferenceable(129) %0)
  %1022 = fmul float %56, 0x3FECCCCCC0000000
  call void @llvm.lifetime.start.p0(i64 16, ptr nonnull %20) #21
  call void @llvm.memset.p0.i64(ptr noundef nonnull align 4 dereferenceable(16) %20, i8 0, i64 16, i1 false)
  call void @_ZN12btIDebugDraw15drawSpherePatchERK9btVector3S2_S2_fffffS2_f(ptr noundef nonnull align 8 dereferenceable(8) %1021, ptr noundef nonnull align 4 dereferenceable(16) %985, ptr noundef nonnull align 4 dereferenceable(16) %18, ptr noundef nonnull align 4 dereferenceable(16) %19, float noundef %1022, float noundef %1011, float noundef %1013, float noundef %1015, float noundef %1017, ptr noundef nonnull align 4 dereferenceable(16) %20, float noundef 1.000000e+01)
  call void @llvm.lifetime.end.p0(i64 16, ptr nonnull %20) #21
  %1023 = getelementptr inbounds float, ptr %17, i64 1
  %1024 = getelementptr inbounds [3 x %class.btVector3], ptr %17, i64 0, i64 1, i32 0, i64 1
  %1025 = getelementptr inbounds [3 x %class.btVector3], ptr %17, i64 0, i64 2, i32 0, i64 1
  %1026 = load <4 x float>, ptr %1023, align 4
  %1027 = shufflevector <4 x float> %1026, <4 x float> poison, <2 x i32> <i32 0, i32 undef>
  %1028 = load float, ptr %1024, align 4, !tbaa !5
  %1029 = insertelement <2 x float> %1027, float %1028, i64 1
  %1030 = load float, ptr %1025, align 4, !tbaa !5
  %1031 = insertelement <2 x float> <float poison, float 0.000000e+00>, float %1030, i64 0
  store <2 x float> %1029, ptr %19, align 8, !tbaa.struct !74
  store <2 x float> %1031, ptr %1009, align 8, !tbaa.struct !81
  %1032 = call noundef float @_ZNK23btGeneric6DofConstraint8getAngleEi(ptr noundef nonnull align 8 dereferenceable(1266) %1, i32 noundef 1)
  %1033 = call noundef float @_ZNK23btGeneric6DofConstraint8getAngleEi(ptr noundef nonnull align 8 dereferenceable(1266) %1, i32 noundef 2)
  %1034 = call float @cosf(float noundef %1032) #21
  %1035 = call float @sinf(float noundef %1032) #21
  %1036 = call float @cosf(float noundef %1033) #21
  %1037 = call float @sinf(float noundef %1033) #21
  call void @llvm.lifetime.start.p0(i64 16, ptr nonnull %21) #21
  %1038 = fmul float %1034, %1036
  %1039 = fmul float %1034, %1037
  %1040 = getelementptr inbounds float, ptr %19, i64 1
  %1041 = load float, ptr %1040, align 4, !tbaa !5
  %1042 = fmul float %1039, %1041
  %1043 = fmul float %1036, %1041
  %1044 = load float, ptr %19, align 8, !tbaa !5
  %1045 = call float @llvm.fmuladd.f32(float %1038, float %1044, float %1042)
  %1046 = load float, ptr %1009, align 8, !tbaa !5
  %1047 = insertelement <2 x float> poison, float %1035, i64 0
  %1048 = insertelement <2 x float> %1047, float %1037, i64 1
  %1049 = fneg <2 x float> %1048
  %1050 = insertelement <2 x float> poison, float %1046, i64 0
  %1051 = insertelement <2 x float> %1050, float %1044, i64 1
  %1052 = insertelement <2 x float> poison, float %1045, i64 0
  %1053 = insertelement <2 x float> %1052, float %1043, i64 1
  %1054 = call <2 x float> @llvm.fmuladd.v2f32(<2 x float> %1049, <2 x float> %1051, <2 x float> %1053)
  store <2 x float> %1054, ptr %21, align 8, !tbaa !5
  %1055 = fmul float %1035, %1036
  %1056 = fmul float %1035, %1037
  %1057 = fmul float %1056, %1041
  %1058 = call float @llvm.fmuladd.f32(float %1055, float %1044, float %1057)
  %1059 = call float @llvm.fmuladd.f32(float %1034, float %1046, float %1058)
  %1060 = getelementptr inbounds float, ptr %21, i64 2
  store float %1059, ptr %1060, align 8, !tbaa !5
  call void @llvm.memcpy.p0.p0.i64(ptr noundef nonnull align 16 dereferenceable(16) %17, ptr noundef nonnull align 4 dereferenceable(16) %982, i64 16, i1 false), !tbaa.struct !74
  call void @llvm.memcpy.p0.p0.i64(ptr noundef nonnull align 16 dereferenceable(16) %971, ptr noundef nonnull align 4 dereferenceable(16) %983, i64 16, i1 false), !tbaa.struct !74
  call void @llvm.memcpy.p0.p0.i64(ptr noundef nonnull align 16 dereferenceable(16) %973, ptr noundef nonnull align 4 dereferenceable(16) %984, i64 16, i1 false), !tbaa.struct !74
  call void @llvm.memcpy.p0.p0.i64(ptr noundef nonnull align 16 dereferenceable(16) %974, ptr noundef nonnull align 4 dereferenceable(16) %985, i64 16, i1 false), !tbaa.struct !74
  call void @llvm.lifetime.start.p0(i64 16, ptr nonnull %22) #21
  %1061 = load float, ptr %973, align 16, !tbaa !5
  %1062 = load <4 x float>, ptr %17, align 16
  %1063 = shufflevector <4 x float> %1062, <4 x float> poison, <2 x i32> <i32 0, i32 undef>
  %1064 = load float, ptr %971, align 16, !tbaa !5
  %1065 = insertelement <2 x float> %1063, float %1064, i64 1
  %1066 = fneg <2 x float> %1065
  %1067 = fneg float %1061
  %1068 = insertelement <2 x float> <float poison, float 0.000000e+00>, float %1067, i64 0
  store <2 x float> %1066, ptr %22, align 8
  %1069 = getelementptr inbounds { <2 x float>, <2 x float> }, ptr %22, i64 0, i32 1
  store <2 x float> %1068, ptr %1069, align 8
  %1070 = getelementptr inbounds %class.btGeneric6DofConstraint, ptr %1, i64 0, i32 6, i64 0
  %1071 = load float, ptr %1070, align 4, !tbaa !131
  %1072 = getelementptr inbounds %class.btGeneric6DofConstraint, ptr %1, i64 0, i32 6, i64 0, i32 1
  %1073 = load float, ptr %1072, align 4, !tbaa !133
  %1074 = fcmp ogt float %1071, %1073
  br i1 %1074, label %1075, label %1080

1075:                                             ; preds = %992
  %1076 = load ptr, ptr %0, align 8, !tbaa !19
  %1077 = getelementptr inbounds ptr, ptr %1076, i64 4
  %1078 = load ptr, ptr %1077, align 8
  %1079 = call noundef ptr %1078(ptr noundef nonnull align 8 dereferenceable(129) %0)
  call void @llvm.lifetime.start.p0(i64 16, ptr nonnull %23) #21
  call void @llvm.memset.p0.i64(ptr noundef nonnull align 4 dereferenceable(16) %23, i8 0, i64 16, i1 false)
  call void @_ZN12btIDebugDraw7drawArcERK9btVector3S2_S2_ffffS2_bf(ptr noundef nonnull align 8 dereferenceable(8) %1079, ptr noundef nonnull align 4 dereferenceable(16) %985, ptr noundef nonnull align 4 dereferenceable(16) %22, ptr noundef nonnull align 4 dereferenceable(16) %21, float noundef %56, float noundef %56, float noundef 0xC00921FB60000000, float noundef 0x400921FB60000000, ptr noundef nonnull align 4 dereferenceable(16) %23, i1 noundef zeroext false, float noundef 1.000000e+01)
  call void @llvm.lifetime.end.p0(i64 16, ptr nonnull %23) #21
  br label %1087

1080:                                             ; preds = %992
  %1081 = fcmp olt float %1071, %1073
  br i1 %1081, label %1082, label %1087

1082:                                             ; preds = %1080
  %1083 = load ptr, ptr %0, align 8, !tbaa !19
  %1084 = getelementptr inbounds ptr, ptr %1083, i64 4
  %1085 = load ptr, ptr %1084, align 8
  %1086 = call noundef ptr %1085(ptr noundef nonnull align 8 dereferenceable(129) %0)
  call void @llvm.lifetime.start.p0(i64 16, ptr nonnull %24) #21
  call void @llvm.memset.p0.i64(ptr noundef nonnull align 4 dereferenceable(16) %24, i8 0, i64 16, i1 false)
  call void @_ZN12btIDebugDraw7drawArcERK9btVector3S2_S2_ffffS2_bf(ptr noundef nonnull align 8 dereferenceable(8) %1086, ptr noundef nonnull align 4 dereferenceable(16) %985, ptr noundef nonnull align 4 dereferenceable(16) %22, ptr noundef nonnull align 4 dereferenceable(16) %21, float noundef %56, float noundef %56, float noundef %1071, float noundef %1073, ptr noundef nonnull align 4 dereferenceable(16) %24, i1 noundef zeroext true, float noundef 1.000000e+01)
  call void @llvm.lifetime.end.p0(i64 16, ptr nonnull %24) #21
  br label %1087

1087:                                             ; preds = %1080, %1082, %1075
  call void @llvm.memcpy.p0.p0.i64(ptr noundef nonnull align 16 dereferenceable(16) %17, ptr noundef nonnull align 4 dereferenceable(16) %969, i64 16, i1 false), !tbaa.struct !74
  call void @llvm.memcpy.p0.p0.i64(ptr noundef nonnull align 16 dereferenceable(16) %971, ptr noundef nonnull align 4 dereferenceable(16) %970, i64 16, i1 false), !tbaa.struct !74
  call void @llvm.memcpy.p0.p0.i64(ptr noundef nonnull align 16 dereferenceable(16) %973, ptr noundef nonnull align 4 dereferenceable(16) %972, i64 16, i1 false), !tbaa.struct !74
  call void @llvm.memcpy.p0.p0.i64(ptr noundef nonnull align 16 dereferenceable(16) %974, ptr noundef nonnull align 4 dereferenceable(16) %975, i64 16, i1 false), !tbaa.struct !74
  call void @llvm.lifetime.start.p0(i64 16, ptr nonnull %25) #21
  %1088 = getelementptr inbounds %class.btGeneric6DofConstraint, ptr %1, i64 0, i32 5
  call void @llvm.memcpy.p0.p0.i64(ptr noundef nonnull align 4 dereferenceable(16) %25, ptr noundef nonnull align 4 dereferenceable(16) %1088, i64 16, i1 false), !tbaa.struct !74
  call void @llvm.lifetime.start.p0(i64 16, ptr nonnull %26) #21
  %1089 = getelementptr inbounds %class.btGeneric6DofConstraint, ptr %1, i64 0, i32 5, i32 1
  call void @llvm.memcpy.p0.p0.i64(ptr noundef nonnull align 4 dereferenceable(16) %26, ptr noundef nonnull align 4 dereferenceable(16) %1089, i64 16, i1 false), !tbaa.struct !74
  %1090 = load ptr, ptr %0, align 8, !tbaa !19
  %1091 = getelementptr inbounds ptr, ptr %1090, i64 4
  %1092 = load ptr, ptr %1091, align 8
  %1093 = call noundef ptr %1092(ptr noundef nonnull align 8 dereferenceable(129) %0)
  call void @llvm.lifetime.start.p0(i64 16, ptr nonnull %27) #21
  call void @llvm.memset.p0.i64(ptr noundef nonnull align 4 dereferenceable(16) %27, i8 0, i64 16, i1 false)
  call void @_ZN12btIDebugDraw7drawBoxERK9btVector3S2_RK11btTransformS2_(ptr noundef nonnull align 8 dereferenceable(8) %1093, ptr noundef nonnull align 4 dereferenceable(16) %25, ptr noundef nonnull align 4 dereferenceable(16) %26, ptr noundef nonnull align 4 dereferenceable(64) %17, ptr noundef nonnull align 4 dereferenceable(16) %27)
  call void @llvm.lifetime.end.p0(i64 16, ptr nonnull %27) #21
  call void @llvm.lifetime.end.p0(i64 16, ptr nonnull %26) #21
  call void @llvm.lifetime.end.p0(i64 16, ptr nonnull %25) #21
  call void @llvm.lifetime.end.p0(i64 16, ptr nonnull %22) #21
  call void @llvm.lifetime.end.p0(i64 16, ptr nonnull %21) #21
  call void @llvm.lifetime.end.p0(i64 16, ptr nonnull %19) #21
  call void @llvm.lifetime.end.p0(i64 16, ptr nonnull %18) #21
  br label %1094

1094:                                             ; preds = %1087, %991
  call void @llvm.lifetime.end.p0(i64 64, ptr nonnull %17) #21
  br label %1194

1095:                                             ; preds = %58
  call void @llvm.lifetime.start.p0(i64 64, ptr nonnull %28) #21
  %1096 = getelementptr inbounds %class.btSliderConstraint, ptr %1, i64 0, i32 36
  call void @llvm.memcpy.p0.p0.i64(ptr noundef nonnull align 4 dereferenceable(16) %28, ptr noundef nonnull align 4 dereferenceable(16) %1096, i64 16, i1 false), !tbaa.struct !74
  %1097 = getelementptr inbounds %class.btSliderConstraint, ptr %1, i64 0, i32 36, i32 0, i32 0, i64 1
  %1098 = getelementptr inbounds [3 x %class.btVector3], ptr %28, i64 0, i64 1
  call void @llvm.memcpy.p0.p0.i64(ptr noundef nonnull align 4 dereferenceable(16) %1098, ptr noundef nonnull align 4 dereferenceable(16) %1097, i64 16, i1 false), !tbaa.struct !74
  %1099 = getelementptr inbounds %class.btSliderConstraint, ptr %1, i64 0, i32 36, i32 0, i32 0, i64 2
  %1100 = getelementptr inbounds [3 x %class.btVector3], ptr %28, i64 0, i64 2
  call void @llvm.memcpy.p0.p0.i64(ptr noundef nonnull align 4 dereferenceable(16) %1100, ptr noundef nonnull align 4 dereferenceable(16) %1099, i64 16, i1 false), !tbaa.struct !74
  %1101 = getelementptr inbounds %class.btTransform, ptr %28, i64 0, i32 1
  %1102 = getelementptr inbounds %class.btSliderConstraint, ptr %1, i64 0, i32 36, i32 1
  call void @llvm.memcpy.p0.p0.i64(ptr noundef nonnull align 4 dereferenceable(16) %1101, ptr noundef nonnull align 4 dereferenceable(16) %1102, i64 16, i1 false), !tbaa.struct !74
  br i1 %44, label %1108, label %1103

1103:                                             ; preds = %1095
  %1104 = load ptr, ptr %0, align 8, !tbaa !19
  %1105 = getelementptr inbounds ptr, ptr %1104, i64 4
  %1106 = load ptr, ptr %1105, align 8
  %1107 = tail call noundef ptr %1106(ptr noundef nonnull align 8 dereferenceable(129) %0)
  call void @_ZN12btIDebugDraw13drawTransformERK11btTransformf(ptr noundef nonnull align 8 dereferenceable(8) %1107, ptr noundef nonnull align 4 dereferenceable(64) %28, float noundef %56)
  br label %1108

1108:                                             ; preds = %1103, %1095
  %1109 = getelementptr inbounds %class.btSliderConstraint, ptr %1, i64 0, i32 37
  call void @llvm.memcpy.p0.p0.i64(ptr noundef nonnull align 4 dereferenceable(16) %28, ptr noundef nonnull align 4 dereferenceable(16) %1109, i64 16, i1 false), !tbaa.struct !74
  %1110 = getelementptr inbounds %class.btSliderConstraint, ptr %1, i64 0, i32 37, i32 0, i32 0, i64 1
  call void @llvm.memcpy.p0.p0.i64(ptr noundef nonnull align 4 dereferenceable(16) %1098, ptr noundef nonnull align 4 dereferenceable(16) %1110, i64 16, i1 false), !tbaa.struct !74
  %1111 = getelementptr inbounds %class.btSliderConstraint, ptr %1, i64 0, i32 37, i32 0, i32 0, i64 2
  call void @llvm.memcpy.p0.p0.i64(ptr noundef nonnull align 4 dereferenceable(16) %1100, ptr noundef nonnull align 4 dereferenceable(16) %1111, i64 16, i1 false), !tbaa.struct !74
  %1112 = getelementptr inbounds %class.btSliderConstraint, ptr %1, i64 0, i32 37, i32 1
  call void @llvm.memcpy.p0.p0.i64(ptr noundef nonnull align 4 dereferenceable(16) %1101, ptr noundef nonnull align 4 dereferenceable(16) %1112, i64 16, i1 false), !tbaa.struct !74
  br i1 %44, label %1118, label %1113

1113:                                             ; preds = %1108
  %1114 = load ptr, ptr %0, align 8, !tbaa !19
  %1115 = getelementptr inbounds ptr, ptr %1114, i64 4
  %1116 = load ptr, ptr %1115, align 8
  %1117 = call noundef ptr %1116(ptr noundef nonnull align 8 dereferenceable(129) %0)
  call void @_ZN12btIDebugDraw13drawTransformERK11btTransformf(ptr noundef nonnull align 8 dereferenceable(8) %1117, ptr noundef nonnull align 4 dereferenceable(64) %28, float noundef %56)
  br label %1118

1118:                                             ; preds = %1113, %1108
  br i1 %54, label %1193, label %1119

1119:                                             ; preds = %1118
  %1120 = getelementptr inbounds %class.btSliderConstraint, ptr %1, i64 0, i32 36, i32 0, i32 0, i64 0, i32 0, i64 1
  %1121 = getelementptr inbounds %class.btSliderConstraint, ptr %1, i64 0, i32 36, i32 0, i32 0, i64 0, i32 0, i64 2
  %1122 = getelementptr inbounds %class.btSliderConstraint, ptr %1, i64 0, i32 36, i32 0, i32 0, i64 1, i32 0, i64 1
  %1123 = getelementptr inbounds %class.btSliderConstraint, ptr %1, i64 0, i32 36, i32 0, i32 0, i64 1, i32 0, i64 2
  %1124 = load float, ptr %1099, align 4, !tbaa.struct !74
  %1125 = getelementptr inbounds %class.btSliderConstraint, ptr %1, i64 0, i32 36, i32 0, i32 0, i64 2, i32 0, i64 1
  %1126 = load float, ptr %1125, align 4, !tbaa.struct !134
  %1127 = getelementptr inbounds %class.btSliderConstraint, ptr %1, i64 0, i32 36, i32 0, i32 0, i64 2, i32 0, i64 2
  %1128 = load float, ptr %1127, align 4, !tbaa.struct !81
  %1129 = getelementptr inbounds %class.btSliderConstraint, ptr %1, i64 0, i32 36, i32 1, i32 0, i64 2
  %1130 = load float, ptr %1129, align 4, !tbaa.struct !81
  call void @llvm.lifetime.start.p0(i64 16, ptr nonnull %29) #21
  %1131 = getelementptr inbounds %class.btSliderConstraint, ptr %1, i64 0, i32 7
  %1132 = load float, ptr %1131, align 8, !tbaa !135
  %1133 = load float, ptr %1120, align 4, !tbaa.struct !134
  %1134 = load float, ptr %1122, align 4, !tbaa.struct !134
  %1135 = load <2 x float>, ptr %1102, align 4
  %1136 = insertelement <2 x float> poison, float %1133, i64 0
  %1137 = insertelement <2 x float> %1136, float %1134, i64 1
  %1138 = fmul <2 x float> %1137, zeroinitializer
  %1139 = insertelement <2 x float> poison, float %1132, i64 0
  %1140 = shufflevector <2 x float> %1139, <2 x float> poison, <2 x i32> zeroinitializer
  %1141 = fmul float %1126, 0.000000e+00
  %1142 = call float @llvm.fmuladd.f32(float %1124, float %1132, float %1141)
  %1143 = call float @llvm.fmuladd.f32(float %1128, float 0.000000e+00, float %1142)
  %1144 = fadd float %1130, %1143
  %1145 = insertelement <2 x float> <float poison, float 0.000000e+00>, float %1144, i64 0
  %1146 = getelementptr inbounds { <2 x float>, <2 x float> }, ptr %29, i64 0, i32 1
  store <2 x float> %1145, ptr %1146, align 8
  call void @llvm.lifetime.start.p0(i64 16, ptr nonnull %30) #21
  %1147 = getelementptr inbounds %class.btSliderConstraint, ptr %1, i64 0, i32 8
  %1148 = load float, ptr %1147, align 4, !tbaa !137
  %1149 = load float, ptr %1096, align 4, !tbaa.struct !74
  %1150 = load float, ptr %1121, align 4, !tbaa.struct !81
  %1151 = load float, ptr %1097, align 4, !tbaa.struct !74
  %1152 = load float, ptr %1123, align 4, !tbaa.struct !81
  %1153 = insertelement <2 x float> poison, float %1149, i64 0
  %1154 = insertelement <2 x float> %1153, float %1151, i64 1
  %1155 = call <2 x float> @llvm.fmuladd.v2f32(<2 x float> %1154, <2 x float> %1140, <2 x float> %1138)
  %1156 = insertelement <2 x float> poison, float %1150, i64 0
  %1157 = insertelement <2 x float> %1156, float %1152, i64 1
  %1158 = call <2 x float> @llvm.fmuladd.v2f32(<2 x float> %1157, <2 x float> zeroinitializer, <2 x float> %1155)
  %1159 = fadd <2 x float> %1135, %1158
  store <2 x float> %1159, ptr %29, align 8
  %1160 = insertelement <2 x float> poison, float %1148, i64 0
  %1161 = shufflevector <2 x float> %1160, <2 x float> poison, <2 x i32> zeroinitializer
  %1162 = call <2 x float> @llvm.fmuladd.v2f32(<2 x float> %1154, <2 x float> %1161, <2 x float> %1138)
  %1163 = call <2 x float> @llvm.fmuladd.v2f32(<2 x float> %1157, <2 x float> zeroinitializer, <2 x float> %1162)
  %1164 = fadd <2 x float> %1135, %1163
  %1165 = call float @llvm.fmuladd.f32(float %1124, float %1148, float %1141)
  %1166 = call float @llvm.fmuladd.f32(float %1128, float 0.000000e+00, float %1165)
  %1167 = fadd float %1130, %1166
  %1168 = insertelement <2 x float> <float poison, float 0.000000e+00>, float %1167, i64 0
  store <2 x float> %1164, ptr %30, align 8
  %1169 = getelementptr inbounds { <2 x float>, <2 x float> }, ptr %30, i64 0, i32 1
  store <2 x float> %1168, ptr %1169, align 8
  %1170 = load ptr, ptr %0, align 8, !tbaa !19
  %1171 = getelementptr inbounds ptr, ptr %1170, i64 4
  %1172 = load ptr, ptr %1171, align 8
  %1173 = call noundef ptr %1172(ptr noundef nonnull align 8 dereferenceable(129) %0)
  call void @llvm.lifetime.start.p0(i64 16, ptr nonnull %31) #21
  call void @llvm.memset.p0.i64(ptr noundef nonnull align 4 dereferenceable(16) %31, i8 0, i64 16, i1 false)
  %1174 = load ptr, ptr %1173, align 8, !tbaa !19
  %1175 = getelementptr inbounds ptr, ptr %1174, i64 5
  %1176 = load ptr, ptr %1175, align 8
  call void %1176(ptr noundef nonnull align 8 dereferenceable(8) %1173, ptr noundef nonnull align 4 dereferenceable(16) %29, ptr noundef nonnull align 4 dereferenceable(16) %30, ptr noundef nonnull align 4 dereferenceable(16) %31)
  call void @llvm.lifetime.end.p0(i64 16, ptr nonnull %31) #21
  call void @llvm.lifetime.start.p0(i64 16, ptr nonnull %32) #21
  %1177 = insertelement <2 x float> undef, float %1149, i64 0
  %1178 = insertelement <2 x float> %1177, float %1151, i64 1
  %1179 = insertelement <2 x float> <float poison, float 0.000000e+00>, float %1124, i64 0
  store <2 x float> %1178, ptr %32, align 8
  %1180 = getelementptr inbounds { <2 x float>, <2 x float> }, ptr %32, i64 0, i32 1
  store <2 x float> %1179, ptr %1180, align 8
  call void @llvm.lifetime.start.p0(i64 16, ptr nonnull %33) #21
  %1181 = insertelement <2 x float> undef, float %1133, i64 0
  %1182 = insertelement <2 x float> %1181, float %1134, i64 1
  %1183 = insertelement <2 x float> <float poison, float 0.000000e+00>, float %1126, i64 0
  store <2 x float> %1182, ptr %33, align 8
  %1184 = getelementptr inbounds { <2 x float>, <2 x float> }, ptr %33, i64 0, i32 1
  store <2 x float> %1183, ptr %1184, align 8
  %1185 = getelementptr inbounds %class.btSliderConstraint, ptr %1, i64 0, i32 9
  %1186 = load float, ptr %1185, align 8, !tbaa !138
  %1187 = getelementptr inbounds %class.btSliderConstraint, ptr %1, i64 0, i32 10
  %1188 = load float, ptr %1187, align 4, !tbaa !139
  %1189 = load ptr, ptr %0, align 8, !tbaa !19
  %1190 = getelementptr inbounds ptr, ptr %1189, i64 4
  %1191 = load ptr, ptr %1190, align 8
  %1192 = call noundef ptr %1191(ptr noundef nonnull align 8 dereferenceable(129) %0)
  call void @llvm.lifetime.start.p0(i64 16, ptr nonnull %34) #21
  call void @llvm.memset.p0.i64(ptr noundef nonnull align 4 dereferenceable(16) %34, i8 0, i64 16, i1 false)
  call void @_ZN12btIDebugDraw7drawArcERK9btVector3S2_S2_ffffS2_bf(ptr noundef nonnull align 8 dereferenceable(8) %1192, ptr noundef nonnull align 4 dereferenceable(16) %1112, ptr noundef nonnull align 4 dereferenceable(16) %32, ptr noundef nonnull align 4 dereferenceable(16) %33, float noundef %56, float noundef %56, float noundef %1186, float noundef %1188, ptr noundef nonnull align 4 dereferenceable(16) %34, i1 noundef zeroext true, float noundef 1.000000e+01)
  call void @llvm.lifetime.end.p0(i64 16, ptr nonnull %34) #21
  call void @llvm.lifetime.end.p0(i64 16, ptr nonnull %33) #21
  call void @llvm.lifetime.end.p0(i64 16, ptr nonnull %32) #21
  call void @llvm.lifetime.end.p0(i64 16, ptr nonnull %30) #21
  call void @llvm.lifetime.end.p0(i64 16, ptr nonnull %29) #21
  br label %1193

1193:                                             ; preds = %1119, %1118
  call void @llvm.lifetime.end.p0(i64 64, ptr nonnull %28) #21
  br label %1194

1194:                                             ; preds = %176, %967, %1094, %1193, %58, %420, %2
  ret void
}

; Function Attrs: mustprogress nocallback nofree nounwind willreturn memory(argmem: readwrite)
declare void @llvm.memcpy.p0.p0.i64(ptr noalias nocapture writeonly, ptr noalias nocapture readonly, i64, i1 immarg) #6

; Function Attrs: uwtable
define dso_local void @_ZN23btDiscreteDynamicsWorld15debugDrawObjectERK11btTransformPK16btCollisionShapeRK9btVector3(ptr noundef nonnull align 8 dereferenceable(372) %0, ptr noundef nonnull readonly align 4 dereferenceable(64) %1, ptr noundef %2, ptr noundef nonnull align 4 dereferenceable(16) %3) local_unnamed_addr #5 align 2 personality ptr @__gxx_personality_v0 {
  %5 = alloca %class.btVector3, align 8
  %6 = alloca %class.btVector3, align 8
  %7 = alloca %class.btVector3, align 16
  %8 = alloca %class.btVector3, align 8
  %9 = alloca %class.btVector3, align 16
  %10 = alloca %class.btVector3, align 8
  %11 = alloca %class.btVector3, align 16
  %12 = alloca %class.btTransform, align 8
  %13 = alloca %class.btTransform, align 8
  %14 = alloca %class.btVector3, align 4
  %15 = alloca %class.btVector3, align 4
  %16 = alloca %class.btTransform, align 4
  %17 = alloca %class.btTransform, align 4
  %18 = alloca %class.btVector3, align 8
  %19 = alloca %class.btVector3, align 8
  %20 = alloca %class.btVector3, align 8
  %21 = alloca %class.btVector3, align 8
  %22 = alloca %class.btVector3, align 8
  %23 = alloca %class.btVector3, align 8
  %24 = alloca %class.btVector3, align 8
  %25 = alloca %class.btVector3, align 8
  %26 = alloca %class.btVector3, align 4
  %27 = alloca %class.btVector3, align 4
  %28 = alloca %class.btVector3, align 4
  %29 = alloca %class.btVector3, align 8
  %30 = alloca %class.btVector3, align 8
  %31 = alloca %class.btVector3, align 8
  %32 = alloca %class.btVector3, align 8
  %33 = alloca %class.btVector3, align 8
  %34 = alloca %class.btVector3, align 8
  %35 = alloca %class.btVector3, align 8
  %36 = alloca %class.btVector3, align 8
  %37 = alloca %class.btVector3, align 8
  %38 = alloca %class.btVector3, align 4
  %39 = alloca %class.btVector3, align 4
  %40 = alloca %class.btVector3, align 8
  %41 = alloca %class.btVector3, align 8
  %42 = alloca %class.btVector3, align 8
  %43 = alloca %class.btVector3, align 8
  %44 = alloca %class.btVector3, align 8
  %45 = alloca %class.btVector3, align 8
  %46 = alloca %class.btVector3, align 8
  %47 = alloca %class.btVector3, align 8
  %48 = alloca %class.btVector3, align 16
  %49 = alloca %class.btVector3, align 16
  %50 = alloca %class.DebugDrawcallback, align 8
  %51 = alloca %class.btVector3, align 16
  %52 = alloca %class.btVector3, align 16
  %53 = alloca %class.DebugDrawcallback, align 8
  %54 = alloca %class.btVector3, align 4
  %55 = alloca %class.btVector3, align 4
  %56 = alloca %class.btVector3, align 8
  %57 = alloca %class.btVector3, align 8
  call void @llvm.lifetime.start.p0(i64 16, ptr nonnull %5) #21
  %58 = getelementptr inbounds %class.btTransform, ptr %1, i64 0, i32 1
  call void @llvm.memcpy.p0.p0.i64(ptr noundef nonnull align 8 dereferenceable(16) %5, ptr noundef nonnull align 4 dereferenceable(16) %58, i64 16, i1 false), !tbaa.struct !74
  %59 = load ptr, ptr %0, align 8, !tbaa !19
  %60 = getelementptr inbounds ptr, ptr %59, i64 4
  %61 = load ptr, ptr %60, align 8
  %62 = tail call noundef ptr %61(ptr noundef nonnull align 8 dereferenceable(129) %0)
  call void @llvm.lifetime.start.p0(i64 16, ptr nonnull %6) #21
  %63 = getelementptr inbounds [4 x float], ptr %1, i64 0, i64 1
  %64 = getelementptr inbounds [4 x float], ptr %1, i64 0, i64 2
  %65 = getelementptr inbounds [3 x %class.btVector3], ptr %1, i64 0, i64 1
  %66 = getelementptr inbounds [3 x %class.btVector3], ptr %1, i64 0, i64 1, i32 0, i64 1
  %67 = getelementptr inbounds [3 x %class.btVector3], ptr %1, i64 0, i64 1, i32 0, i64 2
  %68 = getelementptr inbounds [3 x %class.btVector3], ptr %1, i64 0, i64 2
  %69 = load float, ptr %68, align 4, !tbaa !5
  %70 = getelementptr inbounds [3 x %class.btVector3], ptr %1, i64 0, i64 2, i32 0, i64 1
  %71 = load float, ptr %70, align 4, !tbaa !5
  %72 = fmul float %71, 0.000000e+00
  %73 = fadd float %69, %72
  %74 = getelementptr inbounds [3 x %class.btVector3], ptr %1, i64 0, i64 2, i32 0, i64 2
  %75 = load float, ptr %74, align 4, !tbaa !5
  %76 = tail call float @llvm.fmuladd.f32(float %75, float 0.000000e+00, float %73)
  %77 = load <4 x float>, ptr %1, align 4
  %78 = shufflevector <4 x float> %77, <4 x float> poison, <2 x i32> <i32 0, i32 undef>
  %79 = load <4 x float>, ptr %63, align 4
  %80 = shufflevector <4 x float> %79, <4 x float> poison, <2 x i32> <i32 0, i32 undef>
  %81 = load <4 x float>, ptr %64, align 4
  %82 = shufflevector <4 x float> %81, <4 x float> poison, <2 x i32> <i32 0, i32 undef>
  %83 = load float, ptr %65, align 4, !tbaa !5
  %84 = load float, ptr %66, align 4, !tbaa !5
  %85 = insertelement <2 x float> %80, float %84, i64 1
  %86 = fmul <2 x float> %85, zeroinitializer
  %87 = insertelement <2 x float> %78, float %83, i64 1
  %88 = fadd <2 x float> %87, %86
  %89 = load float, ptr %67, align 4, !tbaa !5
  %90 = insertelement <2 x float> %82, float %89, i64 1
  %91 = tail call <2 x float> @llvm.fmuladd.v2f32(<2 x float> %90, <2 x float> zeroinitializer, <2 x float> %88)
  %92 = load <2 x float>, ptr %5, align 8, !tbaa !5
  %93 = fadd <2 x float> %91, %92
  %94 = getelementptr inbounds [4 x float], ptr %5, i64 0, i64 2
  %95 = load float, ptr %94, align 8, !tbaa !5
  %96 = fadd float %76, %95
  %97 = insertelement <2 x float> <float poison, float 0.000000e+00>, float %96, i64 0
  store <2 x float> %93, ptr %6, align 8
  %98 = getelementptr inbounds { <2 x float>, <2 x float> }, ptr %6, i64 0, i32 1
  store <2 x float> %97, ptr %98, align 8
  call void @llvm.lifetime.start.p0(i64 16, ptr nonnull %7) #21
  store <4 x float> <float 1.000000e+00, float 0.000000e+00, float 0.000000e+00, float 0.000000e+00>, ptr %7, align 16, !tbaa !5
  %99 = load ptr, ptr %62, align 8, !tbaa !19
  %100 = getelementptr inbounds ptr, ptr %99, i64 5
  %101 = load ptr, ptr %100, align 8
  call void %101(ptr noundef nonnull align 8 dereferenceable(8) %62, ptr noundef nonnull align 4 dereferenceable(16) %5, ptr noundef nonnull align 4 dereferenceable(16) %6, ptr noundef nonnull align 4 dereferenceable(16) %7)
  call void @llvm.lifetime.end.p0(i64 16, ptr nonnull %7) #21
  call void @llvm.lifetime.end.p0(i64 16, ptr nonnull %6) #21
  %102 = load ptr, ptr %0, align 8, !tbaa !19
  %103 = getelementptr inbounds ptr, ptr %102, i64 4
  %104 = load ptr, ptr %103, align 8
  %105 = call noundef ptr %104(ptr noundef nonnull align 8 dereferenceable(129) %0)
  call void @llvm.lifetime.start.p0(i64 16, ptr nonnull %8) #21
  %106 = load float, ptr %68, align 4, !tbaa !5
  %107 = load float, ptr %70, align 4, !tbaa !5
  %108 = call float @llvm.fmuladd.f32(float %106, float 0.000000e+00, float %107)
  %109 = load float, ptr %74, align 4, !tbaa !5
  %110 = call float @llvm.fmuladd.f32(float %109, float 0.000000e+00, float %108)
  %111 = load <4 x float>, ptr %1, align 4
  %112 = shufflevector <4 x float> %111, <4 x float> poison, <2 x i32> <i32 0, i32 undef>
  %113 = load <4 x float>, ptr %63, align 4
  %114 = shufflevector <4 x float> %113, <4 x float> poison, <2 x i32> <i32 0, i32 undef>
  %115 = load <4 x float>, ptr %64, align 4
  %116 = shufflevector <4 x float> %115, <4 x float> poison, <2 x i32> <i32 0, i32 undef>
  %117 = load float, ptr %65, align 4, !tbaa !5
  %118 = load float, ptr %66, align 4, !tbaa !5
  %119 = insertelement <2 x float> %112, float %117, i64 1
  %120 = insertelement <2 x float> %114, float %118, i64 1
  %121 = call <2 x float> @llvm.fmuladd.v2f32(<2 x float> %119, <2 x float> zeroinitializer, <2 x float> %120)
  %122 = load float, ptr %67, align 4, !tbaa !5
  %123 = insertelement <2 x float> %116, float %122, i64 1
  %124 = call <2 x float> @llvm.fmuladd.v2f32(<2 x float> %123, <2 x float> zeroinitializer, <2 x float> %121)
  %125 = load <2 x float>, ptr %5, align 8, !tbaa !5
  %126 = fadd <2 x float> %124, %125
  %127 = load float, ptr %94, align 8, !tbaa !5
  %128 = fadd float %110, %127
  %129 = insertelement <2 x float> <float poison, float 0.000000e+00>, float %128, i64 0
  store <2 x float> %126, ptr %8, align 8
  %130 = getelementptr inbounds { <2 x float>, <2 x float> }, ptr %8, i64 0, i32 1
  store <2 x float> %129, ptr %130, align 8
  call void @llvm.lifetime.start.p0(i64 16, ptr nonnull %9) #21
  store <4 x float> <float 0.000000e+00, float 1.000000e+00, float 0.000000e+00, float 0.000000e+00>, ptr %9, align 16, !tbaa !5
  %131 = load ptr, ptr %105, align 8, !tbaa !19
  %132 = getelementptr inbounds ptr, ptr %131, i64 5
  %133 = load ptr, ptr %132, align 8
  call void %133(ptr noundef nonnull align 8 dereferenceable(8) %105, ptr noundef nonnull align 4 dereferenceable(16) %5, ptr noundef nonnull align 4 dereferenceable(16) %8, ptr noundef nonnull align 4 dereferenceable(16) %9)
  call void @llvm.lifetime.end.p0(i64 16, ptr nonnull %9) #21
  call void @llvm.lifetime.end.p0(i64 16, ptr nonnull %8) #21
  %134 = load ptr, ptr %0, align 8, !tbaa !19
  %135 = getelementptr inbounds ptr, ptr %134, i64 4
  %136 = load ptr, ptr %135, align 8
  %137 = call noundef ptr %136(ptr noundef nonnull align 8 dereferenceable(129) %0)
  call void @llvm.lifetime.start.p0(i64 16, ptr nonnull %10) #21
  %138 = load float, ptr %68, align 4, !tbaa !5
  %139 = load float, ptr %70, align 4, !tbaa !5
  %140 = fmul float %139, 0.000000e+00
  %141 = call float @llvm.fmuladd.f32(float %138, float 0.000000e+00, float %140)
  %142 = load float, ptr %74, align 4, !tbaa !5
  %143 = fadd float %142, %141
  %144 = load <4 x float>, ptr %1, align 4
  %145 = shufflevector <4 x float> %144, <4 x float> poison, <2 x i32> <i32 0, i32 undef>
  %146 = load <4 x float>, ptr %63, align 4
  %147 = shufflevector <4 x float> %146, <4 x float> poison, <2 x i32> <i32 0, i32 undef>
  %148 = load <4 x float>, ptr %64, align 4
  %149 = shufflevector <4 x float> %148, <4 x float> poison, <2 x i32> <i32 0, i32 undef>
  %150 = load float, ptr %65, align 4, !tbaa !5
  %151 = load float, ptr %66, align 4, !tbaa !5
  %152 = insertelement <2 x float> %147, float %151, i64 1
  %153 = fmul <2 x float> %152, zeroinitializer
  %154 = insertelement <2 x float> %145, float %150, i64 1
  %155 = call <2 x float> @llvm.fmuladd.v2f32(<2 x float> %154, <2 x float> zeroinitializer, <2 x float> %153)
  %156 = load float, ptr %67, align 4, !tbaa !5
  %157 = insertelement <2 x float> %149, float %156, i64 1
  %158 = fadd <2 x float> %157, %155
  %159 = load <2 x float>, ptr %5, align 8, !tbaa !5
  %160 = fadd <2 x float> %158, %159
  %161 = load float, ptr %94, align 8, !tbaa !5
  %162 = fadd float %143, %161
  %163 = insertelement <2 x float> <float poison, float 0.000000e+00>, float %162, i64 0
  store <2 x float> %160, ptr %10, align 8
  %164 = getelementptr inbounds { <2 x float>, <2 x float> }, ptr %10, i64 0, i32 1
  store <2 x float> %163, ptr %164, align 8
  call void @llvm.lifetime.start.p0(i64 16, ptr nonnull %11) #21
  store <4 x float> <float 0.000000e+00, float 0.000000e+00, float 1.000000e+00, float 0.000000e+00>, ptr %11, align 16, !tbaa !5
  %165 = load ptr, ptr %137, align 8, !tbaa !19
  %166 = getelementptr inbounds ptr, ptr %165, i64 5
  %167 = load ptr, ptr %166, align 8
  call void %167(ptr noundef nonnull align 8 dereferenceable(8) %137, ptr noundef nonnull align 4 dereferenceable(16) %5, ptr noundef nonnull align 4 dereferenceable(16) %10, ptr noundef nonnull align 4 dereferenceable(16) %11)
  call void @llvm.lifetime.end.p0(i64 16, ptr nonnull %11) #21
  call void @llvm.lifetime.end.p0(i64 16, ptr nonnull %10) #21
  call void @llvm.lifetime.end.p0(i64 16, ptr nonnull %5) #21
  %168 = getelementptr inbounds %class.btCollisionShape, ptr %2, i64 0, i32 1
  %169 = load i32, ptr %168, align 8, !tbaa !140
  switch i32 %169, label %1326 [
    i32 31, label %170
    i32 8, label %279
    i32 9, label %284
    i32 10, label %379
    i32 11, label %727
    i32 13, label %976
    i32 28, label %1150
  ]

170:                                              ; preds = %4
  %171 = getelementptr inbounds %class.btCompoundShape, ptr %2, i64 0, i32 1, i32 2
  %172 = load i32, ptr %171, align 4, !tbaa !142
  %173 = icmp sgt i32 %172, 0
  br i1 %173, label %174, label %1476

174:                                              ; preds = %170
  %175 = getelementptr inbounds %class.btCompoundShape, ptr %2, i64 0, i32 1, i32 5
  %176 = getelementptr inbounds %class.btTransform, ptr %1, i64 0, i32 1, i32 0, i64 2
  %177 = getelementptr inbounds i8, ptr %12, i64 8
  %178 = getelementptr inbounds i8, ptr %12, i64 12
  %179 = getelementptr inbounds [3 x %class.btVector3], ptr %12, i64 0, i64 1
  %180 = getelementptr inbounds [3 x %class.btVector3], ptr %12, i64 0, i64 1, i32 0, i64 2
  %181 = getelementptr inbounds [3 x %class.btVector3], ptr %12, i64 0, i64 1, i32 0, i64 3
  %182 = getelementptr inbounds [3 x %class.btVector3], ptr %12, i64 0, i64 2
  %183 = getelementptr inbounds [3 x %class.btVector3], ptr %12, i64 0, i64 2, i32 0, i64 2
  %184 = getelementptr inbounds [3 x %class.btVector3], ptr %12, i64 0, i64 2, i32 0, i64 3
  %185 = getelementptr inbounds %class.btTransform, ptr %12, i64 0, i32 1
  %186 = getelementptr inbounds %class.btTransform, ptr %12, i64 0, i32 1, i32 0, i64 2
  %187 = zext i32 %172 to i64
  br label %188

188:                                              ; preds = %174, %188
  %189 = phi i64 [ %187, %174 ], [ %190, %188 ]
  %190 = add nsw i64 %189, -1
  %191 = load ptr, ptr %175, align 8, !tbaa !145
  %192 = and i64 %190, 4294967295
  %193 = getelementptr inbounds %struct.btCompoundShapeChild, ptr %191, i64 %192
  %194 = getelementptr inbounds i8, ptr %193, i64 8
  %195 = load float, ptr %194, align 4, !tbaa.struct !81
  %196 = getelementptr inbounds [3 x %class.btVector3], ptr %193, i64 0, i64 1
  %197 = getelementptr inbounds i8, ptr %196, i64 8
  %198 = load float, ptr %197, align 4, !tbaa.struct !81
  %199 = getelementptr inbounds [3 x %class.btVector3], ptr %193, i64 0, i64 2
  %200 = getelementptr inbounds i8, ptr %199, i64 8
  %201 = load float, ptr %200, align 4, !tbaa.struct !81
  %202 = getelementptr inbounds %class.btTransform, ptr %193, i64 0, i32 1
  %203 = load float, ptr %202, align 4, !tbaa.struct !74
  %204 = getelementptr inbounds i8, ptr %202, i64 4
  %205 = load float, ptr %204, align 4, !tbaa.struct !134
  %206 = getelementptr inbounds i8, ptr %202, i64 8
  %207 = load float, ptr %206, align 4, !tbaa.struct !81
  %208 = getelementptr inbounds %struct.btCompoundShapeChild, ptr %191, i64 %192, i32 1
  %209 = load ptr, ptr %208, align 8, !tbaa !146
  %210 = load <2 x float>, ptr %193, align 4
  %211 = load <2 x float>, ptr %196, align 4
  %212 = load <2 x float>, ptr %199, align 4
  call void @llvm.lifetime.start.p0(i64 64, ptr nonnull %12) #21
  call void @llvm.experimental.noalias.scope.decl(metadata !148)
  %213 = load float, ptr %68, align 4, !tbaa !5, !noalias !151
  %214 = load float, ptr %70, align 4, !tbaa !5, !noalias !151
  %215 = load float, ptr %74, align 4, !tbaa !5, !noalias !151
  %216 = fmul float %198, %214
  %217 = call float @llvm.fmuladd.f32(float %195, float %213, float %216)
  %218 = call float @llvm.fmuladd.f32(float %201, float %215, float %217)
  %219 = load float, ptr %1, align 4, !tbaa !5, !noalias !151
  %220 = load float, ptr %63, align 4, !tbaa !5, !noalias !151
  %221 = load float, ptr %64, align 4, !tbaa !5, !noalias !151
  %222 = insertelement <2 x float> poison, float %220, i64 0
  %223 = shufflevector <2 x float> %222, <2 x float> poison, <2 x i32> zeroinitializer
  %224 = fmul <2 x float> %211, %223
  %225 = insertelement <2 x float> poison, float %219, i64 0
  %226 = shufflevector <2 x float> %225, <2 x float> poison, <2 x i32> zeroinitializer
  %227 = call <2 x float> @llvm.fmuladd.v2f32(<2 x float> %210, <2 x float> %226, <2 x float> %224)
  %228 = insertelement <2 x float> poison, float %221, i64 0
  %229 = shufflevector <2 x float> %228, <2 x float> poison, <2 x i32> zeroinitializer
  %230 = call <2 x float> @llvm.fmuladd.v2f32(<2 x float> %212, <2 x float> %229, <2 x float> %227)
  %231 = fmul float %198, %220
  %232 = call float @llvm.fmuladd.f32(float %195, float %219, float %231)
  %233 = call float @llvm.fmuladd.f32(float %201, float %221, float %232)
  %234 = load float, ptr %65, align 4, !tbaa !5, !noalias !151
  %235 = load float, ptr %66, align 4, !tbaa !5, !noalias !151
  %236 = load float, ptr %67, align 4, !tbaa !5, !noalias !151
  %237 = fmul float %198, %235
  %238 = call float @llvm.fmuladd.f32(float %195, float %234, float %237)
  %239 = call float @llvm.fmuladd.f32(float %201, float %236, float %238)
  %240 = insertelement <2 x float> poison, float %205, i64 0
  %241 = shufflevector <2 x float> %240, <2 x float> poison, <2 x i32> zeroinitializer
  %242 = insertelement <2 x float> %222, float %235, i64 1
  %243 = fmul <2 x float> %241, %242
  %244 = insertelement <2 x float> %225, float %234, i64 1
  %245 = insertelement <2 x float> poison, float %203, i64 0
  %246 = shufflevector <2 x float> %245, <2 x float> poison, <2 x i32> zeroinitializer
  %247 = call <2 x float> @llvm.fmuladd.v2f32(<2 x float> %244, <2 x float> %246, <2 x float> %243)
  %248 = insertelement <2 x float> %228, float %236, i64 1
  %249 = insertelement <2 x float> poison, float %207, i64 0
  %250 = shufflevector <2 x float> %249, <2 x float> poison, <2 x i32> zeroinitializer
  %251 = call <2 x float> @llvm.fmuladd.v2f32(<2 x float> %248, <2 x float> %250, <2 x float> %247)
  %252 = load <2 x float>, ptr %58, align 4, !tbaa !5, !noalias !148
  %253 = fadd <2 x float> %251, %252
  %254 = fmul float %205, %214
  %255 = call float @llvm.fmuladd.f32(float %213, float %203, float %254)
  %256 = call float @llvm.fmuladd.f32(float %215, float %207, float %255)
  %257 = load float, ptr %176, align 4, !tbaa !5, !noalias !148
  %258 = fadd float %256, %257
  %259 = insertelement <2 x float> <float poison, float 0.000000e+00>, float %258, i64 0
  store <2 x float> %230, ptr %12, align 8, !alias.scope !148
  store float %233, ptr %177, align 8, !tbaa.struct !81, !alias.scope !148
  store float 0.000000e+00, ptr %178, align 4, !tbaa.struct !90, !alias.scope !148
  %260 = insertelement <2 x float> poison, float %235, i64 0
  %261 = shufflevector <2 x float> %260, <2 x float> poison, <2 x i32> zeroinitializer
  %262 = fmul <2 x float> %211, %261
  %263 = insertelement <2 x float> poison, float %234, i64 0
  %264 = shufflevector <2 x float> %263, <2 x float> poison, <2 x i32> zeroinitializer
  %265 = call <2 x float> @llvm.fmuladd.v2f32(<2 x float> %210, <2 x float> %264, <2 x float> %262)
  %266 = insertelement <2 x float> poison, float %236, i64 0
  %267 = shufflevector <2 x float> %266, <2 x float> poison, <2 x i32> zeroinitializer
  %268 = call <2 x float> @llvm.fmuladd.v2f32(<2 x float> %212, <2 x float> %267, <2 x float> %265)
  store <2 x float> %268, ptr %179, align 8, !alias.scope !148
  store float %239, ptr %180, align 8, !tbaa.struct !81, !alias.scope !148
  store float 0.000000e+00, ptr %181, align 4, !tbaa.struct !90, !alias.scope !148
  %269 = insertelement <2 x float> poison, float %214, i64 0
  %270 = shufflevector <2 x float> %269, <2 x float> poison, <2 x i32> zeroinitializer
  %271 = fmul <2 x float> %211, %270
  %272 = insertelement <2 x float> poison, float %213, i64 0
  %273 = shufflevector <2 x float> %272, <2 x float> poison, <2 x i32> zeroinitializer
  %274 = call <2 x float> @llvm.fmuladd.v2f32(<2 x float> %210, <2 x float> %273, <2 x float> %271)
  %275 = insertelement <2 x float> poison, float %215, i64 0
  %276 = shufflevector <2 x float> %275, <2 x float> poison, <2 x i32> zeroinitializer
  %277 = call <2 x float> @llvm.fmuladd.v2f32(<2 x float> %212, <2 x float> %276, <2 x float> %274)
  store <2 x float> %277, ptr %182, align 8, !alias.scope !148
  store float %218, ptr %183, align 8, !tbaa.struct !81, !alias.scope !148
  store float 0.000000e+00, ptr %184, align 4, !tbaa.struct !90, !alias.scope !148
  store <2 x float> %253, ptr %185, align 8, !tbaa.struct !74, !alias.scope !148
  store <2 x float> %259, ptr %186, align 8, !tbaa.struct !81, !alias.scope !148
  call void @_ZN23btDiscreteDynamicsWorld15debugDrawObjectERK11btTransformPK16btCollisionShapeRK9btVector3(ptr noundef nonnull align 8 dereferenceable(372) %0, ptr noundef nonnull align 4 dereferenceable(64) %12, ptr noundef %209, ptr noundef nonnull align 4 dereferenceable(16) %3)
  call void @llvm.lifetime.end.p0(i64 64, ptr nonnull %12) #21
  %278 = icmp ugt i64 %189, 1
  br i1 %278, label %188, label %1476

279:                                              ; preds = %4
  %280 = load ptr, ptr %2, align 8, !tbaa !19
  %281 = getelementptr inbounds ptr, ptr %280, i64 11
  %282 = load ptr, ptr %281, align 8
  %283 = call noundef float %282(ptr noundef nonnull align 8 dereferenceable(64) %2)
  call void @_ZN23btDiscreteDynamicsWorld15debugDrawSphereEfRK11btTransformRK9btVector3(ptr noundef nonnull align 8 dereferenceable(372) %0, float noundef %283, ptr noundef nonnull align 4 dereferenceable(64) %1, ptr noundef nonnull align 4 dereferenceable(16) %3)
  br label %1476

284:                                              ; preds = %4
  %285 = getelementptr inbounds %class.btMultiSphereShape, ptr %2, i64 0, i32 2, i32 2
  %286 = load i32, ptr %285, align 4, !tbaa !154
  %287 = icmp sgt i32 %286, 0
  br i1 %287, label %288, label %1476

288:                                              ; preds = %284
  %289 = getelementptr inbounds %class.btMultiSphereShape, ptr %2, i64 0, i32 2, i32 5
  %290 = getelementptr inbounds %class.btMultiSphereShape, ptr %2, i64 0, i32 3, i32 5
  %291 = getelementptr inbounds %class.btTransform, ptr %1, i64 0, i32 1, i32 0, i64 2
  %292 = getelementptr inbounds i8, ptr %13, i64 8
  %293 = getelementptr inbounds i8, ptr %13, i64 12
  %294 = getelementptr inbounds [3 x %class.btVector3], ptr %13, i64 0, i64 1
  %295 = getelementptr inbounds [3 x %class.btVector3], ptr %13, i64 0, i64 1, i32 0, i64 2
  %296 = getelementptr inbounds [3 x %class.btVector3], ptr %13, i64 0, i64 1, i32 0, i64 3
  %297 = getelementptr inbounds [3 x %class.btVector3], ptr %13, i64 0, i64 2
  %298 = getelementptr inbounds [3 x %class.btVector3], ptr %13, i64 0, i64 2, i32 0, i64 2
  %299 = getelementptr inbounds [3 x %class.btVector3], ptr %13, i64 0, i64 2, i32 0, i64 3
  %300 = getelementptr inbounds %class.btTransform, ptr %13, i64 0, i32 1
  %301 = getelementptr inbounds %class.btTransform, ptr %13, i64 0, i32 1, i32 0, i64 2
  %302 = zext i32 %286 to i64
  br label %303

303:                                              ; preds = %288, %303
  %304 = phi i64 [ %302, %288 ], [ %305, %303 ]
  %305 = add nsw i64 %304, -1
  %306 = load ptr, ptr %289, align 8, !tbaa !157
  %307 = and i64 %305, 4294967295
  %308 = getelementptr inbounds %class.btVector3, ptr %306, i64 %307
  %309 = load float, ptr %308, align 4, !tbaa.struct !74
  %310 = getelementptr inbounds i8, ptr %308, i64 4
  %311 = load float, ptr %310, align 4, !tbaa.struct !134
  %312 = getelementptr inbounds i8, ptr %308, i64 8
  %313 = load float, ptr %312, align 4, !tbaa.struct !81
  %314 = load ptr, ptr %290, align 8, !tbaa !158
  %315 = getelementptr inbounds float, ptr %314, i64 %307
  %316 = load float, ptr %315, align 4, !tbaa !5
  call void @llvm.lifetime.start.p0(i64 64, ptr nonnull %13) #21
  call void @llvm.experimental.noalias.scope.decl(metadata !161)
  %317 = load float, ptr %68, align 4, !tbaa !5, !noalias !164
  %318 = load float, ptr %70, align 4, !tbaa !5, !noalias !164
  %319 = fmul float %318, 0.000000e+00
  %320 = fadd float %317, %319
  %321 = load float, ptr %74, align 4, !tbaa !5, !noalias !164
  %322 = call float @llvm.fmuladd.f32(float %317, float 0.000000e+00, float %318)
  %323 = call float @llvm.fmuladd.f32(float %317, float 0.000000e+00, float %319)
  %324 = fadd float %321, %323
  %325 = load float, ptr %1, align 4, !tbaa !5, !noalias !164
  %326 = load float, ptr %63, align 4, !tbaa !5, !noalias !164
  %327 = fmul float %326, 0.000000e+00
  %328 = fadd float %325, %327
  %329 = load float, ptr %64, align 4, !tbaa !5, !noalias !164
  %330 = call float @llvm.fmuladd.f32(float %325, float 0.000000e+00, float %326)
  %331 = call float @llvm.fmuladd.f32(float %325, float 0.000000e+00, float %327)
  %332 = fadd float %329, %331
  %333 = load float, ptr %65, align 4, !tbaa !5, !noalias !164
  %334 = load float, ptr %66, align 4, !tbaa !5, !noalias !164
  %335 = fmul float %334, 0.000000e+00
  %336 = fadd float %333, %335
  %337 = load float, ptr %67, align 4, !tbaa !5, !noalias !164
  %338 = call float @llvm.fmuladd.f32(float %333, float 0.000000e+00, float %334)
  %339 = call float @llvm.fmuladd.f32(float %333, float 0.000000e+00, float %335)
  %340 = fadd float %337, %339
  %341 = insertelement <2 x float> poison, float %311, i64 0
  %342 = shufflevector <2 x float> %341, <2 x float> poison, <2 x i32> zeroinitializer
  %343 = insertelement <2 x float> poison, float %326, i64 0
  %344 = insertelement <2 x float> %343, float %334, i64 1
  %345 = fmul <2 x float> %342, %344
  %346 = insertelement <2 x float> poison, float %325, i64 0
  %347 = insertelement <2 x float> %346, float %333, i64 1
  %348 = insertelement <2 x float> poison, float %309, i64 0
  %349 = shufflevector <2 x float> %348, <2 x float> poison, <2 x i32> zeroinitializer
  %350 = call <2 x float> @llvm.fmuladd.v2f32(<2 x float> %347, <2 x float> %349, <2 x float> %345)
  %351 = insertelement <2 x float> poison, float %329, i64 0
  %352 = insertelement <2 x float> %351, float %337, i64 1
  %353 = insertelement <2 x float> poison, float %313, i64 0
  %354 = shufflevector <2 x float> %353, <2 x float> poison, <2 x i32> zeroinitializer
  %355 = call <2 x float> @llvm.fmuladd.v2f32(<2 x float> %352, <2 x float> %354, <2 x float> %350)
  %356 = load <2 x float>, ptr %58, align 4, !tbaa !5, !noalias !161
  %357 = fadd <2 x float> %355, %356
  %358 = fmul float %311, %318
  %359 = call float @llvm.fmuladd.f32(float %317, float %309, float %358)
  %360 = call float @llvm.fmuladd.f32(float %321, float %313, float %359)
  %361 = load float, ptr %291, align 4, !tbaa !5, !noalias !161
  %362 = fadd float %360, %361
  %363 = insertelement <2 x float> <float poison, float 0.000000e+00>, float %362, i64 0
  %364 = shufflevector <2 x float> %351, <2 x float> poison, <2 x i32> zeroinitializer
  %365 = insertelement <2 x float> poison, float %328, i64 0
  %366 = insertelement <2 x float> %365, float %330, i64 1
  %367 = call <2 x float> @llvm.fmuladd.v2f32(<2 x float> %364, <2 x float> zeroinitializer, <2 x float> %366)
  store <2 x float> %367, ptr %13, align 8, !alias.scope !161
  store float %332, ptr %292, align 8, !tbaa.struct !81, !alias.scope !161
  store float 0.000000e+00, ptr %293, align 4, !tbaa.struct !90, !alias.scope !161
  %368 = insertelement <2 x float> poison, float %337, i64 0
  %369 = shufflevector <2 x float> %368, <2 x float> poison, <2 x i32> zeroinitializer
  %370 = insertelement <2 x float> poison, float %336, i64 0
  %371 = insertelement <2 x float> %370, float %338, i64 1
  %372 = call <2 x float> @llvm.fmuladd.v2f32(<2 x float> %369, <2 x float> zeroinitializer, <2 x float> %371)
  store <2 x float> %372, ptr %294, align 8, !alias.scope !161
  store float %340, ptr %295, align 8, !tbaa.struct !81, !alias.scope !161
  store float 0.000000e+00, ptr %296, align 4, !tbaa.struct !90, !alias.scope !161
  %373 = insertelement <2 x float> poison, float %321, i64 0
  %374 = shufflevector <2 x float> %373, <2 x float> poison, <2 x i32> zeroinitializer
  %375 = insertelement <2 x float> poison, float %320, i64 0
  %376 = insertelement <2 x float> %375, float %322, i64 1
  %377 = call <2 x float> @llvm.fmuladd.v2f32(<2 x float> %374, <2 x float> zeroinitializer, <2 x float> %376)
  store <2 x float> %377, ptr %297, align 8, !alias.scope !161
  store float %324, ptr %298, align 8, !tbaa.struct !81, !alias.scope !161
  store float 0.000000e+00, ptr %299, align 4, !tbaa.struct !90, !alias.scope !161
  store <2 x float> %357, ptr %300, align 8, !tbaa.struct !74, !alias.scope !161
  store <2 x float> %363, ptr %301, align 8, !tbaa.struct !81, !alias.scope !161
  call void @_ZN23btDiscreteDynamicsWorld15debugDrawSphereEfRK11btTransformRK9btVector3(ptr noundef nonnull align 8 dereferenceable(372) %0, float noundef %316, ptr noundef nonnull align 4 dereferenceable(64) %13, ptr noundef nonnull align 4 dereferenceable(16) %3)
  call void @llvm.lifetime.end.p0(i64 64, ptr nonnull %13) #21
  %378 = icmp ugt i64 %304, 1
  br i1 %378, label %303, label %1476

379:                                              ; preds = %4
  %380 = getelementptr inbounds %class.btCapsuleShape, ptr %2, i64 0, i32 1
  %381 = load i32, ptr %380, align 8, !tbaa !167
  %382 = add nsw i32 %381, 2
  %383 = srem i32 %382, 3
  %384 = getelementptr inbounds %class.btConvexInternalShape, ptr %2, i64 0, i32 2
  %385 = sext i32 %383 to i64
  %386 = getelementptr inbounds float, ptr %384, i64 %385
  %387 = load float, ptr %386, align 4, !tbaa !5
  %388 = sext i32 %381 to i64
  %389 = getelementptr inbounds float, ptr %384, i64 %388
  %390 = load float, ptr %389, align 4, !tbaa !5
  call void @llvm.lifetime.start.p0(i64 16, ptr nonnull %14) #21
  %391 = getelementptr inbounds [4 x float], ptr %14, i64 0, i64 1
  %392 = getelementptr inbounds [4 x float], ptr %14, i64 0, i64 2
  %393 = fneg float %390
  %394 = getelementptr inbounds float, ptr %14, i64 %388
  call void @llvm.memset.p0.i64(ptr noundef nonnull align 4 dereferenceable(16) %14, i8 0, i64 16, i1 false)
  store float %393, ptr %394, align 4, !tbaa !5
  call void @llvm.lifetime.start.p0(i64 16, ptr nonnull %15) #21
  %395 = getelementptr inbounds [4 x float], ptr %15, i64 0, i64 1
  %396 = getelementptr inbounds [4 x float], ptr %15, i64 0, i64 2
  %397 = getelementptr inbounds float, ptr %15, i64 %388
  call void @llvm.memset.p0.i64(ptr noundef nonnull align 4 dereferenceable(16) %15, i8 0, i64 16, i1 false)
  store float %390, ptr %397, align 4, !tbaa !5
  call void @llvm.lifetime.start.p0(i64 64, ptr nonnull %16) #21
  call void @llvm.memcpy.p0.p0.i64(ptr noundef nonnull align 4 dereferenceable(16) %16, ptr noundef nonnull align 4 dereferenceable(16) %1, i64 16, i1 false), !tbaa.struct !74
  %398 = getelementptr inbounds [3 x %class.btVector3], ptr %16, i64 0, i64 1
  call void @llvm.memcpy.p0.p0.i64(ptr noundef nonnull align 4 dereferenceable(16) %398, ptr noundef nonnull align 4 dereferenceable(16) %65, i64 16, i1 false), !tbaa.struct !74
  %399 = getelementptr inbounds [3 x %class.btVector3], ptr %16, i64 0, i64 2
  call void @llvm.memcpy.p0.p0.i64(ptr noundef nonnull align 4 dereferenceable(16) %399, ptr noundef nonnull align 4 dereferenceable(16) %68, i64 16, i1 false), !tbaa.struct !74
  %400 = getelementptr inbounds %class.btTransform, ptr %16, i64 0, i32 1
  %401 = load float, ptr %14, align 4, !tbaa !5
  %402 = load float, ptr %391, align 4, !tbaa !5
  %403 = load float, ptr %392, align 4, !tbaa !5
  %404 = load <4 x float>, ptr %1, align 4
  %405 = shufflevector <4 x float> %404, <4 x float> poison, <2 x i32> <i32 0, i32 undef>
  %406 = load <4 x float>, ptr %63, align 4
  %407 = shufflevector <4 x float> %406, <4 x float> poison, <2 x i32> <i32 0, i32 undef>
  %408 = load <4 x float>, ptr %64, align 4
  %409 = shufflevector <4 x float> %408, <4 x float> poison, <2 x i32> <i32 0, i32 undef>
  %410 = load float, ptr %65, align 4, !tbaa !5
  %411 = load float, ptr %66, align 4, !tbaa !5
  %412 = insertelement <2 x float> poison, float %402, i64 0
  %413 = shufflevector <2 x float> %412, <2 x float> poison, <2 x i32> zeroinitializer
  %414 = insertelement <2 x float> %407, float %411, i64 1
  %415 = fmul <2 x float> %413, %414
  %416 = insertelement <2 x float> %405, float %410, i64 1
  %417 = insertelement <2 x float> poison, float %401, i64 0
  %418 = shufflevector <2 x float> %417, <2 x float> poison, <2 x i32> zeroinitializer
  %419 = call <2 x float> @llvm.fmuladd.v2f32(<2 x float> %416, <2 x float> %418, <2 x float> %415)
  %420 = load float, ptr %67, align 4, !tbaa !5
  %421 = insertelement <2 x float> %409, float %420, i64 1
  %422 = insertelement <2 x float> poison, float %403, i64 0
  %423 = shufflevector <2 x float> %422, <2 x float> poison, <2 x i32> zeroinitializer
  %424 = call <2 x float> @llvm.fmuladd.v2f32(<2 x float> %421, <2 x float> %423, <2 x float> %419)
  %425 = load <2 x float>, ptr %58, align 4, !tbaa !5
  %426 = fadd <2 x float> %424, %425
  %427 = load float, ptr %68, align 4, !tbaa !5
  %428 = load float, ptr %70, align 4, !tbaa !5
  %429 = fmul float %402, %428
  %430 = call float @llvm.fmuladd.f32(float %427, float %401, float %429)
  %431 = load float, ptr %74, align 4, !tbaa !5
  %432 = call float @llvm.fmuladd.f32(float %431, float %403, float %430)
  %433 = getelementptr inbounds %class.btTransform, ptr %1, i64 0, i32 1, i32 0, i64 2
  %434 = load float, ptr %433, align 4, !tbaa !5
  %435 = fadd float %434, %432
  %436 = insertelement <2 x float> <float poison, float 0.000000e+00>, float %435, i64 0
  store <2 x float> %426, ptr %400, align 4, !tbaa.struct !74
  %437 = getelementptr inbounds %class.btTransform, ptr %16, i64 0, i32 1, i32 0, i64 2
  store <2 x float> %436, ptr %437, align 4, !tbaa.struct !81
  call void @_ZN23btDiscreteDynamicsWorld15debugDrawSphereEfRK11btTransformRK9btVector3(ptr noundef nonnull align 8 dereferenceable(372) %0, float noundef %387, ptr noundef nonnull align 4 dereferenceable(64) %16, ptr noundef nonnull align 4 dereferenceable(16) %3)
  call void @llvm.lifetime.end.p0(i64 64, ptr nonnull %16) #21
  call void @llvm.lifetime.start.p0(i64 64, ptr nonnull %17) #21
  call void @llvm.memcpy.p0.p0.i64(ptr noundef nonnull align 4 dereferenceable(16) %17, ptr noundef nonnull align 4 dereferenceable(16) %1, i64 16, i1 false), !tbaa.struct !74
  %438 = getelementptr inbounds [3 x %class.btVector3], ptr %17, i64 0, i64 1
  call void @llvm.memcpy.p0.p0.i64(ptr noundef nonnull align 4 dereferenceable(16) %438, ptr noundef nonnull align 4 dereferenceable(16) %65, i64 16, i1 false), !tbaa.struct !74
  %439 = getelementptr inbounds [3 x %class.btVector3], ptr %17, i64 0, i64 2
  call void @llvm.memcpy.p0.p0.i64(ptr noundef nonnull align 4 dereferenceable(16) %439, ptr noundef nonnull align 4 dereferenceable(16) %68, i64 16, i1 false), !tbaa.struct !74
  %440 = getelementptr inbounds %class.btTransform, ptr %17, i64 0, i32 1
  %441 = load float, ptr %15, align 4, !tbaa !5
  %442 = load float, ptr %395, align 4, !tbaa !5
  %443 = load float, ptr %396, align 4, !tbaa !5
  %444 = load <4 x float>, ptr %1, align 4
  %445 = shufflevector <4 x float> %444, <4 x float> poison, <2 x i32> <i32 0, i32 undef>
  %446 = load <4 x float>, ptr %63, align 4
  %447 = shufflevector <4 x float> %446, <4 x float> poison, <2 x i32> <i32 0, i32 undef>
  %448 = load <4 x float>, ptr %64, align 4
  %449 = shufflevector <4 x float> %448, <4 x float> poison, <2 x i32> <i32 0, i32 undef>
  %450 = load float, ptr %65, align 4, !tbaa !5
  %451 = load float, ptr %66, align 4, !tbaa !5
  %452 = insertelement <2 x float> poison, float %442, i64 0
  %453 = shufflevector <2 x float> %452, <2 x float> poison, <2 x i32> zeroinitializer
  %454 = insertelement <2 x float> %447, float %451, i64 1
  %455 = fmul <2 x float> %453, %454
  %456 = insertelement <2 x float> %445, float %450, i64 1
  %457 = insertelement <2 x float> poison, float %441, i64 0
  %458 = shufflevector <2 x float> %457, <2 x float> poison, <2 x i32> zeroinitializer
  %459 = call <2 x float> @llvm.fmuladd.v2f32(<2 x float> %456, <2 x float> %458, <2 x float> %455)
  %460 = load float, ptr %67, align 4, !tbaa !5
  %461 = insertelement <2 x float> %449, float %460, i64 1
  %462 = insertelement <2 x float> poison, float %443, i64 0
  %463 = shufflevector <2 x float> %462, <2 x float> poison, <2 x i32> zeroinitializer
  %464 = call <2 x float> @llvm.fmuladd.v2f32(<2 x float> %461, <2 x float> %463, <2 x float> %459)
  %465 = load <2 x float>, ptr %58, align 4, !tbaa !5
  %466 = fadd <2 x float> %464, %465
  %467 = load float, ptr %68, align 4, !tbaa !5
  %468 = load float, ptr %70, align 4, !tbaa !5
  %469 = fmul float %442, %468
  %470 = call float @llvm.fmuladd.f32(float %467, float %441, float %469)
  %471 = load float, ptr %74, align 4, !tbaa !5
  %472 = call float @llvm.fmuladd.f32(float %471, float %443, float %470)
  %473 = load float, ptr %433, align 4, !tbaa !5
  %474 = fadd float %473, %472
  %475 = insertelement <2 x float> <float poison, float 0.000000e+00>, float %474, i64 0
  store <2 x float> %466, ptr %440, align 4, !tbaa.struct !74
  %476 = getelementptr inbounds %class.btTransform, ptr %17, i64 0, i32 1, i32 0, i64 2
  store <2 x float> %475, ptr %476, align 4, !tbaa.struct !81
  call void @_ZN23btDiscreteDynamicsWorld15debugDrawSphereEfRK11btTransformRK9btVector3(ptr noundef nonnull align 8 dereferenceable(372) %0, float noundef %387, ptr noundef nonnull align 4 dereferenceable(64) %17, ptr noundef nonnull align 4 dereferenceable(16) %3)
  call void @llvm.lifetime.end.p0(i64 64, ptr nonnull %17) #21
  %477 = load float, ptr %433, align 4, !tbaa.struct !81
  %478 = add nsw i32 %381, 1
  %479 = srem i32 %478, 3
  %480 = sext i32 %479 to i64
  %481 = getelementptr inbounds float, ptr %14, i64 %480
  store float %387, ptr %481, align 4, !tbaa !5
  %482 = getelementptr inbounds float, ptr %15, i64 %480
  store float %387, ptr %482, align 4, !tbaa !5
  %483 = load ptr, ptr %0, align 8, !tbaa !19
  %484 = getelementptr inbounds ptr, ptr %483, i64 4
  %485 = load ptr, ptr %484, align 8
  %486 = load <2 x float>, ptr %58, align 4
  %487 = call noundef ptr %485(ptr noundef nonnull align 8 dereferenceable(129) %0)
  call void @llvm.lifetime.start.p0(i64 16, ptr nonnull %18) #21
  %488 = load float, ptr %14, align 4, !tbaa !5
  %489 = load float, ptr %391, align 4, !tbaa !5
  %490 = load float, ptr %392, align 4, !tbaa !5
  %491 = insertelement <2 x float> poison, float %489, i64 0
  %492 = shufflevector <2 x float> %491, <2 x float> poison, <2 x i32> zeroinitializer
  %493 = insertelement <2 x float> poison, float %488, i64 0
  %494 = shufflevector <2 x float> %493, <2 x float> poison, <2 x i32> zeroinitializer
  %495 = insertelement <2 x float> poison, float %490, i64 0
  %496 = shufflevector <2 x float> %495, <2 x float> poison, <2 x i32> zeroinitializer
  %497 = load float, ptr %68, align 4, !tbaa !5
  %498 = load float, ptr %70, align 4, !tbaa !5
  %499 = fmul float %489, %498
  %500 = call float @llvm.fmuladd.f32(float %497, float %488, float %499)
  %501 = load float, ptr %74, align 4, !tbaa !5
  %502 = call float @llvm.fmuladd.f32(float %501, float %490, float %500)
  %503 = fadd float %477, %502
  %504 = insertelement <2 x float> <float poison, float 0.000000e+00>, float %503, i64 0
  %505 = getelementptr inbounds { <2 x float>, <2 x float> }, ptr %18, i64 0, i32 1
  store <2 x float> %504, ptr %505, align 8
  call void @llvm.lifetime.start.p0(i64 16, ptr nonnull %19) #21
  %506 = load float, ptr %15, align 4, !tbaa !5
  %507 = load float, ptr %395, align 4, !tbaa !5
  %508 = load float, ptr %396, align 4, !tbaa !5
  %509 = fmul float %498, %507
  %510 = call float @llvm.fmuladd.f32(float %497, float %506, float %509)
  %511 = call float @llvm.fmuladd.f32(float %501, float %508, float %510)
  %512 = load <4 x float>, ptr %1, align 4
  %513 = shufflevector <4 x float> %512, <4 x float> poison, <2 x i32> <i32 0, i32 undef>
  %514 = load <4 x float>, ptr %63, align 4
  %515 = shufflevector <4 x float> %514, <4 x float> poison, <2 x i32> <i32 0, i32 undef>
  %516 = load <4 x float>, ptr %64, align 4
  %517 = shufflevector <4 x float> %516, <4 x float> poison, <2 x i32> <i32 0, i32 undef>
  %518 = load float, ptr %65, align 4, !tbaa !5
  %519 = load float, ptr %66, align 4, !tbaa !5
  %520 = insertelement <2 x float> %515, float %519, i64 1
  %521 = fmul <2 x float> %492, %520
  %522 = insertelement <2 x float> %513, float %518, i64 1
  %523 = call <2 x float> @llvm.fmuladd.v2f32(<2 x float> %522, <2 x float> %494, <2 x float> %521)
  %524 = load float, ptr %67, align 4, !tbaa !5
  %525 = insertelement <2 x float> %517, float %524, i64 1
  %526 = call <2 x float> @llvm.fmuladd.v2f32(<2 x float> %525, <2 x float> %496, <2 x float> %523)
  %527 = fadd <2 x float> %486, %526
  store <2 x float> %527, ptr %18, align 8
  %528 = insertelement <2 x float> poison, float %507, i64 0
  %529 = shufflevector <2 x float> %528, <2 x float> poison, <2 x i32> zeroinitializer
  %530 = fmul <2 x float> %520, %529
  %531 = insertelement <2 x float> poison, float %506, i64 0
  %532 = shufflevector <2 x float> %531, <2 x float> poison, <2 x i32> zeroinitializer
  %533 = call <2 x float> @llvm.fmuladd.v2f32(<2 x float> %522, <2 x float> %532, <2 x float> %530)
  %534 = insertelement <2 x float> poison, float %508, i64 0
  %535 = shufflevector <2 x float> %534, <2 x float> poison, <2 x i32> zeroinitializer
  %536 = call <2 x float> @llvm.fmuladd.v2f32(<2 x float> %525, <2 x float> %535, <2 x float> %533)
  %537 = fadd <2 x float> %486, %536
  %538 = fadd float %477, %511
  %539 = insertelement <2 x float> <float poison, float 0.000000e+00>, float %538, i64 0
  store <2 x float> %537, ptr %19, align 8
  %540 = getelementptr inbounds { <2 x float>, <2 x float> }, ptr %19, i64 0, i32 1
  store <2 x float> %539, ptr %540, align 8
  %541 = load ptr, ptr %487, align 8, !tbaa !19
  %542 = getelementptr inbounds ptr, ptr %541, i64 5
  %543 = load ptr, ptr %542, align 8
  call void %543(ptr noundef nonnull align 8 dereferenceable(8) %487, ptr noundef nonnull align 4 dereferenceable(16) %18, ptr noundef nonnull align 4 dereferenceable(16) %19, ptr noundef nonnull align 4 dereferenceable(16) %3)
  call void @llvm.lifetime.end.p0(i64 16, ptr nonnull %19) #21
  call void @llvm.lifetime.end.p0(i64 16, ptr nonnull %18) #21
  %544 = fneg float %387
  store float %544, ptr %481, align 4, !tbaa !5
  store float %544, ptr %482, align 4, !tbaa !5
  %545 = load ptr, ptr %0, align 8, !tbaa !19
  %546 = getelementptr inbounds ptr, ptr %545, i64 4
  %547 = load ptr, ptr %546, align 8
  %548 = call noundef ptr %547(ptr noundef nonnull align 8 dereferenceable(129) %0)
  call void @llvm.lifetime.start.p0(i64 16, ptr nonnull %20) #21
  %549 = load float, ptr %14, align 4, !tbaa !5
  %550 = load float, ptr %391, align 4, !tbaa !5
  %551 = load float, ptr %392, align 4, !tbaa !5
  %552 = load float, ptr %68, align 4, !tbaa !5
  %553 = load float, ptr %70, align 4, !tbaa !5
  %554 = fmul float %550, %553
  %555 = call float @llvm.fmuladd.f32(float %552, float %549, float %554)
  %556 = load float, ptr %74, align 4, !tbaa !5
  %557 = call float @llvm.fmuladd.f32(float %556, float %551, float %555)
  %558 = insertelement <2 x float> poison, float %550, i64 0
  %559 = shufflevector <2 x float> %558, <2 x float> poison, <2 x i32> zeroinitializer
  %560 = insertelement <2 x float> poison, float %549, i64 0
  %561 = shufflevector <2 x float> %560, <2 x float> poison, <2 x i32> zeroinitializer
  %562 = insertelement <2 x float> poison, float %551, i64 0
  %563 = shufflevector <2 x float> %562, <2 x float> poison, <2 x i32> zeroinitializer
  %564 = fadd float %477, %557
  %565 = insertelement <2 x float> <float poison, float 0.000000e+00>, float %564, i64 0
  %566 = getelementptr inbounds { <2 x float>, <2 x float> }, ptr %20, i64 0, i32 1
  store <2 x float> %565, ptr %566, align 8
  call void @llvm.lifetime.start.p0(i64 16, ptr nonnull %21) #21
  %567 = load float, ptr %15, align 4, !tbaa !5
  %568 = load float, ptr %395, align 4, !tbaa !5
  %569 = load float, ptr %396, align 4, !tbaa !5
  %570 = fmul float %553, %568
  %571 = call float @llvm.fmuladd.f32(float %552, float %567, float %570)
  %572 = call float @llvm.fmuladd.f32(float %556, float %569, float %571)
  %573 = load <4 x float>, ptr %1, align 4
  %574 = shufflevector <4 x float> %573, <4 x float> poison, <2 x i32> <i32 0, i32 undef>
  %575 = load <4 x float>, ptr %63, align 4
  %576 = shufflevector <4 x float> %575, <4 x float> poison, <2 x i32> <i32 0, i32 undef>
  %577 = load <4 x float>, ptr %64, align 4
  %578 = shufflevector <4 x float> %577, <4 x float> poison, <2 x i32> <i32 0, i32 undef>
  %579 = load float, ptr %65, align 4, !tbaa !5
  %580 = load float, ptr %66, align 4, !tbaa !5
  %581 = insertelement <2 x float> %576, float %580, i64 1
  %582 = fmul <2 x float> %559, %581
  %583 = insertelement <2 x float> %574, float %579, i64 1
  %584 = call <2 x float> @llvm.fmuladd.v2f32(<2 x float> %583, <2 x float> %561, <2 x float> %582)
  %585 = load float, ptr %67, align 4, !tbaa !5
  %586 = insertelement <2 x float> %578, float %585, i64 1
  %587 = call <2 x float> @llvm.fmuladd.v2f32(<2 x float> %586, <2 x float> %563, <2 x float> %584)
  %588 = fadd <2 x float> %486, %587
  store <2 x float> %588, ptr %20, align 8
  %589 = insertelement <2 x float> poison, float %568, i64 0
  %590 = shufflevector <2 x float> %589, <2 x float> poison, <2 x i32> zeroinitializer
  %591 = fmul <2 x float> %581, %590
  %592 = insertelement <2 x float> poison, float %567, i64 0
  %593 = shufflevector <2 x float> %592, <2 x float> poison, <2 x i32> zeroinitializer
  %594 = call <2 x float> @llvm.fmuladd.v2f32(<2 x float> %583, <2 x float> %593, <2 x float> %591)
  %595 = insertelement <2 x float> poison, float %569, i64 0
  %596 = shufflevector <2 x float> %595, <2 x float> poison, <2 x i32> zeroinitializer
  %597 = call <2 x float> @llvm.fmuladd.v2f32(<2 x float> %586, <2 x float> %596, <2 x float> %594)
  %598 = fadd <2 x float> %486, %597
  %599 = fadd float %477, %572
  %600 = insertelement <2 x float> <float poison, float 0.000000e+00>, float %599, i64 0
  store <2 x float> %598, ptr %21, align 8
  %601 = getelementptr inbounds { <2 x float>, <2 x float> }, ptr %21, i64 0, i32 1
  store <2 x float> %600, ptr %601, align 8
  %602 = load ptr, ptr %548, align 8, !tbaa !19
  %603 = getelementptr inbounds ptr, ptr %602, i64 5
  %604 = load ptr, ptr %603, align 8
  call void %604(ptr noundef nonnull align 8 dereferenceable(8) %548, ptr noundef nonnull align 4 dereferenceable(16) %20, ptr noundef nonnull align 4 dereferenceable(16) %21, ptr noundef nonnull align 4 dereferenceable(16) %3)
  call void @llvm.lifetime.end.p0(i64 16, ptr nonnull %21) #21
  call void @llvm.lifetime.end.p0(i64 16, ptr nonnull %20) #21
  store float 0.000000e+00, ptr %481, align 4, !tbaa !5
  store float 0.000000e+00, ptr %482, align 4, !tbaa !5
  %605 = getelementptr inbounds float, ptr %14, i64 %385
  store float %387, ptr %605, align 4, !tbaa !5
  %606 = getelementptr inbounds float, ptr %15, i64 %385
  store float %387, ptr %606, align 4, !tbaa !5
  %607 = load ptr, ptr %0, align 8, !tbaa !19
  %608 = getelementptr inbounds ptr, ptr %607, i64 4
  %609 = load ptr, ptr %608, align 8
  %610 = call noundef ptr %609(ptr noundef nonnull align 8 dereferenceable(129) %0)
  call void @llvm.lifetime.start.p0(i64 16, ptr nonnull %22) #21
  %611 = load float, ptr %14, align 4, !tbaa !5
  %612 = load float, ptr %391, align 4, !tbaa !5
  %613 = load float, ptr %392, align 4, !tbaa !5
  %614 = load float, ptr %68, align 4, !tbaa !5
  %615 = load float, ptr %70, align 4, !tbaa !5
  %616 = fmul float %612, %615
  %617 = call float @llvm.fmuladd.f32(float %614, float %611, float %616)
  %618 = load float, ptr %74, align 4, !tbaa !5
  %619 = call float @llvm.fmuladd.f32(float %618, float %613, float %617)
  %620 = insertelement <2 x float> poison, float %612, i64 0
  %621 = shufflevector <2 x float> %620, <2 x float> poison, <2 x i32> zeroinitializer
  %622 = insertelement <2 x float> poison, float %611, i64 0
  %623 = shufflevector <2 x float> %622, <2 x float> poison, <2 x i32> zeroinitializer
  %624 = insertelement <2 x float> poison, float %613, i64 0
  %625 = shufflevector <2 x float> %624, <2 x float> poison, <2 x i32> zeroinitializer
  %626 = fadd float %477, %619
  %627 = insertelement <2 x float> <float poison, float 0.000000e+00>, float %626, i64 0
  %628 = getelementptr inbounds { <2 x float>, <2 x float> }, ptr %22, i64 0, i32 1
  store <2 x float> %627, ptr %628, align 8
  call void @llvm.lifetime.start.p0(i64 16, ptr nonnull %23) #21
  %629 = load float, ptr %15, align 4, !tbaa !5
  %630 = load float, ptr %395, align 4, !tbaa !5
  %631 = load float, ptr %396, align 4, !tbaa !5
  %632 = fmul float %615, %630
  %633 = call float @llvm.fmuladd.f32(float %614, float %629, float %632)
  %634 = call float @llvm.fmuladd.f32(float %618, float %631, float %633)
  %635 = load <4 x float>, ptr %1, align 4
  %636 = shufflevector <4 x float> %635, <4 x float> poison, <2 x i32> <i32 0, i32 undef>
  %637 = load <4 x float>, ptr %63, align 4
  %638 = shufflevector <4 x float> %637, <4 x float> poison, <2 x i32> <i32 0, i32 undef>
  %639 = load <4 x float>, ptr %64, align 4
  %640 = shufflevector <4 x float> %639, <4 x float> poison, <2 x i32> <i32 0, i32 undef>
  %641 = load float, ptr %65, align 4, !tbaa !5
  %642 = load float, ptr %66, align 4, !tbaa !5
  %643 = insertelement <2 x float> %638, float %642, i64 1
  %644 = fmul <2 x float> %621, %643
  %645 = insertelement <2 x float> %636, float %641, i64 1
  %646 = call <2 x float> @llvm.fmuladd.v2f32(<2 x float> %645, <2 x float> %623, <2 x float> %644)
  %647 = load float, ptr %67, align 4, !tbaa !5
  %648 = insertelement <2 x float> %640, float %647, i64 1
  %649 = call <2 x float> @llvm.fmuladd.v2f32(<2 x float> %648, <2 x float> %625, <2 x float> %646)
  %650 = fadd <2 x float> %486, %649
  store <2 x float> %650, ptr %22, align 8
  %651 = insertelement <2 x float> poison, float %630, i64 0
  %652 = shufflevector <2 x float> %651, <2 x float> poison, <2 x i32> zeroinitializer
  %653 = fmul <2 x float> %643, %652
  %654 = insertelement <2 x float> poison, float %629, i64 0
  %655 = shufflevector <2 x float> %654, <2 x float> poison, <2 x i32> zeroinitializer
  %656 = call <2 x float> @llvm.fmuladd.v2f32(<2 x float> %645, <2 x float> %655, <2 x float> %653)
  %657 = insertelement <2 x float> poison, float %631, i64 0
  %658 = shufflevector <2 x float> %657, <2 x float> poison, <2 x i32> zeroinitializer
  %659 = call <2 x float> @llvm.fmuladd.v2f32(<2 x float> %648, <2 x float> %658, <2 x float> %656)
  %660 = fadd <2 x float> %486, %659
  %661 = fadd float %477, %634
  %662 = insertelement <2 x float> <float poison, float 0.000000e+00>, float %661, i64 0
  store <2 x float> %660, ptr %23, align 8
  %663 = getelementptr inbounds { <2 x float>, <2 x float> }, ptr %23, i64 0, i32 1
  store <2 x float> %662, ptr %663, align 8
  %664 = load ptr, ptr %610, align 8, !tbaa !19
  %665 = getelementptr inbounds ptr, ptr %664, i64 5
  %666 = load ptr, ptr %665, align 8
  call void %666(ptr noundef nonnull align 8 dereferenceable(8) %610, ptr noundef nonnull align 4 dereferenceable(16) %22, ptr noundef nonnull align 4 dereferenceable(16) %23, ptr noundef nonnull align 4 dereferenceable(16) %3)
  call void @llvm.lifetime.end.p0(i64 16, ptr nonnull %23) #21
  call void @llvm.lifetime.end.p0(i64 16, ptr nonnull %22) #21
  store float %544, ptr %605, align 4, !tbaa !5
  store float %544, ptr %606, align 4, !tbaa !5
  %667 = load ptr, ptr %0, align 8, !tbaa !19
  %668 = getelementptr inbounds ptr, ptr %667, i64 4
  %669 = load ptr, ptr %668, align 8
  %670 = call noundef ptr %669(ptr noundef nonnull align 8 dereferenceable(129) %0)
  call void @llvm.lifetime.start.p0(i64 16, ptr nonnull %24) #21
  %671 = load float, ptr %14, align 4, !tbaa !5
  %672 = load float, ptr %391, align 4, !tbaa !5
  %673 = load float, ptr %392, align 4, !tbaa !5
  %674 = load float, ptr %68, align 4, !tbaa !5
  %675 = load float, ptr %70, align 4, !tbaa !5
  %676 = fmul float %672, %675
  %677 = call float @llvm.fmuladd.f32(float %674, float %671, float %676)
  %678 = load float, ptr %74, align 4, !tbaa !5
  %679 = call float @llvm.fmuladd.f32(float %678, float %673, float %677)
  %680 = insertelement <2 x float> poison, float %672, i64 0
  %681 = shufflevector <2 x float> %680, <2 x float> poison, <2 x i32> zeroinitializer
  %682 = insertelement <2 x float> poison, float %671, i64 0
  %683 = shufflevector <2 x float> %682, <2 x float> poison, <2 x i32> zeroinitializer
  %684 = insertelement <2 x float> poison, float %673, i64 0
  %685 = shufflevector <2 x float> %684, <2 x float> poison, <2 x i32> zeroinitializer
  %686 = fadd float %477, %679
  %687 = insertelement <2 x float> <float poison, float 0.000000e+00>, float %686, i64 0
  %688 = getelementptr inbounds { <2 x float>, <2 x float> }, ptr %24, i64 0, i32 1
  store <2 x float> %687, ptr %688, align 8
  call void @llvm.lifetime.start.p0(i64 16, ptr nonnull %25) #21
  %689 = load float, ptr %15, align 4, !tbaa !5
  %690 = load float, ptr %395, align 4, !tbaa !5
  %691 = load float, ptr %396, align 4, !tbaa !5
  %692 = fmul float %675, %690
  %693 = call float @llvm.fmuladd.f32(float %674, float %689, float %692)
  %694 = call float @llvm.fmuladd.f32(float %678, float %691, float %693)
  %695 = load <4 x float>, ptr %1, align 4
  %696 = shufflevector <4 x float> %695, <4 x float> poison, <2 x i32> <i32 0, i32 undef>
  %697 = load <4 x float>, ptr %63, align 4
  %698 = shufflevector <4 x float> %697, <4 x float> poison, <2 x i32> <i32 0, i32 undef>
  %699 = load <4 x float>, ptr %64, align 4
  %700 = shufflevector <4 x float> %699, <4 x float> poison, <2 x i32> <i32 0, i32 undef>
  %701 = load float, ptr %65, align 4, !tbaa !5
  %702 = load float, ptr %66, align 4, !tbaa !5
  %703 = insertelement <2 x float> %698, float %702, i64 1
  %704 = fmul <2 x float> %681, %703
  %705 = insertelement <2 x float> %696, float %701, i64 1
  %706 = call <2 x float> @llvm.fmuladd.v2f32(<2 x float> %705, <2 x float> %683, <2 x float> %704)
  %707 = load float, ptr %67, align 4, !tbaa !5
  %708 = insertelement <2 x float> %700, float %707, i64 1
  %709 = call <2 x float> @llvm.fmuladd.v2f32(<2 x float> %708, <2 x float> %685, <2 x float> %706)
  %710 = fadd <2 x float> %486, %709
  store <2 x float> %710, ptr %24, align 8
  %711 = insertelement <2 x float> poison, float %690, i64 0
  %712 = shufflevector <2 x float> %711, <2 x float> poison, <2 x i32> zeroinitializer
  %713 = fmul <2 x float> %703, %712
  %714 = insertelement <2 x float> poison, float %689, i64 0
  %715 = shufflevector <2 x float> %714, <2 x float> poison, <2 x i32> zeroinitializer
  %716 = call <2 x float> @llvm.fmuladd.v2f32(<2 x float> %705, <2 x float> %715, <2 x float> %713)
  %717 = insertelement <2 x float> poison, float %691, i64 0
  %718 = shufflevector <2 x float> %717, <2 x float> poison, <2 x i32> zeroinitializer
  %719 = call <2 x float> @llvm.fmuladd.v2f32(<2 x float> %708, <2 x float> %718, <2 x float> %716)
  %720 = fadd <2 x float> %486, %719
  %721 = fadd float %477, %694
  %722 = insertelement <2 x float> <float poison, float 0.000000e+00>, float %721, i64 0
  store <2 x float> %720, ptr %25, align 8
  %723 = getelementptr inbounds { <2 x float>, <2 x float> }, ptr %25, i64 0, i32 1
  store <2 x float> %722, ptr %723, align 8
  %724 = load ptr, ptr %670, align 8, !tbaa !19
  %725 = getelementptr inbounds ptr, ptr %724, i64 5
  %726 = load ptr, ptr %725, align 8
  call void %726(ptr noundef nonnull align 8 dereferenceable(8) %670, ptr noundef nonnull align 4 dereferenceable(16) %24, ptr noundef nonnull align 4 dereferenceable(16) %25, ptr noundef nonnull align 4 dereferenceable(16) %3)
  call void @llvm.lifetime.end.p0(i64 16, ptr nonnull %25) #21
  call void @llvm.lifetime.end.p0(i64 16, ptr nonnull %24) #21
  call void @llvm.lifetime.end.p0(i64 16, ptr nonnull %15) #21
  call void @llvm.lifetime.end.p0(i64 16, ptr nonnull %14) #21
  br label %1476

727:                                              ; preds = %4
  %728 = getelementptr inbounds %class.btConeShape, ptr %2, i64 0, i32 2
  %729 = load float, ptr %728, align 4, !tbaa !171
  %730 = getelementptr inbounds %class.btConeShape, ptr %2, i64 0, i32 3
  %731 = load float, ptr %730, align 8, !tbaa !173
  %732 = getelementptr inbounds %class.btTransform, ptr %1, i64 0, i32 1, i32 0, i64 2
  %733 = load float, ptr %732, align 4, !tbaa.struct !81
  %734 = getelementptr inbounds %class.btConeShape, ptr %2, i64 0, i32 4, i64 1
  %735 = load i32, ptr %734, align 8, !tbaa !174
  call void @llvm.lifetime.start.p0(i64 16, ptr nonnull %26) #21
  %736 = getelementptr inbounds [4 x float], ptr %26, i64 0, i64 1
  %737 = getelementptr inbounds [4 x float], ptr %26, i64 0, i64 2
  %738 = fmul float %731, 5.000000e-01
  %739 = sext i32 %735 to i64
  %740 = getelementptr inbounds float, ptr %26, i64 %739
  call void @llvm.memset.p0.i64(ptr noundef nonnull align 4 dereferenceable(16) %26, i8 0, i64 16, i1 false)
  store float %738, ptr %740, align 4, !tbaa !5
  call void @llvm.lifetime.start.p0(i64 16, ptr nonnull %27) #21
  %741 = getelementptr inbounds [4 x float], ptr %27, i64 0, i64 1
  %742 = getelementptr inbounds [4 x float], ptr %27, i64 0, i64 2
  %743 = add nsw i32 %735, 1
  %744 = srem i32 %743, 3
  %745 = sext i32 %744 to i64
  %746 = getelementptr inbounds float, ptr %27, i64 %745
  call void @llvm.memset.p0.i64(ptr noundef nonnull align 4 dereferenceable(16) %27, i8 0, i64 16, i1 false)
  store float %729, ptr %746, align 4, !tbaa !5
  call void @llvm.lifetime.start.p0(i64 16, ptr nonnull %28) #21
  %747 = getelementptr inbounds [4 x float], ptr %28, i64 0, i64 1
  %748 = getelementptr inbounds [4 x float], ptr %28, i64 0, i64 2
  %749 = add nsw i32 %735, 2
  %750 = srem i32 %749, 3
  %751 = sext i32 %750 to i64
  %752 = getelementptr inbounds float, ptr %28, i64 %751
  call void @llvm.memset.p0.i64(ptr noundef nonnull align 4 dereferenceable(16) %28, i8 0, i64 16, i1 false)
  store float %729, ptr %752, align 4, !tbaa !5
  %753 = load ptr, ptr %0, align 8, !tbaa !19
  %754 = getelementptr inbounds ptr, ptr %753, i64 4
  %755 = load ptr, ptr %754, align 8
  %756 = load <2 x float>, ptr %58, align 4
  %757 = call noundef ptr %755(ptr noundef nonnull align 8 dereferenceable(129) %0)
  call void @llvm.lifetime.start.p0(i64 16, ptr nonnull %29) #21
  %758 = load float, ptr %26, align 4, !tbaa !5
  %759 = load float, ptr %736, align 4, !tbaa !5
  %760 = load float, ptr %737, align 4, !tbaa !5
  %761 = insertelement <2 x float> poison, float %759, i64 0
  %762 = shufflevector <2 x float> %761, <2 x float> poison, <2 x i32> zeroinitializer
  %763 = insertelement <2 x float> poison, float %758, i64 0
  %764 = shufflevector <2 x float> %763, <2 x float> poison, <2 x i32> zeroinitializer
  %765 = insertelement <2 x float> poison, float %760, i64 0
  %766 = shufflevector <2 x float> %765, <2 x float> poison, <2 x i32> zeroinitializer
  %767 = load float, ptr %68, align 4, !tbaa !5
  %768 = load float, ptr %70, align 4, !tbaa !5
  %769 = fmul float %759, %768
  %770 = call float @llvm.fmuladd.f32(float %767, float %758, float %769)
  %771 = load float, ptr %74, align 4, !tbaa !5
  %772 = call float @llvm.fmuladd.f32(float %771, float %760, float %770)
  %773 = fadd float %733, %772
  %774 = insertelement <2 x float> <float poison, float 0.000000e+00>, float %773, i64 0
  %775 = getelementptr inbounds { <2 x float>, <2 x float> }, ptr %29, i64 0, i32 1
  store <2 x float> %774, ptr %775, align 8
  call void @llvm.lifetime.start.p0(i64 16, ptr nonnull %30) #21
  %776 = load float, ptr %27, align 4, !tbaa !5
  %777 = fsub float %776, %758
  %778 = load float, ptr %741, align 4, !tbaa !5
  %779 = fsub float %778, %759
  %780 = load float, ptr %742, align 4, !tbaa !5
  %781 = fsub float %780, %760
  %782 = fmul float %768, %779
  %783 = call float @llvm.fmuladd.f32(float %767, float %777, float %782)
  %784 = call float @llvm.fmuladd.f32(float %771, float %781, float %783)
  %785 = load <4 x float>, ptr %1, align 4
  %786 = shufflevector <4 x float> %785, <4 x float> poison, <2 x i32> <i32 0, i32 undef>
  %787 = load <4 x float>, ptr %63, align 4
  %788 = shufflevector <4 x float> %787, <4 x float> poison, <2 x i32> <i32 0, i32 undef>
  %789 = load <4 x float>, ptr %64, align 4
  %790 = shufflevector <4 x float> %789, <4 x float> poison, <2 x i32> <i32 0, i32 undef>
  %791 = load float, ptr %65, align 4, !tbaa !5
  %792 = load float, ptr %66, align 4, !tbaa !5
  %793 = insertelement <2 x float> %788, float %792, i64 1
  %794 = fmul <2 x float> %762, %793
  %795 = insertelement <2 x float> %786, float %791, i64 1
  %796 = call <2 x float> @llvm.fmuladd.v2f32(<2 x float> %795, <2 x float> %764, <2 x float> %794)
  %797 = load float, ptr %67, align 4, !tbaa !5
  %798 = insertelement <2 x float> %790, float %797, i64 1
  %799 = call <2 x float> @llvm.fmuladd.v2f32(<2 x float> %798, <2 x float> %766, <2 x float> %796)
  %800 = fadd <2 x float> %756, %799
  store <2 x float> %800, ptr %29, align 8
  %801 = insertelement <2 x float> poison, float %779, i64 0
  %802 = shufflevector <2 x float> %801, <2 x float> poison, <2 x i32> zeroinitializer
  %803 = fmul <2 x float> %793, %802
  %804 = insertelement <2 x float> poison, float %777, i64 0
  %805 = shufflevector <2 x float> %804, <2 x float> poison, <2 x i32> zeroinitializer
  %806 = call <2 x float> @llvm.fmuladd.v2f32(<2 x float> %795, <2 x float> %805, <2 x float> %803)
  %807 = insertelement <2 x float> poison, float %781, i64 0
  %808 = shufflevector <2 x float> %807, <2 x float> poison, <2 x i32> zeroinitializer
  %809 = call <2 x float> @llvm.fmuladd.v2f32(<2 x float> %798, <2 x float> %808, <2 x float> %806)
  %810 = fadd <2 x float> %756, %809
  %811 = fadd float %733, %784
  %812 = insertelement <2 x float> <float poison, float 0.000000e+00>, float %811, i64 0
  store <2 x float> %810, ptr %30, align 8
  %813 = getelementptr inbounds { <2 x float>, <2 x float> }, ptr %30, i64 0, i32 1
  store <2 x float> %812, ptr %813, align 8
  %814 = load ptr, ptr %757, align 8, !tbaa !19
  %815 = getelementptr inbounds ptr, ptr %814, i64 5
  %816 = load ptr, ptr %815, align 8
  call void %816(ptr noundef nonnull align 8 dereferenceable(8) %757, ptr noundef nonnull align 4 dereferenceable(16) %29, ptr noundef nonnull align 4 dereferenceable(16) %30, ptr noundef nonnull align 4 dereferenceable(16) %3)
  call void @llvm.lifetime.end.p0(i64 16, ptr nonnull %30) #21
  call void @llvm.lifetime.end.p0(i64 16, ptr nonnull %29) #21
  %817 = load ptr, ptr %0, align 8, !tbaa !19
  %818 = getelementptr inbounds ptr, ptr %817, i64 4
  %819 = load ptr, ptr %818, align 8
  %820 = call noundef ptr %819(ptr noundef nonnull align 8 dereferenceable(129) %0)
  call void @llvm.lifetime.start.p0(i64 16, ptr nonnull %31) #21
  %821 = load float, ptr %68, align 4, !tbaa !5
  %822 = load float, ptr %70, align 4, !tbaa !5
  %823 = fmul float %759, %822
  %824 = call float @llvm.fmuladd.f32(float %821, float %758, float %823)
  %825 = load float, ptr %74, align 4, !tbaa !5
  %826 = call float @llvm.fmuladd.f32(float %825, float %760, float %824)
  %827 = fadd float %733, %826
  %828 = insertelement <2 x float> <float poison, float 0.000000e+00>, float %827, i64 0
  %829 = getelementptr inbounds { <2 x float>, <2 x float> }, ptr %31, i64 0, i32 1
  store <2 x float> %828, ptr %829, align 8
  call void @llvm.lifetime.start.p0(i64 16, ptr nonnull %32) #21
  %830 = fneg float %758
  %831 = fneg float %759
  %832 = fneg float %760
  %833 = fsub float %830, %776
  %834 = fsub float %831, %778
  %835 = fsub float %832, %780
  %836 = fmul float %834, %822
  %837 = call float @llvm.fmuladd.f32(float %821, float %833, float %836)
  %838 = call float @llvm.fmuladd.f32(float %825, float %835, float %837)
  %839 = load <4 x float>, ptr %1, align 4
  %840 = shufflevector <4 x float> %839, <4 x float> poison, <2 x i32> <i32 0, i32 undef>
  %841 = load <4 x float>, ptr %63, align 4
  %842 = shufflevector <4 x float> %841, <4 x float> poison, <2 x i32> <i32 0, i32 undef>
  %843 = load <4 x float>, ptr %64, align 4
  %844 = shufflevector <4 x float> %843, <4 x float> poison, <2 x i32> <i32 0, i32 undef>
  %845 = load float, ptr %65, align 4, !tbaa !5
  %846 = load float, ptr %66, align 4, !tbaa !5
  %847 = insertelement <2 x float> %842, float %846, i64 1
  %848 = fmul <2 x float> %762, %847
  %849 = insertelement <2 x float> %840, float %845, i64 1
  %850 = call <2 x float> @llvm.fmuladd.v2f32(<2 x float> %849, <2 x float> %764, <2 x float> %848)
  %851 = load float, ptr %67, align 4, !tbaa !5
  %852 = insertelement <2 x float> %844, float %851, i64 1
  %853 = call <2 x float> @llvm.fmuladd.v2f32(<2 x float> %852, <2 x float> %766, <2 x float> %850)
  %854 = fadd <2 x float> %756, %853
  store <2 x float> %854, ptr %31, align 8
  %855 = insertelement <2 x float> poison, float %834, i64 0
  %856 = shufflevector <2 x float> %855, <2 x float> poison, <2 x i32> zeroinitializer
  %857 = fmul <2 x float> %856, %847
  %858 = insertelement <2 x float> poison, float %833, i64 0
  %859 = shufflevector <2 x float> %858, <2 x float> poison, <2 x i32> zeroinitializer
  %860 = call <2 x float> @llvm.fmuladd.v2f32(<2 x float> %849, <2 x float> %859, <2 x float> %857)
  %861 = insertelement <2 x float> poison, float %835, i64 0
  %862 = shufflevector <2 x float> %861, <2 x float> poison, <2 x i32> zeroinitializer
  %863 = call <2 x float> @llvm.fmuladd.v2f32(<2 x float> %852, <2 x float> %862, <2 x float> %860)
  %864 = fadd <2 x float> %756, %863
  %865 = fadd float %733, %838
  %866 = insertelement <2 x float> <float poison, float 0.000000e+00>, float %865, i64 0
  store <2 x float> %864, ptr %32, align 8
  %867 = getelementptr inbounds { <2 x float>, <2 x float> }, ptr %32, i64 0, i32 1
  store <2 x float> %866, ptr %867, align 8
  %868 = load ptr, ptr %820, align 8, !tbaa !19
  %869 = getelementptr inbounds ptr, ptr %868, i64 5
  %870 = load ptr, ptr %869, align 8
  call void %870(ptr noundef nonnull align 8 dereferenceable(8) %820, ptr noundef nonnull align 4 dereferenceable(16) %31, ptr noundef nonnull align 4 dereferenceable(16) %32, ptr noundef nonnull align 4 dereferenceable(16) %3)
  call void @llvm.lifetime.end.p0(i64 16, ptr nonnull %32) #21
  call void @llvm.lifetime.end.p0(i64 16, ptr nonnull %31) #21
  %871 = load ptr, ptr %0, align 8, !tbaa !19
  %872 = getelementptr inbounds ptr, ptr %871, i64 4
  %873 = load ptr, ptr %872, align 8
  %874 = call noundef ptr %873(ptr noundef nonnull align 8 dereferenceable(129) %0)
  call void @llvm.lifetime.start.p0(i64 16, ptr nonnull %33) #21
  %875 = load float, ptr %68, align 4, !tbaa !5
  %876 = load float, ptr %70, align 4, !tbaa !5
  %877 = fmul float %759, %876
  %878 = call float @llvm.fmuladd.f32(float %875, float %758, float %877)
  %879 = load float, ptr %74, align 4, !tbaa !5
  %880 = call float @llvm.fmuladd.f32(float %879, float %760, float %878)
  %881 = fadd float %733, %880
  %882 = insertelement <2 x float> <float poison, float 0.000000e+00>, float %881, i64 0
  %883 = getelementptr inbounds { <2 x float>, <2 x float> }, ptr %33, i64 0, i32 1
  store <2 x float> %882, ptr %883, align 8
  call void @llvm.lifetime.start.p0(i64 16, ptr nonnull %34) #21
  %884 = load float, ptr %28, align 4, !tbaa !5
  %885 = fsub float %884, %758
  %886 = load float, ptr %747, align 4, !tbaa !5
  %887 = fsub float %886, %759
  %888 = load float, ptr %748, align 4, !tbaa !5
  %889 = fsub float %888, %760
  %890 = fmul float %876, %887
  %891 = call float @llvm.fmuladd.f32(float %875, float %885, float %890)
  %892 = call float @llvm.fmuladd.f32(float %879, float %889, float %891)
  %893 = load <4 x float>, ptr %1, align 4
  %894 = shufflevector <4 x float> %893, <4 x float> poison, <2 x i32> <i32 0, i32 undef>
  %895 = load <4 x float>, ptr %63, align 4
  %896 = shufflevector <4 x float> %895, <4 x float> poison, <2 x i32> <i32 0, i32 undef>
  %897 = load <4 x float>, ptr %64, align 4
  %898 = shufflevector <4 x float> %897, <4 x float> poison, <2 x i32> <i32 0, i32 undef>
  %899 = load float, ptr %65, align 4, !tbaa !5
  %900 = load float, ptr %66, align 4, !tbaa !5
  %901 = insertelement <2 x float> %896, float %900, i64 1
  %902 = fmul <2 x float> %762, %901
  %903 = insertelement <2 x float> %894, float %899, i64 1
  %904 = call <2 x float> @llvm.fmuladd.v2f32(<2 x float> %903, <2 x float> %764, <2 x float> %902)
  %905 = load float, ptr %67, align 4, !tbaa !5
  %906 = insertelement <2 x float> %898, float %905, i64 1
  %907 = call <2 x float> @llvm.fmuladd.v2f32(<2 x float> %906, <2 x float> %766, <2 x float> %904)
  %908 = fadd <2 x float> %756, %907
  store <2 x float> %908, ptr %33, align 8
  %909 = insertelement <2 x float> poison, float %887, i64 0
  %910 = shufflevector <2 x float> %909, <2 x float> poison, <2 x i32> zeroinitializer
  %911 = fmul <2 x float> %901, %910
  %912 = insertelement <2 x float> poison, float %885, i64 0
  %913 = shufflevector <2 x float> %912, <2 x float> poison, <2 x i32> zeroinitializer
  %914 = call <2 x float> @llvm.fmuladd.v2f32(<2 x float> %903, <2 x float> %913, <2 x float> %911)
  %915 = insertelement <2 x float> poison, float %889, i64 0
  %916 = shufflevector <2 x float> %915, <2 x float> poison, <2 x i32> zeroinitializer
  %917 = call <2 x float> @llvm.fmuladd.v2f32(<2 x float> %906, <2 x float> %916, <2 x float> %914)
  %918 = fadd <2 x float> %756, %917
  %919 = fadd float %733, %892
  %920 = insertelement <2 x float> <float poison, float 0.000000e+00>, float %919, i64 0
  store <2 x float> %918, ptr %34, align 8
  %921 = getelementptr inbounds { <2 x float>, <2 x float> }, ptr %34, i64 0, i32 1
  store <2 x float> %920, ptr %921, align 8
  %922 = load ptr, ptr %874, align 8, !tbaa !19
  %923 = getelementptr inbounds ptr, ptr %922, i64 5
  %924 = load ptr, ptr %923, align 8
  call void %924(ptr noundef nonnull align 8 dereferenceable(8) %874, ptr noundef nonnull align 4 dereferenceable(16) %33, ptr noundef nonnull align 4 dereferenceable(16) %34, ptr noundef nonnull align 4 dereferenceable(16) %3)
  call void @llvm.lifetime.end.p0(i64 16, ptr nonnull %34) #21
  call void @llvm.lifetime.end.p0(i64 16, ptr nonnull %33) #21
  %925 = load ptr, ptr %0, align 8, !tbaa !19
  %926 = getelementptr inbounds ptr, ptr %925, i64 4
  %927 = load ptr, ptr %926, align 8
  %928 = call noundef ptr %927(ptr noundef nonnull align 8 dereferenceable(129) %0)
  call void @llvm.lifetime.start.p0(i64 16, ptr nonnull %35) #21
  %929 = load float, ptr %68, align 4, !tbaa !5
  %930 = load float, ptr %70, align 4, !tbaa !5
  %931 = fmul float %759, %930
  %932 = call float @llvm.fmuladd.f32(float %929, float %758, float %931)
  %933 = load float, ptr %74, align 4, !tbaa !5
  %934 = call float @llvm.fmuladd.f32(float %933, float %760, float %932)
  %935 = fadd float %733, %934
  %936 = insertelement <2 x float> <float poison, float 0.000000e+00>, float %935, i64 0
  %937 = getelementptr inbounds { <2 x float>, <2 x float> }, ptr %35, i64 0, i32 1
  store <2 x float> %936, ptr %937, align 8
  call void @llvm.lifetime.start.p0(i64 16, ptr nonnull %36) #21
  %938 = fsub float %830, %884
  %939 = fsub float %831, %886
  %940 = fsub float %832, %888
  %941 = fmul float %939, %930
  %942 = call float @llvm.fmuladd.f32(float %929, float %938, float %941)
  %943 = call float @llvm.fmuladd.f32(float %933, float %940, float %942)
  %944 = load <4 x float>, ptr %1, align 4
  %945 = shufflevector <4 x float> %944, <4 x float> poison, <2 x i32> <i32 0, i32 undef>
  %946 = load <4 x float>, ptr %63, align 4
  %947 = shufflevector <4 x float> %946, <4 x float> poison, <2 x i32> <i32 0, i32 undef>
  %948 = load <4 x float>, ptr %64, align 4
  %949 = shufflevector <4 x float> %948, <4 x float> poison, <2 x i32> <i32 0, i32 undef>
  %950 = load float, ptr %65, align 4, !tbaa !5
  %951 = load float, ptr %66, align 4, !tbaa !5
  %952 = insertelement <2 x float> %947, float %951, i64 1
  %953 = fmul <2 x float> %762, %952
  %954 = insertelement <2 x float> %945, float %950, i64 1
  %955 = call <2 x float> @llvm.fmuladd.v2f32(<2 x float> %954, <2 x float> %764, <2 x float> %953)
  %956 = load float, ptr %67, align 4, !tbaa !5
  %957 = insertelement <2 x float> %949, float %956, i64 1
  %958 = call <2 x float> @llvm.fmuladd.v2f32(<2 x float> %957, <2 x float> %766, <2 x float> %955)
  %959 = fadd <2 x float> %756, %958
  store <2 x float> %959, ptr %35, align 8
  %960 = insertelement <2 x float> poison, float %939, i64 0
  %961 = shufflevector <2 x float> %960, <2 x float> poison, <2 x i32> zeroinitializer
  %962 = fmul <2 x float> %961, %952
  %963 = insertelement <2 x float> poison, float %938, i64 0
  %964 = shufflevector <2 x float> %963, <2 x float> poison, <2 x i32> zeroinitializer
  %965 = call <2 x float> @llvm.fmuladd.v2f32(<2 x float> %954, <2 x float> %964, <2 x float> %962)
  %966 = insertelement <2 x float> poison, float %940, i64 0
  %967 = shufflevector <2 x float> %966, <2 x float> poison, <2 x i32> zeroinitializer
  %968 = call <2 x float> @llvm.fmuladd.v2f32(<2 x float> %957, <2 x float> %967, <2 x float> %965)
  %969 = fadd <2 x float> %756, %968
  %970 = fadd float %733, %943
  %971 = insertelement <2 x float> <float poison, float 0.000000e+00>, float %970, i64 0
  store <2 x float> %969, ptr %36, align 8
  %972 = getelementptr inbounds { <2 x float>, <2 x float> }, ptr %36, i64 0, i32 1
  store <2 x float> %971, ptr %972, align 8
  %973 = load ptr, ptr %928, align 8, !tbaa !19
  %974 = getelementptr inbounds ptr, ptr %973, i64 5
  %975 = load ptr, ptr %974, align 8
  call void %975(ptr noundef nonnull align 8 dereferenceable(8) %928, ptr noundef nonnull align 4 dereferenceable(16) %35, ptr noundef nonnull align 4 dereferenceable(16) %36, ptr noundef nonnull align 4 dereferenceable(16) %3)
  call void @llvm.lifetime.end.p0(i64 16, ptr nonnull %36) #21
  call void @llvm.lifetime.end.p0(i64 16, ptr nonnull %35) #21
  call void @llvm.lifetime.end.p0(i64 16, ptr nonnull %28) #21
  call void @llvm.lifetime.end.p0(i64 16, ptr nonnull %27) #21
  call void @llvm.lifetime.end.p0(i64 16, ptr nonnull %26) #21
  br label %1476

976:                                              ; preds = %4
  %977 = getelementptr inbounds %class.btCylinderShape, ptr %2, i64 0, i32 1
  %978 = load i32, ptr %977, align 8, !tbaa !175
  %979 = load ptr, ptr %2, align 8, !tbaa !19
  %980 = getelementptr inbounds ptr, ptr %979, i64 18
  %981 = load ptr, ptr %980, align 8
  %982 = call noundef float %981(ptr noundef nonnull align 8 dereferenceable(68) %2)
  call void @llvm.lifetime.start.p0(i64 16, ptr nonnull %37) #21
  %983 = getelementptr inbounds %class.btConvexInternalShape, ptr %2, i64 0, i32 2
  %984 = load <2 x float>, ptr %983, align 8, !tbaa.struct !74
  %985 = getelementptr inbounds %class.btConvexInternalShape, ptr %2, i64 0, i32 2, i32 0, i64 2
  %986 = load <2 x float>, ptr %985, align 8, !tbaa.struct !81
  %987 = load ptr, ptr %2, align 8, !tbaa !19
  %988 = getelementptr inbounds ptr, ptr %987, i64 11
  %989 = load ptr, ptr %988, align 8
  %990 = call noundef float %989(ptr noundef nonnull align 8 dereferenceable(64) %2)
  %991 = load ptr, ptr %2, align 8, !tbaa !19
  %992 = getelementptr inbounds ptr, ptr %991, i64 11
  %993 = load ptr, ptr %992, align 8
  %994 = call noundef float %993(ptr noundef nonnull align 8 dereferenceable(64) %2)
  %995 = load ptr, ptr %2, align 8, !tbaa !19
  %996 = getelementptr inbounds ptr, ptr %995, i64 11
  %997 = load ptr, ptr %996, align 8
  %998 = call noundef float %997(ptr noundef nonnull align 8 dereferenceable(64) %2)
