; ModuleID = '/usr/local/google/home/aeubanks/repos/test-suite/MultiSource/Benchmarks/7zip/CPP/7zip/Archive/Zip/ZipHandlerOut.cpp'
source_filename = "/usr/local/google/home/aeubanks/repos/test-suite/MultiSource/Benchmarks/7zip/CPP/7zip/Archive/Zip/ZipHandlerOut.cpp"
target datalayout = "e-m:e-p270:32:32-p271:32:32-p272:64:64-i64:64-f80:128-n8:16:32:64-S128"
target triple = "x86_64-unknown-linux-gnu"

%struct.GUID = type { i32, i16, i16, [8 x i8] }
%"class.NWindows::NCOM::CPropVariant" = type { %struct.tagPROPVARIANT }
%struct.tagPROPVARIANT = type { i16, i16, i16, i16, %union.anon }
%union.anon = type { %struct.LARGE_INTEGER }
%struct.LARGE_INTEGER = type { i64 }
%class.CObjectVector.1 = type { %class.CRecordVector }
%class.CRecordVector = type { %class.CBaseRecordVector }
%class.CBaseRecordVector = type { ptr, i32, i32, ptr, i64 }
%"struct.NArchive::NZip::CUpdateItem" = type { i8, i8, i8, i8, i8, i32, i32, i32, i32, i64, %class.CStringBase, %struct._FILETIME, %struct._FILETIME, %struct._FILETIME }
%class.CStringBase = type { ptr, i32, i32 }
%struct._FILETIME = type { i32, i32 }
%class.CStringBase.3 = type { ptr, i32, i32 }
%class.CMyComPtr.4 = type { ptr }
%"struct.NArchive::NZip::CCompressionMethodMode" = type <{ %class.CRecordVector.6, %class.CStringBase.3, i32, i32, i32, i8, [3 x i8], i32, i32, i32, i32, i32, i8, [3 x i8], %class.CStringBase, i8, i8, [6 x i8] }>
%class.CRecordVector.6 = type { %class.CBaseRecordVector }
%class.CMyComBSTR = type { ptr }
%"class.NArchive::NZip::CHandler" = type { %struct.IInArchive, %struct.IOutArchive, %struct.ISetProperties, %class.CMyUnknownImp, %class.CObjectVector, %"class.NArchive::NZip::CInArchive", i32, i32, i32, i32, i32, i32, i32, i32, i32, i8, i8, i8, i8, i8, i8, i8, i32 }
%struct.IInArchive = type { %struct.IUnknown }
%struct.IUnknown = type { ptr }
%struct.IOutArchive = type { %struct.IUnknown }
%struct.ISetProperties = type { %struct.IUnknown }
%class.CMyUnknownImp = type { i32 }
%class.CObjectVector = type { %class.CRecordVector }
%"class.NArchive::NZip::CInArchive" = type <{ %class.CMyComPtr, i32, [4 x i8], i64, i64, i8, [7 x i8], %class.CInBuffer, %"class.NArchive::NZip::CInArchiveInfo", i8, i8, [6 x i8] }>
%class.CMyComPtr = type { ptr }
%class.CInBuffer = type <{ ptr, ptr, ptr, %class.CMyComPtr.0, i64, i32, i8, [3 x i8] }>
%class.CMyComPtr.0 = type { ptr }
%"class.NArchive::NZip::CInArchiveInfo" = type { i64, i64, i64, %class.CBuffer }
%class.CBuffer = type { ptr, i64, ptr }
%"class.NArchive::NZip::CLocalItem" = type { %"struct.NArchive::NZip::CVersion", i16, i16, i32, i32, i64, i64, %class.CStringBase, %"struct.NArchive::NZip::CExtraBlock" }
%"struct.NArchive::NZip::CVersion" = type { i8, i8 }
%"struct.NArchive::NZip::CExtraBlock" = type { %class.CObjectVector.2 }
%class.CObjectVector.2 = type { %class.CRecordVector }

$_ZN11CStringBaseIwEaSERKS0_ = comdat any

$_ZN11CStringBaseIwEpLEw = comdat any

$_ZN11CStringBaseIcEaSERKS0_ = comdat any

$_ZN8NArchive4NZip22CCompressionMethodModeD2Ev = comdat any

$_ZN13CObjectVectorIN8NArchive4NZip11CUpdateItemEED2Ev = comdat any

$__clang_call_terminate = comdat any

$_ZN13CRecordVectorIhED0Ev = comdat any

$_ZN13CObjectVectorIN8NArchive4NZip11CUpdateItemEED0Ev = comdat any

$_ZN13CObjectVectorIN8NArchive4NZip11CUpdateItemEE6DeleteEii = comdat any

$_ZNK11CStringBaseIwE3MidEii = comdat any

$_ZTS16CSystemException = comdat any

$_ZTI16CSystemException = comdat any

$_ZTV13CRecordVectorIhE = comdat any

$_ZTS13CRecordVectorIhE = comdat any

$_ZTI13CRecordVectorIhE = comdat any

$_ZTV13CObjectVectorIN8NArchive4NZip11CUpdateItemEE = comdat any

$_ZTS13CObjectVectorIN8NArchive4NZip11CUpdateItemEE = comdat any

$_ZTS13CRecordVectorIPvE = comdat any

$_ZTI13CRecordVectorIPvE = comdat any

$_ZTI13CObjectVectorIN8NArchive4NZip11CUpdateItemEE = comdat any

@_ZTVN10__cxxabiv117__class_type_infoE = external global ptr
@_ZTS16CSystemException = linkonce_odr dso_local constant [19 x i8] c"16CSystemException\00", comdat, align 1
@_ZTI16CSystemException = linkonce_odr dso_local constant { ptr, ptr } { ptr getelementptr inbounds (ptr, ptr @_ZTVN10__cxxabiv117__class_type_infoE, i64 2), ptr @_ZTS16CSystemException }, comdat, align 8
@IID_ICryptoGetTextPassword2 = external global %struct.GUID, align 4
@.str = private unnamed_addr constant [2 x i32] [i32 77, i32 0], align 4
@.str.1 = private unnamed_addr constant [5 x i32] [i32 67, i32 79, i32 80, i32 89, i32 0], align 4
@.str.2 = private unnamed_addr constant [8 x i32] [i32 68, i32 69, i32 70, i32 76, i32 65, i32 84, i32 69, i32 0], align 4
@.str.3 = private unnamed_addr constant [10 x i32] [i32 68, i32 69, i32 70, i32 76, i32 65, i32 84, i32 69, i32 54, i32 52, i32 0], align 4
@.str.4 = private unnamed_addr constant [6 x i32] [i32 66, i32 90, i32 73, i32 80, i32 50, i32 0], align 4
@.str.5 = private unnamed_addr constant [5 x i32] [i32 76, i32 90, i32 77, i32 65, i32 0], align 4
@.str.6 = private unnamed_addr constant [5 x i32] [i32 80, i32 80, i32 77, i32 68, i32 0], align 4
@.str.7 = private unnamed_addr constant [3 x i32] [i32 69, i32 77, i32 0], align 4
@.str.8 = private unnamed_addr constant [4 x i32] [i32 65, i32 69, i32 83, i32 0], align 4
@.str.9 = private unnamed_addr constant [4 x i32] [i32 49, i32 50, i32 56, i32 0], align 4
@.str.10 = private unnamed_addr constant [4 x i32] [i32 49, i32 57, i32 50, i32 0], align 4
@.str.11 = private unnamed_addr constant [4 x i32] [i32 50, i32 53, i32 54, i32 0], align 4
@.str.12 = private unnamed_addr constant [10 x i32] [i32 90, i32 73, i32 80, i32 67, i32 82, i32 89, i32 80, i32 84, i32 79, i32 0], align 4
@.str.13 = private unnamed_addr constant [4 x i32] [i32 77, i32 69, i32 77, i32 0], align 4
@.str.14 = private unnamed_addr constant [5 x i32] [i32 80, i32 65, i32 83, i32 83, i32 0], align 4
@.str.15 = private unnamed_addr constant [3 x i32] [i32 70, i32 66, i32 0], align 4
@.str.16 = private unnamed_addr constant [3 x i32] [i32 77, i32 67, i32 0], align 4
@.str.17 = private unnamed_addr constant [3 x i32] [i32 77, i32 84, i32 0], align 4
@.str.18 = private unnamed_addr constant [2 x i32] [i32 65, i32 0], align 4
@.str.19 = private unnamed_addr constant [3 x i32] [i32 84, i32 67, i32 0], align 4
@.str.20 = private unnamed_addr constant [3 x i32] [i32 67, i32 76, i32 0], align 4
@.str.21 = private unnamed_addr constant [3 x i32] [i32 67, i32 85, i32 0], align 4
@_ZTV13CRecordVectorIhE = linkonce_odr dso_local unnamed_addr constant { [5 x ptr] } { [5 x ptr] [ptr null, ptr @_ZTI13CRecordVectorIhE, ptr @_ZN17CBaseRecordVectorD2Ev, ptr @_ZN13CRecordVectorIhED0Ev, ptr @_ZN17CBaseRecordVector6DeleteEii] }, comdat, align 8
@_ZTVN10__cxxabiv120__si_class_type_infoE = external global ptr
@_ZTS13CRecordVectorIhE = linkonce_odr dso_local constant [19 x i8] c"13CRecordVectorIhE\00", comdat, align 1
@_ZTI17CBaseRecordVector = external constant ptr
@_ZTI13CRecordVectorIhE = linkonce_odr dso_local constant { ptr, ptr, ptr } { ptr getelementptr inbounds (ptr, ptr @_ZTVN10__cxxabiv120__si_class_type_infoE, i64 2), ptr @_ZTS13CRecordVectorIhE, ptr @_ZTI17CBaseRecordVector }, comdat, align 8
@.str.22 = private unnamed_addr constant [4 x i32] [i32 66, i32 84, i32 52, i32 0], align 4
@.str.23 = private unnamed_addr constant [4 x i32] [i32 72, i32 67, i32 52, i32 0], align 4
@_ZTV13CObjectVectorIN8NArchive4NZip11CUpdateItemEE = linkonce_odr dso_local unnamed_addr constant { [5 x ptr] } { [5 x ptr] [ptr null, ptr @_ZTI13CObjectVectorIN8NArchive4NZip11CUpdateItemEE, ptr @_ZN13CObjectVectorIN8NArchive4NZip11CUpdateItemEED2Ev, ptr @_ZN13CObjectVectorIN8NArchive4NZip11CUpdateItemEED0Ev, ptr @_ZN13CObjectVectorIN8NArchive4NZip11CUpdateItemEE6DeleteEii] }, comdat, align 8
@_ZTS13CObjectVectorIN8NArchive4NZip11CUpdateItemEE = linkonce_odr dso_local constant [47 x i8] c"13CObjectVectorIN8NArchive4NZip11CUpdateItemEE\00", comdat, align 1
@_ZTS13CRecordVectorIPvE = linkonce_odr dso_local constant [20 x i8] c"13CRecordVectorIPvE\00", comdat, align 1
@_ZTI13CRecordVectorIPvE = linkonce_odr dso_local constant { ptr, ptr, ptr } { ptr getelementptr inbounds (ptr, ptr @_ZTVN10__cxxabiv120__si_class_type_infoE, i64 2), ptr @_ZTS13CRecordVectorIPvE, ptr @_ZTI17CBaseRecordVector }, comdat, align 8
@_ZTI13CObjectVectorIN8NArchive4NZip11CUpdateItemEE = linkonce_odr dso_local constant { ptr, ptr, ptr } { ptr getelementptr inbounds (ptr, ptr @_ZTVN10__cxxabiv120__si_class_type_infoE, i64 2), ptr @_ZTS13CObjectVectorIN8NArchive4NZip11CUpdateItemEE, ptr @_ZTI13CRecordVectorIPvE }, comdat, align 8

; Function Attrs: mustprogress nofree norecurse nosync nounwind willreturn memory(argmem: write) uwtable
define dso_local noundef i32 @_ZN8NArchive4NZip8CHandler15GetFileTimeTypeEPj(ptr nocapture noundef nonnull readnone align 8 dereferenceable(256) %this, ptr nocapture noundef writeonly %timeType) unnamed_addr #0 align 2 {
entry:
  store i32 2, ptr %timeType, align 4, !tbaa !5
  ret i32 0
}

; Function Attrs: mustprogress nofree norecurse nosync nounwind willreturn memory(argmem: write) uwtable
define dso_local noundef i32 @_ZThn8_N8NArchive4NZip8CHandler15GetFileTimeTypeEPj(ptr nocapture noundef readnone %this, ptr nocapture noundef writeonly %timeType) unnamed_addr #0 align 2 {
entry:
  store i32 2, ptr %timeType, align 4, !tbaa !5
  ret i32 0
}

; Function Attrs: uwtable
define dso_local noundef i32 @_ZN8NArchive4NZip8CHandler11UpdateItemsEP20ISequentialOutStreamjP22IArchiveUpdateCallback(ptr noundef nonnull align 8 dereferenceable(256) %this, ptr noundef %outStream, i32 noundef %numItems, ptr noundef %callback) unnamed_addr #1 align 2 personality ptr @__gxx_personality_v0 {
entry:
  %prop.i = alloca %"class.NWindows::NCOM::CPropVariant", align 8
  %updateItems = alloca %class.CObjectVector.1, align 8
  %ui = alloca %"struct.NArchive::NZip::CUpdateItem", align 8
  %newData = alloca i32, align 4
  %newProperties = alloca i32, align 4
  %indexInArchive = alloca i32, align 4
  %name = alloca %class.CStringBase.3, align 8
  %prop = alloca %"class.NWindows::NCOM::CPropVariant", align 8
  %prop61 = alloca %"class.NWindows::NCOM::CPropVariant", align 8
  %prop99 = alloca %"class.NWindows::NCOM::CPropVariant", align 8
  %prop137 = alloca %"class.NWindows::NCOM::CPropVariant", align 8
  %localFileTime = alloca %struct._FILETIME, align 8
  %ref.tmp = alloca %class.CStringBase.3, align 8
  %ref.tmp257 = alloca %class.CStringBase, align 8
  %prop321 = alloca %"class.NWindows::NCOM::CPropVariant", align 8
  %getTextPassword = alloca %class.CMyComPtr.4, align 8
  %options = alloca %"struct.NArchive::NZip::CCompressionMethodMode", align 8
  %password = alloca %class.CMyComBSTR, align 8
  %passwordIsDefined = alloca i32, align 4
  %ref.tmp445 = alloca %class.CStringBase, align 8
  %ref.tmp446 = alloca %class.CStringBase.3, align 8
  call void @llvm.lifetime.start.p0(i64 32, ptr nonnull %updateItems) #16
  %_capacity.i.i.i = getelementptr inbounds %class.CBaseRecordVector, ptr %updateItems, i64 0, i32 1
  %_itemSize.i.i.i = getelementptr inbounds %class.CBaseRecordVector, ptr %updateItems, i64 0, i32 4
  call void @llvm.memset.p0.i64(ptr noundef nonnull align 8 dereferenceable(16) %_capacity.i.i.i, i8 0, i64 16, i1 false)
  store i64 8, ptr %_itemSize.i.i.i, align 8, !tbaa !9
  store ptr getelementptr inbounds ({ [5 x ptr] }, ptr @_ZTV13CObjectVectorIN8NArchive4NZip11CUpdateItemEE, i64 0, inrange i32 0, i64 2), ptr %updateItems, align 8, !tbaa !13
  %cmp.not1236.not = icmp eq i32 %numItems, 0
  br i1 %cmp.not1236.not, label %for.end374, label %for.body.lr.ph

for.body.lr.ph:                                   ; preds = %entry
  %NtfsTimeIsDefined.i = getelementptr inbounds %"struct.NArchive::NZip::CUpdateItem", ptr %ui, i64 0, i32 3
  %IsUtf8.i = getelementptr inbounds %"struct.NArchive::NZip::CUpdateItem", ptr %ui, i64 0, i32 4
  %Size.i = getelementptr inbounds %"struct.NArchive::NZip::CUpdateItem", ptr %ui, i64 0, i32 9
  %Name.i = getelementptr inbounds %"struct.NArchive::NZip::CUpdateItem", ptr %ui, i64 0, i32 10
  %_capacity.i.i = getelementptr inbounds %"struct.NArchive::NZip::CUpdateItem", ptr %ui, i64 0, i32 10, i32 2
  %tobool.not = icmp eq ptr %callback, null
  %NewProperties = getelementptr inbounds %"struct.NArchive::NZip::CUpdateItem", ptr %ui, i64 0, i32 1
  %IndexInArchive = getelementptr inbounds %"struct.NArchive::NZip::CUpdateItem", ptr %ui, i64 0, i32 5
  %IndexInClient = getelementptr inbounds %"struct.NArchive::NZip::CUpdateItem", ptr %ui, i64 0, i32 6
  %_items.i.i = getelementptr inbounds %"class.NArchive::NZip::CHandler", ptr %this, i64 0, i32 4, i32 0, i32 0, i32 3
  %_capacity.i = getelementptr inbounds %class.CStringBase.3, ptr %name, i64 0, i32 2
  %wReserved1.i = getelementptr inbounds %struct.tagPROPVARIANT, ptr %prop, i64 0, i32 1
  %0 = getelementptr inbounds %struct.tagPROPVARIANT, ptr %prop, i64 0, i32 4
  %Attributes54 = getelementptr inbounds %"struct.NArchive::NZip::CUpdateItem", ptr %ui, i64 0, i32 7
  %wReserved1.i840 = getelementptr inbounds %struct.tagPROPVARIANT, ptr %prop61, i64 0, i32 1
  %1 = getelementptr inbounds %struct.tagPROPVARIANT, ptr %prop61, i64 0, i32 4
  %_length.i.i = getelementptr inbounds %class.CStringBase.3, ptr %name, i64 0, i32 1
  %wReserved1.i847 = getelementptr inbounds %struct.tagPROPVARIANT, ptr %prop99, i64 0, i32 1
  %2 = getelementptr inbounds %struct.tagPROPVARIANT, ptr %prop99, i64 0, i32 4
  %IsDir127 = getelementptr inbounds %"struct.NArchive::NZip::CUpdateItem", ptr %ui, i64 0, i32 2
  %wReserved1.i857 = getelementptr inbounds %struct.tagPROPVARIANT, ptr %prop137, i64 0, i32 1
  %m_WriteNtfsTimeExtra = getelementptr inbounds %"class.NArchive::NZip::CHandler", ptr %this, i64 0, i32 19
  %3 = getelementptr inbounds %struct.tagPROPVARIANT, ptr %prop137, i64 0, i32 4
  %NtfsMTime = getelementptr inbounds %"struct.NArchive::NZip::CUpdateItem", ptr %ui, i64 0, i32 11
  %dwHighDateTime.i = getelementptr inbounds %"struct.NArchive::NZip::CUpdateItem", ptr %ui, i64 0, i32 11, i32 1
  %wReserved1.i.i = getelementptr inbounds %struct.tagPROPVARIANT, ptr %prop.i, i64 0, i32 1
  %4 = getelementptr inbounds %struct.tagPROPVARIANT, ptr %prop.i, i64 0, i32 4
  %NtfsATime = getelementptr inbounds %"struct.NArchive::NZip::CUpdateItem", ptr %ui, i64 0, i32 12
  %NtfsCTime = getelementptr inbounds %"struct.NArchive::NZip::CUpdateItem", ptr %ui, i64 0, i32 13
  %Time = getelementptr inbounds %"struct.NArchive::NZip::CUpdateItem", ptr %ui, i64 0, i32 8
  %m_ForceLocal = getelementptr inbounds %"class.NArchive::NZip::CHandler", ptr %this, i64 0, i32 20
  %m_ForceUtf8 = getelementptr inbounds %"class.NArchive::NZip::CHandler", ptr %this, i64 0, i32 21
  %_length.i878 = getelementptr inbounds %"struct.NArchive::NZip::CUpdateItem", ptr %ui, i64 0, i32 10, i32 1
  %wReserved1.i890 = getelementptr inbounds %struct.tagPROPVARIANT, ptr %prop321, i64 0, i32 1
  %5 = getelementptr inbounds %struct.tagPROPVARIANT, ptr %prop321, i64 0, i32 4
  %_items.i.i901 = getelementptr inbounds %class.CBaseRecordVector, ptr %updateItems, i64 0, i32 3
  %_size.i.i = getelementptr inbounds %class.CBaseRecordVector, ptr %updateItems, i64 0, i32 2
  %6 = getelementptr inbounds i8, ptr %name, i64 8
  br label %for.body

for.cond:                                         ; preds = %_ZN8NArchive4NZip11CUpdateItemD2Ev.exit
  %inc370 = add nuw i32 %i.01238, 1
  %cmp.not = icmp ult i32 %inc370, %numItems
  %exitcond1282.not = icmp eq i32 %inc370, %numItems
  br i1 %exitcond1282.not, label %for.end374, label %for.body, !llvm.loop !15

for.body:                                         ; preds = %for.body.lr.ph, %for.cond
  %cmp.not1243 = phi i1 [ true, %for.body.lr.ph ], [ %cmp.not, %for.cond ]
  %retval.01242 = phi i32 [ undef, %for.body.lr.ph ], [ %retval.23, %for.cond ]
  %thereAreAesUpdates.01241 = phi i8 [ 0, %for.body.lr.ph ], [ %thereAreAesUpdates.2, %for.cond ]
  %i.01238 = phi i32 [ 0, %for.body.lr.ph ], [ %inc370, %for.cond ]
  %size.01237 = phi i64 [ undef, %for.body.lr.ph ], [ %size.4, %for.cond ]
  call void @llvm.lifetime.start.p0(i64 72, ptr nonnull %ui) #16
  store i8 0, ptr %NtfsTimeIsDefined.i, align 1, !tbaa !17
  store i8 0, ptr %IsUtf8.i, align 4, !tbaa !23
  call void @llvm.memset.p0.i64(ptr noundef nonnull align 8 dereferenceable(24) %Size.i, i8 0, i64 24, i1 false)
  %call.i.i.i832 = invoke noalias noundef nonnull dereferenceable(4) ptr @_Znam(i64 noundef 4) #17
          to label %invoke.cont3 unwind label %lpad2

invoke.cont3:                                     ; preds = %for.body
  store ptr %call.i.i.i832, ptr %Name.i, align 8, !tbaa !24
  store i8 0, ptr %call.i.i.i832, align 1, !tbaa !25
  store i32 4, ptr %_capacity.i.i, align 4, !tbaa !26
  call void @llvm.lifetime.start.p0(i64 4, ptr nonnull %newData) #16
  call void @llvm.lifetime.start.p0(i64 4, ptr nonnull %newProperties) #16
  call void @llvm.lifetime.start.p0(i64 4, ptr nonnull %indexInArchive) #16
  br i1 %tobool.not, label %cleanup357, label %if.end

lpad2:                                            ; preds = %for.body
  %7 = landingpad { ptr, i32 }
          catch ptr @_ZTI16CSystemException
          catch ptr null
  br label %ehcleanup368

if.end:                                           ; preds = %invoke.cont3
  %vtable = load ptr, ptr %callback, align 8, !tbaa !13
  %vfn = getelementptr inbounds ptr, ptr %vtable, i64 7
  %8 = load ptr, ptr %vfn, align 8
  %call = invoke noundef i32 %8(ptr noundef nonnull align 8 dereferenceable(8) %callback, i32 noundef %i.01238, ptr noundef nonnull %newData, ptr noundef nonnull %newProperties, ptr noundef nonnull %indexInArchive)
          to label %invoke.cont5 unwind label %lpad4

invoke.cont5:                                     ; preds = %if.end
  %cmp6.not = icmp eq i32 %call, 0
  br i1 %cmp6.not, label %cleanup.cont, label %cleanup357

lpad4:                                            ; preds = %if.end
  %9 = landingpad { ptr, i32 }
          catch ptr @_ZTI16CSystemException
          catch ptr null
  br label %ehcleanup358

cleanup.cont:                                     ; preds = %invoke.cont5
  %10 = load i32, ptr %newProperties, align 4, !tbaa !5
  %cmp.i = icmp ne i32 %10, 0
  %frombool = zext i1 %cmp.i to i8
  store i8 %frombool, ptr %NewProperties, align 1, !tbaa !27
  %11 = load i32, ptr %newData, align 4
  %cmp.i833 = icmp ne i32 %11, 0
  %frombool14 = zext i1 %cmp.i833 to i8
  store i8 %frombool14, ptr %ui, align 8, !tbaa !28
  %12 = load i32, ptr %indexInArchive, align 4, !tbaa !5
  store i32 %12, ptr %IndexInArchive, align 8, !tbaa !29
  store i32 %i.01238, ptr %IndexInClient, align 4, !tbaa !30
  %cmp15 = icmp ne i32 %12, -1
  %or.cond = select i1 %cmp15, i1 %cmp.i833, i1 false
  br i1 %or.cond, label %invoke.cont21, label %if.end27

invoke.cont21:                                    ; preds = %cleanup.cont
  %13 = load ptr, ptr %_items.i.i, align 8, !tbaa !31
  %idxprom.i.i = sext i32 %12 to i64
  %arrayidx.i.i = getelementptr inbounds ptr, ptr %13, i64 %idxprom.i.i
  %14 = load ptr, ptr %arrayidx.i.i, align 8, !tbaa !32
  %Flags.i.i = getelementptr inbounds %"class.NArchive::NZip::CLocalItem", ptr %14, i64 0, i32 1
  %15 = load i16, ptr %Flags.i.i, align 2
  %16 = and i16 %15, 1
  %cmp.i.not.i = icmp eq i16 %16, 0
  br i1 %cmp.i.not.i, label %if.end27, label %land.rhs.i

land.rhs.i:                                       ; preds = %invoke.cont21
  %17 = and i16 %15, 65
  %18 = icmp eq i16 %17, 65
  br i1 %18, label %invoke.cont23.thread, label %invoke.cont23

invoke.cont23:                                    ; preds = %land.rhs.i
  %CompressionMethod.i = getelementptr inbounds %"class.NArchive::NZip::CLocalItem", ptr %14, i64 0, i32 2
  %19 = load i16, ptr %CompressionMethod.i, align 4, !tbaa !33
  %.fr = freeze i16 %19
  %cmp.i834 = icmp eq i16 %.fr, 99
  br i1 %cmp.i834, label %invoke.cont23.thread, label %if.end27

invoke.cont23.thread:                             ; preds = %land.rhs.i, %invoke.cont23
  br label %if.end27

lpad20:                                           ; preds = %invoke.cont.i904, %if.end352
  %20 = landingpad { ptr, i32 }
          catch ptr @_ZTI16CSystemException
          catch ptr null
  br label %ehcleanup358

if.end27:                                         ; preds = %invoke.cont21, %invoke.cont23.thread, %invoke.cont23, %cleanup.cont
  %thereAreAesUpdates.1 = phi i8 [ %thereAreAesUpdates.01241, %cleanup.cont ], [ 1, %invoke.cont23.thread ], [ %thereAreAesUpdates.01241, %invoke.cont23 ], [ %thereAreAesUpdates.01241, %invoke.cont21 ]
  br i1 %cmp.i, label %if.then30, label %if.end317

if.then30:                                        ; preds = %if.end27
  call void @llvm.lifetime.start.p0(i64 16, ptr nonnull %name) #16
  store i64 0, ptr %6, align 8
  %call.i.i836 = invoke noalias noundef nonnull dereferenceable(16) ptr @_Znam(i64 noundef 16) #17
          to label %invoke.cont32 unwind label %lpad31

invoke.cont32:                                    ; preds = %if.then30
  store ptr %call.i.i836, ptr %name, align 8, !tbaa !40
  store i32 0, ptr %call.i.i836, align 4, !tbaa !42
  store i32 4, ptr %_capacity.i, align 4, !tbaa !44
  call void @llvm.lifetime.start.p0(i64 16, ptr nonnull %prop) #16
  store i16 0, ptr %prop, align 8, !tbaa !45
  store i16 0, ptr %wReserved1.i, align 2, !tbaa !47
  %vtable36 = load ptr, ptr %callback, align 8, !tbaa !13
  %vfn37 = getelementptr inbounds ptr, ptr %vtable36, i64 8
  %21 = load ptr, ptr %vfn37, align 8
  %call40 = invoke noundef i32 %21(ptr noundef nonnull align 8 dereferenceable(8) %callback, i32 noundef %i.01238, i32 noundef 9, ptr noundef nonnull %prop)
          to label %invoke.cont39 unwind label %lpad38

invoke.cont39:                                    ; preds = %invoke.cont32
  %cmp41.not = icmp eq i32 %call40, 0
  br i1 %cmp41.not, label %cleanup.cont46, label %cleanup57

lpad31:                                           ; preds = %if.then30
  %22 = landingpad { ptr, i32 }
          catch ptr @_ZTI16CSystemException
          catch ptr null
  br label %ehcleanup316

lpad38:                                           ; preds = %invoke.cont32
  %23 = landingpad { ptr, i32 }
          catch ptr @_ZTI16CSystemException
          catch ptr null
  %call.i = invoke noundef i32 @_ZN8NWindows4NCOM12CPropVariant5ClearEv(ptr noundef nonnull align 8 dereferenceable(16) %prop)
          to label %_ZN8NWindows4NCOM12CPropVariantD2Ev.exit unwind label %terminate.lpad.i

terminate.lpad.i:                                 ; preds = %lpad38
  %24 = landingpad { ptr, i32 }
          catch ptr null
  %25 = extractvalue { ptr, i32 } %24, 0
  call void @__clang_call_terminate(ptr %25) #18
  unreachable

_ZN8NWindows4NCOM12CPropVariantD2Ev.exit:         ; preds = %lpad38
  call void @llvm.lifetime.end.p0(i64 16, ptr nonnull %prop) #16
  br label %ehcleanup312

cleanup.cont46:                                   ; preds = %invoke.cont39
  %26 = load i16, ptr %prop, align 8, !tbaa !45
  switch i16 %26, label %cleanup57 [
    i16 0, label %cleanup57.sink.split
    i16 19, label %if.else53
  ]

if.else53:                                        ; preds = %cleanup.cont46
  %27 = load i32, ptr %0, align 8, !tbaa !25
  br label %cleanup57.sink.split

cleanup57.sink.split:                             ; preds = %cleanup.cont46, %if.else53
  %.sink = phi i32 [ %27, %if.else53 ], [ 0, %cleanup.cont46 ]
  store i32 %.sink, ptr %Attributes54, align 8, !tbaa !48
  br label %cleanup57

cleanup57:                                        ; preds = %cleanup57.sink.split, %cleanup.cont46, %invoke.cont39
  %cond697 = phi i1 [ false, %invoke.cont39 ], [ false, %cleanup.cont46 ], [ true, %cleanup57.sink.split ]
  %retval.3 = phi i32 [ %call40, %invoke.cont39 ], [ -2147024809, %cleanup.cont46 ], [ %retval.01242, %cleanup57.sink.split ]
  %call.i837 = invoke noundef i32 @_ZN8NWindows4NCOM12CPropVariant5ClearEv(ptr noundef nonnull align 8 dereferenceable(16) %prop)
          to label %_ZN8NWindows4NCOM12CPropVariantD2Ev.exit839 unwind label %terminate.lpad.i838

terminate.lpad.i838:                              ; preds = %cleanup57
  %28 = landingpad { ptr, i32 }
          catch ptr null
  %29 = extractvalue { ptr, i32 } %28, 0
  call void @__clang_call_terminate(ptr %29) #18
  unreachable

_ZN8NWindows4NCOM12CPropVariantD2Ev.exit839:      ; preds = %cleanup57
  call void @llvm.lifetime.end.p0(i64 16, ptr nonnull %prop) #16
  br i1 %cond697, label %cleanup.cont60, label %cleanup311

cleanup.cont60:                                   ; preds = %_ZN8NWindows4NCOM12CPropVariantD2Ev.exit839
  call void @llvm.lifetime.start.p0(i64 16, ptr nonnull %prop61) #16
  store i16 0, ptr %prop61, align 8, !tbaa !45
  store i16 0, ptr %wReserved1.i840, align 2, !tbaa !47
  %vtable65 = load ptr, ptr %callback, align 8, !tbaa !13
  %vfn66 = getelementptr inbounds ptr, ptr %vtable65, i64 8
  %30 = load ptr, ptr %vfn66, align 8
  %call69 = invoke noundef i32 %30(ptr noundef nonnull align 8 dereferenceable(8) %callback, i32 noundef %i.01238, i32 noundef 3, ptr noundef nonnull %prop61)
          to label %invoke.cont68 unwind label %lpad67

invoke.cont68:                                    ; preds = %cleanup.cont60
  %cmp70.not = icmp eq i32 %call69, 0
  %retval.3.call69 = select i1 %cmp70.not, i32 %retval.3, i32 %call69
  br i1 %cmp70.not, label %cleanup.cont75, label %cleanup93

lpad67:                                           ; preds = %cleanup.cont60
  %31 = landingpad { ptr, i32 }
          catch ptr @_ZTI16CSystemException
          catch ptr null
  br label %ehcleanup94

cleanup.cont75:                                   ; preds = %invoke.cont68
  %32 = load i16, ptr %prop61, align 8, !tbaa !45
  switch i16 %32, label %cleanup93 [
    i16 0, label %if.then80
    i16 8, label %if.else88
  ]

if.then80:                                        ; preds = %cleanup.cont75
  store i32 0, ptr %_length.i.i, align 8, !tbaa !49
  %33 = load ptr, ptr %name, align 8, !tbaa !40
  store i32 0, ptr %33, align 4, !tbaa !42
  br label %cleanup93

lpad81:                                           ; preds = %if.end.i.i
  %34 = landingpad { ptr, i32 }
          catch ptr @_ZTI16CSystemException
          catch ptr null
  br label %ehcleanup94

if.else88:                                        ; preds = %cleanup.cont75
  %35 = load ptr, ptr %1, align 8, !tbaa !25
  store i32 0, ptr %_length.i.i, align 8, !tbaa !49
  %36 = load ptr, ptr %name, align 8, !tbaa !40
  store i32 0, ptr %36, align 4, !tbaa !42
  br label %for.cond.i.i

for.cond.i.i:                                     ; preds = %for.cond.i.i, %if.else88
  %indvars.iv.i.i = phi i64 [ %indvars.iv.next.i.i, %for.cond.i.i ], [ 0, %if.else88 ]
  %arrayidx.i.i841 = getelementptr inbounds i32, ptr %35, i64 %indvars.iv.i.i
  %37 = load i32, ptr %arrayidx.i.i841, align 4, !tbaa !42
  %cmp.not.i.i = icmp eq i32 %37, 0
  %indvars.iv.next.i.i = add nuw i64 %indvars.iv.i.i, 1
  br i1 %cmp.not.i.i, label %_Z11MyStringLenIwEiPKT_.exit.i, label %for.cond.i.i, !llvm.loop !50

_Z11MyStringLenIwEiPKT_.exit.i:                   ; preds = %for.cond.i.i
  %38 = trunc i64 %indvars.iv.i.i to i32
  %add.i.i = add nsw i32 %38, 1
  %39 = load i32, ptr %_capacity.i, align 4, !tbaa !44
  %cmp.i.i = icmp eq i32 %add.i.i, %39
  br i1 %cmp.i.i, label %while.cond.i.i.preheader, label %if.end.i.i

if.end.i.i:                                       ; preds = %_Z11MyStringLenIwEiPKT_.exit.i
  %conv.i.i = zext i32 %add.i.i to i64
  %40 = icmp slt i32 %38, -1
  %41 = shl nuw nsw i64 %conv.i.i, 2
  %42 = select i1 %40, i64 -1, i64 %41
  %call.i.i843 = invoke noalias noundef nonnull ptr @_Znam(i64 noundef %42) #17
          to label %call.i.i.noexc unwind label %lpad81

call.i.i.noexc:                                   ; preds = %if.end.i.i
  %cmp3.i.i = icmp sgt i32 %39, 0
  br i1 %cmp3.i.i, label %delete.notnull.i.i, label %if.end9.i.i

delete.notnull.i.i:                               ; preds = %call.i.i.noexc
  call void @_ZdaPv(ptr noundef nonnull %36) #19
  %.pre.i = load i32, ptr %_length.i.i, align 8, !tbaa !49
  %43 = sext i32 %.pre.i to i64
  br label %if.end9.i.i

if.end9.i.i:                                      ; preds = %delete.notnull.i.i, %call.i.i.noexc
  %idxprom13.i.i = phi i64 [ %43, %delete.notnull.i.i ], [ 0, %call.i.i.noexc ]
  store ptr %call.i.i843, ptr %name, align 8, !tbaa !40
  %arrayidx14.i.i = getelementptr inbounds i32, ptr %call.i.i843, i64 %idxprom13.i.i
  store i32 0, ptr %arrayidx14.i.i, align 4, !tbaa !42
  store i32 %add.i.i, ptr %_capacity.i, align 4, !tbaa !44
  br label %while.cond.i.i.preheader

while.cond.i.i.preheader:                         ; preds = %if.end9.i.i, %_Z11MyStringLenIwEiPKT_.exit.i
  %dest.addr.0.i.i.ph = phi ptr [ %36, %_Z11MyStringLenIwEiPKT_.exit.i ], [ %call.i.i843, %if.end9.i.i ]
  br label %while.cond.i.i

while.cond.i.i:                                   ; preds = %while.cond.i.i.preheader, %while.cond.i.i
  %src.addr.0.i.i = phi ptr [ %incdec.ptr.i.i, %while.cond.i.i ], [ %35, %while.cond.i.i.preheader ]
  %dest.addr.0.i.i = phi ptr [ %incdec.ptr1.i.i, %while.cond.i.i ], [ %dest.addr.0.i.i.ph, %while.cond.i.i.preheader ]
  %incdec.ptr.i.i = getelementptr inbounds i32, ptr %src.addr.0.i.i, i64 1
  %44 = load i32, ptr %src.addr.0.i.i, align 4, !tbaa !42
  %incdec.ptr1.i.i = getelementptr inbounds i32, ptr %dest.addr.0.i.i, i64 1
  store i32 %44, ptr %dest.addr.0.i.i, align 4, !tbaa !42
  %cmp.not.i9.i = icmp eq i32 %44, 0
  br i1 %cmp.not.i9.i, label %_ZN11CStringBaseIwEaSEPKw.exit, label %while.cond.i.i, !llvm.loop !51

_ZN11CStringBaseIwEaSEPKw.exit:                   ; preds = %while.cond.i.i
  store i32 %38, ptr %_length.i.i, align 8, !tbaa !49
  br label %cleanup93

cleanup93:                                        ; preds = %_ZN11CStringBaseIwEaSEPKw.exit, %if.then80, %cleanup.cont75, %invoke.cont68
  %cond700 = phi i1 [ false, %invoke.cont68 ], [ false, %cleanup.cont75 ], [ true, %_ZN11CStringBaseIwEaSEPKw.exit ], [ true, %if.then80 ]
  %retval.5 = phi i32 [ %call69, %invoke.cont68 ], [ -2147024809, %cleanup.cont75 ], [ %retval.3.call69, %_ZN11CStringBaseIwEaSEPKw.exit ], [ %retval.3, %if.then80 ]
  %call.i844 = invoke noundef i32 @_ZN8NWindows4NCOM12CPropVariant5ClearEv(ptr noundef nonnull align 8 dereferenceable(16) %prop61)
          to label %_ZN8NWindows4NCOM12CPropVariantD2Ev.exit846 unwind label %terminate.lpad.i845

terminate.lpad.i845:                              ; preds = %cleanup93
  %45 = landingpad { ptr, i32 }
          catch ptr null
  %46 = extractvalue { ptr, i32 } %45, 0
  call void @__clang_call_terminate(ptr %46) #18
  unreachable

_ZN8NWindows4NCOM12CPropVariantD2Ev.exit846:      ; preds = %cleanup93
  call void @llvm.lifetime.end.p0(i64 16, ptr nonnull %prop61) #16
  br i1 %cond700, label %cleanup.cont97, label %cleanup311

cleanup.cont97:                                   ; preds = %_ZN8NWindows4NCOM12CPropVariantD2Ev.exit846
  call void @llvm.lifetime.start.p0(i64 16, ptr nonnull %prop99) #16
  store i16 0, ptr %prop99, align 8, !tbaa !45
  store i16 0, ptr %wReserved1.i847, align 2, !tbaa !47
  %vtable103 = load ptr, ptr %callback, align 8, !tbaa !13
  %vfn104 = getelementptr inbounds ptr, ptr %vtable103, i64 8
  %47 = load ptr, ptr %vfn104, align 8
  %call107 = invoke noundef i32 %47(ptr noundef nonnull align 8 dereferenceable(8) %callback, i32 noundef %i.01238, i32 noundef 6, ptr noundef nonnull %prop99)
          to label %invoke.cont106 unwind label %lpad105

invoke.cont106:                                   ; preds = %cleanup.cont97
  %cmp108.not = icmp eq i32 %call107, 0
  br i1 %cmp108.not, label %cleanup.cont113, label %cleanup131

ehcleanup94:                                      ; preds = %lpad81, %lpad67
  %.pn813 = phi { ptr, i32 } [ %34, %lpad81 ], [ %31, %lpad67 ]
  %call.i848 = invoke noundef i32 @_ZN8NWindows4NCOM12CPropVariant5ClearEv(ptr noundef nonnull align 8 dereferenceable(16) %prop61)
          to label %_ZN8NWindows4NCOM12CPropVariantD2Ev.exit850 unwind label %terminate.lpad.i849

terminate.lpad.i849:                              ; preds = %ehcleanup94
  %48 = landingpad { ptr, i32 }
          catch ptr null
  %49 = extractvalue { ptr, i32 } %48, 0
  call void @__clang_call_terminate(ptr %49) #18
  unreachable

_ZN8NWindows4NCOM12CPropVariantD2Ev.exit850:      ; preds = %ehcleanup94
  call void @llvm.lifetime.end.p0(i64 16, ptr nonnull %prop61) #16
  br label %ehcleanup312

lpad105:                                          ; preds = %cleanup.cont97
  %50 = landingpad { ptr, i32 }
          catch ptr @_ZTI16CSystemException
          catch ptr null
  %call.i851 = invoke noundef i32 @_ZN8NWindows4NCOM12CPropVariant5ClearEv(ptr noundef nonnull align 8 dereferenceable(16) %prop99)
          to label %_ZN8NWindows4NCOM12CPropVariantD2Ev.exit853 unwind label %terminate.lpad.i852

terminate.lpad.i852:                              ; preds = %lpad105
  %51 = landingpad { ptr, i32 }
          catch ptr null
  %52 = extractvalue { ptr, i32 } %51, 0
  call void @__clang_call_terminate(ptr %52) #18
  unreachable

_ZN8NWindows4NCOM12CPropVariantD2Ev.exit853:      ; preds = %lpad105
  call void @llvm.lifetime.end.p0(i64 16, ptr nonnull %prop99) #16
  br label %ehcleanup312

cleanup.cont113:                                  ; preds = %invoke.cont106
  %53 = load i16, ptr %prop99, align 8, !tbaa !45
  switch i16 %53, label %cleanup131 [
    i16 0, label %cleanup131.sink.split
    i16 11, label %if.else124
  ]

if.else124:                                       ; preds = %cleanup.cont113
  %54 = load i16, ptr %2, align 8, !tbaa !25
  %cmp126 = icmp ne i16 %54, 0
  %frombool128 = zext i1 %cmp126 to i8
  br label %cleanup131.sink.split

cleanup131.sink.split:                            ; preds = %cleanup.cont113, %if.else124
  %.sink1324 = phi i8 [ %frombool128, %if.else124 ], [ 0, %cleanup.cont113 ]
  store i8 %.sink1324, ptr %IsDir127, align 2, !tbaa !52
  br label %cleanup131

cleanup131:                                       ; preds = %cleanup131.sink.split, %cleanup.cont113, %invoke.cont106
  %cond702 = phi i1 [ false, %invoke.cont106 ], [ false, %cleanup.cont113 ], [ true, %cleanup131.sink.split ]
  %retval.7 = phi i32 [ %call107, %invoke.cont106 ], [ -2147024809, %cleanup.cont113 ], [ %retval.5, %cleanup131.sink.split ]
  %call.i854 = invoke noundef i32 @_ZN8NWindows4NCOM12CPropVariant5ClearEv(ptr noundef nonnull align 8 dereferenceable(16) %prop99)
          to label %_ZN8NWindows4NCOM12CPropVariantD2Ev.exit856 unwind label %terminate.lpad.i855

terminate.lpad.i855:                              ; preds = %cleanup131
  %55 = landingpad { ptr, i32 }
          catch ptr null
  %56 = extractvalue { ptr, i32 } %55, 0
  call void @__clang_call_terminate(ptr %56) #18
  unreachable

_ZN8NWindows4NCOM12CPropVariantD2Ev.exit856:      ; preds = %cleanup131
  call void @llvm.lifetime.end.p0(i64 16, ptr nonnull %prop99) #16
  br i1 %cond702, label %cleanup.cont135, label %cleanup311

cleanup.cont135:                                  ; preds = %_ZN8NWindows4NCOM12CPropVariantD2Ev.exit856
  call void @llvm.lifetime.start.p0(i64 16, ptr nonnull %prop137) #16
  store i16 0, ptr %prop137, align 8, !tbaa !45
  store i16 0, ptr %wReserved1.i857, align 2, !tbaa !47
  %vtable141 = load ptr, ptr %callback, align 8, !tbaa !13
  %vfn142 = getelementptr inbounds ptr, ptr %vtable141, i64 8
  %57 = load ptr, ptr %vfn142, align 8
  %call145 = invoke noundef i32 %57(ptr noundef nonnull align 8 dereferenceable(8) %callback, i32 noundef %i.01238, i32 noundef 40, ptr noundef nonnull %prop137)
          to label %invoke.cont144 unwind label %lpad143

invoke.cont144:                                   ; preds = %cleanup.cont135
  %cmp146.not = icmp eq i32 %call145, 0
  %retval.7.call145 = select i1 %cmp146.not, i32 %retval.7, i32 %call145
  br i1 %cmp146.not, label %cleanup.cont151, label %cleanup311.critedge

lpad143:                                          ; preds = %cleanup.cont135
  %58 = landingpad { ptr, i32 }
          catch ptr @_ZTI16CSystemException
          catch ptr null
  %call.i858 = invoke noundef i32 @_ZN8NWindows4NCOM12CPropVariant5ClearEv(ptr noundef nonnull align 8 dereferenceable(16) %prop137)
          to label %_ZN8NWindows4NCOM12CPropVariantD2Ev.exit860 unwind label %terminate.lpad.i859

terminate.lpad.i859:                              ; preds = %lpad143
  %59 = landingpad { ptr, i32 }
          catch ptr null
  %60 = extractvalue { ptr, i32 } %59, 0
  call void @__clang_call_terminate(ptr %60) #18
  unreachable

_ZN8NWindows4NCOM12CPropVariantD2Ev.exit860:      ; preds = %lpad143
  call void @llvm.lifetime.end.p0(i64 16, ptr nonnull %prop137) #16
  br label %ehcleanup312

cleanup.cont151:                                  ; preds = %invoke.cont144
  %61 = load i16, ptr %prop137, align 8, !tbaa !45
  %cmp155 = icmp eq i16 %61, 19
  %62 = load i8, ptr %m_WriteNtfsTimeExtra, align 8, !range !53
  %63 = load i32, ptr %3, align 8
  %cmp157 = icmp eq i32 %63, 0
  %frombool158 = zext i1 %cmp157 to i8
  %storemerge = select i1 %cmp155, i8 %frombool158, i8 %62
  store i8 %storemerge, ptr %NtfsTimeIsDefined.i, align 1, !tbaa !17
  %call.i861 = invoke noundef i32 @_ZN8NWindows4NCOM12CPropVariant5ClearEv(ptr noundef nonnull align 8 dereferenceable(16) %prop137)
          to label %cleanup.cont168 unwind label %terminate.lpad.i862

terminate.lpad.i862:                              ; preds = %cleanup.cont151
  %64 = landingpad { ptr, i32 }
          catch ptr null
  %65 = extractvalue { ptr, i32 } %64, 0
  call void @__clang_call_terminate(ptr %65) #18
  unreachable

cleanup.cont168:                                  ; preds = %cleanup.cont151
  call void @llvm.lifetime.end.p0(i64 16, ptr nonnull %prop137) #16
  store i32 0, ptr %NtfsMTime, align 8, !tbaa !54
  store i32 0, ptr %dwHighDateTime.i, align 4, !tbaa !55
  call void @llvm.lifetime.start.p0(i64 16, ptr nonnull %prop.i) #16
  store i16 0, ptr %prop.i, align 8, !tbaa !45
  store i16 0, ptr %wReserved1.i.i, align 2, !tbaa !47
  %vtable.i = load ptr, ptr %callback, align 8, !tbaa !13
  %vfn.i = getelementptr inbounds ptr, ptr %vtable.i, i64 8
  %66 = load ptr, ptr %vfn.i, align 8
  %call.i864 = invoke noundef i32 %66(ptr noundef nonnull align 8 dereferenceable(8) %callback, i32 noundef %i.01238, i32 noundef 12, ptr noundef nonnull %prop.i)
          to label %invoke.cont.i unwind label %lpad.i

invoke.cont.i:                                    ; preds = %cleanup.cont168
  %cmp.not.i = icmp eq i32 %call.i864, 0
  br i1 %cmp.not.i, label %cleanup.cont.i, label %cleanup9.i

lpad.i:                                           ; preds = %cleanup.cont168
  %67 = landingpad { ptr, i32 }
          catch ptr @_ZTI16CSystemException
          catch ptr null
  %call.i.i = invoke noundef i32 @_ZN8NWindows4NCOM12CPropVariant5ClearEv(ptr noundef nonnull align 8 dereferenceable(16) %prop.i)
          to label %_ZN8NWindows4NCOM12CPropVariantD2Ev.exit.i unwind label %terminate.lpad.i.i

terminate.lpad.i.i:                               ; preds = %lpad.i
  %68 = landingpad { ptr, i32 }
          catch ptr null
  %69 = extractvalue { ptr, i32 } %68, 0
  call void @__clang_call_terminate(ptr %69) #18
  unreachable

_ZN8NWindows4NCOM12CPropVariantD2Ev.exit.i:       ; preds = %lpad.i
  call void @llvm.lifetime.end.p0(i64 16, ptr nonnull %prop.i) #16
  br label %ehcleanup312

cleanup.cont.i:                                   ; preds = %invoke.cont.i
  %70 = load i16, ptr %prop.i, align 8, !tbaa !45
  switch i16 %70, label %cleanup9.i [
    i16 64, label %if.then2.i
    i16 0, label %if.end8.i
  ]

if.then2.i:                                       ; preds = %cleanup.cont.i
  %71 = load i64, ptr %4, align 8
  store i64 %71, ptr %NtfsMTime, align 8
  br label %if.end8.i

if.end8.i:                                        ; preds = %if.then2.i, %cleanup.cont.i
  br label %cleanup9.i

cleanup9.i:                                       ; preds = %if.end8.i, %cleanup.cont.i, %invoke.cont.i
  %retval.1.i = phi i32 [ 0, %if.end8.i ], [ %call.i864, %invoke.cont.i ], [ -2147024809, %cleanup.cont.i ]
  %call.i15.i = invoke noundef i32 @_ZN8NWindows4NCOM12CPropVariant5ClearEv(ptr noundef nonnull align 8 dereferenceable(16) %prop.i)
          to label %invoke.cont172 unwind label %terminate.lpad.i16.i

terminate.lpad.i16.i:                             ; preds = %cleanup9.i
  %72 = landingpad { ptr, i32 }
          catch ptr null
  %73 = extractvalue { ptr, i32 } %72, 0
  call void @__clang_call_terminate(ptr %73) #18
  unreachable

invoke.cont172:                                   ; preds = %cleanup9.i
  call void @llvm.lifetime.end.p0(i64 16, ptr nonnull %prop.i) #16
  %cmp174.not = icmp eq i32 %retval.1.i, 0
  %retval.7.call145.call173 = select i1 %cmp174.not, i32 %retval.7.call145, i32 %retval.1.i
  br i1 %cmp174.not, label %cleanup.cont179, label %cleanup311

cleanup.cont179:                                  ; preds = %invoke.cont172
  %call184 = invoke fastcc noundef i32 @_ZN8NArchive4NZipL7GetTimeEP22IArchiveUpdateCallbackijR9_FILETIME(ptr noundef nonnull %callback, i32 noundef %i.01238, i32 noundef 11, ptr noundef nonnull align 4 dereferenceable(8) %NtfsATime)
          to label %invoke.cont183 unwind label %lpad182

invoke.cont183:                                   ; preds = %cleanup.cont179
  %cmp185.not = icmp eq i32 %call184, 0
  %retval.7.call145.call173.call184 = select i1 %cmp185.not, i32 %retval.7.call145.call173, i32 %call184
  br i1 %cmp185.not, label %cleanup.cont190, label %cleanup311

lpad182:                                          ; preds = %cleanup.cont179
  %74 = landingpad { ptr, i32 }
          catch ptr @_ZTI16CSystemException
          catch ptr null
  br label %ehcleanup312

cleanup.cont190:                                  ; preds = %invoke.cont183
  %call195 = invoke fastcc noundef i32 @_ZN8NArchive4NZipL7GetTimeEP22IArchiveUpdateCallbackijR9_FILETIME(ptr noundef nonnull %callback, i32 noundef %i.01238, i32 noundef 10, ptr noundef nonnull align 4 dereferenceable(8) %NtfsCTime)
          to label %invoke.cont194 unwind label %lpad193

invoke.cont194:                                   ; preds = %cleanup.cont190
  %cmp196.not = icmp eq i32 %call195, 0
  %retval.7.call145.call173.call184.call195 = select i1 %cmp196.not, i32 %retval.7.call145.call173.call184, i32 %call195
  br i1 %cmp196.not, label %cleanup.cont201, label %cleanup311

lpad193:                                          ; preds = %cleanup.cont190
  %75 = landingpad { ptr, i32 }
          catch ptr @_ZTI16CSystemException
          catch ptr null
  br label %ehcleanup312

cleanup.cont201:                                  ; preds = %invoke.cont194
  call void @llvm.lifetime.start.p0(i64 8, ptr nonnull %localFileTime) #16
  store i64 0, ptr %localFileTime, align 8
  %76 = load i32, ptr %dwHighDateTime.i, align 4, !tbaa !56
  %cmp204 = icmp ne i32 %76, 0
  %77 = load i32, ptr %NtfsMTime, align 8
  %cmp206 = icmp ne i32 %77, 0
  %or.cond710 = select i1 %cmp204, i1 true, i1 %cmp206
  br i1 %or.cond710, label %if.then207, label %if.end215

if.then207:                                       ; preds = %cleanup.cont201
  %call211 = invoke i32 @FileTimeToLocalFileTime(ptr noundef nonnull %NtfsMTime, ptr noundef nonnull %localFileTime)
          to label %invoke.cont210 unwind label %lpad209

invoke.cont210:                                   ; preds = %if.then207
  %tobool212.not = icmp eq i32 %call211, 0
  br i1 %tobool212.not, label %cleanup218, label %if.end215

lpad209:                                          ; preds = %if.end215, %if.then207
  %78 = landingpad { ptr, i32 }
          catch ptr @_ZTI16CSystemException
          catch ptr null
  call void @llvm.lifetime.end.p0(i64 8, ptr nonnull %localFileTime) #16
  br label %ehcleanup312

if.end215:                                        ; preds = %invoke.cont210, %cleanup.cont201
  %call217 = invoke noundef zeroext i1 @_ZN8NWindows5NTime17FileTimeToDosTimeERK9_FILETIMERj(ptr noundef nonnull align 4 dereferenceable(8) %localFileTime, ptr noundef nonnull align 4 dereferenceable(4) %Time)
          to label %cleanup.cont220 unwind label %lpad209

cleanup218:                                       ; preds = %invoke.cont210
  call void @llvm.lifetime.end.p0(i64 8, ptr nonnull %localFileTime) #16
  br label %cleanup311

cleanup.cont220:                                  ; preds = %if.end215
  call void @llvm.lifetime.end.p0(i64 8, ptr nonnull %localFileTime) #16
  call void @llvm.lifetime.start.p0(i64 16, ptr nonnull %ref.tmp) #16
  invoke void @_ZN8NArchive9NItemName13MakeLegalNameERK11CStringBaseIwE(ptr nonnull sret(%class.CStringBase.3) align 8 %ref.tmp, ptr noundef nonnull align 8 dereferenceable(16) %name)
          to label %invoke.cont223 unwind label %lpad222

invoke.cont223:                                   ; preds = %cleanup.cont220
  %call226 = invoke noundef nonnull align 8 dereferenceable(16) ptr @_ZN11CStringBaseIwEaSERKS0_(ptr noundef nonnull align 8 dereferenceable(16) %name, ptr noundef nonnull align 8 dereferenceable(16) %ref.tmp)
          to label %invoke.cont225 unwind label %lpad224

invoke.cont225:                                   ; preds = %invoke.cont223
  %79 = load ptr, ptr %ref.tmp, align 8, !tbaa !40
  %isnull.i = icmp eq ptr %79, null
  br i1 %isnull.i, label %_ZN11CStringBaseIwED2Ev.exit, label %delete.notnull.i

delete.notnull.i:                                 ; preds = %invoke.cont225
  call void @_ZdaPv(ptr noundef nonnull %79) #19
  br label %_ZN11CStringBaseIwED2Ev.exit

_ZN11CStringBaseIwED2Ev.exit:                     ; preds = %invoke.cont225, %delete.notnull.i
  call void @llvm.lifetime.end.p0(i64 16, ptr nonnull %ref.tmp) #16
  %80 = load i8, ptr %IsDir127, align 2, !tbaa !52, !range !53, !noundef !57
  %81 = load i32, ptr %_length.i.i, align 8, !tbaa !49
  %cmp.i866 = icmp eq i32 %81, 0
  br i1 %cmp.i866, label %if.end247, label %if.then235

if.then235:                                       ; preds = %_ZN11CStringBaseIwED2Ev.exit
  %82 = load ptr, ptr %name, align 8, !tbaa !40
  %sub = add nsw i32 %81, -1
  %idxprom = sext i32 %sub to i64
  %arrayidx = getelementptr inbounds i32, ptr %82, i64 %idxprom
  %83 = load i32, ptr %arrayidx, align 4, !tbaa !42
  %cmp240 = icmp eq i32 %83, 47
  br i1 %cmp240, label %if.then241, label %if.end247

if.then241:                                       ; preds = %if.then235
  %tobool243.not = icmp eq i8 %80, 0
  br i1 %tobool243.not, label %cleanup311, label %if.end252

lpad222:                                          ; preds = %cleanup.cont220
  %84 = landingpad { ptr, i32 }
          catch ptr @_ZTI16CSystemException
          catch ptr null
  br label %ehcleanup228

lpad224:                                          ; preds = %invoke.cont223
  %85 = landingpad { ptr, i32 }
          catch ptr @_ZTI16CSystemException
          catch ptr null
  %86 = load ptr, ptr %ref.tmp, align 8, !tbaa !40
  %isnull.i868 = icmp eq ptr %86, null
  br i1 %isnull.i868, label %ehcleanup228, label %delete.notnull.i869

delete.notnull.i869:                              ; preds = %lpad224
  call void @_ZdaPv(ptr noundef nonnull %86) #19
  br label %ehcleanup228

ehcleanup228:                                     ; preds = %delete.notnull.i869, %lpad224, %lpad222
  %.pn815 = phi { ptr, i32 } [ %84, %lpad222 ], [ %85, %lpad224 ], [ %85, %delete.notnull.i869 ]
  call void @llvm.lifetime.end.p0(i64 16, ptr nonnull %ref.tmp) #16
  br label %ehcleanup312

lpad232:                                          ; preds = %if.then249
  %87 = landingpad { ptr, i32 }
          catch ptr @_ZTI16CSystemException
          catch ptr null
  br label %ehcleanup312

if.end247:                                        ; preds = %if.then235, %_ZN11CStringBaseIwED2Ev.exit
  %tobool248.not = icmp eq i8 %80, 0
  br i1 %tobool248.not, label %if.end252, label %if.then249

if.then249:                                       ; preds = %if.end247
  %call251 = invoke noundef nonnull align 8 dereferenceable(16) ptr @_ZN11CStringBaseIwEpLEw(ptr noundef nonnull align 8 dereferenceable(16) %name, i32 noundef signext 47)
          to label %if.end252 unwind label %lpad232

if.end252:                                        ; preds = %if.then241, %if.then249, %if.end247
  %88 = load i8, ptr %m_ForceLocal, align 1, !tbaa !58, !range !53, !noundef !57
  %tobool253.not = icmp ne i8 %88, 0
  %89 = load i8, ptr %m_ForceUtf8, align 2, !range !53
  %tobool255.not = icmp eq i8 %89, 0
  %or.cond830 = select i1 %tobool253.not, i1 true, i1 %tobool255.not
  br i1 %or.cond830, label %if.then256, label %for.cond272.preheader

if.then256:                                       ; preds = %if.end252
  call void @llvm.lifetime.start.p0(i64 16, ptr nonnull %ref.tmp257) #16
  invoke void @_Z24UnicodeStringToMultiByteRK11CStringBaseIwEj(ptr nonnull sret(%class.CStringBase) align 8 %ref.tmp257, ptr noundef nonnull align 8 dereferenceable(16) %name, i32 noundef 1)
          to label %invoke.cont259 unwind label %lpad258

invoke.cont259:                                   ; preds = %if.then256
  %call262 = invoke noundef nonnull align 8 dereferenceable(16) ptr @_ZN11CStringBaseIcEaSERKS0_(ptr noundef nonnull align 8 dereferenceable(16) %Name.i, ptr noundef nonnull align 8 dereferenceable(16) %ref.tmp257)
          to label %invoke.cont261 unwind label %lpad260

invoke.cont261:                                   ; preds = %invoke.cont259
  %90 = load ptr, ptr %ref.tmp257, align 8, !tbaa !24
  %isnull.i871 = icmp eq ptr %90, null
  br i1 %isnull.i871, label %if.end268, label %delete.notnull.i872

delete.notnull.i872:                              ; preds = %invoke.cont261
  call void @_ZdaPv(ptr noundef nonnull %90) #19
  br label %if.end268

lpad258:                                          ; preds = %if.then256
  %91 = landingpad { ptr, i32 }
          catch ptr @_ZTI16CSystemException
          catch ptr null
  br label %ehcleanup264

lpad260:                                          ; preds = %invoke.cont259
  %92 = landingpad { ptr, i32 }
          catch ptr @_ZTI16CSystemException
          catch ptr null
  %93 = load ptr, ptr %ref.tmp257, align 8, !tbaa !24
  %isnull.i873 = icmp eq ptr %93, null
  br i1 %isnull.i873, label %ehcleanup264, label %delete.notnull.i874

delete.notnull.i874:                              ; preds = %lpad260
  call void @_ZdaPv(ptr noundef nonnull %93) #19
  br label %ehcleanup264

ehcleanup264:                                     ; preds = %delete.notnull.i874, %lpad260, %lpad258
  %.pn817 = phi { ptr, i32 } [ %91, %lpad258 ], [ %92, %lpad260 ], [ %92, %delete.notnull.i874 ]
  call void @llvm.lifetime.end.p0(i64 16, ptr nonnull %ref.tmp257) #16
  br label %ehcleanup312

if.end268:                                        ; preds = %delete.notnull.i872, %invoke.cont261
  call void @llvm.lifetime.end.p0(i64 16, ptr nonnull %ref.tmp257) #16
  %94 = load i8, ptr %m_ForceLocal, align 1, !tbaa !58, !range !53, !noundef !57
  %tobool269.not.not = icmp eq i8 %94, 0
  br i1 %tobool269.not.not, label %for.cond272.preheader, label %if.end296

for.cond272.preheader:                            ; preds = %if.end252, %if.end268
  %95 = load i32, ptr %_length.i.i, align 8, !tbaa !49
  %cmp2761231 = icmp sgt i32 %95, 0
  br i1 %cmp2761231, label %land.rhs.lr.ph, label %for.end

land.rhs.lr.ph:                                   ; preds = %for.cond272.preheader
  %96 = load ptr, ptr %name, align 8, !tbaa !40
  %wide.trip.count = zext i32 %95 to i64
  br label %land.rhs

land.rhs:                                         ; preds = %land.rhs.lr.ph, %for.inc
  %indvars.iv = phi i64 [ 0, %land.rhs.lr.ph ], [ %indvars.iv.next, %for.inc ]
  %arrayidx280 = getelementptr inbounds i32, ptr %96, i64 %indvars.iv
  %97 = load i32, ptr %arrayidx280, align 4, !tbaa !42
  %cmp281 = icmp ult i32 %97, 128
  br i1 %cmp281, label %for.inc, label %for.end.loopexit.split.loop.exit1322

for.inc:                                          ; preds = %land.rhs
  %indvars.iv.next = add nuw nsw i64 %indvars.iv, 1
  %exitcond.not = icmp eq i64 %indvars.iv.next, %wide.trip.count
  br i1 %exitcond.not, label %for.end, label %land.rhs, !llvm.loop !72

lpad273:                                          ; preds = %for.end
  %98 = landingpad { ptr, i32 }
          catch ptr @_ZTI16CSystemException
          catch ptr null
  br label %ehcleanup312

for.end.loopexit.split.loop.exit1322:             ; preds = %land.rhs
  %99 = trunc i64 %indvars.iv to i32
  br label %for.end

for.end:                                          ; preds = %for.inc, %for.end.loopexit.split.loop.exit1322, %for.cond272.preheader
  %i271.0.lcssa = phi i32 [ 0, %for.cond272.preheader ], [ %99, %for.end.loopexit.split.loop.exit1322 ], [ %95, %for.inc ]
  %cmp285 = icmp ne i32 %i271.0.lcssa, %95
  %frombool286 = zext i1 %cmp285 to i8
  store i8 %frombool286, ptr %IsUtf8.i, align 4, !tbaa !23
  %call289 = invoke noundef zeroext i1 @_Z20ConvertUnicodeToUTF8RK11CStringBaseIwERS_IcE(ptr noundef nonnull align 8 dereferenceable(16) %name, ptr noundef nonnull align 8 dereferenceable(16) %Name.i)
          to label %invoke.cont288 unwind label %lpad273

invoke.cont288:                                   ; preds = %for.end
  br i1 %call289, label %if.end296, label %cleanup311

if.end296:                                        ; preds = %invoke.cont288, %if.end268
  %retval.14 = phi i32 [ %retval.7.call145.call173.call184.call195, %invoke.cont288 ], [ %retval.7.call145.call173, %if.end268 ]
  %100 = load i32, ptr %_length.i878, align 8, !tbaa !73
  %cmp301 = icmp sgt i32 %100, 65535
  br i1 %cmp301, label %cleanup311, label %if.end303

if.end303:                                        ; preds = %if.end296
  store i32 %i.01238, ptr %IndexInClient, align 4, !tbaa !30
  br label %cleanup311

cleanup311.critedge:                              ; preds = %invoke.cont144
  %call.i879 = invoke noundef i32 @_ZN8NWindows4NCOM12CPropVariant5ClearEv(ptr noundef nonnull align 8 dereferenceable(16) %prop137)
          to label %_ZN8NWindows4NCOM12CPropVariantD2Ev.exit882 unwind label %terminate.lpad.i881

terminate.lpad.i881:                              ; preds = %cleanup311.critedge
  %101 = landingpad { ptr, i32 }
          catch ptr null
  %102 = extractvalue { ptr, i32 } %101, 0
  call void @__clang_call_terminate(ptr %102) #18
  unreachable

_ZN8NWindows4NCOM12CPropVariantD2Ev.exit882:      ; preds = %cleanup311.critedge
  call void @llvm.lifetime.end.p0(i64 16, ptr nonnull %prop137) #16
  br label %cleanup311

cleanup311:                                       ; preds = %cleanup218, %if.then241, %if.end296, %invoke.cont288, %if.end303, %_ZN8NWindows4NCOM12CPropVariantD2Ev.exit882, %invoke.cont194, %invoke.cont183, %invoke.cont172, %_ZN8NWindows4NCOM12CPropVariantD2Ev.exit856, %_ZN8NWindows4NCOM12CPropVariantD2Ev.exit846, %_ZN8NWindows4NCOM12CPropVariantD2Ev.exit839
  %cond698 = phi i1 [ false, %cleanup218 ], [ false, %if.then241 ], [ false, %if.end296 ], [ false, %invoke.cont288 ], [ true, %if.end303 ], [ false, %_ZN8NWindows4NCOM12CPropVariantD2Ev.exit882 ], [ false, %invoke.cont194 ], [ false, %invoke.cont183 ], [ false, %invoke.cont172 ], [ false, %_ZN8NWindows4NCOM12CPropVariantD2Ev.exit856 ], [ false, %_ZN8NWindows4NCOM12CPropVariantD2Ev.exit846 ], [ false, %_ZN8NWindows4NCOM12CPropVariantD2Ev.exit839 ]
  %retval.17 = phi i32 [ -2147024809, %cleanup218 ], [ -2147024809, %if.then241 ], [ -2147024809, %if.end296 ], [ -2147024809, %invoke.cont288 ], [ %retval.14, %if.end303 ], [ %call145, %_ZN8NWindows4NCOM12CPropVariantD2Ev.exit882 ], [ %call195, %invoke.cont194 ], [ %call184, %invoke.cont183 ], [ %retval.1.i, %invoke.cont172 ], [ %retval.7, %_ZN8NWindows4NCOM12CPropVariantD2Ev.exit856 ], [ %retval.5, %_ZN8NWindows4NCOM12CPropVariantD2Ev.exit846 ], [ %retval.3, %_ZN8NWindows4NCOM12CPropVariantD2Ev.exit839 ]
  %103 = load ptr, ptr %name, align 8, !tbaa !40
  %isnull.i883 = icmp eq ptr %103, null
  br i1 %isnull.i883, label %_ZN11CStringBaseIwED2Ev.exit885, label %delete.notnull.i884

delete.notnull.i884:                              ; preds = %cleanup311
  call void @_ZdaPv(ptr noundef nonnull %103) #19
  br label %_ZN11CStringBaseIwED2Ev.exit885

_ZN11CStringBaseIwED2Ev.exit885:                  ; preds = %cleanup311, %delete.notnull.i884
  call void @llvm.lifetime.end.p0(i64 16, ptr nonnull %name) #16
  br i1 %cond698, label %_ZN11CStringBaseIwED2Ev.exit885.if.end317_crit_edge, label %cleanup357

_ZN11CStringBaseIwED2Ev.exit885.if.end317_crit_edge: ; preds = %_ZN11CStringBaseIwED2Ev.exit885
  %.pre = load i32, ptr %newData, align 4, !tbaa !5
  br label %if.end317

ehcleanup312:                                     ; preds = %_ZN8NWindows4NCOM12CPropVariantD2Ev.exit.i, %lpad232, %lpad273, %ehcleanup264, %ehcleanup228, %lpad209, %lpad193, %lpad182, %_ZN8NWindows4NCOM12CPropVariantD2Ev.exit860, %_ZN8NWindows4NCOM12CPropVariantD2Ev.exit853, %_ZN8NWindows4NCOM12CPropVariantD2Ev.exit850, %_ZN8NWindows4NCOM12CPropVariantD2Ev.exit
  %.pn819.pn.pn = phi { ptr, i32 } [ %.pn815, %ehcleanup228 ], [ %78, %lpad209 ], [ %75, %lpad193 ], [ %74, %lpad182 ], [ %58, %_ZN8NWindows4NCOM12CPropVariantD2Ev.exit860 ], [ %50, %_ZN8NWindows4NCOM12CPropVariantD2Ev.exit853 ], [ %.pn813, %_ZN8NWindows4NCOM12CPropVariantD2Ev.exit850 ], [ %23, %_ZN8NWindows4NCOM12CPropVariantD2Ev.exit ], [ %87, %lpad232 ], [ %98, %lpad273 ], [ %.pn817, %ehcleanup264 ], [ %67, %_ZN8NWindows4NCOM12CPropVariantD2Ev.exit.i ]
  %104 = load ptr, ptr %name, align 8, !tbaa !40
  %isnull.i886 = icmp eq ptr %104, null
  br i1 %isnull.i886, label %ehcleanup316, label %delete.notnull.i887

delete.notnull.i887:                              ; preds = %ehcleanup312
  call void @_ZdaPv(ptr noundef nonnull %104) #19
  br label %ehcleanup316

ehcleanup316:                                     ; preds = %delete.notnull.i887, %ehcleanup312, %lpad31
  %.pn819.pn.pn.pn = phi { ptr, i32 } [ %22, %lpad31 ], [ %.pn819.pn.pn, %ehcleanup312 ], [ %.pn819.pn.pn, %delete.notnull.i887 ]
  call void @llvm.lifetime.end.p0(i64 16, ptr nonnull %name) #16
  br label %ehcleanup358

if.end317:                                        ; preds = %_ZN11CStringBaseIwED2Ev.exit885.if.end317_crit_edge, %if.end27
  %105 = phi i32 [ %.pre, %_ZN11CStringBaseIwED2Ev.exit885.if.end317_crit_edge ], [ %11, %if.end27 ]
  %retval.18 = phi i32 [ %retval.17, %_ZN11CStringBaseIwED2Ev.exit885.if.end317_crit_edge ], [ %retval.01242, %if.end27 ]
  %cmp.i889.not = icmp eq i32 %105, 0
  br i1 %cmp.i889.not, label %if.end352, label %if.then320

if.then320:                                       ; preds = %if.end317
  call void @llvm.lifetime.start.p0(i64 16, ptr nonnull %prop321) #16
  store i16 0, ptr %prop321, align 8, !tbaa !45
  store i16 0, ptr %wReserved1.i890, align 2, !tbaa !47
  %vtable325 = load ptr, ptr %callback, align 8, !tbaa !13
  %vfn326 = getelementptr inbounds ptr, ptr %vtable325, i64 8
  %106 = load ptr, ptr %vfn326, align 8
  %call329 = invoke noundef i32 %106(ptr noundef nonnull align 8 dereferenceable(8) %callback, i32 noundef %i.01238, i32 noundef 7, ptr noundef nonnull %prop321)
          to label %invoke.cont328 unwind label %lpad327

invoke.cont328:                                   ; preds = %if.then320
  %cmp330.not = icmp eq i32 %call329, 0
  br i1 %cmp330.not, label %cleanup.cont335, label %cleanup342

lpad327:                                          ; preds = %if.then320
  %107 = landingpad { ptr, i32 }
          catch ptr @_ZTI16CSystemException
          catch ptr null
  %call.i891 = invoke noundef i32 @_ZN8NWindows4NCOM12CPropVariant5ClearEv(ptr noundef nonnull align 8 dereferenceable(16) %prop321)
          to label %_ZN8NWindows4NCOM12CPropVariantD2Ev.exit894 unwind label %terminate.lpad.i893

terminate.lpad.i893:                              ; preds = %lpad327
  %108 = landingpad { ptr, i32 }
          catch ptr null
  %109 = extractvalue { ptr, i32 } %108, 0
  call void @__clang_call_terminate(ptr %109) #18
  unreachable

_ZN8NWindows4NCOM12CPropVariantD2Ev.exit894:      ; preds = %lpad327
  call void @llvm.lifetime.end.p0(i64 16, ptr nonnull %prop321) #16
  br label %ehcleanup358

cleanup.cont335:                                  ; preds = %invoke.cont328
  %110 = load i16, ptr %prop321, align 8, !tbaa !45
  %cmp339.not = icmp eq i16 %110, 21
  br i1 %cmp339.not, label %if.end341, label %cleanup342

if.end341:                                        ; preds = %cleanup.cont335
  %111 = load i64, ptr %5, align 8, !tbaa !25
  br label %cleanup342

cleanup342:                                       ; preds = %cleanup.cont335, %invoke.cont328, %if.end341
  %size.1 = phi i64 [ %111, %if.end341 ], [ %size.01237, %invoke.cont328 ], [ %size.01237, %cleanup.cont335 ]
  %cond694 = phi i1 [ true, %if.end341 ], [ false, %invoke.cont328 ], [ false, %cleanup.cont335 ]
  %retval.20 = phi i32 [ %retval.18, %if.end341 ], [ %call329, %invoke.cont328 ], [ -2147024809, %cleanup.cont335 ]
  %call.i895 = invoke noundef i32 @_ZN8NWindows4NCOM12CPropVariant5ClearEv(ptr noundef nonnull align 8 dereferenceable(16) %prop321)
          to label %_ZN8NWindows4NCOM12CPropVariantD2Ev.exit898 unwind label %terminate.lpad.i897

terminate.lpad.i897:                              ; preds = %cleanup342
  %112 = landingpad { ptr, i32 }
          catch ptr null
  %113 = extractvalue { ptr, i32 } %112, 0
  call void @__clang_call_terminate(ptr %113) #18
  unreachable

_ZN8NWindows4NCOM12CPropVariantD2Ev.exit898:      ; preds = %cleanup342
  call void @llvm.lifetime.end.p0(i64 16, ptr nonnull %prop321) #16
  br i1 %cond694, label %cleanup.cont346, label %cleanup357

cleanup.cont346:                                  ; preds = %_ZN8NWindows4NCOM12CPropVariantD2Ev.exit898
  store i64 %size.1, ptr %Size.i, align 8, !tbaa !74
  br label %if.end352

if.end352:                                        ; preds = %cleanup.cont346, %if.end317
  %size.2 = phi i64 [ %size.1, %cleanup.cont346 ], [ %size.01237, %if.end317 ]
  %retval.21 = phi i32 [ %retval.20, %cleanup.cont346 ], [ %retval.18, %if.end317 ]
  %call.i899906 = invoke noalias noundef nonnull dereferenceable(72) ptr @_Znwm(i64 noundef 72) #17
          to label %call.i899.noexc unwind label %lpad20

call.i899.noexc:                                  ; preds = %if.end352
  call void @llvm.memcpy.p0.p0.i64(ptr noundef nonnull align 8 dereferenceable(32) %call.i899906, ptr noundef nonnull align 8 dereferenceable(32) %ui, i64 32, i1 false)
  %Name.i.i = getelementptr inbounds %"struct.NArchive::NZip::CUpdateItem", ptr %call.i899906, i64 0, i32 10
  call void @llvm.memset.p0.i64(ptr noundef nonnull align 8 dereferenceable(16) %Name.i.i, i8 0, i64 16, i1 false)
  %114 = load i32, ptr %_length.i878, align 8, !tbaa !73
  %add.i.i.i.i = add nsw i32 %114, 1
  %cmp.i.i.i.i = icmp eq i32 %add.i.i.i.i, 0
  br i1 %cmp.i.i.i.i, label %_ZN11CStringBaseIcE11SetCapacityEi.exit.i.i.i, label %if.end9.i.i.i.i

if.end9.i.i.i.i:                                  ; preds = %call.i899.noexc
  %conv.i.i.i.i = sext i32 %add.i.i.i.i to i64
  %call.i.i.i4.i = invoke noalias noundef nonnull ptr @_Znam(i64 noundef %conv.i.i.i.i) #17
          to label %call.i.i.i.noexc.i unwind label %lpad.i905

call.i.i.i.noexc.i:                               ; preds = %if.end9.i.i.i.i
  %_capacity.i.i.i900 = getelementptr inbounds %"struct.NArchive::NZip::CUpdateItem", ptr %call.i899906, i64 0, i32 10, i32 2
  store ptr %call.i.i.i4.i, ptr %Name.i.i, align 8, !tbaa !24
  store i8 0, ptr %call.i.i.i4.i, align 1, !tbaa !25
  store i32 %add.i.i.i.i, ptr %_capacity.i.i.i900, align 4, !tbaa !26
  br label %_ZN11CStringBaseIcE11SetCapacityEi.exit.i.i.i

_ZN11CStringBaseIcE11SetCapacityEi.exit.i.i.i:    ; preds = %call.i.i.i.noexc.i, %call.i899.noexc
  %115 = phi ptr [ null, %call.i899.noexc ], [ %call.i.i.i4.i, %call.i.i.i.noexc.i ]
  %116 = load ptr, ptr %Name.i, align 8, !tbaa !24
  br label %while.cond.i.i.i.i

while.cond.i.i.i.i:                               ; preds = %while.cond.i.i.i.i, %_ZN11CStringBaseIcE11SetCapacityEi.exit.i.i.i
  %src.addr.0.i.i.i.i = phi ptr [ %116, %_ZN11CStringBaseIcE11SetCapacityEi.exit.i.i.i ], [ %incdec.ptr.i.i.i.i, %while.cond.i.i.i.i ]
  %dest.addr.0.i.i.i.i = phi ptr [ %115, %_ZN11CStringBaseIcE11SetCapacityEi.exit.i.i.i ], [ %incdec.ptr1.i.i.i.i, %while.cond.i.i.i.i ]
  %incdec.ptr.i.i.i.i = getelementptr inbounds i8, ptr %src.addr.0.i.i.i.i, i64 1
  %117 = load i8, ptr %src.addr.0.i.i.i.i, align 1, !tbaa !25
  %incdec.ptr1.i.i.i.i = getelementptr inbounds i8, ptr %dest.addr.0.i.i.i.i, i64 1
  store i8 %117, ptr %dest.addr.0.i.i.i.i, align 1, !tbaa !25
  %cmp.not.i.i.i.i = icmp eq i8 %117, 0
  br i1 %cmp.not.i.i.i.i, label %invoke.cont.i904, label %while.cond.i.i.i.i, !llvm.loop !75

invoke.cont.i904:                                 ; preds = %while.cond.i.i.i.i
  %_length.i.i.i = getelementptr inbounds %"struct.NArchive::NZip::CUpdateItem", ptr %call.i899906, i64 0, i32 10, i32 1
  store i32 %114, ptr %_length.i.i.i, align 8, !tbaa !73
  %NtfsMTime.i.i = getelementptr inbounds %"struct.NArchive::NZip::CUpdateItem", ptr %call.i899906, i64 0, i32 11
  call void @llvm.memcpy.p0.p0.i64(ptr noundef nonnull align 8 dereferenceable(24) %NtfsMTime.i.i, ptr noundef nonnull align 8 dereferenceable(24) %NtfsMTime, i64 24, i1 false)
  invoke void @_ZN17CBaseRecordVector18ReserveOnePositionEv(ptr noundef nonnull align 8 dereferenceable(32) %updateItems)
          to label %_ZN13CObjectVectorIN8NArchive4NZip11CUpdateItemEE3AddERKS2_.exit unwind label %lpad20

lpad.i905:                                        ; preds = %if.end9.i.i.i.i
  %118 = landingpad { ptr, i32 }
          catch ptr @_ZTI16CSystemException
          catch ptr null
  call void @_ZdlPv(ptr noundef nonnull %call.i899906) #19
  br label %ehcleanup358

_ZN13CObjectVectorIN8NArchive4NZip11CUpdateItemEE3AddERKS2_.exit: ; preds = %invoke.cont.i904
  %119 = load ptr, ptr %_items.i.i901, align 8, !tbaa !31
  %120 = load i32, ptr %_size.i.i, align 4, !tbaa !76
  %idxprom.i.i902 = sext i32 %120 to i64
  %arrayidx.i.i903 = getelementptr inbounds ptr, ptr %119, i64 %idxprom.i.i902
  store ptr %call.i899906, ptr %arrayidx.i.i903, align 8, !tbaa !32
  %inc.i.i = add nsw i32 %120, 1
  store i32 %inc.i.i, ptr %_size.i.i, align 4, !tbaa !76
  br label %cleanup357

cleanup357:                                       ; preds = %_ZN13CObjectVectorIN8NArchive4NZip11CUpdateItemEE3AddERKS2_.exit, %_ZN11CStringBaseIwED2Ev.exit885, %_ZN8NWindows4NCOM12CPropVariantD2Ev.exit898, %invoke.cont3, %invoke.cont5
  %size.4 = phi i64 [ %size.01237, %invoke.cont5 ], [ %size.01237, %invoke.cont3 ], [ %size.01237, %_ZN11CStringBaseIwED2Ev.exit885 ], [ %size.2, %_ZN13CObjectVectorIN8NArchive4NZip11CUpdateItemEE3AddERKS2_.exit ], [ %size.1, %_ZN8NWindows4NCOM12CPropVariantD2Ev.exit898 ]
  %cond691 = phi i1 [ false, %invoke.cont5 ], [ false, %invoke.cont3 ], [ false, %_ZN11CStringBaseIwED2Ev.exit885 ], [ true, %_ZN13CObjectVectorIN8NArchive4NZip11CUpdateItemEE3AddERKS2_.exit ], [ false, %_ZN8NWindows4NCOM12CPropVariantD2Ev.exit898 ]
  %thereAreAesUpdates.2 = phi i8 [ %thereAreAesUpdates.01241, %invoke.cont5 ], [ %thereAreAesUpdates.01241, %invoke.cont3 ], [ %thereAreAesUpdates.1, %_ZN11CStringBaseIwED2Ev.exit885 ], [ %thereAreAesUpdates.1, %_ZN13CObjectVectorIN8NArchive4NZip11CUpdateItemEE3AddERKS2_.exit ], [ %thereAreAesUpdates.1, %_ZN8NWindows4NCOM12CPropVariantD2Ev.exit898 ]
  %retval.23 = phi i32 [ %call, %invoke.cont5 ], [ -2147467259, %invoke.cont3 ], [ %retval.17, %_ZN11CStringBaseIwED2Ev.exit885 ], [ %retval.21, %_ZN13CObjectVectorIN8NArchive4NZip11CUpdateItemEE3AddERKS2_.exit ], [ %retval.20, %_ZN8NWindows4NCOM12CPropVariantD2Ev.exit898 ]
  call void @llvm.lifetime.end.p0(i64 4, ptr nonnull %indexInArchive) #16
  call void @llvm.lifetime.end.p0(i64 4, ptr nonnull %newProperties) #16
  call void @llvm.lifetime.end.p0(i64 4, ptr nonnull %newData) #16
  %121 = load ptr, ptr %Name.i, align 8, !tbaa !24
  %isnull.i.i = icmp eq ptr %121, null
  br i1 %isnull.i.i, label %_ZN8NArchive4NZip11CUpdateItemD2Ev.exit, label %delete.notnull.i.i909

delete.notnull.i.i909:                            ; preds = %cleanup357
  call void @_ZdaPv(ptr noundef nonnull %121) #19
  br label %_ZN8NArchive4NZip11CUpdateItemD2Ev.exit

_ZN8NArchive4NZip11CUpdateItemD2Ev.exit:          ; preds = %cleanup357, %delete.notnull.i.i909
  call void @llvm.lifetime.end.p0(i64 72, ptr nonnull %ui) #16
  br i1 %cond691, label %for.cond, label %cleanup371

ehcleanup358:                                     ; preds = %lpad20, %lpad.i905, %ehcleanup316, %_ZN8NWindows4NCOM12CPropVariantD2Ev.exit894, %lpad4
  %.pn821.pn = phi { ptr, i32 } [ %9, %lpad4 ], [ %107, %_ZN8NWindows4NCOM12CPropVariantD2Ev.exit894 ], [ %.pn819.pn.pn.pn, %ehcleanup316 ], [ %20, %lpad20 ], [ %118, %lpad.i905 ]
  call void @llvm.lifetime.end.p0(i64 4, ptr nonnull %indexInArchive) #16
  call void @llvm.lifetime.end.p0(i64 4, ptr nonnull %newProperties) #16
  call void @llvm.lifetime.end.p0(i64 4, ptr nonnull %newData) #16
  %122 = load ptr, ptr %Name.i, align 8, !tbaa !24
  %isnull.i.i911 = icmp eq ptr %122, null
  br i1 %isnull.i.i911, label %ehcleanup368, label %delete.notnull.i.i912

delete.notnull.i.i912:                            ; preds = %ehcleanup358
  call void @_ZdaPv(ptr noundef nonnull %122) #19
  br label %ehcleanup368

ehcleanup368:                                     ; preds = %delete.notnull.i.i912, %ehcleanup358, %lpad2
  %.pn821.pn.pn = phi { ptr, i32 } [ %7, %lpad2 ], [ %.pn821.pn, %ehcleanup358 ], [ %.pn821.pn, %delete.notnull.i.i912 ]
  call void @llvm.lifetime.end.p0(i64 72, ptr nonnull %ui) #16
  br label %ehcleanup678

cleanup371:                                       ; preds = %_ZN8NArchive4NZip11CUpdateItemD2Ev.exit
  br i1 %cmp.not1243, label %cleanup677, label %for.end374

for.end374:                                       ; preds = %for.cond, %entry, %cleanup371
  %retval.241103 = phi i32 [ %retval.23, %cleanup371 ], [ undef, %entry ], [ %retval.23, %for.cond ]
  %thereAreAesUpdates.31102 = phi i8 [ %thereAreAesUpdates.2, %cleanup371 ], [ 0, %entry ], [ %thereAreAesUpdates.2, %for.cond ]
  call void @llvm.lifetime.start.p0(i64 8, ptr nonnull %getTextPassword) #16
  store ptr null, ptr %getTextPassword, align 8, !tbaa !77
  %cmp.not.i914 = icmp eq ptr %callback, null
  br i1 %cmp.not.i914, label %invoke.cont378, label %if.then.i

if.then.i:                                        ; preds = %for.end374
  %vtable.i915 = load ptr, ptr %callback, align 8, !tbaa !13
  %vfn.i916 = getelementptr inbounds ptr, ptr %vtable.i915, i64 1
  %123 = load ptr, ptr %vfn.i916, align 8
  %call.i917918 = invoke noundef i32 %123(ptr noundef nonnull align 8 dereferenceable(8) %callback)
          to label %invoke.cont378 unwind label %lpad377

invoke.cont378:                                   ; preds = %for.end374, %if.then.i
  %vtable.i919 = load ptr, ptr %callback, align 8, !tbaa !13
  %124 = load ptr, ptr %vtable.i919, align 8
  %call.i920921 = invoke noundef i32 %124(ptr noundef nonnull align 8 dereferenceable(8) %callback, ptr noundef nonnull align 4 dereferenceable(16) @IID_ICryptoGetTextPassword2, ptr noundef nonnull %getTextPassword)
          to label %if.then.i925 unwind label %if.then.i937

if.then.i925:                                     ; preds = %invoke.cont378
  %vtable.i922 = load ptr, ptr %callback, align 8, !tbaa !13
  %vfn.i923 = getelementptr inbounds ptr, ptr %vtable.i922, i64 2
  %125 = load ptr, ptr %vfn.i923, align 8
  %call.i924 = invoke noundef i32 %125(ptr noundef nonnull align 8 dereferenceable(8) %callback)
          to label %_ZN9CMyComPtrI22IArchiveUpdateCallbackED2Ev.exit unwind label %terminate.lpad.i926

terminate.lpad.i926:                              ; preds = %if.then.i925
  %126 = landingpad { ptr, i32 }
          catch ptr null
  %127 = extractvalue { ptr, i32 } %126, 0
  call void @__clang_call_terminate(ptr %127) #18
  unreachable

_ZN9CMyComPtrI22IArchiveUpdateCallbackED2Ev.exit: ; preds = %if.then.i925
  call void @llvm.lifetime.start.p0(i64 112, ptr nonnull %options) #16
  %_capacity.i.i.i927 = getelementptr inbounds %class.CBaseRecordVector, ptr %options, i64 0, i32 1
  %_itemSize.i.i.i928 = getelementptr inbounds %class.CBaseRecordVector, ptr %options, i64 0, i32 4
  call void @llvm.memset.p0.i64(ptr noundef nonnull align 8 dereferenceable(16) %_capacity.i.i.i927, i8 0, i64 16, i1 false)
  store i64 1, ptr %_itemSize.i.i.i928, align 8, !tbaa !9
  store ptr getelementptr inbounds ({ [5 x ptr] }, ptr @_ZTV13CRecordVectorIhE, i64 0, inrange i32 0, i64 2), ptr %options, align 8, !tbaa !13
  %MatchFinder.i = getelementptr inbounds %"struct.NArchive::NZip::CCompressionMethodMode", ptr %options, i64 0, i32 1
  call void @llvm.memset.p0.i64(ptr noundef nonnull align 8 dereferenceable(16) %MatchFinder.i, i8 0, i64 16, i1 false)
  %call.i.i6.i = invoke noalias noundef nonnull dereferenceable(16) ptr @_Znam(i64 noundef 16) #17
          to label %invoke.cont.i930 unwind label %lpad.i931

invoke.cont.i930:                                 ; preds = %_ZN9CMyComPtrI22IArchiveUpdateCallbackED2Ev.exit
  %_capacity.i.i929 = getelementptr inbounds %"struct.NArchive::NZip::CCompressionMethodMode", ptr %options, i64 0, i32 1, i32 2
  store ptr %call.i.i6.i, ptr %MatchFinder.i, align 8, !tbaa !40
  store i32 0, ptr %call.i.i6.i, align 4, !tbaa !42
  store i32 4, ptr %_capacity.i.i929, align 4, !tbaa !44
  %NumMatchFinderCyclesDefined.i = getelementptr inbounds %"struct.NArchive::NZip::CCompressionMethodMode", ptr %options, i64 0, i32 5
  store i8 0, ptr %NumMatchFinderCyclesDefined.i, align 4, !tbaa !79
  %PasswordIsDefined.i = getelementptr inbounds %"struct.NArchive::NZip::CCompressionMethodMode", ptr %options, i64 0, i32 12
  store i8 0, ptr %PasswordIsDefined.i, align 4, !tbaa !82
  %Password.i = getelementptr inbounds %"struct.NArchive::NZip::CCompressionMethodMode", ptr %options, i64 0, i32 14
  call void @llvm.memset.p0.i64(ptr noundef nonnull align 8 dereferenceable(16) %Password.i, i8 0, i64 16, i1 false)
  %call.i.i8.i = invoke noalias noundef nonnull dereferenceable(4) ptr @_Znam(i64 noundef 4) #17
          to label %invoke.cont387 unwind label %_ZN11CStringBaseIwED2Ev.exit.i

lpad.i931:                                        ; preds = %_ZN9CMyComPtrI22IArchiveUpdateCallbackED2Ev.exit
  %128 = landingpad { ptr, i32 }
          catch ptr @_ZTI16CSystemException
          catch ptr null
  br label %ehcleanup.i

_ZN11CStringBaseIwED2Ev.exit.i:                   ; preds = %invoke.cont.i930
  %129 = landingpad { ptr, i32 }
          catch ptr @_ZTI16CSystemException
          catch ptr null
  call void @_ZdaPv(ptr noundef nonnull %call.i.i6.i) #19
  br label %ehcleanup.i

ehcleanup.i:                                      ; preds = %_ZN11CStringBaseIwED2Ev.exit.i, %lpad.i931
  %.pn.i = phi { ptr, i32 } [ %129, %_ZN11CStringBaseIwED2Ev.exit.i ], [ %128, %lpad.i931 ]
  call void @_ZN17CBaseRecordVectorD2Ev(ptr noundef nonnull align 8 dereferenceable(32) %options) #16
  br label %ehcleanup672

invoke.cont387:                                   ; preds = %invoke.cont.i930
  %_capacity.i7.i = getelementptr inbounds %"struct.NArchive::NZip::CCompressionMethodMode", ptr %options, i64 0, i32 14, i32 2
  store ptr %call.i.i8.i, ptr %Password.i, align 8, !tbaa !24
  store i8 0, ptr %call.i.i8.i, align 1, !tbaa !25
  store i32 4, ptr %_capacity.i7.i, align 4, !tbaa !26
  %IsAesMode.i = getelementptr inbounds %"struct.NArchive::NZip::CCompressionMethodMode", ptr %options, i64 0, i32 15
  store i8 0, ptr %IsAesMode.i, align 8, !tbaa !83
  %AesKeyMode.i = getelementptr inbounds %"struct.NArchive::NZip::CCompressionMethodMode", ptr %options, i64 0, i32 16
  store i8 3, ptr %AesKeyMode.i, align 1, !tbaa !84
  %130 = load ptr, ptr %getTextPassword, align 8, !tbaa !77
  %tobool391.not = icmp eq ptr %130, null
  br i1 %tobool391.not, label %if.else470, label %if.then392

if.then392:                                       ; preds = %invoke.cont387
  call void @llvm.lifetime.start.p0(i64 8, ptr nonnull %password) #16
  store ptr null, ptr %password, align 8, !tbaa !85
  call void @llvm.lifetime.start.p0(i64 4, ptr nonnull %passwordIsDefined) #16
  %vtable401 = load ptr, ptr %130, align 8, !tbaa !13
  %vfn402 = getelementptr inbounds ptr, ptr %vtable401, i64 5
  %131 = load ptr, ptr %vfn402, align 8
  %call404 = invoke noundef i32 %131(ptr noundef nonnull align 8 dereferenceable(8) %130, ptr noundef nonnull %passwordIsDefined, ptr noundef nonnull %password)
          to label %invoke.cont403 unwind label %lpad396

invoke.cont403:                                   ; preds = %if.then392
  %cmp405.not = icmp eq i32 %call404, 0
  %retval.24.call404 = select i1 %cmp405.not, i32 %retval.241103, i32 %call404
  br i1 %cmp405.not, label %cleanup.cont410, label %cleanup462

lpad377:                                          ; preds = %if.then.i
  %132 = landingpad { ptr, i32 }
          catch ptr @_ZTI16CSystemException
          catch ptr null
  br label %ehcleanup674

if.then.i937:                                     ; preds = %invoke.cont378
  %133 = landingpad { ptr, i32 }
          catch ptr @_ZTI16CSystemException
          catch ptr null
  %vtable.i934 = load ptr, ptr %callback, align 8, !tbaa !13
  %vfn.i935 = getelementptr inbounds ptr, ptr %vtable.i934, i64 2
  %134 = load ptr, ptr %vfn.i935, align 8
  %call.i936 = invoke noundef i32 %134(ptr noundef nonnull align 8 dereferenceable(8) %callback)
          to label %ehcleanup674 unwind label %terminate.lpad.i938

terminate.lpad.i938:                              ; preds = %if.then.i937
  %135 = landingpad { ptr, i32 }
          catch ptr null
  %136 = extractvalue { ptr, i32 } %135, 0
  call void @__clang_call_terminate(ptr %136) #18
  unreachable

lpad396:                                          ; preds = %if.then392
  %137 = landingpad { ptr, i32 }
          catch ptr @_ZTI16CSystemException
          catch ptr null
  br label %ehcleanup463

cleanup.cont410:                                  ; preds = %invoke.cont403
  %138 = load i32, ptr %passwordIsDefined, align 4, !tbaa !5
  %cmp.i940 = icmp ne i32 %138, 0
  %frombool415 = zext i1 %cmp.i940 to i8
  store i8 %frombool415, ptr %PasswordIsDefined.i, align 4, !tbaa !82
  br i1 %cmp.i940, label %if.then418, label %cleanup462

if.then418:                                       ; preds = %cleanup.cont410
  %m_ForceAesMode = getelementptr inbounds %"class.NArchive::NZip::CHandler", ptr %this, i64 0, i32 16
  %139 = load i8, ptr %m_ForceAesMode, align 1, !tbaa !87, !range !53, !noundef !57
  %tobool419.not = icmp eq i8 %139, 0
  %m_IsAesMode = getelementptr inbounds %"class.NArchive::NZip::CHandler", ptr %this, i64 0, i32 17
  %140 = load i8, ptr %m_IsAesMode, align 2, !range !53
  %141 = and i8 %thereAreAesUpdates.31102, 1
  %cond.in = select i1 %tobool419.not, i8 %141, i8 %140
  store i8 %cond.in, ptr %IsAesMode.i, align 8, !tbaa !83
  %m_AesKeyMode = getelementptr inbounds %"class.NArchive::NZip::CHandler", ptr %this, i64 0, i32 18
  %142 = load i8, ptr %m_AesKeyMode, align 1, !tbaa !88
  store i8 %142, ptr %AesKeyMode.i, align 1, !tbaa !84
  %143 = load ptr, ptr %password, align 8, !tbaa !85
  br label %for.cond.i.i946

for.cond.i.i946:                                  ; preds = %for.cond.i.i946, %if.then418
  %indvars.iv.i.i942 = phi i64 [ %indvars.iv.next.i.i945, %for.cond.i.i946 ], [ 0, %if.then418 ]
  %arrayidx.i.i943 = getelementptr inbounds i32, ptr %143, i64 %indvars.iv.i.i942
  %144 = load i32, ptr %arrayidx.i.i943, align 4, !tbaa !42
  %cmp.not.i.i944 = icmp eq i32 %144, 0
  %indvars.iv.next.i.i945 = add nuw i64 %indvars.iv.i.i942, 1
  br i1 %cmp.not.i.i944, label %_Z11MyStringLenIwEiPKT_.exit.i949, label %for.cond.i.i946, !llvm.loop !50

_Z11MyStringLenIwEiPKT_.exit.i949:                ; preds = %for.cond.i.i946
  %145 = trunc i64 %indvars.iv.i.i942 to i32
  %add.i.i947 = add nsw i32 %145, 1
  %cmp.i.i948 = icmp eq i32 %add.i.i947, 0
  br i1 %cmp.i.i948, label %_ZN11CStringBaseIwE11SetCapacityEi.exit.i953, label %if.end9.i.i952

if.end9.i.i952:                                   ; preds = %_Z11MyStringLenIwEiPKT_.exit.i949
  %conv.i.i950 = zext i32 %add.i.i947 to i64
  %146 = icmp slt i32 %145, -1
  %147 = shl nuw nsw i64 %conv.i.i950, 2
  %148 = select i1 %146, i64 -1, i64 %147
  %call.i.i951960 = invoke noalias noundef nonnull ptr @_Znam(i64 noundef %148) #17
          to label %call.i.i951.noexc unwind label %lpad424

call.i.i951.noexc:                                ; preds = %if.end9.i.i952
  store i32 0, ptr %call.i.i951960, align 4, !tbaa !42
  br label %_ZN11CStringBaseIwE11SetCapacityEi.exit.i953

_ZN11CStringBaseIwE11SetCapacityEi.exit.i953:     ; preds = %call.i.i951.noexc, %_Z11MyStringLenIwEiPKT_.exit.i949
  %ref.tmp423.sroa.0.0 = phi ptr [ null, %_Z11MyStringLenIwEiPKT_.exit.i949 ], [ %call.i.i951960, %call.i.i951.noexc ]
  br label %while.cond.i.i958

while.cond.i.i958:                                ; preds = %while.cond.i.i958, %_ZN11CStringBaseIwE11SetCapacityEi.exit.i953
  %src.addr.0.i.i954 = phi ptr [ %143, %_ZN11CStringBaseIwE11SetCapacityEi.exit.i953 ], [ %incdec.ptr.i.i956, %while.cond.i.i958 ]
  %dest.addr.0.i.i955 = phi ptr [ %ref.tmp423.sroa.0.0, %_ZN11CStringBaseIwE11SetCapacityEi.exit.i953 ], [ %incdec.ptr1.i.i957, %while.cond.i.i958 ]
  %incdec.ptr.i.i956 = getelementptr inbounds i32, ptr %src.addr.0.i.i954, i64 1
  %149 = load i32, ptr %src.addr.0.i.i954, align 4, !tbaa !42
  %incdec.ptr1.i.i957 = getelementptr inbounds i32, ptr %dest.addr.0.i.i955, i64 1
  store i32 %149, ptr %dest.addr.0.i.i955, align 4, !tbaa !42
  %cmp.not.i10.i = icmp eq i32 %149, 0
  br i1 %cmp.not.i10.i, label %invoke.cont427, label %while.cond.i.i958, !llvm.loop !51

invoke.cont427:                                   ; preds = %while.cond.i.i958
  %cmp1.i = icmp slt i32 %145, 1
  br i1 %cmp1.i, label %invoke.cont429, label %for.body.preheader.i

for.body.preheader.i:                             ; preds = %invoke.cont427
  %150 = and i64 %indvars.iv.i.i942, 4294967295
  %151 = load i32, ptr %ref.tmp423.sroa.0.0, align 4, !tbaa !42
  %152 = add i32 %151, -32
  %or.cond.i1246 = icmp ult i32 %152, 96
  br i1 %or.cond.i1246, label %for.cond.i, label %cleanup462.critedge

for.cond.i:                                       ; preds = %for.body.preheader.i, %for.body.i
  %indvars.iv.i1247 = phi i64 [ %indvars.iv.next.i, %for.body.i ], [ 0, %for.body.preheader.i ]
  %indvars.iv.next.i = add nuw nsw i64 %indvars.iv.i1247, 1
  %exitcond.i = icmp eq i64 %indvars.iv.next.i, %150
  br i1 %exitcond.i, label %delete.notnull.i963.if.end435_crit_edge.sink.split, label %for.body.i, !llvm.loop !89

for.body.i:                                       ; preds = %for.cond.i
  %arrayidx.i = getelementptr inbounds i32, ptr %ref.tmp423.sroa.0.0, i64 %indvars.iv.next.i
  %153 = load i32, ptr %arrayidx.i, align 4, !tbaa !42
  %154 = add i32 %153, -32
  %or.cond.i = icmp ult i32 %154, 96
  br i1 %or.cond.i, label %for.cond.i, label %delete.notnull.i963, !llvm.loop !89

invoke.cont429:                                   ; preds = %invoke.cont427
  %isnull.i962 = icmp eq ptr %ref.tmp423.sroa.0.0, null
  br i1 %isnull.i962, label %if.end435, label %delete.notnull.i963.if.end435_crit_edge.sink.split

delete.notnull.i963:                              ; preds = %for.body.i
  %cmp.i961.le.not = icmp ult i64 %indvars.iv.next.i, %150
  call void @_ZdaPv(ptr noundef nonnull %ref.tmp423.sroa.0.0) #19
  br i1 %cmp.i961.le.not, label %cleanup462, label %delete.notnull.i963.if.end435_crit_edge

delete.notnull.i963.if.end435_crit_edge.sink.split: ; preds = %for.cond.i, %invoke.cont429
  call void @_ZdaPv(ptr noundef nonnull %ref.tmp423.sroa.0.0) #19
  br label %delete.notnull.i963.if.end435_crit_edge

delete.notnull.i963.if.end435_crit_edge:          ; preds = %delete.notnull.i963.if.end435_crit_edge.sink.split, %delete.notnull.i963
  %.pre1283 = load i8, ptr %IsAesMode.i, align 8, !tbaa !83, !range !53
  br label %if.end435

lpad424:                                          ; preds = %if.end9.i.i952
  %155 = landingpad { ptr, i32 }
          catch ptr @_ZTI16CSystemException
          catch ptr null
  br label %ehcleanup463

if.end435:                                        ; preds = %invoke.cont429, %delete.notnull.i963.if.end435_crit_edge
  %156 = phi i8 [ %.pre1283, %delete.notnull.i963.if.end435_crit_edge ], [ %cond.in, %invoke.cont429 ]
  %tobool437.not = icmp ne i8 %156, 0
  %_length.i968 = getelementptr inbounds %"struct.NArchive::NZip::CCompressionMethodMode", ptr %options, i64 0, i32 14, i32 1
  %157 = load i32, ptr %_length.i968, align 8
  %cmp441 = icmp ugt i32 %157, 99
  %or.cond1108 = select i1 %tobool437.not, i1 %cmp441, i1 false
  br i1 %or.cond1108, label %cleanup462, label %if.end444

if.end444:                                        ; preds = %if.end435
  call void @llvm.lifetime.start.p0(i64 16, ptr nonnull %ref.tmp445) #16
  call void @llvm.lifetime.start.p0(i64 16, ptr nonnull %ref.tmp446) #16
  %158 = load ptr, ptr %password, align 8, !tbaa !85
  call void @llvm.memset.p0.i64(ptr noundef nonnull align 8 dereferenceable(16) %ref.tmp446, i8 0, i64 16, i1 false)
  br label %for.cond.i.i974

for.cond.i.i974:                                  ; preds = %for.cond.i.i974, %if.end444
  %indvars.iv.i.i970 = phi i64 [ %indvars.iv.next.i.i973, %for.cond.i.i974 ], [ 0, %if.end444 ]
  %arrayidx.i.i971 = getelementptr inbounds i32, ptr %158, i64 %indvars.iv.i.i970
  %159 = load i32, ptr %arrayidx.i.i971, align 4, !tbaa !42
  %cmp.not.i.i972 = icmp eq i32 %159, 0
  %indvars.iv.next.i.i973 = add nuw i64 %indvars.iv.i.i970, 1
  br i1 %cmp.not.i.i972, label %_Z11MyStringLenIwEiPKT_.exit.i977, label %for.cond.i.i974, !llvm.loop !50

_Z11MyStringLenIwEiPKT_.exit.i977:                ; preds = %for.cond.i.i974
  %160 = trunc i64 %indvars.iv.i.i970 to i32
  %add.i.i975 = add nsw i32 %160, 1
  %cmp.i.i976 = icmp ne i32 %add.i.i975, 0
  call void @llvm.assume(i1 %cmp.i.i976)
  %conv.i.i978 = zext i32 %add.i.i975 to i64
  %161 = icmp slt i32 %160, -1
  %162 = shl nuw nsw i64 %conv.i.i978, 2
  %163 = select i1 %161, i64 -1, i64 %162
  %call.i.i979989 = invoke noalias noundef nonnull ptr @_Znam(i64 noundef %163) #17
          to label %call.i.i979.noexc unwind label %lpad447

call.i.i979.noexc:                                ; preds = %_Z11MyStringLenIwEiPKT_.exit.i977
  %_capacity.i969 = getelementptr inbounds %class.CStringBase.3, ptr %ref.tmp446, i64 0, i32 2
  store ptr %call.i.i979989, ptr %ref.tmp446, align 8, !tbaa !40
  store i32 0, ptr %call.i.i979989, align 4, !tbaa !42
  store i32 %add.i.i975, ptr %_capacity.i969, align 4, !tbaa !44
  br label %while.cond.i.i987

while.cond.i.i987:                                ; preds = %call.i.i979.noexc, %while.cond.i.i987
  %src.addr.0.i.i982 = phi ptr [ %incdec.ptr.i.i984, %while.cond.i.i987 ], [ %158, %call.i.i979.noexc ]
  %dest.addr.0.i.i983 = phi ptr [ %incdec.ptr1.i.i985, %while.cond.i.i987 ], [ %call.i.i979989, %call.i.i979.noexc ]
  %incdec.ptr.i.i984 = getelementptr inbounds i32, ptr %src.addr.0.i.i982, i64 1
  %164 = load i32, ptr %src.addr.0.i.i982, align 4, !tbaa !42
  %incdec.ptr1.i.i985 = getelementptr inbounds i32, ptr %dest.addr.0.i.i983, i64 1
  store i32 %164, ptr %dest.addr.0.i.i983, align 4, !tbaa !42
  %cmp.not.i10.i986 = icmp eq i32 %164, 0
  br i1 %cmp.not.i10.i986, label %invoke.cont450, label %while.cond.i.i987, !llvm.loop !51

invoke.cont450:                                   ; preds = %while.cond.i.i987
  %_length.i988 = getelementptr inbounds %class.CStringBase.3, ptr %ref.tmp446, i64 0, i32 1
  store i32 %160, ptr %_length.i988, align 8, !tbaa !49
  invoke void @_Z24UnicodeStringToMultiByteRK11CStringBaseIwEj(ptr nonnull sret(%class.CStringBase) align 8 %ref.tmp445, ptr noundef nonnull align 8 dereferenceable(16) %ref.tmp446, i32 noundef 1)
          to label %invoke.cont452 unwind label %lpad451

invoke.cont452:                                   ; preds = %invoke.cont450
  store i32 0, ptr %_length.i968, align 8, !tbaa !73
  %165 = load ptr, ptr %Password.i, align 8, !tbaa !24
  store i8 0, ptr %165, align 1, !tbaa !25
  %_length.i992 = getelementptr inbounds %class.CStringBase, ptr %ref.tmp445, i64 0, i32 1
  %166 = load i32, ptr %_length.i992, align 8, !tbaa !73
  %add.i.i993 = add nsw i32 %166, 1
  %167 = load i32, ptr %_capacity.i7.i, align 4, !tbaa !26
  %cmp.i.i995 = icmp eq i32 %add.i.i993, %167
  br i1 %cmp.i.i995, label %if.end._ZN11CStringBaseIcE11SetCapacityEi.exit_crit_edge.i, label %if.end.i.i1000

if.end._ZN11CStringBaseIcE11SetCapacityEi.exit_crit_edge.i: ; preds = %invoke.cont452
  %.pre.i996 = load ptr, ptr %Password.i, align 8, !tbaa !24
  br label %_ZN11CStringBaseIcE11SetCapacityEi.exit.i

if.end.i.i1000:                                   ; preds = %invoke.cont452
  %conv.i.i997 = sext i32 %add.i.i993 to i64
  %call.i.i9981015 = invoke noalias noundef nonnull ptr @_Znam(i64 noundef %conv.i.i997) #17
          to label %call.i.i998.noexc unwind label %lpad454

call.i.i998.noexc:                                ; preds = %if.end.i.i1000
  %call.i.i99810151358 = ptrtoint ptr %call.i.i9981015 to i64
  %cmp3.i.i999 = icmp sgt i32 %167, 0
  br i1 %cmp3.i.i999, label %for.cond.preheader.i.i, label %if.end9.i.i1008

for.cond.preheader.i.i:                           ; preds = %call.i.i998.noexc
  %168 = load i32, ptr %_length.i968, align 8, !tbaa !73
  %cmp522.i.i = icmp sgt i32 %168, 0
  %169 = load ptr, ptr %Password.i, align 8, !tbaa !24
  br i1 %cmp522.i.i, label %iter.check, label %for.cond.cleanup.i.i

iter.check:                                       ; preds = %for.cond.preheader.i.i
  %170 = ptrtoint ptr %169 to i64
  %wide.trip.count.i.i = zext i32 %168 to i64
  %min.iters.check = icmp ult i32 %168, 8
  %171 = sub i64 %call.i.i99810151358, %170
  %diff.check = icmp ult i64 %171, 32
  %or.cond1367 = select i1 %min.iters.check, i1 true, i1 %diff.check
  br i1 %or.cond1367, label %for.body.i.i.preheader, label %vector.main.loop.iter.check

vector.main.loop.iter.check:                      ; preds = %iter.check
  %min.iters.check1359 = icmp ult i32 %168, 32
  br i1 %min.iters.check1359, label %vec.epilog.ph, label %vector.ph

vector.ph:                                        ; preds = %vector.main.loop.iter.check
  %n.vec = and i64 %wide.trip.count.i.i, 4294967264
  br label %vector.body

vector.body:                                      ; preds = %vector.body, %vector.ph
  %index = phi i64 [ 0, %vector.ph ], [ %index.next, %vector.body ]
  %172 = getelementptr inbounds i8, ptr %169, i64 %index
  %wide.load = load <16 x i8>, ptr %172, align 1, !tbaa !25
  %173 = getelementptr inbounds i8, ptr %172, i64 16
  %wide.load1360 = load <16 x i8>, ptr %173, align 1, !tbaa !25
  %174 = getelementptr inbounds i8, ptr %call.i.i9981015, i64 %index
  store <16 x i8> %wide.load, ptr %174, align 1, !tbaa !25
  %175 = getelementptr inbounds i8, ptr %174, i64 16
  store <16 x i8> %wide.load1360, ptr %175, align 1, !tbaa !25
  %index.next = add nuw i64 %index, 32
  %176 = icmp eq i64 %index.next, %n.vec
  br i1 %176, label %middle.block, label %vector.body, !llvm.loop !90

middle.block:                                     ; preds = %vector.body
  %cmp.n = icmp eq i64 %n.vec, %wide.trip.count.i.i
  br i1 %cmp.n, label %delete.notnull.i.i1005, label %vec.epilog.iter.check

vec.epilog.iter.check:                            ; preds = %middle.block
  %n.vec.remaining = and i64 %wide.trip.count.i.i, 24
  %min.epilog.iters.check = icmp eq i64 %n.vec.remaining, 0
  br i1 %min.epilog.iters.check, label %for.body.i.i.preheader, label %vec.epilog.ph

vec.epilog.ph:                                    ; preds = %vector.main.loop.iter.check, %vec.epilog.iter.check
  %vec.epilog.resume.val = phi i64 [ %n.vec, %vec.epilog.iter.check ], [ 0, %vector.main.loop.iter.check ]
  %n.vec1362 = and i64 %wide.trip.count.i.i, 4294967288
  br label %vec.epilog.vector.body

vec.epilog.vector.body:                           ; preds = %vec.epilog.vector.body, %vec.epilog.ph
  %index1364 = phi i64 [ %vec.epilog.resume.val, %vec.epilog.ph ], [ %index.next1366, %vec.epilog.vector.body ]
  %177 = getelementptr inbounds i8, ptr %169, i64 %index1364
  %wide.load1365 = load <8 x i8>, ptr %177, align 1, !tbaa !25
  %178 = getelementptr inbounds i8, ptr %call.i.i9981015, i64 %index1364
  store <8 x i8> %wide.load1365, ptr %178, align 1, !tbaa !25
  %index.next1366 = add nuw i64 %index1364, 8
  %179 = icmp eq i64 %index.next1366, %n.vec1362
  br i1 %179, label %vec.epilog.middle.block, label %vec.epilog.vector.body, !llvm.loop !93

vec.epilog.middle.block:                          ; preds = %vec.epilog.vector.body
  %cmp.n1363 = icmp eq i64 %n.vec1362, %wide.trip.count.i.i
  br i1 %cmp.n1363, label %delete.notnull.i.i1005, label %for.body.i.i.preheader

for.body.i.i.preheader:                           ; preds = %iter.check, %vec.epilog.iter.check, %vec.epilog.middle.block
  %indvars.iv.i.i1002.ph = phi i64 [ 0, %iter.check ], [ %n.vec, %vec.epilog.iter.check ], [ %n.vec1362, %vec.epilog.middle.block ]
  %180 = xor i64 %indvars.iv.i.i1002.ph, -1
  %181 = add nsw i64 %180, %wide.trip.count.i.i
  %xtraiter = and i64 %wide.trip.count.i.i, 3
  %lcmp.mod.not = icmp eq i64 %xtraiter, 0
  br i1 %lcmp.mod.not, label %for.body.i.i.prol.loopexit, label %for.body.i.i.prol

for.body.i.i.prol:                                ; preds = %for.body.i.i.preheader, %for.body.i.i.prol
  %indvars.iv.i.i1002.prol = phi i64 [ %indvars.iv.next.i.i1004.prol, %for.body.i.i.prol ], [ %indvars.iv.i.i1002.ph, %for.body.i.i.preheader ]
  %prol.iter = phi i64 [ %prol.iter.next, %for.body.i.i.prol ], [ 0, %for.body.i.i.preheader ]
  %arrayidx.i.i1003.prol = getelementptr inbounds i8, ptr %169, i64 %indvars.iv.i.i1002.prol
  %182 = load i8, ptr %arrayidx.i.i1003.prol, align 1, !tbaa !25
  %arrayidx7.i.i.prol = getelementptr inbounds i8, ptr %call.i.i9981015, i64 %indvars.iv.i.i1002.prol
  store i8 %182, ptr %arrayidx7.i.i.prol, align 1, !tbaa !25
  %indvars.iv.next.i.i1004.prol = add nuw nsw i64 %indvars.iv.i.i1002.prol, 1
  %prol.iter.next = add i64 %prol.iter, 1
  %prol.iter.cmp.not = icmp eq i64 %prol.iter.next, %xtraiter
  br i1 %prol.iter.cmp.not, label %for.body.i.i.prol.loopexit, label %for.body.i.i.prol, !llvm.loop !94

for.body.i.i.prol.loopexit:                       ; preds = %for.body.i.i.prol, %for.body.i.i.preheader
  %indvars.iv.i.i1002.unr = phi i64 [ %indvars.iv.i.i1002.ph, %for.body.i.i.preheader ], [ %indvars.iv.next.i.i1004.prol, %for.body.i.i.prol ]
  %183 = icmp ult i64 %181, 3
  br i1 %183, label %delete.notnull.i.i1005, label %for.body.i.i

for.cond.cleanup.i.i:                             ; preds = %for.cond.preheader.i.i
  %isnull.i.i1001 = icmp eq ptr %169, null
  br i1 %isnull.i.i1001, label %if.end9.i.i1008, label %delete.notnull.i.i1005

for.body.i.i:                                     ; preds = %for.body.i.i.prol.loopexit, %for.body.i.i
  %indvars.iv.i.i1002 = phi i64 [ %indvars.iv.next.i.i1004.3, %for.body.i.i ], [ %indvars.iv.i.i1002.unr, %for.body.i.i.prol.loopexit ]
  %arrayidx.i.i1003 = getelementptr inbounds i8, ptr %169, i64 %indvars.iv.i.i1002
  %184 = load i8, ptr %arrayidx.i.i1003, align 1, !tbaa !25
  %arrayidx7.i.i = getelementptr inbounds i8, ptr %call.i.i9981015, i64 %indvars.iv.i.i1002
  store i8 %184, ptr %arrayidx7.i.i, align 1, !tbaa !25
  %indvars.iv.next.i.i1004 = add nuw nsw i64 %indvars.iv.i.i1002, 1
  %arrayidx.i.i1003.1 = getelementptr inbounds i8, ptr %169, i64 %indvars.iv.next.i.i1004
  %185 = load i8, ptr %arrayidx.i.i1003.1, align 1, !tbaa !25
  %arrayidx7.i.i.1 = getelementptr inbounds i8, ptr %call.i.i9981015, i64 %indvars.iv.next.i.i1004
  store i8 %185, ptr %arrayidx7.i.i.1, align 1, !tbaa !25
  %indvars.iv.next.i.i1004.1 = add nuw nsw i64 %indvars.iv.i.i1002, 2
  %arrayidx.i.i1003.2 = getelementptr inbounds i8, ptr %169, i64 %indvars.iv.next.i.i1004.1
  %186 = load i8, ptr %arrayidx.i.i1003.2, align 1, !tbaa !25
  %arrayidx7.i.i.2 = getelementptr inbounds i8, ptr %call.i.i9981015, i64 %indvars.iv.next.i.i1004.1
  store i8 %186, ptr %arrayidx7.i.i.2, align 1, !tbaa !25
  %indvars.iv.next.i.i1004.2 = add nuw nsw i64 %indvars.iv.i.i1002, 3
  %arrayidx.i.i1003.3 = getelementptr inbounds i8, ptr %169, i64 %indvars.iv.next.i.i1004.2
  %187 = load i8, ptr %arrayidx.i.i1003.3, align 1, !tbaa !25
  %arrayidx7.i.i.3 = getelementptr inbounds i8, ptr %call.i.i9981015, i64 %indvars.iv.next.i.i1004.2
  store i8 %187, ptr %arrayidx7.i.i.3, align 1, !tbaa !25
  %indvars.iv.next.i.i1004.3 = add nuw nsw i64 %indvars.iv.i.i1002, 4
  %exitcond.not.i.i.3 = icmp eq i64 %indvars.iv.next.i.i1004.3, %wide.trip.count.i.i
  br i1 %exitcond.not.i.i.3, label %delete.notnull.i.i1005, label %for.body.i.i, !llvm.loop !96

delete.notnull.i.i1005:                           ; preds = %for.body.i.i.prol.loopexit, %for.body.i.i, %middle.block, %vec.epilog.middle.block, %for.cond.cleanup.i.i
  call void @_ZdaPv(ptr noundef nonnull %169) #19
  br label %if.end9.i.i1008

if.end9.i.i1008:                                  ; preds = %delete.notnull.i.i1005, %for.cond.cleanup.i.i, %call.i.i998.noexc
  store ptr %call.i.i9981015, ptr %Password.i, align 8, !tbaa !24
  %188 = load i32, ptr %_length.i968, align 8, !tbaa !73
  %idxprom13.i.i1006 = sext i32 %188 to i64
  %arrayidx14.i.i1007 = getelementptr inbounds i8, ptr %call.i.i9981015, i64 %idxprom13.i.i1006
  store i8 0, ptr %arrayidx14.i.i1007, align 1, !tbaa !25
  store i32 %add.i.i993, ptr %_capacity.i7.i, align 4, !tbaa !26
  br label %_ZN11CStringBaseIcE11SetCapacityEi.exit.i

_ZN11CStringBaseIcE11SetCapacityEi.exit.i:        ; preds = %if.end9.i.i1008, %if.end._ZN11CStringBaseIcE11SetCapacityEi.exit_crit_edge.i
  %189 = phi ptr [ %.pre.i996, %if.end._ZN11CStringBaseIcE11SetCapacityEi.exit_crit_edge.i ], [ %call.i.i9981015, %if.end9.i.i1008 ]
  %190 = load ptr, ptr %ref.tmp445, align 8, !tbaa !24
  br label %while.cond.i.i1014

while.cond.i.i1014:                               ; preds = %while.cond.i.i1014, %_ZN11CStringBaseIcE11SetCapacityEi.exit.i
  %src.addr.0.i.i1009 = phi ptr [ %190, %_ZN11CStringBaseIcE11SetCapacityEi.exit.i ], [ %incdec.ptr.i.i1011, %while.cond.i.i1014 ]
  %dest.addr.0.i.i1010 = phi ptr [ %189, %_ZN11CStringBaseIcE11SetCapacityEi.exit.i ], [ %incdec.ptr1.i.i1012, %while.cond.i.i1014 ]
  %incdec.ptr.i.i1011 = getelementptr inbounds i8, ptr %src.addr.0.i.i1009, i64 1
  %191 = load i8, ptr %src.addr.0.i.i1009, align 1, !tbaa !25
  %incdec.ptr1.i.i1012 = getelementptr inbounds i8, ptr %dest.addr.0.i.i1010, i64 1
  store i8 %191, ptr %dest.addr.0.i.i1010, align 1, !tbaa !25
  %cmp.not.i.i1013 = icmp eq i8 %191, 0
  br i1 %cmp.not.i.i1013, label %invoke.cont455, label %while.cond.i.i1014, !llvm.loop !75

invoke.cont455:                                   ; preds = %while.cond.i.i1014
  %192 = load i32, ptr %_length.i992, align 8, !tbaa !73
  store i32 %192, ptr %_length.i968, align 8, !tbaa !73
  %193 = load ptr, ptr %ref.tmp445, align 8, !tbaa !24
  %isnull.i1016 = icmp eq ptr %193, null
  br i1 %isnull.i1016, label %_ZN11CStringBaseIcED2Ev.exit1018, label %delete.notnull.i1017

delete.notnull.i1017:                             ; preds = %invoke.cont455
  call void @_ZdaPv(ptr noundef nonnull %193) #19
  br label %_ZN11CStringBaseIcED2Ev.exit1018

_ZN11CStringBaseIcED2Ev.exit1018:                 ; preds = %invoke.cont455, %delete.notnull.i1017
  %194 = load ptr, ptr %ref.tmp446, align 8, !tbaa !40
  %isnull.i1019 = icmp eq ptr %194, null
  br i1 %isnull.i1019, label %_ZN11CStringBaseIwED2Ev.exit1021, label %delete.notnull.i1020

delete.notnull.i1020:                             ; preds = %_ZN11CStringBaseIcED2Ev.exit1018
  call void @_ZdaPv(ptr noundef nonnull %194) #19
  br label %_ZN11CStringBaseIwED2Ev.exit1021

_ZN11CStringBaseIwED2Ev.exit1021:                 ; preds = %_ZN11CStringBaseIcED2Ev.exit1018, %delete.notnull.i1020
  call void @llvm.lifetime.end.p0(i64 16, ptr nonnull %ref.tmp446) #16
  call void @llvm.lifetime.end.p0(i64 16, ptr nonnull %ref.tmp445) #16
  br label %cleanup462

lpad447:                                          ; preds = %_Z11MyStringLenIwEiPKT_.exit.i977
  %195 = landingpad { ptr, i32 }
          catch ptr @_ZTI16CSystemException
          catch ptr null
  br label %ehcleanup459

lpad451:                                          ; preds = %invoke.cont450
  %196 = landingpad { ptr, i32 }
          catch ptr @_ZTI16CSystemException
          catch ptr null
  br label %ehcleanup458

lpad454:                                          ; preds = %if.end.i.i1000
  %197 = landingpad { ptr, i32 }
          catch ptr @_ZTI16CSystemException
          catch ptr null
  %198 = load ptr, ptr %ref.tmp445, align 8, !tbaa !24
  %isnull.i1022 = icmp eq ptr %198, null
  br i1 %isnull.i1022, label %ehcleanup458, label %delete.notnull.i1023

delete.notnull.i1023:                             ; preds = %lpad454
  call void @_ZdaPv(ptr noundef nonnull %198) #19
  br label %ehcleanup458

ehcleanup458:                                     ; preds = %delete.notnull.i1023, %lpad454, %lpad451
  %.pn806 = phi { ptr, i32 } [ %196, %lpad451 ], [ %197, %lpad454 ], [ %197, %delete.notnull.i1023 ]
  %199 = load ptr, ptr %ref.tmp446, align 8, !tbaa !40
  %isnull.i1025 = icmp eq ptr %199, null
  br i1 %isnull.i1025, label %ehcleanup459, label %delete.notnull.i1026

delete.notnull.i1026:                             ; preds = %ehcleanup458
  call void @_ZdaPv(ptr noundef nonnull %199) #19
  br label %ehcleanup459

ehcleanup459:                                     ; preds = %delete.notnull.i1026, %ehcleanup458, %lpad447
  %.pn806.pn = phi { ptr, i32 } [ %195, %lpad447 ], [ %.pn806, %ehcleanup458 ], [ %.pn806, %delete.notnull.i1026 ]
  call void @llvm.lifetime.end.p0(i64 16, ptr nonnull %ref.tmp446) #16
  call void @llvm.lifetime.end.p0(i64 16, ptr nonnull %ref.tmp445) #16
  br label %ehcleanup463

cleanup462.critedge:                              ; preds = %for.body.preheader.i
  call void @_ZdaPv(ptr noundef nonnull %ref.tmp423.sroa.0.0) #19
  br label %cleanup462

cleanup462:                                       ; preds = %cleanup462.critedge, %if.end435, %delete.notnull.i963, %cleanup.cont410, %_ZN11CStringBaseIwED2Ev.exit1021, %invoke.cont403
  %cond690 = phi i1 [ false, %invoke.cont403 ], [ true, %_ZN11CStringBaseIwED2Ev.exit1021 ], [ true, %cleanup.cont410 ], [ false, %delete.notnull.i963 ], [ false, %if.end435 ], [ false, %cleanup462.critedge ]
  %retval.26 = phi i32 [ %call404, %invoke.cont403 ], [ %retval.24.call404, %_ZN11CStringBaseIwED2Ev.exit1021 ], [ %retval.241103, %cleanup.cont410 ], [ -2147024809, %delete.notnull.i963 ], [ -2147024809, %if.end435 ], [ -2147024809, %cleanup462.critedge ]
  call void @llvm.lifetime.end.p0(i64 4, ptr nonnull %passwordIsDefined) #16
  %200 = load ptr, ptr %password, align 8, !tbaa !85
  invoke void @SysFreeString(ptr noundef %200)
          to label %_ZN10CMyComBSTRD2Ev.exit unwind label %terminate.lpad.i1029

terminate.lpad.i1029:                             ; preds = %cleanup462
  %201 = landingpad { ptr, i32 }
          catch ptr null
  %202 = extractvalue { ptr, i32 } %201, 0
  call void @__clang_call_terminate(ptr %202) #18
  unreachable

_ZN10CMyComBSTRD2Ev.exit:                         ; preds = %cleanup462
  call void @llvm.lifetime.end.p0(i64 8, ptr nonnull %password) #16
  br i1 %cond690, label %if.end472, label %cleanup669

ehcleanup463:                                     ; preds = %lpad424, %ehcleanup459, %lpad396
  %.pn806.pn.pn = phi { ptr, i32 } [ %.pn806.pn, %ehcleanup459 ], [ %137, %lpad396 ], [ %155, %lpad424 ]
  call void @llvm.lifetime.end.p0(i64 4, ptr nonnull %passwordIsDefined) #16
  %203 = load ptr, ptr %password, align 8, !tbaa !85
  invoke void @SysFreeString(ptr noundef %203)
          to label %_ZN10CMyComBSTRD2Ev.exit1032 unwind label %terminate.lpad.i1031

terminate.lpad.i1031:                             ; preds = %ehcleanup463
  %204 = landingpad { ptr, i32 }
          catch ptr null
  %205 = extractvalue { ptr, i32 } %204, 0
  call void @__clang_call_terminate(ptr %205) #18
  unreachable

_ZN10CMyComBSTRD2Ev.exit1032:                     ; preds = %ehcleanup463
  call void @llvm.lifetime.end.p0(i64 8, ptr nonnull %password) #16
  br label %ehcleanup670

if.else470:                                       ; preds = %invoke.cont387
  store i8 0, ptr %PasswordIsDefined.i, align 4, !tbaa !82
  br label %if.end472

if.end472:                                        ; preds = %_ZN10CMyComBSTRD2Ev.exit, %if.else470
  %m_Level = getelementptr inbounds %"class.NArchive::NZip::CHandler", ptr %this, i64 0, i32 6
  %206 = load i32, ptr %m_Level, align 8, !tbaa !97
  %cmp473 = icmp slt i32 %206, 0
  %spec.store.select = select i1 %cmp473, i32 5, i32 %206
  %m_MainMethod = getelementptr inbounds %"class.NArchive::NZip::CHandler", ptr %this, i64 0, i32 7
  %207 = load i32, ptr %m_MainMethod, align 4, !tbaa !98
  %cmp476 = icmp slt i32 %207, 0
  %cmp478 = icmp eq i32 %spec.store.select, 0
  %cond479 = select i1 %cmp478, i32 0, i32 8
  %mainMethod.0.in = select i1 %cmp476, i32 %cond479, i32 %207
  invoke void @_ZN17CBaseRecordVector18ReserveOnePositionEv(ptr noundef nonnull align 8 dereferenceable(32) %options)
          to label %invoke.cont486 unwind label %lpad485

invoke.cont486:                                   ; preds = %if.end472
  %mainMethod.0 = trunc i32 %mainMethod.0.in to i8
  %_items.i = getelementptr inbounds %class.CBaseRecordVector, ptr %options, i64 0, i32 3
  %208 = load ptr, ptr %_items.i, align 8, !tbaa !31
  %_size.i = getelementptr inbounds %class.CBaseRecordVector, ptr %options, i64 0, i32 2
  %209 = load i32, ptr %_size.i, align 4, !tbaa !76
  %idxprom.i = sext i32 %209 to i64
  %arrayidx.i1033 = getelementptr inbounds i8, ptr %208, i64 %idxprom.i
  store i8 %mainMethod.0, ptr %arrayidx.i1033, align 1, !tbaa !25
  %210 = load i32, ptr %_size.i, align 4, !tbaa !76
  %inc.i = add nsw i32 %210, 1
  store i32 %inc.i, ptr %_size.i, align 4, !tbaa !76
  %conv488 = and i32 %mainMethod.0.in, 255
  %cmp489.not = icmp eq i32 %conv488, 0
  br i1 %cmp489.not, label %if.end494, label %if.then490

if.then490:                                       ; preds = %invoke.cont486
  invoke void @_ZN17CBaseRecordVector18ReserveOnePositionEv(ptr noundef nonnull align 8 dereferenceable(32) %options)
          to label %_ZN13CRecordVectorIhE3AddEh.exit1039 unwind label %lpad485

_ZN13CRecordVectorIhE3AddEh.exit1039:             ; preds = %if.then490
  %211 = load ptr, ptr %_items.i, align 8, !tbaa !31
  %212 = load i32, ptr %_size.i, align 4, !tbaa !76
  %idxprom.i1036 = sext i32 %212 to i64
  %arrayidx.i1037 = getelementptr inbounds i8, ptr %211, i64 %idxprom.i1036
  store i8 0, ptr %arrayidx.i1037, align 1, !tbaa !25
  %213 = load i32, ptr %_size.i, align 4, !tbaa !76
  %inc.i1038 = add nsw i32 %213, 1
  store i32 %inc.i1038, ptr %_size.i, align 4, !tbaa !76
  br label %if.end494

lpad485:                                          ; preds = %if.then490, %if.end472
  %214 = landingpad { ptr, i32 }
          catch ptr @_ZTI16CSystemException
          catch ptr null
  br label %ehcleanup670

if.end494:                                        ; preds = %_ZN13CRecordVectorIhE3AddEh.exit1039, %invoke.cont486
  %215 = and i32 %mainMethod.0.in, 254
  %216 = icmp eq i32 %215, 8
  %cmp501 = icmp eq i32 %conv488, 14
  %217 = or i1 %cmp501, %216
  %m_NumPasses = getelementptr inbounds %"class.NArchive::NZip::CHandler", ptr %this, i64 0, i32 10
  %218 = load i32, ptr %m_NumPasses, align 8, !tbaa !99
  %NumPasses = getelementptr inbounds %"struct.NArchive::NZip::CCompressionMethodMode", ptr %options, i64 0, i32 3
  store i32 %218, ptr %NumPasses, align 4, !tbaa !100
  %m_DicSize = getelementptr inbounds %"class.NArchive::NZip::CHandler", ptr %this, i64 0, i32 8
  %219 = load i32, ptr %m_DicSize, align 8, !tbaa !101
  %DicSize = getelementptr inbounds %"struct.NArchive::NZip::CCompressionMethodMode", ptr %options, i64 0, i32 8
  store i32 %219, ptr %DicSize, align 4, !tbaa !102
  %m_NumFastBytes = getelementptr inbounds %"class.NArchive::NZip::CHandler", ptr %this, i64 0, i32 11
  %220 = load i32, ptr %m_NumFastBytes, align 4, !tbaa !103
  %NumFastBytes = getelementptr inbounds %"struct.NArchive::NZip::CCompressionMethodMode", ptr %options, i64 0, i32 4
  store i32 %220, ptr %NumFastBytes, align 8, !tbaa !104
  %m_NumMatchFinderCycles = getelementptr inbounds %"class.NArchive::NZip::CHandler", ptr %this, i64 0, i32 12
  %221 = load i32, ptr %m_NumMatchFinderCycles, align 8, !tbaa !105
  %NumMatchFinderCycles = getelementptr inbounds %"struct.NArchive::NZip::CCompressionMethodMode", ptr %options, i64 0, i32 7
  store i32 %221, ptr %NumMatchFinderCycles, align 8, !tbaa !106
  %m_NumMatchFinderCyclesDefined = getelementptr inbounds %"class.NArchive::NZip::CHandler", ptr %this, i64 0, i32 15
  %222 = load i8, ptr %m_NumMatchFinderCyclesDefined, align 4, !tbaa !107, !range !53, !noundef !57
  store i8 %222, ptr %NumMatchFinderCyclesDefined.i, align 4, !tbaa !79
  %m_Algo = getelementptr inbounds %"class.NArchive::NZip::CHandler", ptr %this, i64 0, i32 9
  %223 = load i32, ptr %m_Algo, align 4, !tbaa !108
  %Algo = getelementptr inbounds %"struct.NArchive::NZip::CCompressionMethodMode", ptr %options, i64 0, i32 2
  store i32 %223, ptr %Algo, align 8, !tbaa !109
  %m_MemSize = getelementptr inbounds %"class.NArchive::NZip::CHandler", ptr %this, i64 0, i32 13
  %MemSize = getelementptr inbounds %"struct.NArchive::NZip::CCompressionMethodMode", ptr %options, i64 0, i32 9
  %Order = getelementptr inbounds %"struct.NArchive::NZip::CCompressionMethodMode", ptr %options, i64 0, i32 10
  %224 = load <2 x i32>, ptr %m_MemSize, align 4, !tbaa !5
  store <2 x i32> %224, ptr %MemSize, align 8, !tbaa !5
  %_numThreads = getelementptr inbounds %"class.NArchive::NZip::CHandler", ptr %this, i64 0, i32 22
  %225 = load i32, ptr %_numThreads, align 4, !tbaa !110
  %NumThreads = getelementptr inbounds %"struct.NArchive::NZip::CCompressionMethodMode", ptr %options, i64 0, i32 11
  store i32 %225, ptr %NumThreads, align 8, !tbaa !111
  br i1 %217, label %if.then511, label %if.end587

if.then511:                                       ; preds = %if.end494
  br i1 %216, label %if.then513, label %if.else538

if.then513:                                       ; preds = %if.then511
  %cmp515 = icmp eq i32 %218, -1
  br i1 %cmp515, label %if.then516, label %if.end525

if.then516:                                       ; preds = %if.then513
  %cmp517 = icmp ugt i32 %spec.store.select, 8
  %cmp520 = icmp ugt i32 %spec.store.select, 6
  %cond521 = select i1 %cmp520, i32 3, i32 1
  %cond523 = select i1 %cmp517, i32 10, i32 %cond521
  store i32 %cond523, ptr %NumPasses, align 4, !tbaa !100
  br label %if.end525

if.end525:                                        ; preds = %if.then516, %if.then513
  %cmp527 = icmp eq i32 %220, -1
  br i1 %cmp527, label %if.then528, label %if.end579

if.then528:                                       ; preds = %if.end525
  %cmp529 = icmp ugt i32 %spec.store.select, 8
  %cmp532 = icmp ugt i32 %spec.store.select, 6
  %cond533 = select i1 %cmp532, i32 64, i32 32
  %cond535 = select i1 %cmp529, i32 128, i32 %cond533
  store i32 %cond535, ptr %NumFastBytes, align 8, !tbaa !104
  br label %if.end579

if.else538:                                       ; preds = %if.then511
  br i1 %cmp501, label %if.then540, label %if.end579

if.then540:                                       ; preds = %if.else538
  %cmp542 = icmp eq i32 %219, -1
  br i1 %cmp542, label %if.then543, label %if.end562

if.then543:                                       ; preds = %if.then540
  %cmp544 = icmp ugt i32 %spec.store.select, 8
  br i1 %cmp544, label %cond.end559, label %cond.false546

cond.false546:                                    ; preds = %if.then543
  %cmp547 = icmp ugt i32 %spec.store.select, 6
  br i1 %cmp547, label %cond.end559, label %cond.false549

cond.false549:                                    ; preds = %cond.false546
  %cmp550 = icmp ugt i32 %spec.store.select, 4
  br i1 %cmp550, label %cond.end559, label %cond.false552

cond.false552:                                    ; preds = %cond.false549
  %cmp553 = icmp ugt i32 %spec.store.select, 2
  %cond554 = select i1 %cmp553, i32 1048576, i32 65536
  br label %cond.end559

cond.end559:                                      ; preds = %cond.false546, %cond.false549, %cond.false552, %if.then543
  %cond560 = phi i32 [ 67108864, %if.then543 ], [ 33554432, %cond.false546 ], [ %cond554, %cond.false552 ], [ 16777216, %cond.false549 ]
  store i32 %cond560, ptr %DicSize, align 4, !tbaa !102
  br label %if.end562

if.end562:                                        ; preds = %cond.end559, %if.then540
  %cmp564 = icmp eq i32 %220, -1
  br i1 %cmp564, label %if.then565, label %if.end569

if.then565:                                       ; preds = %if.end562
  %cmp566 = icmp ugt i32 %spec.store.select, 6
  %cond567 = select i1 %cmp566, i32 64, i32 32
  store i32 %cond567, ptr %NumFastBytes, align 8, !tbaa !104
  br label %if.end569

if.end569:                                        ; preds = %if.then565, %if.end562
  %cmp570 = icmp ugt i32 %spec.store.select, 4
  %cond574 = select i1 %cmp570, ptr @.str.22, ptr @.str.23
  %_length.i.i1040 = getelementptr inbounds %"struct.NArchive::NZip::CCompressionMethodMode", ptr %options, i64 0, i32 1, i32 1
  store i32 0, ptr %_length.i.i1040, align 8, !tbaa !49
  %226 = load ptr, ptr %MatchFinder.i, align 8, !tbaa !40
  store i32 0, ptr %226, align 4, !tbaa !42
  br label %for.cond.i.i1045

for.cond.i.i1045:                                 ; preds = %for.cond.i.i1045, %if.end569
  %indvars.iv.i.i1041 = phi i64 [ %indvars.iv.next.i.i1044, %for.cond.i.i1045 ], [ 0, %if.end569 ]
  %arrayidx.i.i1042 = getelementptr inbounds i32, ptr %cond574, i64 %indvars.iv.i.i1041
  %227 = load i32, ptr %arrayidx.i.i1042, align 4, !tbaa !42
  %cmp.not.i.i1043 = icmp eq i32 %227, 0
  %indvars.iv.next.i.i1044 = add nuw i64 %indvars.iv.i.i1041, 1
  br i1 %cmp.not.i.i1043, label %_Z11MyStringLenIwEiPKT_.exit.i1049, label %for.cond.i.i1045, !llvm.loop !50

_Z11MyStringLenIwEiPKT_.exit.i1049:               ; preds = %for.cond.i.i1045
  %228 = trunc i64 %indvars.iv.i.i1041 to i32
  %add.i.i1046 = add nsw i32 %228, 1
  %229 = load i32, ptr %_capacity.i.i929, align 4, !tbaa !44
  %cmp.i.i1048 = icmp eq i32 %add.i.i1046, %229
  br i1 %cmp.i.i1048, label %while.cond.i.i1065.preheader, label %if.end.i.i1053

if.end.i.i1053:                                   ; preds = %_Z11MyStringLenIwEiPKT_.exit.i1049
  %conv.i.i1050 = zext i32 %add.i.i1046 to i64
  %230 = icmp slt i32 %228, -1
  %231 = shl nuw nsw i64 %conv.i.i1050, 2
  %232 = select i1 %230, i64 -1, i64 %231
  %call.i.i10511066 = invoke noalias noundef nonnull ptr @_Znam(i64 noundef %232) #17
          to label %call.i.i1051.noexc unwind label %lpad575

call.i.i1051.noexc:                               ; preds = %if.end.i.i1053
  %cmp3.i.i1052 = icmp sgt i32 %229, 0
  br i1 %cmp3.i.i1052, label %delete.notnull.i.i1055, label %if.end9.i.i1058

delete.notnull.i.i1055:                           ; preds = %call.i.i1051.noexc
  call void @_ZdaPv(ptr noundef nonnull %226) #19
  %.pre.i1054 = load i32, ptr %_length.i.i1040, align 8, !tbaa !49
  %233 = sext i32 %.pre.i1054 to i64
  br label %if.end9.i.i1058

if.end9.i.i1058:                                  ; preds = %delete.notnull.i.i1055, %call.i.i1051.noexc
  %idxprom13.i.i1056 = phi i64 [ %233, %delete.notnull.i.i1055 ], [ 0, %call.i.i1051.noexc ]
  store ptr %call.i.i10511066, ptr %MatchFinder.i, align 8, !tbaa !40
  %arrayidx14.i.i1057 = getelementptr inbounds i32, ptr %call.i.i10511066, i64 %idxprom13.i.i1056
  store i32 0, ptr %arrayidx14.i.i1057, align 4, !tbaa !42
  store i32 %add.i.i1046, ptr %_capacity.i.i929, align 4, !tbaa !44
  br label %while.cond.i.i1065.preheader

while.cond.i.i1065.preheader:                     ; preds = %if.end9.i.i1058, %_Z11MyStringLenIwEiPKT_.exit.i1049
  %dest.addr.0.i.i1061.ph = phi ptr [ %226, %_Z11MyStringLenIwEiPKT_.exit.i1049 ], [ %call.i.i10511066, %if.end9.i.i1058 ]
  br label %while.cond.i.i1065

while.cond.i.i1065:                               ; preds = %while.cond.i.i1065.preheader, %while.cond.i.i1065
  %src.addr.0.i.i1060 = phi ptr [ %incdec.ptr.i.i1062, %while.cond.i.i1065 ], [ %cond574, %while.cond.i.i1065.preheader ]
  %dest.addr.0.i.i1061 = phi ptr [ %incdec.ptr1.i.i1063, %while.cond.i.i1065 ], [ %dest.addr.0.i.i1061.ph, %while.cond.i.i1065.preheader ]
  %incdec.ptr.i.i1062 = getelementptr inbounds i32, ptr %src.addr.0.i.i1060, i64 1
  %234 = load i32, ptr %src.addr.0.i.i1060, align 4, !tbaa !42
  %incdec.ptr1.i.i1063 = getelementptr inbounds i32, ptr %dest.addr.0.i.i1061, i64 1
  store i32 %234, ptr %dest.addr.0.i.i1061, align 4, !tbaa !42
  %cmp.not.i9.i1064 = icmp eq i32 %234, 0
  br i1 %cmp.not.i9.i1064, label %_ZN11CStringBaseIwEaSEPKw.exit1067, label %while.cond.i.i1065, !llvm.loop !51

_ZN11CStringBaseIwEaSEPKw.exit1067:               ; preds = %while.cond.i.i1065
  store i32 %228, ptr %_length.i.i1040, align 8, !tbaa !49
  %.pre1284 = load i32, ptr %Algo, align 8, !tbaa !109
  br label %if.end579

lpad575:                                          ; preds = %if.end.i.i1053, %invoke.cont650
  %235 = landingpad { ptr, i32 }
          catch ptr @_ZTI16CSystemException
          catch ptr null
  br label %ehcleanup670

if.end579:                                        ; preds = %_ZN11CStringBaseIwEaSEPKw.exit1067, %if.else538, %if.end525, %if.then528
  %236 = phi i32 [ %.pre1284, %_ZN11CStringBaseIwEaSEPKw.exit1067 ], [ %223, %if.else538 ], [ %223, %if.end525 ], [ %223, %if.then528 ]
  %cmp581 = icmp eq i32 %236, -1
  br i1 %cmp581, label %if.then582, label %if.end587

if.then582:                                       ; preds = %if.end579
  %cmp583 = icmp sgt i32 %spec.store.select, 4
  %cond584 = zext i1 %cmp583 to i32
  store i32 %cond584, ptr %Algo, align 8, !tbaa !109
  br label %if.end587

if.end587:                                        ; preds = %if.end579, %if.then582, %if.end494
  %237 = phi i32 [ %236, %if.end579 ], [ %cond584, %if.then582 ], [ %223, %if.end494 ]
  switch i8 %mainMethod.0, label %invoke.cont650 [
    i8 12, label %if.then590
    i8 98, label %if.then618
  ]

if.then590:                                       ; preds = %if.end587
  %238 = load i32, ptr %NumPasses, align 4, !tbaa !100
  %cmp592 = icmp eq i32 %238, -1
  br i1 %cmp592, label %if.then593, label %if.end602

if.then593:                                       ; preds = %if.then590
  %cmp594 = icmp sgt i32 %spec.store.select, 8
  %cmp597 = icmp sgt i32 %spec.store.select, 6
  %cond598 = select i1 %cmp597, i32 2, i32 1
  %cond600 = select i1 %cmp594, i32 7, i32 %cond598
  store i32 %cond600, ptr %NumPasses, align 4, !tbaa !100
  br label %if.end602

if.end602:                                        ; preds = %if.then593, %if.then590
  %239 = load i32, ptr %DicSize, align 4, !tbaa !102
  %cmp604 = icmp eq i32 %239, -1
  br i1 %cmp604, label %if.then605, label %invoke.cont650

if.then605:                                       ; preds = %if.end602
  %cmp606 = icmp sgt i32 %spec.store.select, 4
  %cmp609 = icmp sgt i32 %spec.store.select, 2
  %cond610 = select i1 %cmp609, i32 500000, i32 100000
  %cond612 = select i1 %cmp606, i32 900000, i32 %cond610
  store i32 %cond612, ptr %DicSize, align 4, !tbaa !102
  br label %invoke.cont650

if.then618:                                       ; preds = %if.end587
  %spec.store.select711 = call i32 @llvm.smax.i32(i32 %spec.store.select, i32 1)
  %spec.store.select712 = call i32 @llvm.umin.i32(i32 %spec.store.select711, i32 9)
  %240 = load i32, ptr %MemSize, align 8, !tbaa !112
  %cmp626 = icmp eq i32 %240, -1
  br i1 %cmp626, label %if.then627, label %if.end634

if.then627:                                       ; preds = %if.then618
  %cond632 = call i32 @llvm.umin.i32(i32 %spec.store.select711, i32 8)
  %shl = shl nuw nsw i32 524288, %cond632
  store i32 %shl, ptr %MemSize, align 8, !tbaa !112
  br label %if.end634

if.end634:                                        ; preds = %if.then627, %if.then618
  %241 = load i32, ptr %Order, align 4, !tbaa !113
  %cmp636 = icmp eq i32 %241, -1
  br i1 %cmp636, label %if.then637, label %if.end640

if.then637:                                       ; preds = %if.end634
  %add638 = add nuw nsw i32 %spec.store.select712, 3
  store i32 %add638, ptr %Order, align 4, !tbaa !113
  br label %if.end640

if.end640:                                        ; preds = %if.then637, %if.end634
  %cmp642 = icmp eq i32 %237, -1
  br i1 %cmp642, label %if.then643, label %invoke.cont650

if.then643:                                       ; preds = %if.end640
  %cmp644 = icmp ugt i32 %spec.store.select712, 6
  %cond645 = zext i1 %cmp644 to i32
  store i32 %cond645, ptr %Algo, align 8, !tbaa !109
  br label %invoke.cont650

invoke.cont650:                                   ; preds = %if.end587, %if.then643, %if.end640, %if.end602, %if.then605
  %m_Archive = getelementptr inbounds %"class.NArchive::NZip::CHandler", ptr %this, i64 0, i32 5
  %242 = load ptr, ptr %m_Archive, align 8, !tbaa !114
  %cmp.i1068.not = icmp eq ptr %242, null
  %m_Items649 = getelementptr inbounds %"class.NArchive::NZip::CHandler", ptr %this, i64 0, i32 4
  %cond656 = select i1 %cmp.i1068.not, ptr null, ptr %m_Archive
  %call658 = invoke noundef i32 @_ZN8NArchive4NZip6UpdateERK13CObjectVectorINS0_7CItemExEERKS1_INS0_11CUpdateItemEEP20ISequentialOutStreamPNS0_10CInArchiveEPNS0_22CCompressionMethodModeEP22IArchiveUpdateCallback(ptr noundef nonnull align 8 dereferenceable(32) %m_Items649, ptr noundef nonnull align 8 dereferenceable(32) %updateItems, ptr noundef %outStream, ptr noundef %cond656, ptr noundef nonnull %options, ptr noundef nonnull %callback)
          to label %cleanup669 unwind label %lpad575

cleanup669:                                       ; preds = %invoke.cont650, %_ZN10CMyComBSTRD2Ev.exit
  %retval.27 = phi i32 [ %retval.26, %_ZN10CMyComBSTRD2Ev.exit ], [ %call658, %invoke.cont650 ]
  %243 = load ptr, ptr %Password.i, align 8, !tbaa !24
  %isnull.i.i1070 = icmp eq ptr %243, null
  br i1 %isnull.i.i1070, label %_ZN11CStringBaseIcED2Ev.exit.i, label %delete.notnull.i.i1071

delete.notnull.i.i1071:                           ; preds = %cleanup669
  call void @_ZdaPv(ptr noundef nonnull %243) #19
  br label %_ZN11CStringBaseIcED2Ev.exit.i

_ZN11CStringBaseIcED2Ev.exit.i:                   ; preds = %delete.notnull.i.i1071, %cleanup669
  %244 = load ptr, ptr %MatchFinder.i, align 8, !tbaa !40
  %isnull.i2.i = icmp eq ptr %244, null
  br i1 %isnull.i2.i, label %_ZN8NArchive4NZip22CCompressionMethodModeD2Ev.exit, label %delete.notnull.i3.i

delete.notnull.i3.i:                              ; preds = %_ZN11CStringBaseIcED2Ev.exit.i
  call void @_ZdaPv(ptr noundef nonnull %244) #19
  br label %_ZN8NArchive4NZip22CCompressionMethodModeD2Ev.exit

_ZN8NArchive4NZip22CCompressionMethodModeD2Ev.exit: ; preds = %_ZN11CStringBaseIcED2Ev.exit.i, %delete.notnull.i3.i
  call void @_ZN17CBaseRecordVectorD2Ev(ptr noundef nonnull align 8 dereferenceable(32) %options) #16
  call void @llvm.lifetime.end.p0(i64 112, ptr nonnull %options) #16
  %245 = load ptr, ptr %getTextPassword, align 8, !tbaa !77
  %tobool.not.i1074 = icmp eq ptr %245, null
  br i1 %tobool.not.i1074, label %_ZN9CMyComPtrI23ICryptoGetTextPassword2ED2Ev.exit, label %if.then.i1078

if.then.i1078:                                    ; preds = %_ZN8NArchive4NZip22CCompressionMethodModeD2Ev.exit
  %vtable.i1075 = load ptr, ptr %245, align 8, !tbaa !13
  %vfn.i1076 = getelementptr inbounds ptr, ptr %vtable.i1075, i64 2
  %246 = load ptr, ptr %vfn.i1076, align 8
  %call.i1077 = invoke noundef i32 %246(ptr noundef nonnull align 8 dereferenceable(8) %245)
          to label %_ZN9CMyComPtrI23ICryptoGetTextPassword2ED2Ev.exit unwind label %terminate.lpad.i1079

terminate.lpad.i1079:                             ; preds = %if.then.i1078
  %247 = landingpad { ptr, i32 }
          catch ptr null
  %248 = extractvalue { ptr, i32 } %247, 0
  call void @__clang_call_terminate(ptr %248) #18
  unreachable

_ZN9CMyComPtrI23ICryptoGetTextPassword2ED2Ev.exit: ; preds = %_ZN8NArchive4NZip22CCompressionMethodModeD2Ev.exit, %if.then.i1078
  call void @llvm.lifetime.end.p0(i64 8, ptr nonnull %getTextPassword) #16
  br label %cleanup677

ehcleanup670:                                     ; preds = %lpad485, %lpad575, %_ZN10CMyComBSTRD2Ev.exit1032
  %.pn802.pn = phi { ptr, i32 } [ %.pn806.pn.pn, %_ZN10CMyComBSTRD2Ev.exit1032 ], [ %235, %lpad575 ], [ %214, %lpad485 ]
  call void @_ZN8NArchive4NZip22CCompressionMethodModeD2Ev(ptr noundef nonnull align 8 dereferenceable(106) %options) #16
  br label %ehcleanup672

ehcleanup672:                                     ; preds = %ehcleanup.i, %ehcleanup670
  %.pn802.pn.pn = phi { ptr, i32 } [ %.pn802.pn, %ehcleanup670 ], [ %.pn.i, %ehcleanup.i ]
  call void @llvm.lifetime.end.p0(i64 112, ptr nonnull %options) #16
  br label %ehcleanup674

ehcleanup674:                                     ; preds = %lpad377, %if.then.i937, %ehcleanup672
  %.pn802.pn.pn.pn = phi { ptr, i32 } [ %.pn802.pn.pn, %ehcleanup672 ], [ %132, %lpad377 ], [ %133, %if.then.i937 ]
  %249 = load ptr, ptr %getTextPassword, align 8, !tbaa !77
  %tobool.not.i1080 = icmp eq ptr %249, null
  br i1 %tobool.not.i1080, label %_ZN9CMyComPtrI23ICryptoGetTextPassword2ED2Ev.exit1086, label %if.then.i1084

if.then.i1084:                                    ; preds = %ehcleanup674
  %vtable.i1081 = load ptr, ptr %249, align 8, !tbaa !13
  %vfn.i1082 = getelementptr inbounds ptr, ptr %vtable.i1081, i64 2
  %250 = load ptr, ptr %vfn.i1082, align 8
  %call.i1083 = invoke noundef i32 %250(ptr noundef nonnull align 8 dereferenceable(8) %249)
          to label %_ZN9CMyComPtrI23ICryptoGetTextPassword2ED2Ev.exit1086 unwind label %terminate.lpad.i1085

terminate.lpad.i1085:                             ; preds = %if.then.i1084
  %251 = landingpad { ptr, i32 }
          catch ptr null
  %252 = extractvalue { ptr, i32 } %251, 0
  call void @__clang_call_terminate(ptr %252) #18
  unreachable

_ZN9CMyComPtrI23ICryptoGetTextPassword2ED2Ev.exit1086: ; preds = %ehcleanup674, %if.then.i1084
  call void @llvm.lifetime.end.p0(i64 8, ptr nonnull %getTextPassword) #16
  br label %ehcleanup678

cleanup677:                                       ; preds = %cleanup371, %_ZN9CMyComPtrI23ICryptoGetTextPassword2ED2Ev.exit
  %retval.28 = phi i32 [ %retval.27, %_ZN9CMyComPtrI23ICryptoGetTextPassword2ED2Ev.exit ], [ %retval.23, %cleanup371 ]
  store ptr getelementptr inbounds ({ [5 x ptr] }, ptr @_ZTV13CObjectVectorIN8NArchive4NZip11CUpdateItemEE, i64 0, inrange i32 0, i64 2), ptr %updateItems, align 8, !tbaa !13
  invoke void @_ZN17CBaseRecordVector5ClearEv(ptr noundef nonnull align 8 dereferenceable(32) %updateItems)
          to label %_ZN13CObjectVectorIN8NArchive4NZip11CUpdateItemEED2Ev.exit unwind label %terminate.lpad.i1088

terminate.lpad.i1088:                             ; preds = %cleanup677
  %253 = landingpad { ptr, i32 }
          catch ptr null
  %254 = extractvalue { ptr, i32 } %253, 0
  call void @__clang_call_terminate(ptr %254) #18
  unreachable

_ZN13CObjectVectorIN8NArchive4NZip11CUpdateItemEED2Ev.exit: ; preds = %cleanup677
  call void @_ZN17CBaseRecordVectorD2Ev(ptr noundef nonnull align 8 dereferenceable(32) %updateItems) #16
  call void @llvm.lifetime.end.p0(i64 32, ptr nonnull %updateItems) #16
  br label %return

ehcleanup678:                                     ; preds = %_ZN9CMyComPtrI23ICryptoGetTextPassword2ED2Ev.exit1086, %ehcleanup368
  %.pn802.pn.pn.pn.pn = phi { ptr, i32 } [ %.pn802.pn.pn.pn, %_ZN9CMyComPtrI23ICryptoGetTextPassword2ED2Ev.exit1086 ], [ %.pn821.pn.pn, %ehcleanup368 ]
  call void @_ZN13CObjectVectorIN8NArchive4NZip11CUpdateItemEED2Ev(ptr noundef nonnull align 8 dereferenceable(32) %updateItems) #16
  %exn.slot.20 = extractvalue { ptr, i32 } %.pn802.pn.pn.pn.pn, 0
  %ehselector.slot.20 = extractvalue { ptr, i32 } %.pn802.pn.pn.pn.pn, 1
  call void @llvm.lifetime.end.p0(i64 32, ptr nonnull %updateItems) #16
  %255 = call i32 @llvm.eh.typeid.for(ptr nonnull @_ZTI16CSystemException) #16
  %matches = icmp eq i32 %ehselector.slot.20, %255
  %256 = call ptr @__cxa_begin_catch(ptr %exn.slot.20) #16
  br i1 %matches, label %catch684, label %catch

catch684:                                         ; preds = %ehcleanup678
  %257 = load i32, ptr %256, align 4, !tbaa !115
  call void @__cxa_end_catch()
  br label %return

catch:                                            ; preds = %ehcleanup678
  call void @__cxa_end_catch()
  br label %return

return:                                           ; preds = %catch684, %catch, %_ZN13CObjectVectorIN8NArchive4NZip11CUpdateItemEED2Ev.exit
  %retval.29 = phi i32 [ %retval.28, %_ZN13CObjectVectorIN8NArchive4NZip11CUpdateItemEED2Ev.exit ], [ %257, %catch684 ], [ -2147024882, %catch ]
  ret i32 %retval.29
}

; Function Attrs: mustprogress nocallback nofree nosync nounwind willreturn memory(argmem: readwrite)
declare void @llvm.lifetime.start.p0(i64 immarg, ptr nocapture) #2

declare i32 @__gxx_personality_v0(...)

; Function Attrs: mustprogress nocallback nofree nosync nounwind willreturn memory(argmem: readwrite)
declare void @llvm.lifetime.end.p0(i64 immarg, ptr nocapture) #2

; Function Attrs: uwtable
define internal fastcc noundef i32 @_ZN8NArchive4NZipL7GetTimeEP22IArchiveUpdateCallbackijR9_FILETIME(ptr noundef %callback, i32 noundef %index, i32 noundef %propID, ptr nocapture noundef nonnull writeonly align 4 dereferenceable(8) %filetime) unnamed_addr #1 personality ptr @__gxx_personality_v0 {
entry:
  %prop = alloca %"class.NWindows::NCOM::CPropVariant", align 8
  store i32 0, ptr %filetime, align 4, !tbaa !54
  %dwHighDateTime = getelementptr inbounds %struct._FILETIME, ptr %filetime, i64 0, i32 1
  store i32 0, ptr %dwHighDateTime, align 4, !tbaa !55
  call void @llvm.lifetime.start.p0(i64 16, ptr nonnull %prop) #16
  store i16 0, ptr %prop, align 8, !tbaa !45
  %wReserved1.i = getelementptr inbounds %struct.tagPROPVARIANT, ptr %prop, i64 0, i32 1
  store i16 0, ptr %wReserved1.i, align 2, !tbaa !47
  %vtable = load ptr, ptr %callback, align 8, !tbaa !13
  %vfn = getelementptr inbounds ptr, ptr %vtable, i64 8
  %0 = load ptr, ptr %vfn, align 8
  %call = invoke noundef i32 %0(ptr noundef nonnull align 8 dereferenceable(8) %callback, i32 noundef %index, i32 noundef %propID, ptr noundef nonnull %prop)
          to label %invoke.cont unwind label %lpad

invoke.cont:                                      ; preds = %entry
  %cmp.not = icmp eq i32 %call, 0
  br i1 %cmp.not, label %cleanup.cont, label %cleanup9

lpad:                                             ; preds = %entry
  %1 = landingpad { ptr, i32 }
          cleanup
  %call.i = invoke noundef i32 @_ZN8NWindows4NCOM12CPropVariant5ClearEv(ptr noundef nonnull align 8 dereferenceable(16) %prop)
          to label %_ZN8NWindows4NCOM12CPropVariantD2Ev.exit unwind label %terminate.lpad.i

terminate.lpad.i:                                 ; preds = %lpad
  %2 = landingpad { ptr, i32 }
          catch ptr null
  %3 = extractvalue { ptr, i32 } %2, 0
  call void @__clang_call_terminate(ptr %3) #18
  unreachable

_ZN8NWindows4NCOM12CPropVariantD2Ev.exit:         ; preds = %lpad
  call void @llvm.lifetime.end.p0(i64 16, ptr nonnull %prop) #16
  resume { ptr, i32 } %1

cleanup.cont:                                     ; preds = %invoke.cont
  %4 = load i16, ptr %prop, align 8, !tbaa !45
  switch i16 %4, label %cleanup9 [
    i16 64, label %if.then2
    i16 0, label %if.end8
  ]

if.then2:                                         ; preds = %cleanup.cont
  %5 = getelementptr inbounds %struct.tagPROPVARIANT, ptr %prop, i64 0, i32 4
  %6 = load i64, ptr %5, align 8
  store i64 %6, ptr %filetime, align 4
  br label %if.end8

if.end8:                                          ; preds = %cleanup.cont, %if.then2
  br label %cleanup9

cleanup9:                                         ; preds = %cleanup.cont, %invoke.cont, %if.end8
  %retval.1 = phi i32 [ 0, %if.end8 ], [ %call, %invoke.cont ], [ -2147024809, %cleanup.cont ]
  %call.i15 = invoke noundef i32 @_ZN8NWindows4NCOM12CPropVariant5ClearEv(ptr noundef nonnull align 8 dereferenceable(16) %prop)
          to label %_ZN8NWindows4NCOM12CPropVariantD2Ev.exit17 unwind label %terminate.lpad.i16

terminate.lpad.i16:                               ; preds = %cleanup9
  %7 = landingpad { ptr, i32 }
          catch ptr null
  %8 = extractvalue { ptr, i32 } %7, 0
  call void @__clang_call_terminate(ptr %8) #18
  unreachable

_ZN8NWindows4NCOM12CPropVariantD2Ev.exit17:       ; preds = %cleanup9
  call void @llvm.lifetime.end.p0(i64 16, ptr nonnull %prop) #16
  ret i32 %retval.1
}

; Function Attrs: mustprogress nocallback nofree nounwind willreturn memory(argmem: write)
declare void @llvm.memset.p0.i64(ptr nocapture writeonly, i8, i64, i1 immarg) #3

declare i32 @FileTimeToLocalFileTime(ptr noundef, ptr noundef) local_unnamed_addr #4

declare noundef zeroext i1 @_ZN8NWindows5NTime17FileTimeToDosTimeERK9_FILETIMERj(ptr noundef nonnull align 4 dereferenceable(8), ptr noundef nonnull align 4 dereferenceable(4)) local_unnamed_addr #4

declare void @_ZN8NArchive9NItemName13MakeLegalNameERK11CStringBaseIwE(ptr sret(%class.CStringBase.3) align 8, ptr noundef nonnull align 8 dereferenceable(16)) local_unnamed_addr #4

; Function Attrs: mustprogress uwtable
define linkonce_odr dso_local noundef nonnull align 8 dereferenceable(16) ptr @_ZN11CStringBaseIwEaSERKS0_(ptr noundef nonnull align 8 dereferenceable(16) %this, ptr noundef nonnull align 8 dereferenceable(16) %s) local_unnamed_addr #5 comdat align 2 {
entry:
  %cmp = icmp eq ptr %s, %this
  br i1 %cmp, label %return, label %if.end

if.end:                                           ; preds = %entry
  %_length.i = getelementptr inbounds %class.CStringBase.3, ptr %this, i64 0, i32 1
  store i32 0, ptr %_length.i, align 8, !tbaa !49
  %0 = load ptr, ptr %this, align 8, !tbaa !40
  store i32 0, ptr %0, align 4, !tbaa !42
  %_length = getelementptr inbounds %class.CStringBase.3, ptr %s, i64 0, i32 1
  %1 = load i32, ptr %_length, align 8, !tbaa !49
  %add.i = add nsw i32 %1, 1
  %_capacity.i = getelementptr inbounds %class.CStringBase.3, ptr %this, i64 0, i32 2
  %2 = load i32, ptr %_capacity.i, align 4, !tbaa !44
  %cmp.i = icmp eq i32 %add.i, %2
  br i1 %cmp.i, label %_ZN11CStringBaseIwE11SetCapacityEi.exit, label %if.end.i

if.end.i:                                         ; preds = %if.end
  %conv.i = zext i32 %add.i to i64
  %3 = icmp slt i32 %1, -1
  %4 = shl nuw nsw i64 %conv.i, 2
  %5 = select i1 %3, i64 -1, i64 %4
  %call.i = tail call noalias noundef nonnull ptr @_Znam(i64 noundef %5) #17
  %cmp3.i = icmp sgt i32 %2, 0
  br i1 %cmp3.i, label %delete.notnull.i, label %if.end9.i

delete.notnull.i:                                 ; preds = %if.end.i
  tail call void @_ZdaPv(ptr noundef nonnull %0) #19
  %.pre = load i32, ptr %_length.i, align 8, !tbaa !49
  %6 = sext i32 %.pre to i64
  br label %if.end9.i

if.end9.i:                                        ; preds = %delete.notnull.i, %if.end.i
  %idxprom13.i = phi i64 [ %6, %delete.notnull.i ], [ 0, %if.end.i ]
  store ptr %call.i, ptr %this, align 8, !tbaa !40
  %arrayidx14.i = getelementptr inbounds i32, ptr %call.i, i64 %idxprom13.i
  store i32 0, ptr %arrayidx14.i, align 4, !tbaa !42
  store i32 %add.i, ptr %_capacity.i, align 4, !tbaa !44
  br label %_ZN11CStringBaseIwE11SetCapacityEi.exit

_ZN11CStringBaseIwE11SetCapacityEi.exit:          ; preds = %if.end, %if.end9.i
  %7 = phi ptr [ %0, %if.end ], [ %call.i, %if.end9.i ]
  %8 = load ptr, ptr %s, align 8, !tbaa !40
  br label %while.cond.i

while.cond.i:                                     ; preds = %while.cond.i, %_ZN11CStringBaseIwE11SetCapacityEi.exit
  %src.addr.0.i = phi ptr [ %8, %_ZN11CStringBaseIwE11SetCapacityEi.exit ], [ %incdec.ptr.i, %while.cond.i ]
  %dest.addr.0.i = phi ptr [ %7, %_ZN11CStringBaseIwE11SetCapacityEi.exit ], [ %incdec.ptr1.i, %while.cond.i ]
  %incdec.ptr.i = getelementptr inbounds i32, ptr %src.addr.0.i, i64 1
  %9 = load i32, ptr %src.addr.0.i, align 4, !tbaa !42
  %incdec.ptr1.i = getelementptr inbounds i32, ptr %dest.addr.0.i, i64 1
  store i32 %9, ptr %dest.addr.0.i, align 4, !tbaa !42
  %cmp.not.i = icmp eq i32 %9, 0
  br i1 %cmp.not.i, label %_Z12MyStringCopyIwEPT_S1_PKS0_.exit, label %while.cond.i, !llvm.loop !51

_Z12MyStringCopyIwEPT_S1_PKS0_.exit:              ; preds = %while.cond.i
  %10 = load i32, ptr %_length, align 8, !tbaa !49
  store i32 %10, ptr %_length.i, align 8, !tbaa !49
  br label %return

return:                                           ; preds = %entry, %_Z12MyStringCopyIwEPT_S1_PKS0_.exit
  ret ptr %this
}

; Function Attrs: mustprogress uwtable
define linkonce_odr dso_local noundef nonnull align 8 dereferenceable(16) ptr @_ZN11CStringBaseIwEpLEw(ptr noundef nonnull align 8 dereferenceable(16) %this, i32 noundef signext %c) local_unnamed_addr #5 comdat align 2 {
entry:
  %_capacity.i = getelementptr inbounds %class.CStringBase.3, ptr %this, i64 0, i32 2
  %0 = load i32, ptr %_capacity.i, align 4, !tbaa !44
  %_length.i = getelementptr inbounds %class.CStringBase.3, ptr %this, i64 0, i32 1
  %1 = load i32, ptr %_length.i, align 8, !tbaa !49
  %2 = xor i32 %1, -1
  %sub2.i = add i32 %0, %2
  %cmp.not.i = icmp slt i32 %sub2.i, 1
  br i1 %cmp.not.i, label %if.end.i, label %_ZN11CStringBaseIwE10GrowLengthEi.exit

if.end.i:                                         ; preds = %entry
  %cmp4.i = icmp sgt i32 %0, 64
  %div24.i = lshr i32 %0, 1
  %cmp8.i = icmp sgt i32 %0, 8
  %..i = select i1 %cmp8.i, i32 16, i32 4
  %delta.0.i = select i1 %cmp4.i, i32 %div24.i, i32 %..i
  %add.i = add nsw i32 %delta.0.i, %sub2.i
  %cmp13.i = icmp slt i32 %add.i, 1
  %sub15.i = sub nsw i32 1, %sub2.i
  %delta.1.i = select i1 %cmp13.i, i32 %sub15.i, i32 %delta.0.i
  %add18.i = add nsw i32 %delta.1.i, %0
  %add.i.i = add nsw i32 %add18.i, 1
  %cmp.i.i = icmp eq i32 %add.i.i, %0
  br i1 %cmp.i.i, label %_ZN11CStringBaseIwE10GrowLengthEi.exit, label %if.end.i.i

if.end.i.i:                                       ; preds = %if.end.i
  %conv.i.i = zext i32 %add.i.i to i64
  %3 = icmp slt i32 %add18.i, -1
  %4 = shl nuw nsw i64 %conv.i.i, 2
  %5 = select i1 %3, i64 -1, i64 %4
  %call.i.i = tail call noalias noundef nonnull ptr @_Znam(i64 noundef %5) #17
  %call.i.i6 = ptrtoint ptr %call.i.i to i64
  %cmp3.i.i = icmp sgt i32 %0, 0
  br i1 %cmp3.i.i, label %for.cond.preheader.i.i, label %if.end9.i.i

for.cond.preheader.i.i:                           ; preds = %if.end.i.i
  %cmp522.i.i = icmp sgt i32 %1, 0
  %6 = load ptr, ptr %this, align 8, !tbaa !40
  br i1 %cmp522.i.i, label %for.body.lr.ph.i.i, label %for.cond.cleanup.i.i

for.body.lr.ph.i.i:                               ; preds = %for.cond.preheader.i.i
  %7 = ptrtoint ptr %6 to i64
  %wide.trip.count.i.i = zext i32 %1 to i64
  %min.iters.check = icmp ult i32 %1, 8
  %8 = sub i64 %call.i.i6, %7
  %diff.check = icmp ult i64 %8, 32
  %or.cond = select i1 %min.iters.check, i1 true, i1 %diff.check
  br i1 %or.cond, label %for.body.i.i.preheader, label %vector.ph

vector.ph:                                        ; preds = %for.body.lr.ph.i.i
  %n.vec = and i64 %wide.trip.count.i.i, 4294967288
  br label %vector.body

vector.body:                                      ; preds = %vector.body, %vector.ph
  %index = phi i64 [ 0, %vector.ph ], [ %index.next, %vector.body ]
  %9 = getelementptr inbounds i32, ptr %6, i64 %index
  %wide.load = load <4 x i32>, ptr %9, align 4, !tbaa !42
  %10 = getelementptr inbounds i32, ptr %9, i64 4
  %wide.load7 = load <4 x i32>, ptr %10, align 4, !tbaa !42
  %11 = getelementptr inbounds i32, ptr %call.i.i, i64 %index
  store <4 x i32> %wide.load, ptr %11, align 4, !tbaa !42
  %12 = getelementptr inbounds i32, ptr %11, i64 4
  store <4 x i32> %wide.load7, ptr %12, align 4, !tbaa !42
  %index.next = add nuw i64 %index, 8
  %13 = icmp eq i64 %index.next, %n.vec
  br i1 %13, label %middle.block, label %vector.body, !llvm.loop !117

middle.block:                                     ; preds = %vector.body
  %cmp.n = icmp eq i64 %n.vec, %wide.trip.count.i.i
  br i1 %cmp.n, label %delete.notnull.i.i, label %for.body.i.i.preheader

for.body.i.i.preheader:                           ; preds = %for.body.lr.ph.i.i, %middle.block
  %indvars.iv.i.i.ph = phi i64 [ 0, %for.body.lr.ph.i.i ], [ %n.vec, %middle.block ]
  %14 = xor i64 %indvars.iv.i.i.ph, -1
  %15 = add nsw i64 %14, %wide.trip.count.i.i
  %xtraiter = and i64 %wide.trip.count.i.i, 3
  %lcmp.mod.not = icmp eq i64 %xtraiter, 0
  br i1 %lcmp.mod.not, label %for.body.i.i.prol.loopexit, label %for.body.i.i.prol

for.body.i.i.prol:                                ; preds = %for.body.i.i.preheader, %for.body.i.i.prol
  %indvars.iv.i.i.prol = phi i64 [ %indvars.iv.next.i.i.prol, %for.body.i.i.prol ], [ %indvars.iv.i.i.ph, %for.body.i.i.preheader ]
  %prol.iter = phi i64 [ %prol.iter.next, %for.body.i.i.prol ], [ 0, %for.body.i.i.preheader ]
  %arrayidx.i.i.prol = getelementptr inbounds i32, ptr %6, i64 %indvars.iv.i.i.prol
  %16 = load i32, ptr %arrayidx.i.i.prol, align 4, !tbaa !42
  %arrayidx7.i.i.prol = getelementptr inbounds i32, ptr %call.i.i, i64 %indvars.iv.i.i.prol
  store i32 %16, ptr %arrayidx7.i.i.prol, align 4, !tbaa !42
  %indvars.iv.next.i.i.prol = add nuw nsw i64 %indvars.iv.i.i.prol, 1
  %prol.iter.next = add i64 %prol.iter, 1
  %prol.iter.cmp.not = icmp eq i64 %prol.iter.next, %xtraiter
  br i1 %prol.iter.cmp.not, label %for.body.i.i.prol.loopexit, label %for.body.i.i.prol, !llvm.loop !118

for.body.i.i.prol.loopexit:                       ; preds = %for.body.i.i.prol, %for.body.i.i.preheader
  %indvars.iv.i.i.unr = phi i64 [ %indvars.iv.i.i.ph, %for.body.i.i.preheader ], [ %indvars.iv.next.i.i.prol, %for.body.i.i.prol ]
  %17 = icmp ult i64 %15, 3
  br i1 %17, label %delete.notnull.i.i, label %for.body.i.i

for.cond.cleanup.i.i:                             ; preds = %for.cond.preheader.i.i
  %isnull.i.i = icmp eq ptr %6, null
  br i1 %isnull.i.i, label %if.end9.i.i, label %delete.notnull.i.i

for.body.i.i:                                     ; preds = %for.body.i.i.prol.loopexit, %for.body.i.i
  %indvars.iv.i.i = phi i64 [ %indvars.iv.next.i.i.3, %for.body.i.i ], [ %indvars.iv.i.i.unr, %for.body.i.i.prol.loopexit ]
  %arrayidx.i.i = getelementptr inbounds i32, ptr %6, i64 %indvars.iv.i.i
  %18 = load i32, ptr %arrayidx.i.i, align 4, !tbaa !42
  %arrayidx7.i.i = getelementptr inbounds i32, ptr %call.i.i, i64 %indvars.iv.i.i
  store i32 %18, ptr %arrayidx7.i.i, align 4, !tbaa !42
  %indvars.iv.next.i.i = add nuw nsw i64 %indvars.iv.i.i, 1
  %arrayidx.i.i.1 = getelementptr inbounds i32, ptr %6, i64 %indvars.iv.next.i.i
  %19 = load i32, ptr %arrayidx.i.i.1, align 4, !tbaa !42
  %arrayidx7.i.i.1 = getelementptr inbounds i32, ptr %call.i.i, i64 %indvars.iv.next.i.i
  store i32 %19, ptr %arrayidx7.i.i.1, align 4, !tbaa !42
  %indvars.iv.next.i.i.1 = add nuw nsw i64 %indvars.iv.i.i, 2
  %arrayidx.i.i.2 = getelementptr inbounds i32, ptr %6, i64 %indvars.iv.next.i.i.1
  %20 = load i32, ptr %arrayidx.i.i.2, align 4, !tbaa !42
  %arrayidx7.i.i.2 = getelementptr inbounds i32, ptr %call.i.i, i64 %indvars.iv.next.i.i.1
  store i32 %20, ptr %arrayidx7.i.i.2, align 4, !tbaa !42
  %indvars.iv.next.i.i.2 = add nuw nsw i64 %indvars.iv.i.i, 3
  %arrayidx.i.i.3 = getelementptr inbounds i32, ptr %6, i64 %indvars.iv.next.i.i.2
  %21 = load i32, ptr %arrayidx.i.i.3, align 4, !tbaa !42
  %arrayidx7.i.i.3 = getelementptr inbounds i32, ptr %call.i.i, i64 %indvars.iv.next.i.i.2
  store i32 %21, ptr %arrayidx7.i.i.3, align 4, !tbaa !42
  %indvars.iv.next.i.i.3 = add nuw nsw i64 %indvars.iv.i.i, 4
  %exitcond.not.i.i.3 = icmp eq i64 %indvars.iv.next.i.i.3, %wide.trip.count.i.i
  br i1 %exitcond.not.i.i.3, label %delete.notnull.i.i, label %for.body.i.i, !llvm.loop !119

delete.notnull.i.i:                               ; preds = %for.body.i.i.prol.loopexit, %for.body.i.i, %middle.block, %for.cond.cleanup.i.i
  tail call void @_ZdaPv(ptr noundef nonnull %6) #19
  %.pre.i = load i32, ptr %_length.i, align 8, !tbaa !49
  br label %if.end9.i.i

if.end9.i.i:                                      ; preds = %delete.notnull.i.i, %for.cond.cleanup.i.i, %if.end.i.i
  %22 = phi i32 [ %.pre.i, %delete.notnull.i.i ], [ %1, %for.cond.cleanup.i.i ], [ %1, %if.end.i.i ]
  store ptr %call.i.i, ptr %this, align 8, !tbaa !40
  %idxprom13.i.i = sext i32 %22 to i64
  %arrayidx14.i.i = getelementptr inbounds i32, ptr %call.i.i, i64 %idxprom13.i.i
  store i32 0, ptr %arrayidx14.i.i, align 4, !tbaa !42
  store i32 %add.i.i, ptr %_capacity.i, align 4, !tbaa !44
  br label %_ZN11CStringBaseIwE10GrowLengthEi.exit

_ZN11CStringBaseIwE10GrowLengthEi.exit:           ; preds = %entry, %if.end.i, %if.end9.i.i
  %23 = phi i32 [ %1, %entry ], [ %1, %if.end.i ], [ %22, %if.end9.i.i ]
  %24 = load ptr, ptr %this, align 8, !tbaa !40
  %idxprom = sext i32 %23 to i64
  %arrayidx = getelementptr inbounds i32, ptr %24, i64 %idxprom
  store i32 %c, ptr %arrayidx, align 4, !tbaa !42
  %inc = add nsw i32 %23, 1
  store i32 %inc, ptr %_length.i, align 8, !tbaa !49
  %idxprom4 = sext i32 %inc to i64
  %arrayidx5 = getelementptr inbounds i32, ptr %24, i64 %idxprom4
  store i32 0, ptr %arrayidx5, align 4, !tbaa !42
  ret ptr %this
}

declare void @_Z24UnicodeStringToMultiByteRK11CStringBaseIwEj(ptr sret(%class.CStringBase) align 8, ptr noundef nonnull align 8 dereferenceable(16), i32 noundef) local_unnamed_addr #4

; Function Attrs: mustprogress uwtable
define linkonce_odr dso_local noundef nonnull align 8 dereferenceable(16) ptr @_ZN11CStringBaseIcEaSERKS0_(ptr noundef nonnull align 8 dereferenceable(16) %this, ptr noundef nonnull align 8 dereferenceable(16) %s) local_unnamed_addr #5 comdat align 2 {
entry:
  %cmp = icmp eq ptr %s, %this
  br i1 %cmp, label %return, label %if.end

if.end:                                           ; preds = %entry
  %_length.i = getelementptr inbounds %class.CStringBase, ptr %this, i64 0, i32 1
  store i32 0, ptr %_length.i, align 8, !tbaa !73
  %0 = load ptr, ptr %this, align 8, !tbaa !24
  store i8 0, ptr %0, align 1, !tbaa !25
  %_length = getelementptr inbounds %class.CStringBase, ptr %s, i64 0, i32 1
  %1 = load i32, ptr %_length, align 8, !tbaa !73
  %add.i = add nsw i32 %1, 1
  %_capacity.i = getelementptr inbounds %class.CStringBase, ptr %this, i64 0, i32 2
  %2 = load i32, ptr %_capacity.i, align 4, !tbaa !26
  %cmp.i = icmp eq i32 %add.i, %2
  br i1 %cmp.i, label %if.end._ZN11CStringBaseIcE11SetCapacityEi.exit_crit_edge, label %if.end.i

if.end._ZN11CStringBaseIcE11SetCapacityEi.exit_crit_edge: ; preds = %if.end
  %.pre = load ptr, ptr %this, align 8, !tbaa !24
  br label %_ZN11CStringBaseIcE11SetCapacityEi.exit

if.end.i:                                         ; preds = %if.end
  %conv.i = sext i32 %add.i to i64
  %call.i = tail call noalias noundef nonnull ptr @_Znam(i64 noundef %conv.i) #17
  %call.i9 = ptrtoint ptr %call.i to i64
  %cmp3.i = icmp sgt i32 %2, 0
  br i1 %cmp3.i, label %for.cond.preheader.i, label %if.end9.i

for.cond.preheader.i:                             ; preds = %if.end.i
  %3 = load i32, ptr %_length.i, align 8, !tbaa !73
  %cmp522.i = icmp sgt i32 %3, 0
  %4 = load ptr, ptr %this, align 8, !tbaa !24
  br i1 %cmp522.i, label %iter.check, label %for.cond.cleanup.i

iter.check:                                       ; preds = %for.cond.preheader.i
  %5 = ptrtoint ptr %4 to i64
  %wide.trip.count.i = zext i32 %3 to i64
  %min.iters.check = icmp ult i32 %3, 8
  %6 = sub i64 %call.i9, %5
  %diff.check = icmp ult i64 %6, 32
  %or.cond = select i1 %min.iters.check, i1 true, i1 %diff.check
  br i1 %or.cond, label %for.body.i.preheader, label %vector.main.loop.iter.check

vector.main.loop.iter.check:                      ; preds = %iter.check
  %min.iters.check10 = icmp ult i32 %3, 32
  br i1 %min.iters.check10, label %vec.epilog.ph, label %vector.ph

vector.ph:                                        ; preds = %vector.main.loop.iter.check
  %n.vec = and i64 %wide.trip.count.i, 4294967264
  br label %vector.body

vector.body:                                      ; preds = %vector.body, %vector.ph
  %index = phi i64 [ 0, %vector.ph ], [ %index.next, %vector.body ]
  %7 = getelementptr inbounds i8, ptr %4, i64 %index
  %wide.load = load <16 x i8>, ptr %7, align 1, !tbaa !25
  %8 = getelementptr inbounds i8, ptr %7, i64 16
  %wide.load11 = load <16 x i8>, ptr %8, align 1, !tbaa !25
  %9 = getelementptr inbounds i8, ptr %call.i, i64 %index
  store <16 x i8> %wide.load, ptr %9, align 1, !tbaa !25
  %10 = getelementptr inbounds i8, ptr %9, i64 16
  store <16 x i8> %wide.load11, ptr %10, align 1, !tbaa !25
  %index.next = add nuw i64 %index, 32
  %11 = icmp eq i64 %index.next, %n.vec
  br i1 %11, label %middle.block, label %vector.body, !llvm.loop !120

middle.block:                                     ; preds = %vector.body
  %cmp.n = icmp eq i64 %n.vec, %wide.trip.count.i
  br i1 %cmp.n, label %delete.notnull.i, label %vec.epilog.iter.check

vec.epilog.iter.check:                            ; preds = %middle.block
  %n.vec.remaining = and i64 %wide.trip.count.i, 24
  %min.epilog.iters.check = icmp eq i64 %n.vec.remaining, 0
  br i1 %min.epilog.iters.check, label %for.body.i.preheader, label %vec.epilog.ph

vec.epilog.ph:                                    ; preds = %vector.main.loop.iter.check, %vec.epilog.iter.check
  %vec.epilog.resume.val = phi i64 [ %n.vec, %vec.epilog.iter.check ], [ 0, %vector.main.loop.iter.check ]
  %n.vec13 = and i64 %wide.trip.count.i, 4294967288
  br label %vec.epilog.vector.body

vec.epilog.vector.body:                           ; preds = %vec.epilog.vector.body, %vec.epilog.ph
  %index15 = phi i64 [ %vec.epilog.resume.val, %vec.epilog.ph ], [ %index.next17, %vec.epilog.vector.body ]
  %12 = getelementptr inbounds i8, ptr %4, i64 %index15
  %wide.load16 = load <8 x i8>, ptr %12, align 1, !tbaa !25
  %13 = getelementptr inbounds i8, ptr %call.i, i64 %index15
  store <8 x i8> %wide.load16, ptr %13, align 1, !tbaa !25
  %index.next17 = add nuw i64 %index15, 8
  %14 = icmp eq i64 %index.next17, %n.vec13
  br i1 %14, label %vec.epilog.middle.block, label %vec.epilog.vector.body, !llvm.loop !121

vec.epilog.middle.block:                          ; preds = %vec.epilog.vector.body
  %cmp.n14 = icmp eq i64 %n.vec13, %wide.trip.count.i
  br i1 %cmp.n14, label %delete.notnull.i, label %for.body.i.preheader

for.body.i.preheader:                             ; preds = %iter.check, %vec.epilog.iter.check, %vec.epilog.middle.block
  %indvars.iv.i.ph = phi i64 [ 0, %iter.check ], [ %n.vec, %vec.epilog.iter.check ], [ %n.vec13, %vec.epilog.middle.block ]
  %15 = xor i64 %indvars.iv.i.ph, -1
  %16 = add nsw i64 %15, %wide.trip.count.i
  %xtraiter = and i64 %wide.trip.count.i, 3
  %lcmp.mod.not = icmp eq i64 %xtraiter, 0
  br i1 %lcmp.mod.not, label %for.body.i.prol.loopexit, label %for.body.i.prol

for.body.i.prol:                                  ; preds = %for.body.i.preheader, %for.body.i.prol
  %indvars.iv.i.prol = phi i64 [ %indvars.iv.next.i.prol, %for.body.i.prol ], [ %indvars.iv.i.ph, %for.body.i.preheader ]
  %prol.iter = phi i64 [ %prol.iter.next, %for.body.i.prol ], [ 0, %for.body.i.preheader ]
  %arrayidx.i.prol = getelementptr inbounds i8, ptr %4, i64 %indvars.iv.i.prol
  %17 = load i8, ptr %arrayidx.i.prol, align 1, !tbaa !25
  %arrayidx7.i.prol = getelementptr inbounds i8, ptr %call.i, i64 %indvars.iv.i.prol
  store i8 %17, ptr %arrayidx7.i.prol, align 1, !tbaa !25
  %indvars.iv.next.i.prol = add nuw nsw i64 %indvars.iv.i.prol, 1
  %prol.iter.next = add i64 %prol.iter, 1
  %prol.iter.cmp.not = icmp eq i64 %prol.iter.next, %xtraiter
  br i1 %prol.iter.cmp.not, label %for.body.i.prol.loopexit, label %for.body.i.prol, !llvm.loop !122

for.body.i.prol.loopexit:                         ; preds = %for.body.i.prol, %for.body.i.preheader
  %indvars.iv.i.unr = phi i64 [ %indvars.iv.i.ph, %for.body.i.preheader ], [ %indvars.iv.next.i.prol, %for.body.i.prol ]
  %18 = icmp ult i64 %16, 3
  br i1 %18, label %delete.notnull.i, label %for.body.i

for.cond.cleanup.i:                               ; preds = %for.cond.preheader.i
  %isnull.i = icmp eq ptr %4, null
  br i1 %isnull.i, label %if.end9.i, label %delete.notnull.i

for.body.i:                                       ; preds = %for.body.i.prol.loopexit, %for.body.i
  %indvars.iv.i = phi i64 [ %indvars.iv.next.i.3, %for.body.i ], [ %indvars.iv.i.unr, %for.body.i.prol.loopexit ]
  %arrayidx.i = getelementptr inbounds i8, ptr %4, i64 %indvars.iv.i
  %19 = load i8, ptr %arrayidx.i, align 1, !tbaa !25
  %arrayidx7.i = getelementptr inbounds i8, ptr %call.i, i64 %indvars.iv.i
  store i8 %19, ptr %arrayidx7.i, align 1, !tbaa !25
  %indvars.iv.next.i = add nuw nsw i64 %indvars.iv.i, 1
  %arrayidx.i.1 = getelementptr inbounds i8, ptr %4, i64 %indvars.iv.next.i
  %20 = load i8, ptr %arrayidx.i.1, align 1, !tbaa !25
  %arrayidx7.i.1 = getelementptr inbounds i8, ptr %call.i, i64 %indvars.iv.next.i
  store i8 %20, ptr %arrayidx7.i.1, align 1, !tbaa !25
  %indvars.iv.next.i.1 = add nuw nsw i64 %indvars.iv.i, 2
  %arrayidx.i.2 = getelementptr inbounds i8, ptr %4, i64 %indvars.iv.next.i.1
  %21 = load i8, ptr %arrayidx.i.2, align 1, !tbaa !25
  %arrayidx7.i.2 = getelementptr inbounds i8, ptr %call.i, i64 %indvars.iv.next.i.1
  store i8 %21, ptr %arrayidx7.i.2, align 1, !tbaa !25
  %indvars.iv.next.i.2 = add nuw nsw i64 %indvars.iv.i, 3
  %arrayidx.i.3 = getelementptr inbounds i8, ptr %4, i64 %indvars.iv.next.i.2
  %22 = load i8, ptr %arrayidx.i.3, align 1, !tbaa !25
  %arrayidx7.i.3 = getelementptr inbounds i8, ptr %call.i, i64 %indvars.iv.next.i.2
  store i8 %22, ptr %arrayidx7.i.3, align 1, !tbaa !25
  %indvars.iv.next.i.3 = add nuw nsw i64 %indvars.iv.i, 4
  %exitcond.not.i.3 = icmp eq i64 %indvars.iv.next.i.3, %wide.trip.count.i
  br i1 %exitcond.not.i.3, label %delete.notnull.i, label %for.body.i, !llvm.loop !123

delete.notnull.i:                                 ; preds = %for.body.i.prol.loopexit, %for.body.i, %middle.block, %vec.epilog.middle.block, %for.cond.cleanup.i
  tail call void @_ZdaPv(ptr noundef nonnull %4) #19
  br label %if.end9.i

if.end9.i:                                        ; preds = %delete.notnull.i, %for.cond.cleanup.i, %if.end.i
  store ptr %call.i, ptr %this, align 8, !tbaa !24
  %23 = load i32, ptr %_length.i, align 8, !tbaa !73
  %idxprom13.i = sext i32 %23 to i64
  %arrayidx14.i = getelementptr inbounds i8, ptr %call.i, i64 %idxprom13.i
  store i8 0, ptr %arrayidx14.i, align 1, !tbaa !25
  store i32 %add.i, ptr %_capacity.i, align 4, !tbaa !26
  br label %_ZN11CStringBaseIcE11SetCapacityEi.exit

_ZN11CStringBaseIcE11SetCapacityEi.exit:          ; preds = %if.end._ZN11CStringBaseIcE11SetCapacityEi.exit_crit_edge, %if.end9.i
  %24 = phi ptr [ %.pre, %if.end._ZN11CStringBaseIcE11SetCapacityEi.exit_crit_edge ], [ %call.i, %if.end9.i ]
  %25 = load ptr, ptr %s, align 8, !tbaa !24
  br label %while.cond.i

while.cond.i:                                     ; preds = %while.cond.i, %_ZN11CStringBaseIcE11SetCapacityEi.exit
  %src.addr.0.i = phi ptr [ %25, %_ZN11CStringBaseIcE11SetCapacityEi.exit ], [ %incdec.ptr.i, %while.cond.i ]
  %dest.addr.0.i = phi ptr [ %24, %_ZN11CStringBaseIcE11SetCapacityEi.exit ], [ %incdec.ptr1.i, %while.cond.i ]
  %incdec.ptr.i = getelementptr inbounds i8, ptr %src.addr.0.i, i64 1
  %26 = load i8, ptr %src.addr.0.i, align 1, !tbaa !25
  %incdec.ptr1.i = getelementptr inbounds i8, ptr %dest.addr.0.i, i64 1
  store i8 %26, ptr %dest.addr.0.i, align 1, !tbaa !25
  %cmp.not.i = icmp eq i8 %26, 0
  br i1 %cmp.not.i, label %_Z12MyStringCopyIcEPT_S1_PKS0_.exit, label %while.cond.i, !llvm.loop !75

_Z12MyStringCopyIcEPT_S1_PKS0_.exit:              ; preds = %while.cond.i
  %27 = load i32, ptr %_length, align 8, !tbaa !73
  store i32 %27, ptr %_length.i, align 8, !tbaa !73
  br label %return

return:                                           ; preds = %entry, %_Z12MyStringCopyIcEPT_S1_PKS0_.exit
  ret ptr %this
}

declare noundef zeroext i1 @_Z20ConvertUnicodeToUTF8RK11CStringBaseIwERS_IcE(ptr noundef nonnull align 8 dereferenceable(16), ptr noundef nonnull align 8 dereferenceable(16)) local_unnamed_addr #4

declare noundef i32 @_ZN8NArchive4NZip6UpdateERK13CObjectVectorINS0_7CItemExEERKS1_INS0_11CUpdateItemEEP20ISequentialOutStreamPNS0_10CInArchiveEPNS0_22CCompressionMethodModeEP22IArchiveUpdateCallback(ptr noundef nonnull align 8 dereferenceable(32), ptr noundef nonnull align 8 dereferenceable(32), ptr noundef, ptr noundef, ptr noundef, ptr noundef) local_unnamed_addr #4

; Function Attrs: inlinehint nounwind uwtable
define linkonce_odr dso_local void @_ZN8NArchive4NZip22CCompressionMethodModeD2Ev(ptr noundef nonnull align 8 dereferenceable(106) %this) unnamed_addr #6 comdat align 2 {
entry:
  %Password = getelementptr inbounds %"struct.NArchive::NZip::CCompressionMethodMode", ptr %this, i64 0, i32 14
  %0 = load ptr, ptr %Password, align 8, !tbaa !24
  %isnull.i = icmp eq ptr %0, null
  br i1 %isnull.i, label %_ZN11CStringBaseIcED2Ev.exit, label %delete.notnull.i

delete.notnull.i:                                 ; preds = %entry
  tail call void @_ZdaPv(ptr noundef nonnull %0) #19
  br label %_ZN11CStringBaseIcED2Ev.exit

_ZN11CStringBaseIcED2Ev.exit:                     ; preds = %entry, %delete.notnull.i
  %MatchFinder = getelementptr inbounds %"struct.NArchive::NZip::CCompressionMethodMode", ptr %this, i64 0, i32 1
  %1 = load ptr, ptr %MatchFinder, align 8, !tbaa !40
  %isnull.i2 = icmp eq ptr %1, null
  br i1 %isnull.i2, label %_ZN11CStringBaseIwED2Ev.exit, label %delete.notnull.i3

delete.notnull.i3:                                ; preds = %_ZN11CStringBaseIcED2Ev.exit
  tail call void @_ZdaPv(ptr noundef nonnull %1) #19
  br label %_ZN11CStringBaseIwED2Ev.exit

_ZN11CStringBaseIwED2Ev.exit:                     ; preds = %_ZN11CStringBaseIcED2Ev.exit, %delete.notnull.i3
  tail call void @_ZN17CBaseRecordVectorD2Ev(ptr noundef nonnull align 8 dereferenceable(32) %this) #16
  ret void
}

; Function Attrs: nounwind uwtable
define linkonce_odr dso_local void @_ZN13CObjectVectorIN8NArchive4NZip11CUpdateItemEED2Ev(ptr noundef nonnull align 8 dereferenceable(32) %this) unnamed_addr #7 comdat align 2 personality ptr @__gxx_personality_v0 {
entry:
  store ptr getelementptr inbounds ({ [5 x ptr] }, ptr @_ZTV13CObjectVectorIN8NArchive4NZip11CUpdateItemEE, i64 0, inrange i32 0, i64 2), ptr %this, align 8, !tbaa !13
  invoke void @_ZN17CBaseRecordVector5ClearEv(ptr noundef nonnull align 8 dereferenceable(32) %this)
          to label %invoke.cont unwind label %terminate.lpad

invoke.cont:                                      ; preds = %entry
  tail call void @_ZN17CBaseRecordVectorD2Ev(ptr noundef nonnull align 8 dereferenceable(32) %this) #16
  ret void

terminate.lpad:                                   ; preds = %entry
  %0 = landingpad { ptr, i32 }
          catch ptr null
  %1 = extractvalue { ptr, i32 } %0, 0
  tail call void @__clang_call_terminate(ptr %1) #18
  unreachable
}

; Function Attrs: nofree nosync nounwind memory(none)
declare i32 @llvm.eh.typeid.for(ptr) #8

declare ptr @__cxa_begin_catch(ptr) local_unnamed_addr

declare void @__cxa_end_catch() local_unnamed_addr

; Function Attrs: uwtable
define dso_local noundef i32 @_ZThn8_N8NArchive4NZip8CHandler11UpdateItemsEP20ISequentialOutStreamjP22IArchiveUpdateCallback(ptr noundef %this, ptr noundef %outStream, i32 noundef %numItems, ptr noundef %callback) unnamed_addr #1 align 2 {
entry:
  %0 = getelementptr inbounds i8, ptr %this, i64 -8
  %call = tail call noundef i32 @_ZN8NArchive4NZip8CHandler11UpdateItemsEP20ISequentialOutStreamjP22IArchiveUpdateCallback(ptr noundef nonnull align 8 dereferenceable(256) %0, ptr noundef %outStream, i32 noundef %numItems, ptr noundef %callback)
  ret i32 %call
}

; Function Attrs: uwtable
define dso_local noundef i32 @_ZN8NArchive4NZip8CHandler13SetPropertiesEPPKwPK14tagPROPVARIANTi(ptr noundef nonnull align 8 dereferenceable(256) %this, ptr nocapture noundef readonly %names, ptr noundef %values, i32 noundef %numProperties) unnamed_addr #1 align 2 personality ptr @__gxx_personality_v0 {
entry:
  %name = alloca %class.CStringBase.3, align 8
  %level = alloca i32, align 4
  %ref.tmp = alloca %class.CStringBase.3, align 8
  %ref.tmp85 = alloca %class.CStringBase.3, align 8
  %valueString = alloca %class.CStringBase.3, align 8
  %ref.tmp102 = alloca %class.CStringBase.3, align 8
  %dicSize = alloca i32, align 4
  %ref.tmp162 = alloca %class.CStringBase.3, align 8
  %ref.tmp182 = alloca %class.CStringBase.3, align 8
  %memSize = alloca i32, align 4
  %ref.tmp192 = alloca %class.CStringBase.3, align 8
  %order = alloca i32, align 4
  %ref.tmp218 = alloca %class.CStringBase.3, align 8
  %ref.tmp238 = alloca %class.CStringBase.3, align 8
  %num = alloca i32, align 4
  %ref.tmp248 = alloca %class.CStringBase.3, align 8
  %ref.tmp268 = alloca %class.CStringBase.3, align 8
  %num277 = alloca i32, align 4
  %ref.tmp279 = alloca %class.CStringBase.3, align 8
  %ref.tmp299 = alloca %class.CStringBase.3, align 8
  %num308 = alloca i32, align 4
  %ref.tmp310 = alloca %class.CStringBase.3, align 8
  %ref.tmp330 = alloca %class.CStringBase.3, align 8
  %ref.tmp340 = alloca %class.CStringBase.3, align 8
  %ref.tmp357 = alloca %class.CStringBase.3, align 8
  %num366 = alloca i32, align 4
  %ref.tmp368 = alloca %class.CStringBase.3, align 8
  %call = tail call noundef i32 @_ZN8NWindows7NSystem21GetNumberOfProcessorsEv()
  %_numThreads = getelementptr inbounds %"class.NArchive::NZip::CHandler", ptr %this, i64 0, i32 22
  store i32 %call, ptr %_numThreads, align 4, !tbaa !110
  %m_Level.i = getelementptr inbounds %"class.NArchive::NZip::CHandler", ptr %this, i64 0, i32 6
  %m_NumMatchFinderCyclesDefined.i = getelementptr inbounds %"class.NArchive::NZip::CHandler", ptr %this, i64 0, i32 15
  tail call void @llvm.memset.p0.i64(ptr noundef nonnull align 8 dereferenceable(36) %m_Level.i, i8 -1, i64 36, i1 false)
  %m_ForceAesMode.i = getelementptr inbounds %"class.NArchive::NZip::CHandler", ptr %this, i64 0, i32 16
  %m_IsAesMode.i = getelementptr inbounds %"class.NArchive::NZip::CHandler", ptr %this, i64 0, i32 17
  %m_AesKeyMode.i = getelementptr inbounds %"class.NArchive::NZip::CHandler", ptr %this, i64 0, i32 18
  store <4 x i8> <i8 0, i8 0, i8 0, i8 3>, ptr %m_NumMatchFinderCyclesDefined.i, align 4, !tbaa !25
  %m_WriteNtfsTimeExtra.i = getelementptr inbounds %"class.NArchive::NZip::CHandler", ptr %this, i64 0, i32 19
  store i8 0, ptr %m_WriteNtfsTimeExtra.i, align 8, !tbaa !124
  %m_ForceLocal.i = getelementptr inbounds %"class.NArchive::NZip::CHandler", ptr %this, i64 0, i32 20
  store i8 0, ptr %m_ForceLocal.i, align 1, !tbaa !58
  %m_ForceUtf8.i = getelementptr inbounds %"class.NArchive::NZip::CHandler", ptr %this, i64 0, i32 21
  store i8 0, ptr %m_ForceUtf8.i, align 2, !tbaa !125
  %call.i = tail call noundef i32 @_ZN8NWindows7NSystem21GetNumberOfProcessorsEv()
  store i32 %call.i, ptr %_numThreads, align 4, !tbaa !110
  %cmp.not1148 = icmp sgt i32 %numProperties, 0
  br i1 %cmp.not1148, label %for.body.lr.ph, label %cleanup467

for.body.lr.ph:                                   ; preds = %entry
  %_capacity.i = getelementptr inbounds %class.CStringBase.3, ptr %name, i64 0, i32 2
  %_length.i = getelementptr inbounds %class.CStringBase.3, ptr %name, i64 0, i32 1
  %m_Algo = getelementptr inbounds %"class.NArchive::NZip::CHandler", ptr %this, i64 0, i32 9
  %_capacity.i31.i1103 = getelementptr inbounds %class.CStringBase.3, ptr %ref.tmp310, i64 0, i32 2
  %_length17.i1123 = getelementptr inbounds %class.CStringBase.3, ptr %ref.tmp310, i64 0, i32 1
  %m_NumMatchFinderCycles = getelementptr inbounds %"class.NArchive::NZip::CHandler", ptr %this, i64 0, i32 12
  %_capacity.i31.i1073 = getelementptr inbounds %class.CStringBase.3, ptr %ref.tmp279, i64 0, i32 2
  %_length17.i1093 = getelementptr inbounds %class.CStringBase.3, ptr %ref.tmp279, i64 0, i32 1
  %m_NumFastBytes = getelementptr inbounds %"class.NArchive::NZip::CHandler", ptr %this, i64 0, i32 11
  %_capacity.i31.i1043 = getelementptr inbounds %class.CStringBase.3, ptr %ref.tmp248, i64 0, i32 2
  %_length17.i1063 = getelementptr inbounds %class.CStringBase.3, ptr %ref.tmp248, i64 0, i32 1
  %m_NumPasses = getelementptr inbounds %"class.NArchive::NZip::CHandler", ptr %this, i64 0, i32 10
  %_capacity.i31.i1013 = getelementptr inbounds %class.CStringBase.3, ptr %ref.tmp218, i64 0, i32 2
  %_length17.i1033 = getelementptr inbounds %class.CStringBase.3, ptr %ref.tmp218, i64 0, i32 1
  %m_Order = getelementptr inbounds %"class.NArchive::NZip::CHandler", ptr %this, i64 0, i32 14
  %_capacity.i31.i983 = getelementptr inbounds %class.CStringBase.3, ptr %ref.tmp192, i64 0, i32 2
  %_length17.i1003 = getelementptr inbounds %class.CStringBase.3, ptr %ref.tmp192, i64 0, i32 1
  %m_MemSize = getelementptr inbounds %"class.NArchive::NZip::CHandler", ptr %this, i64 0, i32 13
  %_capacity.i31.i953 = getelementptr inbounds %class.CStringBase.3, ptr %ref.tmp162, i64 0, i32 2
  %_length17.i973 = getelementptr inbounds %class.CStringBase.3, ptr %ref.tmp162, i64 0, i32 1
  %m_DicSize = getelementptr inbounds %"class.NArchive::NZip::CHandler", ptr %this, i64 0, i32 8
  %_capacity.i670 = getelementptr inbounds %class.CStringBase.3, ptr %valueString, i64 0, i32 2
  %_length.i689 = getelementptr inbounds %class.CStringBase.3, ptr %valueString, i64 0, i32 1
  %m_MainMethod80 = getelementptr inbounds %"class.NArchive::NZip::CHandler", ptr %this, i64 0, i32 7
  %_capacity.i31.i = getelementptr inbounds %class.CStringBase.3, ptr %ref.tmp, i64 0, i32 2
  %_length17.i = getelementptr inbounds %class.CStringBase.3, ptr %ref.tmp, i64 0, i32 1
  %wide.trip.count = zext i32 %numProperties to i64
  br label %for.body

for.body:                                         ; preds = %for.body.lr.ph, %for.inc
  %indvars.iv = phi i64 [ 0, %for.body.lr.ph ], [ %indvars.iv.next, %for.inc ]
  %retval.01156 = phi i32 [ undef, %for.body.lr.ph ], [ %retval.17, %for.inc ]
  call void @llvm.lifetime.start.p0(i64 16, ptr nonnull %name) #16
  %arrayidx = getelementptr inbounds ptr, ptr %names, i64 %indvars.iv
  %0 = load ptr, ptr %arrayidx, align 8, !tbaa !32
  call void @llvm.memset.p0.i64(ptr noundef nonnull align 8 dereferenceable(16) %name, i8 0, i64 16, i1 false)
  br label %for.cond.i.i

for.cond.i.i:                                     ; preds = %for.cond.i.i, %for.body
  %indvars.iv.i.i = phi i64 [ %indvars.iv.next.i.i, %for.cond.i.i ], [ 0, %for.body ]
  %arrayidx.i.i = getelementptr inbounds i32, ptr %0, i64 %indvars.iv.i.i
  %1 = load i32, ptr %arrayidx.i.i, align 4, !tbaa !42
  %cmp.not.i.i = icmp eq i32 %1, 0
  %indvars.iv.next.i.i = add nuw i64 %indvars.iv.i.i, 1
  br i1 %cmp.not.i.i, label %_Z11MyStringLenIwEiPKT_.exit.i, label %for.cond.i.i, !llvm.loop !50

_Z11MyStringLenIwEiPKT_.exit.i:                   ; preds = %for.cond.i.i
  %2 = trunc i64 %indvars.iv.i.i to i32
  %add.i.i = add nsw i32 %2, 1
  %cmp.i.i = icmp eq i32 %add.i.i, 0
  br i1 %cmp.i.i, label %_ZN11CStringBaseIwE11SetCapacityEi.exit.i, label %if.end9.i.i

if.end9.i.i:                                      ; preds = %_Z11MyStringLenIwEiPKT_.exit.i
  %conv.i.i = zext i32 %add.i.i to i64
  %3 = icmp slt i32 %2, -1
  %4 = shl nuw nsw i64 %conv.i.i, 2
  %5 = select i1 %3, i64 -1, i64 %4
  %call.i.i = call noalias noundef nonnull ptr @_Znam(i64 noundef %5) #17
  store ptr %call.i.i, ptr %name, align 8, !tbaa !40
  store i32 0, ptr %call.i.i, align 4, !tbaa !42
  store i32 %add.i.i, ptr %_capacity.i, align 4, !tbaa !44
  br label %_ZN11CStringBaseIwE11SetCapacityEi.exit.i

_ZN11CStringBaseIwE11SetCapacityEi.exit.i:        ; preds = %if.end9.i.i, %_Z11MyStringLenIwEiPKT_.exit.i
  %6 = phi ptr [ null, %_Z11MyStringLenIwEiPKT_.exit.i ], [ %call.i.i, %if.end9.i.i ]
  br label %while.cond.i.i

while.cond.i.i:                                   ; preds = %while.cond.i.i, %_ZN11CStringBaseIwE11SetCapacityEi.exit.i
  %src.addr.0.i.i = phi ptr [ %0, %_ZN11CStringBaseIwE11SetCapacityEi.exit.i ], [ %incdec.ptr.i.i, %while.cond.i.i ]
  %dest.addr.0.i.i = phi ptr [ %6, %_ZN11CStringBaseIwE11SetCapacityEi.exit.i ], [ %incdec.ptr1.i.i, %while.cond.i.i ]
  %incdec.ptr.i.i = getelementptr inbounds i32, ptr %src.addr.0.i.i, i64 1
  %7 = load i32, ptr %src.addr.0.i.i, align 4, !tbaa !42
  %incdec.ptr1.i.i = getelementptr inbounds i32, ptr %dest.addr.0.i.i, i64 1
  store i32 %7, ptr %dest.addr.0.i.i, align 4, !tbaa !42
  %cmp.not.i10.i = icmp eq i32 %7, 0
  br i1 %cmp.not.i10.i, label %_ZN11CStringBaseIwEC2EPKw.exit, label %while.cond.i.i, !llvm.loop !51

_ZN11CStringBaseIwEC2EPKw.exit:                   ; preds = %while.cond.i.i
  store i32 %2, ptr %_length.i, align 8, !tbaa !49
  %call.i598599 = invoke noundef ptr @_Z13MyStringUpperPw(ptr noundef %6)
          to label %invoke.cont unwind label %lpad

invoke.cont:                                      ; preds = %_ZN11CStringBaseIwEC2EPKw.exit
  %8 = load i32, ptr %_length.i, align 8
  %cmp.i = icmp eq i32 %8, 0
  br i1 %cmp.i, label %cleanup461, label %if.end

lpad:                                             ; preds = %_ZN11CStringBaseIwEC2EPKw.exit
  %9 = landingpad { ptr, i32 }
          cleanup
  br label %ehcleanup462

if.end:                                           ; preds = %invoke.cont
  %arrayidx5 = getelementptr inbounds %struct.tagPROPVARIANT, ptr %values, i64 %indvars.iv
  %10 = load ptr, ptr %name, align 8, !tbaa !40
  %11 = load i32, ptr %10, align 4, !tbaa !42
  %cmp10 = icmp eq i32 %11, 88
  br i1 %cmp10, label %if.then11, label %if.else

if.then11:                                        ; preds = %if.end
  call void @llvm.lifetime.start.p0(i64 4, ptr nonnull %level) #16
  store i32 9, ptr %level, align 4, !tbaa !5
  call void @llvm.lifetime.start.p0(i64 16, ptr nonnull %ref.tmp) #16
  %sub.i = add nsw i32 %8, -1
  call void @llvm.experimental.noalias.scope.decl(metadata !126)
  %call.i.i32.i917 = invoke noalias noundef nonnull dereferenceable(16) ptr @_Znam(i64 noundef 16) #17
          to label %call.i.i32.i.noexc unwind label %lpad12

call.i.i32.i.noexc:                               ; preds = %if.then11
  store ptr %call.i.i32.i917, ptr %ref.tmp, align 8, !tbaa !40, !alias.scope !126
  store i32 0, ptr %call.i.i32.i917, align 4, !tbaa !42, !noalias !126
  store i32 4, ptr %_capacity.i31.i, align 4, !tbaa !44, !alias.scope !126
  %cmp.i.i912 = icmp eq i32 %8, 4
  br i1 %cmp.i.i912, label %for.body.lr.ph.i, label %if.end.i.i914

if.end.i.i914:                                    ; preds = %call.i.i32.i.noexc
  %conv.i.i913 = zext i32 %8 to i64
  %12 = icmp slt i32 %8, 0
  %13 = shl nuw nsw i64 %conv.i.i913, 2
  %14 = select i1 %12, i64 -1, i64 %13
  %call.i36.i = invoke noalias noundef nonnull ptr @_Znam(i64 noundef %14) #17
          to label %_ZN11CStringBaseIwE11SetCapacityEi.exit.i915 unwind label %_ZN11CStringBaseIwED2Ev.exit.i, !noalias !126

_ZN11CStringBaseIwE11SetCapacityEi.exit.i915:     ; preds = %if.end.i.i914
  call void @_ZdaPv(ptr noundef nonnull %call.i.i32.i917) #19, !noalias !126
  store ptr %call.i36.i, ptr %ref.tmp, align 8, !tbaa !40, !alias.scope !126
  store i32 0, ptr %call.i36.i, align 4, !tbaa !42, !noalias !126
  store i32 %8, ptr %_capacity.i31.i, align 4, !tbaa !44, !alias.scope !126
  %cmp939.i = icmp sgt i32 %8, 1
  br i1 %cmp939.i, label %_ZN11CStringBaseIwE11SetCapacityEi.exit.i915.for.body.lr.ph.i_crit_edge, label %_ZN11CStringBaseIwE11SetCapacityEi.exit.for.cond.cleanup_crit_edge.i

_ZN11CStringBaseIwE11SetCapacityEi.exit.i915.for.body.lr.ph.i_crit_edge: ; preds = %_ZN11CStringBaseIwE11SetCapacityEi.exit.i915
  %.pre1184 = load ptr, ptr %name, align 8, !tbaa !40, !noalias !126
  br label %for.body.lr.ph.i

_ZN11CStringBaseIwE11SetCapacityEi.exit.for.cond.cleanup_crit_edge.i: ; preds = %_ZN11CStringBaseIwE11SetCapacityEi.exit.i915
  %.pre.i916 = sext i32 %sub.i to i64
  br label %invoke.cont13

for.body.lr.ph.i:                                 ; preds = %_ZN11CStringBaseIwE11SetCapacityEi.exit.i915.for.body.lr.ph.i_crit_edge, %call.i.i32.i.noexc
  %15 = phi ptr [ %.pre1184, %_ZN11CStringBaseIwE11SetCapacityEi.exit.i915.for.body.lr.ph.i_crit_edge ], [ %10, %call.i.i32.i.noexc ]
  %16 = phi ptr [ %call.i36.i, %_ZN11CStringBaseIwE11SetCapacityEi.exit.i915.for.body.lr.ph.i_crit_edge ], [ %call.i.i32.i917, %call.i.i32.i.noexc ]
  %17 = zext i32 %sub.i to i64
  %min.iters.check = icmp ult i32 %8, 9
  br i1 %min.iters.check, label %for.body.i.preheader, label %vector.memcheck

vector.memcheck:                                  ; preds = %for.body.lr.ph.i
  %18 = ptrtoint ptr %15 to i64
  %19 = ptrtoint ptr %16 to i64
  %20 = add nuw i64 %18, 4
  %21 = sub i64 %19, %20
  %diff.check = icmp ult i64 %21, 32
  br i1 %diff.check, label %for.body.i.preheader, label %vector.ph

vector.ph:                                        ; preds = %vector.memcheck
  %n.vec = and i64 %17, 4294967288
  br label %vector.body

vector.body:                                      ; preds = %vector.body, %vector.ph
  %index = phi i64 [ 0, %vector.ph ], [ %index.next, %vector.body ]
  %22 = or i64 %index, 1
  %23 = getelementptr inbounds i32, ptr %15, i64 %22
  %wide.load = load <4 x i32>, ptr %23, align 4, !tbaa !42, !noalias !126
  %24 = getelementptr inbounds i32, ptr %23, i64 4
  %wide.load1203 = load <4 x i32>, ptr %24, align 4, !tbaa !42, !noalias !126
  %25 = getelementptr inbounds i32, ptr %16, i64 %index
  store <4 x i32> %wide.load, ptr %25, align 4, !tbaa !42, !noalias !126
  %26 = getelementptr inbounds i32, ptr %25, i64 4
  store <4 x i32> %wide.load1203, ptr %26, align 4, !tbaa !42, !noalias !126
  %index.next = add nuw i64 %index, 8
  %27 = icmp eq i64 %index.next, %n.vec
  br i1 %27, label %middle.block, label %vector.body, !llvm.loop !129

middle.block:                                     ; preds = %vector.body
  %cmp.n = icmp eq i64 %n.vec, %17
  br i1 %cmp.n, label %invoke.cont13, label %for.body.i.preheader

for.body.i.preheader:                             ; preds = %vector.memcheck, %for.body.lr.ph.i, %middle.block
  %indvars.iv.i.ph = phi i64 [ 0, %vector.memcheck ], [ 0, %for.body.lr.ph.i ], [ %n.vec, %middle.block ]
  %28 = xor i64 %indvars.iv.i.ph, -1
  %29 = add nsw i64 %28, %17
  %xtraiter1336 = and i64 %17, 3
  %lcmp.mod1337.not = icmp eq i64 %xtraiter1336, 0
  br i1 %lcmp.mod1337.not, label %for.body.i.prol.loopexit, label %for.body.i.prol

for.body.i.prol:                                  ; preds = %for.body.i.preheader, %for.body.i.prol
  %indvars.iv.i.prol = phi i64 [ %30, %for.body.i.prol ], [ %indvars.iv.i.ph, %for.body.i.preheader ]
  %prol.iter1338 = phi i64 [ %prol.iter1338.next, %for.body.i.prol ], [ 0, %for.body.i.preheader ]
  %30 = add nuw nsw i64 %indvars.iv.i.prol, 1
  %arrayidx.i.prol = getelementptr inbounds i32, ptr %15, i64 %30
  %31 = load i32, ptr %arrayidx.i.prol, align 4, !tbaa !42, !noalias !126
  %arrayidx13.i.prol = getelementptr inbounds i32, ptr %16, i64 %indvars.iv.i.prol
  store i32 %31, ptr %arrayidx13.i.prol, align 4, !tbaa !42, !noalias !126
  %prol.iter1338.next = add i64 %prol.iter1338, 1
  %prol.iter1338.cmp.not = icmp eq i64 %prol.iter1338.next, %xtraiter1336
  br i1 %prol.iter1338.cmp.not, label %for.body.i.prol.loopexit, label %for.body.i.prol, !llvm.loop !130

for.body.i.prol.loopexit:                         ; preds = %for.body.i.prol, %for.body.i.preheader
  %indvars.iv.i.unr = phi i64 [ %indvars.iv.i.ph, %for.body.i.preheader ], [ %30, %for.body.i.prol ]
  %32 = icmp ult i64 %29, 3
  br i1 %32, label %invoke.cont13, label %for.body.i

_ZN11CStringBaseIwED2Ev.exit.i:                   ; preds = %if.end.i.i914
  %33 = landingpad { ptr, i32 }
          cleanup
  call void @_ZdaPv(ptr noundef nonnull %call.i.i32.i917) #19, !noalias !126
  br label %ehcleanup

for.body.i:                                       ; preds = %for.body.i.prol.loopexit, %for.body.i
  %indvars.iv.i = phi i64 [ %40, %for.body.i ], [ %indvars.iv.i.unr, %for.body.i.prol.loopexit ]
  %34 = add nuw nsw i64 %indvars.iv.i, 1
  %arrayidx.i = getelementptr inbounds i32, ptr %15, i64 %34
  %35 = load i32, ptr %arrayidx.i, align 4, !tbaa !42, !noalias !126
  %arrayidx13.i = getelementptr inbounds i32, ptr %16, i64 %indvars.iv.i
  store i32 %35, ptr %arrayidx13.i, align 4, !tbaa !42, !noalias !126
  %36 = add nuw nsw i64 %indvars.iv.i, 2
  %arrayidx.i.1 = getelementptr inbounds i32, ptr %15, i64 %36
  %37 = load i32, ptr %arrayidx.i.1, align 4, !tbaa !42, !noalias !126
  %arrayidx13.i.1 = getelementptr inbounds i32, ptr %16, i64 %34
  store i32 %37, ptr %arrayidx13.i.1, align 4, !tbaa !42, !noalias !126
  %38 = add nuw nsw i64 %indvars.iv.i, 3
  %arrayidx.i.2 = getelementptr inbounds i32, ptr %15, i64 %38
  %39 = load i32, ptr %arrayidx.i.2, align 4, !tbaa !42, !noalias !126
  %arrayidx13.i.2 = getelementptr inbounds i32, ptr %16, i64 %36
  store i32 %39, ptr %arrayidx13.i.2, align 4, !tbaa !42, !noalias !126
  %40 = add nuw nsw i64 %indvars.iv.i, 4
  %arrayidx.i.3 = getelementptr inbounds i32, ptr %15, i64 %40
  %41 = load i32, ptr %arrayidx.i.3, align 4, !tbaa !42, !noalias !126
  %arrayidx13.i.3 = getelementptr inbounds i32, ptr %16, i64 %38
  store i32 %41, ptr %arrayidx13.i.3, align 4, !tbaa !42, !noalias !126
  %exitcond1179.not.3 = icmp eq i64 %40, %17
  br i1 %exitcond1179.not.3, label %invoke.cont13, label %for.body.i, !llvm.loop !131

invoke.cont13:                                    ; preds = %for.body.i.prol.loopexit, %for.body.i, %middle.block, %_ZN11CStringBaseIwE11SetCapacityEi.exit.for.cond.cleanup_crit_edge.i
  %42 = phi ptr [ %call.i36.i, %_ZN11CStringBaseIwE11SetCapacityEi.exit.for.cond.cleanup_crit_edge.i ], [ %16, %middle.block ], [ %16, %for.body.i ], [ %16, %for.body.i.prol.loopexit ]
  %idxprom15.pre-phi.i = phi i64 [ %.pre.i916, %_ZN11CStringBaseIwE11SetCapacityEi.exit.for.cond.cleanup_crit_edge.i ], [ %17, %middle.block ], [ %17, %for.body.i ], [ %17, %for.body.i.prol.loopexit ]
  %arrayidx16.i = getelementptr inbounds i32, ptr %42, i64 %idxprom15.pre-phi.i
  store i32 0, ptr %arrayidx16.i, align 4, !tbaa !42, !noalias !126
  store i32 %sub.i, ptr %_length17.i, align 8, !tbaa !49, !alias.scope !126
  %call16 = invoke noundef i32 @_Z14ParsePropValueRK11CStringBaseIwERK14tagPROPVARIANTRj(ptr noundef nonnull align 8 dereferenceable(16) %ref.tmp, ptr noundef nonnull align 8 dereferenceable(16) %arrayidx5, ptr noundef nonnull align 4 dereferenceable(4) %level)
          to label %invoke.cont15 unwind label %lpad14

invoke.cont15:                                    ; preds = %invoke.cont13
  %43 = load ptr, ptr %ref.tmp, align 8, !tbaa !40
  %isnull.i = icmp eq ptr %43, null
  br i1 %isnull.i, label %_ZN11CStringBaseIwED2Ev.exit, label %delete.notnull.i

delete.notnull.i:                                 ; preds = %invoke.cont15
  call void @_ZdaPv(ptr noundef nonnull %43) #19
  br label %_ZN11CStringBaseIwED2Ev.exit

_ZN11CStringBaseIwED2Ev.exit:                     ; preds = %invoke.cont15, %delete.notnull.i
  call void @llvm.lifetime.end.p0(i64 16, ptr nonnull %ref.tmp) #16
  %cmp17.not = icmp eq i32 %call16, 0
  %retval.0.call16 = select i1 %cmp17.not, i32 %retval.01156, i32 %call16
  br i1 %cmp17.not, label %cleanup.cont, label %cleanup21

lpad6:                                            ; preds = %if.else422, %if.else403, %if.else387, %if.else
  %44 = landingpad { ptr, i32 }
          cleanup
  br label %ehcleanup462

lpad12:                                           ; preds = %if.then11
  %45 = landingpad { ptr, i32 }
          cleanup
  br label %ehcleanup

lpad14:                                           ; preds = %invoke.cont13
  %46 = landingpad { ptr, i32 }
          cleanup
  %47 = load ptr, ptr %ref.tmp, align 8, !tbaa !40
  %isnull.i602 = icmp eq ptr %47, null
  br i1 %isnull.i602, label %ehcleanup, label %delete.notnull.i603

delete.notnull.i603:                              ; preds = %lpad14
  call void @_ZdaPv(ptr noundef nonnull %47) #19
  br label %ehcleanup

ehcleanup:                                        ; preds = %delete.notnull.i603, %lpad14, %lpad12, %_ZN11CStringBaseIwED2Ev.exit.i
  %.pn588 = phi { ptr, i32 } [ %45, %lpad12 ], [ %33, %_ZN11CStringBaseIwED2Ev.exit.i ], [ %46, %lpad14 ], [ %46, %delete.notnull.i603 ]
  call void @llvm.lifetime.end.p0(i64 16, ptr nonnull %ref.tmp) #16
  call void @llvm.lifetime.end.p0(i64 4, ptr nonnull %level) #16
  br label %ehcleanup462

cleanup.cont:                                     ; preds = %_ZN11CStringBaseIwED2Ev.exit
  %48 = load i32, ptr %level, align 4, !tbaa !5
  store i32 %48, ptr %m_Level.i, align 8, !tbaa !97
  br label %cleanup21

cleanup21:                                        ; preds = %_ZN11CStringBaseIwED2Ev.exit, %cleanup.cont
  %cleanup.dest.slot.1 = phi i32 [ 4, %cleanup.cont ], [ 1, %_ZN11CStringBaseIwED2Ev.exit ]
  call void @llvm.lifetime.end.p0(i64 4, ptr nonnull %level) #16
  br label %cleanup461

if.else:                                          ; preds = %if.end
  %call.i.i605607 = invoke noundef i32 @_Z15MyStringComparePKwS0_(ptr noundef nonnull %10, ptr noundef nonnull @.str)
          to label %invoke.cont23 unwind label %lpad6

invoke.cont23:                                    ; preds = %if.else
  %cmp.i606 = icmp eq i32 %call.i.i605607, 0
  br i1 %cmp.i606, label %if.then25, label %if.else84

if.then25:                                        ; preds = %invoke.cont23
  %49 = load i16, ptr %arrayidx5, align 8, !tbaa !45
  switch i16 %49, label %cleanup461 [
    i16 8, label %if.then27
    i16 19, label %if.then77
  ]

if.then27:                                        ; preds = %if.then25
  %50 = getelementptr inbounds %struct.tagPROPVARIANT, ptr %values, i64 %indvars.iv, i32 4
  %51 = load ptr, ptr %50, align 8, !tbaa !25
  br label %for.cond.i.i613

for.cond.i.i613:                                  ; preds = %for.cond.i.i613, %if.then27
  %indvars.iv.i.i609 = phi i64 [ %indvars.iv.next.i.i612, %for.cond.i.i613 ], [ 0, %if.then27 ]
  %arrayidx.i.i610 = getelementptr inbounds i32, ptr %51, i64 %indvars.iv.i.i609
  %52 = load i32, ptr %arrayidx.i.i610, align 4, !tbaa !42
  %cmp.not.i.i611 = icmp eq i32 %52, 0
  %indvars.iv.next.i.i612 = add nuw i64 %indvars.iv.i.i609, 1
  br i1 %cmp.not.i.i611, label %_Z11MyStringLenIwEiPKT_.exit.i616, label %for.cond.i.i613, !llvm.loop !50

_Z11MyStringLenIwEiPKT_.exit.i616:                ; preds = %for.cond.i.i613
  %53 = trunc i64 %indvars.iv.i.i609 to i32
  %add.i.i614 = add nsw i32 %53, 1
  %cmp.i.i615 = icmp eq i32 %add.i.i614, 0
  br i1 %cmp.i.i615, label %_ZN11CStringBaseIwE11SetCapacityEi.exit.i620, label %if.end9.i.i619

if.end9.i.i619:                                   ; preds = %_Z11MyStringLenIwEiPKT_.exit.i616
  %conv.i.i617 = zext i32 %add.i.i614 to i64
  %54 = icmp slt i32 %53, -1
  %55 = shl nuw nsw i64 %conv.i.i617, 2
  %56 = select i1 %54, i64 -1, i64 %55
  %call.i.i618628 = invoke noalias noundef nonnull ptr @_Znam(i64 noundef %56) #17
          to label %call.i.i618.noexc unwind label %lpad28

call.i.i618.noexc:                                ; preds = %if.end9.i.i619
  store i32 0, ptr %call.i.i618628, align 4, !tbaa !42
  br label %_ZN11CStringBaseIwE11SetCapacityEi.exit.i620

_ZN11CStringBaseIwE11SetCapacityEi.exit.i620:     ; preds = %call.i.i618.noexc, %_Z11MyStringLenIwEiPKT_.exit.i616
  %m.sroa.0.1 = phi ptr [ null, %_Z11MyStringLenIwEiPKT_.exit.i616 ], [ %call.i.i618628, %call.i.i618.noexc ]
  br label %while.cond.i.i626

while.cond.i.i626:                                ; preds = %while.cond.i.i626, %_ZN11CStringBaseIwE11SetCapacityEi.exit.i620
  %src.addr.0.i.i621 = phi ptr [ %51, %_ZN11CStringBaseIwE11SetCapacityEi.exit.i620 ], [ %incdec.ptr.i.i623, %while.cond.i.i626 ]
  %dest.addr.0.i.i622 = phi ptr [ %m.sroa.0.1, %_ZN11CStringBaseIwE11SetCapacityEi.exit.i620 ], [ %incdec.ptr1.i.i624, %while.cond.i.i626 ]
  %incdec.ptr.i.i623 = getelementptr inbounds i32, ptr %src.addr.0.i.i621, i64 1
  %57 = load i32, ptr %src.addr.0.i.i621, align 4, !tbaa !42
  %incdec.ptr1.i.i624 = getelementptr inbounds i32, ptr %dest.addr.0.i.i622, i64 1
  store i32 %57, ptr %dest.addr.0.i.i622, align 4, !tbaa !42
  %cmp.not.i10.i625 = icmp eq i32 %57, 0
  br i1 %cmp.not.i10.i625, label %invoke.cont29, label %while.cond.i.i626, !llvm.loop !51

invoke.cont29:                                    ; preds = %while.cond.i.i626
  %call.i630631 = invoke noundef ptr @_Z13MyStringUpperPw(ptr noundef %m.sroa.0.1)
          to label %invoke.cont31 unwind label %lpad30

invoke.cont31:                                    ; preds = %invoke.cont29
  %call.i.i633635 = invoke noundef i32 @_Z15MyStringComparePKwS0_(ptr noundef %m.sroa.0.1, ptr noundef nonnull @.str.1)
          to label %invoke.cont32 unwind label %lpad30

invoke.cont32:                                    ; preds = %invoke.cont31
  %cmp.i634 = icmp eq i32 %call.i.i633635, 0
  br i1 %cmp.i634, label %cleanup67.sink.split, label %if.else35

lpad28:                                           ; preds = %if.end9.i.i619
  %58 = landingpad { ptr, i32 }
          cleanup
  br label %ehcleanup462

lpad30:                                           ; preds = %if.else55, %if.else50, %if.else45, %if.else40, %if.else35, %invoke.cont31, %invoke.cont29
  %59 = landingpad { ptr, i32 }
          cleanup
  %isnull.i637 = icmp eq ptr %m.sroa.0.1, null
  br i1 %isnull.i637, label %ehcleanup462, label %delete.notnull.i638

delete.notnull.i638:                              ; preds = %lpad30
  call void @_ZdaPv(ptr noundef nonnull %m.sroa.0.1) #19
  br label %ehcleanup462

if.else35:                                        ; preds = %invoke.cont32
  %call.i.i640642 = invoke noundef i32 @_Z15MyStringComparePKwS0_(ptr noundef %m.sroa.0.1, ptr noundef nonnull @.str.2)
          to label %invoke.cont36 unwind label %lpad30

invoke.cont36:                                    ; preds = %if.else35
  %cmp.i641 = icmp eq i32 %call.i.i640642, 0
  br i1 %cmp.i641, label %cleanup67.sink.split, label %if.else40

if.else40:                                        ; preds = %invoke.cont36
  %call.i.i644646 = invoke noundef i32 @_Z15MyStringComparePKwS0_(ptr noundef %m.sroa.0.1, ptr noundef nonnull @.str.3)
          to label %invoke.cont41 unwind label %lpad30

invoke.cont41:                                    ; preds = %if.else40
  %cmp.i645 = icmp eq i32 %call.i.i644646, 0
  br i1 %cmp.i645, label %cleanup67.sink.split, label %if.else45

if.else45:                                        ; preds = %invoke.cont41
  %call.i.i648650 = invoke noundef i32 @_Z15MyStringComparePKwS0_(ptr noundef %m.sroa.0.1, ptr noundef nonnull @.str.4)
          to label %invoke.cont46 unwind label %lpad30

invoke.cont46:                                    ; preds = %if.else45
  %cmp.i649 = icmp eq i32 %call.i.i648650, 0
  br i1 %cmp.i649, label %cleanup67.sink.split, label %if.else50

if.else50:                                        ; preds = %invoke.cont46
  %call.i.i652654 = invoke noundef i32 @_Z15MyStringComparePKwS0_(ptr noundef %m.sroa.0.1, ptr noundef nonnull @.str.5)
          to label %invoke.cont51 unwind label %lpad30

invoke.cont51:                                    ; preds = %if.else50
  %cmp.i653 = icmp eq i32 %call.i.i652654, 0
  br i1 %cmp.i653, label %cleanup67.sink.split, label %if.else55

if.else55:                                        ; preds = %invoke.cont51
  %call.i.i656658 = invoke noundef i32 @_Z15MyStringComparePKwS0_(ptr noundef %m.sroa.0.1, ptr noundef nonnull @.str.6)
          to label %invoke.cont56 unwind label %lpad30

invoke.cont56:                                    ; preds = %if.else55
  %cmp.i657 = icmp eq i32 %call.i.i656658, 0
  br i1 %cmp.i657, label %cleanup67.sink.split, label %cleanup67

cleanup67.sink.split:                             ; preds = %invoke.cont56, %invoke.cont51, %invoke.cont46, %invoke.cont41, %invoke.cont36, %invoke.cont32
  %.sink = phi i32 [ 0, %invoke.cont32 ], [ 8, %invoke.cont36 ], [ 9, %invoke.cont41 ], [ 12, %invoke.cont46 ], [ 14, %invoke.cont51 ], [ 98, %invoke.cont56 ]
  store i32 %.sink, ptr %m_MainMethod80, align 4, !tbaa !98
  br label %cleanup67

cleanup67:                                        ; preds = %cleanup67.sink.split, %invoke.cont56
  %cond492 = phi i1 [ false, %invoke.cont56 ], [ true, %cleanup67.sink.split ]
  %retval.2 = phi i32 [ -2147024809, %invoke.cont56 ], [ %retval.01156, %cleanup67.sink.split ]
  %isnull.i660 = icmp eq ptr %m.sroa.0.1, null
  br i1 %isnull.i660, label %_ZN11CStringBaseIwED2Ev.exit662, label %delete.notnull.i661

delete.notnull.i661:                              ; preds = %cleanup67
  call void @_ZdaPv(ptr noundef nonnull %m.sroa.0.1) #19
  br label %_ZN11CStringBaseIwED2Ev.exit662

_ZN11CStringBaseIwED2Ev.exit662:                  ; preds = %cleanup67, %delete.notnull.i661
  br i1 %cond492, label %if.end458, label %cleanup461

if.then77:                                        ; preds = %if.then25
  %60 = getelementptr inbounds %struct.tagPROPVARIANT, ptr %values, i64 %indvars.iv, i32 4
  %61 = load i32, ptr %60, align 8, !tbaa !25
  switch i32 %61, label %cleanup461 [
    i32 0, label %sw.bb
    i32 8, label %sw.bb
    i32 9, label %sw.bb
    i32 12, label %sw.bb
    i32 14, label %sw.bb
  ]

sw.bb:                                            ; preds = %if.then77, %if.then77, %if.then77, %if.then77, %if.then77
  store i32 %61, ptr %m_MainMethod80, align 4, !tbaa !98
  br label %if.end458

if.else84:                                        ; preds = %invoke.cont23
  call void @llvm.lifetime.start.p0(i64 16, ptr nonnull %ref.tmp85) #16
  invoke void @_ZNK11CStringBaseIwE3MidEii(ptr nonnull sret(%class.CStringBase.3) align 8 %ref.tmp85, ptr noundef nonnull align 8 dereferenceable(16) %name, i32 noundef 0, i32 noundef 2)
          to label %invoke.cont87 unwind label %lpad86

invoke.cont87:                                    ; preds = %if.else84
  %62 = load ptr, ptr %ref.tmp85, align 8, !tbaa !40
  %call.i.i663665 = invoke noundef i32 @_Z15MyStringComparePKwS0_(ptr noundef %62, ptr noundef nonnull @.str.7)
          to label %invoke.cont89 unwind label %lpad88

invoke.cont89:                                    ; preds = %invoke.cont87
  %cmp.i664 = icmp eq i32 %call.i.i663665, 0
  %63 = load ptr, ptr %ref.tmp85, align 8, !tbaa !40
  %isnull.i667 = icmp eq ptr %63, null
  br i1 %isnull.i667, label %_ZN11CStringBaseIwED2Ev.exit669, label %delete.notnull.i668

delete.notnull.i668:                              ; preds = %invoke.cont89
  call void @_ZdaPv(ptr noundef nonnull %63) #19
  br label %_ZN11CStringBaseIwED2Ev.exit669

_ZN11CStringBaseIwED2Ev.exit669:                  ; preds = %invoke.cont89, %delete.notnull.i668
  call void @llvm.lifetime.end.p0(i64 16, ptr nonnull %ref.tmp85) #16
  br i1 %cmp.i664, label %if.then93, label %if.else155

if.then93:                                        ; preds = %_ZN11CStringBaseIwED2Ev.exit669
  %64 = load i16, ptr %arrayidx5, align 8, !tbaa !45
  %cmp96 = icmp eq i16 %64, 8
  br i1 %cmp96, label %if.then97, label %cleanup461

if.then97:                                        ; preds = %if.then93
  call void @llvm.lifetime.start.p0(i64 16, ptr nonnull %valueString) #16
  %65 = getelementptr inbounds %struct.tagPROPVARIANT, ptr %values, i64 %indvars.iv, i32 4
  %66 = load ptr, ptr %65, align 8, !tbaa !25
  call void @llvm.memset.p0.i64(ptr noundef nonnull align 8 dereferenceable(16) %valueString, i8 0, i64 16, i1 false)
  br label %for.cond.i.i675

for.cond.i.i675:                                  ; preds = %for.cond.i.i675, %if.then97
  %indvars.iv.i.i671 = phi i64 [ %indvars.iv.next.i.i674, %for.cond.i.i675 ], [ 0, %if.then97 ]
  %arrayidx.i.i672 = getelementptr inbounds i32, ptr %66, i64 %indvars.iv.i.i671
  %67 = load i32, ptr %arrayidx.i.i672, align 4, !tbaa !42
  %cmp.not.i.i673 = icmp eq i32 %67, 0
  %indvars.iv.next.i.i674 = add nuw i64 %indvars.iv.i.i671, 1
  br i1 %cmp.not.i.i673, label %_Z11MyStringLenIwEiPKT_.exit.i678, label %for.cond.i.i675, !llvm.loop !50

_Z11MyStringLenIwEiPKT_.exit.i678:                ; preds = %for.cond.i.i675
  %68 = trunc i64 %indvars.iv.i.i671 to i32
  %add.i.i676 = add nsw i32 %68, 1
  %cmp.i.i677 = icmp eq i32 %add.i.i676, 0
  br i1 %cmp.i.i677, label %_ZN11CStringBaseIwE11SetCapacityEi.exit.i682, label %if.end9.i.i681

if.end9.i.i681:                                   ; preds = %_Z11MyStringLenIwEiPKT_.exit.i678
  %conv.i.i679 = zext i32 %add.i.i676 to i64
  %69 = icmp slt i32 %68, -1
  %70 = shl nuw nsw i64 %conv.i.i679, 2
  %71 = select i1 %69, i64 -1, i64 %70
  %call.i.i680690 = invoke noalias noundef nonnull ptr @_Znam(i64 noundef %71) #17
          to label %call.i.i680.noexc unwind label %lpad98

call.i.i680.noexc:                                ; preds = %if.end9.i.i681
  store ptr %call.i.i680690, ptr %valueString, align 8, !tbaa !40
  store i32 0, ptr %call.i.i680690, align 4, !tbaa !42
  store i32 %add.i.i676, ptr %_capacity.i670, align 4, !tbaa !44
  br label %_ZN11CStringBaseIwE11SetCapacityEi.exit.i682

_ZN11CStringBaseIwE11SetCapacityEi.exit.i682:     ; preds = %call.i.i680.noexc, %_Z11MyStringLenIwEiPKT_.exit.i678
  %72 = phi ptr [ null, %_Z11MyStringLenIwEiPKT_.exit.i678 ], [ %call.i.i680690, %call.i.i680.noexc ]
  br label %while.cond.i.i688

while.cond.i.i688:                                ; preds = %while.cond.i.i688, %_ZN11CStringBaseIwE11SetCapacityEi.exit.i682
  %src.addr.0.i.i683 = phi ptr [ %66, %_ZN11CStringBaseIwE11SetCapacityEi.exit.i682 ], [ %incdec.ptr.i.i685, %while.cond.i.i688 ]
  %dest.addr.0.i.i684 = phi ptr [ %72, %_ZN11CStringBaseIwE11SetCapacityEi.exit.i682 ], [ %incdec.ptr1.i.i686, %while.cond.i.i688 ]
  %incdec.ptr.i.i685 = getelementptr inbounds i32, ptr %src.addr.0.i.i683, i64 1
  %73 = load i32, ptr %src.addr.0.i.i683, align 4, !tbaa !42
  %incdec.ptr1.i.i686 = getelementptr inbounds i32, ptr %dest.addr.0.i.i684, i64 1
  store i32 %73, ptr %dest.addr.0.i.i684, align 4, !tbaa !42
  %cmp.not.i10.i687 = icmp eq i32 %73, 0
  br i1 %cmp.not.i10.i687, label %invoke.cont99, label %while.cond.i.i688, !llvm.loop !51

invoke.cont99:                                    ; preds = %while.cond.i.i688
  store i32 %68, ptr %_length.i689, align 8, !tbaa !49
  %call.i692693 = invoke noundef ptr @_Z13MyStringUpperPw(ptr noundef %72)
          to label %invoke.cont101 unwind label %lpad100

invoke.cont101:                                   ; preds = %invoke.cont99
  call void @llvm.lifetime.start.p0(i64 16, ptr nonnull %ref.tmp102) #16
  invoke void @_ZNK11CStringBaseIwE3MidEii(ptr nonnull sret(%class.CStringBase.3) align 8 %ref.tmp102, ptr noundef nonnull align 8 dereferenceable(16) %valueString, i32 noundef 0, i32 noundef 3)
          to label %invoke.cont104 unwind label %lpad103

invoke.cont104:                                   ; preds = %invoke.cont101
  %74 = load ptr, ptr %ref.tmp102, align 8, !tbaa !40
  %call.i.i696698 = invoke noundef i32 @_Z15MyStringComparePKwS0_(ptr noundef %74, ptr noundef nonnull @.str.8)
          to label %invoke.cont106 unwind label %lpad105

invoke.cont106:                                   ; preds = %invoke.cont104
  %cmp.i697 = icmp eq i32 %call.i.i696698, 0
  %75 = load ptr, ptr %ref.tmp102, align 8, !tbaa !40
  %isnull.i700 = icmp eq ptr %75, null
  br i1 %isnull.i700, label %_ZN11CStringBaseIwED2Ev.exit702, label %delete.notnull.i701

delete.notnull.i701:                              ; preds = %invoke.cont106
  call void @_ZdaPv(ptr noundef nonnull %75) #19
  br label %_ZN11CStringBaseIwED2Ev.exit702

_ZN11CStringBaseIwED2Ev.exit702:                  ; preds = %invoke.cont106, %delete.notnull.i701
  call void @llvm.lifetime.end.p0(i64 16, ptr nonnull %ref.tmp102) #16
  br i1 %cmp.i697, label %if.then110, label %if.else138

if.then110:                                       ; preds = %_ZN11CStringBaseIwED2Ev.exit702
  %76 = load i32, ptr %_length.i689, align 8, !noalias !57
  %sub.i704 = add nsw i32 %76, -3
  %call.i.i32.i945 = invoke noalias noundef nonnull dereferenceable(16) ptr @_Znam(i64 noundef 16) #17
          to label %call.i.i32.i.noexc944 unwind label %lpad112

call.i.i32.i.noexc944:                            ; preds = %if.then110
  store i32 0, ptr %call.i.i32.i945, align 4, !tbaa !42, !noalias !132
  %add.i.i924 = add nsw i32 %76, -2
  %cmp.i.i925 = icmp eq i32 %add.i.i924, 4
  br i1 %cmp.i.i925, label %for.body.lr.ph.i933, label %if.end.i.i928

if.end.i.i928:                                    ; preds = %call.i.i32.i.noexc944
  %conv.i.i926 = zext i32 %add.i.i924 to i64
  %77 = icmp slt i32 %76, 2
  %78 = shl nuw nsw i64 %conv.i.i926, 2
  %79 = select i1 %77, i64 -1, i64 %78
  %call.i36.i927 = invoke noalias noundef nonnull ptr @_Znam(i64 noundef %79) #17
          to label %_ZN11CStringBaseIwE11SetCapacityEi.exit.i930 unwind label %_ZN11CStringBaseIwED2Ev.exit.i936, !noalias !132

_ZN11CStringBaseIwE11SetCapacityEi.exit.i930:     ; preds = %if.end.i.i928
  call void @_ZdaPv(ptr noundef nonnull %call.i.i32.i945) #19, !noalias !132
  store i32 0, ptr %call.i36.i927, align 4, !tbaa !42, !noalias !132
  %cmp939.i929 = icmp sgt i32 %76, 3
  br i1 %cmp939.i929, label %for.body.lr.ph.i933, label %_ZN11CStringBaseIwE11SetCapacityEi.exit.for.cond.cleanup_crit_edge.i932

_ZN11CStringBaseIwE11SetCapacityEi.exit.for.cond.cleanup_crit_edge.i932: ; preds = %_ZN11CStringBaseIwE11SetCapacityEi.exit.i930
  %.pre.i931 = sext i32 %sub.i704 to i64
  %.pre1183 = load ptr, ptr %valueString, align 8, !tbaa !40
  br label %invoke.cont113

for.body.lr.ph.i933:                              ; preds = %_ZN11CStringBaseIwE11SetCapacityEi.exit.i930, %call.i.i32.i.noexc944
  %ref.tmp111.sroa.0.1 = phi ptr [ %call.i.i32.i945, %call.i.i32.i.noexc944 ], [ %call.i36.i927, %_ZN11CStringBaseIwE11SetCapacityEi.exit.i930 ]
  %80 = load ptr, ptr %valueString, align 8, !tbaa !40
  %81 = zext i32 %sub.i704 to i64
  %min.iters.check1209 = icmp ult i32 %sub.i704, 8
  br i1 %min.iters.check1209, label %for.body.i942.preheader, label %vector.memcheck1204

vector.memcheck1204:                              ; preds = %for.body.lr.ph.i933
  %82 = ptrtoint ptr %80 to i64
  %ref.tmp111.sroa.0.11205 = ptrtoint ptr %ref.tmp111.sroa.0.1 to i64
  %83 = add nuw i64 %82, 12
  %84 = sub i64 %ref.tmp111.sroa.0.11205, %83
  %diff.check1206 = icmp ult i64 %84, 32
  br i1 %diff.check1206, label %for.body.i942.preheader, label %vector.ph1210

vector.ph1210:                                    ; preds = %vector.memcheck1204
  %n.vec1212 = and i64 %81, 4294967288
  br label %vector.body1215

vector.body1215:                                  ; preds = %vector.body1215, %vector.ph1210
  %index1216 = phi i64 [ 0, %vector.ph1210 ], [ %index.next1219, %vector.body1215 ]
  %85 = or i64 %index1216, 3
  %86 = getelementptr inbounds i32, ptr %80, i64 %85
  %wide.load1217 = load <4 x i32>, ptr %86, align 4, !tbaa !42, !noalias !132
  %87 = getelementptr inbounds i32, ptr %86, i64 4
  %wide.load1218 = load <4 x i32>, ptr %87, align 4, !tbaa !42, !noalias !132
  %88 = getelementptr inbounds i32, ptr %ref.tmp111.sroa.0.1, i64 %index1216
  store <4 x i32> %wide.load1217, ptr %88, align 4, !tbaa !42, !noalias !132
  %89 = getelementptr inbounds i32, ptr %88, i64 4
  store <4 x i32> %wide.load1218, ptr %89, align 4, !tbaa !42, !noalias !132
  %index.next1219 = add nuw i64 %index1216, 8
  %90 = icmp eq i64 %index.next1219, %n.vec1212
  br i1 %90, label %middle.block1207, label %vector.body1215, !llvm.loop !135

middle.block1207:                                 ; preds = %vector.body1215
  %cmp.n1214 = icmp eq i64 %n.vec1212, %81
  br i1 %cmp.n1214, label %invoke.cont113, label %for.body.i942.preheader

for.body.i942.preheader:                          ; preds = %vector.memcheck1204, %for.body.lr.ph.i933, %middle.block1207
  %indvars.iv.i937.ph = phi i64 [ 0, %vector.memcheck1204 ], [ 0, %for.body.lr.ph.i933 ], [ %n.vec1212, %middle.block1207 ]
  %91 = xor i64 %indvars.iv.i937.ph, -1
  %92 = add nsw i64 %91, %81
  %xtraiter1333 = and i64 %81, 3
  %lcmp.mod1334.not = icmp eq i64 %xtraiter1333, 0
  br i1 %lcmp.mod1334.not, label %for.body.i942.prol.loopexit, label %for.body.i942.prol

for.body.i942.prol:                               ; preds = %for.body.i942.preheader, %for.body.i942.prol
  %indvars.iv.i937.prol = phi i64 [ %indvars.iv.next.i940.prol, %for.body.i942.prol ], [ %indvars.iv.i937.ph, %for.body.i942.preheader ]
  %prol.iter1335 = phi i64 [ %prol.iter1335.next, %for.body.i942.prol ], [ 0, %for.body.i942.preheader ]
  %93 = add nuw nsw i64 %indvars.iv.i937.prol, 3
  %arrayidx.i938.prol = getelementptr inbounds i32, ptr %80, i64 %93
  %94 = load i32, ptr %arrayidx.i938.prol, align 4, !tbaa !42, !noalias !132
  %arrayidx13.i939.prol = getelementptr inbounds i32, ptr %ref.tmp111.sroa.0.1, i64 %indvars.iv.i937.prol
  store i32 %94, ptr %arrayidx13.i939.prol, align 4, !tbaa !42, !noalias !132
  %indvars.iv.next.i940.prol = add nuw nsw i64 %indvars.iv.i937.prol, 1
  %prol.iter1335.next = add i64 %prol.iter1335, 1
  %prol.iter1335.cmp.not = icmp eq i64 %prol.iter1335.next, %xtraiter1333
  br i1 %prol.iter1335.cmp.not, label %for.body.i942.prol.loopexit, label %for.body.i942.prol, !llvm.loop !136

for.body.i942.prol.loopexit:                      ; preds = %for.body.i942.prol, %for.body.i942.preheader
  %indvars.iv.i937.unr = phi i64 [ %indvars.iv.i937.ph, %for.body.i942.preheader ], [ %indvars.iv.next.i940.prol, %for.body.i942.prol ]
  %95 = icmp ult i64 %92, 3
  br i1 %95, label %invoke.cont113, label %for.body.i942

_ZN11CStringBaseIwED2Ev.exit.i936:                ; preds = %if.end.i.i928
  %96 = landingpad { ptr, i32 }
          cleanup
  call void @_ZdaPv(ptr noundef nonnull %call.i.i32.i945) #19, !noalias !132
  br label %ehcleanup148

for.body.i942:                                    ; preds = %for.body.i942.prol.loopexit, %for.body.i942
  %indvars.iv.i937 = phi i64 [ %indvars.iv.next.i940.3, %for.body.i942 ], [ %indvars.iv.i937.unr, %for.body.i942.prol.loopexit ]
  %97 = add nuw nsw i64 %indvars.iv.i937, 3
  %arrayidx.i938 = getelementptr inbounds i32, ptr %80, i64 %97
  %98 = load i32, ptr %arrayidx.i938, align 4, !tbaa !42, !noalias !132
  %arrayidx13.i939 = getelementptr inbounds i32, ptr %ref.tmp111.sroa.0.1, i64 %indvars.iv.i937
  store i32 %98, ptr %arrayidx13.i939, align 4, !tbaa !42, !noalias !132
  %indvars.iv.next.i940 = add nuw nsw i64 %indvars.iv.i937, 1
  %99 = add nuw nsw i64 %indvars.iv.i937, 4
  %arrayidx.i938.1 = getelementptr inbounds i32, ptr %80, i64 %99
  %100 = load i32, ptr %arrayidx.i938.1, align 4, !tbaa !42, !noalias !132
  %arrayidx13.i939.1 = getelementptr inbounds i32, ptr %ref.tmp111.sroa.0.1, i64 %indvars.iv.next.i940
  store i32 %100, ptr %arrayidx13.i939.1, align 4, !tbaa !42, !noalias !132
  %indvars.iv.next.i940.1 = add nuw nsw i64 %indvars.iv.i937, 2
  %101 = add nuw nsw i64 %indvars.iv.i937, 5
  %arrayidx.i938.2 = getelementptr inbounds i32, ptr %80, i64 %101
  %102 = load i32, ptr %arrayidx.i938.2, align 4, !tbaa !42, !noalias !132
  %arrayidx13.i939.2 = getelementptr inbounds i32, ptr %ref.tmp111.sroa.0.1, i64 %indvars.iv.next.i940.1
  store i32 %102, ptr %arrayidx13.i939.2, align 4, !tbaa !42, !noalias !132
  %indvars.iv.next.i940.2 = add nuw nsw i64 %indvars.iv.i937, 3
  %103 = add nuw nsw i64 %indvars.iv.i937, 6
  %arrayidx.i938.3 = getelementptr inbounds i32, ptr %80, i64 %103
  %104 = load i32, ptr %arrayidx.i938.3, align 4, !tbaa !42, !noalias !132
  %arrayidx13.i939.3 = getelementptr inbounds i32, ptr %ref.tmp111.sroa.0.1, i64 %indvars.iv.next.i940.2
  store i32 %104, ptr %arrayidx13.i939.3, align 4, !tbaa !42, !noalias !132
  %indvars.iv.next.i940.3 = add nuw nsw i64 %indvars.iv.i937, 4
  %exitcond1177.not.3 = icmp eq i64 %indvars.iv.next.i940.3, %81
  br i1 %exitcond1177.not.3, label %invoke.cont113, label %for.body.i942, !llvm.loop !137

invoke.cont113:                                   ; preds = %for.body.i942.prol.loopexit, %for.body.i942, %middle.block1207, %_ZN11CStringBaseIwE11SetCapacityEi.exit.for.cond.cleanup_crit_edge.i932
  %105 = phi ptr [ %.pre1183, %_ZN11CStringBaseIwE11SetCapacityEi.exit.for.cond.cleanup_crit_edge.i932 ], [ %80, %middle.block1207 ], [ %80, %for.body.i942 ], [ %80, %for.body.i942.prol.loopexit ]
  %ref.tmp111.sroa.0.2 = phi ptr [ %call.i36.i927, %_ZN11CStringBaseIwE11SetCapacityEi.exit.for.cond.cleanup_crit_edge.i932 ], [ %ref.tmp111.sroa.0.1, %middle.block1207 ], [ %ref.tmp111.sroa.0.1, %for.body.i942 ], [ %ref.tmp111.sroa.0.1, %for.body.i942.prol.loopexit ]
  %idxprom15.pre-phi.i934 = phi i64 [ %.pre.i931, %_ZN11CStringBaseIwE11SetCapacityEi.exit.for.cond.cleanup_crit_edge.i932 ], [ %81, %middle.block1207 ], [ %81, %for.body.i942 ], [ %81, %for.body.i942.prol.loopexit ]
  %arrayidx16.i935 = getelementptr inbounds i32, ptr %ref.tmp111.sroa.0.2, i64 %idxprom15.pre-phi.i934
  store i32 0, ptr %arrayidx16.i935, align 4, !tbaa !42, !noalias !132
  store i32 0, ptr %_length.i689, align 8, !tbaa !49
  store i32 0, ptr %105, align 4, !tbaa !42
  %106 = load i32, ptr %_capacity.i670, align 4, !tbaa !44
  %cmp.i.i708 = icmp eq i32 %add.i.i924, %106
  br i1 %cmp.i.i708, label %while.cond.i.i718.preheader, label %if.end.i.i

if.end.i.i:                                       ; preds = %invoke.cont113
  %conv.i.i709 = zext i32 %add.i.i924 to i64
  %107 = icmp slt i32 %76, 2
  %108 = shl nuw nsw i64 %conv.i.i709, 2
  %109 = select i1 %107, i64 -1, i64 %108
  %call.i.i710719 = invoke noalias noundef nonnull ptr @_Znam(i64 noundef %109) #17
          to label %call.i.i710.noexc unwind label %_ZN11CStringBaseIwED2Ev.exit735

call.i.i710.noexc:                                ; preds = %if.end.i.i
  %cmp3.i.i = icmp sgt i32 %106, 0
  br i1 %cmp3.i.i, label %delete.notnull.i.i, label %if.end9.i.i711

delete.notnull.i.i:                               ; preds = %call.i.i710.noexc
  call void @_ZdaPv(ptr noundef nonnull %105) #19
  %.pre.i = load i32, ptr %_length.i689, align 8, !tbaa !49
  %110 = sext i32 %.pre.i to i64
  br label %if.end9.i.i711

if.end9.i.i711:                                   ; preds = %delete.notnull.i.i, %call.i.i710.noexc
  %idxprom13.i.i = phi i64 [ %110, %delete.notnull.i.i ], [ 0, %call.i.i710.noexc ]
  store ptr %call.i.i710719, ptr %valueString, align 8, !tbaa !40
  %arrayidx14.i.i = getelementptr inbounds i32, ptr %call.i.i710719, i64 %idxprom13.i.i
  store i32 0, ptr %arrayidx14.i.i, align 4, !tbaa !42
  store i32 %add.i.i924, ptr %_capacity.i670, align 4, !tbaa !44
  br label %while.cond.i.i718.preheader

while.cond.i.i718.preheader:                      ; preds = %if.end9.i.i711, %invoke.cont113
  %dest.addr.0.i.i714.ph = phi ptr [ %105, %invoke.cont113 ], [ %call.i.i710719, %if.end9.i.i711 ]
  br label %while.cond.i.i718

while.cond.i.i718:                                ; preds = %while.cond.i.i718.preheader, %while.cond.i.i718
  %src.addr.0.i.i713 = phi ptr [ %incdec.ptr.i.i715, %while.cond.i.i718 ], [ %ref.tmp111.sroa.0.2, %while.cond.i.i718.preheader ]
  %dest.addr.0.i.i714 = phi ptr [ %incdec.ptr1.i.i716, %while.cond.i.i718 ], [ %dest.addr.0.i.i714.ph, %while.cond.i.i718.preheader ]
  %incdec.ptr.i.i715 = getelementptr inbounds i32, ptr %src.addr.0.i.i713, i64 1
  %111 = load i32, ptr %src.addr.0.i.i713, align 4, !tbaa !42
  %incdec.ptr1.i.i716 = getelementptr inbounds i32, ptr %dest.addr.0.i.i714, i64 1
  store i32 %111, ptr %dest.addr.0.i.i714, align 4, !tbaa !42
  %cmp.not.i.i717 = icmp eq i32 %111, 0
  br i1 %cmp.not.i.i717, label %_ZN11CStringBaseIwED2Ev.exit722, label %while.cond.i.i718, !llvm.loop !51

_ZN11CStringBaseIwED2Ev.exit722:                  ; preds = %while.cond.i.i718
  store i32 %sub.i704, ptr %_length.i689, align 8, !tbaa !49
  call void @_ZdaPv(ptr noundef nonnull %ref.tmp111.sroa.0.2) #19
  %112 = load ptr, ptr %valueString, align 8, !tbaa !40
  %call.i.i723725 = invoke noundef i32 @_Z15MyStringComparePKwS0_(ptr noundef %112, ptr noundef nonnull @.str.9)
          to label %invoke.cont119 unwind label %lpad100

invoke.cont119:                                   ; preds = %_ZN11CStringBaseIwED2Ev.exit722
  %cmp.i724 = icmp eq i32 %call.i.i723725, 0
  br i1 %cmp.i724, label %if.end137, label %if.else122

lpad86:                                           ; preds = %if.else84
  %113 = landingpad { ptr, i32 }
          cleanup
  br label %ehcleanup92

lpad88:                                           ; preds = %invoke.cont87
  %114 = landingpad { ptr, i32 }
          cleanup
  %115 = load ptr, ptr %ref.tmp85, align 8, !tbaa !40
  %isnull.i727 = icmp eq ptr %115, null
  br i1 %isnull.i727, label %ehcleanup92, label %delete.notnull.i728

delete.notnull.i728:                              ; preds = %lpad88
  call void @_ZdaPv(ptr noundef nonnull %115) #19
  br label %ehcleanup92

ehcleanup92:                                      ; preds = %delete.notnull.i728, %lpad88, %lpad86
  %.pn = phi { ptr, i32 } [ %113, %lpad86 ], [ %114, %lpad88 ], [ %114, %delete.notnull.i728 ]
  call void @llvm.lifetime.end.p0(i64 16, ptr nonnull %ref.tmp85) #16
  br label %ehcleanup462

lpad98:                                           ; preds = %if.end9.i.i681
  %116 = landingpad { ptr, i32 }
          cleanup
  br label %ehcleanup152

lpad100:                                          ; preds = %if.else138, %if.else127, %if.else122, %_ZN11CStringBaseIwED2Ev.exit722, %invoke.cont99
  %117 = landingpad { ptr, i32 }
          cleanup
  br label %ehcleanup148

lpad103:                                          ; preds = %invoke.cont101
  %118 = landingpad { ptr, i32 }
          cleanup
  br label %ehcleanup109

lpad105:                                          ; preds = %invoke.cont104
  %119 = landingpad { ptr, i32 }
          cleanup
  %120 = load ptr, ptr %ref.tmp102, align 8, !tbaa !40
  %isnull.i730 = icmp eq ptr %120, null
  br i1 %isnull.i730, label %ehcleanup109, label %delete.notnull.i731

delete.notnull.i731:                              ; preds = %lpad105
  call void @_ZdaPv(ptr noundef nonnull %120) #19
  br label %ehcleanup109

ehcleanup109:                                     ; preds = %delete.notnull.i731, %lpad105, %lpad103
  %.pn579 = phi { ptr, i32 } [ %118, %lpad103 ], [ %119, %lpad105 ], [ %119, %delete.notnull.i731 ]
  call void @llvm.lifetime.end.p0(i64 16, ptr nonnull %ref.tmp102) #16
  br label %ehcleanup148

lpad112:                                          ; preds = %if.then110
  %121 = landingpad { ptr, i32 }
          cleanup
  br label %ehcleanup148

_ZN11CStringBaseIwED2Ev.exit735:                  ; preds = %if.end.i.i
  %122 = landingpad { ptr, i32 }
          cleanup
  call void @_ZdaPv(ptr noundef nonnull %ref.tmp111.sroa.0.2) #19
  br label %ehcleanup148

if.else122:                                       ; preds = %invoke.cont119
  %123 = load ptr, ptr %valueString, align 8, !tbaa !40
  %call.i.i736738 = invoke noundef i32 @_Z15MyStringComparePKwS0_(ptr noundef %123, ptr noundef nonnull @.str.10)
          to label %invoke.cont123 unwind label %lpad100

invoke.cont123:                                   ; preds = %if.else122
  %cmp.i737 = icmp eq i32 %call.i.i736738, 0
  br i1 %cmp.i737, label %if.end137, label %if.else127

if.else127:                                       ; preds = %invoke.cont123
  %124 = load ptr, ptr %valueString, align 8, !tbaa !40
  %call.i.i740742 = invoke noundef i32 @_Z15MyStringComparePKwS0_(ptr noundef %124, ptr noundef nonnull @.str.11)
          to label %invoke.cont128 unwind label %lpad100

invoke.cont128:                                   ; preds = %if.else127
  %cmp.i741 = icmp eq i32 %call.i.i740742, 0
  %125 = load i32, ptr %_length.i689, align 8
  %cmp.i745 = icmp eq i32 %125, 0
  %or.cond = select i1 %cmp.i741, i1 true, i1 %cmp.i745
  br i1 %or.cond, label %if.end137, label %cleanup147

if.end137:                                        ; preds = %invoke.cont128, %invoke.cont123, %invoke.cont119
  %.sink1193 = phi i8 [ 1, %invoke.cont119 ], [ 2, %invoke.cont123 ], [ 3, %invoke.cont128 ]
  store i8 %.sink1193, ptr %m_AesKeyMode.i, align 1, !tbaa !88
  br label %cleanup147.sink.split

if.else138:                                       ; preds = %_ZN11CStringBaseIwED2Ev.exit702
  %126 = load ptr, ptr %valueString, align 8, !tbaa !40
  %call.i.i746748 = invoke noundef i32 @_Z15MyStringComparePKwS0_(ptr noundef %126, ptr noundef nonnull @.str.12)
          to label %invoke.cont139 unwind label %lpad100

invoke.cont139:                                   ; preds = %if.else138
  %cmp.i747 = icmp eq i32 %call.i.i746748, 0
  br i1 %cmp.i747, label %cleanup147.sink.split, label %cleanup147

cleanup147.sink.split:                            ; preds = %invoke.cont139, %if.end137
  %.sink1194 = phi i8 [ 1, %if.end137 ], [ 0, %invoke.cont139 ]
  store i8 %.sink1194, ptr %m_IsAesMode.i, align 2, !tbaa !138
  store i8 1, ptr %m_ForceAesMode.i, align 1, !tbaa !87
  br label %cleanup147

cleanup147:                                       ; preds = %cleanup147.sink.split, %invoke.cont128, %invoke.cont139
  %cond491 = phi i1 [ false, %invoke.cont139 ], [ false, %invoke.cont128 ], [ true, %cleanup147.sink.split ]
  %retval.3 = phi i32 [ -2147024809, %invoke.cont139 ], [ -2147024809, %invoke.cont128 ], [ %retval.01156, %cleanup147.sink.split ]
  %127 = load ptr, ptr %valueString, align 8, !tbaa !40
  %isnull.i750 = icmp eq ptr %127, null
  br i1 %isnull.i750, label %_ZN11CStringBaseIwED2Ev.exit752, label %delete.notnull.i751

delete.notnull.i751:                              ; preds = %cleanup147
  call void @_ZdaPv(ptr noundef nonnull %127) #19
  br label %_ZN11CStringBaseIwED2Ev.exit752

_ZN11CStringBaseIwED2Ev.exit752:                  ; preds = %cleanup147, %delete.notnull.i751
  call void @llvm.lifetime.end.p0(i64 16, ptr nonnull %valueString) #16
  br i1 %cond491, label %if.end458, label %cleanup461

ehcleanup148:                                     ; preds = %_ZN11CStringBaseIwED2Ev.exit735, %_ZN11CStringBaseIwED2Ev.exit.i936, %lpad112, %ehcleanup109, %lpad100
  %.pn582 = phi { ptr, i32 } [ %117, %lpad100 ], [ %.pn579, %ehcleanup109 ], [ %122, %_ZN11CStringBaseIwED2Ev.exit735 ], [ %121, %lpad112 ], [ %96, %_ZN11CStringBaseIwED2Ev.exit.i936 ]
  %128 = load ptr, ptr %valueString, align 8, !tbaa !40
  %isnull.i753 = icmp eq ptr %128, null
  br i1 %isnull.i753, label %ehcleanup152, label %delete.notnull.i754

delete.notnull.i754:                              ; preds = %ehcleanup148
  call void @_ZdaPv(ptr noundef nonnull %128) #19
  br label %ehcleanup152

ehcleanup152:                                     ; preds = %delete.notnull.i754, %ehcleanup148, %lpad98
  %.pn582.pn = phi { ptr, i32 } [ %116, %lpad98 ], [ %.pn582, %ehcleanup148 ], [ %.pn582, %delete.notnull.i754 ]
  call void @llvm.lifetime.end.p0(i64 16, ptr nonnull %valueString) #16
  br label %ehcleanup462

if.else155:                                       ; preds = %_ZN11CStringBaseIwED2Ev.exit669
  %129 = load ptr, ptr %name, align 8, !tbaa !40
  %130 = load i32, ptr %129, align 4, !tbaa !42
  %cmp159 = icmp eq i32 %130, 68
  br i1 %cmp159, label %if.then160, label %if.else181

if.then160:                                       ; preds = %if.else155
  call void @llvm.lifetime.start.p0(i64 4, ptr nonnull %dicSize) #16
  store i32 900000, ptr %dicSize, align 4, !tbaa !5
  call void @llvm.lifetime.start.p0(i64 16, ptr nonnull %ref.tmp162) #16
  %131 = load i32, ptr %_length.i, align 8, !noalias !57
  %sub.i757 = add nsw i32 %131, -1
  call void @llvm.experimental.noalias.scope.decl(metadata !139)
  %call.i.i32.i975 = invoke noalias noundef nonnull dereferenceable(16) ptr @_Znam(i64 noundef 16) #17
          to label %call.i.i32.i.noexc974 unwind label %lpad163

call.i.i32.i.noexc974:                            ; preds = %if.then160
  store ptr %call.i.i32.i975, ptr %ref.tmp162, align 8, !tbaa !40, !alias.scope !139
  store i32 0, ptr %call.i.i32.i975, align 4, !tbaa !42, !noalias !139
  store i32 4, ptr %_capacity.i31.i953, align 4, !tbaa !44, !alias.scope !139
  %cmp.i.i955 = icmp eq i32 %131, 4
  br i1 %cmp.i.i955, label %for.body.lr.ph.i963, label %if.end.i.i958

if.end.i.i958:                                    ; preds = %call.i.i32.i.noexc974
  %conv.i.i956 = zext i32 %131 to i64
  %132 = icmp slt i32 %131, 0
  %133 = shl nuw nsw i64 %conv.i.i956, 2
  %134 = select i1 %132, i64 -1, i64 %133
  %call.i36.i957 = invoke noalias noundef nonnull ptr @_Znam(i64 noundef %134) #17
          to label %_ZN11CStringBaseIwE11SetCapacityEi.exit.i960 unwind label %_ZN11CStringBaseIwED2Ev.exit.i966, !noalias !139

_ZN11CStringBaseIwE11SetCapacityEi.exit.i960:     ; preds = %if.end.i.i958
  call void @_ZdaPv(ptr noundef nonnull %call.i.i32.i975) #19, !noalias !139
  store ptr %call.i36.i957, ptr %ref.tmp162, align 8, !tbaa !40, !alias.scope !139
  store i32 0, ptr %call.i36.i957, align 4, !tbaa !42, !noalias !139
  store i32 %131, ptr %_capacity.i31.i953, align 4, !tbaa !44, !alias.scope !139
  %cmp939.i959 = icmp sgt i32 %131, 1
  br i1 %cmp939.i959, label %_ZN11CStringBaseIwE11SetCapacityEi.exit.i960.for.body.lr.ph.i963_crit_edge, label %_ZN11CStringBaseIwE11SetCapacityEi.exit.for.cond.cleanup_crit_edge.i962

_ZN11CStringBaseIwE11SetCapacityEi.exit.i960.for.body.lr.ph.i963_crit_edge: ; preds = %_ZN11CStringBaseIwE11SetCapacityEi.exit.i960
  %.pre1182 = load ptr, ptr %name, align 8, !tbaa !40, !noalias !139
  br label %for.body.lr.ph.i963

_ZN11CStringBaseIwE11SetCapacityEi.exit.for.cond.cleanup_crit_edge.i962: ; preds = %_ZN11CStringBaseIwE11SetCapacityEi.exit.i960
  %.pre.i961 = sext i32 %sub.i757 to i64
  br label %invoke.cont164

for.body.lr.ph.i963:                              ; preds = %_ZN11CStringBaseIwE11SetCapacityEi.exit.i960.for.body.lr.ph.i963_crit_edge, %call.i.i32.i.noexc974
  %135 = phi ptr [ %.pre1182, %_ZN11CStringBaseIwE11SetCapacityEi.exit.i960.for.body.lr.ph.i963_crit_edge ], [ %129, %call.i.i32.i.noexc974 ]
  %136 = phi ptr [ %call.i36.i957, %_ZN11CStringBaseIwE11SetCapacityEi.exit.i960.for.body.lr.ph.i963_crit_edge ], [ %call.i.i32.i975, %call.i.i32.i.noexc974 ]
  %137 = zext i32 %sub.i757 to i64
  %min.iters.check1224 = icmp ult i32 %sub.i757, 8
  br i1 %min.iters.check1224, label %for.body.i972.preheader, label %vector.memcheck1220

vector.memcheck1220:                              ; preds = %for.body.lr.ph.i963
  %138 = ptrtoint ptr %135 to i64
  %139 = ptrtoint ptr %136 to i64
  %140 = add nuw i64 %138, 4
  %141 = sub i64 %139, %140
  %diff.check1221 = icmp ult i64 %141, 32
  br i1 %diff.check1221, label %for.body.i972.preheader, label %vector.ph1225

vector.ph1225:                                    ; preds = %vector.memcheck1220
  %n.vec1227 = and i64 %137, 4294967288
  br label %vector.body1230

vector.body1230:                                  ; preds = %vector.body1230, %vector.ph1225
  %index1231 = phi i64 [ 0, %vector.ph1225 ], [ %index.next1234, %vector.body1230 ]
  %142 = or i64 %index1231, 1
  %143 = getelementptr inbounds i32, ptr %135, i64 %142
  %wide.load1232 = load <4 x i32>, ptr %143, align 4, !tbaa !42, !noalias !139
  %144 = getelementptr inbounds i32, ptr %143, i64 4
  %wide.load1233 = load <4 x i32>, ptr %144, align 4, !tbaa !42, !noalias !139
  %145 = getelementptr inbounds i32, ptr %136, i64 %index1231
  store <4 x i32> %wide.load1232, ptr %145, align 4, !tbaa !42, !noalias !139
  %146 = getelementptr inbounds i32, ptr %145, i64 4
  store <4 x i32> %wide.load1233, ptr %146, align 4, !tbaa !42, !noalias !139
  %index.next1234 = add nuw i64 %index1231, 8
  %147 = icmp eq i64 %index.next1234, %n.vec1227
  br i1 %147, label %middle.block1222, label %vector.body1230, !llvm.loop !142

middle.block1222:                                 ; preds = %vector.body1230
  %cmp.n1229 = icmp eq i64 %n.vec1227, %137
  br i1 %cmp.n1229, label %invoke.cont164, label %for.body.i972.preheader

for.body.i972.preheader:                          ; preds = %vector.memcheck1220, %for.body.lr.ph.i963, %middle.block1222
  %indvars.iv.i967.ph = phi i64 [ 0, %vector.memcheck1220 ], [ 0, %for.body.lr.ph.i963 ], [ %n.vec1227, %middle.block1222 ]
  %148 = xor i64 %indvars.iv.i967.ph, -1
  %149 = add nsw i64 %148, %137
  %xtraiter1330 = and i64 %137, 3
  %lcmp.mod1331.not = icmp eq i64 %xtraiter1330, 0
  br i1 %lcmp.mod1331.not, label %for.body.i972.prol.loopexit, label %for.body.i972.prol

for.body.i972.prol:                               ; preds = %for.body.i972.preheader, %for.body.i972.prol
  %indvars.iv.i967.prol = phi i64 [ %150, %for.body.i972.prol ], [ %indvars.iv.i967.ph, %for.body.i972.preheader ]
  %prol.iter1332 = phi i64 [ %prol.iter1332.next, %for.body.i972.prol ], [ 0, %for.body.i972.preheader ]
  %150 = add nuw nsw i64 %indvars.iv.i967.prol, 1
  %arrayidx.i968.prol = getelementptr inbounds i32, ptr %135, i64 %150
  %151 = load i32, ptr %arrayidx.i968.prol, align 4, !tbaa !42, !noalias !139
  %arrayidx13.i969.prol = getelementptr inbounds i32, ptr %136, i64 %indvars.iv.i967.prol
  store i32 %151, ptr %arrayidx13.i969.prol, align 4, !tbaa !42, !noalias !139
  %prol.iter1332.next = add i64 %prol.iter1332, 1
  %prol.iter1332.cmp.not = icmp eq i64 %prol.iter1332.next, %xtraiter1330
  br i1 %prol.iter1332.cmp.not, label %for.body.i972.prol.loopexit, label %for.body.i972.prol, !llvm.loop !143

for.body.i972.prol.loopexit:                      ; preds = %for.body.i972.prol, %for.body.i972.preheader
  %indvars.iv.i967.unr = phi i64 [ %indvars.iv.i967.ph, %for.body.i972.preheader ], [ %150, %for.body.i972.prol ]
  %152 = icmp ult i64 %149, 3
  br i1 %152, label %invoke.cont164, label %for.body.i972

_ZN11CStringBaseIwED2Ev.exit.i966:                ; preds = %if.end.i.i958
  %153 = landingpad { ptr, i32 }
          cleanup
  call void @_ZdaPv(ptr noundef nonnull %call.i.i32.i975) #19, !noalias !139
  br label %ehcleanup169

for.body.i972:                                    ; preds = %for.body.i972.prol.loopexit, %for.body.i972
  %indvars.iv.i967 = phi i64 [ %160, %for.body.i972 ], [ %indvars.iv.i967.unr, %for.body.i972.prol.loopexit ]
  %154 = add nuw nsw i64 %indvars.iv.i967, 1
  %arrayidx.i968 = getelementptr inbounds i32, ptr %135, i64 %154
  %155 = load i32, ptr %arrayidx.i968, align 4, !tbaa !42, !noalias !139
  %arrayidx13.i969 = getelementptr inbounds i32, ptr %136, i64 %indvars.iv.i967
  store i32 %155, ptr %arrayidx13.i969, align 4, !tbaa !42, !noalias !139
  %156 = add nuw nsw i64 %indvars.iv.i967, 2
  %arrayidx.i968.1 = getelementptr inbounds i32, ptr %135, i64 %156
  %157 = load i32, ptr %arrayidx.i968.1, align 4, !tbaa !42, !noalias !139
  %arrayidx13.i969.1 = getelementptr inbounds i32, ptr %136, i64 %154
  store i32 %157, ptr %arrayidx13.i969.1, align 4, !tbaa !42, !noalias !139
  %158 = add nuw nsw i64 %indvars.iv.i967, 3
  %arrayidx.i968.2 = getelementptr inbounds i32, ptr %135, i64 %158
  %159 = load i32, ptr %arrayidx.i968.2, align 4, !tbaa !42, !noalias !139
  %arrayidx13.i969.2 = getelementptr inbounds i32, ptr %136, i64 %156
  store i32 %159, ptr %arrayidx13.i969.2, align 4, !tbaa !42, !noalias !139
  %160 = add nuw nsw i64 %indvars.iv.i967, 4
  %arrayidx.i968.3 = getelementptr inbounds i32, ptr %135, i64 %160
  %161 = load i32, ptr %arrayidx.i968.3, align 4, !tbaa !42, !noalias !139
  %arrayidx13.i969.3 = getelementptr inbounds i32, ptr %136, i64 %158
  store i32 %161, ptr %arrayidx13.i969.3, align 4, !tbaa !42, !noalias !139
  %exitcond1175.not.3 = icmp eq i64 %160, %137
  br i1 %exitcond1175.not.3, label %invoke.cont164, label %for.body.i972, !llvm.loop !144

invoke.cont164:                                   ; preds = %for.body.i972.prol.loopexit, %for.body.i972, %middle.block1222, %_ZN11CStringBaseIwE11SetCapacityEi.exit.for.cond.cleanup_crit_edge.i962
  %162 = phi ptr [ %call.i36.i957, %_ZN11CStringBaseIwE11SetCapacityEi.exit.for.cond.cleanup_crit_edge.i962 ], [ %136, %middle.block1222 ], [ %136, %for.body.i972 ], [ %136, %for.body.i972.prol.loopexit ]
  %idxprom15.pre-phi.i964 = phi i64 [ %.pre.i961, %_ZN11CStringBaseIwE11SetCapacityEi.exit.for.cond.cleanup_crit_edge.i962 ], [ %137, %middle.block1222 ], [ %137, %for.body.i972 ], [ %137, %for.body.i972.prol.loopexit ]
  %arrayidx16.i965 = getelementptr inbounds i32, ptr %162, i64 %idxprom15.pre-phi.i964
  store i32 0, ptr %arrayidx16.i965, align 4, !tbaa !42, !noalias !139
  store i32 %sub.i757, ptr %_length17.i973, align 8, !tbaa !49, !alias.scope !139
  %call167 = invoke noundef i32 @_Z24ParsePropDictionaryValueRK11CStringBaseIwERK14tagPROPVARIANTRj(ptr noundef nonnull align 8 dereferenceable(16) %ref.tmp162, ptr noundef nonnull align 8 dereferenceable(16) %arrayidx5, ptr noundef nonnull align 4 dereferenceable(4) %dicSize)
          to label %invoke.cont166 unwind label %lpad165

invoke.cont166:                                   ; preds = %invoke.cont164
  %163 = load ptr, ptr %ref.tmp162, align 8, !tbaa !40
  %isnull.i759 = icmp eq ptr %163, null
  br i1 %isnull.i759, label %_ZN11CStringBaseIwED2Ev.exit761, label %delete.notnull.i760

delete.notnull.i760:                              ; preds = %invoke.cont166
  call void @_ZdaPv(ptr noundef nonnull %163) #19
  br label %_ZN11CStringBaseIwED2Ev.exit761

_ZN11CStringBaseIwED2Ev.exit761:                  ; preds = %invoke.cont166, %delete.notnull.i760
  call void @llvm.lifetime.end.p0(i64 16, ptr nonnull %ref.tmp162) #16
  %cmp170.not = icmp eq i32 %call167, 0
  br i1 %cmp170.not, label %cleanup.cont175, label %cleanup459.critedge

lpad163:                                          ; preds = %if.then160
  %164 = landingpad { ptr, i32 }
          cleanup
  br label %ehcleanup169

lpad165:                                          ; preds = %invoke.cont164
  %165 = landingpad { ptr, i32 }
          cleanup
  %166 = load ptr, ptr %ref.tmp162, align 8, !tbaa !40
  %isnull.i762 = icmp eq ptr %166, null
  br i1 %isnull.i762, label %ehcleanup169, label %delete.notnull.i763

delete.notnull.i763:                              ; preds = %lpad165
  call void @_ZdaPv(ptr noundef nonnull %166) #19
  br label %ehcleanup169

ehcleanup169:                                     ; preds = %delete.notnull.i763, %lpad165, %lpad163, %_ZN11CStringBaseIwED2Ev.exit.i966
  %.pn577 = phi { ptr, i32 } [ %164, %lpad163 ], [ %153, %_ZN11CStringBaseIwED2Ev.exit.i966 ], [ %165, %lpad165 ], [ %165, %delete.notnull.i763 ]
  call void @llvm.lifetime.end.p0(i64 16, ptr nonnull %ref.tmp162) #16
  call void @llvm.lifetime.end.p0(i64 4, ptr nonnull %dicSize) #16
  br label %ehcleanup462

cleanup.cont175:                                  ; preds = %_ZN11CStringBaseIwED2Ev.exit761
  %167 = load i32, ptr %dicSize, align 4, !tbaa !5
  store i32 %167, ptr %m_DicSize, align 8, !tbaa !101
  call void @llvm.lifetime.end.p0(i64 4, ptr nonnull %dicSize) #16
  br label %if.end458

if.else181:                                       ; preds = %if.else155
  call void @llvm.lifetime.start.p0(i64 16, ptr nonnull %ref.tmp182) #16
  invoke void @_ZNK11CStringBaseIwE3MidEii(ptr nonnull sret(%class.CStringBase.3) align 8 %ref.tmp182, ptr noundef nonnull align 8 dereferenceable(16) %name, i32 noundef 0, i32 noundef 3)
          to label %invoke.cont184 unwind label %lpad183

invoke.cont184:                                   ; preds = %if.else181
  %168 = load ptr, ptr %ref.tmp182, align 8, !tbaa !40
  %call.i.i766768 = invoke noundef i32 @_Z15MyStringComparePKwS0_(ptr noundef %168, ptr noundef nonnull @.str.13)
          to label %invoke.cont186 unwind label %lpad185

invoke.cont186:                                   ; preds = %invoke.cont184
  %cmp.i767 = icmp eq i32 %call.i.i766768, 0
  %169 = load ptr, ptr %ref.tmp182, align 8, !tbaa !40
  %isnull.i770 = icmp eq ptr %169, null
  br i1 %isnull.i770, label %_ZN11CStringBaseIwED2Ev.exit772, label %delete.notnull.i771

delete.notnull.i771:                              ; preds = %invoke.cont186
  call void @_ZdaPv(ptr noundef nonnull %169) #19
  br label %_ZN11CStringBaseIwED2Ev.exit772

_ZN11CStringBaseIwED2Ev.exit772:                  ; preds = %invoke.cont186, %delete.notnull.i771
  call void @llvm.lifetime.end.p0(i64 16, ptr nonnull %ref.tmp182) #16
  br i1 %cmp.i767, label %if.then190, label %if.else211

if.then190:                                       ; preds = %_ZN11CStringBaseIwED2Ev.exit772
  call void @llvm.lifetime.start.p0(i64 4, ptr nonnull %memSize) #16
  store i32 16777216, ptr %memSize, align 4, !tbaa !5
  call void @llvm.lifetime.start.p0(i64 16, ptr nonnull %ref.tmp192) #16
  %170 = load i32, ptr %_length.i, align 8, !noalias !57
  %sub.i774 = add nsw i32 %170, -3
  call void @llvm.experimental.noalias.scope.decl(metadata !145)
  %call.i.i32.i1005 = invoke noalias noundef nonnull dereferenceable(16) ptr @_Znam(i64 noundef 16) #17
          to label %call.i.i32.i.noexc1004 unwind label %lpad193

call.i.i32.i.noexc1004:                           ; preds = %if.then190
  store ptr %call.i.i32.i1005, ptr %ref.tmp192, align 8, !tbaa !40, !alias.scope !145
  store i32 0, ptr %call.i.i32.i1005, align 4, !tbaa !42, !noalias !145
  store i32 4, ptr %_capacity.i31.i983, align 4, !tbaa !44, !alias.scope !145
  %add.i.i984 = add nsw i32 %170, -2
  %cmp.i.i985 = icmp eq i32 %add.i.i984, 4
  br i1 %cmp.i.i985, label %for.body.lr.ph.i993, label %if.end.i.i988

if.end.i.i988:                                    ; preds = %call.i.i32.i.noexc1004
  %conv.i.i986 = zext i32 %add.i.i984 to i64
  %171 = icmp slt i32 %170, 2
  %172 = shl nuw nsw i64 %conv.i.i986, 2
  %173 = select i1 %171, i64 -1, i64 %172
  %call.i36.i987 = invoke noalias noundef nonnull ptr @_Znam(i64 noundef %173) #17
          to label %_ZN11CStringBaseIwE11SetCapacityEi.exit.i990 unwind label %_ZN11CStringBaseIwED2Ev.exit.i996, !noalias !145

_ZN11CStringBaseIwE11SetCapacityEi.exit.i990:     ; preds = %if.end.i.i988
  call void @_ZdaPv(ptr noundef nonnull %call.i.i32.i1005) #19, !noalias !145
  store ptr %call.i36.i987, ptr %ref.tmp192, align 8, !tbaa !40, !alias.scope !145
  store i32 0, ptr %call.i36.i987, align 4, !tbaa !42, !noalias !145
  store i32 %add.i.i984, ptr %_capacity.i31.i983, align 4, !tbaa !44, !alias.scope !145
  %cmp939.i989 = icmp sgt i32 %170, 3
  br i1 %cmp939.i989, label %for.body.lr.ph.i993, label %_ZN11CStringBaseIwE11SetCapacityEi.exit.for.cond.cleanup_crit_edge.i992

_ZN11CStringBaseIwE11SetCapacityEi.exit.for.cond.cleanup_crit_edge.i992: ; preds = %_ZN11CStringBaseIwE11SetCapacityEi.exit.i990
  %.pre.i991 = sext i32 %sub.i774 to i64
  br label %invoke.cont194

for.body.lr.ph.i993:                              ; preds = %_ZN11CStringBaseIwE11SetCapacityEi.exit.i990, %call.i.i32.i.noexc1004
  %174 = phi ptr [ %call.i36.i987, %_ZN11CStringBaseIwE11SetCapacityEi.exit.i990 ], [ %call.i.i32.i1005, %call.i.i32.i.noexc1004 ]
  %175 = load ptr, ptr %name, align 8, !tbaa !40, !noalias !145
  %176 = zext i32 %sub.i774 to i64
  %min.iters.check1239 = icmp ult i32 %sub.i774, 8
  br i1 %min.iters.check1239, label %for.body.i1002.preheader, label %vector.memcheck1235

vector.memcheck1235:                              ; preds = %for.body.lr.ph.i993
  %177 = ptrtoint ptr %175 to i64
  %178 = ptrtoint ptr %174 to i64
  %179 = add nuw i64 %177, 12
  %180 = sub i64 %178, %179
  %diff.check1236 = icmp ult i64 %180, 32
  br i1 %diff.check1236, label %for.body.i1002.preheader, label %vector.ph1240

vector.ph1240:                                    ; preds = %vector.memcheck1235
  %n.vec1242 = and i64 %176, 4294967288
  br label %vector.body1245

vector.body1245:                                  ; preds = %vector.body1245, %vector.ph1240
  %index1246 = phi i64 [ 0, %vector.ph1240 ], [ %index.next1249, %vector.body1245 ]
  %181 = or i64 %index1246, 3
  %182 = getelementptr inbounds i32, ptr %175, i64 %181
  %wide.load1247 = load <4 x i32>, ptr %182, align 4, !tbaa !42, !noalias !145
  %183 = getelementptr inbounds i32, ptr %182, i64 4
  %wide.load1248 = load <4 x i32>, ptr %183, align 4, !tbaa !42, !noalias !145
  %184 = getelementptr inbounds i32, ptr %174, i64 %index1246
  store <4 x i32> %wide.load1247, ptr %184, align 4, !tbaa !42, !noalias !145
  %185 = getelementptr inbounds i32, ptr %184, i64 4
  store <4 x i32> %wide.load1248, ptr %185, align 4, !tbaa !42, !noalias !145
  %index.next1249 = add nuw i64 %index1246, 8
  %186 = icmp eq i64 %index.next1249, %n.vec1242
  br i1 %186, label %middle.block1237, label %vector.body1245, !llvm.loop !148

middle.block1237:                                 ; preds = %vector.body1245
  %cmp.n1244 = icmp eq i64 %n.vec1242, %176
  br i1 %cmp.n1244, label %invoke.cont194, label %for.body.i1002.preheader

for.body.i1002.preheader:                         ; preds = %vector.memcheck1235, %for.body.lr.ph.i993, %middle.block1237
  %indvars.iv.i997.ph = phi i64 [ 0, %vector.memcheck1235 ], [ 0, %for.body.lr.ph.i993 ], [ %n.vec1242, %middle.block1237 ]
  %187 = xor i64 %indvars.iv.i997.ph, -1
  %188 = add nsw i64 %187, %176
  %xtraiter1327 = and i64 %176, 3
  %lcmp.mod1328.not = icmp eq i64 %xtraiter1327, 0
  br i1 %lcmp.mod1328.not, label %for.body.i1002.prol.loopexit, label %for.body.i1002.prol

for.body.i1002.prol:                              ; preds = %for.body.i1002.preheader, %for.body.i1002.prol
  %indvars.iv.i997.prol = phi i64 [ %indvars.iv.next.i1000.prol, %for.body.i1002.prol ], [ %indvars.iv.i997.ph, %for.body.i1002.preheader ]
  %prol.iter1329 = phi i64 [ %prol.iter1329.next, %for.body.i1002.prol ], [ 0, %for.body.i1002.preheader ]
  %189 = add nuw nsw i64 %indvars.iv.i997.prol, 3
  %arrayidx.i998.prol = getelementptr inbounds i32, ptr %175, i64 %189
  %190 = load i32, ptr %arrayidx.i998.prol, align 4, !tbaa !42, !noalias !145
  %arrayidx13.i999.prol = getelementptr inbounds i32, ptr %174, i64 %indvars.iv.i997.prol
  store i32 %190, ptr %arrayidx13.i999.prol, align 4, !tbaa !42, !noalias !145
  %indvars.iv.next.i1000.prol = add nuw nsw i64 %indvars.iv.i997.prol, 1
  %prol.iter1329.next = add i64 %prol.iter1329, 1
  %prol.iter1329.cmp.not = icmp eq i64 %prol.iter1329.next, %xtraiter1327
  br i1 %prol.iter1329.cmp.not, label %for.body.i1002.prol.loopexit, label %for.body.i1002.prol, !llvm.loop !149

for.body.i1002.prol.loopexit:                     ; preds = %for.body.i1002.prol, %for.body.i1002.preheader
  %indvars.iv.i997.unr = phi i64 [ %indvars.iv.i997.ph, %for.body.i1002.preheader ], [ %indvars.iv.next.i1000.prol, %for.body.i1002.prol ]
  %191 = icmp ult i64 %188, 3
  br i1 %191, label %invoke.cont194, label %for.body.i1002

_ZN11CStringBaseIwED2Ev.exit.i996:                ; preds = %if.end.i.i988
  %192 = landingpad { ptr, i32 }
          cleanup
  call void @_ZdaPv(ptr noundef nonnull %call.i.i32.i1005) #19, !noalias !145
  br label %ehcleanup199

for.body.i1002:                                   ; preds = %for.body.i1002.prol.loopexit, %for.body.i1002
  %indvars.iv.i997 = phi i64 [ %indvars.iv.next.i1000.3, %for.body.i1002 ], [ %indvars.iv.i997.unr, %for.body.i1002.prol.loopexit ]
  %193 = add nuw nsw i64 %indvars.iv.i997, 3
  %arrayidx.i998 = getelementptr inbounds i32, ptr %175, i64 %193
  %194 = load i32, ptr %arrayidx.i998, align 4, !tbaa !42, !noalias !145
  %arrayidx13.i999 = getelementptr inbounds i32, ptr %174, i64 %indvars.iv.i997
  store i32 %194, ptr %arrayidx13.i999, align 4, !tbaa !42, !noalias !145
  %indvars.iv.next.i1000 = add nuw nsw i64 %indvars.iv.i997, 1
  %195 = add nuw nsw i64 %indvars.iv.i997, 4
  %arrayidx.i998.1 = getelementptr inbounds i32, ptr %175, i64 %195
  %196 = load i32, ptr %arrayidx.i998.1, align 4, !tbaa !42, !noalias !145
  %arrayidx13.i999.1 = getelementptr inbounds i32, ptr %174, i64 %indvars.iv.next.i1000
  store i32 %196, ptr %arrayidx13.i999.1, align 4, !tbaa !42, !noalias !145
  %indvars.iv.next.i1000.1 = add nuw nsw i64 %indvars.iv.i997, 2
  %197 = add nuw nsw i64 %indvars.iv.i997, 5
  %arrayidx.i998.2 = getelementptr inbounds i32, ptr %175, i64 %197
  %198 = load i32, ptr %arrayidx.i998.2, align 4, !tbaa !42, !noalias !145
  %arrayidx13.i999.2 = getelementptr inbounds i32, ptr %174, i64 %indvars.iv.next.i1000.1
  store i32 %198, ptr %arrayidx13.i999.2, align 4, !tbaa !42, !noalias !145
  %indvars.iv.next.i1000.2 = add nuw nsw i64 %indvars.iv.i997, 3
  %199 = add nuw nsw i64 %indvars.iv.i997, 6
  %arrayidx.i998.3 = getelementptr inbounds i32, ptr %175, i64 %199
  %200 = load i32, ptr %arrayidx.i998.3, align 4, !tbaa !42, !noalias !145
  %arrayidx13.i999.3 = getelementptr inbounds i32, ptr %174, i64 %indvars.iv.next.i1000.2
  store i32 %200, ptr %arrayidx13.i999.3, align 4, !tbaa !42, !noalias !145
  %indvars.iv.next.i1000.3 = add nuw nsw i64 %indvars.iv.i997, 4
  %exitcond1173.not.3 = icmp eq i64 %indvars.iv.next.i1000.3, %176
  br i1 %exitcond1173.not.3, label %invoke.cont194, label %for.body.i1002, !llvm.loop !150

invoke.cont194:                                   ; preds = %for.body.i1002.prol.loopexit, %for.body.i1002, %middle.block1237, %_ZN11CStringBaseIwE11SetCapacityEi.exit.for.cond.cleanup_crit_edge.i992
  %201 = phi ptr [ %call.i36.i987, %_ZN11CStringBaseIwE11SetCapacityEi.exit.for.cond.cleanup_crit_edge.i992 ], [ %174, %middle.block1237 ], [ %174, %for.body.i1002 ], [ %174, %for.body.i1002.prol.loopexit ]
  %idxprom15.pre-phi.i994 = phi i64 [ %.pre.i991, %_ZN11CStringBaseIwE11SetCapacityEi.exit.for.cond.cleanup_crit_edge.i992 ], [ %176, %middle.block1237 ], [ %176, %for.body.i1002 ], [ %176, %for.body.i1002.prol.loopexit ]
  %arrayidx16.i995 = getelementptr inbounds i32, ptr %201, i64 %idxprom15.pre-phi.i994
  store i32 0, ptr %arrayidx16.i995, align 4, !tbaa !42, !noalias !145
  store i32 %sub.i774, ptr %_length17.i1003, align 8, !tbaa !49, !alias.scope !145
  %call197 = invoke noundef i32 @_Z24ParsePropDictionaryValueRK11CStringBaseIwERK14tagPROPVARIANTRj(ptr noundef nonnull align 8 dereferenceable(16) %ref.tmp192, ptr noundef nonnull align 8 dereferenceable(16) %arrayidx5, ptr noundef nonnull align 4 dereferenceable(4) %memSize)
          to label %invoke.cont196 unwind label %lpad195

invoke.cont196:                                   ; preds = %invoke.cont194
  %202 = load ptr, ptr %ref.tmp192, align 8, !tbaa !40
  %isnull.i776 = icmp eq ptr %202, null
  br i1 %isnull.i776, label %_ZN11CStringBaseIwED2Ev.exit778, label %delete.notnull.i777

delete.notnull.i777:                              ; preds = %invoke.cont196
  call void @_ZdaPv(ptr noundef nonnull %202) #19
  br label %_ZN11CStringBaseIwED2Ev.exit778

_ZN11CStringBaseIwED2Ev.exit778:                  ; preds = %invoke.cont196, %delete.notnull.i777
  call void @llvm.lifetime.end.p0(i64 16, ptr nonnull %ref.tmp192) #16
  %cmp200.not = icmp eq i32 %call197, 0
  br i1 %cmp200.not, label %cleanup.cont205, label %cleanup459.critedge592

lpad183:                                          ; preds = %if.else181
  %203 = landingpad { ptr, i32 }
          cleanup
  br label %ehcleanup189

lpad185:                                          ; preds = %invoke.cont184
  %204 = landingpad { ptr, i32 }
          cleanup
  %205 = load ptr, ptr %ref.tmp182, align 8, !tbaa !40
  %isnull.i779 = icmp eq ptr %205, null
  br i1 %isnull.i779, label %ehcleanup189, label %delete.notnull.i780

delete.notnull.i780:                              ; preds = %lpad185
  call void @_ZdaPv(ptr noundef nonnull %205) #19
  br label %ehcleanup189

ehcleanup189:                                     ; preds = %delete.notnull.i780, %lpad185, %lpad183
  %.pn551 = phi { ptr, i32 } [ %203, %lpad183 ], [ %204, %lpad185 ], [ %204, %delete.notnull.i780 ]
  call void @llvm.lifetime.end.p0(i64 16, ptr nonnull %ref.tmp182) #16
  br label %ehcleanup462

lpad193:                                          ; preds = %if.then190
  %206 = landingpad { ptr, i32 }
          cleanup
  br label %ehcleanup199

lpad195:                                          ; preds = %invoke.cont194
  %207 = landingpad { ptr, i32 }
          cleanup
  %208 = load ptr, ptr %ref.tmp192, align 8, !tbaa !40
  %isnull.i782 = icmp eq ptr %208, null
  br i1 %isnull.i782, label %ehcleanup199, label %delete.notnull.i783

delete.notnull.i783:                              ; preds = %lpad195
  call void @_ZdaPv(ptr noundef nonnull %208) #19
  br label %ehcleanup199

ehcleanup199:                                     ; preds = %delete.notnull.i783, %lpad195, %lpad193, %_ZN11CStringBaseIwED2Ev.exit.i996
  %.pn575 = phi { ptr, i32 } [ %206, %lpad193 ], [ %192, %_ZN11CStringBaseIwED2Ev.exit.i996 ], [ %207, %lpad195 ], [ %207, %delete.notnull.i783 ]
  call void @llvm.lifetime.end.p0(i64 16, ptr nonnull %ref.tmp192) #16
  call void @llvm.lifetime.end.p0(i64 4, ptr nonnull %memSize) #16
  br label %ehcleanup462

cleanup.cont205:                                  ; preds = %_ZN11CStringBaseIwED2Ev.exit778
  %209 = load i32, ptr %memSize, align 4, !tbaa !5
  store i32 %209, ptr %m_MemSize, align 4, !tbaa !151
  call void @llvm.lifetime.end.p0(i64 4, ptr nonnull %memSize) #16
  br label %if.end458

if.else211:                                       ; preds = %_ZN11CStringBaseIwED2Ev.exit772
  %210 = load ptr, ptr %name, align 8, !tbaa !40
  %211 = load i32, ptr %210, align 4, !tbaa !42
  %cmp215 = icmp eq i32 %211, 79
  br i1 %cmp215, label %if.then216, label %if.else237

if.then216:                                       ; preds = %if.else211
  call void @llvm.lifetime.start.p0(i64 4, ptr nonnull %order) #16
  store i32 8, ptr %order, align 4, !tbaa !5
  call void @llvm.lifetime.start.p0(i64 16, ptr nonnull %ref.tmp218) #16
  %212 = load i32, ptr %_length.i, align 8, !noalias !57
  %sub.i786 = add nsw i32 %212, -1
  call void @llvm.experimental.noalias.scope.decl(metadata !152)
  %call.i.i32.i1035 = invoke noalias noundef nonnull dereferenceable(16) ptr @_Znam(i64 noundef 16) #17
          to label %call.i.i32.i.noexc1034 unwind label %lpad219

call.i.i32.i.noexc1034:                           ; preds = %if.then216
  store ptr %call.i.i32.i1035, ptr %ref.tmp218, align 8, !tbaa !40, !alias.scope !152
  store i32 0, ptr %call.i.i32.i1035, align 4, !tbaa !42, !noalias !152
  store i32 4, ptr %_capacity.i31.i1013, align 4, !tbaa !44, !alias.scope !152
  %cmp.i.i1015 = icmp eq i32 %212, 4
  br i1 %cmp.i.i1015, label %for.body.lr.ph.i1023, label %if.end.i.i1018

if.end.i.i1018:                                   ; preds = %call.i.i32.i.noexc1034
  %conv.i.i1016 = zext i32 %212 to i64
  %213 = icmp slt i32 %212, 0
  %214 = shl nuw nsw i64 %conv.i.i1016, 2
  %215 = select i1 %213, i64 -1, i64 %214
  %call.i36.i1017 = invoke noalias noundef nonnull ptr @_Znam(i64 noundef %215) #17
          to label %_ZN11CStringBaseIwE11SetCapacityEi.exit.i1020 unwind label %_ZN11CStringBaseIwED2Ev.exit.i1026, !noalias !152

_ZN11CStringBaseIwE11SetCapacityEi.exit.i1020:    ; preds = %if.end.i.i1018
  call void @_ZdaPv(ptr noundef nonnull %call.i.i32.i1035) #19, !noalias !152
  store ptr %call.i36.i1017, ptr %ref.tmp218, align 8, !tbaa !40, !alias.scope !152
  store i32 0, ptr %call.i36.i1017, align 4, !tbaa !42, !noalias !152
  store i32 %212, ptr %_capacity.i31.i1013, align 4, !tbaa !44, !alias.scope !152
  %cmp939.i1019 = icmp sgt i32 %212, 1
  br i1 %cmp939.i1019, label %_ZN11CStringBaseIwE11SetCapacityEi.exit.i1020.for.body.lr.ph.i1023_crit_edge, label %_ZN11CStringBaseIwE11SetCapacityEi.exit.for.cond.cleanup_crit_edge.i1022

_ZN11CStringBaseIwE11SetCapacityEi.exit.i1020.for.body.lr.ph.i1023_crit_edge: ; preds = %_ZN11CStringBaseIwE11SetCapacityEi.exit.i1020
  %.pre = load ptr, ptr %name, align 8, !tbaa !40, !noalias !152
  br label %for.body.lr.ph.i1023

_ZN11CStringBaseIwE11SetCapacityEi.exit.for.cond.cleanup_crit_edge.i1022: ; preds = %_ZN11CStringBaseIwE11SetCapacityEi.exit.i1020
  %.pre.i1021 = sext i32 %sub.i786 to i64
  br label %invoke.cont220

for.body.lr.ph.i1023:                             ; preds = %_ZN11CStringBaseIwE11SetCapacityEi.exit.i1020.for.body.lr.ph.i1023_crit_edge, %call.i.i32.i.noexc1034
  %216 = phi ptr [ %.pre, %_ZN11CStringBaseIwE11SetCapacityEi.exit.i1020.for.body.lr.ph.i1023_crit_edge ], [ %210, %call.i.i32.i.noexc1034 ]
  %217 = phi ptr [ %call.i36.i1017, %_ZN11CStringBaseIwE11SetCapacityEi.exit.i1020.for.body.lr.ph.i1023_crit_edge ], [ %call.i.i32.i1035, %call.i.i32.i.noexc1034 ]
  %218 = zext i32 %sub.i786 to i64
  %min.iters.check1254 = icmp ult i32 %sub.i786, 8
  br i1 %min.iters.check1254, label %for.body.i1032.preheader, label %vector.memcheck1250

vector.memcheck1250:                              ; preds = %for.body.lr.ph.i1023
  %219 = ptrtoint ptr %216 to i64
  %220 = ptrtoint ptr %217 to i64
  %221 = add nuw i64 %219, 4
  %222 = sub i64 %220, %221
  %diff.check1251 = icmp ult i64 %222, 32
  br i1 %diff.check1251, label %for.body.i1032.preheader, label %vector.ph1255

vector.ph1255:                                    ; preds = %vector.memcheck1250
  %n.vec1257 = and i64 %218, 4294967288
  br label %vector.body1260

vector.body1260:                                  ; preds = %vector.body1260, %vector.ph1255
  %index1261 = phi i64 [ 0, %vector.ph1255 ], [ %index.next1264, %vector.body1260 ]
  %223 = or i64 %index1261, 1
  %224 = getelementptr inbounds i32, ptr %216, i64 %223
  %wide.load1262 = load <4 x i32>, ptr %224, align 4, !tbaa !42, !noalias !152
  %225 = getelementptr inbounds i32, ptr %224, i64 4
  %wide.load1263 = load <4 x i32>, ptr %225, align 4, !tbaa !42, !noalias !152
  %226 = getelementptr inbounds i32, ptr %217, i64 %index1261
  store <4 x i32> %wide.load1262, ptr %226, align 4, !tbaa !42, !noalias !152
  %227 = getelementptr inbounds i32, ptr %226, i64 4
  store <4 x i32> %wide.load1263, ptr %227, align 4, !tbaa !42, !noalias !152
  %index.next1264 = add nuw i64 %index1261, 8
  %228 = icmp eq i64 %index.next1264, %n.vec1257
  br i1 %228, label %middle.block1252, label %vector.body1260, !llvm.loop !155

middle.block1252:                                 ; preds = %vector.body1260
  %cmp.n1259 = icmp eq i64 %n.vec1257, %218
  br i1 %cmp.n1259, label %invoke.cont220, label %for.body.i1032.preheader

for.body.i1032.preheader:                         ; preds = %vector.memcheck1250, %for.body.lr.ph.i1023, %middle.block1252
  %indvars.iv.i1027.ph = phi i64 [ 0, %vector.memcheck1250 ], [ 0, %for.body.lr.ph.i1023 ], [ %n.vec1257, %middle.block1252 ]
  %229 = xor i64 %indvars.iv.i1027.ph, -1
  %230 = add nsw i64 %229, %218
  %xtraiter1324 = and i64 %218, 3
  %lcmp.mod1325.not = icmp eq i64 %xtraiter1324, 0
  br i1 %lcmp.mod1325.not, label %for.body.i1032.prol.loopexit, label %for.body.i1032.prol

for.body.i1032.prol:                              ; preds = %for.body.i1032.preheader, %for.body.i1032.prol
  %indvars.iv.i1027.prol = phi i64 [ %231, %for.body.i1032.prol ], [ %indvars.iv.i1027.ph, %for.body.i1032.preheader ]
  %prol.iter1326 = phi i64 [ %prol.iter1326.next, %for.body.i1032.prol ], [ 0, %for.body.i1032.preheader ]
  %231 = add nuw nsw i64 %indvars.iv.i1027.prol, 1
  %arrayidx.i1028.prol = getelementptr inbounds i32, ptr %216, i64 %231
  %232 = load i32, ptr %arrayidx.i1028.prol, align 4, !tbaa !42, !noalias !152
  %arrayidx13.i1029.prol = getelementptr inbounds i32, ptr %217, i64 %indvars.iv.i1027.prol
  store i32 %232, ptr %arrayidx13.i1029.prol, align 4, !tbaa !42, !noalias !152
  %prol.iter1326.next = add i64 %prol.iter1326, 1
  %prol.iter1326.cmp.not = icmp eq i64 %prol.iter1326.next, %xtraiter1324
  br i1 %prol.iter1326.cmp.not, label %for.body.i1032.prol.loopexit, label %for.body.i1032.prol, !llvm.loop !156

for.body.i1032.prol.loopexit:                     ; preds = %for.body.i1032.prol, %for.body.i1032.preheader
  %indvars.iv.i1027.unr = phi i64 [ %indvars.iv.i1027.ph, %for.body.i1032.preheader ], [ %231, %for.body.i1032.prol ]
  %233 = icmp ult i64 %230, 3
  br i1 %233, label %invoke.cont220, label %for.body.i1032

_ZN11CStringBaseIwED2Ev.exit.i1026:               ; preds = %if.end.i.i1018
  %234 = landingpad { ptr, i32 }
          cleanup
  call void @_ZdaPv(ptr noundef nonnull %call.i.i32.i1035) #19, !noalias !152
  br label %ehcleanup225

for.body.i1032:                                   ; preds = %for.body.i1032.prol.loopexit, %for.body.i1032
  %indvars.iv.i1027 = phi i64 [ %241, %for.body.i1032 ], [ %indvars.iv.i1027.unr, %for.body.i1032.prol.loopexit ]
  %235 = add nuw nsw i64 %indvars.iv.i1027, 1
  %arrayidx.i1028 = getelementptr inbounds i32, ptr %216, i64 %235
  %236 = load i32, ptr %arrayidx.i1028, align 4, !tbaa !42, !noalias !152
  %arrayidx13.i1029 = getelementptr inbounds i32, ptr %217, i64 %indvars.iv.i1027
  store i32 %236, ptr %arrayidx13.i1029, align 4, !tbaa !42, !noalias !152
  %237 = add nuw nsw i64 %indvars.iv.i1027, 2
  %arrayidx.i1028.1 = getelementptr inbounds i32, ptr %216, i64 %237
  %238 = load i32, ptr %arrayidx.i1028.1, align 4, !tbaa !42, !noalias !152
  %arrayidx13.i1029.1 = getelementptr inbounds i32, ptr %217, i64 %235
  store i32 %238, ptr %arrayidx13.i1029.1, align 4, !tbaa !42, !noalias !152
  %239 = add nuw nsw i64 %indvars.iv.i1027, 3
  %arrayidx.i1028.2 = getelementptr inbounds i32, ptr %216, i64 %239
  %240 = load i32, ptr %arrayidx.i1028.2, align 4, !tbaa !42, !noalias !152
  %arrayidx13.i1029.2 = getelementptr inbounds i32, ptr %217, i64 %237
  store i32 %240, ptr %arrayidx13.i1029.2, align 4, !tbaa !42, !noalias !152
  %241 = add nuw nsw i64 %indvars.iv.i1027, 4
  %arrayidx.i1028.3 = getelementptr inbounds i32, ptr %216, i64 %241
  %242 = load i32, ptr %arrayidx.i1028.3, align 4, !tbaa !42, !noalias !152
  %arrayidx13.i1029.3 = getelementptr inbounds i32, ptr %217, i64 %239
  store i32 %242, ptr %arrayidx13.i1029.3, align 4, !tbaa !42, !noalias !152
  %exitcond1171.not.3 = icmp eq i64 %241, %218
  br i1 %exitcond1171.not.3, label %invoke.cont220, label %for.body.i1032, !llvm.loop !157

invoke.cont220:                                   ; preds = %for.body.i1032.prol.loopexit, %for.body.i1032, %middle.block1252, %_ZN11CStringBaseIwE11SetCapacityEi.exit.for.cond.cleanup_crit_edge.i1022
  %243 = phi ptr [ %call.i36.i1017, %_ZN11CStringBaseIwE11SetCapacityEi.exit.for.cond.cleanup_crit_edge.i1022 ], [ %217, %middle.block1252 ], [ %217, %for.body.i1032 ], [ %217, %for.body.i1032.prol.loopexit ]
