; ModuleID = '/usr/local/google/home/aeubanks/repos/test-suite/MicroBenchmarks/libs/benchmark/test/user_counters_tabular_test.cc'
source_filename = "/usr/local/google/home/aeubanks/repos/test-suite/MicroBenchmarks/libs/benchmark/test/user_counters_tabular_test.cc"
target datalayout = "e-m:e-p270:32:32-p271:32:32-p272:64:64-i64:64-f80:128-n8:16:32:64-S128"
target triple = "x86_64-unknown-linux-gnu"

%"class.std::ios_base::Init" = type { i8 }
%"class.benchmark::internal::LogType" = type { ptr }
%"class.std::basic_ostream" = type { ptr, %"class.std::basic_ios" }
%"class.std::basic_ios" = type { %"class.std::ios_base", ptr, i8, i8, ptr, ptr, ptr, ptr }
%"class.std::ios_base" = type { ptr, i64, i64, i32, i32, i32, ptr, %"struct.std::ios_base::_Words", [8 x %"struct.std::ios_base::_Words"], i32, ptr, %"class.std::locale" }
%"struct.std::ios_base::_Words" = type { ptr, i64 }
%"class.std::locale" = type { ptr }
%"struct.std::_Rb_tree<std::__cxx11::basic_string<char>, std::pair<const std::__cxx11::basic_string<char>, benchmark::Counter>, std::_Select1st<std::pair<const std::__cxx11::basic_string<char>, benchmark::Counter>>, std::less<std::__cxx11::basic_string<char>>>::_Alloc_node" = type { ptr }
%"struct.std::pair" = type { %"class.std::__cxx11::basic_string", %"class.benchmark::Counter" }
%"class.std::__cxx11::basic_string" = type { %"struct.std::__cxx11::basic_string<char>::_Alloc_hider", i64, %union.anon }
%"struct.std::__cxx11::basic_string<char>::_Alloc_hider" = type { ptr }
%union.anon = type { i64, [8 x i8] }
%"class.benchmark::Counter" = type { double, i32, i32 }
%"class.benchmark::State" = type { i64, i64, i64, i8, i8, i8, %"class.std::vector", i64, %"class.std::map", i32, i32, ptr, ptr, ptr }
%"class.std::vector" = type { %"struct.std::_Vector_base" }
%"struct.std::_Vector_base" = type { %"struct.std::_Vector_base<long, std::allocator<long>>::_Vector_impl" }
%"struct.std::_Vector_base<long, std::allocator<long>>::_Vector_impl" = type { %"struct.std::_Vector_base<long, std::allocator<long>>::_Vector_impl_data" }
%"struct.std::_Vector_base<long, std::allocator<long>>::_Vector_impl_data" = type { ptr, ptr, ptr }
%"class.std::map" = type { %"class.std::_Rb_tree" }
%"class.std::_Rb_tree" = type { %"struct.std::_Rb_tree<std::__cxx11::basic_string<char>, std::pair<const std::__cxx11::basic_string<char>, benchmark::Counter>, std::_Select1st<std::pair<const std::__cxx11::basic_string<char>, benchmark::Counter>>, std::less<std::__cxx11::basic_string<char>>>::_Rb_tree_impl" }
%"struct.std::_Rb_tree<std::__cxx11::basic_string<char>, std::pair<const std::__cxx11::basic_string<char>, benchmark::Counter>, std::_Select1st<std::pair<const std::__cxx11::basic_string<char>, benchmark::Counter>>, std::less<std::__cxx11::basic_string<char>>>::_Rb_tree_impl" = type { %"struct.std::_Rb_tree_key_compare", %"struct.std::_Rb_tree_header" }
%"struct.std::_Rb_tree_key_compare" = type { %"struct.std::less" }
%"struct.std::less" = type { i8 }
%"struct.std::_Rb_tree_header" = type { %"struct.std::_Rb_tree_node_base", i64 }
%"struct.std::_Rb_tree_node_base" = type { i32, ptr, ptr, ptr }
%"class.benchmark::internal::CheckHandler" = type { ptr }
%"class.std::ctype" = type <{ %"class.std::locale::facet.base", [4 x i8], ptr, i8, [7 x i8], ptr, ptr, ptr, i8, [256 x i8], [256 x i8], i8, [6 x i8] }>
%"class.std::locale::facet.base" = type <{ ptr, i32 }>
%"class.std::_Sp_counted_base" = type { ptr, i32, i32 }
%"struct.std::_Rb_tree_node" = type { %"struct.std::_Rb_tree_node_base", %"struct.__gnu_cxx::__aligned_membuf.55" }
%"struct.__gnu_cxx::__aligned_membuf.55" = type { [48 x i8] }
%"class.std::__cxx11::basic_stringstream" = type { %"class.std::basic_iostream.base", %"class.std::__cxx11::basic_stringbuf", %"class.std::basic_ios" }
%"class.std::basic_iostream.base" = type { %"class.std::basic_istream.base", %"class.std::basic_ostream.base" }
%"class.std::basic_istream.base" = type { ptr, i64 }
%"class.std::basic_ostream.base" = type { ptr }
%"class.std::__cxx11::basic_stringbuf" = type { %"class.std::basic_streambuf", i32, %"class.std::__cxx11::basic_string" }
%"class.std::basic_streambuf" = type { ptr, ptr, ptr, ptr, ptr, ptr, ptr, %"class.std::locale" }
%"class.std::basic_istream" = type { ptr, i64, %"class.std::basic_ios" }
%struct.Results = type { %"class.std::__cxx11::basic_string", %"class.std::map.35" }
%"class.std::map.35" = type { %"class.std::_Rb_tree.36" }
%"class.std::_Rb_tree.36" = type { %"struct.std::_Rb_tree<std::__cxx11::basic_string<char>, std::pair<const std::__cxx11::basic_string<char>, std::__cxx11::basic_string<char>>, std::_Select1st<std::pair<const std::__cxx11::basic_string<char>, std::__cxx11::basic_string<char>>>, std::less<std::__cxx11::basic_string<char>>>::_Rb_tree_impl" }
%"struct.std::_Rb_tree<std::__cxx11::basic_string<char>, std::pair<const std::__cxx11::basic_string<char>, std::__cxx11::basic_string<char>>, std::_Select1st<std::pair<const std::__cxx11::basic_string<char>, std::__cxx11::basic_string<char>>>, std::less<std::__cxx11::basic_string<char>>>::_Rb_tree_impl" = type { %"struct.std::_Rb_tree_key_compare", %"struct.std::_Rb_tree_header" }
%"struct.std::_Rb_tree_node.59" = type { %"struct.std::_Rb_tree_node_base", %"struct.__gnu_cxx::__aligned_membuf.60" }
%"struct.__gnu_cxx::__aligned_membuf.60" = type { [64 x i8] }
%"class.std::function" = type { %"class.std::_Function_base", ptr }
%"class.std::_Function_base" = type { %"union.std::_Any_data", ptr }
%"union.std::_Any_data" = type { %"union.std::_Nocopy_types" }
%"union.std::_Nocopy_types" = type { { i64, i64 } }
%struct.TestCase = type { %"class.std::__cxx11::basic_string", i32, %"class.std::__cxx11::basic_string", %"class.std::shared_ptr" }
%"class.std::shared_ptr" = type { %"class.std::__shared_ptr" }
%"class.std::__shared_ptr" = type { ptr, %"class.std::__shared_count" }
%"class.std::__shared_count" = type { ptr }
%"class.benchmark::internal::FunctionBenchmark" = type { %"class.benchmark::internal::Benchmark", ptr }
%"class.benchmark::internal::Benchmark" = type { ptr, %"class.std::__cxx11::basic_string", i32, %"class.std::vector.10", %"class.std::vector.15", i32, i8, i32, double, i64, i32, i8, i8, i8, i32, ptr, %"class.std::vector.20", %"class.std::vector.30", ptr, ptr }
%"class.std::vector.10" = type { %"struct.std::_Vector_base.11" }
%"struct.std::_Vector_base.11" = type { %"struct.std::_Vector_base<std::__cxx11::basic_string<char>, std::allocator<std::__cxx11::basic_string<char>>>::_Vector_impl" }
%"struct.std::_Vector_base<std::__cxx11::basic_string<char>, std::allocator<std::__cxx11::basic_string<char>>>::_Vector_impl" = type { %"struct.std::_Vector_base<std::__cxx11::basic_string<char>, std::allocator<std::__cxx11::basic_string<char>>>::_Vector_impl_data" }
%"struct.std::_Vector_base<std::__cxx11::basic_string<char>, std::allocator<std::__cxx11::basic_string<char>>>::_Vector_impl_data" = type { ptr, ptr, ptr }
%"class.std::vector.15" = type { %"struct.std::_Vector_base.16" }
%"struct.std::_Vector_base.16" = type { %"struct.std::_Vector_base<std::vector<long>, std::allocator<std::vector<long>>>::_Vector_impl" }
%"struct.std::_Vector_base<std::vector<long>, std::allocator<std::vector<long>>>::_Vector_impl" = type { %"struct.std::_Vector_base<std::vector<long>, std::allocator<std::vector<long>>>::_Vector_impl_data" }
%"struct.std::_Vector_base<std::vector<long>, std::allocator<std::vector<long>>>::_Vector_impl_data" = type { ptr, ptr, ptr }
%"class.std::vector.20" = type { %"struct.std::_Vector_base.21" }
%"struct.std::_Vector_base.21" = type { %"struct.std::_Vector_base<benchmark::internal::Statistics, std::allocator<benchmark::internal::Statistics>>::_Vector_impl" }
%"struct.std::_Vector_base<benchmark::internal::Statistics, std::allocator<benchmark::internal::Statistics>>::_Vector_impl" = type { %"struct.std::_Vector_base<benchmark::internal::Statistics, std::allocator<benchmark::internal::Statistics>>::_Vector_impl_data" }
%"struct.std::_Vector_base<benchmark::internal::Statistics, std::allocator<benchmark::internal::Statistics>>::_Vector_impl_data" = type { ptr, ptr, ptr }
%"class.std::vector.30" = type { %"struct.std::_Vector_base.31" }
%"struct.std::_Vector_base.31" = type { %"struct.std::_Vector_base<int, std::allocator<int>>::_Vector_impl" }
%"struct.std::_Vector_base<int, std::allocator<int>>::_Vector_impl" = type { %"struct.std::_Vector_base<int, std::allocator<int>>::_Vector_impl_data" }
%"struct.std::_Vector_base<int, std::allocator<int>>::_Vector_impl_data" = type { ptr, ptr, ptr }

$_ZN9benchmark8internal12CheckHandlerC2EPKcS3_S3_i = comdat any

$_ZN9benchmark8internal12CheckHandlerD2Ev = comdat any

$__clang_call_terminate = comdat any

$_ZNSt16_Sp_counted_baseILN9__gnu_cxx12_Lock_policyE2EE24_M_release_last_use_coldEv = comdat any

$_ZN9benchmark8internal16CallAbortHandlerEv = comdat any

$_ZNSt8_Rb_treeINSt7__cxx1112basic_stringIcSt11char_traitsIcESaIcEEESt4pairIKS5_N9benchmark7CounterEESt10_Select1stISA_ESt4lessIS5_ESaISA_EE17_M_insert_unique_IRKSA_NSG_11_Alloc_nodeEEESt17_Rb_tree_iteratorISA_ESt23_Rb_tree_const_iteratorISA_EOT_RT0_ = comdat any

$_ZNSt8_Rb_treeINSt7__cxx1112basic_stringIcSt11char_traitsIcESaIcEEESt4pairIKS5_N9benchmark7CounterEESt10_Select1stISA_ESt4lessIS5_ESaISA_EE29_M_get_insert_hint_unique_posESt23_Rb_tree_const_iteratorISA_ERS7_ = comdat any

$_ZNSt8_Rb_treeINSt7__cxx1112basic_stringIcSt11char_traitsIcESaIcEEESt4pairIKS5_N9benchmark7CounterEESt10_Select1stISA_ESt4lessIS5_ESaISA_EE24_M_get_insert_unique_posERS7_ = comdat any

$_ZNSt8_Rb_treeINSt7__cxx1112basic_stringIcSt11char_traitsIcESaIcEEESt4pairIKS5_N9benchmark7CounterEESt10_Select1stISA_ESt4lessIS5_ESaISA_EE17_M_construct_nodeIJRKSA_EEEvPSt13_Rb_tree_nodeISA_EDpOT_ = comdat any

$_ZNK7Results5GetAsIdEET_PKc = comdat any

$_ZNK7Results3GetB5cxx11EPKc = comdat any

$_ZNSt17_Function_handlerIFvRK7ResultsEPS3_E9_M_invokeERKSt9_Any_dataS2_ = comdat any

$_ZNSt17_Function_handlerIFvRK7ResultsEPS3_E10_M_managerERSt9_Any_dataRKS6_St18_Manager_operation = comdat any

$_ZZN9benchmark8internal18GetNullLogInstanceEvE3log = comdat any

$_ZGVZN9benchmark8internal18GetNullLogInstanceEvE3log = comdat any

$_ZZN9benchmark8internal19GetErrorLogInstanceEvE3log = comdat any

$_ZGVZN9benchmark8internal19GetErrorLogInstanceEvE3log = comdat any

$_ZTSPFvRK7ResultsE = comdat any

$_ZTSFvRK7ResultsE = comdat any

$_ZTIFvRK7ResultsE = comdat any

$_ZTIPFvRK7ResultsE = comdat any

@_ZStL8__ioinit = internal global %"class.std::ios_base::Init" zeroinitializer, align 1
@__dso_handle = external hidden global i8
@dummy56 = hidden local_unnamed_addr global i32 0, align 4
@.str = private unnamed_addr constant [7 x i8] c"^[-]+$\00", align 1
@.str.3 = private unnamed_addr constant [84 x i8] c"^Benchmark %s Time %s CPU %s Iterations %s Bar %s Bat %s Baz %s Foo %s Frob %s Lob$\00", align 1
@.str.4 = private unnamed_addr constant [136 x i8] c"^BM_Counters_Tabular/repeats:2/threads:1 %console_report [ ]*%hrfloat [ ]*%hrfloat [ ]*%hrfloat [ ]*%hrfloat [ ]*%hrfloat [ ]*%hrfloat$\00", align 1
@.str.5 = private unnamed_addr constant [141 x i8] c"^BM_Counters_Tabular/repeats:2/threads:1_mean %console_report [ ]*%hrfloat [ ]*%hrfloat [ ]*%hrfloat [ ]*%hrfloat [ ]*%hrfloat [ ]*%hrfloat$\00", align 1
@.str.6 = private unnamed_addr constant [143 x i8] c"^BM_Counters_Tabular/repeats:2/threads:1_median %console_report [ ]*%hrfloat [ ]*%hrfloat [ ]*%hrfloat [ ]*%hrfloat [ ]*%hrfloat [ ]*%hrfloat$\00", align 1
@.str.7 = private unnamed_addr constant [143 x i8] c"^BM_Counters_Tabular/repeats:2/threads:1_stddev %console_report [ ]*%hrfloat [ ]*%hrfloat [ ]*%hrfloat [ ]*%hrfloat [ ]*%hrfloat [ ]*%hrfloat$\00", align 1
@.str.8 = private unnamed_addr constant [198 x i8] c"^BM_Counters_Tabular/repeats:2/threads:1_cv %console_percentage_report [ ]*%percentage[ ]*% [ ]*%percentage[ ]*% [ ]*%percentage[ ]*% [ ]*%percentage[ ]*% [ ]*%percentage[ ]*% [ ]*%percentage[ ]*%$\00", align 1
@.str.9 = private unnamed_addr constant [136 x i8] c"^BM_Counters_Tabular/repeats:2/threads:2 %console_report [ ]*%hrfloat [ ]*%hrfloat [ ]*%hrfloat [ ]*%hrfloat [ ]*%hrfloat [ ]*%hrfloat$\00", align 1
@.str.10 = private unnamed_addr constant [141 x i8] c"^BM_Counters_Tabular/repeats:2/threads:2_mean %console_report [ ]*%hrfloat [ ]*%hrfloat [ ]*%hrfloat [ ]*%hrfloat [ ]*%hrfloat [ ]*%hrfloat$\00", align 1
@.str.11 = private unnamed_addr constant [143 x i8] c"^BM_Counters_Tabular/repeats:2/threads:2_median %console_report [ ]*%hrfloat [ ]*%hrfloat [ ]*%hrfloat [ ]*%hrfloat [ ]*%hrfloat [ ]*%hrfloat$\00", align 1
@.str.12 = private unnamed_addr constant [143 x i8] c"^BM_Counters_Tabular/repeats:2/threads:2_stddev %console_report [ ]*%hrfloat [ ]*%hrfloat [ ]*%hrfloat [ ]*%hrfloat [ ]*%hrfloat [ ]*%hrfloat$\00", align 1
@.str.13 = private unnamed_addr constant [198 x i8] c"^BM_Counters_Tabular/repeats:2/threads:2_cv %console_percentage_report [ ]*%percentage[ ]*% [ ]*%percentage[ ]*% [ ]*%percentage[ ]*% [ ]*%percentage[ ]*% [ ]*%percentage[ ]*% [ ]*%percentage[ ]*%$\00", align 1
@.str.14 = private unnamed_addr constant [145 x i8] c"^BM_CounterRates_Tabular/threads:%int %console_report [ ]*%hrfloat/s [ ]*%hrfloat/s [ ]*%hrfloat/s [ ]*%hrfloat/s [ ]*%hrfloat/s [ ]*%hrfloat/s$\00", align 1
@.str.15 = private unnamed_addr constant [62 x i8] c"^Benchmark %s Time %s CPU %s Iterations %s Bar %s Baz %s Foo$\00", align 1
@.str.16 = private unnamed_addr constant [93 x i8] c"^BM_CounterSet0_Tabular/threads:%int %console_report [ ]*%hrfloat [ ]*%hrfloat [ ]*%hrfloat$\00", align 1
@.str.17 = private unnamed_addr constant [93 x i8] c"^BM_CounterSet1_Tabular/threads:%int %console_report [ ]*%hrfloat [ ]*%hrfloat [ ]*%hrfloat$\00", align 1
@.str.18 = private unnamed_addr constant [62 x i8] c"^Benchmark %s Time %s CPU %s Iterations %s Bat %s Baz %s Foo$\00", align 1
@.str.19 = private unnamed_addr constant [93 x i8] c"^BM_CounterSet2_Tabular/threads:%int %console_report [ ]*%hrfloat [ ]*%hrfloat [ ]*%hrfloat$\00", align 1
@dummy58 = hidden local_unnamed_addr global i32 0, align 4
@.str.21 = private unnamed_addr constant [49 x i8] c"%csv_header,\22Bar\22,\22Bat\22,\22Baz\22,\22Foo\22,\22Frob\22,\22Lob\22\00", align 1
@.str.22 = private unnamed_addr constant [4 x i8] c"Foo\00", align 1
@.str.23 = private unnamed_addr constant [4 x i8] c"Bar\00", align 1
@.str.24 = private unnamed_addr constant [4 x i8] c"Baz\00", align 1
@.str.25 = private unnamed_addr constant [4 x i8] c"Bat\00", align 1
@.str.26 = private unnamed_addr constant [5 x i8] c"Frob\00", align 1
@.str.27 = private unnamed_addr constant [4 x i8] c"Lob\00", align 1
@_ZL27benchmark_uniq_2_benchmark_ = internal unnamed_addr global ptr null, align 8
@.str.29 = private unnamed_addr constant [20 x i8] c"BM_Counters_Tabular\00", align 1
@dummy98 = hidden local_unnamed_addr global i32 0, align 4
@.str.31 = private unnamed_addr constant [52 x i8] c"\22name\22: \22BM_Counters_Tabular/repeats:2/threads:1\22,$\00", align 1
@.str.32 = private unnamed_addr constant [20 x i8] c"\22family_index\22: 0,$\00", align 1
@.str.33 = private unnamed_addr constant [33 x i8] c"\22per_family_instance_index\22: 0,$\00", align 1
@.str.34 = private unnamed_addr constant [56 x i8] c"\22run_name\22: \22BM_Counters_Tabular/repeats:2/threads:1\22,$\00", align 1
@.str.35 = private unnamed_addr constant [26 x i8] c"\22run_type\22: \22iteration\22,$\00", align 1
@.str.36 = private unnamed_addr constant [19 x i8] c"\22repetitions\22: 2,$\00", align 1
@.str.37 = private unnamed_addr constant [24 x i8] c"\22repetition_index\22: 0,$\00", align 1
@.str.38 = private unnamed_addr constant [15 x i8] c"\22threads\22: 1,$\00", align 1
@.str.39 = private unnamed_addr constant [21 x i8] c"\22iterations\22: %int,$\00", align 1
@.str.40 = private unnamed_addr constant [22 x i8] c"\22real_time\22: %float,$\00", align 1
@.str.41 = private unnamed_addr constant [21 x i8] c"\22cpu_time\22: %float,$\00", align 1
@.str.42 = private unnamed_addr constant [20 x i8] c"\22time_unit\22: \22ns\22,$\00", align 1
@.str.43 = private unnamed_addr constant [16 x i8] c"\22Bar\22: %float,$\00", align 1
@.str.44 = private unnamed_addr constant [16 x i8] c"\22Bat\22: %float,$\00", align 1
@.str.45 = private unnamed_addr constant [16 x i8] c"\22Baz\22: %float,$\00", align 1
@.str.46 = private unnamed_addr constant [16 x i8] c"\22Foo\22: %float,$\00", align 1
@.str.47 = private unnamed_addr constant [17 x i8] c"\22Frob\22: %float,$\00", align 1
@.str.48 = private unnamed_addr constant [15 x i8] c"\22Lob\22: %float$\00", align 1
@dummy119 = hidden local_unnamed_addr global i32 0, align 4
@.str.51 = private unnamed_addr constant [24 x i8] c"\22repetition_index\22: 1,$\00", align 1
@dummy141 = hidden local_unnamed_addr global i32 0, align 4
@.str.53 = private unnamed_addr constant [57 x i8] c"\22name\22: \22BM_Counters_Tabular/repeats:2/threads:1_mean\22,$\00", align 1
@.str.54 = private unnamed_addr constant [26 x i8] c"\22run_type\22: \22aggregate\22,$\00", align 1
@.str.55 = private unnamed_addr constant [27 x i8] c"\22aggregate_name\22: \22mean\22,$\00", align 1
@.str.56 = private unnamed_addr constant [27 x i8] c"\22aggregate_unit\22: \22time\22,$\00", align 1
@dummy163 = hidden local_unnamed_addr global i32 0, align 4
@.str.58 = private unnamed_addr constant [59 x i8] c"\22name\22: \22BM_Counters_Tabular/repeats:2/threads:1_median\22,$\00", align 1
@.str.59 = private unnamed_addr constant [29 x i8] c"\22aggregate_name\22: \22median\22,$\00", align 1
@dummy185 = hidden local_unnamed_addr global i32 0, align 4
@.str.61 = private unnamed_addr constant [59 x i8] c"\22name\22: \22BM_Counters_Tabular/repeats:2/threads:1_stddev\22,$\00", align 1
@.str.62 = private unnamed_addr constant [29 x i8] c"\22aggregate_name\22: \22stddev\22,$\00", align 1
@dummy207 = hidden local_unnamed_addr global i32 0, align 4
@.str.64 = private unnamed_addr constant [55 x i8] c"\22name\22: \22BM_Counters_Tabular/repeats:2/threads:1_cv\22,$\00", align 1
@.str.65 = private unnamed_addr constant [25 x i8] c"\22aggregate_name\22: \22cv\22,$\00", align 1
@.str.66 = private unnamed_addr constant [33 x i8] c"\22aggregate_unit\22: \22percentage\22,$\00", align 1
@dummy229 = hidden local_unnamed_addr global i32 0, align 4
@.str.68 = private unnamed_addr constant [52 x i8] c"\22name\22: \22BM_Counters_Tabular/repeats:2/threads:2\22,$\00", align 1
@.str.69 = private unnamed_addr constant [33 x i8] c"\22per_family_instance_index\22: 1,$\00", align 1
@.str.70 = private unnamed_addr constant [56 x i8] c"\22run_name\22: \22BM_Counters_Tabular/repeats:2/threads:2\22,$\00", align 1
@.str.71 = private unnamed_addr constant [15 x i8] c"\22threads\22: 2,$\00", align 1
@dummy250 = hidden local_unnamed_addr global i32 0, align 4
@dummy272 = hidden local_unnamed_addr global i32 0, align 4
@.str.74 = private unnamed_addr constant [59 x i8] c"\22name\22: \22BM_Counters_Tabular/repeats:2/threads:2_median\22,$\00", align 1
@dummy294 = hidden local_unnamed_addr global i32 0, align 4
@.str.76 = private unnamed_addr constant [59 x i8] c"\22name\22: \22BM_Counters_Tabular/repeats:2/threads:2_stddev\22,$\00", align 1
@dummy316 = hidden local_unnamed_addr global i32 0, align 4
@.str.78 = private unnamed_addr constant [55 x i8] c"\22name\22: \22BM_Counters_Tabular/repeats:2/threads:2_cv\22,$\00", align 1
@dummy319 = hidden local_unnamed_addr global i32 0, align 4
@.str.80 = private unnamed_addr constant [98 x i8] c"^\22BM_Counters_Tabular/repeats:2/threads:1\22,%csv_report,%float,%float,%float,%float,%float,%float$\00", align 1
@dummy322 = hidden local_unnamed_addr global i32 0, align 4
@dummy325 = hidden local_unnamed_addr global i32 0, align 4
@.str.83 = private unnamed_addr constant [103 x i8] c"^\22BM_Counters_Tabular/repeats:2/threads:1_mean\22,%csv_report,%float,%float,%float,%float,%float,%float$\00", align 1
@dummy328 = hidden local_unnamed_addr global i32 0, align 4
@.str.85 = private unnamed_addr constant [105 x i8] c"^\22BM_Counters_Tabular/repeats:2/threads:1_median\22,%csv_report,%float,%float,%float,%float,%float,%float$\00", align 1
@dummy331 = hidden local_unnamed_addr global i32 0, align 4
@.str.87 = private unnamed_addr constant [105 x i8] c"^\22BM_Counters_Tabular/repeats:2/threads:1_stddev\22,%csv_report,%float,%float,%float,%float,%float,%float$\00", align 1
@dummy334 = hidden local_unnamed_addr global i32 0, align 4
@.str.89 = private unnamed_addr constant [101 x i8] c"^\22BM_Counters_Tabular/repeats:2/threads:1_cv\22,%csv_report,%float,%float,%float,%float,%float,%float$\00", align 1
@dummy337 = hidden local_unnamed_addr global i32 0, align 4
@.str.91 = private unnamed_addr constant [98 x i8] c"^\22BM_Counters_Tabular/repeats:2/threads:2\22,%csv_report,%float,%float,%float,%float,%float,%float$\00", align 1
@dummy340 = hidden local_unnamed_addr global i32 0, align 4
@dummy343 = hidden local_unnamed_addr global i32 0, align 4
@.str.94 = private unnamed_addr constant [103 x i8] c"^\22BM_Counters_Tabular/repeats:2/threads:2_mean\22,%csv_report,%float,%float,%float,%float,%float,%float$\00", align 1
@dummy346 = hidden local_unnamed_addr global i32 0, align 4
@.str.96 = private unnamed_addr constant [105 x i8] c"^\22BM_Counters_Tabular/repeats:2/threads:2_median\22,%csv_report,%float,%float,%float,%float,%float,%float$\00", align 1
@dummy349 = hidden local_unnamed_addr global i32 0, align 4
@.str.98 = private unnamed_addr constant [105 x i8] c"^\22BM_Counters_Tabular/repeats:2/threads:2_stddev\22,%csv_report,%float,%float,%float,%float,%float,%float$\00", align 1
@dummy352 = hidden local_unnamed_addr global i32 0, align 4
@.str.100 = private unnamed_addr constant [101 x i8] c"^\22BM_Counters_Tabular/repeats:2/threads:2_cv\22,%csv_report,%float,%float,%float,%float,%float,%float$\00", align 1
@.str.101 = private unnamed_addr constant [40 x i8] c"(e.GetCounterAs< int >(\22Foo\22)) == ((1))\00", align 1
@.str.102 = private unnamed_addr constant [115 x i8] c"/usr/local/google/home/aeubanks/repos/test-suite/MicroBenchmarks/libs/benchmark/test/user_counters_tabular_test.cc\00", align 1
@__func__._Z12CheckTabularRK7Results = private unnamed_addr constant [13 x i8] c"CheckTabular\00", align 1
@.str.103 = private unnamed_addr constant [2 x i8] c"\0A\00", align 1
@.str.104 = private unnamed_addr constant [2 x i8] c":\00", align 1
@.str.105 = private unnamed_addr constant [3 x i8] c": \00", align 1
@.str.106 = private unnamed_addr constant [3 x i8] c":\0A\00", align 1
@.str.107 = private unnamed_addr constant [11 x i8] c"expected (\00", align 1
@.str.108 = private unnamed_addr constant [4 x i8] c"int\00", align 1
@.str.109 = private unnamed_addr constant [2 x i8] c")\00", align 1
@.str.110 = private unnamed_addr constant [2 x i8] c"=\00", align 1
@.str.111 = private unnamed_addr constant [14 x i8] c" to be EQ to \00", align 1
@.str.112 = private unnamed_addr constant [40 x i8] c"(e.GetCounterAs< int >(\22Bar\22)) == ((2))\00", align 1
@.str.113 = private unnamed_addr constant [40 x i8] c"(e.GetCounterAs< int >(\22Baz\22)) == ((4))\00", align 1
@.str.114 = private unnamed_addr constant [40 x i8] c"(e.GetCounterAs< int >(\22Bat\22)) == ((8))\00", align 1
@.str.115 = private unnamed_addr constant [42 x i8] c"(e.GetCounterAs< int >(\22Frob\22)) == ((16))\00", align 1
@.str.116 = private unnamed_addr constant [41 x i8] c"(e.GetCounterAs< int >(\22Lob\22)) == ((32))\00", align 1
@dummy364 = hidden local_unnamed_addr global i64 0, align 8
@.str.118 = private unnamed_addr constant [41 x i8] c"BM_Counters_Tabular/repeats:2/threads:1$\00", align 1
@dummy366 = hidden local_unnamed_addr global i64 0, align 8
@.str.120 = private unnamed_addr constant [41 x i8] c"BM_Counters_Tabular/repeats:2/threads:2$\00", align 1
@_ZL27benchmark_uniq_3_benchmark_ = internal unnamed_addr global ptr null, align 8
@.str.122 = private unnamed_addr constant [24 x i8] c"BM_CounterRates_Tabular\00", align 1
@dummy408 = hidden local_unnamed_addr global i32 0, align 4
@.str.124 = private unnamed_addr constant [49 x i8] c"\22name\22: \22BM_CounterRates_Tabular/threads:%int\22,$\00", align 1
@.str.125 = private unnamed_addr constant [20 x i8] c"\22family_index\22: 1,$\00", align 1
@.str.126 = private unnamed_addr constant [53 x i8] c"\22run_name\22: \22BM_CounterRates_Tabular/threads:%int\22,$\00", align 1
@.str.127 = private unnamed_addr constant [19 x i8] c"\22repetitions\22: 1,$\00", align 1
@dummy410 = hidden local_unnamed_addr global i32 0, align 4
@.str.129 = private unnamed_addr constant [95 x i8] c"^\22BM_CounterRates_Tabular/threads:%int\22,%csv_report,%float,%float,%float,%float,%float,%float$\00", align 1
@.str.130 = private unnamed_addr constant [81 x i8] c"std::fabs((e.GetCounterAs< double >(\22Foo\22)) - ((1. / t))) < ((0.001) * (1. / t))\00", align 1
@__func__._Z16CheckTabularRateRK7Results = private unnamed_addr constant [17 x i8] c"CheckTabularRate\00", align 1
@.str.131 = private unnamed_addr constant [7 x i8] c"double\00", align 1
@.str.132 = private unnamed_addr constant [19 x i8] c"with tolerance of \00", align 1
@.str.133 = private unnamed_addr constant [3 x i8] c" (\00", align 1
@.str.134 = private unnamed_addr constant [5 x i8] c"%), \00", align 1
@.str.135 = private unnamed_addr constant [15 x i8] c"but delta was \00", align 1
@.str.136 = private unnamed_addr constant [3 x i8] c"%)\00", align 1
@.str.137 = private unnamed_addr constant [81 x i8] c"std::fabs((e.GetCounterAs< double >(\22Bar\22)) - ((2. / t))) < ((0.001) * (2. / t))\00", align 1
@.str.138 = private unnamed_addr constant [81 x i8] c"std::fabs((e.GetCounterAs< double >(\22Baz\22)) - ((4. / t))) < ((0.001) * (4. / t))\00", align 1
@.str.139 = private unnamed_addr constant [81 x i8] c"std::fabs((e.GetCounterAs< double >(\22Bat\22)) - ((8. / t))) < ((0.001) * (8. / t))\00", align 1
@.str.140 = private unnamed_addr constant [84 x i8] c"std::fabs((e.GetCounterAs< double >(\22Frob\22)) - ((16. / t))) < ((0.001) * (16. / t))\00", align 1
@.str.141 = private unnamed_addr constant [83 x i8] c"std::fabs((e.GetCounterAs< double >(\22Lob\22)) - ((32. / t))) < ((0.001) * (32. / t))\00", align 1
@dummy423 = hidden local_unnamed_addr global i64 0, align 8
@.str.143 = private unnamed_addr constant [37 x i8] c"BM_CounterRates_Tabular/threads:%int\00", align 1
@_ZL27benchmark_uniq_4_benchmark_ = internal unnamed_addr global ptr null, align 8
@.str.145 = private unnamed_addr constant [23 x i8] c"BM_CounterSet0_Tabular\00", align 1
@dummy457 = hidden local_unnamed_addr global i32 0, align 4
@.str.147 = private unnamed_addr constant [48 x i8] c"\22name\22: \22BM_CounterSet0_Tabular/threads:%int\22,$\00", align 1
@.str.148 = private unnamed_addr constant [20 x i8] c"\22family_index\22: 2,$\00", align 1
@.str.149 = private unnamed_addr constant [52 x i8] c"\22run_name\22: \22BM_CounterSet0_Tabular/threads:%int\22,$\00", align 1
@.str.150 = private unnamed_addr constant [15 x i8] c"\22Foo\22: %float$\00", align 1
@dummy459 = hidden local_unnamed_addr global i32 0, align 4
@.str.152 = private unnamed_addr constant [75 x i8] c"^\22BM_CounterSet0_Tabular/threads:%int\22,%csv_report,%float,,%float,%float,,\00", align 1
@.str.153 = private unnamed_addr constant [41 x i8] c"(e.GetCounterAs< int >(\22Foo\22)) == ((10))\00", align 1
@__func__._Z9CheckSet0RK7Results = private unnamed_addr constant [10 x i8] c"CheckSet0\00", align 1
@.str.154 = private unnamed_addr constant [41 x i8] c"(e.GetCounterAs< int >(\22Bar\22)) == ((20))\00", align 1
@.str.155 = private unnamed_addr constant [41 x i8] c"(e.GetCounterAs< int >(\22Baz\22)) == ((40))\00", align 1
@dummy467 = hidden local_unnamed_addr global i64 0, align 8
@_ZL27benchmark_uniq_5_benchmark_ = internal unnamed_addr global ptr null, align 8
@.str.158 = private unnamed_addr constant [23 x i8] c"BM_CounterSet1_Tabular\00", align 1
@dummy497 = hidden local_unnamed_addr global i32 0, align 4
@.str.160 = private unnamed_addr constant [48 x i8] c"\22name\22: \22BM_CounterSet1_Tabular/threads:%int\22,$\00", align 1
@.str.161 = private unnamed_addr constant [20 x i8] c"\22family_index\22: 3,$\00", align 1
@.str.162 = private unnamed_addr constant [52 x i8] c"\22run_name\22: \22BM_CounterSet1_Tabular/threads:%int\22,$\00", align 1
@dummy499 = hidden local_unnamed_addr global i32 0, align 4
@.str.164 = private unnamed_addr constant [75 x i8] c"^\22BM_CounterSet1_Tabular/threads:%int\22,%csv_report,%float,,%float,%float,,\00", align 1
@.str.165 = private unnamed_addr constant [41 x i8] c"(e.GetCounterAs< int >(\22Foo\22)) == ((15))\00", align 1
@__func__._Z9CheckSet1RK7Results = private unnamed_addr constant [10 x i8] c"CheckSet1\00", align 1
@.str.166 = private unnamed_addr constant [41 x i8] c"(e.GetCounterAs< int >(\22Bar\22)) == ((25))\00", align 1
@.str.167 = private unnamed_addr constant [41 x i8] c"(e.GetCounterAs< int >(\22Baz\22)) == ((45))\00", align 1
@dummy507 = hidden local_unnamed_addr global i64 0, align 8
@.str.169 = private unnamed_addr constant [36 x i8] c"BM_CounterSet1_Tabular/threads:%int\00", align 1
@_ZL27benchmark_uniq_6_benchmark_ = internal unnamed_addr global ptr null, align 8
@.str.171 = private unnamed_addr constant [23 x i8] c"BM_CounterSet2_Tabular\00", align 1
@dummy541 = hidden local_unnamed_addr global i32 0, align 4
@.str.173 = private unnamed_addr constant [48 x i8] c"\22name\22: \22BM_CounterSet2_Tabular/threads:%int\22,$\00", align 1
@.str.174 = private unnamed_addr constant [20 x i8] c"\22family_index\22: 4,$\00", align 1
@.str.175 = private unnamed_addr constant [52 x i8] c"\22run_name\22: \22BM_CounterSet2_Tabular/threads:%int\22,$\00", align 1
@dummy543 = hidden local_unnamed_addr global i32 0, align 4
@.str.177 = private unnamed_addr constant [75 x i8] c"^\22BM_CounterSet2_Tabular/threads:%int\22,%csv_report,,%float,%float,%float,,\00", align 1
@__func__._Z9CheckSet2RK7Results = private unnamed_addr constant [10 x i8] c"CheckSet2\00", align 1
@.str.178 = private unnamed_addr constant [41 x i8] c"(e.GetCounterAs< int >(\22Bat\22)) == ((30))\00", align 1
@dummy551 = hidden local_unnamed_addr global i64 0, align 8
@__libc_single_threaded = external local_unnamed_addr global i8, align 1
@_ZTVN9benchmark8internal17FunctionBenchmarkE = external unnamed_addr constant { [5 x ptr] }, align 8
@_ZZN9benchmark8internal18GetNullLogInstanceEvE3log = linkonce_odr hidden local_unnamed_addr global %"class.benchmark::internal::LogType" zeroinitializer, comdat, align 8
@_ZGVZN9benchmark8internal18GetNullLogInstanceEvE3log = linkonce_odr hidden global i64 0, comdat, align 8
@.str.182 = private unnamed_addr constant [10 x i8] c": Check `\00", align 1
@.str.183 = private unnamed_addr constant [11 x i8] c"' failed. \00", align 1
@_ZZN9benchmark8internal19GetErrorLogInstanceEvE3log = linkonce_odr hidden global %"class.benchmark::internal::LogType" zeroinitializer, comdat, align 8
@_ZGVZN9benchmark8internal19GetErrorLogInstanceEvE3log = linkonce_odr hidden global i64 0, comdat, align 8
@_ZSt4clog = external global %"class.std::basic_ostream", align 8
@.str.184 = private unnamed_addr constant [50 x i8] c"basic_string: construction from null is not valid\00", align 1
@.str.185 = private unnamed_addr constant [30 x i8] c"sv != nullptr && !sv->empty()\00", align 1
@.str.186 = private unnamed_addr constant [99 x i8] c"/usr/local/google/home/aeubanks/repos/test-suite/MicroBenchmarks/libs/benchmark/test/output_test.h\00", align 1
@__func__._ZNK7Results5GetAsIdEET_PKc = private unnamed_addr constant [6 x i8] c"GetAs\00", align 1
@.str.187 = private unnamed_addr constant [11 x i8] c"!ss.fail()\00", align 1
@_ZTTNSt7__cxx1118basic_stringstreamIcSt11char_traitsIcESaIcEEE = external unnamed_addr constant [10 x ptr], align 8
@_ZTVNSt7__cxx1115basic_stringbufIcSt11char_traitsIcESaIcEEE = external unnamed_addr constant { [16 x ptr] }, align 8
@_ZTVSt15basic_streambufIcSt11char_traitsIcEE = external unnamed_addr constant { [16 x ptr] }, align 8
@_ZTVN10__cxxabiv119__pointer_type_infoE = external global ptr
@_ZTSPFvRK7ResultsE = linkonce_odr hidden constant [15 x i8] c"PFvRK7ResultsE\00", comdat, align 1
@_ZTVN10__cxxabiv120__function_type_infoE = external global ptr
@_ZTSFvRK7ResultsE = linkonce_odr hidden constant [14 x i8] c"FvRK7ResultsE\00", comdat, align 1
@_ZTIFvRK7ResultsE = linkonce_odr hidden constant { ptr, ptr } { ptr getelementptr inbounds (ptr, ptr @_ZTVN10__cxxabiv120__function_type_infoE, i64 2), ptr @_ZTSFvRK7ResultsE }, comdat, align 8
@_ZTIPFvRK7ResultsE = linkonce_odr hidden constant { ptr, ptr, i32, ptr } { ptr getelementptr inbounds (ptr, ptr @_ZTVN10__cxxabiv119__pointer_type_infoE, i64 2), ptr @_ZTSPFvRK7ResultsE, i32 0, ptr @_ZTIFvRK7ResultsE }, comdat, align 8
@llvm.global_ctors = appending global [1 x { i32, ptr, ptr }] [{ i32, ptr, ptr } { i32 65535, ptr @_GLOBAL__sub_I_user_counters_tabular_test.cc, ptr null }]

declare noundef i32 @_ZN9benchmark8internal17InitializeStreamsEv() local_unnamed_addr #0

declare void @_ZNSt8ios_base4InitC1Ev(ptr noundef nonnull align 1 dereferenceable(1)) unnamed_addr #0

; Function Attrs: nounwind
declare void @_ZNSt8ios_base4InitD1Ev(ptr noundef nonnull align 1 dereferenceable(1)) unnamed_addr #1

; Function Attrs: nofree nounwind
declare i32 @__cxa_atexit(ptr, ptr, ptr) local_unnamed_addr #2

declare noundef i32 @_Z8AddCases10TestCaseIDSt16initializer_listI8TestCaseE(i32 noundef, ptr, i64) local_unnamed_addr #0

; Function Attrs: mustprogress nocallback nofree nosync nounwind willreturn memory(argmem: readwrite)
declare void @llvm.lifetime.start.p0(i64 immarg, ptr nocapture) #3

declare i32 @__gxx_personality_v0(...)

declare void @_ZN8TestCaseC1ENSt7__cxx1112basic_stringIcSt11char_traitsIcESaIcEEEi(ptr noundef nonnull align 8 dereferenceable(88), ptr noundef, i32 noundef) unnamed_addr #0

; Function Attrs: mustprogress nocallback nofree nosync nounwind willreturn memory(argmem: readwrite)
declare void @llvm.lifetime.end.p0(i64 immarg, ptr nocapture) #3

; Function Attrs: uwtable
define hidden void @_Z19BM_Counters_TabularRN9benchmark5StateE(ptr noundef nonnull align 8 dereferenceable(144) %state) #4 personality ptr @__gxx_personality_v0 {
invoke.cont53:
  %__an.i.i.i = alloca %"struct.std::_Rb_tree<std::__cxx11::basic_string<char>, std::pair<const std::__cxx11::basic_string<char>, benchmark::Counter>, std::_Select1st<std::pair<const std::__cxx11::basic_string<char>, benchmark::Counter>>, std::less<std::__cxx11::basic_string<char>>>::_Alloc_node", align 8
  %ref.tmp = alloca [6 x %"struct.std::pair"], align 8
  %ref.tmp4 = alloca %"class.std::__cxx11::basic_string", align 8
  %ref.tmp10 = alloca %"class.std::__cxx11::basic_string", align 8
  %ref.tmp19 = alloca %"class.std::__cxx11::basic_string", align 8
  %ref.tmp28 = alloca %"class.std::__cxx11::basic_string", align 8
  %ref.tmp37 = alloca %"class.std::__cxx11::basic_string", align 8
  %ref.tmp46 = alloca %"class.std::__cxx11::basic_string", align 8
  tail call void @_ZN9benchmark5State16StartKeepRunningEv(ptr noundef nonnull align 8 dereferenceable(144) %state)
  tail call void @_ZN9benchmark5State17FinishKeepRunningEv(ptr noundef nonnull align 8 dereferenceable(144) %state)
  %counters = getelementptr inbounds %"class.benchmark::State", ptr %state, i64 0, i32 8
  call void @llvm.lifetime.start.p0(i64 288, ptr nonnull %ref.tmp) #21
  call void @llvm.lifetime.start.p0(i64 32, ptr nonnull %ref.tmp4) #21
  %0 = getelementptr inbounds %"class.std::__cxx11::basic_string", ptr %ref.tmp4, i64 0, i32 2
  store ptr %0, ptr %ref.tmp4, align 8, !tbaa !5
  call void @llvm.memcpy.p0.p0.i64(ptr noundef nonnull align 8 dereferenceable(3) %0, ptr noundef nonnull align 1 dereferenceable(3) @.str.22, i64 3, i1 false)
  %_M_string_length.i.i.i.i = getelementptr inbounds %"class.std::__cxx11::basic_string", ptr %ref.tmp4, i64 0, i32 1
  store i64 3, ptr %_M_string_length.i.i.i.i, align 8, !tbaa !10
  %arrayidx.i.i.i = getelementptr inbounds i8, ptr %ref.tmp4, i64 19
  store i8 0, ptr %arrayidx.i.i.i, align 1, !tbaa !13
  %1 = getelementptr inbounds %"class.std::__cxx11::basic_string", ptr %ref.tmp, i64 0, i32 2
  store ptr %1, ptr %ref.tmp, align 8, !tbaa !5
  call void @llvm.memcpy.p0.p0.i64(ptr noundef nonnull align 8 dereferenceable(3) %1, ptr noundef nonnull align 1 dereferenceable(3) @.str.22, i64 3, i1 false)
  %_M_string_length.i.i.i.i.i = getelementptr inbounds %"class.std::__cxx11::basic_string", ptr %ref.tmp, i64 0, i32 1
  store i64 3, ptr %_M_string_length.i.i.i.i.i, align 8, !tbaa !10
  %arrayidx.i.i.i.i = getelementptr inbounds i8, ptr %ref.tmp, i64 19
  store i8 0, ptr %arrayidx.i.i.i.i, align 1, !tbaa !13
  %second.i = getelementptr inbounds %"struct.std::pair", ptr %ref.tmp, i64 0, i32 1
  store double 1.000000e+00, ptr %second.i, align 8, !tbaa.struct !14
  %ref.tmp6.sroa.5.0.second.i.sroa_idx = getelementptr inbounds %"struct.std::pair", ptr %ref.tmp, i64 0, i32 1, i32 1
  store i32 2, ptr %ref.tmp6.sroa.5.0.second.i.sroa_idx, align 8, !tbaa.struct !21
  %ref.tmp6.sroa.6.0.second.i.sroa_idx = getelementptr inbounds %"struct.std::pair", ptr %ref.tmp, i64 0, i32 1, i32 2
  store i32 1000, ptr %ref.tmp6.sroa.6.0.second.i.sroa_idx, align 4, !tbaa.struct !22
  %arrayinit.element = getelementptr inbounds %"struct.std::pair", ptr %ref.tmp, i64 1
  call void @llvm.lifetime.start.p0(i64 32, ptr nonnull %ref.tmp10) #21
  %2 = getelementptr inbounds %"class.std::__cxx11::basic_string", ptr %ref.tmp10, i64 0, i32 2
  store ptr %2, ptr %ref.tmp10, align 8, !tbaa !5
  call void @llvm.memcpy.p0.p0.i64(ptr noundef nonnull align 8 dereferenceable(3) %2, ptr noundef nonnull align 1 dereferenceable(3) @.str.23, i64 3, i1 false)
  %_M_string_length.i.i.i.i136 = getelementptr inbounds %"class.std::__cxx11::basic_string", ptr %ref.tmp10, i64 0, i32 1
  store i64 3, ptr %_M_string_length.i.i.i.i136, align 8, !tbaa !10
  %arrayidx.i.i.i137 = getelementptr inbounds i8, ptr %ref.tmp10, i64 19
  store i8 0, ptr %arrayidx.i.i.i137, align 1, !tbaa !13
  %3 = getelementptr inbounds %"struct.std::pair", ptr %ref.tmp, i64 1, i32 0, i32 2
  store ptr %3, ptr %arrayinit.element, align 8, !tbaa !5
  call void @llvm.memcpy.p0.p0.i64(ptr noundef nonnull align 8 dereferenceable(3) %3, ptr noundef nonnull align 1 dereferenceable(3) @.str.23, i64 3, i1 false)
  %_M_string_length.i.i.i.i.i148 = getelementptr inbounds %"struct.std::pair", ptr %ref.tmp, i64 1, i32 0, i32 1
  store i64 3, ptr %_M_string_length.i.i.i.i.i148, align 8, !tbaa !10
  %arrayidx.i.i.i.i149 = getelementptr inbounds i8, ptr %ref.tmp, i64 67
  store i8 0, ptr %arrayidx.i.i.i.i149, align 1, !tbaa !13
  %second.i150 = getelementptr inbounds %"struct.std::pair", ptr %ref.tmp, i64 1, i32 1
  store double 2.000000e+00, ptr %second.i150, align 8, !tbaa.struct !14
  %ref.tmp14.sroa.5.0.second.i150.sroa_idx = getelementptr inbounds %"struct.std::pair", ptr %ref.tmp, i64 1, i32 1, i32 1
  store i32 2, ptr %ref.tmp14.sroa.5.0.second.i150.sroa_idx, align 8, !tbaa.struct !21
  %ref.tmp14.sroa.6.0.second.i150.sroa_idx = getelementptr inbounds %"struct.std::pair", ptr %ref.tmp, i64 1, i32 1, i32 2
  store i32 1000, ptr %ref.tmp14.sroa.6.0.second.i150.sroa_idx, align 4, !tbaa.struct !22
  %arrayinit.element18 = getelementptr inbounds %"struct.std::pair", ptr %ref.tmp, i64 2
  call void @llvm.lifetime.start.p0(i64 32, ptr nonnull %ref.tmp19) #21
  %4 = getelementptr inbounds %"class.std::__cxx11::basic_string", ptr %ref.tmp19, i64 0, i32 2
  store ptr %4, ptr %ref.tmp19, align 8, !tbaa !5
  call void @llvm.memcpy.p0.p0.i64(ptr noundef nonnull align 8 dereferenceable(3) %4, ptr noundef nonnull align 1 dereferenceable(3) @.str.24, i64 3, i1 false)
  %_M_string_length.i.i.i.i162 = getelementptr inbounds %"class.std::__cxx11::basic_string", ptr %ref.tmp19, i64 0, i32 1
  store i64 3, ptr %_M_string_length.i.i.i.i162, align 8, !tbaa !10
  %arrayidx.i.i.i163 = getelementptr inbounds i8, ptr %ref.tmp19, i64 19
  store i8 0, ptr %arrayidx.i.i.i163, align 1, !tbaa !13
  %5 = getelementptr inbounds %"struct.std::pair", ptr %ref.tmp, i64 2, i32 0, i32 2
  store ptr %5, ptr %arrayinit.element18, align 8, !tbaa !5
  call void @llvm.memcpy.p0.p0.i64(ptr noundef nonnull align 8 dereferenceable(3) %5, ptr noundef nonnull align 1 dereferenceable(3) @.str.24, i64 3, i1 false)
  %_M_string_length.i.i.i.i.i174 = getelementptr inbounds %"struct.std::pair", ptr %ref.tmp, i64 2, i32 0, i32 1
  store i64 3, ptr %_M_string_length.i.i.i.i.i174, align 8, !tbaa !10
  %arrayidx.i.i.i.i175 = getelementptr inbounds i8, ptr %ref.tmp, i64 115
  store i8 0, ptr %arrayidx.i.i.i.i175, align 1, !tbaa !13
  %second.i176 = getelementptr inbounds %"struct.std::pair", ptr %ref.tmp, i64 2, i32 1
  store double 4.000000e+00, ptr %second.i176, align 8, !tbaa.struct !14
  %ref.tmp23.sroa.5.0.second.i176.sroa_idx = getelementptr inbounds %"struct.std::pair", ptr %ref.tmp, i64 2, i32 1, i32 1
  store i32 2, ptr %ref.tmp23.sroa.5.0.second.i176.sroa_idx, align 8, !tbaa.struct !21
  %ref.tmp23.sroa.6.0.second.i176.sroa_idx = getelementptr inbounds %"struct.std::pair", ptr %ref.tmp, i64 2, i32 1, i32 2
  store i32 1000, ptr %ref.tmp23.sroa.6.0.second.i176.sroa_idx, align 4, !tbaa.struct !22
  %arrayinit.element27 = getelementptr inbounds %"struct.std::pair", ptr %ref.tmp, i64 3
  call void @llvm.lifetime.start.p0(i64 32, ptr nonnull %ref.tmp28) #21
  %6 = getelementptr inbounds %"class.std::__cxx11::basic_string", ptr %ref.tmp28, i64 0, i32 2
  store ptr %6, ptr %ref.tmp28, align 8, !tbaa !5
  call void @llvm.memcpy.p0.p0.i64(ptr noundef nonnull align 8 dereferenceable(3) %6, ptr noundef nonnull align 1 dereferenceable(3) @.str.25, i64 3, i1 false)
  %_M_string_length.i.i.i.i188 = getelementptr inbounds %"class.std::__cxx11::basic_string", ptr %ref.tmp28, i64 0, i32 1
  store i64 3, ptr %_M_string_length.i.i.i.i188, align 8, !tbaa !10
  %arrayidx.i.i.i189 = getelementptr inbounds i8, ptr %ref.tmp28, i64 19
  store i8 0, ptr %arrayidx.i.i.i189, align 1, !tbaa !13
  %7 = getelementptr inbounds %"struct.std::pair", ptr %ref.tmp, i64 3, i32 0, i32 2
  store ptr %7, ptr %arrayinit.element27, align 8, !tbaa !5
  call void @llvm.memcpy.p0.p0.i64(ptr noundef nonnull align 8 dereferenceable(3) %7, ptr noundef nonnull align 1 dereferenceable(3) @.str.25, i64 3, i1 false)
  %_M_string_length.i.i.i.i.i200 = getelementptr inbounds %"struct.std::pair", ptr %ref.tmp, i64 3, i32 0, i32 1
  store i64 3, ptr %_M_string_length.i.i.i.i.i200, align 8, !tbaa !10
  %arrayidx.i.i.i.i201 = getelementptr inbounds i8, ptr %ref.tmp, i64 163
  store i8 0, ptr %arrayidx.i.i.i.i201, align 1, !tbaa !13
  %second.i202 = getelementptr inbounds %"struct.std::pair", ptr %ref.tmp, i64 3, i32 1
  store double 8.000000e+00, ptr %second.i202, align 8, !tbaa.struct !14
  %ref.tmp32.sroa.5.0.second.i202.sroa_idx = getelementptr inbounds %"struct.std::pair", ptr %ref.tmp, i64 3, i32 1, i32 1
  store i32 2, ptr %ref.tmp32.sroa.5.0.second.i202.sroa_idx, align 8, !tbaa.struct !21
  %ref.tmp32.sroa.6.0.second.i202.sroa_idx = getelementptr inbounds %"struct.std::pair", ptr %ref.tmp, i64 3, i32 1, i32 2
  store i32 1000, ptr %ref.tmp32.sroa.6.0.second.i202.sroa_idx, align 4, !tbaa.struct !22
  %arrayinit.element36 = getelementptr inbounds %"struct.std::pair", ptr %ref.tmp, i64 4
  call void @llvm.lifetime.start.p0(i64 32, ptr nonnull %ref.tmp37) #21
  %8 = getelementptr inbounds %"class.std::__cxx11::basic_string", ptr %ref.tmp37, i64 0, i32 2
  store ptr %8, ptr %ref.tmp37, align 8, !tbaa !5
  store i32 1651470918, ptr %8, align 8
  %_M_string_length.i.i.i.i214 = getelementptr inbounds %"class.std::__cxx11::basic_string", ptr %ref.tmp37, i64 0, i32 1
  store i64 4, ptr %_M_string_length.i.i.i.i214, align 8, !tbaa !10
  %arrayidx.i.i.i215 = getelementptr inbounds i8, ptr %ref.tmp37, i64 20
  store i8 0, ptr %arrayidx.i.i.i215, align 4, !tbaa !13
  %9 = getelementptr inbounds %"struct.std::pair", ptr %ref.tmp, i64 4, i32 0, i32 2
  store ptr %9, ptr %arrayinit.element36, align 8, !tbaa !5
  store i32 1651470918, ptr %9, align 8
  %_M_string_length.i.i.i.i.i226 = getelementptr inbounds %"struct.std::pair", ptr %ref.tmp, i64 4, i32 0, i32 1
  store i64 4, ptr %_M_string_length.i.i.i.i.i226, align 8, !tbaa !10
  %arrayidx.i.i.i.i227 = getelementptr inbounds i8, ptr %ref.tmp, i64 212
  store i8 0, ptr %arrayidx.i.i.i.i227, align 4, !tbaa !13
  %second.i228 = getelementptr inbounds %"struct.std::pair", ptr %ref.tmp, i64 4, i32 1
  store double 1.600000e+01, ptr %second.i228, align 8, !tbaa.struct !14
  %ref.tmp41.sroa.5.0.second.i228.sroa_idx = getelementptr inbounds %"struct.std::pair", ptr %ref.tmp, i64 4, i32 1, i32 1
  store i32 2, ptr %ref.tmp41.sroa.5.0.second.i228.sroa_idx, align 8, !tbaa.struct !21
  %ref.tmp41.sroa.6.0.second.i228.sroa_idx = getelementptr inbounds %"struct.std::pair", ptr %ref.tmp, i64 4, i32 1, i32 2
  store i32 1000, ptr %ref.tmp41.sroa.6.0.second.i228.sroa_idx, align 4, !tbaa.struct !22
  %arrayinit.element45 = getelementptr inbounds %"struct.std::pair", ptr %ref.tmp, i64 5
  call void @llvm.lifetime.start.p0(i64 32, ptr nonnull %ref.tmp46) #21
  %10 = getelementptr inbounds %"class.std::__cxx11::basic_string", ptr %ref.tmp46, i64 0, i32 2
  store ptr %10, ptr %ref.tmp46, align 8, !tbaa !5
  call void @llvm.memcpy.p0.p0.i64(ptr noundef nonnull align 8 dereferenceable(3) %10, ptr noundef nonnull align 1 dereferenceable(3) @.str.27, i64 3, i1 false)
  %_M_string_length.i.i.i.i240 = getelementptr inbounds %"class.std::__cxx11::basic_string", ptr %ref.tmp46, i64 0, i32 1
  store i64 3, ptr %_M_string_length.i.i.i.i240, align 8, !tbaa !10
  %arrayidx.i.i.i241 = getelementptr inbounds i8, ptr %ref.tmp46, i64 19
  store i8 0, ptr %arrayidx.i.i.i241, align 1, !tbaa !13
  %11 = getelementptr inbounds %"struct.std::pair", ptr %ref.tmp, i64 5, i32 0, i32 2
  store ptr %11, ptr %arrayinit.element45, align 8, !tbaa !5
  call void @llvm.memcpy.p0.p0.i64(ptr noundef nonnull align 8 dereferenceable(3) %11, ptr noundef nonnull align 1 dereferenceable(3) @.str.27, i64 3, i1 false)
  %_M_string_length.i.i.i.i.i252 = getelementptr inbounds %"struct.std::pair", ptr %ref.tmp, i64 5, i32 0, i32 1
  store i64 3, ptr %_M_string_length.i.i.i.i.i252, align 8, !tbaa !10
  %arrayidx.i.i.i.i253 = getelementptr inbounds i8, ptr %ref.tmp, i64 259
  store i8 0, ptr %arrayidx.i.i.i.i253, align 1, !tbaa !13
  %second.i254 = getelementptr inbounds %"struct.std::pair", ptr %ref.tmp, i64 5, i32 1
  store double 3.200000e+01, ptr %second.i254, align 8, !tbaa.struct !14
  %ref.tmp50.sroa.5.0.second.i254.sroa_idx = getelementptr inbounds %"struct.std::pair", ptr %ref.tmp, i64 5, i32 1, i32 1
  store i32 2, ptr %ref.tmp50.sroa.5.0.second.i254.sroa_idx, align 8, !tbaa.struct !21
  %ref.tmp50.sroa.6.0.second.i254.sroa_idx = getelementptr inbounds %"struct.std::pair", ptr %ref.tmp, i64 5, i32 1, i32 2
  store i32 1000, ptr %ref.tmp50.sroa.6.0.second.i254.sroa_idx, align 4, !tbaa.struct !22
  call void @llvm.lifetime.start.p0(i64 8, ptr nonnull %__an.i.i.i) #21
  store ptr %counters, ptr %__an.i.i.i, align 8, !tbaa !23
  %add.ptr.i.i.i.i = getelementptr inbounds %"class.benchmark::State", ptr %state, i64 0, i32 8, i32 0, i32 0, i32 1
  %call3.i.i.i258 = invoke ptr @_ZNSt8_Rb_treeINSt7__cxx1112basic_stringIcSt11char_traitsIcESaIcEEESt4pairIKS5_N9benchmark7CounterEESt10_Select1stISA_ESt4lessIS5_ESaISA_EE17_M_insert_unique_IRKSA_NSG_11_Alloc_nodeEEESt17_Rb_tree_iteratorISA_ESt23_Rb_tree_const_iteratorISA_EOT_RT0_(ptr noundef nonnull align 8 dereferenceable(48) %counters, ptr nonnull %add.ptr.i.i.i.i, ptr noundef nonnull align 8 dereferenceable(48) %ref.tmp, ptr noundef nonnull align 8 dereferenceable(8) %__an.i.i.i)
          to label %call3.i.i.i.noexc unwind label %lpad54

call3.i.i.i.noexc:                                ; preds = %invoke.cont53
  %call3.i.i.i258.1 = invoke ptr @_ZNSt8_Rb_treeINSt7__cxx1112basic_stringIcSt11char_traitsIcESaIcEEESt4pairIKS5_N9benchmark7CounterEESt10_Select1stISA_ESt4lessIS5_ESaISA_EE17_M_insert_unique_IRKSA_NSG_11_Alloc_nodeEEESt17_Rb_tree_iteratorISA_ESt23_Rb_tree_const_iteratorISA_EOT_RT0_(ptr noundef nonnull align 8 dereferenceable(48) %counters, ptr nonnull %add.ptr.i.i.i.i, ptr noundef nonnull align 8 dereferenceable(48) %arrayinit.element, ptr noundef nonnull align 8 dereferenceable(8) %__an.i.i.i)
          to label %call3.i.i.i.noexc.1 unwind label %lpad54

call3.i.i.i.noexc.1:                              ; preds = %call3.i.i.i.noexc
  %call3.i.i.i258.2 = invoke ptr @_ZNSt8_Rb_treeINSt7__cxx1112basic_stringIcSt11char_traitsIcESaIcEEESt4pairIKS5_N9benchmark7CounterEESt10_Select1stISA_ESt4lessIS5_ESaISA_EE17_M_insert_unique_IRKSA_NSG_11_Alloc_nodeEEESt17_Rb_tree_iteratorISA_ESt23_Rb_tree_const_iteratorISA_EOT_RT0_(ptr noundef nonnull align 8 dereferenceable(48) %counters, ptr nonnull %add.ptr.i.i.i.i, ptr noundef nonnull align 8 dereferenceable(48) %arrayinit.element18, ptr noundef nonnull align 8 dereferenceable(8) %__an.i.i.i)
          to label %call3.i.i.i.noexc.2 unwind label %lpad54

call3.i.i.i.noexc.2:                              ; preds = %call3.i.i.i.noexc.1
  %call3.i.i.i258.3 = invoke ptr @_ZNSt8_Rb_treeINSt7__cxx1112basic_stringIcSt11char_traitsIcESaIcEEESt4pairIKS5_N9benchmark7CounterEESt10_Select1stISA_ESt4lessIS5_ESaISA_EE17_M_insert_unique_IRKSA_NSG_11_Alloc_nodeEEESt17_Rb_tree_iteratorISA_ESt23_Rb_tree_const_iteratorISA_EOT_RT0_(ptr noundef nonnull align 8 dereferenceable(48) %counters, ptr nonnull %add.ptr.i.i.i.i, ptr noundef nonnull align 8 dereferenceable(48) %arrayinit.element27, ptr noundef nonnull align 8 dereferenceable(8) %__an.i.i.i)
          to label %call3.i.i.i.noexc.3 unwind label %lpad54

call3.i.i.i.noexc.3:                              ; preds = %call3.i.i.i.noexc.2
  %call3.i.i.i258.4 = invoke ptr @_ZNSt8_Rb_treeINSt7__cxx1112basic_stringIcSt11char_traitsIcESaIcEEESt4pairIKS5_N9benchmark7CounterEESt10_Select1stISA_ESt4lessIS5_ESaISA_EE17_M_insert_unique_IRKSA_NSG_11_Alloc_nodeEEESt17_Rb_tree_iteratorISA_ESt23_Rb_tree_const_iteratorISA_EOT_RT0_(ptr noundef nonnull align 8 dereferenceable(48) %counters, ptr nonnull %add.ptr.i.i.i.i, ptr noundef nonnull align 8 dereferenceable(48) %arrayinit.element36, ptr noundef nonnull align 8 dereferenceable(8) %__an.i.i.i)
          to label %call3.i.i.i.noexc.4 unwind label %lpad54

call3.i.i.i.noexc.4:                              ; preds = %call3.i.i.i.noexc.3
  %call3.i.i.i258.5 = invoke ptr @_ZNSt8_Rb_treeINSt7__cxx1112basic_stringIcSt11char_traitsIcESaIcEEESt4pairIKS5_N9benchmark7CounterEESt10_Select1stISA_ESt4lessIS5_ESaISA_EE17_M_insert_unique_IRKSA_NSG_11_Alloc_nodeEEESt17_Rb_tree_iteratorISA_ESt23_Rb_tree_const_iteratorISA_EOT_RT0_(ptr noundef nonnull align 8 dereferenceable(48) %counters, ptr nonnull %add.ptr.i.i.i.i, ptr noundef nonnull align 8 dereferenceable(48) %arrayinit.element45, ptr noundef nonnull align 8 dereferenceable(8) %__an.i.i.i)
          to label %call3.i.i.i.noexc.5 unwind label %lpad54

call3.i.i.i.noexc.5:                              ; preds = %call3.i.i.i.noexc.4
  call void @llvm.lifetime.end.p0(i64 8, ptr nonnull %__an.i.i.i) #21
  %arraydestroy.element = getelementptr inbounds %"struct.std::pair", ptr %ref.tmp, i64 5
  %12 = load ptr, ptr %arraydestroy.element, align 8, !tbaa !24
  %13 = getelementptr inbounds %"struct.std::pair", ptr %ref.tmp, i64 5, i32 0, i32 2
  %cmp.i.i.i.i = icmp eq ptr %12, %13
  br i1 %cmp.i.i.i.i, label %_ZNSt4pairIKNSt7__cxx1112basic_stringIcSt11char_traitsIcESaIcEEEN9benchmark7CounterEED2Ev.exit, label %if.then.i.i.i259

if.then.i.i.i259:                                 ; preds = %call3.i.i.i.noexc.5
  call void @_ZdlPv(ptr noundef %12) #22
  br label %_ZNSt4pairIKNSt7__cxx1112basic_stringIcSt11char_traitsIcESaIcEEEN9benchmark7CounterEED2Ev.exit

_ZNSt4pairIKNSt7__cxx1112basic_stringIcSt11char_traitsIcESaIcEEEN9benchmark7CounterEED2Ev.exit: ; preds = %call3.i.i.i.noexc.5, %if.then.i.i.i259
  %arraydestroy.element.1 = getelementptr inbounds %"struct.std::pair", ptr %ref.tmp, i64 4
  %14 = load ptr, ptr %arraydestroy.element.1, align 8, !tbaa !24
  %15 = getelementptr inbounds %"struct.std::pair", ptr %ref.tmp, i64 4, i32 0, i32 2
  %cmp.i.i.i.i.1 = icmp eq ptr %14, %15
  br i1 %cmp.i.i.i.i.1, label %_ZNSt4pairIKNSt7__cxx1112basic_stringIcSt11char_traitsIcESaIcEEEN9benchmark7CounterEED2Ev.exit.1, label %if.then.i.i.i259.1

if.then.i.i.i259.1:                               ; preds = %_ZNSt4pairIKNSt7__cxx1112basic_stringIcSt11char_traitsIcESaIcEEEN9benchmark7CounterEED2Ev.exit
  call void @_ZdlPv(ptr noundef %14) #22
  br label %_ZNSt4pairIKNSt7__cxx1112basic_stringIcSt11char_traitsIcESaIcEEEN9benchmark7CounterEED2Ev.exit.1

_ZNSt4pairIKNSt7__cxx1112basic_stringIcSt11char_traitsIcESaIcEEEN9benchmark7CounterEED2Ev.exit.1: ; preds = %if.then.i.i.i259.1, %_ZNSt4pairIKNSt7__cxx1112basic_stringIcSt11char_traitsIcESaIcEEEN9benchmark7CounterEED2Ev.exit
  %arraydestroy.element.2 = getelementptr inbounds %"struct.std::pair", ptr %ref.tmp, i64 3
  %16 = load ptr, ptr %arraydestroy.element.2, align 8, !tbaa !24
  %17 = getelementptr inbounds %"struct.std::pair", ptr %ref.tmp, i64 3, i32 0, i32 2
  %cmp.i.i.i.i.2 = icmp eq ptr %16, %17
  br i1 %cmp.i.i.i.i.2, label %_ZNSt4pairIKNSt7__cxx1112basic_stringIcSt11char_traitsIcESaIcEEEN9benchmark7CounterEED2Ev.exit.2, label %if.then.i.i.i259.2

if.then.i.i.i259.2:                               ; preds = %_ZNSt4pairIKNSt7__cxx1112basic_stringIcSt11char_traitsIcESaIcEEEN9benchmark7CounterEED2Ev.exit.1
  call void @_ZdlPv(ptr noundef %16) #22
  br label %_ZNSt4pairIKNSt7__cxx1112basic_stringIcSt11char_traitsIcESaIcEEEN9benchmark7CounterEED2Ev.exit.2

_ZNSt4pairIKNSt7__cxx1112basic_stringIcSt11char_traitsIcESaIcEEEN9benchmark7CounterEED2Ev.exit.2: ; preds = %if.then.i.i.i259.2, %_ZNSt4pairIKNSt7__cxx1112basic_stringIcSt11char_traitsIcESaIcEEEN9benchmark7CounterEED2Ev.exit.1
  %arraydestroy.element.3 = getelementptr inbounds %"struct.std::pair", ptr %ref.tmp, i64 2
  %18 = load ptr, ptr %arraydestroy.element.3, align 8, !tbaa !24
  %19 = getelementptr inbounds %"struct.std::pair", ptr %ref.tmp, i64 2, i32 0, i32 2
  %cmp.i.i.i.i.3 = icmp eq ptr %18, %19
  br i1 %cmp.i.i.i.i.3, label %_ZNSt4pairIKNSt7__cxx1112basic_stringIcSt11char_traitsIcESaIcEEEN9benchmark7CounterEED2Ev.exit.3, label %if.then.i.i.i259.3

if.then.i.i.i259.3:                               ; preds = %_ZNSt4pairIKNSt7__cxx1112basic_stringIcSt11char_traitsIcESaIcEEEN9benchmark7CounterEED2Ev.exit.2
  call void @_ZdlPv(ptr noundef %18) #22
  br label %_ZNSt4pairIKNSt7__cxx1112basic_stringIcSt11char_traitsIcESaIcEEEN9benchmark7CounterEED2Ev.exit.3

_ZNSt4pairIKNSt7__cxx1112basic_stringIcSt11char_traitsIcESaIcEEEN9benchmark7CounterEED2Ev.exit.3: ; preds = %if.then.i.i.i259.3, %_ZNSt4pairIKNSt7__cxx1112basic_stringIcSt11char_traitsIcESaIcEEEN9benchmark7CounterEED2Ev.exit.2
  %arraydestroy.element.4 = getelementptr inbounds %"struct.std::pair", ptr %ref.tmp, i64 1
  %20 = load ptr, ptr %arraydestroy.element.4, align 8, !tbaa !24
  %21 = getelementptr inbounds %"struct.std::pair", ptr %ref.tmp, i64 1, i32 0, i32 2
  %cmp.i.i.i.i.4 = icmp eq ptr %20, %21
  br i1 %cmp.i.i.i.i.4, label %_ZNSt4pairIKNSt7__cxx1112basic_stringIcSt11char_traitsIcESaIcEEEN9benchmark7CounterEED2Ev.exit.4, label %if.then.i.i.i259.4

if.then.i.i.i259.4:                               ; preds = %_ZNSt4pairIKNSt7__cxx1112basic_stringIcSt11char_traitsIcESaIcEEEN9benchmark7CounterEED2Ev.exit.3
  call void @_ZdlPv(ptr noundef %20) #22
  br label %_ZNSt4pairIKNSt7__cxx1112basic_stringIcSt11char_traitsIcESaIcEEEN9benchmark7CounterEED2Ev.exit.4

_ZNSt4pairIKNSt7__cxx1112basic_stringIcSt11char_traitsIcESaIcEEEN9benchmark7CounterEED2Ev.exit.4: ; preds = %if.then.i.i.i259.4, %_ZNSt4pairIKNSt7__cxx1112basic_stringIcSt11char_traitsIcESaIcEEEN9benchmark7CounterEED2Ev.exit.3
  %22 = load ptr, ptr %ref.tmp, align 8, !tbaa !24
  %23 = getelementptr inbounds %"struct.std::pair", ptr %ref.tmp, i64 0, i32 0, i32 2
  %cmp.i.i.i.i.5 = icmp eq ptr %22, %23
  br i1 %cmp.i.i.i.i.5, label %_ZNSt4pairIKNSt7__cxx1112basic_stringIcSt11char_traitsIcESaIcEEEN9benchmark7CounterEED2Ev.exit.5, label %if.then.i.i.i259.5

if.then.i.i.i259.5:                               ; preds = %_ZNSt4pairIKNSt7__cxx1112basic_stringIcSt11char_traitsIcESaIcEEEN9benchmark7CounterEED2Ev.exit.4
  call void @_ZdlPv(ptr noundef %22) #22
  br label %_ZNSt4pairIKNSt7__cxx1112basic_stringIcSt11char_traitsIcESaIcEEEN9benchmark7CounterEED2Ev.exit.5

_ZNSt4pairIKNSt7__cxx1112basic_stringIcSt11char_traitsIcESaIcEEEN9benchmark7CounterEED2Ev.exit.5: ; preds = %if.then.i.i.i259.5, %_ZNSt4pairIKNSt7__cxx1112basic_stringIcSt11char_traitsIcESaIcEEEN9benchmark7CounterEED2Ev.exit.4
  %24 = load ptr, ptr %ref.tmp46, align 8, !tbaa !24
  %cmp.i.i.i260 = icmp eq ptr %24, %10
  br i1 %cmp.i.i.i260, label %_ZNSt7__cxx1112basic_stringIcSt11char_traitsIcESaIcEED2Ev.exit, label %if.then.i.i261

if.then.i.i261:                                   ; preds = %_ZNSt4pairIKNSt7__cxx1112basic_stringIcSt11char_traitsIcESaIcEEEN9benchmark7CounterEED2Ev.exit.5
  call void @_ZdlPv(ptr noundef %24) #22
  br label %_ZNSt7__cxx1112basic_stringIcSt11char_traitsIcESaIcEED2Ev.exit

_ZNSt7__cxx1112basic_stringIcSt11char_traitsIcESaIcEED2Ev.exit: ; preds = %_ZNSt4pairIKNSt7__cxx1112basic_stringIcSt11char_traitsIcESaIcEEEN9benchmark7CounterEED2Ev.exit.5, %if.then.i.i261
  call void @llvm.lifetime.end.p0(i64 32, ptr nonnull %ref.tmp46) #21
  %25 = load ptr, ptr %ref.tmp37, align 8, !tbaa !24
  %cmp.i.i.i262 = icmp eq ptr %25, %8
  br i1 %cmp.i.i.i262, label %_ZNSt7__cxx1112basic_stringIcSt11char_traitsIcESaIcEED2Ev.exit264, label %if.then.i.i263

if.then.i.i263:                                   ; preds = %_ZNSt7__cxx1112basic_stringIcSt11char_traitsIcESaIcEED2Ev.exit
  call void @_ZdlPv(ptr noundef %25) #22
  br label %_ZNSt7__cxx1112basic_stringIcSt11char_traitsIcESaIcEED2Ev.exit264

_ZNSt7__cxx1112basic_stringIcSt11char_traitsIcESaIcEED2Ev.exit264: ; preds = %_ZNSt7__cxx1112basic_stringIcSt11char_traitsIcESaIcEED2Ev.exit, %if.then.i.i263
  call void @llvm.lifetime.end.p0(i64 32, ptr nonnull %ref.tmp37) #21
  %26 = load ptr, ptr %ref.tmp28, align 8, !tbaa !24
  %cmp.i.i.i265 = icmp eq ptr %26, %6
  br i1 %cmp.i.i.i265, label %_ZNSt7__cxx1112basic_stringIcSt11char_traitsIcESaIcEED2Ev.exit267, label %if.then.i.i266

if.then.i.i266:                                   ; preds = %_ZNSt7__cxx1112basic_stringIcSt11char_traitsIcESaIcEED2Ev.exit264
  call void @_ZdlPv(ptr noundef %26) #22
  br label %_ZNSt7__cxx1112basic_stringIcSt11char_traitsIcESaIcEED2Ev.exit267

_ZNSt7__cxx1112basic_stringIcSt11char_traitsIcESaIcEED2Ev.exit267: ; preds = %_ZNSt7__cxx1112basic_stringIcSt11char_traitsIcESaIcEED2Ev.exit264, %if.then.i.i266
  call void @llvm.lifetime.end.p0(i64 32, ptr nonnull %ref.tmp28) #21
  %27 = load ptr, ptr %ref.tmp19, align 8, !tbaa !24
  %cmp.i.i.i268 = icmp eq ptr %27, %4
  br i1 %cmp.i.i.i268, label %_ZNSt7__cxx1112basic_stringIcSt11char_traitsIcESaIcEED2Ev.exit270, label %if.then.i.i269

if.then.i.i269:                                   ; preds = %_ZNSt7__cxx1112basic_stringIcSt11char_traitsIcESaIcEED2Ev.exit267
  call void @_ZdlPv(ptr noundef %27) #22
  br label %_ZNSt7__cxx1112basic_stringIcSt11char_traitsIcESaIcEED2Ev.exit270

_ZNSt7__cxx1112basic_stringIcSt11char_traitsIcESaIcEED2Ev.exit270: ; preds = %_ZNSt7__cxx1112basic_stringIcSt11char_traitsIcESaIcEED2Ev.exit267, %if.then.i.i269
  call void @llvm.lifetime.end.p0(i64 32, ptr nonnull %ref.tmp19) #21
  %28 = load ptr, ptr %ref.tmp10, align 8, !tbaa !24
  %cmp.i.i.i271 = icmp eq ptr %28, %2
  br i1 %cmp.i.i.i271, label %_ZNSt7__cxx1112basic_stringIcSt11char_traitsIcESaIcEED2Ev.exit273, label %if.then.i.i272

if.then.i.i272:                                   ; preds = %_ZNSt7__cxx1112basic_stringIcSt11char_traitsIcESaIcEED2Ev.exit270
  call void @_ZdlPv(ptr noundef %28) #22
  br label %_ZNSt7__cxx1112basic_stringIcSt11char_traitsIcESaIcEED2Ev.exit273

_ZNSt7__cxx1112basic_stringIcSt11char_traitsIcESaIcEED2Ev.exit273: ; preds = %_ZNSt7__cxx1112basic_stringIcSt11char_traitsIcESaIcEED2Ev.exit270, %if.then.i.i272
  call void @llvm.lifetime.end.p0(i64 32, ptr nonnull %ref.tmp10) #21
  %29 = load ptr, ptr %ref.tmp4, align 8, !tbaa !24
  %cmp.i.i.i274 = icmp eq ptr %29, %0
  br i1 %cmp.i.i.i274, label %_ZNSt7__cxx1112basic_stringIcSt11char_traitsIcESaIcEED2Ev.exit276, label %if.then.i.i275

if.then.i.i275:                                   ; preds = %_ZNSt7__cxx1112basic_stringIcSt11char_traitsIcESaIcEED2Ev.exit273
  call void @_ZdlPv(ptr noundef %29) #22
  br label %_ZNSt7__cxx1112basic_stringIcSt11char_traitsIcESaIcEED2Ev.exit276

_ZNSt7__cxx1112basic_stringIcSt11char_traitsIcESaIcEED2Ev.exit276: ; preds = %_ZNSt7__cxx1112basic_stringIcSt11char_traitsIcESaIcEED2Ev.exit273, %if.then.i.i275
  call void @llvm.lifetime.end.p0(i64 32, ptr nonnull %ref.tmp4) #21
  call void @llvm.lifetime.end.p0(i64 288, ptr nonnull %ref.tmp) #21
  ret void

lpad54:                                           ; preds = %call3.i.i.i.noexc.4, %call3.i.i.i.noexc.3, %call3.i.i.i.noexc.2, %call3.i.i.i.noexc.1, %call3.i.i.i.noexc, %invoke.cont53
  %30 = landingpad { ptr, i32 }
          cleanup
  %arraydestroy.element60 = getelementptr inbounds %"struct.std::pair", ptr %ref.tmp, i64 5
  %31 = load ptr, ptr %arraydestroy.element60, align 8, !tbaa !24
  %32 = getelementptr inbounds %"struct.std::pair", ptr %ref.tmp, i64 5, i32 0, i32 2
  %cmp.i.i.i.i277 = icmp eq ptr %31, %32
  br i1 %cmp.i.i.i.i277, label %_ZNSt4pairIKNSt7__cxx1112basic_stringIcSt11char_traitsIcESaIcEEEN9benchmark7CounterEED2Ev.exit279, label %if.then.i.i.i278

if.then.i.i.i278:                                 ; preds = %lpad54
  call void @_ZdlPv(ptr noundef %31) #22
  br label %_ZNSt4pairIKNSt7__cxx1112basic_stringIcSt11char_traitsIcESaIcEEEN9benchmark7CounterEED2Ev.exit279

_ZNSt4pairIKNSt7__cxx1112basic_stringIcSt11char_traitsIcESaIcEEEN9benchmark7CounterEED2Ev.exit279: ; preds = %lpad54, %if.then.i.i.i278
  %arraydestroy.element60.1 = getelementptr inbounds %"struct.std::pair", ptr %ref.tmp, i64 4
  %33 = load ptr, ptr %arraydestroy.element60.1, align 8, !tbaa !24
  %34 = getelementptr inbounds %"struct.std::pair", ptr %ref.tmp, i64 4, i32 0, i32 2
  %cmp.i.i.i.i277.1 = icmp eq ptr %33, %34
  br i1 %cmp.i.i.i.i277.1, label %_ZNSt4pairIKNSt7__cxx1112basic_stringIcSt11char_traitsIcESaIcEEEN9benchmark7CounterEED2Ev.exit279.1, label %if.then.i.i.i278.1

if.then.i.i.i278.1:                               ; preds = %_ZNSt4pairIKNSt7__cxx1112basic_stringIcSt11char_traitsIcESaIcEEEN9benchmark7CounterEED2Ev.exit279
  call void @_ZdlPv(ptr noundef %33) #22
  br label %_ZNSt4pairIKNSt7__cxx1112basic_stringIcSt11char_traitsIcESaIcEEEN9benchmark7CounterEED2Ev.exit279.1

_ZNSt4pairIKNSt7__cxx1112basic_stringIcSt11char_traitsIcESaIcEEEN9benchmark7CounterEED2Ev.exit279.1: ; preds = %if.then.i.i.i278.1, %_ZNSt4pairIKNSt7__cxx1112basic_stringIcSt11char_traitsIcESaIcEEEN9benchmark7CounterEED2Ev.exit279
  %arraydestroy.element60.2 = getelementptr inbounds %"struct.std::pair", ptr %ref.tmp, i64 3
  %35 = load ptr, ptr %arraydestroy.element60.2, align 8, !tbaa !24
  %36 = getelementptr inbounds %"struct.std::pair", ptr %ref.tmp, i64 3, i32 0, i32 2
  %cmp.i.i.i.i277.2 = icmp eq ptr %35, %36
  br i1 %cmp.i.i.i.i277.2, label %_ZNSt4pairIKNSt7__cxx1112basic_stringIcSt11char_traitsIcESaIcEEEN9benchmark7CounterEED2Ev.exit279.2, label %if.then.i.i.i278.2

if.then.i.i.i278.2:                               ; preds = %_ZNSt4pairIKNSt7__cxx1112basic_stringIcSt11char_traitsIcESaIcEEEN9benchmark7CounterEED2Ev.exit279.1
  call void @_ZdlPv(ptr noundef %35) #22
  br label %_ZNSt4pairIKNSt7__cxx1112basic_stringIcSt11char_traitsIcESaIcEEEN9benchmark7CounterEED2Ev.exit279.2

_ZNSt4pairIKNSt7__cxx1112basic_stringIcSt11char_traitsIcESaIcEEEN9benchmark7CounterEED2Ev.exit279.2: ; preds = %if.then.i.i.i278.2, %_ZNSt4pairIKNSt7__cxx1112basic_stringIcSt11char_traitsIcESaIcEEEN9benchmark7CounterEED2Ev.exit279.1
  %arraydestroy.element60.3 = getelementptr inbounds %"struct.std::pair", ptr %ref.tmp, i64 2
  %37 = load ptr, ptr %arraydestroy.element60.3, align 8, !tbaa !24
  %38 = getelementptr inbounds %"struct.std::pair", ptr %ref.tmp, i64 2, i32 0, i32 2
  %cmp.i.i.i.i277.3 = icmp eq ptr %37, %38
  br i1 %cmp.i.i.i.i277.3, label %_ZNSt4pairIKNSt7__cxx1112basic_stringIcSt11char_traitsIcESaIcEEEN9benchmark7CounterEED2Ev.exit279.3, label %if.then.i.i.i278.3

if.then.i.i.i278.3:                               ; preds = %_ZNSt4pairIKNSt7__cxx1112basic_stringIcSt11char_traitsIcESaIcEEEN9benchmark7CounterEED2Ev.exit279.2
  call void @_ZdlPv(ptr noundef %37) #22
  br label %_ZNSt4pairIKNSt7__cxx1112basic_stringIcSt11char_traitsIcESaIcEEEN9benchmark7CounterEED2Ev.exit279.3

_ZNSt4pairIKNSt7__cxx1112basic_stringIcSt11char_traitsIcESaIcEEEN9benchmark7CounterEED2Ev.exit279.3: ; preds = %if.then.i.i.i278.3, %_ZNSt4pairIKNSt7__cxx1112basic_stringIcSt11char_traitsIcESaIcEEEN9benchmark7CounterEED2Ev.exit279.2
  %arraydestroy.element60.4 = getelementptr inbounds %"struct.std::pair", ptr %ref.tmp, i64 1
  %39 = load ptr, ptr %arraydestroy.element60.4, align 8, !tbaa !24
  %40 = getelementptr inbounds %"struct.std::pair", ptr %ref.tmp, i64 1, i32 0, i32 2
  %cmp.i.i.i.i277.4 = icmp eq ptr %39, %40
  br i1 %cmp.i.i.i.i277.4, label %_ZNSt4pairIKNSt7__cxx1112basic_stringIcSt11char_traitsIcESaIcEEEN9benchmark7CounterEED2Ev.exit279.4, label %if.then.i.i.i278.4

if.then.i.i.i278.4:                               ; preds = %_ZNSt4pairIKNSt7__cxx1112basic_stringIcSt11char_traitsIcESaIcEEEN9benchmark7CounterEED2Ev.exit279.3
  call void @_ZdlPv(ptr noundef %39) #22
  br label %_ZNSt4pairIKNSt7__cxx1112basic_stringIcSt11char_traitsIcESaIcEEEN9benchmark7CounterEED2Ev.exit279.4

_ZNSt4pairIKNSt7__cxx1112basic_stringIcSt11char_traitsIcESaIcEEEN9benchmark7CounterEED2Ev.exit279.4: ; preds = %if.then.i.i.i278.4, %_ZNSt4pairIKNSt7__cxx1112basic_stringIcSt11char_traitsIcESaIcEEEN9benchmark7CounterEED2Ev.exit279.3
  %41 = load ptr, ptr %ref.tmp, align 8, !tbaa !24
  %42 = getelementptr inbounds %"struct.std::pair", ptr %ref.tmp, i64 0, i32 0, i32 2
  %cmp.i.i.i.i277.5 = icmp eq ptr %41, %42
  br i1 %cmp.i.i.i.i277.5, label %ehcleanup, label %if.then.i.i.i278.5

if.then.i.i.i278.5:                               ; preds = %_ZNSt4pairIKNSt7__cxx1112basic_stringIcSt11char_traitsIcESaIcEEEN9benchmark7CounterEED2Ev.exit279.4
  call void @_ZdlPv(ptr noundef %41) #22
  br label %ehcleanup

ehcleanup:                                        ; preds = %_ZNSt4pairIKNSt7__cxx1112basic_stringIcSt11char_traitsIcESaIcEEEN9benchmark7CounterEED2Ev.exit279.4, %if.then.i.i.i278.5
  %.pre = load ptr, ptr %ref.tmp46, align 8, !tbaa !24
  %cmp.i.i.i280 = icmp eq ptr %.pre, %10
  br i1 %cmp.i.i.i280, label %ehcleanup67, label %if.then.i.i281

if.then.i.i281:                                   ; preds = %ehcleanup
  call void @_ZdlPv(ptr noundef %.pre) #22
  br label %ehcleanup67

ehcleanup67:                                      ; preds = %ehcleanup, %if.then.i.i281
  call void @llvm.lifetime.end.p0(i64 32, ptr nonnull %ref.tmp46) #21
  %.pre308 = load ptr, ptr %ref.tmp37, align 8, !tbaa !24
  %cmp.i.i.i283 = icmp eq ptr %.pre308, %8
  br i1 %cmp.i.i.i283, label %ehcleanup72, label %if.then.i.i284

if.then.i.i284:                                   ; preds = %ehcleanup67
  call void @_ZdlPv(ptr noundef %.pre308) #22
  br label %ehcleanup72

ehcleanup72:                                      ; preds = %ehcleanup67, %if.then.i.i284
  call void @llvm.lifetime.end.p0(i64 32, ptr nonnull %ref.tmp37) #21
  %.pre309 = load ptr, ptr %ref.tmp28, align 8, !tbaa !24
  %cmp.i.i.i286 = icmp eq ptr %.pre309, %6
  br i1 %cmp.i.i.i286, label %ehcleanup77, label %if.then.i.i287

if.then.i.i287:                                   ; preds = %ehcleanup72
  call void @_ZdlPv(ptr noundef %.pre309) #22
  br label %ehcleanup77

ehcleanup77:                                      ; preds = %ehcleanup72, %if.then.i.i287
  call void @llvm.lifetime.end.p0(i64 32, ptr nonnull %ref.tmp28) #21
  %.pre310 = load ptr, ptr %ref.tmp19, align 8, !tbaa !24
  %cmp.i.i.i289 = icmp eq ptr %.pre310, %4
  br i1 %cmp.i.i.i289, label %ehcleanup82, label %if.then.i.i290

if.then.i.i290:                                   ; preds = %ehcleanup77
  call void @_ZdlPv(ptr noundef %.pre310) #22
  br label %ehcleanup82

ehcleanup82:                                      ; preds = %ehcleanup77, %if.then.i.i290
  call void @llvm.lifetime.end.p0(i64 32, ptr nonnull %ref.tmp19) #21
  %.pre311 = load ptr, ptr %ref.tmp10, align 8, !tbaa !24
  %cmp.i.i.i292 = icmp eq ptr %.pre311, %2
  br i1 %cmp.i.i.i292, label %ehcleanup87, label %if.then.i.i293

if.then.i.i293:                                   ; preds = %ehcleanup82
  call void @_ZdlPv(ptr noundef %.pre311) #22
  br label %ehcleanup87

ehcleanup87:                                      ; preds = %ehcleanup82, %if.then.i.i293
  call void @llvm.lifetime.end.p0(i64 32, ptr nonnull %ref.tmp10) #21
  %.pre312 = load ptr, ptr %ref.tmp4, align 8, !tbaa !24
  %cmp.i.i.i295 = icmp eq ptr %.pre312, %0
  br i1 %cmp.i.i.i295, label %cleanup.done, label %if.then.i.i296

if.then.i.i296:                                   ; preds = %ehcleanup87
  call void @_ZdlPv(ptr noundef %.pre312) #22
  br label %cleanup.done

cleanup.done:                                     ; preds = %ehcleanup87, %if.then.i.i296
  call void @llvm.lifetime.end.p0(i64 32, ptr nonnull %ref.tmp4) #21
  call void @llvm.lifetime.end.p0(i64 288, ptr nonnull %ref.tmp) #21
  resume { ptr, i32 } %30
}

declare noundef ptr @_ZN9benchmark8internal25RegisterBenchmarkInternalEPNS0_9BenchmarkE(ptr noundef) local_unnamed_addr #0

; Function Attrs: nobuiltin allocsize(0)
declare noundef nonnull ptr @_Znwm(i64 noundef) local_unnamed_addr #5

; Function Attrs: nobuiltin nounwind
declare void @_ZdlPv(ptr noundef) local_unnamed_addr #6

declare noundef ptr @_ZN9benchmark8internal9Benchmark11ThreadRangeEii(ptr noundef nonnull align 8 dereferenceable(216), i32 noundef, i32 noundef) local_unnamed_addr #0

declare noundef ptr @_ZN9benchmark8internal9Benchmark11RepetitionsEi(ptr noundef nonnull align 8 dereferenceable(216), i32 noundef) local_unnamed_addr #0

; Function Attrs: uwtable
define hidden void @_Z12CheckTabularRK7Results(ptr noundef nonnull align 8 dereferenceable(80) %e) #4 personality ptr @__gxx_personality_v0 {
entry:
  %ref.tmp = alloca %"class.benchmark::internal::CheckHandler", align 8
  %ref.tmp73 = alloca %"class.benchmark::internal::CheckHandler", align 8
  %ref.tmp156 = alloca %"class.benchmark::internal::CheckHandler", align 8
  %ref.tmp239 = alloca %"class.benchmark::internal::CheckHandler", align 8
  %ref.tmp322 = alloca %"class.benchmark::internal::CheckHandler", align 8
  %ref.tmp405 = alloca %"class.benchmark::internal::CheckHandler", align 8
  %call.i = tail call noundef double @_ZNK7Results5GetAsIdEET_PKc(ptr noundef nonnull align 8 dereferenceable(80) %e, ptr noundef nonnull @.str.22)
  %conv.i = fptosi double %call.i to i32
  %cmp.not = icmp eq i32 %conv.i, 1
  br i1 %cmp.not, label %cond.true, label %cond.false

cond.true:                                        ; preds = %entry
  %0 = load atomic i8, ptr @_ZGVZN9benchmark8internal18GetNullLogInstanceEvE3log acquire, align 8
  %guard.uninitialized.i = icmp eq i8 %0, 0
  br i1 %guard.uninitialized.i, label %init.check.i, label %cond.end, !prof !25

init.check.i:                                     ; preds = %cond.true
  %1 = tail call i32 @__cxa_guard_acquire(ptr nonnull @_ZGVZN9benchmark8internal18GetNullLogInstanceEvE3log) #21
  %tobool.not.i = icmp eq i32 %1, 0
  br i1 %tobool.not.i, label %cond.end, label %init.i

init.i:                                           ; preds = %init.check.i
  store ptr null, ptr @_ZZN9benchmark8internal18GetNullLogInstanceEvE3log, align 8, !tbaa !26
  tail call void @__cxa_guard_release(ptr nonnull @_ZGVZN9benchmark8internal18GetNullLogInstanceEvE3log) #21
  br label %cond.end

cond.false:                                       ; preds = %entry
  call void @llvm.lifetime.start.p0(i64 8, ptr nonnull %ref.tmp) #21
  call void @_ZN9benchmark8internal12CheckHandlerC2EPKcS3_S3_i(ptr noundef nonnull align 8 dereferenceable(8) %ref.tmp, ptr noundef nonnull @.str.101, ptr noundef nonnull @.str.102, ptr noundef nonnull @__func__._Z12CheckTabularRK7Results, i32 noundef 356)
  %2 = load ptr, ptr %ref.tmp, align 8, !tbaa !28
  br label %cond.end

cond.end:                                         ; preds = %init.i, %init.check.i, %cond.true, %cond.false
  %cond-lvalue = phi ptr [ %2, %cond.false ], [ @_ZZN9benchmark8internal18GetNullLogInstanceEvE3log, %cond.true ], [ @_ZZN9benchmark8internal18GetNullLogInstanceEvE3log, %init.check.i ], [ @_ZZN9benchmark8internal18GetNullLogInstanceEvE3log, %init.i ]
  %3 = load ptr, ptr %cond-lvalue, align 8, !tbaa !26
  %tobool.not.i531 = icmp eq ptr %3, null
  br i1 %tobool.not.i531, label %invoke.cont38, label %if.then.i

if.then.i:                                        ; preds = %cond.end
  %call1.i.i532 = invoke noundef nonnull align 8 dereferenceable(8) ptr @_ZSt16__ostream_insertIcSt11char_traitsIcEERSt13basic_ostreamIT_T0_ES6_PKS3_l(ptr noundef nonnull align 8 dereferenceable(8) %3, ptr noundef nonnull @.str.103, i64 noundef 1)
          to label %invoke.cont4 unwind label %lpad

invoke.cont4:                                     ; preds = %if.then.i
  %.pr = load ptr, ptr %cond-lvalue, align 8, !tbaa !26
  %tobool.not.i533 = icmp eq ptr %.pr, null
  br i1 %tobool.not.i533, label %invoke.cont38, label %if.then.i535

if.then.i535:                                     ; preds = %invoke.cont4
  %call1.i.i537 = invoke noundef nonnull align 8 dereferenceable(8) ptr @_ZSt16__ostream_insertIcSt11char_traitsIcEERSt13basic_ostreamIT_T0_ES6_PKS3_l(ptr noundef nonnull align 8 dereferenceable(8) %.pr, ptr noundef nonnull @.str.102, i64 noundef 114)
          to label %invoke.cont6 unwind label %lpad

invoke.cont6:                                     ; preds = %if.then.i535
  %.pr1272 = load ptr, ptr %cond-lvalue, align 8, !tbaa !26
  %tobool.not.i538 = icmp eq ptr %.pr1272, null
  br i1 %tobool.not.i538, label %invoke.cont38, label %if.then.i540

if.then.i540:                                     ; preds = %invoke.cont6
  %call1.i.i542 = invoke noundef nonnull align 8 dereferenceable(8) ptr @_ZSt16__ostream_insertIcSt11char_traitsIcEERSt13basic_ostreamIT_T0_ES6_PKS3_l(ptr noundef nonnull align 8 dereferenceable(8) %.pr1272, ptr noundef nonnull @.str.104, i64 noundef 1)
          to label %invoke.cont8 unwind label %lpad

invoke.cont8:                                     ; preds = %if.then.i540
  %.pr1274.pr = load ptr, ptr %cond-lvalue, align 8, !tbaa !26
  %tobool.not.i544 = icmp eq ptr %.pr1274.pr, null
  br i1 %tobool.not.i544, label %invoke.cont38, label %if.then.i546

if.then.i546:                                     ; preds = %invoke.cont8
  %call.i545547 = invoke noundef nonnull align 8 dereferenceable(8) ptr @_ZNSolsEi(ptr noundef nonnull align 8 dereferenceable(8) %.pr1274.pr, i32 noundef 356)
          to label %invoke.cont12 unwind label %lpad11

invoke.cont12:                                    ; preds = %if.then.i546
  %.pr1276 = load ptr, ptr %cond-lvalue, align 8, !tbaa !26
  %tobool.not.i548 = icmp eq ptr %.pr1276, null
  br i1 %tobool.not.i548, label %invoke.cont38, label %if.then.i550

if.then.i550:                                     ; preds = %invoke.cont12
  %call1.i.i552 = invoke noundef nonnull align 8 dereferenceable(8) ptr @_ZSt16__ostream_insertIcSt11char_traitsIcEERSt13basic_ostreamIT_T0_ES6_PKS3_l(ptr noundef nonnull align 8 dereferenceable(8) %.pr1276, ptr noundef nonnull @.str.105, i64 noundef 2)
          to label %invoke.cont14 unwind label %lpad11

invoke.cont14:                                    ; preds = %if.then.i550
  %.pr1278.pr.pr = load ptr, ptr %cond-lvalue, align 8, !tbaa !26
  %tobool.not.i553 = icmp eq ptr %.pr1278.pr.pr, null
  br i1 %tobool.not.i553, label %invoke.cont38, label %if.then.i554

if.then.i554:                                     ; preds = %invoke.cont14
  %4 = load ptr, ptr %e, align 8, !tbaa !24
  %_M_string_length.i.i.i = getelementptr inbounds %"class.std::__cxx11::basic_string", ptr %e, i64 0, i32 1
  %5 = load i64, ptr %_M_string_length.i.i.i, align 8, !tbaa !10
  %call2.i.i555 = invoke noundef nonnull align 8 dereferenceable(8) ptr @_ZSt16__ostream_insertIcSt11char_traitsIcEERSt13basic_ostreamIT_T0_ES6_PKS3_l(ptr noundef nonnull align 8 dereferenceable(8) %.pr1278.pr.pr, ptr noundef %4, i64 noundef %5)
          to label %invoke.cont16 unwind label %lpad11

invoke.cont16:                                    ; preds = %if.then.i554
  %.pr1280 = load ptr, ptr %cond-lvalue, align 8, !tbaa !26
  %tobool.not.i556 = icmp eq ptr %.pr1280, null
  br i1 %tobool.not.i556, label %invoke.cont38, label %if.then.i558

if.then.i558:                                     ; preds = %invoke.cont16
  %call1.i.i560 = invoke noundef nonnull align 8 dereferenceable(8) ptr @_ZSt16__ostream_insertIcSt11char_traitsIcEERSt13basic_ostreamIT_T0_ES6_PKS3_l(ptr noundef nonnull align 8 dereferenceable(8) %.pr1280, ptr noundef nonnull @.str.106, i64 noundef 2)
          to label %invoke.cont18 unwind label %lpad11

invoke.cont18:                                    ; preds = %if.then.i558
  %.pr1282.pr.pr = load ptr, ptr %cond-lvalue, align 8, !tbaa !26
  %tobool.not.i562 = icmp eq ptr %.pr1282.pr.pr, null
  br i1 %tobool.not.i562, label %invoke.cont38, label %if.then.i564

if.then.i564:                                     ; preds = %invoke.cont18
  %call1.i.i566 = invoke noundef nonnull align 8 dereferenceable(8) ptr @_ZSt16__ostream_insertIcSt11char_traitsIcEERSt13basic_ostreamIT_T0_ES6_PKS3_l(ptr noundef nonnull align 8 dereferenceable(8) %.pr1282.pr.pr, ptr noundef nonnull @.str.102, i64 noundef 114)
          to label %invoke.cont20 unwind label %lpad11

invoke.cont20:                                    ; preds = %if.then.i564
  %.pr1284 = load ptr, ptr %cond-lvalue, align 8, !tbaa !26
  %tobool.not.i568 = icmp eq ptr %.pr1284, null
  br i1 %tobool.not.i568, label %invoke.cont38, label %if.then.i570

if.then.i570:                                     ; preds = %invoke.cont20
  %call1.i.i572 = invoke noundef nonnull align 8 dereferenceable(8) ptr @_ZSt16__ostream_insertIcSt11char_traitsIcEERSt13basic_ostreamIT_T0_ES6_PKS3_l(ptr noundef nonnull align 8 dereferenceable(8) %.pr1284, ptr noundef nonnull @.str.104, i64 noundef 1)
          to label %invoke.cont22 unwind label %lpad11

invoke.cont22:                                    ; preds = %if.then.i570
  %.pr1286.pr.pr.pr = load ptr, ptr %cond-lvalue, align 8, !tbaa !26
  %tobool.not.i574 = icmp eq ptr %.pr1286.pr.pr.pr, null
  br i1 %tobool.not.i574, label %invoke.cont38, label %if.then.i576

if.then.i576:                                     ; preds = %invoke.cont22
  %call.i575577 = invoke noundef nonnull align 8 dereferenceable(8) ptr @_ZNSolsEi(ptr noundef nonnull align 8 dereferenceable(8) %.pr1286.pr.pr.pr, i32 noundef 356)
          to label %invoke.cont26 unwind label %lpad25

invoke.cont26:                                    ; preds = %if.then.i576
  %.pr1288 = load ptr, ptr %cond-lvalue, align 8, !tbaa !26
  %tobool.not.i579 = icmp eq ptr %.pr1288, null
  br i1 %tobool.not.i579, label %invoke.cont38, label %if.then.i581

if.then.i581:                                     ; preds = %invoke.cont26
  %call1.i.i583 = invoke noundef nonnull align 8 dereferenceable(8) ptr @_ZSt16__ostream_insertIcSt11char_traitsIcEERSt13basic_ostreamIT_T0_ES6_PKS3_l(ptr noundef nonnull align 8 dereferenceable(8) %.pr1288, ptr noundef nonnull @.str.105, i64 noundef 2)
          to label %invoke.cont28 unwind label %lpad25

invoke.cont28:                                    ; preds = %if.then.i581
  %.pr1290.pr.pr.pr = load ptr, ptr %cond-lvalue, align 8, !tbaa !26
  %tobool.not.i585 = icmp eq ptr %.pr1290.pr.pr.pr, null
  br i1 %tobool.not.i585, label %invoke.cont38, label %if.then.i587

if.then.i587:                                     ; preds = %invoke.cont28
  %call1.i.i589 = invoke noundef nonnull align 8 dereferenceable(8) ptr @_ZSt16__ostream_insertIcSt11char_traitsIcEERSt13basic_ostreamIT_T0_ES6_PKS3_l(ptr noundef nonnull align 8 dereferenceable(8) %.pr1290.pr.pr.pr, ptr noundef nonnull @.str.107, i64 noundef 10)
          to label %invoke.cont30 unwind label %lpad25

invoke.cont30:                                    ; preds = %if.then.i587
  %.pr1292 = load ptr, ptr %cond-lvalue, align 8, !tbaa !26
  %tobool.not.i590 = icmp eq ptr %.pr1292, null
  br i1 %tobool.not.i590, label %invoke.cont38, label %if.then.i592

if.then.i592:                                     ; preds = %invoke.cont30
  %call1.i.i594 = invoke noundef nonnull align 8 dereferenceable(8) ptr @_ZSt16__ostream_insertIcSt11char_traitsIcEERSt13basic_ostreamIT_T0_ES6_PKS3_l(ptr noundef nonnull align 8 dereferenceable(8) %.pr1292, ptr noundef nonnull @.str.108, i64 noundef 3)
          to label %invoke.cont32 unwind label %lpad25

invoke.cont32:                                    ; preds = %if.then.i592
  %.pr1294.pr.pr.pr = load ptr, ptr %cond-lvalue, align 8, !tbaa !26
  %tobool.not.i595 = icmp eq ptr %.pr1294.pr.pr.pr, null
  br i1 %tobool.not.i595, label %invoke.cont38, label %if.then.i597

if.then.i597:                                     ; preds = %invoke.cont32
  %call1.i.i599 = invoke noundef nonnull align 8 dereferenceable(8) ptr @_ZSt16__ostream_insertIcSt11char_traitsIcEERSt13basic_ostreamIT_T0_ES6_PKS3_l(ptr noundef nonnull align 8 dereferenceable(8) %.pr1294.pr.pr.pr, ptr noundef nonnull @.str.109, i64 noundef 1)
          to label %invoke.cont34 unwind label %lpad25

invoke.cont34:                                    ; preds = %if.then.i597
  %.pr1296 = load ptr, ptr %cond-lvalue, align 8, !tbaa !26
  %tobool.not.i601 = icmp eq ptr %.pr1296, null
  br i1 %tobool.not.i601, label %invoke.cont38, label %if.then.i603

if.then.i603:                                     ; preds = %invoke.cont34
  %call1.i.i605 = invoke noundef nonnull align 8 dereferenceable(8) ptr @_ZSt16__ostream_insertIcSt11char_traitsIcEERSt13basic_ostreamIT_T0_ES6_PKS3_l(ptr noundef nonnull align 8 dereferenceable(8) %.pr1296, ptr noundef nonnull @.str.22, i64 noundef 3)
          to label %invoke.cont36 unwind label %lpad25

invoke.cont36:                                    ; preds = %if.then.i603
  %.pr1298.pr.pr.pr = load ptr, ptr %cond-lvalue, align 8, !tbaa !26
  %tobool.not.i607 = icmp eq ptr %.pr1298.pr.pr.pr, null
  br i1 %tobool.not.i607, label %invoke.cont38, label %if.then.i609

if.then.i609:                                     ; preds = %invoke.cont36
  %call1.i.i611 = invoke noundef nonnull align 8 dereferenceable(8) ptr @_ZSt16__ostream_insertIcSt11char_traitsIcEERSt13basic_ostreamIT_T0_ES6_PKS3_l(ptr noundef nonnull align 8 dereferenceable(8) %.pr1298.pr.pr.pr, ptr noundef nonnull @.str.110, i64 noundef 1)
          to label %invoke.cont38 unwind label %lpad25

invoke.cont38:                                    ; preds = %invoke.cont18, %invoke.cont16, %invoke.cont14, %invoke.cont12, %invoke.cont8, %invoke.cont6, %invoke.cont4, %cond.end, %invoke.cont26, %invoke.cont28, %invoke.cont20, %invoke.cont22, %invoke.cont32, %invoke.cont30, %invoke.cont34, %invoke.cont36, %if.then.i609
  %call.i613615 = invoke noundef double @_ZNK7Results5GetAsIdEET_PKc(ptr noundef nonnull align 8 dereferenceable(80) %e, ptr noundef nonnull @.str.22)
          to label %invoke.cont42 unwind label %lpad41

invoke.cont42:                                    ; preds = %invoke.cont38
  %6 = load ptr, ptr %cond-lvalue, align 8, !tbaa !26
  %tobool.not.i616 = icmp eq ptr %6, null
  br i1 %tobool.not.i616, label %invoke.cont52, label %if.then.i618

if.then.i618:                                     ; preds = %invoke.cont42
  %conv.i614 = fptosi double %call.i613615 to i32
  %call.i617619 = invoke noundef nonnull align 8 dereferenceable(8) ptr @_ZNSolsEi(ptr noundef nonnull align 8 dereferenceable(8) %6, i32 noundef %conv.i614)
          to label %invoke.cont44 unwind label %lpad41

invoke.cont44:                                    ; preds = %if.then.i618
  %.pr1300 = load ptr, ptr %cond-lvalue, align 8, !tbaa !26
  %tobool.not.i621 = icmp eq ptr %.pr1300, null
  br i1 %tobool.not.i621, label %invoke.cont52, label %if.then.i623

if.then.i623:                                     ; preds = %invoke.cont44
  %call1.i.i625 = invoke noundef nonnull align 8 dereferenceable(8) ptr @_ZSt16__ostream_insertIcSt11char_traitsIcEERSt13basic_ostreamIT_T0_ES6_PKS3_l(ptr noundef nonnull align 8 dereferenceable(8) %.pr1300, ptr noundef nonnull @.str.111, i64 noundef 13)
          to label %invoke.cont46 unwind label %lpad41

invoke.cont46:                                    ; preds = %if.then.i623
  %.pr1302 = load ptr, ptr %cond-lvalue, align 8, !tbaa !26
  %tobool.not.i626 = icmp eq ptr %.pr1302, null
  br i1 %tobool.not.i626, label %invoke.cont52, label %if.then.i628

if.then.i628:                                     ; preds = %invoke.cont46
  %call.i627629 = invoke noundef nonnull align 8 dereferenceable(8) ptr @_ZNSolsEi(ptr noundef nonnull align 8 dereferenceable(8) %.pr1302, i32 noundef 1)
          to label %invoke.cont50 unwind label %lpad49

invoke.cont50:                                    ; preds = %if.then.i628
  %.pr1304.pr = load ptr, ptr %cond-lvalue, align 8, !tbaa !26
  %tobool.not.i631 = icmp eq ptr %.pr1304.pr, null
  br i1 %tobool.not.i631, label %invoke.cont52, label %if.then.i633

if.then.i633:                                     ; preds = %invoke.cont50
  %call1.i.i635 = invoke noundef nonnull align 8 dereferenceable(8) ptr @_ZSt16__ostream_insertIcSt11char_traitsIcEERSt13basic_ostreamIT_T0_ES6_PKS3_l(ptr noundef nonnull align 8 dereferenceable(8) %.pr1304.pr, ptr noundef nonnull @.str.103, i64 noundef 1)
          to label %invoke.cont52 unwind label %lpad49

invoke.cont52:                                    ; preds = %invoke.cont44, %invoke.cont42, %invoke.cont46, %invoke.cont50, %if.then.i633
  br i1 %cmp.not, label %cleanup.done63, label %cleanup.action

cleanup.action:                                   ; preds = %invoke.cont52
  call void @_ZN9benchmark8internal12CheckHandlerD2Ev(ptr noundef nonnull align 8 dereferenceable(8) %ref.tmp) #23
  unreachable

lpad:                                             ; preds = %if.then.i540, %if.then.i535, %if.then.i
  %7 = landingpad { ptr, i32 }
          cleanup
  br label %ehcleanup56

lpad11:                                           ; preds = %if.then.i570, %if.then.i564, %if.then.i558, %if.then.i554, %if.then.i550, %if.then.i546
  %8 = landingpad { ptr, i32 }
          cleanup
  br label %ehcleanup56

lpad25:                                           ; preds = %if.then.i609, %if.then.i603, %if.then.i597, %if.then.i592, %if.then.i587, %if.then.i581, %if.then.i576
  %9 = landingpad { ptr, i32 }
          cleanup
  br label %ehcleanup56

lpad41:                                           ; preds = %if.then.i623, %if.then.i618, %invoke.cont38
  %10 = landingpad { ptr, i32 }
          cleanup
  br label %ehcleanup56

lpad49:                                           ; preds = %if.then.i633, %if.then.i628
  %11 = landingpad { ptr, i32 }
          cleanup
  br label %ehcleanup56

cleanup.done63:                                   ; preds = %invoke.cont52
  %call.i637 = call noundef double @_ZNK7Results5GetAsIdEET_PKc(ptr noundef nonnull align 8 dereferenceable(80) %e, ptr noundef nonnull @.str.23)
  %conv.i638 = fptosi double %call.i637 to i32
  %cmp69.not = icmp eq i32 %conv.i638, 2
  br i1 %cmp69.not, label %cond.true70, label %cond.false72

cond.true70:                                      ; preds = %cleanup.done63
  %12 = load atomic i8, ptr @_ZGVZN9benchmark8internal18GetNullLogInstanceEvE3log acquire, align 8
  %guard.uninitialized.i639 = icmp eq i8 %12, 0
  br i1 %guard.uninitialized.i639, label %init.check.i641, label %cond.end79, !prof !25

init.check.i641:                                  ; preds = %cond.true70
  %13 = call i32 @__cxa_guard_acquire(ptr nonnull @_ZGVZN9benchmark8internal18GetNullLogInstanceEvE3log) #21
  %tobool.not.i640 = icmp eq i32 %13, 0
  br i1 %tobool.not.i640, label %cond.end79, label %init.i642

init.i642:                                        ; preds = %init.check.i641
  store ptr null, ptr @_ZZN9benchmark8internal18GetNullLogInstanceEvE3log, align 8, !tbaa !26
  call void @__cxa_guard_release(ptr nonnull @_ZGVZN9benchmark8internal18GetNullLogInstanceEvE3log) #21
  br label %cond.end79

cond.false72:                                     ; preds = %cleanup.done63
  call void @llvm.lifetime.start.p0(i64 8, ptr nonnull %ref.tmp73) #21
  call void @_ZN9benchmark8internal12CheckHandlerC2EPKcS3_S3_i(ptr noundef nonnull align 8 dereferenceable(8) %ref.tmp73, ptr noundef nonnull @.str.112, ptr noundef nonnull @.str.102, ptr noundef nonnull @__func__._Z12CheckTabularRK7Results, i32 noundef 357)
  %14 = load ptr, ptr %ref.tmp73, align 8, !tbaa !28
  br label %cond.end79

cond.end79:                                       ; preds = %init.i642, %init.check.i641, %cond.true70, %cond.false72
  %cond-lvalue80 = phi ptr [ %14, %cond.false72 ], [ @_ZZN9benchmark8internal18GetNullLogInstanceEvE3log, %cond.true70 ], [ @_ZZN9benchmark8internal18GetNullLogInstanceEvE3log, %init.check.i641 ], [ @_ZZN9benchmark8internal18GetNullLogInstanceEvE3log, %init.i642 ]
  %15 = load ptr, ptr %cond-lvalue80, align 8, !tbaa !26
  %tobool.not.i644 = icmp eq ptr %15, null
  br i1 %tobool.not.i644, label %invoke.cont116, label %if.then.i646

if.then.i646:                                     ; preds = %cond.end79
  %call1.i.i648 = invoke noundef nonnull align 8 dereferenceable(8) ptr @_ZSt16__ostream_insertIcSt11char_traitsIcEERSt13basic_ostreamIT_T0_ES6_PKS3_l(ptr noundef nonnull align 8 dereferenceable(8) %15, ptr noundef nonnull @.str.103, i64 noundef 1)
          to label %invoke.cont81 unwind label %lpad76

invoke.cont81:                                    ; preds = %if.then.i646
  %.pr1306 = load ptr, ptr %cond-lvalue80, align 8, !tbaa !26
  %tobool.not.i650 = icmp eq ptr %.pr1306, null
  br i1 %tobool.not.i650, label %invoke.cont116, label %if.then.i652

if.then.i652:                                     ; preds = %invoke.cont81
  %call1.i.i654 = invoke noundef nonnull align 8 dereferenceable(8) ptr @_ZSt16__ostream_insertIcSt11char_traitsIcEERSt13basic_ostreamIT_T0_ES6_PKS3_l(ptr noundef nonnull align 8 dereferenceable(8) %.pr1306, ptr noundef nonnull @.str.102, i64 noundef 114)
          to label %invoke.cont83 unwind label %lpad76

invoke.cont83:                                    ; preds = %if.then.i652
  %.pr1308 = load ptr, ptr %cond-lvalue80, align 8, !tbaa !26
  %tobool.not.i656 = icmp eq ptr %.pr1308, null
  br i1 %tobool.not.i656, label %invoke.cont116, label %if.then.i658

if.then.i658:                                     ; preds = %invoke.cont83
  %call1.i.i660 = invoke noundef nonnull align 8 dereferenceable(8) ptr @_ZSt16__ostream_insertIcSt11char_traitsIcEERSt13basic_ostreamIT_T0_ES6_PKS3_l(ptr noundef nonnull align 8 dereferenceable(8) %.pr1308, ptr noundef nonnull @.str.104, i64 noundef 1)
          to label %invoke.cont85 unwind label %lpad76

invoke.cont85:                                    ; preds = %if.then.i658
  %.pr1310.pr = load ptr, ptr %cond-lvalue80, align 8, !tbaa !26
  %tobool.not.i662 = icmp eq ptr %.pr1310.pr, null
  br i1 %tobool.not.i662, label %invoke.cont116, label %if.then.i664

if.then.i664:                                     ; preds = %invoke.cont85
  %call.i663665 = invoke noundef nonnull align 8 dereferenceable(8) ptr @_ZNSolsEi(ptr noundef nonnull align 8 dereferenceable(8) %.pr1310.pr, i32 noundef 357)
          to label %invoke.cont89 unwind label %lpad88

invoke.cont89:                                    ; preds = %if.then.i664
  %.pr1312 = load ptr, ptr %cond-lvalue80, align 8, !tbaa !26
  %tobool.not.i667 = icmp eq ptr %.pr1312, null
  br i1 %tobool.not.i667, label %invoke.cont116, label %if.then.i669

if.then.i669:                                     ; preds = %invoke.cont89
  %call1.i.i671 = invoke noundef nonnull align 8 dereferenceable(8) ptr @_ZSt16__ostream_insertIcSt11char_traitsIcEERSt13basic_ostreamIT_T0_ES6_PKS3_l(ptr noundef nonnull align 8 dereferenceable(8) %.pr1312, ptr noundef nonnull @.str.105, i64 noundef 2)
          to label %invoke.cont91 unwind label %lpad88

invoke.cont91:                                    ; preds = %if.then.i669
  %.pr1314.pr.pr = load ptr, ptr %cond-lvalue80, align 8, !tbaa !26
  %tobool.not.i673 = icmp eq ptr %.pr1314.pr.pr, null
  br i1 %tobool.not.i673, label %invoke.cont116, label %if.then.i675

if.then.i675:                                     ; preds = %invoke.cont91
  %16 = load ptr, ptr %e, align 8, !tbaa !24
  %_M_string_length.i.i.i674 = getelementptr inbounds %"class.std::__cxx11::basic_string", ptr %e, i64 0, i32 1
  %17 = load i64, ptr %_M_string_length.i.i.i674, align 8, !tbaa !10
  %call2.i.i677 = invoke noundef nonnull align 8 dereferenceable(8) ptr @_ZSt16__ostream_insertIcSt11char_traitsIcEERSt13basic_ostreamIT_T0_ES6_PKS3_l(ptr noundef nonnull align 8 dereferenceable(8) %.pr1314.pr.pr, ptr noundef %16, i64 noundef %17)
          to label %invoke.cont94 unwind label %lpad88

invoke.cont94:                                    ; preds = %if.then.i675
  %.pr1316 = load ptr, ptr %cond-lvalue80, align 8, !tbaa !26
  %tobool.not.i679 = icmp eq ptr %.pr1316, null
  br i1 %tobool.not.i679, label %invoke.cont116, label %if.then.i681

if.then.i681:                                     ; preds = %invoke.cont94
  %call1.i.i683 = invoke noundef nonnull align 8 dereferenceable(8) ptr @_ZSt16__ostream_insertIcSt11char_traitsIcEERSt13basic_ostreamIT_T0_ES6_PKS3_l(ptr noundef nonnull align 8 dereferenceable(8) %.pr1316, ptr noundef nonnull @.str.106, i64 noundef 2)
          to label %invoke.cont96 unwind label %lpad88

invoke.cont96:                                    ; preds = %if.then.i681
  %.pr1318.pr.pr = load ptr, ptr %cond-lvalue80, align 8, !tbaa !26
  %tobool.not.i685 = icmp eq ptr %.pr1318.pr.pr, null
  br i1 %tobool.not.i685, label %invoke.cont116, label %if.then.i687

if.then.i687:                                     ; preds = %invoke.cont96
  %call1.i.i689 = invoke noundef nonnull align 8 dereferenceable(8) ptr @_ZSt16__ostream_insertIcSt11char_traitsIcEERSt13basic_ostreamIT_T0_ES6_PKS3_l(ptr noundef nonnull align 8 dereferenceable(8) %.pr1318.pr.pr, ptr noundef nonnull @.str.102, i64 noundef 114)
          to label %invoke.cont98 unwind label %lpad88

invoke.cont98:                                    ; preds = %if.then.i687
  %.pr1320 = load ptr, ptr %cond-lvalue80, align 8, !tbaa !26
  %tobool.not.i691 = icmp eq ptr %.pr1320, null
  br i1 %tobool.not.i691, label %invoke.cont116, label %if.then.i693

if.then.i693:                                     ; preds = %invoke.cont98
  %call1.i.i695 = invoke noundef nonnull align 8 dereferenceable(8) ptr @_ZSt16__ostream_insertIcSt11char_traitsIcEERSt13basic_ostreamIT_T0_ES6_PKS3_l(ptr noundef nonnull align 8 dereferenceable(8) %.pr1320, ptr noundef nonnull @.str.104, i64 noundef 1)
          to label %invoke.cont100 unwind label %lpad88

invoke.cont100:                                   ; preds = %if.then.i693
  %.pr1322.pr.pr.pr = load ptr, ptr %cond-lvalue80, align 8, !tbaa !26
  %tobool.not.i697 = icmp eq ptr %.pr1322.pr.pr.pr, null
  br i1 %tobool.not.i697, label %invoke.cont116, label %if.then.i699

if.then.i699:                                     ; preds = %invoke.cont100
  %call.i698700 = invoke noundef nonnull align 8 dereferenceable(8) ptr @_ZNSolsEi(ptr noundef nonnull align 8 dereferenceable(8) %.pr1322.pr.pr.pr, i32 noundef 357)
          to label %invoke.cont104 unwind label %lpad103

invoke.cont104:                                   ; preds = %if.then.i699
  %.pr1324 = load ptr, ptr %cond-lvalue80, align 8, !tbaa !26
  %tobool.not.i702 = icmp eq ptr %.pr1324, null
  br i1 %tobool.not.i702, label %invoke.cont116, label %if.then.i704

if.then.i704:                                     ; preds = %invoke.cont104
  %call1.i.i706 = invoke noundef nonnull align 8 dereferenceable(8) ptr @_ZSt16__ostream_insertIcSt11char_traitsIcEERSt13basic_ostreamIT_T0_ES6_PKS3_l(ptr noundef nonnull align 8 dereferenceable(8) %.pr1324, ptr noundef nonnull @.str.105, i64 noundef 2)
          to label %invoke.cont106 unwind label %lpad103

invoke.cont106:                                   ; preds = %if.then.i704
  %.pr1326.pr.pr.pr = load ptr, ptr %cond-lvalue80, align 8, !tbaa !26
  %tobool.not.i708 = icmp eq ptr %.pr1326.pr.pr.pr, null
  br i1 %tobool.not.i708, label %invoke.cont116, label %if.then.i710

if.then.i710:                                     ; preds = %invoke.cont106
  %call1.i.i712 = invoke noundef nonnull align 8 dereferenceable(8) ptr @_ZSt16__ostream_insertIcSt11char_traitsIcEERSt13basic_ostreamIT_T0_ES6_PKS3_l(ptr noundef nonnull align 8 dereferenceable(8) %.pr1326.pr.pr.pr, ptr noundef nonnull @.str.107, i64 noundef 10)
          to label %invoke.cont108 unwind label %lpad103

invoke.cont108:                                   ; preds = %if.then.i710
  %.pr1328 = load ptr, ptr %cond-lvalue80, align 8, !tbaa !26
  %tobool.not.i714 = icmp eq ptr %.pr1328, null
  br i1 %tobool.not.i714, label %invoke.cont116, label %if.then.i716

if.then.i716:                                     ; preds = %invoke.cont108
  %call1.i.i718 = invoke noundef nonnull align 8 dereferenceable(8) ptr @_ZSt16__ostream_insertIcSt11char_traitsIcEERSt13basic_ostreamIT_T0_ES6_PKS3_l(ptr noundef nonnull align 8 dereferenceable(8) %.pr1328, ptr noundef nonnull @.str.108, i64 noundef 3)
          to label %invoke.cont110 unwind label %lpad103

invoke.cont110:                                   ; preds = %if.then.i716
  %.pr1330.pr.pr.pr = load ptr, ptr %cond-lvalue80, align 8, !tbaa !26
  %tobool.not.i720 = icmp eq ptr %.pr1330.pr.pr.pr, null
  br i1 %tobool.not.i720, label %invoke.cont116, label %if.then.i722

if.then.i722:                                     ; preds = %invoke.cont110
  %call1.i.i724 = invoke noundef nonnull align 8 dereferenceable(8) ptr @_ZSt16__ostream_insertIcSt11char_traitsIcEERSt13basic_ostreamIT_T0_ES6_PKS3_l(ptr noundef nonnull align 8 dereferenceable(8) %.pr1330.pr.pr.pr, ptr noundef nonnull @.str.109, i64 noundef 1)
          to label %invoke.cont112 unwind label %lpad103

invoke.cont112:                                   ; preds = %if.then.i722
  %.pr1332 = load ptr, ptr %cond-lvalue80, align 8, !tbaa !26
  %tobool.not.i726 = icmp eq ptr %.pr1332, null
  br i1 %tobool.not.i726, label %invoke.cont116, label %if.then.i728

if.then.i728:                                     ; preds = %invoke.cont112
  %call1.i.i730 = invoke noundef nonnull align 8 dereferenceable(8) ptr @_ZSt16__ostream_insertIcSt11char_traitsIcEERSt13basic_ostreamIT_T0_ES6_PKS3_l(ptr noundef nonnull align 8 dereferenceable(8) %.pr1332, ptr noundef nonnull @.str.23, i64 noundef 3)
          to label %invoke.cont114 unwind label %lpad103

invoke.cont114:                                   ; preds = %if.then.i728
  %.pr1334.pr.pr.pr = load ptr, ptr %cond-lvalue80, align 8, !tbaa !26
  %tobool.not.i732 = icmp eq ptr %.pr1334.pr.pr.pr, null
  br i1 %tobool.not.i732, label %invoke.cont116, label %if.then.i734

if.then.i734:                                     ; preds = %invoke.cont114
  %call1.i.i736 = invoke noundef nonnull align 8 dereferenceable(8) ptr @_ZSt16__ostream_insertIcSt11char_traitsIcEERSt13basic_ostreamIT_T0_ES6_PKS3_l(ptr noundef nonnull align 8 dereferenceable(8) %.pr1334.pr.pr.pr, ptr noundef nonnull @.str.110, i64 noundef 1)
          to label %invoke.cont116 unwind label %lpad103

invoke.cont116:                                   ; preds = %invoke.cont96, %invoke.cont94, %invoke.cont91, %invoke.cont89, %invoke.cont85, %invoke.cont83, %invoke.cont81, %cond.end79, %invoke.cont104, %invoke.cont106, %invoke.cont98, %invoke.cont100, %invoke.cont110, %invoke.cont108, %invoke.cont112, %invoke.cont114, %if.then.i734
  %call.i738740 = invoke noundef double @_ZNK7Results5GetAsIdEET_PKc(ptr noundef nonnull align 8 dereferenceable(80) %e, ptr noundef nonnull @.str.23)
          to label %invoke.cont120 unwind label %lpad119

invoke.cont120:                                   ; preds = %invoke.cont116
  %18 = load ptr, ptr %cond-lvalue80, align 8, !tbaa !26
  %tobool.not.i742 = icmp eq ptr %18, null
  br i1 %tobool.not.i742, label %invoke.cont130, label %if.then.i744

if.then.i744:                                     ; preds = %invoke.cont120
  %conv.i739 = fptosi double %call.i738740 to i32
  %call.i743745 = invoke noundef nonnull align 8 dereferenceable(8) ptr @_ZNSolsEi(ptr noundef nonnull align 8 dereferenceable(8) %18, i32 noundef %conv.i739)
          to label %invoke.cont122 unwind label %lpad119

invoke.cont122:                                   ; preds = %if.then.i744
  %.pr1336 = load ptr, ptr %cond-lvalue80, align 8, !tbaa !26
  %tobool.not.i747 = icmp eq ptr %.pr1336, null
  br i1 %tobool.not.i747, label %invoke.cont130, label %if.then.i749

if.then.i749:                                     ; preds = %invoke.cont122
  %call1.i.i751 = invoke noundef nonnull align 8 dereferenceable(8) ptr @_ZSt16__ostream_insertIcSt11char_traitsIcEERSt13basic_ostreamIT_T0_ES6_PKS3_l(ptr noundef nonnull align 8 dereferenceable(8) %.pr1336, ptr noundef nonnull @.str.111, i64 noundef 13)
          to label %invoke.cont124 unwind label %lpad119

invoke.cont124:                                   ; preds = %if.then.i749
  %.pr1338 = load ptr, ptr %cond-lvalue80, align 8, !tbaa !26
  %tobool.not.i753 = icmp eq ptr %.pr1338, null
  br i1 %tobool.not.i753, label %invoke.cont130, label %if.then.i755

if.then.i755:                                     ; preds = %invoke.cont124
  %call.i754756 = invoke noundef nonnull align 8 dereferenceable(8) ptr @_ZNSolsEi(ptr noundef nonnull align 8 dereferenceable(8) %.pr1338, i32 noundef 2)
          to label %invoke.cont128 unwind label %lpad127

invoke.cont128:                                   ; preds = %if.then.i755
  %.pr1340.pr = load ptr, ptr %cond-lvalue80, align 8, !tbaa !26
  %tobool.not.i758 = icmp eq ptr %.pr1340.pr, null
  br i1 %tobool.not.i758, label %invoke.cont130, label %if.then.i760

if.then.i760:                                     ; preds = %invoke.cont128
  %call1.i.i762 = invoke noundef nonnull align 8 dereferenceable(8) ptr @_ZSt16__ostream_insertIcSt11char_traitsIcEERSt13basic_ostreamIT_T0_ES6_PKS3_l(ptr noundef nonnull align 8 dereferenceable(8) %.pr1340.pr, ptr noundef nonnull @.str.103, i64 noundef 1)
          to label %invoke.cont130 unwind label %lpad127

invoke.cont130:                                   ; preds = %invoke.cont122, %invoke.cont120, %invoke.cont124, %invoke.cont128, %if.then.i760
  br i1 %cmp69.not, label %cleanup.done146, label %cleanup.action137

cleanup.action137:                                ; preds = %invoke.cont130
  call void @_ZN9benchmark8internal12CheckHandlerD2Ev(ptr noundef nonnull align 8 dereferenceable(8) %ref.tmp73) #23
  unreachable

ehcleanup56:                                      ; preds = %lpad11, %lpad41, %lpad49, %lpad25, %lpad
  %.pn.pn.pn.pn = phi { ptr, i32 } [ %7, %lpad ], [ %8, %lpad11 ], [ %9, %lpad25 ], [ %11, %lpad49 ], [ %10, %lpad41 ]
  br i1 %cmp.not, label %eh.resume, label %cleanup.action473.invoke

lpad76:                                           ; preds = %if.then.i658, %if.then.i652, %if.then.i646
  %19 = landingpad { ptr, i32 }
          cleanup
  br label %ehcleanup139

lpad88:                                           ; preds = %if.then.i693, %if.then.i687, %if.then.i681, %if.then.i675, %if.then.i669, %if.then.i664
  %20 = landingpad { ptr, i32 }
          cleanup
  br label %ehcleanup139

lpad103:                                          ; preds = %if.then.i734, %if.then.i728, %if.then.i722, %if.then.i716, %if.then.i710, %if.then.i704, %if.then.i699
  %21 = landingpad { ptr, i32 }
          cleanup
  br label %ehcleanup139

lpad119:                                          ; preds = %if.then.i749, %if.then.i744, %invoke.cont116
  %22 = landingpad { ptr, i32 }
          cleanup
  br label %ehcleanup139

lpad127:                                          ; preds = %if.then.i760, %if.then.i755
  %23 = landingpad { ptr, i32 }
          cleanup
  br label %ehcleanup139

cleanup.done146:                                  ; preds = %invoke.cont130
  %call.i764 = call noundef double @_ZNK7Results5GetAsIdEET_PKc(ptr noundef nonnull align 8 dereferenceable(80) %e, ptr noundef nonnull @.str.24)
  %conv.i765 = fptosi double %call.i764 to i32
  %cmp152.not = icmp eq i32 %conv.i765, 4
  br i1 %cmp152.not, label %cond.true153, label %cond.false155

cond.true153:                                     ; preds = %cleanup.done146
  %24 = load atomic i8, ptr @_ZGVZN9benchmark8internal18GetNullLogInstanceEvE3log acquire, align 8
  %guard.uninitialized.i766 = icmp eq i8 %24, 0
  br i1 %guard.uninitialized.i766, label %init.check.i768, label %cond.end162, !prof !25

init.check.i768:                                  ; preds = %cond.true153
  %25 = call i32 @__cxa_guard_acquire(ptr nonnull @_ZGVZN9benchmark8internal18GetNullLogInstanceEvE3log) #21
  %tobool.not.i767 = icmp eq i32 %25, 0
  br i1 %tobool.not.i767, label %cond.end162, label %init.i769

init.i769:                                        ; preds = %init.check.i768
  store ptr null, ptr @_ZZN9benchmark8internal18GetNullLogInstanceEvE3log, align 8, !tbaa !26
  call void @__cxa_guard_release(ptr nonnull @_ZGVZN9benchmark8internal18GetNullLogInstanceEvE3log) #21
  br label %cond.end162

cond.false155:                                    ; preds = %cleanup.done146
  call void @llvm.lifetime.start.p0(i64 8, ptr nonnull %ref.tmp156) #21
  call void @_ZN9benchmark8internal12CheckHandlerC2EPKcS3_S3_i(ptr noundef nonnull align 8 dereferenceable(8) %ref.tmp156, ptr noundef nonnull @.str.113, ptr noundef nonnull @.str.102, ptr noundef nonnull @__func__._Z12CheckTabularRK7Results, i32 noundef 358)
  %26 = load ptr, ptr %ref.tmp156, align 8, !tbaa !28
  br label %cond.end162

cond.end162:                                      ; preds = %init.i769, %init.check.i768, %cond.true153, %cond.false155
  %cond-lvalue163 = phi ptr [ %26, %cond.false155 ], [ @_ZZN9benchmark8internal18GetNullLogInstanceEvE3log, %cond.true153 ], [ @_ZZN9benchmark8internal18GetNullLogInstanceEvE3log, %init.check.i768 ], [ @_ZZN9benchmark8internal18GetNullLogInstanceEvE3log, %init.i769 ]
  %27 = load ptr, ptr %cond-lvalue163, align 8, !tbaa !26
  %tobool.not.i771 = icmp eq ptr %27, null
  br i1 %tobool.not.i771, label %invoke.cont199, label %if.then.i773

if.then.i773:                                     ; preds = %cond.end162
  %call1.i.i775 = invoke noundef nonnull align 8 dereferenceable(8) ptr @_ZSt16__ostream_insertIcSt11char_traitsIcEERSt13basic_ostreamIT_T0_ES6_PKS3_l(ptr noundef nonnull align 8 dereferenceable(8) %27, ptr noundef nonnull @.str.103, i64 noundef 1)
          to label %invoke.cont164 unwind label %lpad159

invoke.cont164:                                   ; preds = %if.then.i773
  %.pr1342 = load ptr, ptr %cond-lvalue163, align 8, !tbaa !26
  %tobool.not.i777 = icmp eq ptr %.pr1342, null
  br i1 %tobool.not.i777, label %invoke.cont199, label %if.then.i779

if.then.i779:                                     ; preds = %invoke.cont164
  %call1.i.i781 = invoke noundef nonnull align 8 dereferenceable(8) ptr @_ZSt16__ostream_insertIcSt11char_traitsIcEERSt13basic_ostreamIT_T0_ES6_PKS3_l(ptr noundef nonnull align 8 dereferenceable(8) %.pr1342, ptr noundef nonnull @.str.102, i64 noundef 114)
          to label %invoke.cont166 unwind label %lpad159

invoke.cont166:                                   ; preds = %if.then.i779
  %.pr1344 = load ptr, ptr %cond-lvalue163, align 8, !tbaa !26
  %tobool.not.i783 = icmp eq ptr %.pr1344, null
  br i1 %tobool.not.i783, label %invoke.cont199, label %if.then.i785

if.then.i785:                                     ; preds = %invoke.cont166
  %call1.i.i787 = invoke noundef nonnull align 8 dereferenceable(8) ptr @_ZSt16__ostream_insertIcSt11char_traitsIcEERSt13basic_ostreamIT_T0_ES6_PKS3_l(ptr noundef nonnull align 8 dereferenceable(8) %.pr1344, ptr noundef nonnull @.str.104, i64 noundef 1)
          to label %invoke.cont168 unwind label %lpad159

invoke.cont168:                                   ; preds = %if.then.i785
  %.pr1346.pr = load ptr, ptr %cond-lvalue163, align 8, !tbaa !26
  %tobool.not.i789 = icmp eq ptr %.pr1346.pr, null
  br i1 %tobool.not.i789, label %invoke.cont199, label %if.then.i791

if.then.i791:                                     ; preds = %invoke.cont168
  %call.i790792 = invoke noundef nonnull align 8 dereferenceable(8) ptr @_ZNSolsEi(ptr noundef nonnull align 8 dereferenceable(8) %.pr1346.pr, i32 noundef 358)
          to label %invoke.cont172 unwind label %lpad171

invoke.cont172:                                   ; preds = %if.then.i791
  %.pr1348 = load ptr, ptr %cond-lvalue163, align 8, !tbaa !26
  %tobool.not.i794 = icmp eq ptr %.pr1348, null
  br i1 %tobool.not.i794, label %invoke.cont199, label %if.then.i796

if.then.i796:                                     ; preds = %invoke.cont172
  %call1.i.i798 = invoke noundef nonnull align 8 dereferenceable(8) ptr @_ZSt16__ostream_insertIcSt11char_traitsIcEERSt13basic_ostreamIT_T0_ES6_PKS3_l(ptr noundef nonnull align 8 dereferenceable(8) %.pr1348, ptr noundef nonnull @.str.105, i64 noundef 2)
          to label %invoke.cont174 unwind label %lpad171

invoke.cont174:                                   ; preds = %if.then.i796
  %.pr1350.pr.pr = load ptr, ptr %cond-lvalue163, align 8, !tbaa !26
  %tobool.not.i800 = icmp eq ptr %.pr1350.pr.pr, null
  br i1 %tobool.not.i800, label %invoke.cont199, label %if.then.i802

if.then.i802:                                     ; preds = %invoke.cont174
  %28 = load ptr, ptr %e, align 8, !tbaa !24
  %_M_string_length.i.i.i801 = getelementptr inbounds %"class.std::__cxx11::basic_string", ptr %e, i64 0, i32 1
  %29 = load i64, ptr %_M_string_length.i.i.i801, align 8, !tbaa !10
  %call2.i.i804 = invoke noundef nonnull align 8 dereferenceable(8) ptr @_ZSt16__ostream_insertIcSt11char_traitsIcEERSt13basic_ostreamIT_T0_ES6_PKS3_l(ptr noundef nonnull align 8 dereferenceable(8) %.pr1350.pr.pr, ptr noundef %28, i64 noundef %29)
          to label %invoke.cont177 unwind label %lpad171

invoke.cont177:                                   ; preds = %if.then.i802
  %.pr1352 = load ptr, ptr %cond-lvalue163, align 8, !tbaa !26
  %tobool.not.i806 = icmp eq ptr %.pr1352, null
  br i1 %tobool.not.i806, label %invoke.cont199, label %if.then.i808

if.then.i808:                                     ; preds = %invoke.cont177
  %call1.i.i810 = invoke noundef nonnull align 8 dereferenceable(8) ptr @_ZSt16__ostream_insertIcSt11char_traitsIcEERSt13basic_ostreamIT_T0_ES6_PKS3_l(ptr noundef nonnull align 8 dereferenceable(8) %.pr1352, ptr noundef nonnull @.str.106, i64 noundef 2)
          to label %invoke.cont179 unwind label %lpad171

invoke.cont179:                                   ; preds = %if.then.i808
  %.pr1354.pr.pr = load ptr, ptr %cond-lvalue163, align 8, !tbaa !26
  %tobool.not.i812 = icmp eq ptr %.pr1354.pr.pr, null
  br i1 %tobool.not.i812, label %invoke.cont199, label %if.then.i814

if.then.i814:                                     ; preds = %invoke.cont179
  %call1.i.i816 = invoke noundef nonnull align 8 dereferenceable(8) ptr @_ZSt16__ostream_insertIcSt11char_traitsIcEERSt13basic_ostreamIT_T0_ES6_PKS3_l(ptr noundef nonnull align 8 dereferenceable(8) %.pr1354.pr.pr, ptr noundef nonnull @.str.102, i64 noundef 114)
          to label %invoke.cont181 unwind label %lpad171

invoke.cont181:                                   ; preds = %if.then.i814
  %.pr1356 = load ptr, ptr %cond-lvalue163, align 8, !tbaa !26
  %tobool.not.i818 = icmp eq ptr %.pr1356, null
  br i1 %tobool.not.i818, label %invoke.cont199, label %if.then.i820

if.then.i820:                                     ; preds = %invoke.cont181
  %call1.i.i822 = invoke noundef nonnull align 8 dereferenceable(8) ptr @_ZSt16__ostream_insertIcSt11char_traitsIcEERSt13basic_ostreamIT_T0_ES6_PKS3_l(ptr noundef nonnull align 8 dereferenceable(8) %.pr1356, ptr noundef nonnull @.str.104, i64 noundef 1)
          to label %invoke.cont183 unwind label %lpad171

invoke.cont183:                                   ; preds = %if.then.i820
  %.pr1358.pr.pr.pr = load ptr, ptr %cond-lvalue163, align 8, !tbaa !26
  %tobool.not.i824 = icmp eq ptr %.pr1358.pr.pr.pr, null
  br i1 %tobool.not.i824, label %invoke.cont199, label %if.then.i826

if.then.i826:                                     ; preds = %invoke.cont183
  %call.i825827 = invoke noundef nonnull align 8 dereferenceable(8) ptr @_ZNSolsEi(ptr noundef nonnull align 8 dereferenceable(8) %.pr1358.pr.pr.pr, i32 noundef 358)
          to label %invoke.cont187 unwind label %lpad186

invoke.cont187:                                   ; preds = %if.then.i826
  %.pr1360 = load ptr, ptr %cond-lvalue163, align 8, !tbaa !26
  %tobool.not.i829 = icmp eq ptr %.pr1360, null
  br i1 %tobool.not.i829, label %invoke.cont199, label %if.then.i831

if.then.i831:                                     ; preds = %invoke.cont187
  %call1.i.i833 = invoke noundef nonnull align 8 dereferenceable(8) ptr @_ZSt16__ostream_insertIcSt11char_traitsIcEERSt13basic_ostreamIT_T0_ES6_PKS3_l(ptr noundef nonnull align 8 dereferenceable(8) %.pr1360, ptr noundef nonnull @.str.105, i64 noundef 2)
          to label %invoke.cont189 unwind label %lpad186

invoke.cont189:                                   ; preds = %if.then.i831
  %.pr1362.pr.pr.pr = load ptr, ptr %cond-lvalue163, align 8, !tbaa !26
  %tobool.not.i835 = icmp eq ptr %.pr1362.pr.pr.pr, null
  br i1 %tobool.not.i835, label %invoke.cont199, label %if.then.i837

if.then.i837:                                     ; preds = %invoke.cont189
  %call1.i.i839 = invoke noundef nonnull align 8 dereferenceable(8) ptr @_ZSt16__ostream_insertIcSt11char_traitsIcEERSt13basic_ostreamIT_T0_ES6_PKS3_l(ptr noundef nonnull align 8 dereferenceable(8) %.pr1362.pr.pr.pr, ptr noundef nonnull @.str.107, i64 noundef 10)
          to label %invoke.cont191 unwind label %lpad186

invoke.cont191:                                   ; preds = %if.then.i837
  %.pr1364 = load ptr, ptr %cond-lvalue163, align 8, !tbaa !26
  %tobool.not.i841 = icmp eq ptr %.pr1364, null
  br i1 %tobool.not.i841, label %invoke.cont199, label %if.then.i843

if.then.i843:                                     ; preds = %invoke.cont191
  %call1.i.i845 = invoke noundef nonnull align 8 dereferenceable(8) ptr @_ZSt16__ostream_insertIcSt11char_traitsIcEERSt13basic_ostreamIT_T0_ES6_PKS3_l(ptr noundef nonnull align 8 dereferenceable(8) %.pr1364, ptr noundef nonnull @.str.108, i64 noundef 3)
          to label %invoke.cont193 unwind label %lpad186

invoke.cont193:                                   ; preds = %if.then.i843
  %.pr1366.pr.pr.pr = load ptr, ptr %cond-lvalue163, align 8, !tbaa !26
  %tobool.not.i847 = icmp eq ptr %.pr1366.pr.pr.pr, null
  br i1 %tobool.not.i847, label %invoke.cont199, label %if.then.i849

if.then.i849:                                     ; preds = %invoke.cont193
  %call1.i.i851 = invoke noundef nonnull align 8 dereferenceable(8) ptr @_ZSt16__ostream_insertIcSt11char_traitsIcEERSt13basic_ostreamIT_T0_ES6_PKS3_l(ptr noundef nonnull align 8 dereferenceable(8) %.pr1366.pr.pr.pr, ptr noundef nonnull @.str.109, i64 noundef 1)
          to label %invoke.cont195 unwind label %lpad186

invoke.cont195:                                   ; preds = %if.then.i849
  %.pr1368 = load ptr, ptr %cond-lvalue163, align 8, !tbaa !26
  %tobool.not.i853 = icmp eq ptr %.pr1368, null
  br i1 %tobool.not.i853, label %invoke.cont199, label %if.then.i855

if.then.i855:                                     ; preds = %invoke.cont195
  %call1.i.i857 = invoke noundef nonnull align 8 dereferenceable(8) ptr @_ZSt16__ostream_insertIcSt11char_traitsIcEERSt13basic_ostreamIT_T0_ES6_PKS3_l(ptr noundef nonnull align 8 dereferenceable(8) %.pr1368, ptr noundef nonnull @.str.24, i64 noundef 3)
          to label %invoke.cont197 unwind label %lpad186

invoke.cont197:                                   ; preds = %if.then.i855
  %.pr1370.pr.pr.pr = load ptr, ptr %cond-lvalue163, align 8, !tbaa !26
  %tobool.not.i859 = icmp eq ptr %.pr1370.pr.pr.pr, null
  br i1 %tobool.not.i859, label %invoke.cont199, label %if.then.i861

if.then.i861:                                     ; preds = %invoke.cont197
  %call1.i.i863 = invoke noundef nonnull align 8 dereferenceable(8) ptr @_ZSt16__ostream_insertIcSt11char_traitsIcEERSt13basic_ostreamIT_T0_ES6_PKS3_l(ptr noundef nonnull align 8 dereferenceable(8) %.pr1370.pr.pr.pr, ptr noundef nonnull @.str.110, i64 noundef 1)
          to label %invoke.cont199 unwind label %lpad186

invoke.cont199:                                   ; preds = %invoke.cont179, %invoke.cont177, %invoke.cont174, %invoke.cont172, %invoke.cont168, %invoke.cont166, %invoke.cont164, %cond.end162, %invoke.cont187, %invoke.cont189, %invoke.cont181, %invoke.cont183, %invoke.cont193, %invoke.cont191, %invoke.cont195, %invoke.cont197, %if.then.i861
  %call.i865867 = invoke noundef double @_ZNK7Results5GetAsIdEET_PKc(ptr noundef nonnull align 8 dereferenceable(80) %e, ptr noundef nonnull @.str.24)
          to label %invoke.cont203 unwind label %lpad202

invoke.cont203:                                   ; preds = %invoke.cont199
  %30 = load ptr, ptr %cond-lvalue163, align 8, !tbaa !26
  %tobool.not.i869 = icmp eq ptr %30, null
  br i1 %tobool.not.i869, label %invoke.cont213, label %if.then.i871

if.then.i871:                                     ; preds = %invoke.cont203
  %conv.i866 = fptosi double %call.i865867 to i32
  %call.i870872 = invoke noundef nonnull align 8 dereferenceable(8) ptr @_ZNSolsEi(ptr noundef nonnull align 8 dereferenceable(8) %30, i32 noundef %conv.i866)
          to label %invoke.cont205 unwind label %lpad202

invoke.cont205:                                   ; preds = %if.then.i871
  %.pr1372 = load ptr, ptr %cond-lvalue163, align 8, !tbaa !26
  %tobool.not.i874 = icmp eq ptr %.pr1372, null
  br i1 %tobool.not.i874, label %invoke.cont213, label %if.then.i876

if.then.i876:                                     ; preds = %invoke.cont205
  %call1.i.i878 = invoke noundef nonnull align 8 dereferenceable(8) ptr @_ZSt16__ostream_insertIcSt11char_traitsIcEERSt13basic_ostreamIT_T0_ES6_PKS3_l(ptr noundef nonnull align 8 dereferenceable(8) %.pr1372, ptr noundef nonnull @.str.111, i64 noundef 13)
          to label %invoke.cont207 unwind label %lpad202

invoke.cont207:                                   ; preds = %if.then.i876
  %.pr1374 = load ptr, ptr %cond-lvalue163, align 8, !tbaa !26
  %tobool.not.i880 = icmp eq ptr %.pr1374, null
  br i1 %tobool.not.i880, label %invoke.cont213, label %if.then.i882

if.then.i882:                                     ; preds = %invoke.cont207
  %call.i881883 = invoke noundef nonnull align 8 dereferenceable(8) ptr @_ZNSolsEi(ptr noundef nonnull align 8 dereferenceable(8) %.pr1374, i32 noundef 4)
          to label %invoke.cont211 unwind label %lpad210

invoke.cont211:                                   ; preds = %if.then.i882
  %.pr1376.pr = load ptr, ptr %cond-lvalue163, align 8, !tbaa !26
  %tobool.not.i885 = icmp eq ptr %.pr1376.pr, null
  br i1 %tobool.not.i885, label %invoke.cont213, label %if.then.i887

if.then.i887:                                     ; preds = %invoke.cont211
  %call1.i.i889 = invoke noundef nonnull align 8 dereferenceable(8) ptr @_ZSt16__ostream_insertIcSt11char_traitsIcEERSt13basic_ostreamIT_T0_ES6_PKS3_l(ptr noundef nonnull align 8 dereferenceable(8) %.pr1376.pr, ptr noundef nonnull @.str.103, i64 noundef 1)
          to label %invoke.cont213 unwind label %lpad210

invoke.cont213:                                   ; preds = %invoke.cont205, %invoke.cont203, %invoke.cont207, %invoke.cont211, %if.then.i887
  br i1 %cmp152.not, label %cleanup.done229, label %cleanup.action220

cleanup.action220:                                ; preds = %invoke.cont213
  call void @_ZN9benchmark8internal12CheckHandlerD2Ev(ptr noundef nonnull align 8 dereferenceable(8) %ref.tmp156) #23
  unreachable

ehcleanup139:                                     ; preds = %lpad88, %lpad119, %lpad127, %lpad103, %lpad76
  %.pn505.pn.pn.pn = phi { ptr, i32 } [ %19, %lpad76 ], [ %20, %lpad88 ], [ %21, %lpad103 ], [ %23, %lpad127 ], [ %22, %lpad119 ]
  br i1 %cmp69.not, label %eh.resume, label %cleanup.action473.invoke

lpad159:                                          ; preds = %if.then.i785, %if.then.i779, %if.then.i773
  %31 = landingpad { ptr, i32 }
          cleanup
  br label %ehcleanup222

lpad171:                                          ; preds = %if.then.i820, %if.then.i814, %if.then.i808, %if.then.i802, %if.then.i796, %if.then.i791
  %32 = landingpad { ptr, i32 }
          cleanup
  br label %ehcleanup222

lpad186:                                          ; preds = %if.then.i861, %if.then.i855, %if.then.i849, %if.then.i843, %if.then.i837, %if.then.i831, %if.then.i826
  %33 = landingpad { ptr, i32 }
          cleanup
  br label %ehcleanup222

lpad202:                                          ; preds = %if.then.i876, %if.then.i871, %invoke.cont199
  %34 = landingpad { ptr, i32 }
          cleanup
  br label %ehcleanup222

lpad210:                                          ; preds = %if.then.i887, %if.then.i882
  %35 = landingpad { ptr, i32 }
          cleanup
  br label %ehcleanup222

cleanup.done229:                                  ; preds = %invoke.cont213
  %call.i891 = call noundef double @_ZNK7Results5GetAsIdEET_PKc(ptr noundef nonnull align 8 dereferenceable(80) %e, ptr noundef nonnull @.str.25)
  %conv.i892 = fptosi double %call.i891 to i32
  %cmp235.not = icmp eq i32 %conv.i892, 8
  br i1 %cmp235.not, label %cond.true236, label %cond.false238

cond.true236:                                     ; preds = %cleanup.done229
  %36 = load atomic i8, ptr @_ZGVZN9benchmark8internal18GetNullLogInstanceEvE3log acquire, align 8
  %guard.uninitialized.i893 = icmp eq i8 %36, 0
  br i1 %guard.uninitialized.i893, label %init.check.i895, label %cond.end245, !prof !25

init.check.i895:                                  ; preds = %cond.true236
  %37 = call i32 @__cxa_guard_acquire(ptr nonnull @_ZGVZN9benchmark8internal18GetNullLogInstanceEvE3log) #21
  %tobool.not.i894 = icmp eq i32 %37, 0
  br i1 %tobool.not.i894, label %cond.end245, label %init.i896

init.i896:                                        ; preds = %init.check.i895
  store ptr null, ptr @_ZZN9benchmark8internal18GetNullLogInstanceEvE3log, align 8, !tbaa !26
  call void @__cxa_guard_release(ptr nonnull @_ZGVZN9benchmark8internal18GetNullLogInstanceEvE3log) #21
  br label %cond.end245

cond.false238:                                    ; preds = %cleanup.done229
  call void @llvm.lifetime.start.p0(i64 8, ptr nonnull %ref.tmp239) #21
  call void @_ZN9benchmark8internal12CheckHandlerC2EPKcS3_S3_i(ptr noundef nonnull align 8 dereferenceable(8) %ref.tmp239, ptr noundef nonnull @.str.114, ptr noundef nonnull @.str.102, ptr noundef nonnull @__func__._Z12CheckTabularRK7Results, i32 noundef 359)
  %38 = load ptr, ptr %ref.tmp239, align 8, !tbaa !28
  br label %cond.end245

cond.end245:                                      ; preds = %init.i896, %init.check.i895, %cond.true236, %cond.false238
  %cond-lvalue246 = phi ptr [ %38, %cond.false238 ], [ @_ZZN9benchmark8internal18GetNullLogInstanceEvE3log, %cond.true236 ], [ @_ZZN9benchmark8internal18GetNullLogInstanceEvE3log, %init.check.i895 ], [ @_ZZN9benchmark8internal18GetNullLogInstanceEvE3log, %init.i896 ]
  %39 = load ptr, ptr %cond-lvalue246, align 8, !tbaa !26
  %tobool.not.i898 = icmp eq ptr %39, null
  br i1 %tobool.not.i898, label %invoke.cont282, label %if.then.i900

if.then.i900:                                     ; preds = %cond.end245
  %call1.i.i902 = invoke noundef nonnull align 8 dereferenceable(8) ptr @_ZSt16__ostream_insertIcSt11char_traitsIcEERSt13basic_ostreamIT_T0_ES6_PKS3_l(ptr noundef nonnull align 8 dereferenceable(8) %39, ptr noundef nonnull @.str.103, i64 noundef 1)
          to label %invoke.cont247 unwind label %lpad242

invoke.cont247:                                   ; preds = %if.then.i900
  %.pr1378 = load ptr, ptr %cond-lvalue246, align 8, !tbaa !26
  %tobool.not.i904 = icmp eq ptr %.pr1378, null
  br i1 %tobool.not.i904, label %invoke.cont282, label %if.then.i906

if.then.i906:                                     ; preds = %invoke.cont247
  %call1.i.i908 = invoke noundef nonnull align 8 dereferenceable(8) ptr @_ZSt16__ostream_insertIcSt11char_traitsIcEERSt13basic_ostreamIT_T0_ES6_PKS3_l(ptr noundef nonnull align 8 dereferenceable(8) %.pr1378, ptr noundef nonnull @.str.102, i64 noundef 114)
          to label %invoke.cont249 unwind label %lpad242

invoke.cont249:                                   ; preds = %if.then.i906
  %.pr1380 = load ptr, ptr %cond-lvalue246, align 8, !tbaa !26
  %tobool.not.i910 = icmp eq ptr %.pr1380, null
  br i1 %tobool.not.i910, label %invoke.cont282, label %if.then.i912

if.then.i912:                                     ; preds = %invoke.cont249
  %call1.i.i914 = invoke noundef nonnull align 8 dereferenceable(8) ptr @_ZSt16__ostream_insertIcSt11char_traitsIcEERSt13basic_ostreamIT_T0_ES6_PKS3_l(ptr noundef nonnull align 8 dereferenceable(8) %.pr1380, ptr noundef nonnull @.str.104, i64 noundef 1)
          to label %invoke.cont251 unwind label %lpad242

invoke.cont251:                                   ; preds = %if.then.i912
  %.pr1382.pr = load ptr, ptr %cond-lvalue246, align 8, !tbaa !26
  %tobool.not.i916 = icmp eq ptr %.pr1382.pr, null
  br i1 %tobool.not.i916, label %invoke.cont282, label %if.then.i918

if.then.i918:                                     ; preds = %invoke.cont251
  %call.i917919 = invoke noundef nonnull align 8 dereferenceable(8) ptr @_ZNSolsEi(ptr noundef nonnull align 8 dereferenceable(8) %.pr1382.pr, i32 noundef 359)
          to label %invoke.cont255 unwind label %lpad254

invoke.cont255:                                   ; preds = %if.then.i918
  %.pr1384 = load ptr, ptr %cond-lvalue246, align 8, !tbaa !26
  %tobool.not.i921 = icmp eq ptr %.pr1384, null
  br i1 %tobool.not.i921, label %invoke.cont282, label %if.then.i923

if.then.i923:                                     ; preds = %invoke.cont255
  %call1.i.i925 = invoke noundef nonnull align 8 dereferenceable(8) ptr @_ZSt16__ostream_insertIcSt11char_traitsIcEERSt13basic_ostreamIT_T0_ES6_PKS3_l(ptr noundef nonnull align 8 dereferenceable(8) %.pr1384, ptr noundef nonnull @.str.105, i64 noundef 2)
          to label %invoke.cont257 unwind label %lpad254

invoke.cont257:                                   ; preds = %if.then.i923
  %.pr1386.pr.pr = load ptr, ptr %cond-lvalue246, align 8, !tbaa !26
  %tobool.not.i927 = icmp eq ptr %.pr1386.pr.pr, null
  br i1 %tobool.not.i927, label %invoke.cont282, label %if.then.i929

if.then.i929:                                     ; preds = %invoke.cont257
  %40 = load ptr, ptr %e, align 8, !tbaa !24
  %_M_string_length.i.i.i928 = getelementptr inbounds %"class.std::__cxx11::basic_string", ptr %e, i64 0, i32 1
  %41 = load i64, ptr %_M_string_length.i.i.i928, align 8, !tbaa !10
  %call2.i.i931 = invoke noundef nonnull align 8 dereferenceable(8) ptr @_ZSt16__ostream_insertIcSt11char_traitsIcEERSt13basic_ostreamIT_T0_ES6_PKS3_l(ptr noundef nonnull align 8 dereferenceable(8) %.pr1386.pr.pr, ptr noundef %40, i64 noundef %41)
          to label %invoke.cont260 unwind label %lpad254

invoke.cont260:                                   ; preds = %if.then.i929
  %.pr1388 = load ptr, ptr %cond-lvalue246, align 8, !tbaa !26
  %tobool.not.i933 = icmp eq ptr %.pr1388, null
  br i1 %tobool.not.i933, label %invoke.cont282, label %if.then.i935

if.then.i935:                                     ; preds = %invoke.cont260
  %call1.i.i937 = invoke noundef nonnull align 8 dereferenceable(8) ptr @_ZSt16__ostream_insertIcSt11char_traitsIcEERSt13basic_ostreamIT_T0_ES6_PKS3_l(ptr noundef nonnull align 8 dereferenceable(8) %.pr1388, ptr noundef nonnull @.str.106, i64 noundef 2)
          to label %invoke.cont262 unwind label %lpad254

invoke.cont262:                                   ; preds = %if.then.i935
  %.pr1390.pr.pr = load ptr, ptr %cond-lvalue246, align 8, !tbaa !26
  %tobool.not.i939 = icmp eq ptr %.pr1390.pr.pr, null
  br i1 %tobool.not.i939, label %invoke.cont282, label %if.then.i941

if.then.i941:                                     ; preds = %invoke.cont262
  %call1.i.i943 = invoke noundef nonnull align 8 dereferenceable(8) ptr @_ZSt16__ostream_insertIcSt11char_traitsIcEERSt13basic_ostreamIT_T0_ES6_PKS3_l(ptr noundef nonnull align 8 dereferenceable(8) %.pr1390.pr.pr, ptr noundef nonnull @.str.102, i64 noundef 114)
          to label %invoke.cont264 unwind label %lpad254

invoke.cont264:                                   ; preds = %if.then.i941
  %.pr1392 = load ptr, ptr %cond-lvalue246, align 8, !tbaa !26
  %tobool.not.i945 = icmp eq ptr %.pr1392, null
  br i1 %tobool.not.i945, label %invoke.cont282, label %if.then.i947

if.then.i947:                                     ; preds = %invoke.cont264
  %call1.i.i949 = invoke noundef nonnull align 8 dereferenceable(8) ptr @_ZSt16__ostream_insertIcSt11char_traitsIcEERSt13basic_ostreamIT_T0_ES6_PKS3_l(ptr noundef nonnull align 8 dereferenceable(8) %.pr1392, ptr noundef nonnull @.str.104, i64 noundef 1)
          to label %invoke.cont266 unwind label %lpad254

invoke.cont266:                                   ; preds = %if.then.i947
  %.pr1394.pr.pr.pr = load ptr, ptr %cond-lvalue246, align 8, !tbaa !26
  %tobool.not.i951 = icmp eq ptr %.pr1394.pr.pr.pr, null
  br i1 %tobool.not.i951, label %invoke.cont282, label %if.then.i953

if.then.i953:                                     ; preds = %invoke.cont266
  %call.i952954 = invoke noundef nonnull align 8 dereferenceable(8) ptr @_ZNSolsEi(ptr noundef nonnull align 8 dereferenceable(8) %.pr1394.pr.pr.pr, i32 noundef 359)
          to label %invoke.cont270 unwind label %lpad269

invoke.cont270:                                   ; preds = %if.then.i953
  %.pr1396 = load ptr, ptr %cond-lvalue246, align 8, !tbaa !26
  %tobool.not.i956 = icmp eq ptr %.pr1396, null
  br i1 %tobool.not.i956, label %invoke.cont282, label %if.then.i958

if.then.i958:                                     ; preds = %invoke.cont270
  %call1.i.i960 = invoke noundef nonnull align 8 dereferenceable(8) ptr @_ZSt16__ostream_insertIcSt11char_traitsIcEERSt13basic_ostreamIT_T0_ES6_PKS3_l(ptr noundef nonnull align 8 dereferenceable(8) %.pr1396, ptr noundef nonnull @.str.105, i64 noundef 2)
          to label %invoke.cont272 unwind label %lpad269

invoke.cont272:                                   ; preds = %if.then.i958
  %.pr1398.pr.pr.pr = load ptr, ptr %cond-lvalue246, align 8, !tbaa !26
  %tobool.not.i962 = icmp eq ptr %.pr1398.pr.pr.pr, null
  br i1 %tobool.not.i962, label %invoke.cont282, label %if.then.i964

if.then.i964:                                     ; preds = %invoke.cont272
  %call1.i.i966 = invoke noundef nonnull align 8 dereferenceable(8) ptr @_ZSt16__ostream_insertIcSt11char_traitsIcEERSt13basic_ostreamIT_T0_ES6_PKS3_l(ptr noundef nonnull align 8 dereferenceable(8) %.pr1398.pr.pr.pr, ptr noundef nonnull @.str.107, i64 noundef 10)
          to label %invoke.cont274 unwind label %lpad269

invoke.cont274:                                   ; preds = %if.then.i964
  %.pr1400 = load ptr, ptr %cond-lvalue246, align 8, !tbaa !26
  %tobool.not.i968 = icmp eq ptr %.pr1400, null
  br i1 %tobool.not.i968, label %invoke.cont282, label %if.then.i970

if.then.i970:                                     ; preds = %invoke.cont274
  %call1.i.i972 = invoke noundef nonnull align 8 dereferenceable(8) ptr @_ZSt16__ostream_insertIcSt11char_traitsIcEERSt13basic_ostreamIT_T0_ES6_PKS3_l(ptr noundef nonnull align 8 dereferenceable(8) %.pr1400, ptr noundef nonnull @.str.108, i64 noundef 3)
          to label %invoke.cont276 unwind label %lpad269

invoke.cont276:                                   ; preds = %if.then.i970
  %.pr1402.pr.pr.pr = load ptr, ptr %cond-lvalue246, align 8, !tbaa !26
  %tobool.not.i974 = icmp eq ptr %.pr1402.pr.pr.pr, null
  br i1 %tobool.not.i974, label %invoke.cont282, label %if.then.i976

if.then.i976:                                     ; preds = %invoke.cont276
  %call1.i.i978 = invoke noundef nonnull align 8 dereferenceable(8) ptr @_ZSt16__ostream_insertIcSt11char_traitsIcEERSt13basic_ostreamIT_T0_ES6_PKS3_l(ptr noundef nonnull align 8 dereferenceable(8) %.pr1402.pr.pr.pr, ptr noundef nonnull @.str.109, i64 noundef 1)
          to label %invoke.cont278 unwind label %lpad269

invoke.cont278:                                   ; preds = %if.then.i976
  %.pr1404 = load ptr, ptr %cond-lvalue246, align 8, !tbaa !26
  %tobool.not.i980 = icmp eq ptr %.pr1404, null
  br i1 %tobool.not.i980, label %invoke.cont282, label %if.then.i982

if.then.i982:                                     ; preds = %invoke.cont278
  %call1.i.i984 = invoke noundef nonnull align 8 dereferenceable(8) ptr @_ZSt16__ostream_insertIcSt11char_traitsIcEERSt13basic_ostreamIT_T0_ES6_PKS3_l(ptr noundef nonnull align 8 dereferenceable(8) %.pr1404, ptr noundef nonnull @.str.25, i64 noundef 3)
          to label %invoke.cont280 unwind label %lpad269

invoke.cont280:                                   ; preds = %if.then.i982
  %.pr1406.pr.pr.pr = load ptr, ptr %cond-lvalue246, align 8, !tbaa !26
  %tobool.not.i986 = icmp eq ptr %.pr1406.pr.pr.pr, null
  br i1 %tobool.not.i986, label %invoke.cont282, label %if.then.i988

if.then.i988:                                     ; preds = %invoke.cont280
  %call1.i.i990 = invoke noundef nonnull align 8 dereferenceable(8) ptr @_ZSt16__ostream_insertIcSt11char_traitsIcEERSt13basic_ostreamIT_T0_ES6_PKS3_l(ptr noundef nonnull align 8 dereferenceable(8) %.pr1406.pr.pr.pr, ptr noundef nonnull @.str.110, i64 noundef 1)
          to label %invoke.cont282 unwind label %lpad269

invoke.cont282:                                   ; preds = %invoke.cont262, %invoke.cont260, %invoke.cont257, %invoke.cont255, %invoke.cont251, %invoke.cont249, %invoke.cont247, %cond.end245, %invoke.cont270, %invoke.cont272, %invoke.cont264, %invoke.cont266, %invoke.cont276, %invoke.cont274, %invoke.cont278, %invoke.cont280, %if.then.i988
  %call.i992994 = invoke noundef double @_ZNK7Results5GetAsIdEET_PKc(ptr noundef nonnull align 8 dereferenceable(80) %e, ptr noundef nonnull @.str.25)
          to label %invoke.cont286 unwind label %lpad285

invoke.cont286:                                   ; preds = %invoke.cont282
  %42 = load ptr, ptr %cond-lvalue246, align 8, !tbaa !26
  %tobool.not.i996 = icmp eq ptr %42, null
  br i1 %tobool.not.i996, label %invoke.cont296, label %if.then.i998

if.then.i998:                                     ; preds = %invoke.cont286
  %conv.i993 = fptosi double %call.i992994 to i32
  %call.i997999 = invoke noundef nonnull align 8 dereferenceable(8) ptr @_ZNSolsEi(ptr noundef nonnull align 8 dereferenceable(8) %42, i32 noundef %conv.i993)
          to label %invoke.cont288 unwind label %lpad285

invoke.cont288:                                   ; preds = %if.then.i998
  %.pr1408 = load ptr, ptr %cond-lvalue246, align 8, !tbaa !26
  %tobool.not.i1001 = icmp eq ptr %.pr1408, null
  br i1 %tobool.not.i1001, label %invoke.cont296, label %if.then.i1003

if.then.i1003:                                    ; preds = %invoke.cont288
  %call1.i.i1005 = invoke noundef nonnull align 8 dereferenceable(8) ptr @_ZSt16__ostream_insertIcSt11char_traitsIcEERSt13basic_ostreamIT_T0_ES6_PKS3_l(ptr noundef nonnull align 8 dereferenceable(8) %.pr1408, ptr noundef nonnull @.str.111, i64 noundef 13)
          to label %invoke.cont290 unwind label %lpad285

invoke.cont290:                                   ; preds = %if.then.i1003
  %.pr1410 = load ptr, ptr %cond-lvalue246, align 8, !tbaa !26
  %tobool.not.i1007 = icmp eq ptr %.pr1410, null
  br i1 %tobool.not.i1007, label %invoke.cont296, label %if.then.i1009

if.then.i1009:                                    ; preds = %invoke.cont290
  %call.i10081010 = invoke noundef nonnull align 8 dereferenceable(8) ptr @_ZNSolsEi(ptr noundef nonnull align 8 dereferenceable(8) %.pr1410, i32 noundef 8)
          to label %invoke.cont294 unwind label %lpad293

invoke.cont294:                                   ; preds = %if.then.i1009
  %.pr1412.pr = load ptr, ptr %cond-lvalue246, align 8, !tbaa !26
  %tobool.not.i1012 = icmp eq ptr %.pr1412.pr, null
  br i1 %tobool.not.i1012, label %invoke.cont296, label %if.then.i1014

if.then.i1014:                                    ; preds = %invoke.cont294
  %call1.i.i1016 = invoke noundef nonnull align 8 dereferenceable(8) ptr @_ZSt16__ostream_insertIcSt11char_traitsIcEERSt13basic_ostreamIT_T0_ES6_PKS3_l(ptr noundef nonnull align 8 dereferenceable(8) %.pr1412.pr, ptr noundef nonnull @.str.103, i64 noundef 1)
          to label %invoke.cont296 unwind label %lpad293

invoke.cont296:                                   ; preds = %invoke.cont288, %invoke.cont286, %invoke.cont290, %invoke.cont294, %if.then.i1014
  br i1 %cmp235.not, label %cleanup.done312, label %cleanup.action303

cleanup.action303:                                ; preds = %invoke.cont296
  call void @_ZN9benchmark8internal12CheckHandlerD2Ev(ptr noundef nonnull align 8 dereferenceable(8) %ref.tmp239) #23
  unreachable

ehcleanup222:                                     ; preds = %lpad171, %lpad202, %lpad210, %lpad186, %lpad159
  %.pn510.pn.pn.pn = phi { ptr, i32 } [ %31, %lpad159 ], [ %32, %lpad171 ], [ %33, %lpad186 ], [ %35, %lpad210 ], [ %34, %lpad202 ]
  br i1 %cmp152.not, label %eh.resume, label %cleanup.action473.invoke

lpad242:                                          ; preds = %if.then.i912, %if.then.i906, %if.then.i900
  %43 = landingpad { ptr, i32 }
          cleanup
  br label %ehcleanup305

lpad254:                                          ; preds = %if.then.i947, %if.then.i941, %if.then.i935, %if.then.i929, %if.then.i923, %if.then.i918
  %44 = landingpad { ptr, i32 }
          cleanup
  br label %ehcleanup305

lpad269:                                          ; preds = %if.then.i988, %if.then.i982, %if.then.i976, %if.then.i970, %if.then.i964, %if.then.i958, %if.then.i953
  %45 = landingpad { ptr, i32 }
          cleanup
  br label %ehcleanup305

lpad285:                                          ; preds = %if.then.i1003, %if.then.i998, %invoke.cont282
  %46 = landingpad { ptr, i32 }
          cleanup
  br label %ehcleanup305

lpad293:                                          ; preds = %if.then.i1014, %if.then.i1009
  %47 = landingpad { ptr, i32 }
          cleanup
  br label %ehcleanup305

cleanup.done312:                                  ; preds = %invoke.cont296
  %call.i1018 = call noundef double @_ZNK7Results5GetAsIdEET_PKc(ptr noundef nonnull align 8 dereferenceable(80) %e, ptr noundef nonnull @.str.26)
  %conv.i1019 = fptosi double %call.i1018 to i32
  %cmp318.not = icmp eq i32 %conv.i1019, 16
  br i1 %cmp318.not, label %cond.true319, label %cond.false321

cond.true319:                                     ; preds = %cleanup.done312
  %48 = load atomic i8, ptr @_ZGVZN9benchmark8internal18GetNullLogInstanceEvE3log acquire, align 8
  %guard.uninitialized.i1020 = icmp eq i8 %48, 0
  br i1 %guard.uninitialized.i1020, label %init.check.i1022, label %cond.end328, !prof !25

init.check.i1022:                                 ; preds = %cond.true319
  %49 = call i32 @__cxa_guard_acquire(ptr nonnull @_ZGVZN9benchmark8internal18GetNullLogInstanceEvE3log) #21
  %tobool.not.i1021 = icmp eq i32 %49, 0
  br i1 %tobool.not.i1021, label %cond.end328, label %init.i1023

init.i1023:                                       ; preds = %init.check.i1022
  store ptr null, ptr @_ZZN9benchmark8internal18GetNullLogInstanceEvE3log, align 8, !tbaa !26
  call void @__cxa_guard_release(ptr nonnull @_ZGVZN9benchmark8internal18GetNullLogInstanceEvE3log) #21
  br label %cond.end328

cond.false321:                                    ; preds = %cleanup.done312
  call void @llvm.lifetime.start.p0(i64 8, ptr nonnull %ref.tmp322) #21
  call void @_ZN9benchmark8internal12CheckHandlerC2EPKcS3_S3_i(ptr noundef nonnull align 8 dereferenceable(8) %ref.tmp322, ptr noundef nonnull @.str.115, ptr noundef nonnull @.str.102, ptr noundef nonnull @__func__._Z12CheckTabularRK7Results, i32 noundef 360)
  %50 = load ptr, ptr %ref.tmp322, align 8, !tbaa !28
  br label %cond.end328

cond.end328:                                      ; preds = %init.i1023, %init.check.i1022, %cond.true319, %cond.false321
  %cond-lvalue329 = phi ptr [ %50, %cond.false321 ], [ @_ZZN9benchmark8internal18GetNullLogInstanceEvE3log, %cond.true319 ], [ @_ZZN9benchmark8internal18GetNullLogInstanceEvE3log, %init.check.i1022 ], [ @_ZZN9benchmark8internal18GetNullLogInstanceEvE3log, %init.i1023 ]
  %51 = load ptr, ptr %cond-lvalue329, align 8, !tbaa !26
  %tobool.not.i1025 = icmp eq ptr %51, null
  br i1 %tobool.not.i1025, label %invoke.cont365, label %if.then.i1027

if.then.i1027:                                    ; preds = %cond.end328
  %call1.i.i1029 = invoke noundef nonnull align 8 dereferenceable(8) ptr @_ZSt16__ostream_insertIcSt11char_traitsIcEERSt13basic_ostreamIT_T0_ES6_PKS3_l(ptr noundef nonnull align 8 dereferenceable(8) %51, ptr noundef nonnull @.str.103, i64 noundef 1)
          to label %invoke.cont330 unwind label %lpad325

invoke.cont330:                                   ; preds = %if.then.i1027
  %.pr1414 = load ptr, ptr %cond-lvalue329, align 8, !tbaa !26
  %tobool.not.i1031 = icmp eq ptr %.pr1414, null
  br i1 %tobool.not.i1031, label %invoke.cont365, label %if.then.i1033

if.then.i1033:                                    ; preds = %invoke.cont330
  %call1.i.i1035 = invoke noundef nonnull align 8 dereferenceable(8) ptr @_ZSt16__ostream_insertIcSt11char_traitsIcEERSt13basic_ostreamIT_T0_ES6_PKS3_l(ptr noundef nonnull align 8 dereferenceable(8) %.pr1414, ptr noundef nonnull @.str.102, i64 noundef 114)
          to label %invoke.cont332 unwind label %lpad325

invoke.cont332:                                   ; preds = %if.then.i1033
  %.pr1416 = load ptr, ptr %cond-lvalue329, align 8, !tbaa !26
  %tobool.not.i1037 = icmp eq ptr %.pr1416, null
  br i1 %tobool.not.i1037, label %invoke.cont365, label %if.then.i1039

if.then.i1039:                                    ; preds = %invoke.cont332
  %call1.i.i1041 = invoke noundef nonnull align 8 dereferenceable(8) ptr @_ZSt16__ostream_insertIcSt11char_traitsIcEERSt13basic_ostreamIT_T0_ES6_PKS3_l(ptr noundef nonnull align 8 dereferenceable(8) %.pr1416, ptr noundef nonnull @.str.104, i64 noundef 1)
          to label %invoke.cont334 unwind label %lpad325

invoke.cont334:                                   ; preds = %if.then.i1039
  %.pr1418.pr = load ptr, ptr %cond-lvalue329, align 8, !tbaa !26
  %tobool.not.i1043 = icmp eq ptr %.pr1418.pr, null
  br i1 %tobool.not.i1043, label %invoke.cont365, label %if.then.i1045

if.then.i1045:                                    ; preds = %invoke.cont334
  %call.i10441046 = invoke noundef nonnull align 8 dereferenceable(8) ptr @_ZNSolsEi(ptr noundef nonnull align 8 dereferenceable(8) %.pr1418.pr, i32 noundef 360)
          to label %invoke.cont338 unwind label %lpad337

invoke.cont338:                                   ; preds = %if.then.i1045
  %.pr1420 = load ptr, ptr %cond-lvalue329, align 8, !tbaa !26
  %tobool.not.i1048 = icmp eq ptr %.pr1420, null
  br i1 %tobool.not.i1048, label %invoke.cont365, label %if.then.i1050

if.then.i1050:                                    ; preds = %invoke.cont338
  %call1.i.i1052 = invoke noundef nonnull align 8 dereferenceable(8) ptr @_ZSt16__ostream_insertIcSt11char_traitsIcEERSt13basic_ostreamIT_T0_ES6_PKS3_l(ptr noundef nonnull align 8 dereferenceable(8) %.pr1420, ptr noundef nonnull @.str.105, i64 noundef 2)
          to label %invoke.cont340 unwind label %lpad337

invoke.cont340:                                   ; preds = %if.then.i1050
  %.pr1422.pr.pr = load ptr, ptr %cond-lvalue329, align 8, !tbaa !26
  %tobool.not.i1054 = icmp eq ptr %.pr1422.pr.pr, null
  br i1 %tobool.not.i1054, label %invoke.cont365, label %if.then.i1056

if.then.i1056:                                    ; preds = %invoke.cont340
  %52 = load ptr, ptr %e, align 8, !tbaa !24
  %_M_string_length.i.i.i1055 = getelementptr inbounds %"class.std::__cxx11::basic_string", ptr %e, i64 0, i32 1
  %53 = load i64, ptr %_M_string_length.i.i.i1055, align 8, !tbaa !10
  %call2.i.i1058 = invoke noundef nonnull align 8 dereferenceable(8) ptr @_ZSt16__ostream_insertIcSt11char_traitsIcEERSt13basic_ostreamIT_T0_ES6_PKS3_l(ptr noundef nonnull align 8 dereferenceable(8) %.pr1422.pr.pr, ptr noundef %52, i64 noundef %53)
          to label %invoke.cont343 unwind label %lpad337

invoke.cont343:                                   ; preds = %if.then.i1056
  %.pr1424 = load ptr, ptr %cond-lvalue329, align 8, !tbaa !26
  %tobool.not.i1060 = icmp eq ptr %.pr1424, null
  br i1 %tobool.not.i1060, label %invoke.cont365, label %if.then.i1062

if.then.i1062:                                    ; preds = %invoke.cont343
  %call1.i.i1064 = invoke noundef nonnull align 8 dereferenceable(8) ptr @_ZSt16__ostream_insertIcSt11char_traitsIcEERSt13basic_ostreamIT_T0_ES6_PKS3_l(ptr noundef nonnull align 8 dereferenceable(8) %.pr1424, ptr noundef nonnull @.str.106, i64 noundef 2)
          to label %invoke.cont345 unwind label %lpad337

invoke.cont345:                                   ; preds = %if.then.i1062
  %.pr1426.pr.pr = load ptr, ptr %cond-lvalue329, align 8, !tbaa !26
  %tobool.not.i1066 = icmp eq ptr %.pr1426.pr.pr, null
  br i1 %tobool.not.i1066, label %invoke.cont365, label %if.then.i1068

if.then.i1068:                                    ; preds = %invoke.cont345
  %call1.i.i1070 = invoke noundef nonnull align 8 dereferenceable(8) ptr @_ZSt16__ostream_insertIcSt11char_traitsIcEERSt13basic_ostreamIT_T0_ES6_PKS3_l(ptr noundef nonnull align 8 dereferenceable(8) %.pr1426.pr.pr, ptr noundef nonnull @.str.102, i64 noundef 114)
          to label %invoke.cont347 unwind label %lpad337

invoke.cont347:                                   ; preds = %if.then.i1068
  %.pr1428 = load ptr, ptr %cond-lvalue329, align 8, !tbaa !26
  %tobool.not.i1072 = icmp eq ptr %.pr1428, null
  br i1 %tobool.not.i1072, label %invoke.cont365, label %if.then.i1074

if.then.i1074:                                    ; preds = %invoke.cont347
  %call1.i.i1076 = invoke noundef nonnull align 8 dereferenceable(8) ptr @_ZSt16__ostream_insertIcSt11char_traitsIcEERSt13basic_ostreamIT_T0_ES6_PKS3_l(ptr noundef nonnull align 8 dereferenceable(8) %.pr1428, ptr noundef nonnull @.str.104, i64 noundef 1)
          to label %invoke.cont349 unwind label %lpad337

invoke.cont349:                                   ; preds = %if.then.i1074
  %.pr1430.pr.pr.pr = load ptr, ptr %cond-lvalue329, align 8, !tbaa !26
  %tobool.not.i1078 = icmp eq ptr %.pr1430.pr.pr.pr, null
  br i1 %tobool.not.i1078, label %invoke.cont365, label %if.then.i1080

if.then.i1080:                                    ; preds = %invoke.cont349
  %call.i10791081 = invoke noundef nonnull align 8 dereferenceable(8) ptr @_ZNSolsEi(ptr noundef nonnull align 8 dereferenceable(8) %.pr1430.pr.pr.pr, i32 noundef 360)
          to label %invoke.cont353 unwind label %lpad352

invoke.cont353:                                   ; preds = %if.then.i1080
  %.pr1432 = load ptr, ptr %cond-lvalue329, align 8, !tbaa !26
  %tobool.not.i1083 = icmp eq ptr %.pr1432, null
  br i1 %tobool.not.i1083, label %invoke.cont365, label %if.then.i1085

if.then.i1085:                                    ; preds = %invoke.cont353
  %call1.i.i1087 = invoke noundef nonnull align 8 dereferenceable(8) ptr @_ZSt16__ostream_insertIcSt11char_traitsIcEERSt13basic_ostreamIT_T0_ES6_PKS3_l(ptr noundef nonnull align 8 dereferenceable(8) %.pr1432, ptr noundef nonnull @.str.105, i64 noundef 2)
          to label %invoke.cont355 unwind label %lpad352

invoke.cont355:                                   ; preds = %if.then.i1085
  %.pr1434.pr.pr.pr = load ptr, ptr %cond-lvalue329, align 8, !tbaa !26
  %tobool.not.i1089 = icmp eq ptr %.pr1434.pr.pr.pr, null
  br i1 %tobool.not.i1089, label %invoke.cont365, label %if.then.i1091

if.then.i1091:                                    ; preds = %invoke.cont355
  %call1.i.i1093 = invoke noundef nonnull align 8 dereferenceable(8) ptr @_ZSt16__ostream_insertIcSt11char_traitsIcEERSt13basic_ostreamIT_T0_ES6_PKS3_l(ptr noundef nonnull align 8 dereferenceable(8) %.pr1434.pr.pr.pr, ptr noundef nonnull @.str.107, i64 noundef 10)
          to label %invoke.cont357 unwind label %lpad352

invoke.cont357:                                   ; preds = %if.then.i1091
  %.pr1436 = load ptr, ptr %cond-lvalue329, align 8, !tbaa !26
  %tobool.not.i1095 = icmp eq ptr %.pr1436, null
  br i1 %tobool.not.i1095, label %invoke.cont365, label %if.then.i1097

if.then.i1097:                                    ; preds = %invoke.cont357
  %call1.i.i1099 = invoke noundef nonnull align 8 dereferenceable(8) ptr @_ZSt16__ostream_insertIcSt11char_traitsIcEERSt13basic_ostreamIT_T0_ES6_PKS3_l(ptr noundef nonnull align 8 dereferenceable(8) %.pr1436, ptr noundef nonnull @.str.108, i64 noundef 3)
          to label %invoke.cont359 unwind label %lpad352

invoke.cont359:                                   ; preds = %if.then.i1097
  %.pr1438.pr.pr.pr = load ptr, ptr %cond-lvalue329, align 8, !tbaa !26
  %tobool.not.i1101 = icmp eq ptr %.pr1438.pr.pr.pr, null
  br i1 %tobool.not.i1101, label %invoke.cont365, label %if.then.i1103

if.then.i1103:                                    ; preds = %invoke.cont359
  %call1.i.i1105 = invoke noundef nonnull align 8 dereferenceable(8) ptr @_ZSt16__ostream_insertIcSt11char_traitsIcEERSt13basic_ostreamIT_T0_ES6_PKS3_l(ptr noundef nonnull align 8 dereferenceable(8) %.pr1438.pr.pr.pr, ptr noundef nonnull @.str.109, i64 noundef 1)
          to label %invoke.cont361 unwind label %lpad352

invoke.cont361:                                   ; preds = %if.then.i1103
  %.pr1440 = load ptr, ptr %cond-lvalue329, align 8, !tbaa !26
  %tobool.not.i1107 = icmp eq ptr %.pr1440, null
  br i1 %tobool.not.i1107, label %invoke.cont365, label %if.then.i1109

if.then.i1109:                                    ; preds = %invoke.cont361
  %call1.i.i1111 = invoke noundef nonnull align 8 dereferenceable(8) ptr @_ZSt16__ostream_insertIcSt11char_traitsIcEERSt13basic_ostreamIT_T0_ES6_PKS3_l(ptr noundef nonnull align 8 dereferenceable(8) %.pr1440, ptr noundef nonnull @.str.26, i64 noundef 4)
          to label %invoke.cont363 unwind label %lpad352

invoke.cont363:                                   ; preds = %if.then.i1109
  %.pr1442.pr.pr.pr = load ptr, ptr %cond-lvalue329, align 8, !tbaa !26
  %tobool.not.i1112 = icmp eq ptr %.pr1442.pr.pr.pr, null
  br i1 %tobool.not.i1112, label %invoke.cont365, label %if.then.i1114

if.then.i1114:                                    ; preds = %invoke.cont363
  %call1.i.i1116 = invoke noundef nonnull align 8 dereferenceable(8) ptr @_ZSt16__ostream_insertIcSt11char_traitsIcEERSt13basic_ostreamIT_T0_ES6_PKS3_l(ptr noundef nonnull align 8 dereferenceable(8) %.pr1442.pr.pr.pr, ptr noundef nonnull @.str.110, i64 noundef 1)
          to label %invoke.cont365 unwind label %lpad352

invoke.cont365:                                   ; preds = %invoke.cont345, %invoke.cont343, %invoke.cont340, %invoke.cont338, %invoke.cont334, %invoke.cont332, %invoke.cont330, %cond.end328, %invoke.cont353, %invoke.cont355, %invoke.cont347, %invoke.cont349, %invoke.cont359, %invoke.cont357, %invoke.cont361, %invoke.cont363, %if.then.i1114
  %call.i11181120 = invoke noundef double @_ZNK7Results5GetAsIdEET_PKc(ptr noundef nonnull align 8 dereferenceable(80) %e, ptr noundef nonnull @.str.26)
          to label %invoke.cont369 unwind label %lpad368

invoke.cont369:                                   ; preds = %invoke.cont365
  %54 = load ptr, ptr %cond-lvalue329, align 8, !tbaa !26
  %tobool.not.i1122 = icmp eq ptr %54, null
  br i1 %tobool.not.i1122, label %invoke.cont379, label %if.then.i1124

if.then.i1124:                                    ; preds = %invoke.cont369
  %conv.i1119 = fptosi double %call.i11181120 to i32
  %call.i11231125 = invoke noundef nonnull align 8 dereferenceable(8) ptr @_ZNSolsEi(ptr noundef nonnull align 8 dereferenceable(8) %54, i32 noundef %conv.i1119)
          to label %invoke.cont371 unwind label %lpad368

invoke.cont371:                                   ; preds = %if.then.i1124
  %.pr1444 = load ptr, ptr %cond-lvalue329, align 8, !tbaa !26
  %tobool.not.i1127 = icmp eq ptr %.pr1444, null
  br i1 %tobool.not.i1127, label %invoke.cont379, label %if.then.i1129

if.then.i1129:                                    ; preds = %invoke.cont371
  %call1.i.i1131 = invoke noundef nonnull align 8 dereferenceable(8) ptr @_ZSt16__ostream_insertIcSt11char_traitsIcEERSt13basic_ostreamIT_T0_ES6_PKS3_l(ptr noundef nonnull align 8 dereferenceable(8) %.pr1444, ptr noundef nonnull @.str.111, i64 noundef 13)
          to label %invoke.cont373 unwind label %lpad368

invoke.cont373:                                   ; preds = %if.then.i1129
  %.pr1446 = load ptr, ptr %cond-lvalue329, align 8, !tbaa !26
  %tobool.not.i1133 = icmp eq ptr %.pr1446, null
  br i1 %tobool.not.i1133, label %invoke.cont379, label %if.then.i1135

if.then.i1135:                                    ; preds = %invoke.cont373
  %call.i11341136 = invoke noundef nonnull align 8 dereferenceable(8) ptr @_ZNSolsEi(ptr noundef nonnull align 8 dereferenceable(8) %.pr1446, i32 noundef 16)
          to label %invoke.cont377 unwind label %lpad376

invoke.cont377:                                   ; preds = %if.then.i1135
  %.pr1448.pr = load ptr, ptr %cond-lvalue329, align 8, !tbaa !26
  %tobool.not.i1138 = icmp eq ptr %.pr1448.pr, null
  br i1 %tobool.not.i1138, label %invoke.cont379, label %if.then.i1140

if.then.i1140:                                    ; preds = %invoke.cont377
  %call1.i.i1142 = invoke noundef nonnull align 8 dereferenceable(8) ptr @_ZSt16__ostream_insertIcSt11char_traitsIcEERSt13basic_ostreamIT_T0_ES6_PKS3_l(ptr noundef nonnull align 8 dereferenceable(8) %.pr1448.pr, ptr noundef nonnull @.str.103, i64 noundef 1)
          to label %invoke.cont379 unwind label %lpad376

invoke.cont379:                                   ; preds = %invoke.cont371, %invoke.cont369, %invoke.cont373, %invoke.cont377, %if.then.i1140
  br i1 %cmp318.not, label %cleanup.done395, label %cleanup.action386

cleanup.action386:                                ; preds = %invoke.cont379
  call void @_ZN9benchmark8internal12CheckHandlerD2Ev(ptr noundef nonnull align 8 dereferenceable(8) %ref.tmp322) #23
  unreachable

ehcleanup305:                                     ; preds = %lpad254, %lpad285, %lpad293, %lpad269, %lpad242
  %.pn515.pn.pn.pn = phi { ptr, i32 } [ %43, %lpad242 ], [ %44, %lpad254 ], [ %45, %lpad269 ], [ %47, %lpad293 ], [ %46, %lpad285 ]
  br i1 %cmp235.not, label %eh.resume, label %cleanup.action473.invoke

lpad325:                                          ; preds = %if.then.i1039, %if.then.i1033, %if.then.i1027
  %55 = landingpad { ptr, i32 }
          cleanup
  br label %ehcleanup388

lpad337:                                          ; preds = %if.then.i1074, %if.then.i1068, %if.then.i1062, %if.then.i1056, %if.then.i1050, %if.then.i1045
  %56 = landingpad { ptr, i32 }
          cleanup
  br label %ehcleanup388

lpad352:                                          ; preds = %if.then.i1114, %if.then.i1109, %if.then.i1103, %if.then.i1097, %if.then.i1091, %if.then.i1085, %if.then.i1080
  %57 = landingpad { ptr, i32 }
          cleanup
  br label %ehcleanup388

lpad368:                                          ; preds = %if.then.i1129, %if.then.i1124, %invoke.cont365
  %58 = landingpad { ptr, i32 }
          cleanup
  br label %ehcleanup388

lpad376:                                          ; preds = %if.then.i1140, %if.then.i1135
  %59 = landingpad { ptr, i32 }
          cleanup
  br label %ehcleanup388

cleanup.done395:                                  ; preds = %invoke.cont379
  %call.i1144 = call noundef double @_ZNK7Results5GetAsIdEET_PKc(ptr noundef nonnull align 8 dereferenceable(80) %e, ptr noundef nonnull @.str.27)
  %conv.i1145 = fptosi double %call.i1144 to i32
  %cmp401.not = icmp eq i32 %conv.i1145, 32
  br i1 %cmp401.not, label %cond.true402, label %cond.false404

cond.true402:                                     ; preds = %cleanup.done395
  %60 = load atomic i8, ptr @_ZGVZN9benchmark8internal18GetNullLogInstanceEvE3log acquire, align 8
  %guard.uninitialized.i1146 = icmp eq i8 %60, 0
  br i1 %guard.uninitialized.i1146, label %init.check.i1148, label %cond.end411, !prof !25

init.check.i1148:                                 ; preds = %cond.true402
  %61 = call i32 @__cxa_guard_acquire(ptr nonnull @_ZGVZN9benchmark8internal18GetNullLogInstanceEvE3log) #21
  %tobool.not.i1147 = icmp eq i32 %61, 0
  br i1 %tobool.not.i1147, label %cond.end411, label %init.i1149

init.i1149:                                       ; preds = %init.check.i1148
  store ptr null, ptr @_ZZN9benchmark8internal18GetNullLogInstanceEvE3log, align 8, !tbaa !26
  call void @__cxa_guard_release(ptr nonnull @_ZGVZN9benchmark8internal18GetNullLogInstanceEvE3log) #21
  br label %cond.end411

cond.false404:                                    ; preds = %cleanup.done395
  call void @llvm.lifetime.start.p0(i64 8, ptr nonnull %ref.tmp405) #21
  call void @_ZN9benchmark8internal12CheckHandlerC2EPKcS3_S3_i(ptr noundef nonnull align 8 dereferenceable(8) %ref.tmp405, ptr noundef nonnull @.str.116, ptr noundef nonnull @.str.102, ptr noundef nonnull @__func__._Z12CheckTabularRK7Results, i32 noundef 361)
  %62 = load ptr, ptr %ref.tmp405, align 8, !tbaa !28
  br label %cond.end411

cond.end411:                                      ; preds = %init.i1149, %init.check.i1148, %cond.true402, %cond.false404
  %cond-lvalue412 = phi ptr [ %62, %cond.false404 ], [ @_ZZN9benchmark8internal18GetNullLogInstanceEvE3log, %cond.true402 ], [ @_ZZN9benchmark8internal18GetNullLogInstanceEvE3log, %init.check.i1148 ], [ @_ZZN9benchmark8internal18GetNullLogInstanceEvE3log, %init.i1149 ]
  %63 = load ptr, ptr %cond-lvalue412, align 8, !tbaa !26
  %tobool.not.i1151 = icmp eq ptr %63, null
  br i1 %tobool.not.i1151, label %invoke.cont448, label %if.then.i1153

if.then.i1153:                                    ; preds = %cond.end411
  %call1.i.i1155 = invoke noundef nonnull align 8 dereferenceable(8) ptr @_ZSt16__ostream_insertIcSt11char_traitsIcEERSt13basic_ostreamIT_T0_ES6_PKS3_l(ptr noundef nonnull align 8 dereferenceable(8) %63, ptr noundef nonnull @.str.103, i64 noundef 1)
          to label %invoke.cont413 unwind label %lpad408

invoke.cont413:                                   ; preds = %if.then.i1153
  %.pr1450 = load ptr, ptr %cond-lvalue412, align 8, !tbaa !26
  %tobool.not.i1157 = icmp eq ptr %.pr1450, null
  br i1 %tobool.not.i1157, label %invoke.cont448, label %if.then.i1159

if.then.i1159:                                    ; preds = %invoke.cont413
  %call1.i.i1161 = invoke noundef nonnull align 8 dereferenceable(8) ptr @_ZSt16__ostream_insertIcSt11char_traitsIcEERSt13basic_ostreamIT_T0_ES6_PKS3_l(ptr noundef nonnull align 8 dereferenceable(8) %.pr1450, ptr noundef nonnull @.str.102, i64 noundef 114)
          to label %invoke.cont415 unwind label %lpad408

invoke.cont415:                                   ; preds = %if.then.i1159
  %.pr1452 = load ptr, ptr %cond-lvalue412, align 8, !tbaa !26
  %tobool.not.i1163 = icmp eq ptr %.pr1452, null
  br i1 %tobool.not.i1163, label %invoke.cont448, label %if.then.i1165

if.then.i1165:                                    ; preds = %invoke.cont415
  %call1.i.i1167 = invoke noundef nonnull align 8 dereferenceable(8) ptr @_ZSt16__ostream_insertIcSt11char_traitsIcEERSt13basic_ostreamIT_T0_ES6_PKS3_l(ptr noundef nonnull align 8 dereferenceable(8) %.pr1452, ptr noundef nonnull @.str.104, i64 noundef 1)
          to label %invoke.cont417 unwind label %lpad408

invoke.cont417:                                   ; preds = %if.then.i1165
  %.pr1454.pr = load ptr, ptr %cond-lvalue412, align 8, !tbaa !26
  %tobool.not.i1169 = icmp eq ptr %.pr1454.pr, null
  br i1 %tobool.not.i1169, label %invoke.cont448, label %if.then.i1171

if.then.i1171:                                    ; preds = %invoke.cont417
  %call.i11701172 = invoke noundef nonnull align 8 dereferenceable(8) ptr @_ZNSolsEi(ptr noundef nonnull align 8 dereferenceable(8) %.pr1454.pr, i32 noundef 361)
          to label %invoke.cont421 unwind label %lpad420

invoke.cont421:                                   ; preds = %if.then.i1171
  %.pr1456 = load ptr, ptr %cond-lvalue412, align 8, !tbaa !26
  %tobool.not.i1174 = icmp eq ptr %.pr1456, null
  br i1 %tobool.not.i1174, label %invoke.cont448, label %if.then.i1176

if.then.i1176:                                    ; preds = %invoke.cont421
  %call1.i.i1178 = invoke noundef nonnull align 8 dereferenceable(8) ptr @_ZSt16__ostream_insertIcSt11char_traitsIcEERSt13basic_ostreamIT_T0_ES6_PKS3_l(ptr noundef nonnull align 8 dereferenceable(8) %.pr1456, ptr noundef nonnull @.str.105, i64 noundef 2)
          to label %invoke.cont423 unwind label %lpad420

invoke.cont423:                                   ; preds = %if.then.i1176
  %.pr1458.pr.pr = load ptr, ptr %cond-lvalue412, align 8, !tbaa !26
  %tobool.not.i1180 = icmp eq ptr %.pr1458.pr.pr, null
  br i1 %tobool.not.i1180, label %invoke.cont448, label %if.then.i1182

if.then.i1182:                                    ; preds = %invoke.cont423
  %64 = load ptr, ptr %e, align 8, !tbaa !24
  %_M_string_length.i.i.i1181 = getelementptr inbounds %"class.std::__cxx11::basic_string", ptr %e, i64 0, i32 1
  %65 = load i64, ptr %_M_string_length.i.i.i1181, align 8, !tbaa !10
  %call2.i.i1184 = invoke noundef nonnull align 8 dereferenceable(8) ptr @_ZSt16__ostream_insertIcSt11char_traitsIcEERSt13basic_ostreamIT_T0_ES6_PKS3_l(ptr noundef nonnull align 8 dereferenceable(8) %.pr1458.pr.pr, ptr noundef %64, i64 noundef %65)
          to label %invoke.cont426 unwind label %lpad420

invoke.cont426:                                   ; preds = %if.then.i1182
  %.pr1460 = load ptr, ptr %cond-lvalue412, align 8, !tbaa !26
  %tobool.not.i1186 = icmp eq ptr %.pr1460, null
  br i1 %tobool.not.i1186, label %invoke.cont448, label %if.then.i1188

if.then.i1188:                                    ; preds = %invoke.cont426
  %call1.i.i1190 = invoke noundef nonnull align 8 dereferenceable(8) ptr @_ZSt16__ostream_insertIcSt11char_traitsIcEERSt13basic_ostreamIT_T0_ES6_PKS3_l(ptr noundef nonnull align 8 dereferenceable(8) %.pr1460, ptr noundef nonnull @.str.106, i64 noundef 2)
          to label %invoke.cont428 unwind label %lpad420

invoke.cont428:                                   ; preds = %if.then.i1188
  %.pr1462.pr.pr = load ptr, ptr %cond-lvalue412, align 8, !tbaa !26
  %tobool.not.i1192 = icmp eq ptr %.pr1462.pr.pr, null
  br i1 %tobool.not.i1192, label %invoke.cont448, label %if.then.i1194

if.then.i1194:                                    ; preds = %invoke.cont428
  %call1.i.i1196 = invoke noundef nonnull align 8 dereferenceable(8) ptr @_ZSt16__ostream_insertIcSt11char_traitsIcEERSt13basic_ostreamIT_T0_ES6_PKS3_l(ptr noundef nonnull align 8 dereferenceable(8) %.pr1462.pr.pr, ptr noundef nonnull @.str.102, i64 noundef 114)
          to label %invoke.cont430 unwind label %lpad420

invoke.cont430:                                   ; preds = %if.then.i1194
  %.pr1464 = load ptr, ptr %cond-lvalue412, align 8, !tbaa !26
  %tobool.not.i1198 = icmp eq ptr %.pr1464, null
  br i1 %tobool.not.i1198, label %invoke.cont448, label %if.then.i1200

if.then.i1200:                                    ; preds = %invoke.cont430
  %call1.i.i1202 = invoke noundef nonnull align 8 dereferenceable(8) ptr @_ZSt16__ostream_insertIcSt11char_traitsIcEERSt13basic_ostreamIT_T0_ES6_PKS3_l(ptr noundef nonnull align 8 dereferenceable(8) %.pr1464, ptr noundef nonnull @.str.104, i64 noundef 1)
          to label %invoke.cont432 unwind label %lpad420

invoke.cont432:                                   ; preds = %if.then.i1200
  %.pr1466.pr.pr.pr = load ptr, ptr %cond-lvalue412, align 8, !tbaa !26
  %tobool.not.i1204 = icmp eq ptr %.pr1466.pr.pr.pr, null
  br i1 %tobool.not.i1204, label %invoke.cont448, label %if.then.i1206

if.then.i1206:                                    ; preds = %invoke.cont432
  %call.i12051207 = invoke noundef nonnull align 8 dereferenceable(8) ptr @_ZNSolsEi(ptr noundef nonnull align 8 dereferenceable(8) %.pr1466.pr.pr.pr, i32 noundef 361)
          to label %invoke.cont436 unwind label %lpad435

invoke.cont436:                                   ; preds = %if.then.i1206
  %.pr1468 = load ptr, ptr %cond-lvalue412, align 8, !tbaa !26
  %tobool.not.i1209 = icmp eq ptr %.pr1468, null
  br i1 %tobool.not.i1209, label %invoke.cont448, label %if.then.i1211

if.then.i1211:                                    ; preds = %invoke.cont436
  %call1.i.i1213 = invoke noundef nonnull align 8 dereferenceable(8) ptr @_ZSt16__ostream_insertIcSt11char_traitsIcEERSt13basic_ostreamIT_T0_ES6_PKS3_l(ptr noundef nonnull align 8 dereferenceable(8) %.pr1468, ptr noundef nonnull @.str.105, i64 noundef 2)
          to label %invoke.cont438 unwind label %lpad435

invoke.cont438:                                   ; preds = %if.then.i1211
  %.pr1470.pr.pr.pr = load ptr, ptr %cond-lvalue412, align 8, !tbaa !26
  %tobool.not.i1215 = icmp eq ptr %.pr1470.pr.pr.pr, null
  br i1 %tobool.not.i1215, label %invoke.cont448, label %if.then.i1217

if.then.i1217:                                    ; preds = %invoke.cont438
  %call1.i.i1219 = invoke noundef nonnull align 8 dereferenceable(8) ptr @_ZSt16__ostream_insertIcSt11char_traitsIcEERSt13basic_ostreamIT_T0_ES6_PKS3_l(ptr noundef nonnull align 8 dereferenceable(8) %.pr1470.pr.pr.pr, ptr noundef nonnull @.str.107, i64 noundef 10)
          to label %invoke.cont440 unwind label %lpad435

invoke.cont440:                                   ; preds = %if.then.i1217
  %.pr1472 = load ptr, ptr %cond-lvalue412, align 8, !tbaa !26
  %tobool.not.i1221 = icmp eq ptr %.pr1472, null
  br i1 %tobool.not.i1221, label %invoke.cont448, label %if.then.i1223

if.then.i1223:                                    ; preds = %invoke.cont440
  %call1.i.i1225 = invoke noundef nonnull align 8 dereferenceable(8) ptr @_ZSt16__ostream_insertIcSt11char_traitsIcEERSt13basic_ostreamIT_T0_ES6_PKS3_l(ptr noundef nonnull align 8 dereferenceable(8) %.pr1472, ptr noundef nonnull @.str.108, i64 noundef 3)
          to label %invoke.cont442 unwind label %lpad435

invoke.cont442:                                   ; preds = %if.then.i1223
  %.pr1474.pr.pr.pr = load ptr, ptr %cond-lvalue412, align 8, !tbaa !26
  %tobool.not.i1227 = icmp eq ptr %.pr1474.pr.pr.pr, null
  br i1 %tobool.not.i1227, label %invoke.cont448, label %if.then.i1229

if.then.i1229:                                    ; preds = %invoke.cont442
  %call1.i.i1231 = invoke noundef nonnull align 8 dereferenceable(8) ptr @_ZSt16__ostream_insertIcSt11char_traitsIcEERSt13basic_ostreamIT_T0_ES6_PKS3_l(ptr noundef nonnull align 8 dereferenceable(8) %.pr1474.pr.pr.pr, ptr noundef nonnull @.str.109, i64 noundef 1)
          to label %invoke.cont444 unwind label %lpad435

invoke.cont444:                                   ; preds = %if.then.i1229
  %.pr1476 = load ptr, ptr %cond-lvalue412, align 8, !tbaa !26
  %tobool.not.i1233 = icmp eq ptr %.pr1476, null
  br i1 %tobool.not.i1233, label %invoke.cont448, label %if.then.i1235

if.then.i1235:                                    ; preds = %invoke.cont444
  %call1.i.i1237 = invoke noundef nonnull align 8 dereferenceable(8) ptr @_ZSt16__ostream_insertIcSt11char_traitsIcEERSt13basic_ostreamIT_T0_ES6_PKS3_l(ptr noundef nonnull align 8 dereferenceable(8) %.pr1476, ptr noundef nonnull @.str.27, i64 noundef 3)
          to label %invoke.cont446 unwind label %lpad435

invoke.cont446:                                   ; preds = %if.then.i1235
  %.pr1478.pr.pr.pr = load ptr, ptr %cond-lvalue412, align 8, !tbaa !26
  %tobool.not.i1239 = icmp eq ptr %.pr1478.pr.pr.pr, null
  br i1 %tobool.not.i1239, label %invoke.cont448, label %if.then.i1241

if.then.i1241:                                    ; preds = %invoke.cont446
  %call1.i.i1243 = invoke noundef nonnull align 8 dereferenceable(8) ptr @_ZSt16__ostream_insertIcSt11char_traitsIcEERSt13basic_ostreamIT_T0_ES6_PKS3_l(ptr noundef nonnull align 8 dereferenceable(8) %.pr1478.pr.pr.pr, ptr noundef nonnull @.str.110, i64 noundef 1)
          to label %invoke.cont448 unwind label %lpad435

invoke.cont448:                                   ; preds = %invoke.cont428, %invoke.cont426, %invoke.cont423, %invoke.cont421, %invoke.cont417, %invoke.cont415, %invoke.cont413, %cond.end411, %invoke.cont436, %invoke.cont438, %invoke.cont430, %invoke.cont432, %invoke.cont442, %invoke.cont440, %invoke.cont444, %invoke.cont446, %if.then.i1241
  %call.i12451247 = invoke noundef double @_ZNK7Results5GetAsIdEET_PKc(ptr noundef nonnull align 8 dereferenceable(80) %e, ptr noundef nonnull @.str.27)
          to label %invoke.cont452 unwind label %lpad451

invoke.cont452:                                   ; preds = %invoke.cont448
  %66 = load ptr, ptr %cond-lvalue412, align 8, !tbaa !26
  %tobool.not.i1249 = icmp eq ptr %66, null
  br i1 %tobool.not.i1249, label %invoke.cont462, label %if.then.i1251

if.then.i1251:                                    ; preds = %invoke.cont452
  %conv.i1246 = fptosi double %call.i12451247 to i32
  %call.i12501252 = invoke noundef nonnull align 8 dereferenceable(8) ptr @_ZNSolsEi(ptr noundef nonnull align 8 dereferenceable(8) %66, i32 noundef %conv.i1246)
          to label %invoke.cont454 unwind label %lpad451

invoke.cont454:                                   ; preds = %if.then.i1251
  %.pr1480 = load ptr, ptr %cond-lvalue412, align 8, !tbaa !26
  %tobool.not.i1254 = icmp eq ptr %.pr1480, null
  br i1 %tobool.not.i1254, label %invoke.cont462, label %if.then.i1256

if.then.i1256:                                    ; preds = %invoke.cont454
  %call1.i.i1258 = invoke noundef nonnull align 8 dereferenceable(8) ptr @_ZSt16__ostream_insertIcSt11char_traitsIcEERSt13basic_ostreamIT_T0_ES6_PKS3_l(ptr noundef nonnull align 8 dereferenceable(8) %.pr1480, ptr noundef nonnull @.str.111, i64 noundef 13)
          to label %invoke.cont456 unwind label %lpad451

invoke.cont456:                                   ; preds = %if.then.i1256
  %.pr1482 = load ptr, ptr %cond-lvalue412, align 8, !tbaa !26
  %tobool.not.i1260 = icmp eq ptr %.pr1482, null
  br i1 %tobool.not.i1260, label %invoke.cont462, label %if.then.i1262

if.then.i1262:                                    ; preds = %invoke.cont456
  %call.i12611263 = invoke noundef nonnull align 8 dereferenceable(8) ptr @_ZNSolsEi(ptr noundef nonnull align 8 dereferenceable(8) %.pr1482, i32 noundef 32)
          to label %invoke.cont460 unwind label %lpad459

invoke.cont460:                                   ; preds = %if.then.i1262
  %.pr1484.pr = load ptr, ptr %cond-lvalue412, align 8, !tbaa !26
  %tobool.not.i1265 = icmp eq ptr %.pr1484.pr, null
  br i1 %tobool.not.i1265, label %invoke.cont462, label %if.then.i1267

if.then.i1267:                                    ; preds = %invoke.cont460
  %call1.i.i1269 = invoke noundef nonnull align 8 dereferenceable(8) ptr @_ZSt16__ostream_insertIcSt11char_traitsIcEERSt13basic_ostreamIT_T0_ES6_PKS3_l(ptr noundef nonnull align 8 dereferenceable(8) %.pr1484.pr, ptr noundef nonnull @.str.103, i64 noundef 1)
          to label %invoke.cont462 unwind label %lpad459

invoke.cont462:                                   ; preds = %invoke.cont454, %invoke.cont452, %invoke.cont456, %invoke.cont460, %if.then.i1267
  br i1 %cmp401.not, label %cleanup.done478, label %cleanup.action469

cleanup.action469:                                ; preds = %invoke.cont462
  call void @_ZN9benchmark8internal12CheckHandlerD2Ev(ptr noundef nonnull align 8 dereferenceable(8) %ref.tmp405) #23
  unreachable

ehcleanup388:                                     ; preds = %lpad337, %lpad368, %lpad376, %lpad352, %lpad325
  %.pn520.pn.pn.pn = phi { ptr, i32 } [ %55, %lpad325 ], [ %56, %lpad337 ], [ %57, %lpad352 ], [ %59, %lpad376 ], [ %58, %lpad368 ]
  br i1 %cmp318.not, label %eh.resume, label %cleanup.action473.invoke

lpad408:                                          ; preds = %if.then.i1165, %if.then.i1159, %if.then.i1153
  %67 = landingpad { ptr, i32 }
          cleanup
  br label %ehcleanup471

lpad420:                                          ; preds = %if.then.i1200, %if.then.i1194, %if.then.i1188, %if.then.i1182, %if.then.i1176, %if.then.i1171
  %68 = landingpad { ptr, i32 }
          cleanup
  br label %ehcleanup471

lpad435:                                          ; preds = %if.then.i1241, %if.then.i1235, %if.then.i1229, %if.then.i1223, %if.then.i1217, %if.then.i1211, %if.then.i1206
  %69 = landingpad { ptr, i32 }
          cleanup
  br label %ehcleanup471

lpad451:                                          ; preds = %if.then.i1256, %if.then.i1251, %invoke.cont448
  %70 = landingpad { ptr, i32 }
          cleanup
  br label %ehcleanup471

lpad459:                                          ; preds = %if.then.i1267, %if.then.i1262
  %71 = landingpad { ptr, i32 }
          cleanup
  br label %ehcleanup471

cleanup.done478:                                  ; preds = %invoke.cont462
  ret void

ehcleanup471:                                     ; preds = %lpad420, %lpad451, %lpad459, %lpad435, %lpad408
  %.pn525.pn.pn.pn = phi { ptr, i32 } [ %67, %lpad408 ], [ %68, %lpad420 ], [ %69, %lpad435 ], [ %71, %lpad459 ], [ %70, %lpad451 ]
  br i1 %cmp401.not, label %eh.resume, label %cleanup.action473.invoke

cleanup.action473.invoke:                         ; preds = %ehcleanup471, %ehcleanup388, %ehcleanup305, %ehcleanup222, %ehcleanup139, %ehcleanup56
  %72 = phi ptr [ %ref.tmp, %ehcleanup56 ], [ %ref.tmp73, %ehcleanup139 ], [ %ref.tmp156, %ehcleanup222 ], [ %ref.tmp239, %ehcleanup305 ], [ %ref.tmp322, %ehcleanup388 ], [ %ref.tmp405, %ehcleanup471 ]
  invoke void @_ZN9benchmark8internal12CheckHandlerD2Ev(ptr noundef nonnull align 8 dereferenceable(8) %72) #23
          to label %cleanup.action473.cont unwind label %terminate.lpad

cleanup.action473.cont:                           ; preds = %cleanup.action473.invoke
  unreachable

eh.resume:                                        ; preds = %ehcleanup471, %ehcleanup388, %ehcleanup305, %ehcleanup222, %ehcleanup139, %ehcleanup56
  %.pn525.pn.pn.pn.pn = phi { ptr, i32 } [ %.pn.pn.pn.pn, %ehcleanup56 ], [ %.pn505.pn.pn.pn, %ehcleanup139 ], [ %.pn510.pn.pn.pn, %ehcleanup222 ], [ %.pn515.pn.pn.pn, %ehcleanup305 ], [ %.pn520.pn.pn.pn, %ehcleanup388 ], [ %.pn525.pn.pn.pn, %ehcleanup471 ]
  resume { ptr, i32 } %.pn525.pn.pn.pn.pn

terminate.lpad:                                   ; preds = %cleanup.action473.invoke
  %73 = landingpad { ptr, i32 }
          catch ptr null
  %74 = extractvalue { ptr, i32 } %73, 0
  call void @__clang_call_terminate(ptr %74) #24
  unreachable
}

; Function Attrs: uwtable
define linkonce_odr hidden void @_ZN9benchmark8internal12CheckHandlerC2EPKcS3_S3_i(ptr noundef nonnull align 8 dereferenceable(8) %this, ptr noundef %check, ptr noundef %file, ptr noundef %func, i32 noundef %line) unnamed_addr #4 comdat align 2 personality ptr @__gxx_personality_v0 {
entry:
  %0 = load atomic i8, ptr @_ZGVZN9benchmark8internal19GetErrorLogInstanceEvE3log acquire, align 8
  %guard.uninitialized.i = icmp eq i8 %0, 0
  br i1 %guard.uninitialized.i, label %init.check.i, label %_ZN9benchmark8internal19GetErrorLogInstanceEv.exit, !prof !25

init.check.i:                                     ; preds = %entry
  %1 = tail call i32 @__cxa_guard_acquire(ptr nonnull @_ZGVZN9benchmark8internal19GetErrorLogInstanceEvE3log) #21
  %tobool.not.i = icmp eq i32 %1, 0
  br i1 %tobool.not.i, label %_ZN9benchmark8internal19GetErrorLogInstanceEv.exit, label %init.i

init.i:                                           ; preds = %init.check.i
  store ptr @_ZSt4clog, ptr @_ZZN9benchmark8internal19GetErrorLogInstanceEvE3log, align 8, !tbaa !26
  tail call void @__cxa_guard_release(ptr nonnull @_ZGVZN9benchmark8internal19GetErrorLogInstanceEvE3log) #21
  br label %_ZN9benchmark8internal19GetErrorLogInstanceEv.exit

_ZN9benchmark8internal19GetErrorLogInstanceEv.exit: ; preds = %entry, %init.check.i, %init.i
  store ptr @_ZZN9benchmark8internal19GetErrorLogInstanceEvE3log, ptr %this, align 8, !tbaa !23
  %2 = load ptr, ptr @_ZZN9benchmark8internal19GetErrorLogInstanceEvE3log, align 8, !tbaa !26
  %tobool.not.i11 = icmp eq ptr %2, null
  br i1 %tobool.not.i11, label %_ZN9benchmark8internallsIA11_cEERNS0_7LogTypeES4_RKT_.exit, label %if.then.i

if.then.i:                                        ; preds = %_ZN9benchmark8internal19GetErrorLogInstanceEv.exit
  %tobool.not.i.i = icmp eq ptr %file, null
  br i1 %tobool.not.i.i, label %if.then.i.i, label %if.else.i.i

if.then.i.i:                                      ; preds = %if.then.i
  %vtable.i.i = load ptr, ptr %2, align 8, !tbaa !30
  %vbase.offset.ptr.i.i = getelementptr i8, ptr %vtable.i.i, i64 -24
  %vbase.offset.i.i = load i64, ptr %vbase.offset.ptr.i.i, align 8
  %add.ptr.i.i = getelementptr inbounds i8, ptr %2, i64 %vbase.offset.i.i
  %_M_streambuf_state.i.i.i.i = getelementptr inbounds %"class.std::ios_base", ptr %add.ptr.i.i, i64 0, i32 5
  %3 = load i32, ptr %_M_streambuf_state.i.i.i.i, align 8, !tbaa !32
  %or.i.i.i.i = or i32 %3, 1
  tail call void @_ZNSt9basic_iosIcSt11char_traitsIcEE5clearESt12_Ios_Iostate(ptr noundef nonnull align 8 dereferenceable(264) %add.ptr.i.i, i32 noundef %or.i.i.i.i)
  br label %_ZN9benchmark8internallsIPKcEERNS0_7LogTypeES5_RKT_.exit

if.else.i.i:                                      ; preds = %if.then.i
  %call.i.i.i = tail call i64 @strlen(ptr noundef nonnull dereferenceable(1) %file) #21
  %call1.i.i = tail call noundef nonnull align 8 dereferenceable(8) ptr @_ZSt16__ostream_insertIcSt11char_traitsIcEERSt13basic_ostreamIT_T0_ES6_PKS3_l(ptr noundef nonnull align 8 dereferenceable(8) %2, ptr noundef nonnull %file, i64 noundef %call.i.i.i)
  br label %_ZN9benchmark8internallsIPKcEERNS0_7LogTypeES5_RKT_.exit

_ZN9benchmark8internallsIPKcEERNS0_7LogTypeES5_RKT_.exit: ; preds = %if.then.i.i, %if.else.i.i
  %.pr = load ptr, ptr @_ZZN9benchmark8internal19GetErrorLogInstanceEvE3log, align 8, !tbaa !26
  %tobool.not.i12 = icmp eq ptr %.pr, null
  br i1 %tobool.not.i12, label %_ZN9benchmark8internallsIA11_cEERNS0_7LogTypeES4_RKT_.exit, label %_ZN9benchmark8internallsIA2_cEERNS0_7LogTypeES4_RKT_.exit

_ZN9benchmark8internallsIA2_cEERNS0_7LogTypeES4_RKT_.exit: ; preds = %_ZN9benchmark8internallsIPKcEERNS0_7LogTypeES5_RKT_.exit
  %call1.i.i14 = tail call noundef nonnull align 8 dereferenceable(8) ptr @_ZSt16__ostream_insertIcSt11char_traitsIcEERSt13basic_ostreamIT_T0_ES6_PKS3_l(ptr noundef nonnull align 8 dereferenceable(8) %.pr, ptr noundef nonnull @.str.104, i64 noundef 1)
  %.pr59 = load ptr, ptr @_ZZN9benchmark8internal19GetErrorLogInstanceEvE3log, align 8, !tbaa !26
  %tobool.not.i16 = icmp eq ptr %.pr59, null
  br i1 %tobool.not.i16, label %_ZN9benchmark8internallsIA11_cEERNS0_7LogTypeES4_RKT_.exit, label %_ZN9benchmark8internallsIiEERNS0_7LogTypeES3_RKT_.exit

_ZN9benchmark8internallsIiEERNS0_7LogTypeES3_RKT_.exit: ; preds = %_ZN9benchmark8internallsIA2_cEERNS0_7LogTypeES4_RKT_.exit
  %call.i = tail call noundef nonnull align 8 dereferenceable(8) ptr @_ZNSolsEi(ptr noundef nonnull align 8 dereferenceable(8) %.pr59, i32 noundef %line)
  %.pr61.pr = load ptr, ptr @_ZZN9benchmark8internal19GetErrorLogInstanceEvE3log, align 8, !tbaa !26
  %tobool.not.i18 = icmp eq ptr %.pr61.pr, null
  br i1 %tobool.not.i18, label %_ZN9benchmark8internallsIA11_cEERNS0_7LogTypeES4_RKT_.exit, label %_ZN9benchmark8internallsIA3_cEERNS0_7LogTypeES4_RKT_.exit

_ZN9benchmark8internallsIA3_cEERNS0_7LogTypeES4_RKT_.exit: ; preds = %_ZN9benchmark8internallsIiEERNS0_7LogTypeES3_RKT_.exit
  %call1.i.i20 = tail call noundef nonnull align 8 dereferenceable(8) ptr @_ZSt16__ostream_insertIcSt11char_traitsIcEERSt13basic_ostreamIT_T0_ES6_PKS3_l(ptr noundef nonnull align 8 dereferenceable(8) %.pr61.pr, ptr noundef nonnull @.str.105, i64 noundef 2)
  %.pr63 = load ptr, ptr @_ZZN9benchmark8internal19GetErrorLogInstanceEvE3log, align 8, !tbaa !26
  %tobool.not.i22 = icmp eq ptr %.pr63, null
  br i1 %tobool.not.i22, label %_ZN9benchmark8internallsIA11_cEERNS0_7LogTypeES4_RKT_.exit, label %if.then.i24

if.then.i24:                                      ; preds = %_ZN9benchmark8internallsIA3_cEERNS0_7LogTypeES4_RKT_.exit
  %tobool.not.i.i23 = icmp eq ptr %func, null
  br i1 %tobool.not.i.i23, label %if.then.i.i31, label %if.else.i.i34

if.then.i.i31:                                    ; preds = %if.then.i24
  %vtable.i.i25 = load ptr, ptr %.pr63, align 8, !tbaa !30
  %vbase.offset.ptr.i.i26 = getelementptr i8, ptr %vtable.i.i25, i64 -24
  %vbase.offset.i.i27 = load i64, ptr %vbase.offset.ptr.i.i26, align 8
  %add.ptr.i.i28 = getelementptr inbounds i8, ptr %.pr63, i64 %vbase.offset.i.i27
  %_M_streambuf_state.i.i.i.i29 = getelementptr inbounds %"class.std::ios_base", ptr %add.ptr.i.i28, i64 0, i32 5
  %4 = load i32, ptr %_M_streambuf_state.i.i.i.i29, align 8, !tbaa !32
  %or.i.i.i.i30 = or i32 %4, 1
  tail call void @_ZNSt9basic_iosIcSt11char_traitsIcEE5clearESt12_Ios_Iostate(ptr noundef nonnull align 8 dereferenceable(264) %add.ptr.i.i28, i32 noundef %or.i.i.i.i30)
  br label %_ZN9benchmark8internallsIPKcEERNS0_7LogTypeES5_RKT_.exit35

if.else.i.i34:                                    ; preds = %if.then.i24
  %call.i.i.i32 = tail call i64 @strlen(ptr noundef nonnull dereferenceable(1) %func) #21
  %call1.i.i33 = tail call noundef nonnull align 8 dereferenceable(8) ptr @_ZSt16__ostream_insertIcSt11char_traitsIcEERSt13basic_ostreamIT_T0_ES6_PKS3_l(ptr noundef nonnull align 8 dereferenceable(8) %.pr63, ptr noundef nonnull %func, i64 noundef %call.i.i.i32)
  br label %_ZN9benchmark8internallsIPKcEERNS0_7LogTypeES5_RKT_.exit35

_ZN9benchmark8internallsIPKcEERNS0_7LogTypeES5_RKT_.exit35: ; preds = %if.then.i.i31, %if.else.i.i34
  %.pr65.pr.pr = load ptr, ptr @_ZZN9benchmark8internal19GetErrorLogInstanceEvE3log, align 8, !tbaa !26
  %tobool.not.i36 = icmp eq ptr %.pr65.pr.pr, null
  br i1 %tobool.not.i36, label %_ZN9benchmark8internallsIA11_cEERNS0_7LogTypeES4_RKT_.exit, label %_ZN9benchmark8internallsIA10_cEERNS0_7LogTypeES4_RKT_.exit

_ZN9benchmark8internallsIA10_cEERNS0_7LogTypeES4_RKT_.exit: ; preds = %_ZN9benchmark8internallsIPKcEERNS0_7LogTypeES5_RKT_.exit35
  %call1.i.i38 = tail call noundef nonnull align 8 dereferenceable(8) ptr @_ZSt16__ostream_insertIcSt11char_traitsIcEERSt13basic_ostreamIT_T0_ES6_PKS3_l(ptr noundef nonnull align 8 dereferenceable(8) %.pr65.pr.pr, ptr noundef nonnull @.str.182, i64 noundef 9)
  %.pr67 = load ptr, ptr @_ZZN9benchmark8internal19GetErrorLogInstanceEvE3log, align 8, !tbaa !26
  %tobool.not.i40 = icmp eq ptr %.pr67, null
  br i1 %tobool.not.i40, label %_ZN9benchmark8internallsIA11_cEERNS0_7LogTypeES4_RKT_.exit, label %if.then.i42

if.then.i42:                                      ; preds = %_ZN9benchmark8internallsIA10_cEERNS0_7LogTypeES4_RKT_.exit
  %tobool.not.i.i41 = icmp eq ptr %check, null
  br i1 %tobool.not.i.i41, label %if.then.i.i49, label %if.else.i.i52

if.then.i.i49:                                    ; preds = %if.then.i42
  %vtable.i.i43 = load ptr, ptr %.pr67, align 8, !tbaa !30
  %vbase.offset.ptr.i.i44 = getelementptr i8, ptr %vtable.i.i43, i64 -24
  %vbase.offset.i.i45 = load i64, ptr %vbase.offset.ptr.i.i44, align 8
  %add.ptr.i.i46 = getelementptr inbounds i8, ptr %.pr67, i64 %vbase.offset.i.i45
  %_M_streambuf_state.i.i.i.i47 = getelementptr inbounds %"class.std::ios_base", ptr %add.ptr.i.i46, i64 0, i32 5
  %5 = load i32, ptr %_M_streambuf_state.i.i.i.i47, align 8, !tbaa !32
  %or.i.i.i.i48 = or i32 %5, 1
  tail call void @_ZNSt9basic_iosIcSt11char_traitsIcEE5clearESt12_Ios_Iostate(ptr noundef nonnull align 8 dereferenceable(264) %add.ptr.i.i46, i32 noundef %or.i.i.i.i48)
  br label %_ZN9benchmark8internallsIPKcEERNS0_7LogTypeES5_RKT_.exit53

if.else.i.i52:                                    ; preds = %if.then.i42
  %call.i.i.i50 = tail call i64 @strlen(ptr noundef nonnull dereferenceable(1) %check) #21
  %call1.i.i51 = tail call noundef nonnull align 8 dereferenceable(8) ptr @_ZSt16__ostream_insertIcSt11char_traitsIcEERSt13basic_ostreamIT_T0_ES6_PKS3_l(ptr noundef nonnull align 8 dereferenceable(8) %.pr67, ptr noundef nonnull %check, i64 noundef %call.i.i.i50)
  br label %_ZN9benchmark8internallsIPKcEERNS0_7LogTypeES5_RKT_.exit53

_ZN9benchmark8internallsIPKcEERNS0_7LogTypeES5_RKT_.exit53: ; preds = %if.then.i.i49, %if.else.i.i52
  %.pr69.pr.pr = load ptr, ptr @_ZZN9benchmark8internal19GetErrorLogInstanceEvE3log, align 8, !tbaa !26
  %tobool.not.i54 = icmp eq ptr %.pr69.pr.pr, null
  br i1 %tobool.not.i54, label %_ZN9benchmark8internallsIA11_cEERNS0_7LogTypeES4_RKT_.exit, label %if.then.i57

if.then.i57:                                      ; preds = %_ZN9benchmark8internallsIPKcEERNS0_7LogTypeES5_RKT_.exit53
  %call1.i.i56 = tail call noundef nonnull align 8 dereferenceable(8) ptr @_ZSt16__ostream_insertIcSt11char_traitsIcEERSt13basic_ostreamIT_T0_ES6_PKS3_l(ptr noundef nonnull align 8 dereferenceable(8) %.pr69.pr.pr, ptr noundef nonnull @.str.183, i64 noundef 10)
  br label %_ZN9benchmark8internallsIA11_cEERNS0_7LogTypeES4_RKT_.exit

_ZN9benchmark8internallsIA11_cEERNS0_7LogTypeES4_RKT_.exit: ; preds = %_ZN9benchmark8internallsIA2_cEERNS0_7LogTypeES4_RKT_.exit, %_ZN9benchmark8internallsIiEERNS0_7LogTypeES3_RKT_.exit, %_ZN9benchmark8internal19GetErrorLogInstanceEv.exit, %_ZN9benchmark8internallsIPKcEERNS0_7LogTypeES5_RKT_.exit, %_ZN9benchmark8internallsIPKcEERNS0_7LogTypeES5_RKT_.exit35, %_ZN9benchmark8internallsIA3_cEERNS0_7LogTypeES4_RKT_.exit, %_ZN9benchmark8internallsIA10_cEERNS0_7LogTypeES4_RKT_.exit, %_ZN9benchmark8internallsIPKcEERNS0_7LogTypeES5_RKT_.exit53, %if.then.i57
  ret void
}

; Function Attrs: noreturn uwtable
define linkonce_odr hidden void @_ZN9benchmark8internal12CheckHandlerD2Ev(ptr noundef nonnull align 8 dereferenceable(8) %this) unnamed_addr #7 comdat align 2 {
entry:
  %0 = load ptr, ptr %this, align 8, !tbaa !28
  %1 = load ptr, ptr %0, align 8, !tbaa !26
  %tobool.not.i = icmp eq ptr %1, null
  br i1 %tobool.not.i, label %_ZN9benchmark8internallsERNS0_7LogTypeEPFRSoS3_E.exit, label %if.then.i

if.then.i:                                        ; preds = %entry
  %vtable.i = load ptr, ptr %1, align 8, !tbaa !30
  %vbase.offset.ptr.i = getelementptr i8, ptr %vtable.i, i64 -24
  %vbase.offset.i = load i64, ptr %vbase.offset.ptr.i, align 8
  %add.ptr.i = getelementptr inbounds i8, ptr %1, i64 %vbase.offset.i
  %_M_ctype.i.i = getelementptr inbounds %"class.std::basic_ios", ptr %add.ptr.i, i64 0, i32 5
  %2 = load ptr, ptr %_M_ctype.i.i, align 8, !tbaa !39
  %tobool.not.i.i.i = icmp eq ptr %2, null
  br i1 %tobool.not.i.i.i, label %if.then.i.i.i, label %_ZSt13__check_facetISt5ctypeIcEERKT_PS3_.exit.i.i

if.then.i.i.i:                                    ; preds = %if.then.i
  tail call void @_ZSt16__throw_bad_castv() #23
  unreachable

_ZSt13__check_facetISt5ctypeIcEERKT_PS3_.exit.i.i: ; preds = %if.then.i
  %_M_widen_ok.i.i.i = getelementptr inbounds %"class.std::ctype", ptr %2, i64 0, i32 8
  %3 = load i8, ptr %_M_widen_ok.i.i.i, align 8, !tbaa !42
  %tobool.not.i3.i.i = icmp eq i8 %3, 0
  br i1 %tobool.not.i3.i.i, label %if.end.i.i.i, label %if.then.i4.i.i

if.then.i4.i.i:                                   ; preds = %_ZSt13__check_facetISt5ctypeIcEERKT_PS3_.exit.i.i
  %arrayidx.i.i.i = getelementptr inbounds %"class.std::ctype", ptr %2, i64 0, i32 9, i64 10
  %4 = load i8, ptr %arrayidx.i.i.i, align 1, !tbaa !13
  br label %_ZSt4endlIcSt11char_traitsIcEERSt13basic_ostreamIT_T0_ES6_.exit

if.end.i.i.i:                                     ; preds = %_ZSt13__check_facetISt5ctypeIcEERKT_PS3_.exit.i.i
  tail call void @_ZNKSt5ctypeIcE13_M_widen_initEv(ptr noundef nonnull align 8 dereferenceable(570) %2)
  %vtable.i.i.i = load ptr, ptr %2, align 8, !tbaa !30
  %vfn.i.i.i = getelementptr inbounds ptr, ptr %vtable.i.i.i, i64 6
  %5 = load ptr, ptr %vfn.i.i.i, align 8
  %call.i.i.i = tail call noundef signext i8 %5(ptr noundef nonnull align 8 dereferenceable(570) %2, i8 noundef signext 10)
  br label %_ZSt4endlIcSt11char_traitsIcEERSt13basic_ostreamIT_T0_ES6_.exit

_ZSt4endlIcSt11char_traitsIcEERSt13basic_ostreamIT_T0_ES6_.exit: ; preds = %if.then.i4.i.i, %if.end.i.i.i
  %retval.0.i.i.i = phi i8 [ %4, %if.then.i4.i.i ], [ %call.i.i.i, %if.end.i.i.i ]
  %call1.i = tail call noundef nonnull align 8 dereferenceable(8) ptr @_ZNSo3putEc(ptr noundef nonnull align 8 dereferenceable(8) %1, i8 noundef signext %retval.0.i.i.i)
  %call.i.i2 = tail call noundef nonnull align 8 dereferenceable(8) ptr @_ZNSo5flushEv(ptr noundef nonnull align 8 dereferenceable(8) %call1.i)
  br label %_ZN9benchmark8internallsERNS0_7LogTypeEPFRSoS3_E.exit

_ZN9benchmark8internallsERNS0_7LogTypeEPFRSoS3_E.exit: ; preds = %entry, %_ZSt4endlIcSt11char_traitsIcEERSt13basic_ostreamIT_T0_ES6_.exit
  tail call void @_ZN9benchmark8internal16CallAbortHandlerEv() #23
  unreachable
}

; Function Attrs: noinline noreturn nounwind
define linkonce_odr hidden void @__clang_call_terminate(ptr noundef %0) local_unnamed_addr #8 comdat {
  %2 = tail call ptr @__cxa_begin_catch(ptr %0) #21
  tail call void @_ZSt9terminatev() #24
  unreachable
}

declare ptr @__cxa_begin_catch(ptr) local_unnamed_addr

declare void @_ZSt9terminatev() local_unnamed_addr

declare noundef i64 @_Z10AddCheckerPKcRKSt8functionIFvRK7ResultsEE(ptr noundef, ptr noundef nonnull align 8 dereferenceable(32)) local_unnamed_addr #0

; Function Attrs: uwtable
define hidden void @_Z23BM_CounterRates_TabularRN9benchmark5StateE(ptr noundef nonnull align 8 dereferenceable(144) %state) #4 personality ptr @__gxx_personality_v0 {
entry:
  %__an.i.i.i = alloca %"struct.std::_Rb_tree<std::__cxx11::basic_string<char>, std::pair<const std::__cxx11::basic_string<char>, benchmark::Counter>, std::_Select1st<std::pair<const std::__cxx11::basic_string<char>, benchmark::Counter>>, std::less<std::__cxx11::basic_string<char>>>::_Alloc_node", align 8
  %ref.tmp5 = alloca [6 x %"struct.std::pair"], align 8
  %ref.tmp6 = alloca %"class.std::__cxx11::basic_string", align 8
  %ref.tmp12 = alloca %"class.std::__cxx11::basic_string", align 8
  %ref.tmp21 = alloca %"class.std::__cxx11::basic_string", align 8
  %ref.tmp30 = alloca %"class.std::__cxx11::basic_string", align 8
  %ref.tmp39 = alloca %"class.std::__cxx11::basic_string", align 8
  %ref.tmp48 = alloca %"class.std::__cxx11::basic_string", align 8
  %error_occurred_.i.i = getelementptr inbounds %"class.benchmark::State", ptr %state, i64 0, i32 5
  %0 = load i8, ptr %error_occurred_.i.i, align 2, !tbaa !45, !range !59, !noundef !60
  %tobool.not.i.i = icmp ne i8 %0, 0
  %max_iterations.i.i = getelementptr inbounds %"class.benchmark::State", ptr %state, i64 0, i32 2
  %1 = load i64, ptr %max_iterations.i.i, align 8
  tail call void @_ZN9benchmark5State16StartKeepRunningEv(ptr noundef nonnull align 8 dereferenceable(144) %state)
  %cmp.not.i.not312314 = icmp eq i64 %1, 0
  %cmp.not.i.not312 = select i1 %tobool.not.i.i, i1 true, i1 %cmp.not.i.not312314
  br i1 %cmp.not.i.not312, label %invoke.cont55, label %for.body.lr.ph, !prof !61

for.body.lr.ph:                                   ; preds = %entry
  %started_.i = getelementptr inbounds %"class.benchmark::State", ptr %state, i64 0, i32 3
  %batch_leftover_.i = getelementptr inbounds %"class.benchmark::State", ptr %state, i64 0, i32 1
  br label %for.body

for.body:                                         ; preds = %for.body.lr.ph, %_ZN9benchmark5State13StateIteratorppEv.exit
  %__begin1.sroa.0.0313 = phi i64 [ %1, %for.body.lr.ph ], [ %dec.i, %_ZN9benchmark5State13StateIteratorppEv.exit ]
  %2 = load i8, ptr %started_.i, align 8, !tbaa !62, !range !59, !noundef !60
  %tobool.not.i = icmp eq i8 %2, 0
  br i1 %tobool.not.i, label %_ZN9benchmark5State13StateIteratorppEv.exit, label %if.end.i117, !prof !61

if.end.i117:                                      ; preds = %for.body
  %3 = load i64, ptr %max_iterations.i.i, align 8, !tbaa !63
  %4 = load i64, ptr %state, align 8, !tbaa !64
  %sub.i = sub i64 %3, %4
  %5 = load i64, ptr %batch_leftover_.i, align 8, !tbaa !65
  %add.i = add i64 %sub.i, %5
  br label %_ZN9benchmark5State13StateIteratorppEv.exit

_ZN9benchmark5State13StateIteratorppEv.exit:      ; preds = %if.end.i117, %for.body
  %retval.0.i = phi i64 [ %add.i, %if.end.i117 ], [ 0, %for.body ]
  tail call void asm sideeffect "", "r|m,~{memory},~{dirflag},~{fpsr},~{flags}"(i64 %retval.0.i) #21, !srcloc !66
  %dec.i = add i64 %__begin1.sroa.0.0313, -1
  %cmp.not.i.not = icmp eq i64 %dec.i, 0
  br i1 %cmp.not.i.not, label %invoke.cont55, label %for.body, !prof !61

invoke.cont55:                                    ; preds = %_ZN9benchmark5State13StateIteratorppEv.exit, %entry
  tail call void @_ZN9benchmark5State17FinishKeepRunningEv(ptr noundef nonnull align 8 dereferenceable(144) %state)
  %counters = getelementptr inbounds %"class.benchmark::State", ptr %state, i64 0, i32 8
  call void @llvm.lifetime.start.p0(i64 288, ptr nonnull %ref.tmp5) #21
  call void @llvm.lifetime.start.p0(i64 32, ptr nonnull %ref.tmp6) #21
  %6 = getelementptr inbounds %"class.std::__cxx11::basic_string", ptr %ref.tmp6, i64 0, i32 2
  store ptr %6, ptr %ref.tmp6, align 8, !tbaa !5
  call void @llvm.memcpy.p0.p0.i64(ptr noundef nonnull align 8 dereferenceable(3) %6, ptr noundef nonnull align 1 dereferenceable(3) @.str.22, i64 3, i1 false)
  %_M_string_length.i.i.i.i = getelementptr inbounds %"class.std::__cxx11::basic_string", ptr %ref.tmp6, i64 0, i32 1
  store i64 3, ptr %_M_string_length.i.i.i.i, align 8, !tbaa !10
  %arrayidx.i.i.i = getelementptr inbounds i8, ptr %ref.tmp6, i64 19
  store i8 0, ptr %arrayidx.i.i.i, align 1, !tbaa !13
  %7 = getelementptr inbounds %"class.std::__cxx11::basic_string", ptr %ref.tmp5, i64 0, i32 2
  store ptr %7, ptr %ref.tmp5, align 8, !tbaa !5
  call void @llvm.memcpy.p0.p0.i64(ptr noundef nonnull align 8 dereferenceable(3) %7, ptr noundef nonnull align 1 dereferenceable(3) @.str.22, i64 3, i1 false)
  %_M_string_length.i.i.i.i.i = getelementptr inbounds %"class.std::__cxx11::basic_string", ptr %ref.tmp5, i64 0, i32 1
  store i64 3, ptr %_M_string_length.i.i.i.i.i, align 8, !tbaa !10
  %arrayidx.i.i.i.i = getelementptr inbounds i8, ptr %ref.tmp5, i64 19
  store i8 0, ptr %arrayidx.i.i.i.i, align 1, !tbaa !13
  %second.i = getelementptr inbounds %"struct.std::pair", ptr %ref.tmp5, i64 0, i32 1
  store double 1.000000e+00, ptr %second.i, align 8, !tbaa.struct !14
  %ref.tmp8.sroa.5.0.second.i.sroa_idx = getelementptr inbounds %"struct.std::pair", ptr %ref.tmp5, i64 0, i32 1, i32 1
  store i32 3, ptr %ref.tmp8.sroa.5.0.second.i.sroa_idx, align 8, !tbaa.struct !21
  %ref.tmp8.sroa.6.0.second.i.sroa_idx = getelementptr inbounds %"struct.std::pair", ptr %ref.tmp5, i64 0, i32 1, i32 2
  store i32 1000, ptr %ref.tmp8.sroa.6.0.second.i.sroa_idx, align 4, !tbaa.struct !22
  %arrayinit.element = getelementptr inbounds %"struct.std::pair", ptr %ref.tmp5, i64 1
  call void @llvm.lifetime.start.p0(i64 32, ptr nonnull %ref.tmp12) #21
  %8 = getelementptr inbounds %"class.std::__cxx11::basic_string", ptr %ref.tmp12, i64 0, i32 2
  store ptr %8, ptr %ref.tmp12, align 8, !tbaa !5
  call void @llvm.memcpy.p0.p0.i64(ptr noundef nonnull align 8 dereferenceable(3) %8, ptr noundef nonnull align 1 dereferenceable(3) @.str.23, i64 3, i1 false)
  %_M_string_length.i.i.i.i140 = getelementptr inbounds %"class.std::__cxx11::basic_string", ptr %ref.tmp12, i64 0, i32 1
  store i64 3, ptr %_M_string_length.i.i.i.i140, align 8, !tbaa !10
  %arrayidx.i.i.i141 = getelementptr inbounds i8, ptr %ref.tmp12, i64 19
  store i8 0, ptr %arrayidx.i.i.i141, align 1, !tbaa !13
  %9 = getelementptr inbounds %"struct.std::pair", ptr %ref.tmp5, i64 1, i32 0, i32 2
  store ptr %9, ptr %arrayinit.element, align 8, !tbaa !5
  call void @llvm.memcpy.p0.p0.i64(ptr noundef nonnull align 8 dereferenceable(3) %9, ptr noundef nonnull align 1 dereferenceable(3) @.str.23, i64 3, i1 false)
  %_M_string_length.i.i.i.i.i152 = getelementptr inbounds %"struct.std::pair", ptr %ref.tmp5, i64 1, i32 0, i32 1
  store i64 3, ptr %_M_string_length.i.i.i.i.i152, align 8, !tbaa !10
  %arrayidx.i.i.i.i153 = getelementptr inbounds i8, ptr %ref.tmp5, i64 67
  store i8 0, ptr %arrayidx.i.i.i.i153, align 1, !tbaa !13
  %second.i154 = getelementptr inbounds %"struct.std::pair", ptr %ref.tmp5, i64 1, i32 1
  store double 2.000000e+00, ptr %second.i154, align 8, !tbaa.struct !14
  %ref.tmp16.sroa.5.0.second.i154.sroa_idx = getelementptr inbounds %"struct.std::pair", ptr %ref.tmp5, i64 1, i32 1, i32 1
  store i32 3, ptr %ref.tmp16.sroa.5.0.second.i154.sroa_idx, align 8, !tbaa.struct !21
  %ref.tmp16.sroa.6.0.second.i154.sroa_idx = getelementptr inbounds %"struct.std::pair", ptr %ref.tmp5, i64 1, i32 1, i32 2
  store i32 1000, ptr %ref.tmp16.sroa.6.0.second.i154.sroa_idx, align 4, !tbaa.struct !22
  %arrayinit.element20 = getelementptr inbounds %"struct.std::pair", ptr %ref.tmp5, i64 2
  call void @llvm.lifetime.start.p0(i64 32, ptr nonnull %ref.tmp21) #21
  %10 = getelementptr inbounds %"class.std::__cxx11::basic_string", ptr %ref.tmp21, i64 0, i32 2
  store ptr %10, ptr %ref.tmp21, align 8, !tbaa !5
  call void @llvm.memcpy.p0.p0.i64(ptr noundef nonnull align 8 dereferenceable(3) %10, ptr noundef nonnull align 1 dereferenceable(3) @.str.24, i64 3, i1 false)
  %_M_string_length.i.i.i.i166 = getelementptr inbounds %"class.std::__cxx11::basic_string", ptr %ref.tmp21, i64 0, i32 1
  store i64 3, ptr %_M_string_length.i.i.i.i166, align 8, !tbaa !10
  %arrayidx.i.i.i167 = getelementptr inbounds i8, ptr %ref.tmp21, i64 19
  store i8 0, ptr %arrayidx.i.i.i167, align 1, !tbaa !13
  %11 = getelementptr inbounds %"struct.std::pair", ptr %ref.tmp5, i64 2, i32 0, i32 2
  store ptr %11, ptr %arrayinit.element20, align 8, !tbaa !5
  call void @llvm.memcpy.p0.p0.i64(ptr noundef nonnull align 8 dereferenceable(3) %11, ptr noundef nonnull align 1 dereferenceable(3) @.str.24, i64 3, i1 false)
  %_M_string_length.i.i.i.i.i178 = getelementptr inbounds %"struct.std::pair", ptr %ref.tmp5, i64 2, i32 0, i32 1
  store i64 3, ptr %_M_string_length.i.i.i.i.i178, align 8, !tbaa !10
  %arrayidx.i.i.i.i179 = getelementptr inbounds i8, ptr %ref.tmp5, i64 115
  store i8 0, ptr %arrayidx.i.i.i.i179, align 1, !tbaa !13
  %second.i180 = getelementptr inbounds %"struct.std::pair", ptr %ref.tmp5, i64 2, i32 1
  store double 4.000000e+00, ptr %second.i180, align 8, !tbaa.struct !14
  %ref.tmp25.sroa.5.0.second.i180.sroa_idx = getelementptr inbounds %"struct.std::pair", ptr %ref.tmp5, i64 2, i32 1, i32 1
  store i32 3, ptr %ref.tmp25.sroa.5.0.second.i180.sroa_idx, align 8, !tbaa.struct !21
  %ref.tmp25.sroa.6.0.second.i180.sroa_idx = getelementptr inbounds %"struct.std::pair", ptr %ref.tmp5, i64 2, i32 1, i32 2
  store i32 1000, ptr %ref.tmp25.sroa.6.0.second.i180.sroa_idx, align 4, !tbaa.struct !22
  %arrayinit.element29 = getelementptr inbounds %"struct.std::pair", ptr %ref.tmp5, i64 3
  call void @llvm.lifetime.start.p0(i64 32, ptr nonnull %ref.tmp30) #21
  %12 = getelementptr inbounds %"class.std::__cxx11::basic_string", ptr %ref.tmp30, i64 0, i32 2
  store ptr %12, ptr %ref.tmp30, align 8, !tbaa !5
  call void @llvm.memcpy.p0.p0.i64(ptr noundef nonnull align 8 dereferenceable(3) %12, ptr noundef nonnull align 1 dereferenceable(3) @.str.25, i64 3, i1 false)
  %_M_string_length.i.i.i.i192 = getelementptr inbounds %"class.std::__cxx11::basic_string", ptr %ref.tmp30, i64 0, i32 1
  store i64 3, ptr %_M_string_length.i.i.i.i192, align 8, !tbaa !10
  %arrayidx.i.i.i193 = getelementptr inbounds i8, ptr %ref.tmp30, i64 19
  store i8 0, ptr %arrayidx.i.i.i193, align 1, !tbaa !13
  %13 = getelementptr inbounds %"struct.std::pair", ptr %ref.tmp5, i64 3, i32 0, i32 2
  store ptr %13, ptr %arrayinit.element29, align 8, !tbaa !5
  call void @llvm.memcpy.p0.p0.i64(ptr noundef nonnull align 8 dereferenceable(3) %13, ptr noundef nonnull align 1 dereferenceable(3) @.str.25, i64 3, i1 false)
  %_M_string_length.i.i.i.i.i204 = getelementptr inbounds %"struct.std::pair", ptr %ref.tmp5, i64 3, i32 0, i32 1
  store i64 3, ptr %_M_string_length.i.i.i.i.i204, align 8, !tbaa !10
  %arrayidx.i.i.i.i205 = getelementptr inbounds i8, ptr %ref.tmp5, i64 163
  store i8 0, ptr %arrayidx.i.i.i.i205, align 1, !tbaa !13
  %second.i206 = getelementptr inbounds %"struct.std::pair", ptr %ref.tmp5, i64 3, i32 1
  store double 8.000000e+00, ptr %second.i206, align 8, !tbaa.struct !14
  %ref.tmp34.sroa.5.0.second.i206.sroa_idx = getelementptr inbounds %"struct.std::pair", ptr %ref.tmp5, i64 3, i32 1, i32 1
  store i32 3, ptr %ref.tmp34.sroa.5.0.second.i206.sroa_idx, align 8, !tbaa.struct !21
  %ref.tmp34.sroa.6.0.second.i206.sroa_idx = getelementptr inbounds %"struct.std::pair", ptr %ref.tmp5, i64 3, i32 1, i32 2
  store i32 1000, ptr %ref.tmp34.sroa.6.0.second.i206.sroa_idx, align 4, !tbaa.struct !22
  %arrayinit.element38 = getelementptr inbounds %"struct.std::pair", ptr %ref.tmp5, i64 4
  call void @llvm.lifetime.start.p0(i64 32, ptr nonnull %ref.tmp39) #21
  %14 = getelementptr inbounds %"class.std::__cxx11::basic_string", ptr %ref.tmp39, i64 0, i32 2
  store ptr %14, ptr %ref.tmp39, align 8, !tbaa !5
  store i32 1651470918, ptr %14, align 8
  %_M_string_length.i.i.i.i218 = getelementptr inbounds %"class.std::__cxx11::basic_string", ptr %ref.tmp39, i64 0, i32 1
  store i64 4, ptr %_M_string_length.i.i.i.i218, align 8, !tbaa !10
  %arrayidx.i.i.i219 = getelementptr inbounds i8, ptr %ref.tmp39, i64 20
  store i8 0, ptr %arrayidx.i.i.i219, align 4, !tbaa !13
  %15 = getelementptr inbounds %"struct.std::pair", ptr %ref.tmp5, i64 4, i32 0, i32 2
  store ptr %15, ptr %arrayinit.element38, align 8, !tbaa !5
  store i32 1651470918, ptr %15, align 8
  %_M_string_length.i.i.i.i.i230 = getelementptr inbounds %"struct.std::pair", ptr %ref.tmp5, i64 4, i32 0, i32 1
  store i64 4, ptr %_M_string_length.i.i.i.i.i230, align 8, !tbaa !10
  %arrayidx.i.i.i.i231 = getelementptr inbounds i8, ptr %ref.tmp5, i64 212
  store i8 0, ptr %arrayidx.i.i.i.i231, align 4, !tbaa !13
  %second.i232 = getelementptr inbounds %"struct.std::pair", ptr %ref.tmp5, i64 4, i32 1
  store double 1.600000e+01, ptr %second.i232, align 8, !tbaa.struct !14
  %ref.tmp43.sroa.5.0.second.i232.sroa_idx = getelementptr inbounds %"struct.std::pair", ptr %ref.tmp5, i64 4, i32 1, i32 1
  store i32 3, ptr %ref.tmp43.sroa.5.0.second.i232.sroa_idx, align 8, !tbaa.struct !21
  %ref.tmp43.sroa.6.0.second.i232.sroa_idx = getelementptr inbounds %"struct.std::pair", ptr %ref.tmp5, i64 4, i32 1, i32 2
  store i32 1000, ptr %ref.tmp43.sroa.6.0.second.i232.sroa_idx, align 4, !tbaa.struct !22
  %arrayinit.element47 = getelementptr inbounds %"struct.std::pair", ptr %ref.tmp5, i64 5
  call void @llvm.lifetime.start.p0(i64 32, ptr nonnull %ref.tmp48) #21
  %16 = getelementptr inbounds %"class.std::__cxx11::basic_string", ptr %ref.tmp48, i64 0, i32 2
  store ptr %16, ptr %ref.tmp48, align 8, !tbaa !5
  call void @llvm.memcpy.p0.p0.i64(ptr noundef nonnull align 8 dereferenceable(3) %16, ptr noundef nonnull align 1 dereferenceable(3) @.str.27, i64 3, i1 false)
  %_M_string_length.i.i.i.i244 = getelementptr inbounds %"class.std::__cxx11::basic_string", ptr %ref.tmp48, i64 0, i32 1
  store i64 3, ptr %_M_string_length.i.i.i.i244, align 8, !tbaa !10
  %arrayidx.i.i.i245 = getelementptr inbounds i8, ptr %ref.tmp48, i64 19
  store i8 0, ptr %arrayidx.i.i.i245, align 1, !tbaa !13
  %17 = getelementptr inbounds %"struct.std::pair", ptr %ref.tmp5, i64 5, i32 0, i32 2
  store ptr %17, ptr %arrayinit.element47, align 8, !tbaa !5
  call void @llvm.memcpy.p0.p0.i64(ptr noundef nonnull align 8 dereferenceable(3) %17, ptr noundef nonnull align 1 dereferenceable(3) @.str.27, i64 3, i1 false)
  %_M_string_length.i.i.i.i.i256 = getelementptr inbounds %"struct.std::pair", ptr %ref.tmp5, i64 5, i32 0, i32 1
  store i64 3, ptr %_M_string_length.i.i.i.i.i256, align 8, !tbaa !10
  %arrayidx.i.i.i.i257 = getelementptr inbounds i8, ptr %ref.tmp5, i64 259
  store i8 0, ptr %arrayidx.i.i.i.i257, align 1, !tbaa !13
  %second.i258 = getelementptr inbounds %"struct.std::pair", ptr %ref.tmp5, i64 5, i32 1
  store double 3.200000e+01, ptr %second.i258, align 8, !tbaa.struct !14
  %ref.tmp52.sroa.5.0.second.i258.sroa_idx = getelementptr inbounds %"struct.std::pair", ptr %ref.tmp5, i64 5, i32 1, i32 1
  store i32 3, ptr %ref.tmp52.sroa.5.0.second.i258.sroa_idx, align 8, !tbaa.struct !21
  %ref.tmp52.sroa.6.0.second.i258.sroa_idx = getelementptr inbounds %"struct.std::pair", ptr %ref.tmp5, i64 5, i32 1, i32 2
  store i32 1000, ptr %ref.tmp52.sroa.6.0.second.i258.sroa_idx, align 4, !tbaa.struct !22
  call void @llvm.lifetime.start.p0(i64 8, ptr nonnull %__an.i.i.i) #21
  store ptr %counters, ptr %__an.i.i.i, align 8, !tbaa !23
  %add.ptr.i.i.i.i = getelementptr inbounds %"class.benchmark::State", ptr %state, i64 0, i32 8, i32 0, i32 0, i32 1
  %call3.i.i.i262 = invoke ptr @_ZNSt8_Rb_treeINSt7__cxx1112basic_stringIcSt11char_traitsIcESaIcEEESt4pairIKS5_N9benchmark7CounterEESt10_Select1stISA_ESt4lessIS5_ESaISA_EE17_M_insert_unique_IRKSA_NSG_11_Alloc_nodeEEESt17_Rb_tree_iteratorISA_ESt23_Rb_tree_const_iteratorISA_EOT_RT0_(ptr noundef nonnull align 8 dereferenceable(48) %counters, ptr nonnull %add.ptr.i.i.i.i, ptr noundef nonnull align 8 dereferenceable(48) %ref.tmp5, ptr noundef nonnull align 8 dereferenceable(8) %__an.i.i.i)
          to label %call3.i.i.i.noexc unwind label %lpad56

call3.i.i.i.noexc:                                ; preds = %invoke.cont55
  %call3.i.i.i262.1 = invoke ptr @_ZNSt8_Rb_treeINSt7__cxx1112basic_stringIcSt11char_traitsIcESaIcEEESt4pairIKS5_N9benchmark7CounterEESt10_Select1stISA_ESt4lessIS5_ESaISA_EE17_M_insert_unique_IRKSA_NSG_11_Alloc_nodeEEESt17_Rb_tree_iteratorISA_ESt23_Rb_tree_const_iteratorISA_EOT_RT0_(ptr noundef nonnull align 8 dereferenceable(48) %counters, ptr nonnull %add.ptr.i.i.i.i, ptr noundef nonnull align 8 dereferenceable(48) %arrayinit.element, ptr noundef nonnull align 8 dereferenceable(8) %__an.i.i.i)
          to label %call3.i.i.i.noexc.1 unwind label %lpad56

call3.i.i.i.noexc.1:                              ; preds = %call3.i.i.i.noexc
  %call3.i.i.i262.2 = invoke ptr @_ZNSt8_Rb_treeINSt7__cxx1112basic_stringIcSt11char_traitsIcESaIcEEESt4pairIKS5_N9benchmark7CounterEESt10_Select1stISA_ESt4lessIS5_ESaISA_EE17_M_insert_unique_IRKSA_NSG_11_Alloc_nodeEEESt17_Rb_tree_iteratorISA_ESt23_Rb_tree_const_iteratorISA_EOT_RT0_(ptr noundef nonnull align 8 dereferenceable(48) %counters, ptr nonnull %add.ptr.i.i.i.i, ptr noundef nonnull align 8 dereferenceable(48) %arrayinit.element20, ptr noundef nonnull align 8 dereferenceable(8) %__an.i.i.i)
          to label %call3.i.i.i.noexc.2 unwind label %lpad56

call3.i.i.i.noexc.2:                              ; preds = %call3.i.i.i.noexc.1
  %call3.i.i.i262.3 = invoke ptr @_ZNSt8_Rb_treeINSt7__cxx1112basic_stringIcSt11char_traitsIcESaIcEEESt4pairIKS5_N9benchmark7CounterEESt10_Select1stISA_ESt4lessIS5_ESaISA_EE17_M_insert_unique_IRKSA_NSG_11_Alloc_nodeEEESt17_Rb_tree_iteratorISA_ESt23_Rb_tree_const_iteratorISA_EOT_RT0_(ptr noundef nonnull align 8 dereferenceable(48) %counters, ptr nonnull %add.ptr.i.i.i.i, ptr noundef nonnull align 8 dereferenceable(48) %arrayinit.element29, ptr noundef nonnull align 8 dereferenceable(8) %__an.i.i.i)
          to label %call3.i.i.i.noexc.3 unwind label %lpad56

call3.i.i.i.noexc.3:                              ; preds = %call3.i.i.i.noexc.2
  %call3.i.i.i262.4 = invoke ptr @_ZNSt8_Rb_treeINSt7__cxx1112basic_stringIcSt11char_traitsIcESaIcEEESt4pairIKS5_N9benchmark7CounterEESt10_Select1stISA_ESt4lessIS5_ESaISA_EE17_M_insert_unique_IRKSA_NSG_11_Alloc_nodeEEESt17_Rb_tree_iteratorISA_ESt23_Rb_tree_const_iteratorISA_EOT_RT0_(ptr noundef nonnull align 8 dereferenceable(48) %counters, ptr nonnull %add.ptr.i.i.i.i, ptr noundef nonnull align 8 dereferenceable(48) %arrayinit.element38, ptr noundef nonnull align 8 dereferenceable(8) %__an.i.i.i)
          to label %call3.i.i.i.noexc.4 unwind label %lpad56

call3.i.i.i.noexc.4:                              ; preds = %call3.i.i.i.noexc.3
  %call3.i.i.i262.5 = invoke ptr @_ZNSt8_Rb_treeINSt7__cxx1112basic_stringIcSt11char_traitsIcESaIcEEESt4pairIKS5_N9benchmark7CounterEESt10_Select1stISA_ESt4lessIS5_ESaISA_EE17_M_insert_unique_IRKSA_NSG_11_Alloc_nodeEEESt17_Rb_tree_iteratorISA_ESt23_Rb_tree_const_iteratorISA_EOT_RT0_(ptr noundef nonnull align 8 dereferenceable(48) %counters, ptr nonnull %add.ptr.i.i.i.i, ptr noundef nonnull align 8 dereferenceable(48) %arrayinit.element47, ptr noundef nonnull align 8 dereferenceable(8) %__an.i.i.i)
          to label %call3.i.i.i.noexc.5 unwind label %lpad56

call3.i.i.i.noexc.5:                              ; preds = %call3.i.i.i.noexc.4
  call void @llvm.lifetime.end.p0(i64 8, ptr nonnull %__an.i.i.i) #21
  %arraydestroy.element = getelementptr inbounds %"struct.std::pair", ptr %ref.tmp5, i64 5
  %18 = load ptr, ptr %arraydestroy.element, align 8, !tbaa !24
  %19 = getelementptr inbounds %"struct.std::pair", ptr %ref.tmp5, i64 5, i32 0, i32 2
  %cmp.i.i.i.i = icmp eq ptr %18, %19
  br i1 %cmp.i.i.i.i, label %_ZNSt4pairIKNSt7__cxx1112basic_stringIcSt11char_traitsIcESaIcEEEN9benchmark7CounterEED2Ev.exit, label %if.then.i.i.i263

if.then.i.i.i263:                                 ; preds = %call3.i.i.i.noexc.5
  call void @_ZdlPv(ptr noundef %18) #22
  br label %_ZNSt4pairIKNSt7__cxx1112basic_stringIcSt11char_traitsIcESaIcEEEN9benchmark7CounterEED2Ev.exit

_ZNSt4pairIKNSt7__cxx1112basic_stringIcSt11char_traitsIcESaIcEEEN9benchmark7CounterEED2Ev.exit: ; preds = %call3.i.i.i.noexc.5, %if.then.i.i.i263
  %arraydestroy.element.1 = getelementptr inbounds %"struct.std::pair", ptr %ref.tmp5, i64 4
  %20 = load ptr, ptr %arraydestroy.element.1, align 8, !tbaa !24
  %21 = getelementptr inbounds %"struct.std::pair", ptr %ref.tmp5, i64 4, i32 0, i32 2
  %cmp.i.i.i.i.1 = icmp eq ptr %20, %21
  br i1 %cmp.i.i.i.i.1, label %_ZNSt4pairIKNSt7__cxx1112basic_stringIcSt11char_traitsIcESaIcEEEN9benchmark7CounterEED2Ev.exit.1, label %if.then.i.i.i263.1

if.then.i.i.i263.1:                               ; preds = %_ZNSt4pairIKNSt7__cxx1112basic_stringIcSt11char_traitsIcESaIcEEEN9benchmark7CounterEED2Ev.exit
  call void @_ZdlPv(ptr noundef %20) #22
  br label %_ZNSt4pairIKNSt7__cxx1112basic_stringIcSt11char_traitsIcESaIcEEEN9benchmark7CounterEED2Ev.exit.1

_ZNSt4pairIKNSt7__cxx1112basic_stringIcSt11char_traitsIcESaIcEEEN9benchmark7CounterEED2Ev.exit.1: ; preds = %if.then.i.i.i263.1, %_ZNSt4pairIKNSt7__cxx1112basic_stringIcSt11char_traitsIcESaIcEEEN9benchmark7CounterEED2Ev.exit
  %arraydestroy.element.2 = getelementptr inbounds %"struct.std::pair", ptr %ref.tmp5, i64 3
  %22 = load ptr, ptr %arraydestroy.element.2, align 8, !tbaa !24
  %23 = getelementptr inbounds %"struct.std::pair", ptr %ref.tmp5, i64 3, i32 0, i32 2
  %cmp.i.i.i.i.2 = icmp eq ptr %22, %23
  br i1 %cmp.i.i.i.i.2, label %_ZNSt4pairIKNSt7__cxx1112basic_stringIcSt11char_traitsIcESaIcEEEN9benchmark7CounterEED2Ev.exit.2, label %if.then.i.i.i263.2

if.then.i.i.i263.2:                               ; preds = %_ZNSt4pairIKNSt7__cxx1112basic_stringIcSt11char_traitsIcESaIcEEEN9benchmark7CounterEED2Ev.exit.1
  call void @_ZdlPv(ptr noundef %22) #22
  br label %_ZNSt4pairIKNSt7__cxx1112basic_stringIcSt11char_traitsIcESaIcEEEN9benchmark7CounterEED2Ev.exit.2

_ZNSt4pairIKNSt7__cxx1112basic_stringIcSt11char_traitsIcESaIcEEEN9benchmark7CounterEED2Ev.exit.2: ; preds = %if.then.i.i.i263.2, %_ZNSt4pairIKNSt7__cxx1112basic_stringIcSt11char_traitsIcESaIcEEEN9benchmark7CounterEED2Ev.exit.1
  %arraydestroy.element.3 = getelementptr inbounds %"struct.std::pair", ptr %ref.tmp5, i64 2
  %24 = load ptr, ptr %arraydestroy.element.3, align 8, !tbaa !24
  %25 = getelementptr inbounds %"struct.std::pair", ptr %ref.tmp5, i64 2, i32 0, i32 2
  %cmp.i.i.i.i.3 = icmp eq ptr %24, %25
  br i1 %cmp.i.i.i.i.3, label %_ZNSt4pairIKNSt7__cxx1112basic_stringIcSt11char_traitsIcESaIcEEEN9benchmark7CounterEED2Ev.exit.3, label %if.then.i.i.i263.3

if.then.i.i.i263.3:                               ; preds = %_ZNSt4pairIKNSt7__cxx1112basic_stringIcSt11char_traitsIcESaIcEEEN9benchmark7CounterEED2Ev.exit.2
  call void @_ZdlPv(ptr noundef %24) #22
  br label %_ZNSt4pairIKNSt7__cxx1112basic_stringIcSt11char_traitsIcESaIcEEEN9benchmark7CounterEED2Ev.exit.3

_ZNSt4pairIKNSt7__cxx1112basic_stringIcSt11char_traitsIcESaIcEEEN9benchmark7CounterEED2Ev.exit.3: ; preds = %if.then.i.i.i263.3, %_ZNSt4pairIKNSt7__cxx1112basic_stringIcSt11char_traitsIcESaIcEEEN9benchmark7CounterEED2Ev.exit.2
  %arraydestroy.element.4 = getelementptr inbounds %"struct.std::pair", ptr %ref.tmp5, i64 1
  %26 = load ptr, ptr %arraydestroy.element.4, align 8, !tbaa !24
  %27 = getelementptr inbounds %"struct.std::pair", ptr %ref.tmp5, i64 1, i32 0, i32 2
  %cmp.i.i.i.i.4 = icmp eq ptr %26, %27
  br i1 %cmp.i.i.i.i.4, label %_ZNSt4pairIKNSt7__cxx1112basic_stringIcSt11char_traitsIcESaIcEEEN9benchmark7CounterEED2Ev.exit.4, label %if.then.i.i.i263.4

if.then.i.i.i263.4:                               ; preds = %_ZNSt4pairIKNSt7__cxx1112basic_stringIcSt11char_traitsIcESaIcEEEN9benchmark7CounterEED2Ev.exit.3
  call void @_ZdlPv(ptr noundef %26) #22
  br label %_ZNSt4pairIKNSt7__cxx1112basic_stringIcSt11char_traitsIcESaIcEEEN9benchmark7CounterEED2Ev.exit.4

_ZNSt4pairIKNSt7__cxx1112basic_stringIcSt11char_traitsIcESaIcEEEN9benchmark7CounterEED2Ev.exit.4: ; preds = %if.then.i.i.i263.4, %_ZNSt4pairIKNSt7__cxx1112basic_stringIcSt11char_traitsIcESaIcEEEN9benchmark7CounterEED2Ev.exit.3
  %28 = load ptr, ptr %ref.tmp5, align 8, !tbaa !24
  %29 = getelementptr inbounds %"struct.std::pair", ptr %ref.tmp5, i64 0, i32 0, i32 2
  %cmp.i.i.i.i.5 = icmp eq ptr %28, %29
  br i1 %cmp.i.i.i.i.5, label %_ZNSt4pairIKNSt7__cxx1112basic_stringIcSt11char_traitsIcESaIcEEEN9benchmark7CounterEED2Ev.exit.5, label %if.then.i.i.i263.5

if.then.i.i.i263.5:                               ; preds = %_ZNSt4pairIKNSt7__cxx1112basic_stringIcSt11char_traitsIcESaIcEEEN9benchmark7CounterEED2Ev.exit.4
  call void @_ZdlPv(ptr noundef %28) #22
  br label %_ZNSt4pairIKNSt7__cxx1112basic_stringIcSt11char_traitsIcESaIcEEEN9benchmark7CounterEED2Ev.exit.5

_ZNSt4pairIKNSt7__cxx1112basic_stringIcSt11char_traitsIcESaIcEEEN9benchmark7CounterEED2Ev.exit.5: ; preds = %if.then.i.i.i263.5, %_ZNSt4pairIKNSt7__cxx1112basic_stringIcSt11char_traitsIcESaIcEEEN9benchmark7CounterEED2Ev.exit.4
  %30 = load ptr, ptr %ref.tmp48, align 8, !tbaa !24
  %cmp.i.i.i264 = icmp eq ptr %30, %16
  br i1 %cmp.i.i.i264, label %_ZNSt7__cxx1112basic_stringIcSt11char_traitsIcESaIcEED2Ev.exit, label %if.then.i.i265

if.then.i.i265:                                   ; preds = %_ZNSt4pairIKNSt7__cxx1112basic_stringIcSt11char_traitsIcESaIcEEEN9benchmark7CounterEED2Ev.exit.5
  call void @_ZdlPv(ptr noundef %30) #22
  br label %_ZNSt7__cxx1112basic_stringIcSt11char_traitsIcESaIcEED2Ev.exit

_ZNSt7__cxx1112basic_stringIcSt11char_traitsIcESaIcEED2Ev.exit: ; preds = %_ZNSt4pairIKNSt7__cxx1112basic_stringIcSt11char_traitsIcESaIcEEEN9benchmark7CounterEED2Ev.exit.5, %if.then.i.i265
  call void @llvm.lifetime.end.p0(i64 32, ptr nonnull %ref.tmp48) #21
  %31 = load ptr, ptr %ref.tmp39, align 8, !tbaa !24
  %cmp.i.i.i266 = icmp eq ptr %31, %14
  br i1 %cmp.i.i.i266, label %_ZNSt7__cxx1112basic_stringIcSt11char_traitsIcESaIcEED2Ev.exit268, label %if.then.i.i267

if.then.i.i267:                                   ; preds = %_ZNSt7__cxx1112basic_stringIcSt11char_traitsIcESaIcEED2Ev.exit
  call void @_ZdlPv(ptr noundef %31) #22
  br label %_ZNSt7__cxx1112basic_stringIcSt11char_traitsIcESaIcEED2Ev.exit268

_ZNSt7__cxx1112basic_stringIcSt11char_traitsIcESaIcEED2Ev.exit268: ; preds = %_ZNSt7__cxx1112basic_stringIcSt11char_traitsIcESaIcEED2Ev.exit, %if.then.i.i267
  call void @llvm.lifetime.end.p0(i64 32, ptr nonnull %ref.tmp39) #21
  %32 = load ptr, ptr %ref.tmp30, align 8, !tbaa !24
  %cmp.i.i.i269 = icmp eq ptr %32, %12
  br i1 %cmp.i.i.i269, label %_ZNSt7__cxx1112basic_stringIcSt11char_traitsIcESaIcEED2Ev.exit271, label %if.then.i.i270

if.then.i.i270:                                   ; preds = %_ZNSt7__cxx1112basic_stringIcSt11char_traitsIcESaIcEED2Ev.exit268
  call void @_ZdlPv(ptr noundef %32) #22
  br label %_ZNSt7__cxx1112basic_stringIcSt11char_traitsIcESaIcEED2Ev.exit271

_ZNSt7__cxx1112basic_stringIcSt11char_traitsIcESaIcEED2Ev.exit271: ; preds = %_ZNSt7__cxx1112basic_stringIcSt11char_traitsIcESaIcEED2Ev.exit268, %if.then.i.i270
  call void @llvm.lifetime.end.p0(i64 32, ptr nonnull %ref.tmp30) #21
  %33 = load ptr, ptr %ref.tmp21, align 8, !tbaa !24
  %cmp.i.i.i272 = icmp eq ptr %33, %10
  br i1 %cmp.i.i.i272, label %_ZNSt7__cxx1112basic_stringIcSt11char_traitsIcESaIcEED2Ev.exit274, label %if.then.i.i273

if.then.i.i273:                                   ; preds = %_ZNSt7__cxx1112basic_stringIcSt11char_traitsIcESaIcEED2Ev.exit271
  call void @_ZdlPv(ptr noundef %33) #22
  br label %_ZNSt7__cxx1112basic_stringIcSt11char_traitsIcESaIcEED2Ev.exit274

_ZNSt7__cxx1112basic_stringIcSt11char_traitsIcESaIcEED2Ev.exit274: ; preds = %_ZNSt7__cxx1112basic_stringIcSt11char_traitsIcESaIcEED2Ev.exit271, %if.then.i.i273
  call void @llvm.lifetime.end.p0(i64 32, ptr nonnull %ref.tmp21) #21
  %34 = load ptr, ptr %ref.tmp12, align 8, !tbaa !24
  %cmp.i.i.i275 = icmp eq ptr %34, %8
  br i1 %cmp.i.i.i275, label %_ZNSt7__cxx1112basic_stringIcSt11char_traitsIcESaIcEED2Ev.exit277, label %if.then.i.i276

if.then.i.i276:                                   ; preds = %_ZNSt7__cxx1112basic_stringIcSt11char_traitsIcESaIcEED2Ev.exit274
  call void @_ZdlPv(ptr noundef %34) #22
  br label %_ZNSt7__cxx1112basic_stringIcSt11char_traitsIcESaIcEED2Ev.exit277

_ZNSt7__cxx1112basic_stringIcSt11char_traitsIcESaIcEED2Ev.exit277: ; preds = %_ZNSt7__cxx1112basic_stringIcSt11char_traitsIcESaIcEED2Ev.exit274, %if.then.i.i276
  call void @llvm.lifetime.end.p0(i64 32, ptr nonnull %ref.tmp12) #21
  %35 = load ptr, ptr %ref.tmp6, align 8, !tbaa !24
  %cmp.i.i.i278 = icmp eq ptr %35, %6
  br i1 %cmp.i.i.i278, label %_ZNSt7__cxx1112basic_stringIcSt11char_traitsIcESaIcEED2Ev.exit280, label %if.then.i.i279

if.then.i.i279:                                   ; preds = %_ZNSt7__cxx1112basic_stringIcSt11char_traitsIcESaIcEED2Ev.exit277
  call void @_ZdlPv(ptr noundef %35) #22
  br label %_ZNSt7__cxx1112basic_stringIcSt11char_traitsIcESaIcEED2Ev.exit280

_ZNSt7__cxx1112basic_stringIcSt11char_traitsIcESaIcEED2Ev.exit280: ; preds = %_ZNSt7__cxx1112basic_stringIcSt11char_traitsIcESaIcEED2Ev.exit277, %if.then.i.i279
  call void @llvm.lifetime.end.p0(i64 32, ptr nonnull %ref.tmp6) #21
  call void @llvm.lifetime.end.p0(i64 288, ptr nonnull %ref.tmp5) #21
  ret void

lpad56:                                           ; preds = %call3.i.i.i.noexc.4, %call3.i.i.i.noexc.3, %call3.i.i.i.noexc.2, %call3.i.i.i.noexc.1, %call3.i.i.i.noexc, %invoke.cont55
  %36 = landingpad { ptr, i32 }
          cleanup
  %arraydestroy.element62 = getelementptr inbounds %"struct.std::pair", ptr %ref.tmp5, i64 5
  %37 = load ptr, ptr %arraydestroy.element62, align 8, !tbaa !24
  %38 = getelementptr inbounds %"struct.std::pair", ptr %ref.tmp5, i64 5, i32 0, i32 2
  %cmp.i.i.i.i281 = icmp eq ptr %37, %38
  br i1 %cmp.i.i.i.i281, label %_ZNSt4pairIKNSt7__cxx1112basic_stringIcSt11char_traitsIcESaIcEEEN9benchmark7CounterEED2Ev.exit283, label %if.then.i.i.i282

if.then.i.i.i282:                                 ; preds = %lpad56
  call void @_ZdlPv(ptr noundef %37) #22
  br label %_ZNSt4pairIKNSt7__cxx1112basic_stringIcSt11char_traitsIcESaIcEEEN9benchmark7CounterEED2Ev.exit283

_ZNSt4pairIKNSt7__cxx1112basic_stringIcSt11char_traitsIcESaIcEEEN9benchmark7CounterEED2Ev.exit283: ; preds = %lpad56, %if.then.i.i.i282
  %arraydestroy.element62.1 = getelementptr inbounds %"struct.std::pair", ptr %ref.tmp5, i64 4
  %39 = load ptr, ptr %arraydestroy.element62.1, align 8, !tbaa !24
  %40 = getelementptr inbounds %"struct.std::pair", ptr %ref.tmp5, i64 4, i32 0, i32 2
  %cmp.i.i.i.i281.1 = icmp eq ptr %39, %40
  br i1 %cmp.i.i.i.i281.1, label %_ZNSt4pairIKNSt7__cxx1112basic_stringIcSt11char_traitsIcESaIcEEEN9benchmark7CounterEED2Ev.exit283.1, label %if.then.i.i.i282.1

if.then.i.i.i282.1:                               ; preds = %_ZNSt4pairIKNSt7__cxx1112basic_stringIcSt11char_traitsIcESaIcEEEN9benchmark7CounterEED2Ev.exit283
  call void @_ZdlPv(ptr noundef %39) #22
  br label %_ZNSt4pairIKNSt7__cxx1112basic_stringIcSt11char_traitsIcESaIcEEEN9benchmark7CounterEED2Ev.exit283.1

_ZNSt4pairIKNSt7__cxx1112basic_stringIcSt11char_traitsIcESaIcEEEN9benchmark7CounterEED2Ev.exit283.1: ; preds = %if.then.i.i.i282.1, %_ZNSt4pairIKNSt7__cxx1112basic_stringIcSt11char_traitsIcESaIcEEEN9benchmark7CounterEED2Ev.exit283
  %arraydestroy.element62.2 = getelementptr inbounds %"struct.std::pair", ptr %ref.tmp5, i64 3
  %41 = load ptr, ptr %arraydestroy.element62.2, align 8, !tbaa !24
  %42 = getelementptr inbounds %"struct.std::pair", ptr %ref.tmp5, i64 3, i32 0, i32 2
  %cmp.i.i.i.i281.2 = icmp eq ptr %41, %42
  br i1 %cmp.i.i.i.i281.2, label %_ZNSt4pairIKNSt7__cxx1112basic_stringIcSt11char_traitsIcESaIcEEEN9benchmark7CounterEED2Ev.exit283.2, label %if.then.i.i.i282.2

if.then.i.i.i282.2:                               ; preds = %_ZNSt4pairIKNSt7__cxx1112basic_stringIcSt11char_traitsIcESaIcEEEN9benchmark7CounterEED2Ev.exit283.1
  call void @_ZdlPv(ptr noundef %41) #22
  br label %_ZNSt4pairIKNSt7__cxx1112basic_stringIcSt11char_traitsIcESaIcEEEN9benchmark7CounterEED2Ev.exit283.2

_ZNSt4pairIKNSt7__cxx1112basic_stringIcSt11char_traitsIcESaIcEEEN9benchmark7CounterEED2Ev.exit283.2: ; preds = %if.then.i.i.i282.2, %_ZNSt4pairIKNSt7__cxx1112basic_stringIcSt11char_traitsIcESaIcEEEN9benchmark7CounterEED2Ev.exit283.1
  %arraydestroy.element62.3 = getelementptr inbounds %"struct.std::pair", ptr %ref.tmp5, i64 2
  %43 = load ptr, ptr %arraydestroy.element62.3, align 8, !tbaa !24
  %44 = getelementptr inbounds %"struct.std::pair", ptr %ref.tmp5, i64 2, i32 0, i32 2
  %cmp.i.i.i.i281.3 = icmp eq ptr %43, %44
  br i1 %cmp.i.i.i.i281.3, label %_ZNSt4pairIKNSt7__cxx1112basic_stringIcSt11char_traitsIcESaIcEEEN9benchmark7CounterEED2Ev.exit283.3, label %if.then.i.i.i282.3

if.then.i.i.i282.3:                               ; preds = %_ZNSt4pairIKNSt7__cxx1112basic_stringIcSt11char_traitsIcESaIcEEEN9benchmark7CounterEED2Ev.exit283.2
  call void @_ZdlPv(ptr noundef %43) #22
  br label %_ZNSt4pairIKNSt7__cxx1112basic_stringIcSt11char_traitsIcESaIcEEEN9benchmark7CounterEED2Ev.exit283.3

_ZNSt4pairIKNSt7__cxx1112basic_stringIcSt11char_traitsIcESaIcEEEN9benchmark7CounterEED2Ev.exit283.3: ; preds = %if.then.i.i.i282.3, %_ZNSt4pairIKNSt7__cxx1112basic_stringIcSt11char_traitsIcESaIcEEEN9benchmark7CounterEED2Ev.exit283.2
  %arraydestroy.element62.4 = getelementptr inbounds %"struct.std::pair", ptr %ref.tmp5, i64 1
  %45 = load ptr, ptr %arraydestroy.element62.4, align 8, !tbaa !24
  %46 = getelementptr inbounds %"struct.std::pair", ptr %ref.tmp5, i64 1, i32 0, i32 2
  %cmp.i.i.i.i281.4 = icmp eq ptr %45, %46
  br i1 %cmp.i.i.i.i281.4, label %_ZNSt4pairIKNSt7__cxx1112basic_stringIcSt11char_traitsIcESaIcEEEN9benchmark7CounterEED2Ev.exit283.4, label %if.then.i.i.i282.4

if.then.i.i.i282.4:                               ; preds = %_ZNSt4pairIKNSt7__cxx1112basic_stringIcSt11char_traitsIcESaIcEEEN9benchmark7CounterEED2Ev.exit283.3
  call void @_ZdlPv(ptr noundef %45) #22
  br label %_ZNSt4pairIKNSt7__cxx1112basic_stringIcSt11char_traitsIcESaIcEEEN9benchmark7CounterEED2Ev.exit283.4

_ZNSt4pairIKNSt7__cxx1112basic_stringIcSt11char_traitsIcESaIcEEEN9benchmark7CounterEED2Ev.exit283.4: ; preds = %if.then.i.i.i282.4, %_ZNSt4pairIKNSt7__cxx1112basic_stringIcSt11char_traitsIcESaIcEEEN9benchmark7CounterEED2Ev.exit283.3
  %47 = load ptr, ptr %ref.tmp5, align 8, !tbaa !24
  %48 = getelementptr inbounds %"struct.std::pair", ptr %ref.tmp5, i64 0, i32 0, i32 2
  %cmp.i.i.i.i281.5 = icmp eq ptr %47, %48
  br i1 %cmp.i.i.i.i281.5, label %ehcleanup, label %if.then.i.i.i282.5

if.then.i.i.i282.5:                               ; preds = %_ZNSt4pairIKNSt7__cxx1112basic_stringIcSt11char_traitsIcESaIcEEEN9benchmark7CounterEED2Ev.exit283.4
  call void @_ZdlPv(ptr noundef %47) #22
  br label %ehcleanup

ehcleanup:                                        ; preds = %_ZNSt4pairIKNSt7__cxx1112basic_stringIcSt11char_traitsIcESaIcEEEN9benchmark7CounterEED2Ev.exit283.4, %if.then.i.i.i282.5
  %.pre = load ptr, ptr %ref.tmp48, align 8, !tbaa !24
  %cmp.i.i.i284 = icmp eq ptr %.pre, %16
  br i1 %cmp.i.i.i284, label %ehcleanup69, label %if.then.i.i285

if.then.i.i285:                                   ; preds = %ehcleanup
  call void @_ZdlPv(ptr noundef %.pre) #22
  br label %ehcleanup69

ehcleanup69:                                      ; preds = %ehcleanup, %if.then.i.i285
  call void @llvm.lifetime.end.p0(i64 32, ptr nonnull %ref.tmp48) #21
  %.pre315 = load ptr, ptr %ref.tmp39, align 8, !tbaa !24
  %cmp.i.i.i287 = icmp eq ptr %.pre315, %14
  br i1 %cmp.i.i.i287, label %ehcleanup74, label %if.then.i.i288

if.then.i.i288:                                   ; preds = %ehcleanup69
  call void @_ZdlPv(ptr noundef %.pre315) #22
  br label %ehcleanup74

ehcleanup74:                                      ; preds = %ehcleanup69, %if.then.i.i288
  call void @llvm.lifetime.end.p0(i64 32, ptr nonnull %ref.tmp39) #21
  %.pre316 = load ptr, ptr %ref.tmp30, align 8, !tbaa !24
  %cmp.i.i.i290 = icmp eq ptr %.pre316, %12
  br i1 %cmp.i.i.i290, label %ehcleanup79, label %if.then.i.i291

if.then.i.i291:                                   ; preds = %ehcleanup74
  call void @_ZdlPv(ptr noundef %.pre316) #22
  br label %ehcleanup79

ehcleanup79:                                      ; preds = %ehcleanup74, %if.then.i.i291
  call void @llvm.lifetime.end.p0(i64 32, ptr nonnull %ref.tmp30) #21
  %.pre317 = load ptr, ptr %ref.tmp21, align 8, !tbaa !24
  %cmp.i.i.i293 = icmp eq ptr %.pre317, %10
  br i1 %cmp.i.i.i293, label %ehcleanup84, label %if.then.i.i294

if.then.i.i294:                                   ; preds = %ehcleanup79
  call void @_ZdlPv(ptr noundef %.pre317) #22
  br label %ehcleanup84

ehcleanup84:                                      ; preds = %ehcleanup79, %if.then.i.i294
  call void @llvm.lifetime.end.p0(i64 32, ptr nonnull %ref.tmp21) #21
  %.pre318 = load ptr, ptr %ref.tmp12, align 8, !tbaa !24
  %cmp.i.i.i296 = icmp eq ptr %.pre318, %8
  br i1 %cmp.i.i.i296, label %ehcleanup89, label %if.then.i.i297

if.then.i.i297:                                   ; preds = %ehcleanup84
  call void @_ZdlPv(ptr noundef %.pre318) #22
  br label %ehcleanup89

ehcleanup89:                                      ; preds = %ehcleanup84, %if.then.i.i297
  call void @llvm.lifetime.end.p0(i64 32, ptr nonnull %ref.tmp12) #21
  %.pre319 = load ptr, ptr %ref.tmp6, align 8, !tbaa !24
  %cmp.i.i.i299 = icmp eq ptr %.pre319, %6
  br i1 %cmp.i.i.i299, label %cleanup.done, label %if.then.i.i300

if.then.i.i300:                                   ; preds = %ehcleanup89
  call void @_ZdlPv(ptr noundef %.pre319) #22
  br label %cleanup.done

cleanup.done:                                     ; preds = %ehcleanup89, %if.then.i.i300
  call void @llvm.lifetime.end.p0(i64 32, ptr nonnull %ref.tmp6) #21
  call void @llvm.lifetime.end.p0(i64 288, ptr nonnull %ref.tmp5) #21
  resume { ptr, i32 } %36
}

; Function Attrs: uwtable
define hidden void @_Z16CheckTabularRateRK7Results(ptr noundef nonnull align 8 dereferenceable(80) %e) #4 personality ptr @__gxx_personality_v0 {
entry:
  %ref.tmp = alloca %"class.benchmark::internal::CheckHandler", align 8
  %ref.tmp143 = alloca %"class.benchmark::internal::CheckHandler", align 8
  %ref.tmp296 = alloca %"class.benchmark::internal::CheckHandler", align 8
  %ref.tmp449 = alloca %"class.benchmark::internal::CheckHandler", align 8
  %ref.tmp602 = alloca %"class.benchmark::internal::CheckHandler", align 8
  %ref.tmp755 = alloca %"class.benchmark::internal::CheckHandler", align 8
  %call.i = tail call noundef double @_ZNK7Results13NumIterationsEv(ptr noundef nonnull align 8 dereferenceable(80) %e)
  %call2.i = tail call noundef double @_ZNK7Results7GetTimeENS_13BenchmarkTimeE(ptr noundef nonnull align 8 dereferenceable(80) %e, i32 noundef 0)
  %mul.i = fmul double %call.i, %call2.i
  %call.i1049 = tail call noundef double @_ZNK7Results5GetAsIdEET_PKc(ptr noundef nonnull align 8 dereferenceable(80) %e, ptr noundef nonnull @.str.22)
  %div = fdiv double 1.000000e+00, %mul.i
  %sub = fsub double %call.i1049, %div
  %0 = tail call double @llvm.fabs.f64(double %sub)
  %mul = fmul double %div, 1.000000e-03
  %cmp = fcmp uge double %0, %mul
  br i1 %cmp, label %cond.false, label %cond.true

cond.true:                                        ; preds = %entry
  %1 = load atomic i8, ptr @_ZGVZN9benchmark8internal18GetNullLogInstanceEvE3log acquire, align 8
  %guard.uninitialized.i = icmp eq i8 %1, 0
  br i1 %guard.uninitialized.i, label %init.check.i, label %cond.end, !prof !25

init.check.i:                                     ; preds = %cond.true
  %2 = tail call i32 @__cxa_guard_acquire(ptr nonnull @_ZGVZN9benchmark8internal18GetNullLogInstanceEvE3log) #21
  %tobool.not.i = icmp eq i32 %2, 0
  br i1 %tobool.not.i, label %cond.end, label %init.i

init.i:                                           ; preds = %init.check.i
  store ptr null, ptr @_ZZN9benchmark8internal18GetNullLogInstanceEvE3log, align 8, !tbaa !26
  tail call void @__cxa_guard_release(ptr nonnull @_ZGVZN9benchmark8internal18GetNullLogInstanceEvE3log) #21
  br label %cond.end

cond.false:                                       ; preds = %entry
  call void @llvm.lifetime.start.p0(i64 8, ptr nonnull %ref.tmp) #21
  call void @_ZN9benchmark8internal12CheckHandlerC2EPKcS3_S3_i(ptr noundef nonnull align 8 dereferenceable(8) %ref.tmp, ptr noundef nonnull @.str.130, ptr noundef nonnull @.str.102, ptr noundef nonnull @__func__._Z16CheckTabularRateRK7Results, i32 noundef 415)
  %3 = load ptr, ptr %ref.tmp, align 8, !tbaa !28
  br label %cond.end

cond.end:                                         ; preds = %init.i, %init.check.i, %cond.true, %cond.false
  %cond-lvalue = phi ptr [ %3, %cond.false ], [ @_ZZN9benchmark8internal18GetNullLogInstanceEvE3log, %cond.true ], [ @_ZZN9benchmark8internal18GetNullLogInstanceEvE3log, %init.check.i ], [ @_ZZN9benchmark8internal18GetNullLogInstanceEvE3log, %init.i ]
  %4 = load ptr, ptr %cond-lvalue, align 8, !tbaa !26
  %tobool.not.i1050 = icmp eq ptr %4, null
  br i1 %tobool.not.i1050, label %invoke.cont40, label %if.then.i

if.then.i:                                        ; preds = %cond.end
  %call1.i.i1051 = invoke noundef nonnull align 8 dereferenceable(8) ptr @_ZSt16__ostream_insertIcSt11char_traitsIcEERSt13basic_ostreamIT_T0_ES6_PKS3_l(ptr noundef nonnull align 8 dereferenceable(8) %4, ptr noundef nonnull @.str.103, i64 noundef 1)
          to label %invoke.cont6 unwind label %lpad

invoke.cont6:                                     ; preds = %if.then.i
  %.pr = load ptr, ptr %cond-lvalue, align 8, !tbaa !26
  %tobool.not.i1052 = icmp eq ptr %.pr, null
  br i1 %tobool.not.i1052, label %invoke.cont40, label %if.then.i1054

if.then.i1054:                                    ; preds = %invoke.cont6
  %call1.i.i1056 = invoke noundef nonnull align 8 dereferenceable(8) ptr @_ZSt16__ostream_insertIcSt11char_traitsIcEERSt13basic_ostreamIT_T0_ES6_PKS3_l(ptr noundef nonnull align 8 dereferenceable(8) %.pr, ptr noundef nonnull @.str.102, i64 noundef 114)
          to label %invoke.cont8 unwind label %lpad

invoke.cont8:                                     ; preds = %if.then.i1054
  %.pr2285 = load ptr, ptr %cond-lvalue, align 8, !tbaa !26
  %tobool.not.i1057 = icmp eq ptr %.pr2285, null
  br i1 %tobool.not.i1057, label %invoke.cont40, label %if.then.i1059

if.then.i1059:                                    ; preds = %invoke.cont8
  %call1.i.i1061 = invoke noundef nonnull align 8 dereferenceable(8) ptr @_ZSt16__ostream_insertIcSt11char_traitsIcEERSt13basic_ostreamIT_T0_ES6_PKS3_l(ptr noundef nonnull align 8 dereferenceable(8) %.pr2285, ptr noundef nonnull @.str.104, i64 noundef 1)
          to label %invoke.cont10 unwind label %lpad

invoke.cont10:                                    ; preds = %if.then.i1059
  %.pr2287.pr = load ptr, ptr %cond-lvalue, align 8, !tbaa !26
  %tobool.not.i1063 = icmp eq ptr %.pr2287.pr, null
  br i1 %tobool.not.i1063, label %invoke.cont40, label %if.then.i1065

if.then.i1065:                                    ; preds = %invoke.cont10
  %call.i10641066 = invoke noundef nonnull align 8 dereferenceable(8) ptr @_ZNSolsEi(ptr noundef nonnull align 8 dereferenceable(8) %.pr2287.pr, i32 noundef 415)
          to label %invoke.cont14 unwind label %lpad13

invoke.cont14:                                    ; preds = %if.then.i1065
  %.pr2289 = load ptr, ptr %cond-lvalue, align 8, !tbaa !26
  %tobool.not.i1067 = icmp eq ptr %.pr2289, null
  br i1 %tobool.not.i1067, label %invoke.cont40, label %if.then.i1069

if.then.i1069:                                    ; preds = %invoke.cont14
  %call1.i.i1071 = invoke noundef nonnull align 8 dereferenceable(8) ptr @_ZSt16__ostream_insertIcSt11char_traitsIcEERSt13basic_ostreamIT_T0_ES6_PKS3_l(ptr noundef nonnull align 8 dereferenceable(8) %.pr2289, ptr noundef nonnull @.str.105, i64 noundef 2)
          to label %invoke.cont16 unwind label %lpad13

invoke.cont16:                                    ; preds = %if.then.i1069
  %.pr2291.pr.pr = load ptr, ptr %cond-lvalue, align 8, !tbaa !26
  %tobool.not.i1072 = icmp eq ptr %.pr2291.pr.pr, null
  br i1 %tobool.not.i1072, label %invoke.cont40, label %if.then.i1073

if.then.i1073:                                    ; preds = %invoke.cont16
  %5 = load ptr, ptr %e, align 8, !tbaa !24
  %_M_string_length.i.i.i = getelementptr inbounds %"class.std::__cxx11::basic_string", ptr %e, i64 0, i32 1
  %6 = load i64, ptr %_M_string_length.i.i.i, align 8, !tbaa !10
  %call2.i.i1074 = invoke noundef nonnull align 8 dereferenceable(8) ptr @_ZSt16__ostream_insertIcSt11char_traitsIcEERSt13basic_ostreamIT_T0_ES6_PKS3_l(ptr noundef nonnull align 8 dereferenceable(8) %.pr2291.pr.pr, ptr noundef %5, i64 noundef %6)
          to label %invoke.cont18 unwind label %lpad13

invoke.cont18:                                    ; preds = %if.then.i1073
  %.pr2293 = load ptr, ptr %cond-lvalue, align 8, !tbaa !26
  %tobool.not.i1075 = icmp eq ptr %.pr2293, null
  br i1 %tobool.not.i1075, label %invoke.cont40, label %if.then.i1077

if.then.i1077:                                    ; preds = %invoke.cont18
  %call1.i.i1079 = invoke noundef nonnull align 8 dereferenceable(8) ptr @_ZSt16__ostream_insertIcSt11char_traitsIcEERSt13basic_ostreamIT_T0_ES6_PKS3_l(ptr noundef nonnull align 8 dereferenceable(8) %.pr2293, ptr noundef nonnull @.str.106, i64 noundef 2)
          to label %invoke.cont20 unwind label %lpad13

invoke.cont20:                                    ; preds = %if.then.i1077
  %.pr2295.pr.pr = load ptr, ptr %cond-lvalue, align 8, !tbaa !26
  %tobool.not.i1081 = icmp eq ptr %.pr2295.pr.pr, null
  br i1 %tobool.not.i1081, label %invoke.cont40, label %if.then.i1083

if.then.i1083:                                    ; preds = %invoke.cont20
  %call1.i.i1085 = invoke noundef nonnull align 8 dereferenceable(8) ptr @_ZSt16__ostream_insertIcSt11char_traitsIcEERSt13basic_ostreamIT_T0_ES6_PKS3_l(ptr noundef nonnull align 8 dereferenceable(8) %.pr2295.pr.pr, ptr noundef nonnull @.str.102, i64 noundef 114)
          to label %invoke.cont22 unwind label %lpad13

invoke.cont22:                                    ; preds = %if.then.i1083
  %.pr2297 = load ptr, ptr %cond-lvalue, align 8, !tbaa !26
  %tobool.not.i1087 = icmp eq ptr %.pr2297, null
  br i1 %tobool.not.i1087, label %invoke.cont40, label %if.then.i1089

if.then.i1089:                                    ; preds = %invoke.cont22
  %call1.i.i1091 = invoke noundef nonnull align 8 dereferenceable(8) ptr @_ZSt16__ostream_insertIcSt11char_traitsIcEERSt13basic_ostreamIT_T0_ES6_PKS3_l(ptr noundef nonnull align 8 dereferenceable(8) %.pr2297, ptr noundef nonnull @.str.104, i64 noundef 1)
          to label %invoke.cont24 unwind label %lpad13

invoke.cont24:                                    ; preds = %if.then.i1089
  %.pr2299.pr.pr.pr = load ptr, ptr %cond-lvalue, align 8, !tbaa !26
  %tobool.not.i1093 = icmp eq ptr %.pr2299.pr.pr.pr, null
  br i1 %tobool.not.i1093, label %invoke.cont40, label %if.then.i1095

if.then.i1095:                                    ; preds = %invoke.cont24
  %call.i10941096 = invoke noundef nonnull align 8 dereferenceable(8) ptr @_ZNSolsEi(ptr noundef nonnull align 8 dereferenceable(8) %.pr2299.pr.pr.pr, i32 noundef 415)
          to label %invoke.cont28 unwind label %lpad27

invoke.cont28:                                    ; preds = %if.then.i1095
  %.pr2301 = load ptr, ptr %cond-lvalue, align 8, !tbaa !26
  %tobool.not.i1098 = icmp eq ptr %.pr2301, null
  br i1 %tobool.not.i1098, label %invoke.cont40, label %if.then.i1100

if.then.i1100:                                    ; preds = %invoke.cont28
  %call1.i.i1102 = invoke noundef nonnull align 8 dereferenceable(8) ptr @_ZSt16__ostream_insertIcSt11char_traitsIcEERSt13basic_ostreamIT_T0_ES6_PKS3_l(ptr noundef nonnull align 8 dereferenceable(8) %.pr2301, ptr noundef nonnull @.str.105, i64 noundef 2)
          to label %invoke.cont30 unwind label %lpad27

invoke.cont30:                                    ; preds = %if.then.i1100
  %.pr2303.pr.pr.pr = load ptr, ptr %cond-lvalue, align 8, !tbaa !26
  %tobool.not.i1104 = icmp eq ptr %.pr2303.pr.pr.pr, null
  br i1 %tobool.not.i1104, label %invoke.cont40, label %if.then.i1106

if.then.i1106:                                    ; preds = %invoke.cont30
  %call1.i.i1108 = invoke noundef nonnull align 8 dereferenceable(8) ptr @_ZSt16__ostream_insertIcSt11char_traitsIcEERSt13basic_ostreamIT_T0_ES6_PKS3_l(ptr noundef nonnull align 8 dereferenceable(8) %.pr2303.pr.pr.pr, ptr noundef nonnull @.str.107, i64 noundef 10)
          to label %invoke.cont32 unwind label %lpad27

invoke.cont32:                                    ; preds = %if.then.i1106
  %.pr2305 = load ptr, ptr %cond-lvalue, align 8, !tbaa !26
  %tobool.not.i1109 = icmp eq ptr %.pr2305, null
  br i1 %tobool.not.i1109, label %invoke.cont40, label %if.then.i1111

if.then.i1111:                                    ; preds = %invoke.cont32
  %call1.i.i1113 = invoke noundef nonnull align 8 dereferenceable(8) ptr @_ZSt16__ostream_insertIcSt11char_traitsIcEERSt13basic_ostreamIT_T0_ES6_PKS3_l(ptr noundef nonnull align 8 dereferenceable(8) %.pr2305, ptr noundef nonnull @.str.131, i64 noundef 6)
          to label %invoke.cont34 unwind label %lpad27

invoke.cont34:                                    ; preds = %if.then.i1111
  %.pr2307.pr.pr.pr = load ptr, ptr %cond-lvalue, align 8, !tbaa !26
  %tobool.not.i1114 = icmp eq ptr %.pr2307.pr.pr.pr, null
  br i1 %tobool.not.i1114, label %invoke.cont40, label %if.then.i1116

if.then.i1116:                                    ; preds = %invoke.cont34
  %call1.i.i1118 = invoke noundef nonnull align 8 dereferenceable(8) ptr @_ZSt16__ostream_insertIcSt11char_traitsIcEERSt13basic_ostreamIT_T0_ES6_PKS3_l(ptr noundef nonnull align 8 dereferenceable(8) %.pr2307.pr.pr.pr, ptr noundef nonnull @.str.109, i64 noundef 1)
          to label %invoke.cont36 unwind label %lpad27

invoke.cont36:                                    ; preds = %if.then.i1116
  %.pr2309 = load ptr, ptr %cond-lvalue, align 8, !tbaa !26
  %tobool.not.i1120 = icmp eq ptr %.pr2309, null
  br i1 %tobool.not.i1120, label %invoke.cont40, label %if.then.i1122

if.then.i1122:                                    ; preds = %invoke.cont36
  %call1.i.i1124 = invoke noundef nonnull align 8 dereferenceable(8) ptr @_ZSt16__ostream_insertIcSt11char_traitsIcEERSt13basic_ostreamIT_T0_ES6_PKS3_l(ptr noundef nonnull align 8 dereferenceable(8) %.pr2309, ptr noundef nonnull @.str.22, i64 noundef 3)
          to label %invoke.cont38 unwind label %lpad27

invoke.cont38:                                    ; preds = %if.then.i1122
  %.pr2311.pr.pr.pr = load ptr, ptr %cond-lvalue, align 8, !tbaa !26
  %tobool.not.i1125 = icmp eq ptr %.pr2311.pr.pr.pr, null
  br i1 %tobool.not.i1125, label %invoke.cont40, label %if.then.i1127

if.then.i1127:                                    ; preds = %invoke.cont38
  %call1.i.i1129 = invoke noundef nonnull align 8 dereferenceable(8) ptr @_ZSt16__ostream_insertIcSt11char_traitsIcEERSt13basic_ostreamIT_T0_ES6_PKS3_l(ptr noundef nonnull align 8 dereferenceable(8) %.pr2311.pr.pr.pr, ptr noundef nonnull @.str.110, i64 noundef 1)
          to label %invoke.cont40 unwind label %lpad27

invoke.cont40:                                    ; preds = %invoke.cont20, %invoke.cont18, %invoke.cont16, %invoke.cont14, %invoke.cont10, %invoke.cont8, %invoke.cont6, %cond.end, %invoke.cont28, %invoke.cont30, %invoke.cont22, %invoke.cont24, %invoke.cont34, %invoke.cont32, %invoke.cont36, %invoke.cont38, %if.then.i1127
  %call.i11311132 = invoke noundef double @_ZNK7Results5GetAsIdEET_PKc(ptr noundef nonnull align 8 dereferenceable(80) %e, ptr noundef nonnull @.str.22)
          to label %invoke.cont44 unwind label %lpad43

invoke.cont44:                                    ; preds = %invoke.cont40
  %7 = load ptr, ptr %cond-lvalue, align 8, !tbaa !26
  %tobool.not.i1133 = icmp eq ptr %7, null
  br i1 %tobool.not.i1133, label %invoke.cont83, label %if.then.i1134

if.then.i1134:                                    ; preds = %invoke.cont44
  %call.i.i1135 = invoke noundef nonnull align 8 dereferenceable(8) ptr @_ZNSo9_M_insertIdEERSoT_(ptr noundef nonnull align 8 dereferenceable(8) %7, double noundef %call.i11311132)
          to label %invoke.cont46 unwind label %lpad43

invoke.cont46:                                    ; preds = %if.then.i1134
  %.pr2313 = load ptr, ptr %cond-lvalue, align 8, !tbaa !26
  %tobool.not.i1136 = icmp eq ptr %.pr2313, null
  br i1 %tobool.not.i1136, label %invoke.cont83, label %if.then.i1138

if.then.i1138:                                    ; preds = %invoke.cont46
  %call1.i.i1140 = invoke noundef nonnull align 8 dereferenceable(8) ptr @_ZSt16__ostream_insertIcSt11char_traitsIcEERSt13basic_ostreamIT_T0_ES6_PKS3_l(ptr noundef nonnull align 8 dereferenceable(8) %.pr2313, ptr noundef nonnull @.str.111, i64 noundef 13)
          to label %invoke.cont48 unwind label %lpad43

invoke.cont48:                                    ; preds = %if.then.i1138
  %.pr2315 = load ptr, ptr %cond-lvalue, align 8, !tbaa !26
  %tobool.not.i1141 = icmp eq ptr %.pr2315, null
  br i1 %tobool.not.i1141, label %invoke.cont83, label %if.then.i1142

if.then.i1142:                                    ; preds = %invoke.cont48
  %call.i.i1144 = invoke noundef nonnull align 8 dereferenceable(8) ptr @_ZNSo9_M_insertIdEERSoT_(ptr noundef nonnull align 8 dereferenceable(8) %.pr2315, double noundef %div)
          to label %invoke.cont53 unwind label %lpad52

invoke.cont53:                                    ; preds = %if.then.i1142
  %.pr2317.pr = load ptr, ptr %cond-lvalue, align 8, !tbaa !26
  %tobool.not.i1146 = icmp eq ptr %.pr2317.pr, null
  br i1 %tobool.not.i1146, label %invoke.cont83, label %if.then.i1148

if.then.i1148:                                    ; preds = %invoke.cont53
  %call1.i.i1150 = invoke noundef nonnull align 8 dereferenceable(8) ptr @_ZSt16__ostream_insertIcSt11char_traitsIcEERSt13basic_ostreamIT_T0_ES6_PKS3_l(ptr noundef nonnull align 8 dereferenceable(8) %.pr2317.pr, ptr noundef nonnull @.str.103, i64 noundef 1)
          to label %invoke.cont55 unwind label %lpad52

invoke.cont55:                                    ; preds = %if.then.i1148
  %.pr2319 = load ptr, ptr %cond-lvalue, align 8, !tbaa !26
  %tobool.not.i1152 = icmp eq ptr %.pr2319, null
  br i1 %tobool.not.i1152, label %invoke.cont83, label %if.then.i1154

if.then.i1154:                                    ; preds = %invoke.cont55
  %call1.i.i1156 = invoke noundef nonnull align 8 dereferenceable(8) ptr @_ZSt16__ostream_insertIcSt11char_traitsIcEERSt13basic_ostreamIT_T0_ES6_PKS3_l(ptr noundef nonnull align 8 dereferenceable(8) %.pr2319, ptr noundef nonnull @.str.102, i64 noundef 114)
          to label %invoke.cont57 unwind label %lpad52

invoke.cont57:                                    ; preds = %if.then.i1154
  %.pr2321.pr.pr = load ptr, ptr %cond-lvalue, align 8, !tbaa !26
  %tobool.not.i1158 = icmp eq ptr %.pr2321.pr.pr, null
  br i1 %tobool.not.i1158, label %invoke.cont83, label %if.then.i1160

if.then.i1160:                                    ; preds = %invoke.cont57
  %call1.i.i1162 = invoke noundef nonnull align 8 dereferenceable(8) ptr @_ZSt16__ostream_insertIcSt11char_traitsIcEERSt13basic_ostreamIT_T0_ES6_PKS3_l(ptr noundef nonnull align 8 dereferenceable(8) %.pr2321.pr.pr, ptr noundef nonnull @.str.104, i64 noundef 1)
          to label %invoke.cont59 unwind label %lpad52

invoke.cont59:                                    ; preds = %if.then.i1160
  %.pr2323 = load ptr, ptr %cond-lvalue, align 8, !tbaa !26
  %tobool.not.i1164 = icmp eq ptr %.pr2323, null
  br i1 %tobool.not.i1164, label %invoke.cont83, label %if.then.i1166

if.then.i1166:                                    ; preds = %invoke.cont59
  %call.i11651167 = invoke noundef nonnull align 8 dereferenceable(8) ptr @_ZNSolsEi(ptr noundef nonnull align 8 dereferenceable(8) %.pr2323, i32 noundef 415)
          to label %invoke.cont63 unwind label %lpad62

invoke.cont63:                                    ; preds = %if.then.i1166
  %.pr2325.pr.pr = load ptr, ptr %cond-lvalue, align 8, !tbaa !26
  %tobool.not.i1169 = icmp eq ptr %.pr2325.pr.pr, null
  br i1 %tobool.not.i1169, label %invoke.cont83, label %if.then.i1171

if.then.i1171:                                    ; preds = %invoke.cont63
  %call1.i.i1173 = invoke noundef nonnull align 8 dereferenceable(8) ptr @_ZSt16__ostream_insertIcSt11char_traitsIcEERSt13basic_ostreamIT_T0_ES6_PKS3_l(ptr noundef nonnull align 8 dereferenceable(8) %.pr2325.pr.pr, ptr noundef nonnull @.str.105, i64 noundef 2)
          to label %invoke.cont65 unwind label %lpad62

invoke.cont65:                                    ; preds = %if.then.i1171
  %.pr2327 = load ptr, ptr %cond-lvalue, align 8, !tbaa !26
  %tobool.not.i1175 = icmp eq ptr %.pr2327, null
  br i1 %tobool.not.i1175, label %invoke.cont83, label %if.then.i1177

if.then.i1177:                                    ; preds = %invoke.cont65
  %call1.i.i1179 = invoke noundef nonnull align 8 dereferenceable(8) ptr @_ZSt16__ostream_insertIcSt11char_traitsIcEERSt13basic_ostreamIT_T0_ES6_PKS3_l(ptr noundef nonnull align 8 dereferenceable(8) %.pr2327, ptr noundef nonnull @.str.132, i64 noundef 18)
          to label %invoke.cont67 unwind label %lpad62

invoke.cont67:                                    ; preds = %if.then.i1177
  %.pr2329.pr.pr.pr = load ptr, ptr %cond-lvalue, align 8, !tbaa !26
  %tobool.not.i1180 = icmp eq ptr %.pr2329.pr.pr.pr, null
  br i1 %tobool.not.i1180, label %invoke.cont83, label %if.then.i1181

if.then.i1181:                                    ; preds = %invoke.cont67
  %call.i.i1183 = invoke noundef nonnull align 8 dereferenceable(8) ptr @_ZNSo9_M_insertIdEERSoT_(ptr noundef nonnull align 8 dereferenceable(8) %.pr2329.pr.pr.pr, double noundef %mul)
          to label %invoke.cont73 unwind label %lpad72

invoke.cont73:                                    ; preds = %if.then.i1181
  %.pr2331 = load ptr, ptr %cond-lvalue, align 8, !tbaa !26
  %tobool.not.i1185 = icmp eq ptr %.pr2331, null
  br i1 %tobool.not.i1185, label %invoke.cont83, label %if.then.i1187

if.then.i1187:                                    ; preds = %invoke.cont73
  %call1.i.i1189 = invoke noundef nonnull align 8 dereferenceable(8) ptr @_ZSt16__ostream_insertIcSt11char_traitsIcEERSt13basic_ostreamIT_T0_ES6_PKS3_l(ptr noundef nonnull align 8 dereferenceable(8) %.pr2331, ptr noundef nonnull @.str.133, i64 noundef 2)
          to label %invoke.cont75 unwind label %lpad72

invoke.cont75:                                    ; preds = %if.then.i1187
  %.pr2333.pr.pr.pr = load ptr, ptr %cond-lvalue, align 8, !tbaa !26
  %tobool.not.i1191 = icmp eq ptr %.pr2333.pr.pr.pr, null
  br i1 %tobool.not.i1191, label %invoke.cont83, label %if.then.i1192

if.then.i1192:                                    ; preds = %invoke.cont75
  %call.i.i1194 = invoke noundef nonnull align 8 dereferenceable(8) ptr @_ZNSo9_M_insertIdEERSoT_(ptr noundef nonnull align 8 dereferenceable(8) %.pr2333.pr.pr.pr, double noundef 1.000000e-01)
          to label %invoke.cont79 unwind label %lpad78

invoke.cont79:                                    ; preds = %if.then.i1192
  %.pr2335 = load ptr, ptr %cond-lvalue, align 8, !tbaa !26
  %tobool.not.i1196 = icmp eq ptr %.pr2335, null
  br i1 %tobool.not.i1196, label %invoke.cont83, label %if.then.i1198

if.then.i1198:                                    ; preds = %invoke.cont79
  %call1.i.i1200 = invoke noundef nonnull align 8 dereferenceable(8) ptr @_ZSt16__ostream_insertIcSt11char_traitsIcEERSt13basic_ostreamIT_T0_ES6_PKS3_l(ptr noundef nonnull align 8 dereferenceable(8) %.pr2335, ptr noundef nonnull @.str.134, i64 noundef 4)
          to label %invoke.cont81 unwind label %lpad78

invoke.cont81:                                    ; preds = %if.then.i1198
  %.pr2337.pr.pr.pr = load ptr, ptr %cond-lvalue, align 8, !tbaa !26
  %tobool.not.i1201 = icmp eq ptr %.pr2337.pr.pr.pr, null
