; ModuleID = '/usr/local/google/home/aeubanks/repos/test-suite/MultiSource/Benchmarks/PAQ8p/paq8p.cpp'
source_filename = "/usr/local/google/home/aeubanks/repos/test-suite/MultiSource/Benchmarks/PAQ8p/paq8p.cpp"
target datalayout = "e-m:e-p270:32:32-p271:32:32-p272:64:64-i64:64-f80:128-n8:16:32:64-S128"
target triple = "x86_64-unknown-linux-gnu"

%class.ProgramChecker = type { i32, i32, i64 }
%class.Random = type <{ %class.Array, i32, [4 x i8] }>
%class.Array = type { i32, i32, ptr, ptr }
%class.Buf = type { %class.Array.0 }
%class.Array.0 = type { i32, i32, ptr, ptr }
%class.Ilog = type { %class.Array.0 }
%class.Stretch = type { %class.Array.1 }
%class.Array.1 = type { i32, i32, ptr, ptr }
%class.Array.3 = type { i32, i32, ptr, ptr }
%class.SmallStationaryContextMap = type { %class.Array.4, i32, ptr }
%class.Array.4 = type { i32, i32, ptr, ptr }
%class.StateMap = type { i32, i32, %class.Array }
%class.ContextMap = type <{ i32, [4 x i8], %class.Array.5, %class.Array.6, %class.Array.6, %class.Array, %class.Array.6, ptr, i32, [4 x i8] }>
%class.Array.5 = type { i32, i32, ptr, ptr }
%class.Array.6 = type { i32, i32, ptr, ptr }
%class.Array.7 = type { i32, i32, ptr, ptr }
%class.IntBuf = type { %class.Array.3 }
%class.BH = type <{ %class.Array.8, i32, [4 x i8] }>
%class.Array.8 = type { i32, i32, ptr, ptr }
%class.Mixer = type { i32, i32, i32, %class.Array.2, %class.Array.2, %class.Array.3, i32, i32, i32, %class.Array.3, ptr }
%class.Array.2 = type { i32, i32, ptr, ptr }
%class.APM = type { %class.StateMap }
%class.Array.9 = type { i32, i32, ptr, ptr }
%class.RunContextMap = type { %class.BH.10, ptr }
%class.BH.10 = type <{ %class.Array.8, i32, [4 x i8] }>
%class.APM1 = type { i32, i32, %class.Array.4 }
%class.String = type { %class.Array.12 }
%class.Array.12 = type { i32, i32, ptr, ptr }
%"class.ContextMap::E" = type { [7 x i16], i8, [7 x [7 x i8]] }
%struct.HUF = type { i32, i32, i32 }
%struct.DMCNode = type { [2 x i32], i8, [3 x i8] }
%class.Encoder = type { %class.Predictor, i32, ptr, i32, i32, i32, ptr }
%class.Predictor = type { i32 }
%class.Array.13 = type { i32, i32, ptr, ptr }
%class.Array.14 = type { i32, i32, ptr, ptr }

$_ZN6RandomD2Ev = comdat any

$_ZN3BufC2Ei = comdat any

$_ZN3BufD2Ev = comdat any

$_ZN4IlogD2Ev = comdat any

$_ZN5ArrayIhLi0EEC2Ei = comdat any

$_ZN5ArrayIhLi0EED2Ev = comdat any

$_ZN7StretchD2Ev = comdat any

$_ZN5ArrayIiLi0EED2Ev = comdat any

$_ZN5ArrayIsLi16EED2Ev = comdat any

$_ZN5ArrayIiLi0EEC2Ei = comdat any

$_ZN5ArrayIjLi0EEC2Ei = comdat any

$_ZN5ArrayIjLi0EED2Ev = comdat any

$_ZN5ArrayIPhLi0EEC2Ei = comdat any

$_ZN8StateMapD2Ev = comdat any

$_ZN5ArrayIPhLi0EED2Ev = comdat any

$_ZN5ArrayIN10ContextMap1EELi64EED2Ev = comdat any

$_ZN10ContextMap1E3getEt = comdat any

$_ZN25SmallStationaryContextMapC2Ei = comdat any

$_ZN25SmallStationaryContextMapD2Ev = comdat any

$_Z2i4i = comdat any

$_ZN5ArrayI3HUFLi0EEC2Ei = comdat any

$_ZN5ArrayI3HUFLi0EED2Ev = comdat any

$_ZN6IntBufC2Ei = comdat any

$_ZN6IntBufD2Ev = comdat any

$_ZN2BHILi9EEC2Ei = comdat any

$_ZN2BHILi9EED2Ev = comdat any

$_ZN5Mixer6updateEv = comdat any

$_ZN2BHILi9EEixEj = comdat any

$_ZN5Mixer1pEv = comdat any

$_ZN3APM1pEiii = comdat any

$_Z1Xii = comdat any

$_ZN5ArrayI7DMCNodeLi0EEC2Ei = comdat any

$_ZN5ArrayI7DMCNodeLi0EED2Ev = comdat any

$_ZN13RunContextMapC2Ei = comdat any

$_ZN13RunContextMapD2Ev = comdat any

$_ZN4APM1D2Ev = comdat any

$_ZN7Encoder10decompressEv = comdat any

$_ZN7Encoder8compressEi = comdat any

$_ZN6StringC2EPKc = comdat any

$_ZN5ArrayIcLi0EED2Ev = comdat any

$_ZN5ArrayIcLi0EE6resizeEi = comdat any

$_ZN5ArrayIPcLi0EE6resizeEi = comdat any

$_ZN5ArrayIlLi0EE6resizeEi = comdat any

$_ZN2BHILi4EEixEj = comdat any

$_ZN7Encoder4codeEi = comdat any

$_ZN5ArrayIhLi0EE6resizeEi = comdat any

$_ZZN2BHILi4EEixEjE3tmp = comdat any

$_ZZN2BHILi9EEixEjE3tmp = comdat any

@_ZTIPKc = external constant ptr
@programChecker = dso_local local_unnamed_addr global %class.ProgramChecker zeroinitializer, align 8
@rnd = dso_local global %class.Random zeroinitializer, align 8
@__dso_handle = external hidden global i8
@pos = dso_local local_unnamed_addr global i32 0, align 4
@level = dso_local local_unnamed_addr global i32 5, align 4
@y = dso_local local_unnamed_addr global i32 0, align 4
@c0 = dso_local local_unnamed_addr global i32 1, align 4
@c4 = dso_local local_unnamed_addr global i32 0, align 4
@bpos = dso_local local_unnamed_addr global i32 0, align 4
@buf = dso_local global %class.Buf zeroinitializer, align 8
@ilog = dso_local global %class.Ilog zeroinitializer, align 8
@_ZZ6squashiE1t = internal unnamed_addr constant [33 x i32] [i32 1, i32 2, i32 3, i32 6, i32 10, i32 16, i32 27, i32 45, i32 73, i32 120, i32 194, i32 310, i32 488, i32 747, i32 1101, i32 1546, i32 2047, i32 2549, i32 2994, i32 3348, i32 3607, i32 3785, i32 3901, i32 3975, i32 4022, i32 4050, i32 4068, i32 4079, i32 4085, i32 4089, i32 4092, i32 4093, i32 4094], align 16
@stretch = dso_local global %class.Stretch zeroinitializer, align 8
@_ZL11State_table = internal unnamed_addr constant [256 x [4 x i8]] [[4 x i8] c"\01\02\00\00", [4 x i8] c"\03\05\01\00", [4 x i8] c"\04\06\00\01", [4 x i8] c"\07\0A\02\00", [4 x i8] c"\08\0C\01\01", [4 x i8] c"\09\0D\01\01", [4 x i8] c"\0B\0E\00\02", [4 x i8] c"\0F\13\03\00", [4 x i8] c"\10\17\02\01", [4 x i8] c"\11\18\02\01", [4 x i8] c"\12\19\02\01", [4 x i8] c"\14\1B\01\02", [4 x i8] c"\15\1C\01\02", [4 x i8] c"\16\1D\01\02", [4 x i8] c"\1A\1E\00\03", [4 x i8] c"\1F!\04\00", [4 x i8] c" #\03\01", [4 x i8] c" #\03\01", [4 x i8] c" #\03\01", [4 x i8] c" #\03\01", [4 x i8] c"\22%\02\02", [4 x i8] c"\22%\02\02", [4 x i8] c"\22%\02\02", [4 x i8] c"\22%\02\02", [4 x i8] c"\22%\02\02", [4 x i8] c"\22%\02\02", [4 x i8] c"$'\01\03", [4 x i8] c"$'\01\03", [4 x i8] c"$'\01\03", [4 x i8] c"$'\01\03", [4 x i8] c"&(\00\04", [4 x i8] c")+\05\00", [4 x i8] c"*-\04\01", [4 x i8] c"*-\04\01", [4 x i8] c",/\03\02", [4 x i8] c",/\03\02", [4 x i8] c".1\02\03", [4 x i8] c".1\02\03", [4 x i8] c"03\01\04", [4 x i8] c"03\01\04", [4 x i8] c"24\00\05", [4 x i8] c"5+\06\00", [4 x i8] c"69\05\01", [4 x i8] c"69\05\01", [4 x i8] c"8;\04\02", [4 x i8] c"8;\04\02", [4 x i8] c":=\03\03", [4 x i8] c":=\03\03", [4 x i8] c"<?\02\04", [4 x i8] c"<?\02\04", [4 x i8] c">A\01\05", [4 x i8] c">A\01\05", [4 x i8] c"2B\00\06", [4 x i8] c"C7\07\00", [4 x i8] c"D9\06\01", [4 x i8] c"D9\06\01", [4 x i8] c"FI\05\02", [4 x i8] c"FI\05\02", [4 x i8] c"HK\04\03", [4 x i8] c"HK\04\03", [4 x i8] c"JM\03\04", [4 x i8] c"JM\03\04", [4 x i8] c"LO\02\05", [4 x i8] c"LO\02\05", [4 x i8] c">Q\01\06", [4 x i8] c">Q\01\06", [4 x i8] c"@R\00\07", [4 x i8] c"SE\08\00", [4 x i8] c"TG\07\01", [4 x i8] c"TG\07\01", [4 x i8] c"VI\06\02", [4 x i8] c"VI\06\02", [4 x i8] c",;\05\03", [4 x i8] c",;\05\03", [4 x i8] c":=\04\04", [4 x i8] c":=\04\04", [4 x i8] c"<1\03\05", [4 x i8] c"<1\03\05", [4 x i8] c"LY\02\06", [4 x i8] c"LY\02\06", [4 x i8] c"N[\01\07", [4 x i8] c"N[\01\07", [4 x i8] c"P\\\00\08", [4 x i8] c"]E\09\00", [4 x i8] c"^W\08\01", [4 x i8] c"^W\08\01", [4 x i8] c"`-\07\02", [4 x i8] c"`-\07\02", [4 x i8] c"0c\02\07", [4 x i8] c"0c\02\07", [4 x i8] c"Xe\01\08", [4 x i8] c"Xe\01\08", [4 x i8] c"Pf\00\09", [4 x i8] c"gE\0A\00", [4 x i8] c"hW\09\01", [4 x i8] c"hW\09\01", [4 x i8] c"j9\08\02", [4 x i8] c"j9\08\02", [4 x i8] c">m\02\08", [4 x i8] c">m\02\08", [4 x i8] c"Xo\01\09", [4 x i8] c"Xo\01\09", [4 x i8] c"Pp\00\0A", [4 x i8] c"qU\0B\00", [4 x i8] c"rW\0A\01", [4 x i8] c"rW\0A\01", [4 x i8] c"t9\09\02", [4 x i8] c"t9\09\02", [4 x i8] c">w\02\09", [4 x i8] c">w\02\09", [4 x i8] c"Xy\01\0A", [4 x i8] c"Xy\01\0A", [4 x i8] c"Zz\00\0B", [4 x i8] c"{U\0C\00", [4 x i8] c"|a\0B\01", [4 x i8] c"|a\0B\01", [4 x i8] c"~9\0A\02", [4 x i8] c"~9\0A\02", [4 x i8] c">\81\02\0A", [4 x i8] c">\81\02\0A", [4 x i8] c"b\83\01\0B", [4 x i8] c"b\83\01\0B", [4 x i8] c"Z\84\00\0C", [4 x i8] c"\85U\0D\00", [4 x i8] c"\86a\0C\01", [4 x i8] c"\86a\0C\01", [4 x i8] c"\889\0B\02", [4 x i8] c"\889\0B\02", [4 x i8] c">\8B\02\0B", [4 x i8] c">\8B\02\0B", [4 x i8] c"b\8D\01\0C", [4 x i8] c"b\8D\01\0C", [4 x i8] c"Z\8E\00\0D", [4 x i8] c"\8F_\0E\00", [4 x i8] c"\90a\0D\01", [4 x i8] c"\90a\0D\01", [4 x i8] c"D9\0C\02", [4 x i8] c"D9\0C\02", [4 x i8] c">Q\02\0C", [4 x i8] c">Q\02\0C", [4 x i8] c"b\93\01\0D", [4 x i8] c"b\93\01\0D", [4 x i8] c"d\94\00\0E", [4 x i8] c"\95_\0F\00", [4 x i8] c"\96k\0E\01", [4 x i8] c"\96k\0E\01", [4 x i8] c"l\97\01\0E", [4 x i8] c"l\97\01\0E", [4 x i8] c"d\98\00\0F", [4 x i8] c"\99_\10\00", [4 x i8] c"\9Ak\0F\01", [4 x i8] c"l\9B\01\0F", [4 x i8] c"d\9C\00\10", [4 x i8] c"\9D_\11\00", [4 x i8] c"\9Ek\10\01", [4 x i8] c"l\9F\01\10", [4 x i8] c"d\A0\00\11", [4 x i8] c"\A1i\12\00", [4 x i8] c"\A2k\11\01", [4 x i8] c"l\A3\01\11", [4 x i8] c"n\A4\00\12", [4 x i8] c"\A5i\13\00", [4 x i8] c"\A6u\12\01", [4 x i8] c"v\A7\01\12", [4 x i8] c"n\A8\00\13", [4 x i8] c"\A9i\14\00", [4 x i8] c"\AAu\13\01", [4 x i8] c"v\AB\01\13", [4 x i8] c"n\AC\00\14", [4 x i8] c"\ADi\15\00", [4 x i8] c"\AEu\14\01", [4 x i8] c"v\AF\01\14", [4 x i8] c"n\B0\00\15", [4 x i8] c"\B1i\16\00", [4 x i8] c"\B2u\15\01", [4 x i8] c"v\B3\01\15", [4 x i8] c"n\B4\00\16", [4 x i8] c"\B5s\17\00", [4 x i8] c"\B6u\16\01", [4 x i8] c"v\B7\01\16", [4 x i8] c"x\B8\00\17", [4 x i8] c"\B9s\18\00", [4 x i8] c"\BA\7F\17\01", [4 x i8] c"\80\BB\01\17", [4 x i8] c"x\BC\00\18", [4 x i8] c"\BDs\19\00", [4 x i8] c"\BE\7F\18\01", [4 x i8] c"\80\BF\01\18", [4 x i8] c"x\C0\00\19", [4 x i8] c"\C1s\1A\00", [4 x i8] c"\C2\7F\19\01", [4 x i8] c"\80\C3\01\19", [4 x i8] c"x\C4\00\1A", [4 x i8] c"\C5s\1B\00", [4 x i8] c"\C6\7F\1A\01", [4 x i8] c"\80\C7\01\1A", [4 x i8] c"x\C8\00\1B", [4 x i8] c"\C9s\1C\00", [4 x i8] c"\CA\7F\1B\01", [4 x i8] c"\80\CB\01\1B", [4 x i8] c"x\CC\00\1C", [4 x i8] c"\CDs\1D\00", [4 x i8] c"\CE\7F\1C\01", [4 x i8] c"\80\CF\01\1C", [4 x i8] c"x\D0\00\1D", [4 x i8] c"\D1}\1E\00", [4 x i8] c"\D2\7F\1D\01", [4 x i8] c"\80\D3\01\1D", [4 x i8] c"\82\D4\00\1E", [4 x i8] c"\D5}\1F\00", [4 x i8] c"\D6\89\1E\01", [4 x i8] c"\8A\D7\01\1E", [4 x i8] c"\82\D8\00\1F", [4 x i8] c"\D9} \00", [4 x i8] c"\DA\89\1F\01", [4 x i8] c"\8A\DB\01\1F", [4 x i8] c"\82\DC\00 ", [4 x i8] c"\DD}!\00", [4 x i8] c"\DE\89 \01", [4 x i8] c"\8A\DF\01 ", [4 x i8] c"\82\E0\00!", [4 x i8] c"\E1}\22\00", [4 x i8] c"\E2\89!\01", [4 x i8] c"\8A\E3\01!", [4 x i8] c"\82\E4\00\22", [4 x i8] c"\E5}#\00", [4 x i8] c"\E6\89\22\01", [4 x i8] c"\8A\E7\01\22", [4 x i8] c"\82\E8\00#", [4 x i8] c"\E9}$\00", [4 x i8] c"\EA\89#\01", [4 x i8] c"\8A\EB\01#", [4 x i8] c"\82\EC\00$", [4 x i8] c"\ED}%\00", [4 x i8] c"\EE\89$\01", [4 x i8] c"\8A\EF\01$", [4 x i8] c"\82\F0\00%", [4 x i8] c"\F1}&\00", [4 x i8] c"\F2\89%\01", [4 x i8] c"\8A\F3\01%", [4 x i8] c"\82\F4\00&", [4 x i8] c"\F5\87'\00", [4 x i8] c"\F6\89&\01", [4 x i8] c"\8A\F7\01&", [4 x i8] c"\8C\F8\00'", [4 x i8] c"\F9\87(\00", [4 x i8] c"\FAE'\01", [4 x i8] c"P\FB\01'", [4 x i8] c"\8C\FC\00(", [4 x i8] c"\F9\87)\00", [4 x i8] c"\FAE(\01", [4 x i8] c"P\FB\01(", [4 x i8] c"\8C\FC\00)", [4 x i8] zeroinitializer, [4 x i8] zeroinitializer, [4 x i8] zeroinitializer], align 16
@_ZZ10matchModelR5MixerE1t = internal global %class.Array.3 zeroinitializer, align 8
@_ZGVZ10matchModelR5MixerE1t = internal global i64 0, align 8
@_ZZ10matchModelR5MixerE1h = internal unnamed_addr global i32 0, align 4
@_ZZ10matchModelR5MixerE3ptr = internal unnamed_addr global i32 0, align 4
@_ZZ10matchModelR5MixerE3len = internal unnamed_addr global i32 0, align 4
@_ZZ10matchModelR5MixerE6result = internal unnamed_addr global i32 0, align 4
@_ZZ10matchModelR5MixerE4scm1 = internal global %class.SmallStationaryContextMap zeroinitializer, align 8
@_ZGVZ10matchModelR5MixerE4scm1 = internal global i64 0, align 8
@_ZZ8picModelR5MixerE2r0 = internal unnamed_addr global i32 0, align 4
@_ZZ8picModelR5MixerE2r1 = internal unnamed_addr global i32 0, align 4
@_ZZ8picModelR5MixerE2r2 = internal unnamed_addr global i32 0, align 4
@_ZZ8picModelR5MixerE2r3 = internal unnamed_addr global i32 0, align 4
@_ZZ8picModelR5MixerE1t = internal global %class.Array.0 zeroinitializer, align 8
@_ZGVZ8picModelR5MixerE1t = internal global i64 0, align 8
@_ZZ8picModelR5MixerE3cxt.0 = internal unnamed_addr global i32 0, align 4
@_ZZ8picModelR5MixerE3cxt.1 = internal unnamed_addr global i32 0, align 4
@_ZZ8picModelR5MixerE3cxt.2 = internal unnamed_addr global i32 0, align 4
@_ZZ8picModelR5MixerE2sm = internal global [3 x %class.StateMap] zeroinitializer, align 16
@_ZGVZ8picModelR5MixerE2sm = internal global i64 0, align 8
@_ZZ9wordModelR5MixerE5word0 = internal unnamed_addr global i32 0, align 4
@_ZZ9wordModelR5MixerE5word1 = internal unnamed_addr global i32 0, align 4
@_ZZ9wordModelR5MixerE5word2 = internal unnamed_addr global i32 0, align 4
@_ZZ9wordModelR5MixerE5word3 = internal unnamed_addr global i32 0, align 4
@_ZZ9wordModelR5MixerE5word4 = internal unnamed_addr global i32 0, align 4
@_ZZ9wordModelR5MixerE5word5 = internal unnamed_addr global i32 0, align 4
@_ZZ9wordModelR5MixerE5text0 = internal unnamed_addr global i32 0, align 4
@_ZZ9wordModelR5MixerE2cm = internal global %class.ContextMap zeroinitializer, align 8
@_ZGVZ9wordModelR5MixerE2cm = internal global i64 0, align 8
@_ZZ9wordModelR5MixerE3nl1 = internal unnamed_addr global i32 -3, align 4
@_ZZ9wordModelR5MixerE2nl = internal unnamed_addr global i32 -2, align 4
@_ZZ11recordModelR5MixerE5cpos1 = internal unnamed_addr global [256 x i32] zeroinitializer, align 16
@_ZZ11recordModelR5MixerE5cpos2 = internal unnamed_addr global [256 x i32] zeroinitializer, align 16
@_ZZ11recordModelR5MixerE5cpos3 = internal unnamed_addr global [256 x i32] zeroinitializer, align 16
@_ZZ11recordModelR5MixerE5cpos4 = internal unnamed_addr global [256 x i32] zeroinitializer, align 16
@_ZZ11recordModelR5MixerE5wpos1 = internal unnamed_addr global [65536 x i32] zeroinitializer, align 16
@_ZZ11recordModelR5MixerE4rlen = internal unnamed_addr global i32 2, align 4
@_ZZ11recordModelR5MixerE5rlen1 = internal unnamed_addr global i32 3, align 4
@_ZZ11recordModelR5MixerE5rlen2 = internal unnamed_addr global i32 4, align 4
@_ZZ11recordModelR5MixerE7rcount1 = internal unnamed_addr global i32 0, align 4
@_ZZ11recordModelR5MixerE7rcount2 = internal unnamed_addr global i32 0, align 4
@_ZZ11recordModelR5MixerE2cm = internal global %class.ContextMap zeroinitializer, align 8
@_ZGVZ11recordModelR5MixerE2cm = internal global i64 0, align 8
@_ZZ11recordModelR5MixerE2cn = internal global %class.ContextMap zeroinitializer, align 8
@_ZGVZ11recordModelR5MixerE2cn = internal global i64 0, align 8
@_ZZ11recordModelR5MixerE2co = internal global %class.ContextMap zeroinitializer, align 8
@_ZGVZ11recordModelR5MixerE2co = internal global i64 0, align 8
@_ZZ11recordModelR5MixerE2cp = internal global %class.ContextMap zeroinitializer, align 8
@_ZGVZ11recordModelR5MixerE2cp = internal global i64 0, align 8
@_ZZ11sparseModelR5MixeriiE2cm = internal global %class.ContextMap zeroinitializer, align 8
@_ZGVZ11sparseModelR5MixeriiE2cm = internal global i64 0, align 8
@_ZZ11sparseModelR5MixeriiE4mask = internal unnamed_addr global i32 0, align 4
@_ZZ13distanceModelR5MixerE2cr = internal global %class.ContextMap zeroinitializer, align 8
@_ZGVZ13distanceModelR5MixerE2cr = internal global i64 0, align 8
@_ZZ13distanceModelR5MixerE5pos00 = internal unnamed_addr global i32 0, align 4
@_ZZ13distanceModelR5MixerE5pos20 = internal unnamed_addr global i32 0, align 4
@_ZZ13distanceModelR5MixerE5posnl = internal unnamed_addr global i32 0, align 4
@_ZZ8bmpModelR5MixerE1w = internal unnamed_addr global i32 0, align 4
@_ZZ8bmpModelR5MixerE3eoi = internal unnamed_addr global i32 0, align 4
@_ZZ8bmpModelR5MixerE4tiff = internal unnamed_addr global i32 0, align 4
@_ZZ8bmpModelR5MixerE4scm1 = internal global %class.SmallStationaryContextMap zeroinitializer, align 8
@_ZGVZ8bmpModelR5MixerE4scm1 = internal global i64 0, align 8
@_ZZ8bmpModelR5MixerE4scm2 = internal global %class.SmallStationaryContextMap zeroinitializer, align 8
@_ZGVZ8bmpModelR5MixerE4scm2 = internal global i64 0, align 8
@_ZZ8bmpModelR5MixerE4scm3 = internal global %class.SmallStationaryContextMap zeroinitializer, align 8
@_ZGVZ8bmpModelR5MixerE4scm3 = internal global i64 0, align 8
@_ZZ8bmpModelR5MixerE4scm4 = internal global %class.SmallStationaryContextMap zeroinitializer, align 8
@_ZGVZ8bmpModelR5MixerE4scm4 = internal global i64 0, align 8
@_ZZ8bmpModelR5MixerE4scm5 = internal global %class.SmallStationaryContextMap zeroinitializer, align 8
@_ZGVZ8bmpModelR5MixerE4scm5 = internal global i64 0, align 8
@_ZZ8bmpModelR5MixerE4scm6 = internal global %class.SmallStationaryContextMap zeroinitializer, align 8
@_ZGVZ8bmpModelR5MixerE4scm6 = internal global i64 0, align 8
@_ZZ8bmpModelR5MixerE4scm7 = internal global %class.SmallStationaryContextMap zeroinitializer, align 8
@_ZGVZ8bmpModelR5MixerE4scm7 = internal global i64 0, align 8
@_ZZ8bmpModelR5MixerE4scm8 = internal global %class.SmallStationaryContextMap zeroinitializer, align 8
@_ZGVZ8bmpModelR5MixerE4scm8 = internal global i64 0, align 8
@_ZZ8bmpModelR5MixerE4scm9 = internal global %class.SmallStationaryContextMap zeroinitializer, align 8
@_ZGVZ8bmpModelR5MixerE4scm9 = internal global i64 0, align 8
@_ZZ8bmpModelR5MixerE5scm10 = internal global %class.SmallStationaryContextMap zeroinitializer, align 8
@_ZGVZ8bmpModelR5MixerE5scm10 = internal global i64 0, align 8
@_ZZ8bmpModelR5MixerE2cm = internal global %class.ContextMap zeroinitializer, align 8
@_ZGVZ8bmpModelR5MixerE2cm = internal global i64 0, align 8
@.str = private unnamed_addr constant [11 x i8] c"BMP %dx%d \00", align 1
@.str.5 = private unnamed_addr constant [15 x i8] c"TIFF %dx%dx%d \00", align 1
@_ZZ9model8bitR5MixeriE4scm1 = internal global %class.SmallStationaryContextMap zeroinitializer, align 8
@_ZGVZ9model8bitR5MixeriE4scm1 = internal global i64 0, align 8
@_ZZ9model8bitR5MixeriE4scm2 = internal global %class.SmallStationaryContextMap zeroinitializer, align 8
@_ZGVZ9model8bitR5MixeriE4scm2 = internal global i64 0, align 8
@_ZZ9model8bitR5MixeriE4scm3 = internal global %class.SmallStationaryContextMap zeroinitializer, align 8
@_ZGVZ9model8bitR5MixeriE4scm3 = internal global i64 0, align 8
@_ZZ9model8bitR5MixeriE4scm4 = internal global %class.SmallStationaryContextMap zeroinitializer, align 8
@_ZGVZ9model8bitR5MixeriE4scm4 = internal global i64 0, align 8
@_ZZ9model8bitR5MixeriE4scm5 = internal global %class.SmallStationaryContextMap zeroinitializer, align 8
@_ZGVZ9model8bitR5MixeriE4scm5 = internal global i64 0, align 8
@_ZZ9model8bitR5MixeriE4scm6 = internal global %class.SmallStationaryContextMap zeroinitializer, align 8
@_ZGVZ9model8bitR5MixeriE4scm6 = internal global i64 0, align 8
@_ZZ9model8bitR5MixeriE4scm7 = internal global %class.SmallStationaryContextMap zeroinitializer, align 8
@_ZGVZ9model8bitR5MixeriE4scm7 = internal global i64 0, align 8
@_ZZ9model8bitR5MixeriE2cm = internal global %class.ContextMap zeroinitializer, align 8
@_ZGVZ9model8bitR5MixeriE2cm = internal global i64 0, align 8
@_ZZ8pgmModelR5MixerE1w = internal unnamed_addr global i32 0, align 4
@_ZZ8pgmModelR5MixerE3eoi = internal unnamed_addr global i32 0, align 4
@_ZZ8pgmModelR5MixerE3pgm = internal unnamed_addr global i32 0, align 4
@_ZZ8pgmModelR5MixerE7pgm_hdr = internal unnamed_addr global [3 x i32] zeroinitializer, align 4
@_ZZ8pgmModelR5MixerE7pgm_ptr = internal unnamed_addr global i32 0, align 4
@.str.6 = private unnamed_addr constant [10 x i8] c"PGM %dx%d\00", align 1
@_ZZ8pgmModelR5MixerE3col = internal unnamed_addr global i32 0, align 4
@_ZZ9bmpModel8R5MixerE1h = internal unnamed_addr global i32 0, align 4
@_ZZ9bmpModel8R5MixerE1w = internal unnamed_addr global i32 0, align 4
@_ZZ9bmpModel8R5MixerE3eoi = internal unnamed_addr global i32 0, align 4
@_ZZ9bmpModel8R5MixerE3col = internal unnamed_addr global i32 0, align 4
@_ZZ9bmpModel8R5MixerE4ibmp = internal unnamed_addr global i32 0, align 4
@_ZZ9bmpModel8R5MixerE2w1 = internal unnamed_addr global i32 0, align 4
@.str.7 = private unnamed_addr constant [17 x i8] c"BMP(8-bit) %dx%d\00", align 1
@_ZZ9rgbModel8R5MixerE1w = internal unnamed_addr global i32 0, align 4
@_ZZ9rgbModel8R5MixerE3eoi = internal unnamed_addr global i32 0, align 4
@_ZZ9rgbModel8R5MixerE3col = internal unnamed_addr global i32 0, align 4
@.str.8 = private unnamed_addr constant [17 x i8] c"RGB(8-bit) %dx%d\00", align 1
@.str.9 = private unnamed_addr constant [4 x i8] c"%s:\00", align 1
@.str.10 = private unnamed_addr constant [6 x i8] c" %02X\00", align 1
@_ZZ9jpegModelR5MixerE4jpeg = internal unnamed_addr global i32 0, align 4
@_ZZ9jpegModelR5MixerE9next_jpeg = internal unnamed_addr global i32 0, align 4
@_ZZ9jpegModelR5MixerE3app = internal unnamed_addr global i32 0, align 4
@_ZZ9jpegModelR5MixerE3sof = internal unnamed_addr global i32 0, align 4
@_ZZ9jpegModelR5MixerE3sos = internal unnamed_addr global i32 0, align 4
@_ZZ9jpegModelR5MixerE4data = internal unnamed_addr global i32 0, align 4
@_ZZ9jpegModelR5MixerE2ht = internal global %class.Array.3 zeroinitializer, align 8
@_ZGVZ9jpegModelR5MixerE2ht = internal global i64 0, align 8
@_ZZ9jpegModelR5MixerE6htsize = internal unnamed_addr global i32 0, align 4
@_ZZ9jpegModelR5MixerE8huffcode = internal unnamed_addr global i32 0, align 4
@_ZZ9jpegModelR5MixerE8huffbits = internal unnamed_addr global i32 0, align 4
@_ZZ9jpegModelR5MixerE8huffsize = internal unnamed_addr global i32 0, align 4
@_ZZ9jpegModelR5MixerE2rs = internal unnamed_addr global i32 -1, align 4
@_ZZ9jpegModelR5MixerE6mcupos = internal unnamed_addr global i32 0, align 4
@_ZZ9jpegModelR5MixerE3huf = internal global %class.Array.7 zeroinitializer, align 8
@_ZGVZ9jpegModelR5MixerE3huf = internal global i64 0, align 8
@_ZZ9jpegModelR5MixerE7mcusize = internal unnamed_addr global i32 0, align 4
@_ZZ9jpegModelR5MixerE6hufsel = internal unnamed_addr global [2 x [10 x i32]] zeroinitializer, align 16
@_ZZ9jpegModelR5MixerE4hbuf = internal global %class.Array.0 zeroinitializer, align 8
@_ZGVZ9jpegModelR5MixerE4hbuf = internal global i64 0, align 8
@_ZZ9jpegModelR5MixerE5color = internal global %class.Array.3 zeroinitializer, align 8
@_ZGVZ9jpegModelR5MixerE5color = internal global i64 0, align 8
@_ZZ9jpegModelR5MixerE4pred = internal global %class.Array.3 zeroinitializer, align 8
@_ZGVZ9jpegModelR5MixerE4pred = internal global i64 0, align 8
@_ZZ9jpegModelR5MixerE5width = internal unnamed_addr global i32 0, align 4
@_ZZ9jpegModelR5MixerE3row = internal unnamed_addr global i32 0, align 4
@_ZZ9jpegModelR5MixerE6column = internal unnamed_addr global i32 0, align 4
@_ZZ9jpegModelR5MixerE4cbuf = internal global %class.Buf zeroinitializer, align 8
@_ZGVZ9jpegModelR5MixerE4cbuf = internal global i64 0, align 8
@_ZZ9jpegModelR5MixerE4cpos = internal unnamed_addr global i32 0, align 4
@_ZZ9jpegModelR5MixerE3rs1 = internal unnamed_addr global i32 0, align 4
@_ZZ9jpegModelR5MixerE4ssum = internal unnamed_addr global i32 0, align 4
@_ZZ9jpegModelR5MixerE5ssum1 = internal unnamed_addr global i32 0, align 4
@_ZZ9jpegModelR5MixerE5ssum2 = internal unnamed_addr global i32 0, align 4
@_ZZ9jpegModelR5MixerE5ssum3 = internal unnamed_addr global i32 0, align 4
@_ZZ9jpegModelR5MixerE5cbuf2 = internal global %class.IntBuf zeroinitializer, align 8
@_ZGVZ9jpegModelR5MixerE5cbuf2 = internal global i64 0, align 8
@_ZZ9jpegModelR5MixerE8adv_pred = internal global %class.Array.3 zeroinitializer, align 8
@_ZGVZ9jpegModelR5MixerE8adv_pred = internal global i64 0, align 8
@_ZZ9jpegModelR5MixerE4sumu = internal global %class.Array.3 zeroinitializer, align 8
@_ZGVZ9jpegModelR5MixerE4sumu = internal global i64 0, align 8
@_ZZ9jpegModelR5MixerE4sumv = internal global %class.Array.3 zeroinitializer, align 8
@_ZGVZ9jpegModelR5MixerE4sumv = internal global i64 0, align 8
@_ZZ9jpegModelR5MixerE2ls = internal global %class.Array.3 zeroinitializer, align 8
@_ZGVZ9jpegModelR5MixerE2ls = internal global i64 0, align 8
@_ZZ9jpegModelR5MixerE3lcp = internal global %class.Array.3 zeroinitializer, align 8
@_ZGVZ9jpegModelR5MixerE3lcp = internal global i64 0, align 8
@_ZZ9jpegModelR5MixerE4zpos = internal global %class.Array.3 zeroinitializer, align 8
@_ZGVZ9jpegModelR5MixerE4zpos = internal global i64 0, align 8
@_ZZ9jpegModelR5MixerE9dqt_state = internal unnamed_addr global i32 -1, align 4
@_ZZ9jpegModelR5MixerE7dqt_end = internal unnamed_addr global i32 0, align 4
@_ZZ9jpegModelR5MixerE4qnum = internal unnamed_addr global i32 0, align 4
@_ZZ9jpegModelR5MixerE4qtab = internal global %class.Array.0 zeroinitializer, align 8
@_ZGVZ9jpegModelR5MixerE4qtab = internal global i64 0, align 8
@_ZZ9jpegModelR5MixerE4qmap = internal global %class.Array.3 zeroinitializer, align 8
@_ZGVZ9jpegModelR5MixerE4qmap = internal global i64 0, align 8
@_ZZ9jpegModelR5MixerE3zzu = internal unnamed_addr constant [64 x i8] c"\00\01\00\00\01\02\03\02\01\00\00\01\02\03\04\05\04\03\02\01\00\00\01\02\03\04\05\06\07\06\05\04\03\02\01\00\01\02\03\04\05\06\07\07\06\05\04\03\02\03\04\05\06\07\07\06\05\04\05\06\07\07\06\07", align 16
@_ZZ9jpegModelR5MixerE3zzv = internal unnamed_addr constant [64 x i8] c"\00\00\01\02\01\00\00\01\02\03\04\03\02\01\00\00\01\02\03\04\05\06\05\04\03\02\01\00\00\01\02\03\04\05\06\07\07\06\05\04\03\02\01\02\03\04\05\06\07\07\06\05\04\03\04\05\06\07\07\06\05\06\07\07", align 16
@.str.12 = private unnamed_addr constant [12 x i8] c"JPEG %dx%d \00", align 1
@_ZZ9jpegModelR5MixerE2we = internal unnamed_addr constant [8 x i32] [i32 181, i32 282, i32 353, i32 456, i32 568, i32 671, i32 742, i32 767], align 16
@_ZZ9jpegModelR5MixerE5sumu2 = internal unnamed_addr global [8 x i32] zeroinitializer, align 16
@_ZZ9jpegModelR5MixerE5sumv2 = internal unnamed_addr global [8 x i32] zeroinitializer, align 16
@_ZZ9jpegModelR5MixerE5sumu3 = internal unnamed_addr global [8 x i32] zeroinitializer, align 16
@_ZZ9jpegModelR5MixerE5sumv3 = internal unnamed_addr global [8 x i32] zeroinitializer, align 16
@_ZZ9jpegModelR5MixerE2kx = internal global [32 x i32] zeroinitializer, align 16
@_ZZ9jpegModelR5MixerE1t = internal global %class.BH zeroinitializer, align 8
@_ZGVZ9jpegModelR5MixerE1t = internal global i64 0, align 8
@_ZZ9jpegModelR5MixerE3cxt = internal global %class.Array zeroinitializer, align 8
@_ZGVZ9jpegModelR5MixerE3cxt = internal global i64 0, align 8
@_ZZ9jpegModelR5MixerE2cp = internal global %class.Array.6 zeroinitializer, align 8
@_ZGVZ9jpegModelR5MixerE2cp = internal global i64 0, align 8
@_ZZ9jpegModelR5MixerE2sm = internal global [28 x %class.StateMap] zeroinitializer, align 16
@_ZGVZ9jpegModelR5MixerE2sm = internal global i64 0, align 8
@_ZZ9jpegModelR5MixerE2m1 = internal global %class.Mixer zeroinitializer, align 8
@_ZGVZ9jpegModelR5MixerE2m1 = internal global i64 0, align 8
@_ZZ9jpegModelR5MixerE2a1 = internal global %class.APM zeroinitializer, align 8
@_ZGVZ9jpegModelR5MixerE2a1 = internal global i64 0, align 8
@_ZZ9jpegModelR5MixerE2a2 = internal global %class.APM zeroinitializer, align 8
@_ZGVZ9jpegModelR5MixerE2a2 = internal global i64 0, align 8
@_ZZ9jpegModelR5MixerE7hbcount = internal unnamed_addr global i32 2, align 4
@_ZZ8wavModelR5MixerE8channels = internal unnamed_addr global i32 0, align 4
@_ZZ8wavModelR5MixerE4bits = internal unnamed_addr global i32 0, align 4
@_ZZ8wavModelR5MixerE5bytes = internal unnamed_addr global i32 0, align 4
@_ZZ8wavModelR5MixerE3eof = internal unnamed_addr global i32 0, align 4
@_ZZ8wavModelR5MixerE1s = internal unnamed_addr global i32 0, align 4
@_ZZ8wavModelR5MixerE1w = internal unnamed_addr global i32 0, align 4
@_ZZ8wavModelR5MixerE1K = internal unnamed_addr global i32 0, align 4
@_ZGVZ8wavModelR5MixerE1K = internal global i64 0, align 8
@_ZZ8wavModelR5MixerE2pr = internal unnamed_addr global [4 x [2 x i32]] zeroinitializer, align 16
@_ZZ8wavModelR5MixerE1n = internal unnamed_addr global [2 x i32] zeroinitializer, align 4
@_ZZ8wavModelR5MixerE7counter = internal unnamed_addr global [2 x i32] zeroinitializer, align 4
@_ZZ8wavModelR5MixerE4scm1 = internal global %class.SmallStationaryContextMap zeroinitializer, align 8
@_ZGVZ8wavModelR5MixerE4scm1 = internal global i64 0, align 8
@_ZZ8wavModelR5MixerE4scm2 = internal global %class.SmallStationaryContextMap zeroinitializer, align 8
@_ZGVZ8wavModelR5MixerE4scm2 = internal global i64 0, align 8
@_ZZ8wavModelR5MixerE4scm3 = internal global %class.SmallStationaryContextMap zeroinitializer, align 8
@_ZGVZ8wavModelR5MixerE4scm3 = internal global i64 0, align 8
@_ZZ8wavModelR5MixerE4scm4 = internal global %class.SmallStationaryContextMap zeroinitializer, align 8
@_ZGVZ8wavModelR5MixerE4scm4 = internal global i64 0, align 8
@_ZZ8wavModelR5MixerE4scm5 = internal global %class.SmallStationaryContextMap zeroinitializer, align 8
@_ZGVZ8wavModelR5MixerE4scm5 = internal global i64 0, align 8
@_ZZ8wavModelR5MixerE4scm6 = internal global %class.SmallStationaryContextMap zeroinitializer, align 8
@_ZGVZ8wavModelR5MixerE4scm6 = internal global i64 0, align 8
@_ZZ8wavModelR5MixerE4scm7 = internal global %class.SmallStationaryContextMap zeroinitializer, align 8
@_ZGVZ8wavModelR5MixerE4scm7 = internal global i64 0, align 8
@_ZZ8wavModelR5MixerE4scm8 = internal global %class.SmallStationaryContextMap zeroinitializer, align 8
@_ZGVZ8wavModelR5MixerE4scm8 = internal global i64 0, align 8
@_ZZ8wavModelR5MixerE2cm = internal global %class.ContextMap zeroinitializer, align 8
@_ZGVZ8wavModelR5MixerE2cm = internal global i64 0, align 8
@_ZL1S = internal unnamed_addr global i32 0, align 4
@_ZL1D = internal unnamed_addr global i1 false, align 4
@_ZL5wmode = internal unnamed_addr global i32 0, align 4
@.str.14 = private unnamed_addr constant [12 x i8] c"WAV %ibits/\00", align 1
@.str.15 = private unnamed_addr constant [6 x i8] c"mono \00", align 1
@.str.16 = private unnamed_addr constant [8 x i8] c"stereo \00", align 1
@_ZZ8exeModelR5MixerE2cm = internal global %class.ContextMap zeroinitializer, align 8
@_ZGVZ8exeModelR5MixerE2cm = internal global i64 0, align 8
@_ZZ13indirectModelR5MixerE2cm = internal global %class.ContextMap zeroinitializer, align 8
@_ZGVZ13indirectModelR5MixerE2cm = internal global i64 0, align 8
@_ZZ13indirectModelR5MixerE2t1 = internal unnamed_addr global [256 x i32] zeroinitializer, align 16
@_ZZ13indirectModelR5MixerE2t2 = internal unnamed_addr global [65536 x i16] zeroinitializer, align 16
@_ZZ8dmcModelR5MixerE3top = internal unnamed_addr global i32 0, align 4
@_ZZ8dmcModelR5MixerE4curr = internal unnamed_addr global i32 0, align 4
@_ZZ8dmcModelR5MixerE1t = internal global %class.Array.9 zeroinitializer, align 8
@_ZGVZ8dmcModelR5MixerE1t = internal global i64 0, align 8
@_ZZ8dmcModelR5MixerE2sm = internal global %class.StateMap zeroinitializer, align 8
@_ZGVZ8dmcModelR5MixerE2sm = internal global i64 0, align 8
@_ZZ8dmcModelR5MixerE9threshold = internal unnamed_addr global i32 256, align 4
@_ZZ13contextModel2vE2cm = internal global %class.ContextMap zeroinitializer, align 8
@_ZGVZ13contextModel2vE2cm = internal global i64 0, align 8
@_ZZ13contextModel2vE4rcm7 = internal global %class.RunContextMap zeroinitializer, align 8
@_ZGVZ13contextModel2vE4rcm7 = internal global i64 0, align 8
@_ZZ13contextModel2vE4rcm9 = internal global %class.RunContextMap zeroinitializer, align 8
@_ZGVZ13contextModel2vE4rcm9 = internal global i64 0, align 8
@_ZZ13contextModel2vE5rcm10 = internal global %class.RunContextMap zeroinitializer, align 8
@_ZGVZ13contextModel2vE5rcm10 = internal global i64 0, align 8
@_ZZ13contextModel2vE1m = internal global %class.Mixer zeroinitializer, align 8
@_ZGVZ13contextModel2vE1m = internal global i64 0, align 8
@_ZZ13contextModel2vE3cxt.1 = internal unnamed_addr global i32 0, align 16
@_ZZ13contextModel2vE3cxt.2 = internal unnamed_addr global i32 0, align 8
@_ZZ13contextModel2vE3cxt.3 = internal unnamed_addr global i32 0, align 16
@_ZZ13contextModel2vE3cxt.4 = internal unnamed_addr global i32 0, align 16
@_ZZ13contextModel2vE3cxt.5 = internal unnamed_addr global i32 0, align 16
@_ZZ13contextModel2vE3cxt.6 = internal unnamed_addr global i32 0, align 8
@_ZZ13contextModel2vE3cxt.7 = internal unnamed_addr global i32 0, align 16
@_ZZ13contextModel2vE3cxt.8 = internal unnamed_addr global i32 0, align 16
@_ZZ13contextModel2vE3cxt.9 = internal unnamed_addr global i32 0, align 16
@_ZZ13contextModel2vE3cxt.10 = internal unnamed_addr global i32 0, align 8
@_ZZ13contextModel2vE3cxt.11 = internal unnamed_addr global i32 0, align 16
@_ZZ13contextModel2vE3cxt.12 = internal unnamed_addr global i32 0, align 16
@_ZZ13contextModel2vE3cxt.13 = internal unnamed_addr global i32 0, align 16
@_ZZ13contextModel2vE3cxt.14 = internal unnamed_addr global i32 0, align 8
@_ZZ13contextModel2vE8filetype = internal unnamed_addr global i32 0, align 4
@_ZZ13contextModel2vE4size = internal unnamed_addr global i32 0, align 4
@_ZZ13contextModel2vE3col = internal unnamed_addr global i32 0, align 4
@_ZZ13contextModel2vE3col_0 = internal unnamed_addr global i32 0, align 4
@_ZZN9Predictor6updateEvE1a = internal global %class.APM1 zeroinitializer, align 8
@_ZGVZN9Predictor6updateEvE1a = internal global i64 0, align 8
@_ZZN9Predictor6updateEvE2a1 = internal global %class.APM1 zeroinitializer, align 8
@_ZGVZN9Predictor6updateEvE2a1 = internal global i64 0, align 8
@_ZZN9Predictor6updateEvE2a2 = internal global %class.APM1 zeroinitializer, align 8
@_ZGVZN9Predictor6updateEvE2a2 = internal global i64 0, align 8
@_ZZN9Predictor6updateEvE2a3 = internal global %class.APM1 zeroinitializer, align 8
@_ZGVZN9Predictor6updateEvE2a3 = internal global i64 0, align 8
@_ZZN9Predictor6updateEvE2a4 = internal global %class.APM1 zeroinitializer, align 8
@_ZGVZN9Predictor6updateEvE2a4 = internal global i64 0, align 8
@_ZZN9Predictor6updateEvE2a5 = internal global %class.APM1 zeroinitializer, align 8
@_ZGVZN9Predictor6updateEvE2a5 = internal global i64 0, align 8
@_ZZN9Predictor6updateEvE2a6 = internal global %class.APM1 zeroinitializer, align 8
@_ZGVZN9Predictor6updateEvE2a6 = internal global i64 0, align 8
@_ZL2dt = internal unnamed_addr global [1024 x i32] zeroinitializer, align 16
@.str.17 = private unnamed_addr constant [9 x i8] c"%c%c%c%c\00", align 1
@.str.18 = private unnamed_addr constant [22 x i8] c"encode_exe read error\00", align 1
@_ZZ10decode_exeR7EncoderE6offset = internal unnamed_addr global i32 0, align 4
@_ZZ10decode_exeR7EncoderE1q = internal unnamed_addr global i32 0, align 4
@_ZZ10decode_exeR7EncoderE4size = internal unnamed_addr global i32 0, align 4
@_ZZ10decode_exeR7EncoderE5begin = internal unnamed_addr global i32 0, align 4
@_ZZ10decode_exeR7EncoderE1c = internal unnamed_addr global [5 x i8] zeroinitializer, align 4
@.str.19 = private unnamed_addr constant [11 x i8] c"%c%c%c%c%c\00", align 1
@_ZZ6decodeR7EncoderE4type = internal unnamed_addr global i32 0, align 4
@_ZZ6decodeR7EncoderE3len = internal unnamed_addr global i32 0, align 4
@.str.20 = private unnamed_addr constant [17 x i8] c"%12d\08\08\08\08\08\08\08\08\08\08\08\08\00", align 1
@stdout = external local_unnamed_addr global ptr, align 8
@.str.21 = private unnamed_addr constant [3 x i8] c"rb\00", align 1
@.str.22 = private unnamed_addr constant [11 x i8] c"%s %ld -> \00", align 1
@.str.23 = private unnamed_addr constant [8 x i8] c"tmpfile\00", align 1
@.str.24 = private unnamed_addr constant [58 x i8] c"Transform fails at %ld, input=%d decoded=%d, skipping...\0A\00", align 1
@.str.25 = private unnamed_addr constant [8 x i8] c"%-12ld\0A\00", align 1
@.str.26 = private unnamed_addr constant [21 x i8] c"Comparing %s %ld -> \00", align 1
@.str.27 = private unnamed_addr constant [34 x i8] c"differ at %d: file=%d archive=%d\0A\00", align 1
@.str.30 = private unnamed_addr constant [3 x i8] c"wb\00", align 1
@.str.32 = private unnamed_addr constant [22 x i8] c"Extracting %s %ld -> \00", align 1
@.str.34 = private unnamed_addr constant [20 x i8] c"Skipping %s %ld -> \00", align 1
@_ZZ7getlineP8_IO_FILEE1s = internal global %class.String zeroinitializer, align 8
@_ZGVZ7getlineP8_IO_FILEE1s = internal global i64 0, align 8
@.str.36 = private unnamed_addr constant [1 x i8] zeroinitializer, align 1
@_ZZ7putsizeR6StringS0_PKciE3blk = internal global [24 x i8] zeroinitializer, align 16
@.str.37 = private unnamed_addr constant [5 x i8] c"%ld\09\00", align 1
@.str.39 = private unnamed_addr constant [39 x i8] c"Valid options are -0 through -9 or -d\0A\00", align 1
@.str.40 = private unnamed_addr constant [645 x i8] c"paq8p archiver (C) 2008, Matt Mahoney et al.\0AFree under GPL, http://www.gnu.org/licenses/gpl.txt\0A\0ATo compress:\0A  paq8p -level file               (compresses to file.paq8p)\0A  paq8p -level archive files...   (creates archive.paq8p)\0A  paq8p file                      (level -%d, pause when done)\0Alevel: -0 = store, -1 -2 -3 = faster (uses 35, 48, 59 MB)\0A-4 -5 -6 -7 -8 = smaller (uses 133, 233, 435, 837, 1643 MB)\0A\0ATo extract or compare:\0A  paq8p -d dir1/archive.paq8p      (extract to dir1)\0A  paq8p -d dir1/archive.paq8p dir2 (extract to dir2)\0A  paq8p archive.paq8p              (extract, pause when done)\0A\0ATo view contents: more < archive.paq8p\0A\0A\00", align 1
@.str.42 = private unnamed_addr constant [28 x i8] c"%s: not found, skipping...\0A\00", align 1
@.str.43 = private unnamed_addr constant [21 x i8] c"Nothing to compress\0A\00", align 1
@.str.44 = private unnamed_addr constant [4 x i8] c"wb+\00", align 1
@.str.45 = private unnamed_addr constant [15 x i8] c"paq8p -%d\0D\0A%s\1A\00", align 1
@.str.46 = private unnamed_addr constant [37 x i8] c"Creating archive with %d file(s)...\0A\00", align 1
@.str.47 = private unnamed_addr constant [4 x i8] c"rb+\00", align 1
@.str.48 = private unnamed_addr constant [8 x i8] c"paq8p -\00", align 1
@.str.49 = private unnamed_addr constant [19 x i8] c"%s: not a %s file\0A\00", align 1
@.str.50 = private unnamed_addr constant [6 x i8] c"paq8p\00", align 1
@.str.51 = private unnamed_addr constant [40 x i8] c"Extracting %d file(s) from archive -%d\0A\00", align 1
@.str.52 = private unnamed_addr constant [29 x i8] c"%s: header corrupted at %ld\0A\00", align 1
@.str.53 = private unnamed_addr constant [12 x i8] c"%ld -> %ld\0A\00", align 1
@.str.57 = private unnamed_addr constant [14 x i8] c"fork() failed\00", align 1
@.str.58 = private unnamed_addr constant [3 x i8] c"-d\00", align 1
@.str.59 = private unnamed_addr constant [14 x i8] c"Out of memory\00", align 1
@_ZZN2BHILi4EEixEjE3tmp = linkonce_odr dso_local local_unnamed_addr global [4 x i8] zeroinitializer, comdat, align 1
@stdin = external local_unnamed_addr global ptr, align 8
@_ZZN2BHILi9EEixEjE3tmp = linkonce_odr dso_local local_unnamed_addr global [9 x i8] zeroinitializer, comdat, align 1
@llvm.global_ctors = appending global [1 x { i32, ptr, ptr }] [{ i32, ptr, ptr } { i32 65535, ptr @_GLOBAL__sub_I_paq8p.cpp, ptr null }]
@str = private unnamed_addr constant [14 x i8] c"not extracted\00", align 1
@str.60 = private unnamed_addr constant [13 x i8] c"done        \00", align 1
@str.61 = private unnamed_addr constant [13 x i8] c"identical   \00", align 1
@str.62 = private unnamed_addr constant [15 x i8] c"file is longer\00", align 1
@str.63 = private unnamed_addr constant [49 x i8] c"\0AClose this window or press ENTER to continue...\00", align 1

@_ZN4IlogC1Ev = dso_local unnamed_addr alias void (ptr), ptr @_ZN4IlogC2Ev
@_ZN7StretchC1Ev = dso_local unnamed_addr alias void (ptr), ptr @_ZN7StretchC2Ev
@_ZN5MixerD1Ev = dso_local unnamed_addr alias void (ptr), ptr @_ZN5MixerD2Ev
@_ZN5MixerC1Eiiii = dso_local unnamed_addr alias void (ptr, i32, i32, i32, i32), ptr @_ZN5MixerC2Eiiii
@_ZN4APM1C1Ei = dso_local unnamed_addr alias void (ptr, i32), ptr @_ZN4APM1C2Ei
@_ZN8StateMapC1Ei = dso_local unnamed_addr alias void (ptr, i32), ptr @_ZN8StateMapC2Ei
@_ZN3APMC1Ei = dso_local unnamed_addr alias void (ptr, i32), ptr @_ZN3APMC2Ei
@_ZN10ContextMapC1Eii = dso_local unnamed_addr alias void (ptr, i32, i32), ptr @_ZN10ContextMapC2Eii
@_ZN10ContextMapD1Ev = dso_local unnamed_addr alias void (ptr), ptr @_ZN10ContextMapD2Ev
@_ZN9PredictorC1Ev = dso_local unnamed_addr alias void (ptr), ptr @_ZN9PredictorC2Ev
@_ZN7EncoderC1E4ModeP8_IO_FILE = dso_local unnamed_addr alias void (ptr, i32, ptr), ptr @_ZN7EncoderC2E4ModeP8_IO_FILE

; Function Attrs: mustprogress noreturn uwtable
define dso_local void @_Z4quitPKc(ptr noundef %message) local_unnamed_addr #0 {
entry:
  %exception = tail call ptr @__cxa_allocate_exception(i64 8) #39
  store ptr %message, ptr %exception, align 16, !tbaa !5
  tail call void @__cxa_throw(ptr nonnull %exception, ptr nonnull @_ZTIPKc, ptr null) #40
  unreachable
}

declare ptr @__cxa_allocate_exception(i64) local_unnamed_addr

declare void @__cxa_throw(ptr, ptr, ptr) local_unnamed_addr

; Function Attrs: mustprogress nofree norecurse nosync nounwind willreturn memory(read, inaccessiblemem: none) uwtable
define dso_local noundef i32 @_Z6equalsPKcS0_(ptr nocapture noundef readonly %a, ptr nocapture noundef readonly %b) local_unnamed_addr #1 {
entry:
  br label %while.cond

while.cond:                                       ; preds = %while.body, %entry
  %a.addr.0 = phi ptr [ %a, %entry ], [ %incdec.ptr, %while.body ]
  %b.addr.0 = phi ptr [ %b, %entry ], [ %incdec.ptr13, %while.body ]
  %0 = load i8, ptr %a.addr.0, align 1, !tbaa !9
  %tobool.not = icmp eq i8 %0, 0
  %.pre = load i8, ptr %b.addr.0, align 1, !tbaa !9
  br i1 %tobool.not, label %while.end, label %land.rhs

land.rhs:                                         ; preds = %while.cond
  %tobool1.not = icmp eq i8 %.pre, 0
  br i1 %tobool1.not, label %while.end, label %while.body

while.body:                                       ; preds = %land.rhs
  %conv = sext i8 %0 to i32
  %1 = add i8 %0, -65
  %or.cond = icmp ult i8 %1, 26
  %add = add nuw nsw i32 %conv, 32
  %spec.select = select i1 %or.cond, i32 %add, i32 %conv
  %conv3 = sext i8 %.pre to i32
  %2 = add i8 %.pre, -65
  %or.cond19 = icmp ult i8 %2, 26
  %add8 = add nuw nsw i32 %conv3, 32
  %c2.0 = select i1 %or.cond19, i32 %add8, i32 %conv3
  %cmp10.not.not = icmp eq i32 %spec.select, %c2.0
  %incdec.ptr = getelementptr inbounds i8, ptr %a.addr.0, i64 1
  %incdec.ptr13 = getelementptr inbounds i8, ptr %b.addr.0, i64 1
  br i1 %cmp10.not.not, label %while.cond, label %return

while.end:                                        ; preds = %land.rhs, %while.cond
  %3 = phi i8 [ %.pre, %while.cond ], [ 0, %land.rhs ]
  %cmp17 = icmp eq i8 %0, %3
  %conv18 = zext i1 %cmp17 to i32
  br label %return

return:                                           ; preds = %while.body, %while.end
  %retval.2 = phi i32 [ %conv18, %while.end ], [ 0, %while.body ]
  ret i32 %retval.2
}

; Function Attrs: mustprogress nocallback nofree nosync nounwind willreturn memory(argmem: readwrite)
declare void @llvm.lifetime.start.p0(i64 immarg, ptr nocapture) #2

; Function Attrs: mustprogress nocallback nofree nosync nounwind willreturn memory(argmem: readwrite)
declare void @llvm.lifetime.end.p0(i64 immarg, ptr nocapture) #2

; Function Attrs: inlinehint nounwind uwtable
define linkonce_odr dso_local void @_ZN6RandomD2Ev(ptr noundef nonnull align 8 dereferenceable(28) %this) unnamed_addr #3 comdat align 2 {
entry:
  %0 = load i32, ptr %this, align 8, !tbaa !10
  %1 = load i32, ptr @programChecker, align 8, !tbaa !13
  %2 = shl i32 %0, 2
  %add.i.i = sub i32 %1, %2
  store i32 %add.i.i, ptr @programChecker, align 8, !tbaa !13
  %3 = load i32, ptr getelementptr inbounds (%class.ProgramChecker, ptr @programChecker, i64 0, i32 1), align 4, !tbaa !16
  %cmp.i.i = icmp sgt i32 %add.i.i, %3
  br i1 %cmp.i.i, label %if.then.i.i, label %_ZN5ArrayIjLi0EED2Ev.exit

if.then.i.i:                                      ; preds = %entry
  store i32 %add.i.i, ptr getelementptr inbounds (%class.ProgramChecker, ptr @programChecker, i64 0, i32 1), align 4, !tbaa !16
  br label %_ZN5ArrayIjLi0EED2Ev.exit

_ZN5ArrayIjLi0EED2Ev.exit:                        ; preds = %entry, %if.then.i.i
  %ptr.i = getelementptr inbounds %class.Array, ptr %this, i64 0, i32 2
  %4 = load ptr, ptr %ptr.i, align 8, !tbaa !17
  tail call void @free(ptr noundef %4) #39
  ret void
}

; Function Attrs: nofree nounwind
declare i32 @__cxa_atexit(ptr, ptr, ptr) local_unnamed_addr #4

; Function Attrs: uwtable
define linkonce_odr dso_local void @_ZN3BufC2Ei(ptr noundef nonnull align 8 dereferenceable(24) %this, i32 noundef %i) unnamed_addr #5 comdat align 2 {
entry:
  %reserved.i.i = getelementptr inbounds %class.Array.0, ptr %this, i64 0, i32 1
  store i32 %i, ptr %reserved.i.i, align 4, !tbaa !18
  store i32 %i, ptr %this, align 8, !tbaa !20
  %cmp.i.i = icmp slt i32 %i, 1
  br i1 %cmp.i.i, label %if.then.i.i, label %if.end.i.i

if.then.i.i:                                      ; preds = %entry
  %ptr.i.i = getelementptr inbounds %class.Array.0, ptr %this, i64 0, i32 2
  tail call void @llvm.memset.p0.i64(ptr noundef nonnull align 8 dereferenceable(16) %ptr.i.i, i8 0, i64 16, i1 false)
  br label %_ZN5ArrayIhLi0EEC2Ei.exit

if.end.i.i:                                       ; preds = %entry
  %conv.i.i = zext i32 %i to i64
  %0 = load i32, ptr @programChecker, align 8, !tbaa !13
  %add.i.i.i = add nsw i32 %0, %i
  store i32 %add.i.i.i, ptr @programChecker, align 8, !tbaa !13
  %1 = load i32, ptr getelementptr inbounds (%class.ProgramChecker, ptr @programChecker, i64 0, i32 1), align 4, !tbaa !16
  %cmp.i.i.i = icmp sgt i32 %add.i.i.i, %1
  br i1 %cmp.i.i.i, label %if.then.i.i.i, label %_ZN14ProgramChecker5allocEi.exit.i.i

if.then.i.i.i:                                    ; preds = %if.end.i.i
  store i32 %add.i.i.i, ptr getelementptr inbounds (%class.ProgramChecker, ptr @programChecker, i64 0, i32 1), align 4, !tbaa !16
  br label %_ZN14ProgramChecker5allocEi.exit.i.i

_ZN14ProgramChecker5allocEi.exit.i.i:             ; preds = %if.then.i.i.i, %if.end.i.i
  %call.i.i = tail call noalias ptr @calloc(i64 noundef %conv.i.i, i64 noundef 1) #41
  %ptr5.i.i = getelementptr inbounds %class.Array.0, ptr %this, i64 0, i32 2
  store ptr %call.i.i, ptr %ptr5.i.i, align 8, !tbaa !21
  %tobool.not.i.i = icmp eq ptr %call.i.i, null
  br i1 %tobool.not.i.i, label %if.then7.i.i, label %if.end8.i.i

if.then7.i.i:                                     ; preds = %_ZN14ProgramChecker5allocEi.exit.i.i
  %exception.i.i.i = tail call ptr @__cxa_allocate_exception(i64 8) #39
  store ptr @.str.59, ptr %exception.i.i.i, align 16, !tbaa !5
  tail call void @__cxa_throw(ptr nonnull %exception.i.i.i, ptr nonnull @_ZTIPKc, ptr null) #40
  unreachable

if.end8.i.i:                                      ; preds = %_ZN14ProgramChecker5allocEi.exit.i.i
  %data10.i.i = getelementptr inbounds %class.Array.0, ptr %this, i64 0, i32 3
  store ptr %call.i.i, ptr %data10.i.i, align 8, !tbaa !22
  br label %_ZN5ArrayIhLi0EEC2Ei.exit

_ZN5ArrayIhLi0EEC2Ei.exit:                        ; preds = %if.then.i.i, %if.end8.i.i
  ret void
}

; Function Attrs: inlinehint nounwind uwtable
define linkonce_odr dso_local void @_ZN3BufD2Ev(ptr noundef nonnull align 8 dereferenceable(24) %this) unnamed_addr #3 comdat align 2 {
entry:
  %0 = load i32, ptr %this, align 8, !tbaa !20
  %1 = load i32, ptr @programChecker, align 8, !tbaa !13
  %add.i.i = sub i32 %1, %0
  store i32 %add.i.i, ptr @programChecker, align 8, !tbaa !13
  %2 = load i32, ptr getelementptr inbounds (%class.ProgramChecker, ptr @programChecker, i64 0, i32 1), align 4, !tbaa !16
  %cmp.i.i = icmp sgt i32 %add.i.i, %2
  br i1 %cmp.i.i, label %if.then.i.i, label %_ZN5ArrayIhLi0EED2Ev.exit

if.then.i.i:                                      ; preds = %entry
  store i32 %add.i.i, ptr getelementptr inbounds (%class.ProgramChecker, ptr @programChecker, i64 0, i32 1), align 4, !tbaa !16
  br label %_ZN5ArrayIhLi0EED2Ev.exit

_ZN5ArrayIhLi0EED2Ev.exit:                        ; preds = %entry, %if.then.i.i
  %ptr.i = getelementptr inbounds %class.Array.0, ptr %this, i64 0, i32 2
  %3 = load ptr, ptr %ptr.i, align 8, !tbaa !21
  tail call void @free(ptr noundef %3) #39
  ret void
}

; Function Attrs: inlinehint nounwind uwtable
define linkonce_odr dso_local void @_ZN4IlogD2Ev(ptr noundef nonnull align 8 dereferenceable(24) %this) unnamed_addr #3 comdat align 2 {
entry:
  %0 = load i32, ptr %this, align 8, !tbaa !20
  %1 = load i32, ptr @programChecker, align 8, !tbaa !13
  %add.i.i = sub i32 %1, %0
  store i32 %add.i.i, ptr @programChecker, align 8, !tbaa !13
  %2 = load i32, ptr getelementptr inbounds (%class.ProgramChecker, ptr @programChecker, i64 0, i32 1), align 4, !tbaa !16
  %cmp.i.i = icmp sgt i32 %add.i.i, %2
  br i1 %cmp.i.i, label %if.then.i.i, label %_ZN5ArrayIhLi0EED2Ev.exit

if.then.i.i:                                      ; preds = %entry
  store i32 %add.i.i, ptr getelementptr inbounds (%class.ProgramChecker, ptr @programChecker, i64 0, i32 1), align 4, !tbaa !16
  br label %_ZN5ArrayIhLi0EED2Ev.exit

_ZN5ArrayIhLi0EED2Ev.exit:                        ; preds = %entry, %if.then.i.i
  %ptr.i = getelementptr inbounds %class.Array.0, ptr %this, i64 0, i32 2
  %3 = load ptr, ptr %ptr.i, align 8, !tbaa !21
  tail call void @free(ptr noundef %3) #39
  ret void
}

; Function Attrs: uwtable
define dso_local void @_ZN4IlogC2Ev(ptr nocapture noundef nonnull align 8 dereferenceable(24) %this) unnamed_addr #5 align 2 personality ptr @__gxx_personality_v0 {
entry:
  %reserved.i.i = getelementptr inbounds %class.Array.0, ptr %this, i64 0, i32 1
  store i32 65536, ptr %reserved.i.i, align 4, !tbaa !18
  store i32 65536, ptr %this, align 8, !tbaa !20
  %0 = load i32, ptr @programChecker, align 8, !tbaa !13
  %add.i.i.i = add nsw i32 %0, 65536
  store i32 %add.i.i.i, ptr @programChecker, align 8, !tbaa !13
  %1 = load i32, ptr getelementptr inbounds (%class.ProgramChecker, ptr @programChecker, i64 0, i32 1), align 4, !tbaa !16
  %cmp.i.i.i = icmp sgt i32 %add.i.i.i, %1
  br i1 %cmp.i.i.i, label %if.then.i.i.i, label %_ZN14ProgramChecker5allocEi.exit.i.i

if.then.i.i.i:                                    ; preds = %entry
  store i32 %add.i.i.i, ptr getelementptr inbounds (%class.ProgramChecker, ptr @programChecker, i64 0, i32 1), align 4, !tbaa !16
  br label %_ZN14ProgramChecker5allocEi.exit.i.i

_ZN14ProgramChecker5allocEi.exit.i.i:             ; preds = %if.then.i.i.i, %entry
  %call.i.i = tail call noalias dereferenceable_or_null(65536) ptr @calloc(i64 noundef 65536, i64 noundef 1) #41
  %ptr5.i.i = getelementptr inbounds %class.Array.0, ptr %this, i64 0, i32 2
  store ptr %call.i.i, ptr %ptr5.i.i, align 8, !tbaa !21
  %tobool.not.i.i = icmp eq ptr %call.i.i, null
  br i1 %tobool.not.i.i, label %if.then7.i.i, label %_ZN5ArrayIhLi0EEC2Ei.exit

if.then7.i.i:                                     ; preds = %_ZN14ProgramChecker5allocEi.exit.i.i
  %exception.i.i.i = tail call ptr @__cxa_allocate_exception(i64 8) #39
  store ptr @.str.59, ptr %exception.i.i.i, align 16, !tbaa !5
  tail call void @__cxa_throw(ptr nonnull %exception.i.i.i, ptr nonnull @_ZTIPKc, ptr null) #40
  unreachable

_ZN5ArrayIhLi0EEC2Ei.exit:                        ; preds = %_ZN14ProgramChecker5allocEi.exit.i.i
  %data10.i.i = getelementptr inbounds %class.Array.0, ptr %this, i64 0, i32 3
  store ptr %call.i.i, ptr %data10.i.i, align 8, !tbaa !22
  br label %for.body

for.cond.cleanup:                                 ; preds = %for.body
  ret void

for.body:                                         ; preds = %for.body, %_ZN5ArrayIhLi0EEC2Ei.exit
  %indvars.iv = phi i64 [ 2, %_ZN5ArrayIhLi0EEC2Ei.exit ], [ %indvars.iv.next.1, %for.body ]
  %x.08 = phi i32 [ 14155776, %_ZN5ArrayIhLi0EEC2Ei.exit ], [ %add.1, %for.body ]
  %indvars.iv.tr = trunc i64 %indvars.iv to i32
  %2 = shl i32 %indvars.iv.tr, 1
  %3 = add nsw i32 %2, -1
  %div.udiv = udiv i32 774541002, %3
  %add = add i32 %div.udiv, %x.08
  %shr = lshr i32 %add, 24
  %conv = trunc i32 %shr to i8
  %4 = load ptr, ptr %data10.i.i, align 8, !tbaa !22
  %arrayidx.i = getelementptr inbounds i8, ptr %4, i64 %indvars.iv
  store i8 %conv, ptr %arrayidx.i, align 1, !tbaa !9
  %indvars.iv.next = or i64 %indvars.iv, 1
  %indvars.iv.tr.1 = trunc i64 %indvars.iv.next to i32
  %5 = shl i32 %indvars.iv.tr.1, 1
  %6 = add nsw i32 %5, -1
  %div.udiv.1 = udiv i32 774541002, %6
  %add.1 = add i32 %div.udiv.1, %add
  %shr.1 = lshr i32 %add.1, 24
  %conv.1 = trunc i32 %shr.1 to i8
  %7 = load ptr, ptr %data10.i.i, align 8, !tbaa !22
  %arrayidx.i.1 = getelementptr inbounds i8, ptr %7, i64 %indvars.iv.next
  store i8 %conv.1, ptr %arrayidx.i.1, align 1, !tbaa !9
  %indvars.iv.next.1 = add nuw nsw i64 %indvars.iv, 2
  %exitcond.not.1 = icmp eq i64 %indvars.iv.next.1, 65536
  br i1 %exitcond.not.1, label %for.cond.cleanup, label %for.body, !llvm.loop !23
}

; Function Attrs: uwtable
define linkonce_odr dso_local void @_ZN5ArrayIhLi0EEC2Ei(ptr noundef nonnull align 8 dereferenceable(24) %this, i32 noundef %i) unnamed_addr #5 comdat align 2 {
entry:
  %reserved.i = getelementptr inbounds %class.Array.0, ptr %this, i64 0, i32 1
  store i32 %i, ptr %reserved.i, align 4, !tbaa !18
  store i32 %i, ptr %this, align 8, !tbaa !20
  %cmp.i = icmp slt i32 %i, 1
  br i1 %cmp.i, label %if.then.i, label %if.end.i

if.then.i:                                        ; preds = %entry
  %ptr.i = getelementptr inbounds %class.Array.0, ptr %this, i64 0, i32 2
  tail call void @llvm.memset.p0.i64(ptr noundef nonnull align 8 dereferenceable(16) %ptr.i, i8 0, i64 16, i1 false)
  br label %_ZN5ArrayIhLi0EE6createEi.exit

if.end.i:                                         ; preds = %entry
  %conv.i = zext i32 %i to i64
  %0 = load i32, ptr @programChecker, align 8, !tbaa !13
  %add.i.i = add nsw i32 %0, %i
  store i32 %add.i.i, ptr @programChecker, align 8, !tbaa !13
  %1 = load i32, ptr getelementptr inbounds (%class.ProgramChecker, ptr @programChecker, i64 0, i32 1), align 4, !tbaa !16
  %cmp.i.i = icmp sgt i32 %add.i.i, %1
  br i1 %cmp.i.i, label %if.then.i.i, label %_ZN14ProgramChecker5allocEi.exit.i

if.then.i.i:                                      ; preds = %if.end.i
  store i32 %add.i.i, ptr getelementptr inbounds (%class.ProgramChecker, ptr @programChecker, i64 0, i32 1), align 4, !tbaa !16
  br label %_ZN14ProgramChecker5allocEi.exit.i

_ZN14ProgramChecker5allocEi.exit.i:               ; preds = %if.then.i.i, %if.end.i
  %call.i = tail call noalias ptr @calloc(i64 noundef %conv.i, i64 noundef 1) #41
  %ptr5.i = getelementptr inbounds %class.Array.0, ptr %this, i64 0, i32 2
  store ptr %call.i, ptr %ptr5.i, align 8, !tbaa !21
  %tobool.not.i = icmp eq ptr %call.i, null
  br i1 %tobool.not.i, label %if.then7.i, label %if.end8.i

if.then7.i:                                       ; preds = %_ZN14ProgramChecker5allocEi.exit.i
  %exception.i.i = tail call ptr @__cxa_allocate_exception(i64 8) #39
  store ptr @.str.59, ptr %exception.i.i, align 16, !tbaa !5
  tail call void @__cxa_throw(ptr nonnull %exception.i.i, ptr nonnull @_ZTIPKc, ptr null) #40
  unreachable

if.end8.i:                                        ; preds = %_ZN14ProgramChecker5allocEi.exit.i
  %data10.i = getelementptr inbounds %class.Array.0, ptr %this, i64 0, i32 3
  store ptr %call.i, ptr %data10.i, align 8, !tbaa !22
  br label %_ZN5ArrayIhLi0EE6createEi.exit

_ZN5ArrayIhLi0EE6createEi.exit:                   ; preds = %if.then.i, %if.end8.i
  ret void
}

declare i32 @__gxx_personality_v0(...)

; Function Attrs: nounwind uwtable
define linkonce_odr dso_local void @_ZN5ArrayIhLi0EED2Ev(ptr noundef nonnull align 8 dereferenceable(24) %this) unnamed_addr #6 comdat align 2 {
entry:
  %0 = load i32, ptr %this, align 8, !tbaa !20
  %1 = load i32, ptr @programChecker, align 8, !tbaa !13
  %add.i = sub i32 %1, %0
  store i32 %add.i, ptr @programChecker, align 8, !tbaa !13
  %2 = load i32, ptr getelementptr inbounds (%class.ProgramChecker, ptr @programChecker, i64 0, i32 1), align 4, !tbaa !16
  %cmp.i = icmp sgt i32 %add.i, %2
  br i1 %cmp.i, label %if.then.i, label %_ZN14ProgramChecker5allocEi.exit

if.then.i:                                        ; preds = %entry
  store i32 %add.i, ptr getelementptr inbounds (%class.ProgramChecker, ptr @programChecker, i64 0, i32 1), align 4, !tbaa !16
  br label %_ZN14ProgramChecker5allocEi.exit

_ZN14ProgramChecker5allocEi.exit:                 ; preds = %entry, %if.then.i
  %ptr = getelementptr inbounds %class.Array.0, ptr %this, i64 0, i32 2
  %3 = load ptr, ptr %ptr, align 8, !tbaa !21
  tail call void @free(ptr noundef %3) #39
  ret void
}

; Function Attrs: mustprogress nofree norecurse nosync nounwind willreturn memory(none) uwtable
define dso_local noundef i32 @_Z6squashi(i32 noundef %d) local_unnamed_addr #7 {
entry:
  %cmp = icmp sgt i32 %d, 2047
  br i1 %cmp, label %return, label %if.end

if.end:                                           ; preds = %entry
  %cmp1 = icmp slt i32 %d, -2047
  br i1 %cmp1, label %return, label %if.end3

if.end3:                                          ; preds = %if.end
  %and = and i32 %d, 127
  %shr = ashr i32 %d, 7
  %add = add nsw i32 %shr, 16
  %idxprom = zext i32 %add to i64
  %arrayidx = getelementptr inbounds [33 x i32], ptr @_ZZ6squashiE1t, i64 0, i64 %idxprom
  %0 = load i32, ptr %arrayidx, align 4, !tbaa !25
  %sub = sub nuw nsw i32 128, %and
  %mul = mul nsw i32 %0, %sub
  %add4 = add nsw i32 %shr, 17
  %idxprom5 = zext i32 %add4 to i64
  %arrayidx6 = getelementptr inbounds [33 x i32], ptr @_ZZ6squashiE1t, i64 0, i64 %idxprom5
  %1 = load i32, ptr %arrayidx6, align 4, !tbaa !25
  %mul7 = mul nsw i32 %1, %and
  %add8 = add i32 %mul, 64
  %add9 = add i32 %add8, %mul7
  %shr10 = ashr i32 %add9, 7
  br label %return

return:                                           ; preds = %if.end, %entry, %if.end3
  %retval.0 = phi i32 [ %shr10, %if.end3 ], [ 4095, %entry ], [ 0, %if.end ]
  ret i32 %retval.0
}

; Function Attrs: inlinehint nounwind uwtable
define linkonce_odr dso_local void @_ZN7StretchD2Ev(ptr noundef nonnull align 8 dereferenceable(24) %this) unnamed_addr #3 comdat align 2 {
entry:
  %0 = load i32, ptr %this, align 8, !tbaa !26
  %1 = load i32, ptr @programChecker, align 8, !tbaa !13
  %2 = shl i32 %0, 1
  %add.i.i = sub i32 %1, %2
  store i32 %add.i.i, ptr @programChecker, align 8, !tbaa !13
  %3 = load i32, ptr getelementptr inbounds (%class.ProgramChecker, ptr @programChecker, i64 0, i32 1), align 4, !tbaa !16
  %cmp.i.i = icmp sgt i32 %add.i.i, %3
  br i1 %cmp.i.i, label %if.then.i.i, label %_ZN5ArrayIsLi0EED2Ev.exit

if.then.i.i:                                      ; preds = %entry
  store i32 %add.i.i, ptr getelementptr inbounds (%class.ProgramChecker, ptr @programChecker, i64 0, i32 1), align 4, !tbaa !16
  br label %_ZN5ArrayIsLi0EED2Ev.exit

_ZN5ArrayIsLi0EED2Ev.exit:                        ; preds = %entry, %if.then.i.i
  %ptr.i = getelementptr inbounds %class.Array.1, ptr %this, i64 0, i32 2
  %4 = load ptr, ptr %ptr.i, align 8, !tbaa !28
  tail call void @free(ptr noundef %4) #39
  ret void
}

; Function Attrs: uwtable
define dso_local void @_ZN7StretchC2Ev(ptr nocapture noundef nonnull writeonly align 8 dereferenceable(24) %this) unnamed_addr #5 align 2 personality ptr @__gxx_personality_v0 {
entry:
  %reserved.i.i = getelementptr inbounds %class.Array.1, ptr %this, i64 0, i32 1
  store i32 4096, ptr %reserved.i.i, align 4, !tbaa !29
  store i32 4096, ptr %this, align 8, !tbaa !26
  %0 = load i32, ptr @programChecker, align 8, !tbaa !13
  %add.i.i.i = add nsw i32 %0, 8192
  store i32 %add.i.i.i, ptr @programChecker, align 8, !tbaa !13
  %1 = load i32, ptr getelementptr inbounds (%class.ProgramChecker, ptr @programChecker, i64 0, i32 1), align 4, !tbaa !16
  %cmp.i.i.i = icmp sgt i32 %add.i.i.i, %1
  br i1 %cmp.i.i.i, label %if.then.i.i.i, label %_ZN14ProgramChecker5allocEi.exit.i.i

if.then.i.i.i:                                    ; preds = %entry
  store i32 %add.i.i.i, ptr getelementptr inbounds (%class.ProgramChecker, ptr @programChecker, i64 0, i32 1), align 4, !tbaa !16
  br label %_ZN14ProgramChecker5allocEi.exit.i.i

_ZN14ProgramChecker5allocEi.exit.i.i:             ; preds = %if.then.i.i.i, %entry
  %call.i.i = tail call noalias dereferenceable_or_null(8192) ptr @calloc(i64 noundef 8192, i64 noundef 1) #41
  %ptr5.i.i = getelementptr inbounds %class.Array.1, ptr %this, i64 0, i32 2
  store ptr %call.i.i, ptr %ptr5.i.i, align 8, !tbaa !28
  %tobool.not.i.i = icmp eq ptr %call.i.i, null
  br i1 %tobool.not.i.i, label %if.then7.i.i, label %_ZN5ArrayIsLi0EEC2Ei.exit

if.then7.i.i:                                     ; preds = %_ZN14ProgramChecker5allocEi.exit.i.i
  %exception.i.i.i = tail call ptr @__cxa_allocate_exception(i64 8) #39
  store ptr @.str.59, ptr %exception.i.i.i, align 16, !tbaa !5
  tail call void @__cxa_throw(ptr nonnull %exception.i.i.i, ptr nonnull @_ZTIPKc, ptr null) #40
  unreachable

_ZN5ArrayIsLi0EEC2Ei.exit:                        ; preds = %_ZN14ProgramChecker5allocEi.exit.i.i
  %data10.i.i = getelementptr inbounds %class.Array.1, ptr %this, i64 0, i32 3
  store ptr %call.i.i, ptr %data10.i.i, align 8, !tbaa !30
  br label %_Z6squashi.exit

for.cond.cleanup:                                 ; preds = %for.cond.cleanup4
  %arrayidx.i = getelementptr inbounds i16, ptr %call.i.i, i64 4095
  store i16 2047, ptr %arrayidx.i, align 2, !tbaa !31
  ret void

_Z6squashi.exit:                                  ; preds = %_ZN5ArrayIsLi0EEC2Ei.exit, %for.cond.cleanup4
  %pi.030 = phi i32 [ 0, %_ZN5ArrayIsLi0EEC2Ei.exit ], [ %add.pre-phi, %for.cond.cleanup4 ]
  %x.029 = phi i32 [ -2047, %_ZN5ArrayIsLi0EEC2Ei.exit ], [ %inc9, %for.cond.cleanup4 ]
  %and.i = and i32 %x.029, 127
  %shr.i = ashr i32 %x.029, 7
  %add.i = add nsw i32 %shr.i, 16
  %idxprom.i = zext i32 %add.i to i64
  %arrayidx.i23 = getelementptr inbounds [33 x i32], ptr @_ZZ6squashiE1t, i64 0, i64 %idxprom.i
  %2 = load i32, ptr %arrayidx.i23, align 4, !tbaa !25
  %sub.i = sub nuw nsw i32 128, %and.i
  %mul.i = mul nsw i32 %2, %sub.i
  %add4.i = add nsw i32 %shr.i, 17
  %idxprom5.i = zext i32 %add4.i to i64
  %arrayidx6.i = getelementptr inbounds [33 x i32], ptr @_ZZ6squashiE1t, i64 0, i64 %idxprom5.i
  %3 = load i32, ptr %arrayidx6.i, align 4, !tbaa !25
  %mul7.i = mul nsw i32 %3, %and.i
  %add8.i = add i32 %mul.i, 64
  %add9.i = add i32 %add8.i, %mul7.i
  %shr10.i = ashr i32 %add9.i, 7
  %cmp3.not27 = icmp sgt i32 %pi.030, %shr10.i
  br i1 %cmp3.not27, label %_Z6squashi.exit.for.cond.cleanup4_crit_edge, label %for.body5.lr.ph

_Z6squashi.exit.for.cond.cleanup4_crit_edge:      ; preds = %_Z6squashi.exit
  %.pre = add nsw i32 %shr10.i, 1
  br label %for.cond.cleanup4

for.body5.lr.ph:                                  ; preds = %_Z6squashi.exit
  %conv = trunc i32 %x.029 to i16
  %4 = sext i32 %pi.030 to i64
  %5 = add nsw i32 %shr10.i, 1
  %wide.trip.count = sext i32 %5 to i64
  %narrow = add nsw i32 %shr10.i, 1
  %narrow35 = sub nsw i32 %narrow, %pi.030
  %6 = sext i32 %narrow35 to i64
  %min.iters.check = icmp ult i32 %narrow35, 16
  br i1 %min.iters.check, label %for.body5.preheader, label %vector.ph

vector.ph:                                        ; preds = %for.body5.lr.ph
  %n.vec = and i64 %6, -16
  %ind.end = add nsw i64 %n.vec, %4
  %broadcast.splatinsert = insertelement <8 x i16> poison, i16 %conv, i64 0
  %broadcast.splat = shufflevector <8 x i16> %broadcast.splatinsert, <8 x i16> poison, <8 x i32> zeroinitializer
  %broadcast.splatinsert33 = insertelement <8 x i16> poison, i16 %conv, i64 0
  %broadcast.splat34 = shufflevector <8 x i16> %broadcast.splatinsert33, <8 x i16> poison, <8 x i32> zeroinitializer
  br label %vector.body

vector.body:                                      ; preds = %vector.body, %vector.ph
  %index = phi i64 [ 0, %vector.ph ], [ %index.next, %vector.body ]
  %offset.idx = add i64 %index, %4
  %7 = getelementptr inbounds i16, ptr %call.i.i, i64 %offset.idx
  store <8 x i16> %broadcast.splat, ptr %7, align 2, !tbaa !31
  %8 = getelementptr inbounds i16, ptr %7, i64 8
  store <8 x i16> %broadcast.splat34, ptr %8, align 2, !tbaa !31
  %index.next = add nuw i64 %index, 16
  %9 = icmp eq i64 %index.next, %n.vec
  br i1 %9, label %middle.block, label %vector.body, !llvm.loop !33

middle.block:                                     ; preds = %vector.body
  %cmp.n = icmp eq i64 %n.vec, %6
  br i1 %cmp.n, label %for.cond.cleanup4, label %for.body5.preheader

for.body5.preheader:                              ; preds = %for.body5.lr.ph, %middle.block
  %indvars.iv.ph = phi i64 [ %4, %for.body5.lr.ph ], [ %ind.end, %middle.block ]
  br label %for.body5

for.cond.cleanup4:                                ; preds = %for.body5, %middle.block, %_Z6squashi.exit.for.cond.cleanup4_crit_edge
  %add.pre-phi = phi i32 [ %.pre, %_Z6squashi.exit.for.cond.cleanup4_crit_edge ], [ %5, %middle.block ], [ %5, %for.body5 ]
  %inc9 = add nsw i32 %x.029, 1
  %exitcond32.not = icmp eq i32 %inc9, 2048
  br i1 %exitcond32.not, label %for.cond.cleanup, label %_Z6squashi.exit, !llvm.loop !36

for.body5:                                        ; preds = %for.body5.preheader, %for.body5
  %indvars.iv = phi i64 [ %indvars.iv.next, %for.body5 ], [ %indvars.iv.ph, %for.body5.preheader ]
  %arrayidx.i26 = getelementptr inbounds i16, ptr %call.i.i, i64 %indvars.iv
  store i16 %conv, ptr %arrayidx.i26, align 2, !tbaa !31
  %indvars.iv.next = add nsw i64 %indvars.iv, 1
  %exitcond.not = icmp eq i64 %indvars.iv.next, %wide.trip.count
  br i1 %exitcond.not, label %for.cond.cleanup4, label %for.body5, !llvm.loop !37
}

; Function Attrs: mustprogress nofree norecurse nosync nounwind willreturn memory(argmem: read) uwtable
define dso_local noundef i32 @_Z11dot_productPsS_i(ptr nocapture noundef readonly %t, ptr nocapture noundef readonly %w, i32 noundef %n) local_unnamed_addr #8 {
entry:
  %add = add nsw i32 %n, 7
  %and = and i32 %add, -8
  %cmp25 = icmp sgt i32 %and, 0
  br i1 %cmp25, label %for.body.preheader, label %for.cond.cleanup

for.body.preheader:                               ; preds = %entry
  %0 = zext i32 %and to i64
  %umax = tail call i64 @llvm.umax.i64(i64 %0, i64 2)
  %1 = add nsw i64 %umax, -1
  %2 = lshr i64 %1, 1
  %3 = add nuw nsw i64 %2, 1
  %min.iters.check = icmp ult i64 %umax, 15
  br i1 %min.iters.check, label %for.body.preheader41, label %vector.ph

vector.ph:                                        ; preds = %for.body.preheader
  %n.vec = and i64 %3, -8
  %ind.end = shl nuw i64 %n.vec, 1
  br label %vector.body

vector.body:                                      ; preds = %vector.body, %vector.ph
  %index = phi i64 [ 0, %vector.ph ], [ %index.next, %vector.body ]
  %vec.phi = phi <4 x i32> [ zeroinitializer, %vector.ph ], [ %25, %vector.body ]
  %vec.phi30 = phi <4 x i32> [ zeroinitializer, %vector.ph ], [ %26, %vector.body ]
  %offset.idx = shl i64 %index, 1
  %4 = or i64 %offset.idx, 8
  %5 = getelementptr inbounds i16, ptr %t, i64 %offset.idx
  %6 = getelementptr inbounds i16, ptr %t, i64 %4
  %wide.vec = load <8 x i16>, ptr %5, align 2, !tbaa !31
  %wide.vec31 = load <8 x i16>, ptr %6, align 2, !tbaa !31
  %strided.vec = shufflevector <8 x i16> %wide.vec, <8 x i16> poison, <4 x i32> <i32 0, i32 2, i32 4, i32 6>
  %strided.vec32 = shufflevector <8 x i16> %wide.vec31, <8 x i16> poison, <4 x i32> <i32 0, i32 2, i32 4, i32 6>
  %strided.vec33 = shufflevector <8 x i16> %wide.vec, <8 x i16> poison, <4 x i32> <i32 1, i32 3, i32 5, i32 7>
  %strided.vec34 = shufflevector <8 x i16> %wide.vec31, <8 x i16> poison, <4 x i32> <i32 1, i32 3, i32 5, i32 7>
  %7 = sext <4 x i16> %strided.vec to <4 x i32>
  %8 = sext <4 x i16> %strided.vec32 to <4 x i32>
  %9 = getelementptr inbounds i16, ptr %w, i64 %offset.idx
  %10 = getelementptr inbounds i16, ptr %w, i64 %4
  %wide.vec35 = load <8 x i16>, ptr %9, align 2, !tbaa !31
  %wide.vec36 = load <8 x i16>, ptr %10, align 2, !tbaa !31
  %strided.vec37 = shufflevector <8 x i16> %wide.vec35, <8 x i16> poison, <4 x i32> <i32 0, i32 2, i32 4, i32 6>
  %strided.vec38 = shufflevector <8 x i16> %wide.vec36, <8 x i16> poison, <4 x i32> <i32 0, i32 2, i32 4, i32 6>
  %strided.vec39 = shufflevector <8 x i16> %wide.vec35, <8 x i16> poison, <4 x i32> <i32 1, i32 3, i32 5, i32 7>
  %strided.vec40 = shufflevector <8 x i16> %wide.vec36, <8 x i16> poison, <4 x i32> <i32 1, i32 3, i32 5, i32 7>
  %11 = sext <4 x i16> %strided.vec37 to <4 x i32>
  %12 = sext <4 x i16> %strided.vec38 to <4 x i32>
  %13 = mul nsw <4 x i32> %11, %7
  %14 = mul nsw <4 x i32> %12, %8
  %15 = sext <4 x i16> %strided.vec33 to <4 x i32>
  %16 = sext <4 x i16> %strided.vec34 to <4 x i32>
  %17 = sext <4 x i16> %strided.vec39 to <4 x i32>
  %18 = sext <4 x i16> %strided.vec40 to <4 x i32>
  %19 = mul nsw <4 x i32> %17, %15
  %20 = mul nsw <4 x i32> %18, %16
  %21 = add nsw <4 x i32> %19, %13
  %22 = add nsw <4 x i32> %20, %14
  %23 = ashr <4 x i32> %21, <i32 8, i32 8, i32 8, i32 8>
  %24 = ashr <4 x i32> %22, <i32 8, i32 8, i32 8, i32 8>
  %25 = add <4 x i32> %23, %vec.phi
  %26 = add <4 x i32> %24, %vec.phi30
  %index.next = add nuw i64 %index, 8
  %27 = icmp eq i64 %index.next, %n.vec
  br i1 %27, label %middle.block, label %vector.body, !llvm.loop !38

middle.block:                                     ; preds = %vector.body
  %bin.rdx = add <4 x i32> %26, %25
  %28 = tail call i32 @llvm.vector.reduce.add.v4i32(<4 x i32> %bin.rdx)
  %cmp.n = icmp eq i64 %3, %n.vec
  br i1 %cmp.n, label %for.cond.cleanup, label %for.body.preheader41

for.body.preheader41:                             ; preds = %for.body.preheader, %middle.block
  %indvars.iv.ph = phi i64 [ 0, %for.body.preheader ], [ %ind.end, %middle.block ]
  %sum.026.ph = phi i32 [ 0, %for.body.preheader ], [ %28, %middle.block ]
  br label %for.body

for.cond.cleanup:                                 ; preds = %for.body, %middle.block, %entry
  %sum.0.lcssa = phi i32 [ 0, %entry ], [ %28, %middle.block ], [ %add14, %for.body ]
  ret i32 %sum.0.lcssa

for.body:                                         ; preds = %for.body.preheader41, %for.body
  %indvars.iv = phi i64 [ %indvars.iv.next, %for.body ], [ %indvars.iv.ph, %for.body.preheader41 ]
  %sum.026 = phi i32 [ %add14, %for.body ], [ %sum.026.ph, %for.body.preheader41 ]
  %arrayidx = getelementptr inbounds i16, ptr %t, i64 %indvars.iv
  %29 = load i16, ptr %arrayidx, align 2, !tbaa !31
  %conv = sext i16 %29 to i32
  %arrayidx2 = getelementptr inbounds i16, ptr %w, i64 %indvars.iv
  %30 = load i16, ptr %arrayidx2, align 2, !tbaa !31
  %conv3 = sext i16 %30 to i32
  %mul = mul nsw i32 %conv3, %conv
  %31 = or i64 %indvars.iv, 1
  %arrayidx6 = getelementptr inbounds i16, ptr %t, i64 %31
  %32 = load i16, ptr %arrayidx6, align 2, !tbaa !31
  %conv7 = sext i16 %32 to i32
  %arrayidx10 = getelementptr inbounds i16, ptr %w, i64 %31
  %33 = load i16, ptr %arrayidx10, align 2, !tbaa !31
  %conv11 = sext i16 %33 to i32
  %mul12 = mul nsw i32 %conv11, %conv7
  %add13 = add nsw i32 %mul12, %mul
  %shr = ashr i32 %add13, 8
  %add14 = add nsw i32 %shr, %sum.026
  %indvars.iv.next = add nuw nsw i64 %indvars.iv, 2
  %cmp = icmp ult i64 %indvars.iv.next, %0
  br i1 %cmp, label %for.body, label %for.cond.cleanup, !llvm.loop !39
}

; Function Attrs: mustprogress nofree nosync nounwind memory(argmem: readwrite) uwtable
define dso_local void @_Z5trainPsS_ii(ptr nocapture noundef readonly %t, ptr nocapture noundef %w, i32 noundef %n, i32 noundef %err) local_unnamed_addr #9 {
entry:
  %add = add nsw i32 %n, 7
  %and = and i32 %add, -8
  %cmp24 = icmp sgt i32 %and, 0
  br i1 %cmp24, label %for.body.preheader, label %for.cond.cleanup

for.body.preheader:                               ; preds = %entry
  %wide.trip.count = zext i32 %and to i64
  %0 = lshr i32 %add, 3
  %1 = zext i32 %0 to i64
  %2 = shl nuw nsw i64 %1, 4
  %scevgep = getelementptr i8, ptr %w, i64 %2
  %scevgep27 = getelementptr i8, ptr %t, i64 %2
  %bound0 = icmp ugt ptr %scevgep27, %w
  %bound1 = icmp ugt ptr %scevgep, %t
  %found.conflict = and i1 %bound0, %bound1
  br i1 %found.conflict, label %for.body, label %vector.ph

vector.ph:                                        ; preds = %for.body.preheader
  %broadcast.splatinsert = insertelement <8 x i32> poison, i32 %err, i64 0
  %broadcast.splat = shufflevector <8 x i32> %broadcast.splatinsert, <8 x i32> poison, <8 x i32> zeroinitializer
  br label %vector.body

vector.body:                                      ; preds = %vector.body, %vector.ph
  %index = phi i64 [ 0, %vector.ph ], [ %index.next, %vector.body ]
  %3 = getelementptr inbounds i16, ptr %w, i64 %index
  %wide.load = load <8 x i16>, ptr %3, align 2, !tbaa !31, !alias.scope !40, !noalias !43
  %4 = sext <8 x i16> %wide.load to <8 x i32>
  %5 = getelementptr inbounds i16, ptr %t, i64 %index
  %wide.load28 = load <8 x i16>, ptr %5, align 2, !tbaa !31, !alias.scope !43
  %6 = sext <8 x i16> %wide.load28 to <8 x i32>
  %7 = mul nsw <8 x i32> %broadcast.splat, %6
  %8 = ashr <8 x i32> %7, <i32 15, i32 15, i32 15, i32 15, i32 15, i32 15, i32 15, i32 15>
  %9 = add nsw <8 x i32> %8, <i32 1, i32 1, i32 1, i32 1, i32 1, i32 1, i32 1, i32 1>
  %10 = ashr <8 x i32> %9, <i32 1, i32 1, i32 1, i32 1, i32 1, i32 1, i32 1, i32 1>
  %11 = add nsw <8 x i32> %10, %4
  %12 = tail call <8 x i32> @llvm.smax.v8i32(<8 x i32> %11, <8 x i32> <i32 -32768, i32 -32768, i32 -32768, i32 -32768, i32 -32768, i32 -32768, i32 -32768, i32 -32768>)
  %13 = tail call <8 x i32> @llvm.smin.v8i32(<8 x i32> %12, <8 x i32> <i32 32767, i32 32767, i32 32767, i32 32767, i32 32767, i32 32767, i32 32767, i32 32767>)
  %14 = trunc <8 x i32> %13 to <8 x i16>
  store <8 x i16> %14, ptr %3, align 2, !tbaa !31, !alias.scope !40, !noalias !43
  %index.next = add nuw i64 %index, 8
  %15 = icmp eq i64 %index.next, %wide.trip.count
  br i1 %15, label %for.cond.cleanup, label %vector.body, !llvm.loop !45

for.cond.cleanup:                                 ; preds = %vector.body, %for.body, %entry
  ret void

for.body:                                         ; preds = %for.body.preheader, %for.body
  %indvars.iv = phi i64 [ %indvars.iv.next, %for.body ], [ 0, %for.body.preheader ]
  %arrayidx = getelementptr inbounds i16, ptr %w, i64 %indvars.iv
  %16 = load i16, ptr %arrayidx, align 2, !tbaa !31
  %conv = sext i16 %16 to i32
  %arrayidx2 = getelementptr inbounds i16, ptr %t, i64 %indvars.iv
  %17 = load i16, ptr %arrayidx2, align 2, !tbaa !31
  %conv3 = sext i16 %17 to i32
  %mul = mul nsw i32 %conv3, %err
  %shr = ashr i32 %mul, 15
  %add5 = add nsw i32 %shr, 1
  %shr6 = ashr i32 %add5, 1
  %add7 = add nsw i32 %shr6, %conv
  %spec.store.select = tail call i32 @llvm.smax.i32(i32 %add7, i32 -32768)
  %spec.store.select15 = tail call i32 @llvm.smin.i32(i32 %spec.store.select, i32 32767)
  %conv12 = trunc i32 %spec.store.select15 to i16
  store i16 %conv12, ptr %arrayidx, align 2, !tbaa !31
  %indvars.iv.next = add nuw nsw i64 %indvars.iv, 1
  %exitcond.not = icmp eq i64 %indvars.iv.next, %wide.trip.count
  br i1 %exitcond.not, label %for.cond.cleanup, label %for.body, !llvm.loop !46
}

; Function Attrs: nounwind uwtable
define dso_local void @_ZN5MixerD2Ev(ptr nocapture noundef nonnull readonly align 8 dereferenceable(136) %this) unnamed_addr #6 align 2 {
entry:
  %mp = getelementptr inbounds %class.Mixer, ptr %this, i64 0, i32 10
  %0 = load ptr, ptr %mp, align 8, !tbaa !47
  %isnull = icmp eq ptr %0, null
  br i1 %isnull, label %delete.end, label %delete.notnull

delete.notnull:                                   ; preds = %entry
  tail call void @_ZN5MixerD2Ev(ptr noundef nonnull align 8 dereferenceable(136) %0) #39
  tail call void @_ZdlPv(ptr noundef nonnull %0) #42
  br label %delete.end

delete.end:                                       ; preds = %delete.notnull, %entry
  %pr = getelementptr inbounds %class.Mixer, ptr %this, i64 0, i32 9
  %1 = load i32, ptr %pr, align 8, !tbaa !51
  %2 = load i32, ptr @programChecker, align 8, !tbaa !13
  %3 = shl i32 %1, 2
  %add.i.i = sub i32 %2, %3
  store i32 %add.i.i, ptr @programChecker, align 8, !tbaa !13
  %4 = load i32, ptr getelementptr inbounds (%class.ProgramChecker, ptr @programChecker, i64 0, i32 1), align 4, !tbaa !16
  %cmp.i.i = icmp sgt i32 %add.i.i, %4
  br i1 %cmp.i.i, label %if.then.i.i, label %_ZN5ArrayIiLi0EED2Ev.exit

if.then.i.i:                                      ; preds = %delete.end
  store i32 %add.i.i, ptr getelementptr inbounds (%class.ProgramChecker, ptr @programChecker, i64 0, i32 1), align 4, !tbaa !16
  br label %_ZN5ArrayIiLi0EED2Ev.exit

_ZN5ArrayIiLi0EED2Ev.exit:                        ; preds = %delete.end, %if.then.i.i
  %ptr.i = getelementptr inbounds %class.Mixer, ptr %this, i64 0, i32 9, i32 2
  %5 = load ptr, ptr %ptr.i, align 8, !tbaa !52
  tail call void @free(ptr noundef %5) #39
  %cxt = getelementptr inbounds %class.Mixer, ptr %this, i64 0, i32 5
  %6 = load i32, ptr %cxt, align 8, !tbaa !51
  %7 = load i32, ptr @programChecker, align 8, !tbaa !13
  %8 = shl i32 %6, 2
  %add.i.i2 = sub i32 %7, %8
  store i32 %add.i.i2, ptr @programChecker, align 8, !tbaa !13
  %9 = load i32, ptr getelementptr inbounds (%class.ProgramChecker, ptr @programChecker, i64 0, i32 1), align 4, !tbaa !16
  %cmp.i.i3 = icmp sgt i32 %add.i.i2, %9
  br i1 %cmp.i.i3, label %if.then.i.i4, label %_ZN5ArrayIiLi0EED2Ev.exit6

if.then.i.i4:                                     ; preds = %_ZN5ArrayIiLi0EED2Ev.exit
  store i32 %add.i.i2, ptr getelementptr inbounds (%class.ProgramChecker, ptr @programChecker, i64 0, i32 1), align 4, !tbaa !16
  br label %_ZN5ArrayIiLi0EED2Ev.exit6

_ZN5ArrayIiLi0EED2Ev.exit6:                       ; preds = %_ZN5ArrayIiLi0EED2Ev.exit, %if.then.i.i4
  %ptr.i5 = getelementptr inbounds %class.Mixer, ptr %this, i64 0, i32 5, i32 2
  %10 = load ptr, ptr %ptr.i5, align 8, !tbaa !52
  tail call void @free(ptr noundef %10) #39
  %wx = getelementptr inbounds %class.Mixer, ptr %this, i64 0, i32 4
  %11 = load i32, ptr %wx, align 8, !tbaa !53
  %mul.i = shl i32 %11, 1
  %12 = load i32, ptr @programChecker, align 8, !tbaa !13
  %reass.sub.i = sub i32 %12, %mul.i
  %add.i.i7 = add i32 %reass.sub.i, -16
  store i32 %add.i.i7, ptr @programChecker, align 8, !tbaa !13
  %13 = load i32, ptr getelementptr inbounds (%class.ProgramChecker, ptr @programChecker, i64 0, i32 1), align 4, !tbaa !16
  %cmp.i.i8 = icmp sgt i32 %add.i.i7, %13
  br i1 %cmp.i.i8, label %if.then.i.i9, label %_ZN5ArrayIsLi16EED2Ev.exit

if.then.i.i9:                                     ; preds = %_ZN5ArrayIiLi0EED2Ev.exit6
  store i32 %add.i.i7, ptr getelementptr inbounds (%class.ProgramChecker, ptr @programChecker, i64 0, i32 1), align 4, !tbaa !16
  br label %_ZN5ArrayIsLi16EED2Ev.exit

_ZN5ArrayIsLi16EED2Ev.exit:                       ; preds = %_ZN5ArrayIiLi0EED2Ev.exit6, %if.then.i.i9
  %ptr.i10 = getelementptr inbounds %class.Mixer, ptr %this, i64 0, i32 4, i32 2
  %14 = load ptr, ptr %ptr.i10, align 8, !tbaa !54
  tail call void @free(ptr noundef %14) #39
  %tx = getelementptr inbounds %class.Mixer, ptr %this, i64 0, i32 3
  %15 = load i32, ptr %tx, align 8, !tbaa !53
  %mul.i11 = shl i32 %15, 1
  %16 = load i32, ptr @programChecker, align 8, !tbaa !13
  %reass.sub.i12 = sub i32 %16, %mul.i11
  %add.i.i13 = add i32 %reass.sub.i12, -16
  store i32 %add.i.i13, ptr @programChecker, align 8, !tbaa !13
  %17 = load i32, ptr getelementptr inbounds (%class.ProgramChecker, ptr @programChecker, i64 0, i32 1), align 4, !tbaa !16
  %cmp.i.i14 = icmp sgt i32 %add.i.i13, %17
  br i1 %cmp.i.i14, label %if.then.i.i15, label %_ZN5ArrayIsLi16EED2Ev.exit17

if.then.i.i15:                                    ; preds = %_ZN5ArrayIsLi16EED2Ev.exit
  store i32 %add.i.i13, ptr getelementptr inbounds (%class.ProgramChecker, ptr @programChecker, i64 0, i32 1), align 4, !tbaa !16
  br label %_ZN5ArrayIsLi16EED2Ev.exit17

_ZN5ArrayIsLi16EED2Ev.exit17:                     ; preds = %_ZN5ArrayIsLi16EED2Ev.exit, %if.then.i.i15
  %ptr.i16 = getelementptr inbounds %class.Mixer, ptr %this, i64 0, i32 3, i32 2
  %18 = load ptr, ptr %ptr.i16, align 8, !tbaa !54
  tail call void @free(ptr noundef %18) #39
  ret void
}

; Function Attrs: nobuiltin nounwind
declare void @_ZdlPv(ptr noundef) local_unnamed_addr #10

; Function Attrs: nounwind uwtable
define linkonce_odr dso_local void @_ZN5ArrayIiLi0EED2Ev(ptr noundef nonnull align 8 dereferenceable(24) %this) unnamed_addr #6 comdat align 2 {
entry:
  %0 = load i32, ptr %this, align 8, !tbaa !51
  %1 = load i32, ptr @programChecker, align 8, !tbaa !13
  %2 = shl i32 %0, 2
  %add.i = sub i32 %1, %2
  store i32 %add.i, ptr @programChecker, align 8, !tbaa !13
  %3 = load i32, ptr getelementptr inbounds (%class.ProgramChecker, ptr @programChecker, i64 0, i32 1), align 4, !tbaa !16
  %cmp.i = icmp sgt i32 %add.i, %3
  br i1 %cmp.i, label %if.then.i, label %_ZN14ProgramChecker5allocEi.exit

if.then.i:                                        ; preds = %entry
  store i32 %add.i, ptr getelementptr inbounds (%class.ProgramChecker, ptr @programChecker, i64 0, i32 1), align 4, !tbaa !16
  br label %_ZN14ProgramChecker5allocEi.exit

_ZN14ProgramChecker5allocEi.exit:                 ; preds = %entry, %if.then.i
  %ptr = getelementptr inbounds %class.Array.3, ptr %this, i64 0, i32 2
  %4 = load ptr, ptr %ptr, align 8, !tbaa !52
  tail call void @free(ptr noundef %4) #39
  ret void
}

; Function Attrs: nounwind uwtable
define linkonce_odr dso_local void @_ZN5ArrayIsLi16EED2Ev(ptr noundef nonnull align 8 dereferenceable(24) %this) unnamed_addr #6 comdat align 2 {
entry:
  %0 = load i32, ptr %this, align 8, !tbaa !53
  %mul = shl i32 %0, 1
  %1 = load i32, ptr @programChecker, align 8, !tbaa !13
  %reass.sub = sub i32 %1, %mul
  %add.i = add i32 %reass.sub, -16
  store i32 %add.i, ptr @programChecker, align 8, !tbaa !13
  %2 = load i32, ptr getelementptr inbounds (%class.ProgramChecker, ptr @programChecker, i64 0, i32 1), align 4, !tbaa !16
  %cmp.i = icmp sgt i32 %add.i, %2
  br i1 %cmp.i, label %if.then.i, label %_ZN14ProgramChecker5allocEi.exit

if.then.i:                                        ; preds = %entry
  store i32 %add.i, ptr getelementptr inbounds (%class.ProgramChecker, ptr @programChecker, i64 0, i32 1), align 4, !tbaa !16
  br label %_ZN14ProgramChecker5allocEi.exit

_ZN14ProgramChecker5allocEi.exit:                 ; preds = %entry, %if.then.i
  %ptr = getelementptr inbounds %class.Array.2, ptr %this, i64 0, i32 2
  %3 = load ptr, ptr %ptr, align 8, !tbaa !54
  tail call void @free(ptr noundef %3) #39
  ret void
}

; Function Attrs: uwtable
define dso_local void @_ZN5MixerC2Eiiii(ptr noundef nonnull align 8 dereferenceable(136) %this, i32 noundef %n, i32 noundef %m, i32 noundef %s, i32 noundef %w) unnamed_addr #5 align 2 personality ptr @__gxx_personality_v0 {
entry:
  %add = add nsw i32 %n, 7
  %and = and i32 %add, -8
  store i32 %and, ptr %this, align 8, !tbaa !55
  %M = getelementptr inbounds %class.Mixer, ptr %this, i64 0, i32 1
  store i32 %m, ptr %M, align 4, !tbaa !56
  %S = getelementptr inbounds %class.Mixer, ptr %this, i64 0, i32 2
  store i32 %s, ptr %S, align 8, !tbaa !57
  %tx = getelementptr inbounds %class.Mixer, ptr %this, i64 0, i32 3
  %reserved.i.i = getelementptr inbounds %class.Mixer, ptr %this, i64 0, i32 3, i32 1
  store i32 %and, ptr %reserved.i.i, align 4, !tbaa !58
  store i32 %and, ptr %tx, align 8, !tbaa !53
  %cmp.i.i = icmp slt i32 %and, 1
  br i1 %cmp.i.i, label %if.then.i.i, label %if.end.i.i

if.then.i.i:                                      ; preds = %entry
  %ptr.i.i = getelementptr inbounds %class.Mixer, ptr %this, i64 0, i32 3, i32 2
  tail call void @llvm.memset.p0.i64(ptr noundef nonnull align 8 dereferenceable(16) %ptr.i.i, i8 0, i64 16, i1 false)
  br label %_ZN5ArrayIsLi16EEC2Ei.exit

if.end.i.i:                                       ; preds = %entry
  %mul.i.i = shl nuw i32 %and, 1
  %add.i.i = add i32 %mul.i.i, 16
  %0 = load i32, ptr @programChecker, align 8, !tbaa !13
  %add.i.i.i = add nsw i32 %0, %add.i.i
  store i32 %add.i.i.i, ptr @programChecker, align 8, !tbaa !13
  %1 = load i32, ptr getelementptr inbounds (%class.ProgramChecker, ptr @programChecker, i64 0, i32 1), align 4, !tbaa !16
  %cmp.i.i.i = icmp sgt i32 %add.i.i.i, %1
  br i1 %cmp.i.i.i, label %if.then.i.i.i, label %_ZN14ProgramChecker5allocEi.exit.i.i

if.then.i.i.i:                                    ; preds = %if.end.i.i
  store i32 %add.i.i.i, ptr getelementptr inbounds (%class.ProgramChecker, ptr @programChecker, i64 0, i32 1), align 4, !tbaa !16
  br label %_ZN14ProgramChecker5allocEi.exit.i.i

_ZN14ProgramChecker5allocEi.exit.i.i:             ; preds = %if.then.i.i.i, %if.end.i.i
  %conv4.i.i = sext i32 %add.i.i to i64
  %call.i.i = tail call noalias ptr @calloc(i64 noundef %conv4.i.i, i64 noundef 1) #41
  %ptr5.i.i = getelementptr inbounds %class.Mixer, ptr %this, i64 0, i32 3, i32 2
  store ptr %call.i.i, ptr %ptr5.i.i, align 8, !tbaa !54
  %tobool.not.i.i = icmp eq ptr %call.i.i, null
  br i1 %tobool.not.i.i, label %if.then7.i.i, label %if.end8.i.i

if.then7.i.i:                                     ; preds = %_ZN14ProgramChecker5allocEi.exit.i.i
  %exception.i.i.i = tail call ptr @__cxa_allocate_exception(i64 8) #39
  store ptr @.str.59, ptr %exception.i.i.i, align 16, !tbaa !5
  tail call void @__cxa_throw(ptr nonnull %exception.i.i.i, ptr nonnull @_ZTIPKc, ptr null) #40
  unreachable

if.end8.i.i:                                      ; preds = %_ZN14ProgramChecker5allocEi.exit.i.i
  %add.ptr.i.i = getelementptr inbounds i8, ptr %call.i.i, i64 16
  %2 = ptrtoint ptr %call.i.i to i64
  %and.i.i = and i64 %2, 15
  %idx.neg.i.i = sub nsw i64 0, %and.i.i
  %add.ptr11.i.i = getelementptr inbounds i8, ptr %add.ptr.i.i, i64 %idx.neg.i.i
  %data12.i.i = getelementptr inbounds %class.Mixer, ptr %this, i64 0, i32 3, i32 3
  store ptr %add.ptr11.i.i, ptr %data12.i.i, align 8, !tbaa !59
  br label %_ZN5ArrayIsLi16EEC2Ei.exit

_ZN5ArrayIsLi16EEC2Ei.exit:                       ; preds = %if.then.i.i, %if.end8.i.i
  %wx = getelementptr inbounds %class.Mixer, ptr %this, i64 0, i32 4
  %mul = mul nsw i32 %and, %m
  %reserved.i.i49 = getelementptr inbounds %class.Mixer, ptr %this, i64 0, i32 4, i32 1
  store i32 %mul, ptr %reserved.i.i49, align 4, !tbaa !58
  store i32 %mul, ptr %wx, align 8, !tbaa !53
  %cmp.i.i50 = icmp slt i32 %mul, 1
  br i1 %cmp.i.i50, label %if.then.i.i52, label %if.end.i.i57

if.then.i.i52:                                    ; preds = %_ZN5ArrayIsLi16EEC2Ei.exit
  %ptr.i.i51 = getelementptr inbounds %class.Mixer, ptr %this, i64 0, i32 4, i32 2
  tail call void @llvm.memset.p0.i64(ptr noundef nonnull align 8 dereferenceable(16) %ptr.i.i51, i8 0, i64 16, i1 false)
  br label %invoke.cont

if.end.i.i57:                                     ; preds = %_ZN5ArrayIsLi16EEC2Ei.exit
  %mul.i.i53 = shl nuw i32 %mul, 1
  %add.i.i54 = add i32 %mul.i.i53, 16
  %3 = load i32, ptr @programChecker, align 8, !tbaa !13
  %add.i.i.i55 = add nsw i32 %3, %add.i.i54
  store i32 %add.i.i.i55, ptr @programChecker, align 8, !tbaa !13
  %4 = load i32, ptr getelementptr inbounds (%class.ProgramChecker, ptr @programChecker, i64 0, i32 1), align 4, !tbaa !16
  %cmp.i.i.i56 = icmp sgt i32 %add.i.i.i55, %4
  br i1 %cmp.i.i.i56, label %if.then.i.i.i58, label %_ZN14ProgramChecker5allocEi.exit.i.i63

if.then.i.i.i58:                                  ; preds = %if.end.i.i57
  store i32 %add.i.i.i55, ptr getelementptr inbounds (%class.ProgramChecker, ptr @programChecker, i64 0, i32 1), align 4, !tbaa !16
  br label %_ZN14ProgramChecker5allocEi.exit.i.i63

_ZN14ProgramChecker5allocEi.exit.i.i63:           ; preds = %if.then.i.i.i58, %if.end.i.i57
  %conv4.i.i59 = sext i32 %add.i.i54 to i64
  %call.i.i60 = tail call noalias ptr @calloc(i64 noundef %conv4.i.i59, i64 noundef 1) #41
  %ptr5.i.i61 = getelementptr inbounds %class.Mixer, ptr %this, i64 0, i32 4, i32 2
  store ptr %call.i.i60, ptr %ptr5.i.i61, align 8, !tbaa !54
  %tobool.not.i.i62 = icmp eq ptr %call.i.i60, null
  br i1 %tobool.not.i.i62, label %if.then7.i.i65, label %if.end8.i.i71

if.then7.i.i65:                                   ; preds = %_ZN14ProgramChecker5allocEi.exit.i.i63
  %exception.i.i.i64 = tail call ptr @__cxa_allocate_exception(i64 8) #39
  store ptr @.str.59, ptr %exception.i.i.i64, align 16, !tbaa !5
  invoke void @__cxa_throw(ptr nonnull %exception.i.i.i64, ptr nonnull @_ZTIPKc, ptr null) #40
          to label %.noexc unwind label %lpad

.noexc:                                           ; preds = %if.then7.i.i65
  unreachable

if.end8.i.i71:                                    ; preds = %_ZN14ProgramChecker5allocEi.exit.i.i63
  %add.ptr.i.i66 = getelementptr inbounds i8, ptr %call.i.i60, i64 16
  %5 = ptrtoint ptr %call.i.i60 to i64
  %and.i.i67 = and i64 %5, 15
  %idx.neg.i.i68 = sub nsw i64 0, %and.i.i67
  %add.ptr11.i.i69 = getelementptr inbounds i8, ptr %add.ptr.i.i66, i64 %idx.neg.i.i68
  %data12.i.i70 = getelementptr inbounds %class.Mixer, ptr %this, i64 0, i32 4, i32 3
  store ptr %add.ptr11.i.i69, ptr %data12.i.i70, align 8, !tbaa !59
  br label %invoke.cont

invoke.cont:                                      ; preds = %if.end8.i.i71, %if.then.i.i52
  %6 = phi ptr [ %add.ptr11.i.i69, %if.end8.i.i71 ], [ null, %if.then.i.i52 ]
  %cxt = getelementptr inbounds %class.Mixer, ptr %this, i64 0, i32 5
  %reserved.i.i73 = getelementptr inbounds %class.Mixer, ptr %this, i64 0, i32 5, i32 1
  store i32 %s, ptr %reserved.i.i73, align 4, !tbaa !60
  store i32 %s, ptr %cxt, align 8, !tbaa !51
  %cmp.i.i74 = icmp slt i32 %s, 1
  br i1 %cmp.i.i74, label %invoke.cont10, label %if.end.i.i80

if.end.i.i80:                                     ; preds = %invoke.cont
  %mul.i.i77 = shl i32 %s, 2
  %7 = load i32, ptr @programChecker, align 8, !tbaa !13
  %add.i.i.i78 = add nsw i32 %7, %mul.i.i77
  store i32 %add.i.i.i78, ptr @programChecker, align 8, !tbaa !13
  %8 = load i32, ptr getelementptr inbounds (%class.ProgramChecker, ptr @programChecker, i64 0, i32 1), align 4, !tbaa !16
  %cmp.i.i.i79 = icmp sgt i32 %add.i.i.i78, %8
  br i1 %cmp.i.i.i79, label %if.then.i.i.i81, label %_ZN14ProgramChecker5allocEi.exit.i.i86

if.then.i.i.i81:                                  ; preds = %if.end.i.i80
  store i32 %add.i.i.i78, ptr getelementptr inbounds (%class.ProgramChecker, ptr @programChecker, i64 0, i32 1), align 4, !tbaa !16
  br label %_ZN14ProgramChecker5allocEi.exit.i.i86

_ZN14ProgramChecker5allocEi.exit.i.i86:           ; preds = %if.then.i.i.i81, %if.end.i.i80
  %9 = phi i32 [ %add.i.i.i78, %if.then.i.i.i81 ], [ %8, %if.end.i.i80 ]
  %conv4.i.i82 = sext i32 %mul.i.i77 to i64
  %call.i.i83 = tail call noalias ptr @calloc(i64 noundef %conv4.i.i82, i64 noundef 1) #41
  %ptr5.i.i84 = getelementptr inbounds %class.Mixer, ptr %this, i64 0, i32 5, i32 2
  store ptr %call.i.i83, ptr %ptr5.i.i84, align 8, !tbaa !52
  %tobool.not.i.i85 = icmp eq ptr %call.i.i83, null
  br i1 %tobool.not.i.i85, label %if.then7.i.i88, label %if.end.i.i98

if.then7.i.i88:                                   ; preds = %_ZN14ProgramChecker5allocEi.exit.i.i86
  %exception.i.i.i87 = tail call ptr @__cxa_allocate_exception(i64 8) #39
  store ptr @.str.59, ptr %exception.i.i.i87, align 16, !tbaa !5
  invoke void @__cxa_throw(ptr nonnull %exception.i.i.i87, ptr nonnull @_ZTIPKc, ptr null) #40
          to label %.noexc90 unwind label %lpad6

.noexc90:                                         ; preds = %if.then7.i.i88
  unreachable

if.end.i.i98:                                     ; preds = %_ZN14ProgramChecker5allocEi.exit.i.i86
  %data10.i.i = getelementptr inbounds %class.Mixer, ptr %this, i64 0, i32 5, i32 3
  store ptr %call.i.i83, ptr %data10.i.i, align 8, !tbaa !61
  %ncxt = getelementptr inbounds %class.Mixer, ptr %this, i64 0, i32 6
  store i32 0, ptr %ncxt, align 8, !tbaa !62
  %base = getelementptr inbounds %class.Mixer, ptr %this, i64 0, i32 7
  store i32 0, ptr %base, align 4, !tbaa !63
  %nx = getelementptr inbounds %class.Mixer, ptr %this, i64 0, i32 8
  store i32 0, ptr %nx, align 8, !tbaa !64
  %pr = getelementptr inbounds %class.Mixer, ptr %this, i64 0, i32 9
  %reserved.i.i91 = getelementptr inbounds %class.Mixer, ptr %this, i64 0, i32 9, i32 1
  store i32 %s, ptr %reserved.i.i91, align 4, !tbaa !60
  store i32 %s, ptr %pr, align 8, !tbaa !51
  %add.i.i.i96 = add nsw i32 %add.i.i.i78, %mul.i.i77
  store i32 %add.i.i.i96, ptr @programChecker, align 8, !tbaa !13
  %cmp.i.i.i97 = icmp sgt i32 %add.i.i.i96, %9
  br i1 %cmp.i.i.i97, label %if.then.i.i.i99, label %_ZN14ProgramChecker5allocEi.exit.i.i104

if.then.i.i.i99:                                  ; preds = %if.end.i.i98
  store i32 %add.i.i.i96, ptr getelementptr inbounds (%class.ProgramChecker, ptr @programChecker, i64 0, i32 1), align 4, !tbaa !16
  br label %_ZN14ProgramChecker5allocEi.exit.i.i104

_ZN14ProgramChecker5allocEi.exit.i.i104:          ; preds = %if.then.i.i.i99, %if.end.i.i98
  %call.i.i101 = tail call noalias ptr @calloc(i64 noundef %conv4.i.i82, i64 noundef 1) #41
  %ptr5.i.i102 = getelementptr inbounds %class.Mixer, ptr %this, i64 0, i32 9, i32 2
  store ptr %call.i.i101, ptr %ptr5.i.i102, align 8, !tbaa !52
  %tobool.not.i.i103 = icmp eq ptr %call.i.i101, null
  br i1 %tobool.not.i.i103, label %if.then7.i.i106, label %for.body.lr.ph

if.then7.i.i106:                                  ; preds = %_ZN14ProgramChecker5allocEi.exit.i.i104
  %exception.i.i.i105 = tail call ptr @__cxa_allocate_exception(i64 8) #39
  store ptr @.str.59, ptr %exception.i.i.i105, align 16, !tbaa !5
  invoke void @__cxa_throw(ptr nonnull %exception.i.i.i105, ptr nonnull @_ZTIPKc, ptr null) #40
          to label %.noexc109 unwind label %lpad9

.noexc109:                                        ; preds = %if.then7.i.i106
  unreachable

invoke.cont10:                                    ; preds = %invoke.cont
  %ptr.i.i75 = getelementptr inbounds %class.Mixer, ptr %this, i64 0, i32 5, i32 2
  %pr117 = getelementptr inbounds %class.Mixer, ptr %this, i64 0, i32 9
  %reserved.i.i91118 = getelementptr inbounds %class.Mixer, ptr %this, i64 0, i32 9, i32 1
  tail call void @llvm.memset.p0.i64(ptr noundef nonnull align 8 dereferenceable(28) %ptr.i.i75, i8 0, i64 28, i1 false)
  store i32 %s, ptr %reserved.i.i91118, align 4, !tbaa !60
  store i32 %s, ptr %pr117, align 8, !tbaa !51
  %ptr.i.i93 = getelementptr inbounds %class.Mixer, ptr %this, i64 0, i32 9, i32 2
  %mp = getelementptr inbounds %class.Mixer, ptr %this, i64 0, i32 10
  tail call void @llvm.memset.p0.i64(ptr noundef nonnull align 8 dereferenceable(24) %ptr.i.i93, i8 0, i64 24, i1 false)
  br label %for.cond15.preheader

for.body.lr.ph:                                   ; preds = %_ZN14ProgramChecker5allocEi.exit.i.i104
  %data10.i.i107 = getelementptr inbounds %class.Mixer, ptr %this, i64 0, i32 9, i32 3
  store ptr %call.i.i101, ptr %data10.i.i107, align 8, !tbaa !61
  %mp131 = getelementptr inbounds %class.Mixer, ptr %this, i64 0, i32 10
  store ptr null, ptr %mp131, align 8, !tbaa !47
  %10 = sext i32 %s to i64
  %smax = tail call i64 @llvm.smax.i64(i64 %10, i64 1)
  %min.iters.check = icmp ult i64 %smax, 8
  br i1 %min.iters.check, label %for.body.preheader, label %vector.ph

vector.ph:                                        ; preds = %for.body.lr.ph
  %n.vec = and i64 %smax, 9223372036854775800
  br label %vector.body

vector.body:                                      ; preds = %vector.body, %vector.ph
  %index = phi i64 [ 0, %vector.ph ], [ %index.next, %vector.body ]
  %11 = getelementptr inbounds i32, ptr %call.i.i101, i64 %index
  store <4 x i32> <i32 2048, i32 2048, i32 2048, i32 2048>, ptr %11, align 4, !tbaa !25
  %12 = getelementptr inbounds i32, ptr %11, i64 4
  store <4 x i32> <i32 2048, i32 2048, i32 2048, i32 2048>, ptr %12, align 4, !tbaa !25
  %index.next = add nuw i64 %index, 8
  %13 = icmp eq i64 %index.next, %n.vec
  br i1 %13, label %middle.block, label %vector.body, !llvm.loop !65

middle.block:                                     ; preds = %vector.body
  %cmp.n = icmp eq i64 %smax, %n.vec
  br i1 %cmp.n, label %for.cond15.preheader, label %for.body.preheader

for.body.preheader:                               ; preds = %for.body.lr.ph, %middle.block
  %indvars.iv.ph = phi i64 [ 0, %for.body.lr.ph ], [ %n.vec, %middle.block ]
  br label %for.body

for.cond15.preheader:                             ; preds = %for.body, %middle.block, %invoke.cont10
  %mp135 = phi ptr [ %mp, %invoke.cont10 ], [ %mp131, %middle.block ], [ %mp131, %for.body ]
  %pr119133 = phi ptr [ %pr117, %invoke.cont10 ], [ %pr, %middle.block ], [ %pr, %for.body ]
  %cmp19123 = icmp sgt i32 %mul, 0
  br i1 %cmp19123, label %for.body20.lr.ph, label %for.end26

for.body20.lr.ph:                                 ; preds = %for.cond15.preheader
  %conv = trunc i32 %w to i16
  %wide.trip.count = zext i32 %mul to i64
  %min.iters.check139 = icmp ult i32 %mul, 16
  br i1 %min.iters.check139, label %for.body20.preheader, label %vector.ph140

vector.ph140:                                     ; preds = %for.body20.lr.ph
  %n.vec142 = and i64 %wide.trip.count, 4294967280
  %broadcast.splatinsert = insertelement <8 x i16> poison, i16 %conv, i64 0
  %broadcast.splat = shufflevector <8 x i16> %broadcast.splatinsert, <8 x i16> poison, <8 x i32> zeroinitializer
  %broadcast.splatinsert147 = insertelement <8 x i16> poison, i16 %conv, i64 0
  %broadcast.splat148 = shufflevector <8 x i16> %broadcast.splatinsert147, <8 x i16> poison, <8 x i32> zeroinitializer
  br label %vector.body145

vector.body145:                                   ; preds = %vector.body145, %vector.ph140
  %index146 = phi i64 [ 0, %vector.ph140 ], [ %index.next149, %vector.body145 ]
  %14 = getelementptr inbounds i16, ptr %6, i64 %index146
  store <8 x i16> %broadcast.splat, ptr %14, align 2, !tbaa !31
  %15 = getelementptr inbounds i16, ptr %14, i64 8
  store <8 x i16> %broadcast.splat148, ptr %15, align 2, !tbaa !31
  %index.next149 = add nuw i64 %index146, 16
  %16 = icmp eq i64 %index.next149, %n.vec142
  br i1 %16, label %middle.block137, label %vector.body145, !llvm.loop !66

middle.block137:                                  ; preds = %vector.body145
  %cmp.n144 = icmp eq i64 %n.vec142, %wide.trip.count
  br i1 %cmp.n144, label %for.end26, label %for.body20.preheader

for.body20.preheader:                             ; preds = %for.body20.lr.ph, %middle.block137
  %indvars.iv127.ph = phi i64 [ 0, %for.body20.lr.ph ], [ %n.vec142, %middle.block137 ]
  br label %for.body20

for.body:                                         ; preds = %for.body.preheader, %for.body
  %indvars.iv = phi i64 [ %indvars.iv.next, %for.body ], [ %indvars.iv.ph, %for.body.preheader ]
  %arrayidx.i = getelementptr inbounds i32, ptr %call.i.i101, i64 %indvars.iv
  store i32 2048, ptr %arrayidx.i, align 4, !tbaa !25
  %indvars.iv.next = add nuw nsw i64 %indvars.iv, 1
  %cmp = icmp slt i64 %indvars.iv.next, %10
  br i1 %cmp, label %for.body, label %for.cond15.preheader, !llvm.loop !67

lpad:                                             ; preds = %if.then7.i.i65
  %17 = landingpad { ptr, i32 }
          cleanup
  br label %ehcleanup38

lpad6:                                            ; preds = %if.then7.i.i88
  %18 = landingpad { ptr, i32 }
          cleanup
  br label %ehcleanup37

lpad9:                                            ; preds = %if.then7.i.i106
  %19 = landingpad { ptr, i32 }
          cleanup
  br label %ehcleanup36

lpad13:                                           ; preds = %if.then
  %20 = landingpad { ptr, i32 }
          cleanup
  br label %ehcleanup

for.body20:                                       ; preds = %for.body20.preheader, %for.body20
  %indvars.iv127 = phi i64 [ %indvars.iv.next128, %for.body20 ], [ %indvars.iv127.ph, %for.body20.preheader ]
  %arrayidx.i113 = getelementptr inbounds i16, ptr %6, i64 %indvars.iv127
  store i16 %conv, ptr %arrayidx.i113, align 2, !tbaa !31
  %indvars.iv.next128 = add nuw nsw i64 %indvars.iv127, 1
  %exitcond.not = icmp eq i64 %indvars.iv.next128, %wide.trip.count
  br i1 %exitcond.not, label %for.end26, label %for.body20, !llvm.loop !68

for.end26:                                        ; preds = %for.body20, %middle.block137, %for.cond15.preheader
  %cmp28 = icmp sgt i32 %s, 1
  br i1 %cmp28, label %if.then, label %if.end

if.then:                                          ; preds = %for.end26
  %call30 = invoke noalias noundef nonnull dereferenceable(136) ptr @_Znwm(i64 noundef 136) #43
          to label %invoke.cont29 unwind label %lpad13

invoke.cont29:                                    ; preds = %if.then
  invoke void @_ZN5MixerC2Eiiii(ptr noundef nonnull align 8 dereferenceable(136) %call30, i32 noundef %s, i32 noundef 1, i32 noundef 1, i32 noundef 32767)
          to label %invoke.cont33 unwind label %lpad32

invoke.cont33:                                    ; preds = %invoke.cont29
  store ptr %call30, ptr %mp135, align 8, !tbaa !47
  br label %if.end

lpad32:                                           ; preds = %invoke.cont29
  %21 = landingpad { ptr, i32 }
          cleanup
  tail call void @_ZdlPv(ptr noundef nonnull %call30) #42
  br label %ehcleanup

if.end:                                           ; preds = %invoke.cont33, %for.end26
  ret void

ehcleanup:                                        ; preds = %lpad32, %lpad13
  %.pn = phi { ptr, i32 } [ %21, %lpad32 ], [ %20, %lpad13 ]
  tail call void @_ZN5ArrayIiLi0EED2Ev(ptr noundef nonnull align 8 dereferenceable(24) %pr119133) #39
  br label %ehcleanup36

ehcleanup36:                                      ; preds = %ehcleanup, %lpad9
  %.pn.pn = phi { ptr, i32 } [ %.pn, %ehcleanup ], [ %19, %lpad9 ]
  tail call void @_ZN5ArrayIiLi0EED2Ev(ptr noundef nonnull align 8 dereferenceable(24) %cxt) #39
  br label %ehcleanup37

ehcleanup37:                                      ; preds = %ehcleanup36, %lpad6
  %.pn.pn.pn = phi { ptr, i32 } [ %.pn.pn, %ehcleanup36 ], [ %18, %lpad6 ]
  tail call void @_ZN5ArrayIsLi16EED2Ev(ptr noundef nonnull align 8 dereferenceable(24) %wx) #39
  br label %ehcleanup38

ehcleanup38:                                      ; preds = %ehcleanup37, %lpad
  %.pn.pn.pn.pn = phi { ptr, i32 } [ %.pn.pn.pn, %ehcleanup37 ], [ %17, %lpad ]
  tail call void @_ZN5ArrayIsLi16EED2Ev(ptr noundef nonnull align 8 dereferenceable(24) %tx) #39
  resume { ptr, i32 } %.pn.pn.pn.pn
}

; Function Attrs: uwtable
define linkonce_odr dso_local void @_ZN5ArrayIiLi0EEC2Ei(ptr noundef nonnull align 8 dereferenceable(24) %this, i32 noundef %i) unnamed_addr #5 comdat align 2 {
entry:
  %reserved.i = getelementptr inbounds %class.Array.3, ptr %this, i64 0, i32 1
  store i32 %i, ptr %reserved.i, align 4, !tbaa !60
  store i32 %i, ptr %this, align 8, !tbaa !51
  %cmp.i = icmp slt i32 %i, 1
  br i1 %cmp.i, label %if.then.i, label %if.end.i

if.then.i:                                        ; preds = %entry
  %ptr.i = getelementptr inbounds %class.Array.3, ptr %this, i64 0, i32 2
  tail call void @llvm.memset.p0.i64(ptr noundef nonnull align 8 dereferenceable(16) %ptr.i, i8 0, i64 16, i1 false)
  br label %_ZN5ArrayIiLi0EE6createEi.exit

if.end.i:                                         ; preds = %entry
  %mul.i = shl i32 %i, 2
  %0 = load i32, ptr @programChecker, align 8, !tbaa !13
  %add.i.i = add nsw i32 %0, %mul.i
  store i32 %add.i.i, ptr @programChecker, align 8, !tbaa !13
  %1 = load i32, ptr getelementptr inbounds (%class.ProgramChecker, ptr @programChecker, i64 0, i32 1), align 4, !tbaa !16
  %cmp.i.i = icmp sgt i32 %add.i.i, %1
  br i1 %cmp.i.i, label %if.then.i.i, label %_ZN14ProgramChecker5allocEi.exit.i

if.then.i.i:                                      ; preds = %if.end.i
  store i32 %add.i.i, ptr getelementptr inbounds (%class.ProgramChecker, ptr @programChecker, i64 0, i32 1), align 4, !tbaa !16
  br label %_ZN14ProgramChecker5allocEi.exit.i

_ZN14ProgramChecker5allocEi.exit.i:               ; preds = %if.then.i.i, %if.end.i
  %conv4.i = sext i32 %mul.i to i64
  %call.i = tail call noalias ptr @calloc(i64 noundef %conv4.i, i64 noundef 1) #41
  %ptr5.i = getelementptr inbounds %class.Array.3, ptr %this, i64 0, i32 2
  store ptr %call.i, ptr %ptr5.i, align 8, !tbaa !52
  %tobool.not.i = icmp eq ptr %call.i, null
  br i1 %tobool.not.i, label %if.then7.i, label %if.end8.i

if.then7.i:                                       ; preds = %_ZN14ProgramChecker5allocEi.exit.i
  %exception.i.i = tail call ptr @__cxa_allocate_exception(i64 8) #39
  store ptr @.str.59, ptr %exception.i.i, align 16, !tbaa !5
  tail call void @__cxa_throw(ptr nonnull %exception.i.i, ptr nonnull @_ZTIPKc, ptr null) #40
  unreachable

if.end8.i:                                        ; preds = %_ZN14ProgramChecker5allocEi.exit.i
  %data10.i = getelementptr inbounds %class.Array.3, ptr %this, i64 0, i32 3
  store ptr %call.i, ptr %data10.i, align 8, !tbaa !61
  br label %_ZN5ArrayIiLi0EE6createEi.exit

_ZN5ArrayIiLi0EE6createEi.exit:                   ; preds = %if.then.i, %if.end8.i
  ret void
}

; Function Attrs: nobuiltin allocsize(0)
declare noundef nonnull ptr @_Znwm(i64 noundef) local_unnamed_addr #11

; Function Attrs: uwtable
define dso_local void @_ZN4APM1C2Ei(ptr nocapture noundef nonnull writeonly align 8 dereferenceable(32) %this, i32 noundef %n) unnamed_addr #5 align 2 personality ptr @__gxx_personality_v0 {
entry:
  store i32 0, ptr %this, align 8, !tbaa !69
  %N = getelementptr inbounds %class.APM1, ptr %this, i64 0, i32 1
  store i32 %n, ptr %N, align 4, !tbaa !72
  %t = getelementptr inbounds %class.APM1, ptr %this, i64 0, i32 2
  %mul = mul nsw i32 %n, 33
  %reserved.i.i = getelementptr inbounds %class.APM1, ptr %this, i64 0, i32 2, i32 1
  store i32 %mul, ptr %reserved.i.i, align 4, !tbaa !73
  store i32 %mul, ptr %t, align 8, !tbaa !74
  %cmp.i.i = icmp slt i32 %n, 1
  br i1 %cmp.i.i, label %_ZN5ArrayItLi0EEC2Ei.exit, label %if.end.i.i

if.end.i.i:                                       ; preds = %entry
  %mul.i.i = mul i32 %n, 66
  %0 = load i32, ptr @programChecker, align 8, !tbaa !13
  %add.i.i.i = add nsw i32 %0, %mul.i.i
  store i32 %add.i.i.i, ptr @programChecker, align 8, !tbaa !13
  %1 = load i32, ptr getelementptr inbounds (%class.ProgramChecker, ptr @programChecker, i64 0, i32 1), align 4, !tbaa !16
  %cmp.i.i.i = icmp sgt i32 %add.i.i.i, %1
  br i1 %cmp.i.i.i, label %if.then.i.i.i, label %_ZN14ProgramChecker5allocEi.exit.i.i

if.then.i.i.i:                                    ; preds = %if.end.i.i
  store i32 %add.i.i.i, ptr getelementptr inbounds (%class.ProgramChecker, ptr @programChecker, i64 0, i32 1), align 4, !tbaa !16
  br label %_ZN14ProgramChecker5allocEi.exit.i.i

_ZN14ProgramChecker5allocEi.exit.i.i:             ; preds = %if.then.i.i.i, %if.end.i.i
  %conv4.i.i = sext i32 %mul.i.i to i64
  %call.i.i = tail call noalias ptr @calloc(i64 noundef %conv4.i.i, i64 noundef 1) #41
  %ptr5.i.i = getelementptr inbounds %class.APM1, ptr %this, i64 0, i32 2, i32 2
  store ptr %call.i.i, ptr %ptr5.i.i, align 8, !tbaa !75
  %tobool.not.i.i = icmp eq ptr %call.i.i, null
  br i1 %tobool.not.i.i, label %if.then7.i.i, label %for.cond3.preheader.lr.ph

if.then7.i.i:                                     ; preds = %_ZN14ProgramChecker5allocEi.exit.i.i
  %exception.i.i.i = tail call ptr @__cxa_allocate_exception(i64 8) #39
  store ptr @.str.59, ptr %exception.i.i.i, align 16, !tbaa !5
  tail call void @__cxa_throw(ptr nonnull %exception.i.i.i, ptr nonnull @_ZTIPKc, ptr null) #40
  unreachable

_ZN5ArrayItLi0EEC2Ei.exit:                        ; preds = %entry
  %ptr.i.i = getelementptr inbounds %class.APM1, ptr %this, i64 0, i32 2, i32 2
  tail call void @llvm.memset.p0.i64(ptr noundef nonnull align 8 dereferenceable(16) %ptr.i.i, i8 0, i64 16, i1 false)
  br label %for.cond.cleanup

for.cond3.preheader.lr.ph:                        ; preds = %_ZN14ProgramChecker5allocEi.exit.i.i
  %data10.i.i = getelementptr inbounds %class.APM1, ptr %this, i64 0, i32 2, i32 3
  store ptr %call.i.i, ptr %data10.i.i, align 8, !tbaa !76
  %wide.trip.count = zext i32 %n to i64
  %arrayidx.i30.1 = getelementptr inbounds i16, ptr %call.i.i, i64 1
  %arrayidx.i30.2 = getelementptr inbounds i16, ptr %call.i.i, i64 2
  %arrayidx.i30.3 = getelementptr inbounds i16, ptr %call.i.i, i64 3
  %arrayidx.i30.4 = getelementptr inbounds i16, ptr %call.i.i, i64 4
  %arrayidx.i30.5 = getelementptr inbounds i16, ptr %call.i.i, i64 5
  %arrayidx.i30.6 = getelementptr inbounds i16, ptr %call.i.i, i64 6
  %arrayidx.i30.7 = getelementptr inbounds i16, ptr %call.i.i, i64 7
  %arrayidx.i30.8 = getelementptr inbounds i16, ptr %call.i.i, i64 8
  %arrayidx.i30.9 = getelementptr inbounds i16, ptr %call.i.i, i64 9
  %arrayidx.i30.10 = getelementptr inbounds i16, ptr %call.i.i, i64 10
  %arrayidx.i30.11 = getelementptr inbounds i16, ptr %call.i.i, i64 11
  %arrayidx.i30.12 = getelementptr inbounds i16, ptr %call.i.i, i64 12
  %arrayidx.i30.13 = getelementptr inbounds i16, ptr %call.i.i, i64 13
  %arrayidx.i30.14 = getelementptr inbounds i16, ptr %call.i.i, i64 14
  %arrayidx.i30.15 = getelementptr inbounds i16, ptr %call.i.i, i64 15
  %arrayidx.i30.16 = getelementptr inbounds i16, ptr %call.i.i, i64 16
  %arrayidx.i30.17 = getelementptr inbounds i16, ptr %call.i.i, i64 17
  %arrayidx.i30.18 = getelementptr inbounds i16, ptr %call.i.i, i64 18
  %arrayidx.i30.19 = getelementptr inbounds i16, ptr %call.i.i, i64 19
  %arrayidx.i30.20 = getelementptr inbounds i16, ptr %call.i.i, i64 20
  %arrayidx.i30.21 = getelementptr inbounds i16, ptr %call.i.i, i64 21
  %arrayidx.i30.22 = getelementptr inbounds i16, ptr %call.i.i, i64 22
  %arrayidx.i30.23 = getelementptr inbounds i16, ptr %call.i.i, i64 23
  %arrayidx.i30.24 = getelementptr inbounds i16, ptr %call.i.i, i64 24
  %arrayidx.i30.25 = getelementptr inbounds i16, ptr %call.i.i, i64 25
  %arrayidx.i30.26 = getelementptr inbounds i16, ptr %call.i.i, i64 26
  %arrayidx.i30.27 = getelementptr inbounds i16, ptr %call.i.i, i64 27
  %arrayidx.i30.28 = getelementptr inbounds i16, ptr %call.i.i, i64 28
  %arrayidx.i30.29 = getelementptr inbounds i16, ptr %call.i.i, i64 29
  %arrayidx.i30.30 = getelementptr inbounds i16, ptr %call.i.i, i64 30
  %arrayidx.i30.31 = getelementptr inbounds i16, ptr %call.i.i, i64 31
  %arrayidx.i30.32 = getelementptr inbounds i16, ptr %call.i.i, i64 32
  br label %for.cond3.preheader

for.cond3.preheader:                              ; preds = %for.cond3.preheader.lr.ph, %for.cond.cleanup5
  %indvars.iv46 = phi i64 [ 0, %for.cond3.preheader.lr.ph ], [ %indvars.iv.next47, %for.cond.cleanup5 ]
  %cmp7 = icmp eq i64 %indvars.iv46, 0
  %mul14 = mul i64 %indvars.iv46, 33
  %2 = and i64 %mul14, 4294967295
  br i1 %cmp7, label %for.body6.us.peel.next, label %for.body6.preheader

for.body6.preheader:                              ; preds = %for.cond3.preheader
  %3 = load i16, ptr %call.i.i, align 2, !tbaa !31
  %arrayidx.i33 = getelementptr inbounds i16, ptr %call.i.i, i64 %2
  store i16 %3, ptr %arrayidx.i33, align 2, !tbaa !31
  %4 = load i16, ptr %arrayidx.i30.1, align 2, !tbaa !31
  %5 = add nuw nsw i64 %2, 1
  %arrayidx.i33.1 = getelementptr inbounds i16, ptr %call.i.i, i64 %5
  store i16 %4, ptr %arrayidx.i33.1, align 2, !tbaa !31
  %6 = load i16, ptr %arrayidx.i30.2, align 2, !tbaa !31
  %7 = add nuw nsw i64 %2, 2
  %arrayidx.i33.2 = getelementptr inbounds i16, ptr %call.i.i, i64 %7
  store i16 %6, ptr %arrayidx.i33.2, align 2, !tbaa !31
  %8 = load i16, ptr %arrayidx.i30.3, align 2, !tbaa !31
  %9 = add nuw nsw i64 %2, 3
  %arrayidx.i33.3 = getelementptr inbounds i16, ptr %call.i.i, i64 %9
  store i16 %8, ptr %arrayidx.i33.3, align 2, !tbaa !31
  %10 = load i16, ptr %arrayidx.i30.4, align 2, !tbaa !31
  %11 = add nuw nsw i64 %2, 4
  %arrayidx.i33.4 = getelementptr inbounds i16, ptr %call.i.i, i64 %11
  store i16 %10, ptr %arrayidx.i33.4, align 2, !tbaa !31
  %12 = load i16, ptr %arrayidx.i30.5, align 2, !tbaa !31
  %13 = add nuw nsw i64 %2, 5
  %arrayidx.i33.5 = getelementptr inbounds i16, ptr %call.i.i, i64 %13
  store i16 %12, ptr %arrayidx.i33.5, align 2, !tbaa !31
  %14 = load i16, ptr %arrayidx.i30.6, align 2, !tbaa !31
  %15 = add nuw nsw i64 %2, 6
  %arrayidx.i33.6 = getelementptr inbounds i16, ptr %call.i.i, i64 %15
  store i16 %14, ptr %arrayidx.i33.6, align 2, !tbaa !31
  %16 = load i16, ptr %arrayidx.i30.7, align 2, !tbaa !31
  %17 = add nuw nsw i64 %2, 7
  %arrayidx.i33.7 = getelementptr inbounds i16, ptr %call.i.i, i64 %17
  store i16 %16, ptr %arrayidx.i33.7, align 2, !tbaa !31
  %18 = load i16, ptr %arrayidx.i30.8, align 2, !tbaa !31
  %19 = add nuw nsw i64 %2, 8
  %arrayidx.i33.8 = getelementptr inbounds i16, ptr %call.i.i, i64 %19
  store i16 %18, ptr %arrayidx.i33.8, align 2, !tbaa !31
  %20 = load i16, ptr %arrayidx.i30.9, align 2, !tbaa !31
  %21 = add nuw nsw i64 %2, 9
  %arrayidx.i33.9 = getelementptr inbounds i16, ptr %call.i.i, i64 %21
  store i16 %20, ptr %arrayidx.i33.9, align 2, !tbaa !31
  %22 = load i16, ptr %arrayidx.i30.10, align 2, !tbaa !31
  %23 = add nuw nsw i64 %2, 10
  %arrayidx.i33.10 = getelementptr inbounds i16, ptr %call.i.i, i64 %23
  store i16 %22, ptr %arrayidx.i33.10, align 2, !tbaa !31
  %24 = load i16, ptr %arrayidx.i30.11, align 2, !tbaa !31
  %25 = add nuw nsw i64 %2, 11
  %arrayidx.i33.11 = getelementptr inbounds i16, ptr %call.i.i, i64 %25
  store i16 %24, ptr %arrayidx.i33.11, align 2, !tbaa !31
  %26 = load i16, ptr %arrayidx.i30.12, align 2, !tbaa !31
  %27 = add nuw nsw i64 %2, 12
  %arrayidx.i33.12 = getelementptr inbounds i16, ptr %call.i.i, i64 %27
  store i16 %26, ptr %arrayidx.i33.12, align 2, !tbaa !31
  %28 = load i16, ptr %arrayidx.i30.13, align 2, !tbaa !31
  %29 = add nuw nsw i64 %2, 13
  %arrayidx.i33.13 = getelementptr inbounds i16, ptr %call.i.i, i64 %29
  store i16 %28, ptr %arrayidx.i33.13, align 2, !tbaa !31
  %30 = load i16, ptr %arrayidx.i30.14, align 2, !tbaa !31
  %31 = add nuw nsw i64 %2, 14
  %arrayidx.i33.14 = getelementptr inbounds i16, ptr %call.i.i, i64 %31
  store i16 %30, ptr %arrayidx.i33.14, align 2, !tbaa !31
  %32 = load i16, ptr %arrayidx.i30.15, align 2, !tbaa !31
  %33 = add nuw nsw i64 %2, 15
  %arrayidx.i33.15 = getelementptr inbounds i16, ptr %call.i.i, i64 %33
  store i16 %32, ptr %arrayidx.i33.15, align 2, !tbaa !31
  %34 = load i16, ptr %arrayidx.i30.16, align 2, !tbaa !31
  %35 = add nuw nsw i64 %2, 16
  %arrayidx.i33.16 = getelementptr inbounds i16, ptr %call.i.i, i64 %35
  store i16 %34, ptr %arrayidx.i33.16, align 2, !tbaa !31
  %36 = load i16, ptr %arrayidx.i30.17, align 2, !tbaa !31
  %37 = add nuw nsw i64 %2, 17
  %arrayidx.i33.17 = getelementptr inbounds i16, ptr %call.i.i, i64 %37
  store i16 %36, ptr %arrayidx.i33.17, align 2, !tbaa !31
  %38 = load i16, ptr %arrayidx.i30.18, align 2, !tbaa !31
  %39 = add nuw nsw i64 %2, 18
  %arrayidx.i33.18 = getelementptr inbounds i16, ptr %call.i.i, i64 %39
  store i16 %38, ptr %arrayidx.i33.18, align 2, !tbaa !31
  %40 = load i16, ptr %arrayidx.i30.19, align 2, !tbaa !31
  %41 = add nuw nsw i64 %2, 19
  %arrayidx.i33.19 = getelementptr inbounds i16, ptr %call.i.i, i64 %41
  store i16 %40, ptr %arrayidx.i33.19, align 2, !tbaa !31
  %42 = load i16, ptr %arrayidx.i30.20, align 2, !tbaa !31
  %43 = add nuw nsw i64 %2, 20
  %arrayidx.i33.20 = getelementptr inbounds i16, ptr %call.i.i, i64 %43
  store i16 %42, ptr %arrayidx.i33.20, align 2, !tbaa !31
  %44 = load i16, ptr %arrayidx.i30.21, align 2, !tbaa !31
  %45 = add nuw nsw i64 %2, 21
  %arrayidx.i33.21 = getelementptr inbounds i16, ptr %call.i.i, i64 %45
  store i16 %44, ptr %arrayidx.i33.21, align 2, !tbaa !31
  %46 = load i16, ptr %arrayidx.i30.22, align 2, !tbaa !31
  %47 = add nuw nsw i64 %2, 22
  %arrayidx.i33.22 = getelementptr inbounds i16, ptr %call.i.i, i64 %47
  store i16 %46, ptr %arrayidx.i33.22, align 2, !tbaa !31
  %48 = load i16, ptr %arrayidx.i30.23, align 2, !tbaa !31
  %49 = add nuw nsw i64 %2, 23
  %arrayidx.i33.23 = getelementptr inbounds i16, ptr %call.i.i, i64 %49
  store i16 %48, ptr %arrayidx.i33.23, align 2, !tbaa !31
  %50 = load i16, ptr %arrayidx.i30.24, align 2, !tbaa !31
  %51 = add nuw nsw i64 %2, 24
  %arrayidx.i33.24 = getelementptr inbounds i16, ptr %call.i.i, i64 %51
  store i16 %50, ptr %arrayidx.i33.24, align 2, !tbaa !31
  %52 = load i16, ptr %arrayidx.i30.25, align 2, !tbaa !31
  %53 = add nuw nsw i64 %2, 25
  %arrayidx.i33.25 = getelementptr inbounds i16, ptr %call.i.i, i64 %53
  store i16 %52, ptr %arrayidx.i33.25, align 2, !tbaa !31
  %54 = load i16, ptr %arrayidx.i30.26, align 2, !tbaa !31
  %55 = add nuw nsw i64 %2, 26
  %arrayidx.i33.26 = getelementptr inbounds i16, ptr %call.i.i, i64 %55
  store i16 %54, ptr %arrayidx.i33.26, align 2, !tbaa !31
  %56 = load i16, ptr %arrayidx.i30.27, align 2, !tbaa !31
  %57 = add nuw nsw i64 %2, 27
  %arrayidx.i33.27 = getelementptr inbounds i16, ptr %call.i.i, i64 %57
  store i16 %56, ptr %arrayidx.i33.27, align 2, !tbaa !31
  %58 = load i16, ptr %arrayidx.i30.28, align 2, !tbaa !31
  %59 = add nuw nsw i64 %2, 28
  %arrayidx.i33.28 = getelementptr inbounds i16, ptr %call.i.i, i64 %59
  store i16 %58, ptr %arrayidx.i33.28, align 2, !tbaa !31
  %60 = load i16, ptr %arrayidx.i30.29, align 2, !tbaa !31
  %61 = add nuw nsw i64 %2, 29
  %arrayidx.i33.29 = getelementptr inbounds i16, ptr %call.i.i, i64 %61
  store i16 %60, ptr %arrayidx.i33.29, align 2, !tbaa !31
  %62 = load i16, ptr %arrayidx.i30.30, align 2, !tbaa !31
  %63 = add nuw nsw i64 %2, 30
  %arrayidx.i33.30 = getelementptr inbounds i16, ptr %call.i.i, i64 %63
  store i16 %62, ptr %arrayidx.i33.30, align 2, !tbaa !31
  %64 = load i16, ptr %arrayidx.i30.31, align 2, !tbaa !31
  %65 = add nuw nsw i64 %2, 31
  %arrayidx.i33.31 = getelementptr inbounds i16, ptr %call.i.i, i64 %65
  store i16 %64, ptr %arrayidx.i33.31, align 2, !tbaa !31
  %66 = load i16, ptr %arrayidx.i30.32, align 2, !tbaa !31
  %67 = add nuw nsw i64 %2, 32
  %arrayidx.i33.32 = getelementptr inbounds i16, ptr %call.i.i, i64 %67
  store i16 %66, ptr %arrayidx.i33.32, align 2, !tbaa !31
  br label %for.cond.cleanup5

for.body6.us.peel.next:                           ; preds = %for.cond3.preheader
  %arrayidx.i33.us.peel = getelementptr inbounds i16, ptr %call.i.i, i64 %2
  store i16 0, ptr %arrayidx.i33.us.peel, align 2, !tbaa !31
  br label %for.body6.us

for.body6.us:                                     ; preds = %for.body6.us.peel.next, %_Z6squashi.exit.us
  %indvars.iv = phi i64 [ 1, %for.body6.us.peel.next ], [ %indvars.iv.next, %_Z6squashi.exit.us ]
  %cmp.i.us = icmp ugt i64 %indvars.iv, 31
  br i1 %cmp.i.us, label %_Z6squashi.exit.us, label %if.end3.i.us

if.end3.i.us:                                     ; preds = %for.body6.us
  %indvars.iv.tr = trunc i64 %indvars.iv to i32
  %68 = shl nuw nsw i32 %indvars.iv.tr, 7
  %69 = add nsw i32 %68, -2048
  %shr.i.us = ashr exact i32 %69, 7
  %add.i.us = add nsw i32 %shr.i.us, 16
  %idxprom.i.us = zext i32 %add.i.us to i64
  %arrayidx.i.us = getelementptr inbounds [33 x i32], ptr @_ZZ6squashiE1t, i64 0, i64 %idxprom.i.us
  %70 = load i32, ptr %arrayidx.i.us, align 4, !tbaa !25
  br label %_Z6squashi.exit.us

_Z6squashi.exit.us:                               ; preds = %if.end3.i.us, %for.body6.us
  %retval.0.i.us = phi i32 [ %70, %if.end3.i.us ], [ 4095, %for.body6.us ]
  %retval.0.i.us.tr = trunc i32 %retval.0.i.us to i16
  %conv12.us = shl i16 %retval.0.i.us.tr, 4
  %71 = add nuw nsw i64 %indvars.iv, %2
  %arrayidx.i33.us = getelementptr inbounds i16, ptr %call.i.i, i64 %71
  store i16 %conv12.us, ptr %arrayidx.i33.us, align 2, !tbaa !31
  %indvars.iv.next = add nuw nsw i64 %indvars.iv, 1
  %exitcond.not = icmp eq i64 %indvars.iv.next, 33
  br i1 %exitcond.not, label %for.cond.cleanup5, label %for.body6.us, !llvm.loop !77

for.cond.cleanup:                                 ; preds = %for.cond.cleanup5, %_ZN5ArrayItLi0EEC2Ei.exit
  ret void

for.cond.cleanup5:                                ; preds = %_Z6squashi.exit.us, %for.body6.preheader
  %indvars.iv.next47 = add nuw nsw i64 %indvars.iv46, 1
  %exitcond49.not = icmp eq i64 %indvars.iv.next47, %wide.trip.count
  br i1 %exitcond49.not, label %for.cond.cleanup, label %for.cond3.preheader, !llvm.loop !79
}

; Function Attrs: uwtable
define dso_local void @_ZN8StateMapC2Ei(ptr nocapture noundef nonnull writeonly align 8 dereferenceable(32) %this, i32 noundef %n) unnamed_addr #5 align 2 personality ptr @__gxx_personality_v0 {
entry:
  store i32 %n, ptr %this, align 8, !tbaa !80
  %cxt = getelementptr inbounds %class.StateMap, ptr %this, i64 0, i32 1
  store i32 0, ptr %cxt, align 4, !tbaa !82
  %t = getelementptr inbounds %class.StateMap, ptr %this, i64 0, i32 2
  %reserved.i.i = getelementptr inbounds %class.StateMap, ptr %this, i64 0, i32 2, i32 1
  store i32 %n, ptr %reserved.i.i, align 4, !tbaa !83
  store i32 %n, ptr %t, align 8, !tbaa !10
  %cmp.i.i = icmp slt i32 %n, 1
  br i1 %cmp.i.i, label %_ZN5ArrayIjLi0EEC2Ei.exit, label %if.end.i.i

if.end.i.i:                                       ; preds = %entry
  %mul.i.i = shl i32 %n, 2
  %0 = load i32, ptr @programChecker, align 8, !tbaa !13
  %add.i.i.i = add nsw i32 %0, %mul.i.i
  store i32 %add.i.i.i, ptr @programChecker, align 8, !tbaa !13
  %1 = load i32, ptr getelementptr inbounds (%class.ProgramChecker, ptr @programChecker, i64 0, i32 1), align 4, !tbaa !16
  %cmp.i.i.i = icmp sgt i32 %add.i.i.i, %1
  br i1 %cmp.i.i.i, label %if.then.i.i.i, label %_ZN14ProgramChecker5allocEi.exit.i.i

if.then.i.i.i:                                    ; preds = %if.end.i.i
  store i32 %add.i.i.i, ptr getelementptr inbounds (%class.ProgramChecker, ptr @programChecker, i64 0, i32 1), align 4, !tbaa !16
  br label %_ZN14ProgramChecker5allocEi.exit.i.i

_ZN14ProgramChecker5allocEi.exit.i.i:             ; preds = %if.then.i.i.i, %if.end.i.i
  %conv4.i.i = sext i32 %mul.i.i to i64
  %call.i.i = tail call noalias ptr @calloc(i64 noundef %conv4.i.i, i64 noundef 1) #41
  %ptr5.i.i = getelementptr inbounds %class.StateMap, ptr %this, i64 0, i32 2, i32 2
  store ptr %call.i.i, ptr %ptr5.i.i, align 8, !tbaa !17
  %tobool.not.i.i = icmp eq ptr %call.i.i, null
  br i1 %tobool.not.i.i, label %if.then7.i.i, label %for.body.lr.ph

if.then7.i.i:                                     ; preds = %_ZN14ProgramChecker5allocEi.exit.i.i
  %exception.i.i.i = tail call ptr @__cxa_allocate_exception(i64 8) #39
  store ptr @.str.59, ptr %exception.i.i.i, align 16, !tbaa !5
  tail call void @__cxa_throw(ptr nonnull %exception.i.i.i, ptr nonnull @_ZTIPKc, ptr null) #40
  unreachable

_ZN5ArrayIjLi0EEC2Ei.exit:                        ; preds = %entry
  %ptr.i.i = getelementptr inbounds %class.StateMap, ptr %this, i64 0, i32 2, i32 2
  tail call void @llvm.memset.p0.i64(ptr noundef nonnull align 8 dereferenceable(16) %ptr.i.i, i8 0, i64 16, i1 false)
  br label %for.cond.cleanup

for.body.lr.ph:                                   ; preds = %_ZN14ProgramChecker5allocEi.exit.i.i
  %data10.i.i = getelementptr inbounds %class.StateMap, ptr %this, i64 0, i32 2, i32 3
  store ptr %call.i.i, ptr %data10.i.i, align 8, !tbaa !84
  %2 = sext i32 %n to i64
  %smax = tail call i64 @llvm.smax.i64(i64 %2, i64 1)
  %min.iters.check = icmp ult i64 %smax, 8
  br i1 %min.iters.check, label %for.body.preheader, label %vector.ph

vector.ph:                                        ; preds = %for.body.lr.ph
  %n.vec = and i64 %smax, 9223372036854775800
  br label %vector.body

vector.body:                                      ; preds = %vector.body, %vector.ph
  %index = phi i64 [ 0, %vector.ph ], [ %index.next, %vector.body ]
  %3 = getelementptr inbounds i32, ptr %call.i.i, i64 %index
  store <4 x i32> <i32 -2147483648, i32 -2147483648, i32 -2147483648, i32 -2147483648>, ptr %3, align 4, !tbaa !25
  %4 = getelementptr inbounds i32, ptr %3, i64 4
  store <4 x i32> <i32 -2147483648, i32 -2147483648, i32 -2147483648, i32 -2147483648>, ptr %4, align 4, !tbaa !25
  %index.next = add nuw i64 %index, 8
  %5 = icmp eq i64 %index.next, %n.vec
  br i1 %5, label %middle.block, label %vector.body, !llvm.loop !85

middle.block:                                     ; preds = %vector.body
  %cmp.n = icmp eq i64 %smax, %n.vec
  br i1 %cmp.n, label %for.cond.cleanup, label %for.body.preheader

for.body.preheader:                               ; preds = %for.body.lr.ph, %middle.block
  %indvars.iv.ph = phi i64 [ 0, %for.body.lr.ph ], [ %n.vec, %middle.block ]
  br label %for.body

for.cond.cleanup:                                 ; preds = %for.body, %middle.block, %_ZN5ArrayIjLi0EEC2Ei.exit
  ret void

for.body:                                         ; preds = %for.body.preheader, %for.body
  %indvars.iv = phi i64 [ %indvars.iv.next, %for.body ], [ %indvars.iv.ph, %for.body.preheader ]
  %arrayidx.i = getelementptr inbounds i32, ptr %call.i.i, i64 %indvars.iv
  store i32 -2147483648, ptr %arrayidx.i, align 4, !tbaa !25
  %indvars.iv.next = add nuw nsw i64 %indvars.iv, 1
  %cmp = icmp slt i64 %indvars.iv.next, %2
  br i1 %cmp, label %for.body, label %for.cond.cleanup, !llvm.loop !86
}

; Function Attrs: uwtable
define linkonce_odr dso_local void @_ZN5ArrayIjLi0EEC2Ei(ptr noundef nonnull align 8 dereferenceable(24) %this, i32 noundef %i) unnamed_addr #5 comdat align 2 {
entry:
  %reserved.i = getelementptr inbounds %class.Array, ptr %this, i64 0, i32 1
  store i32 %i, ptr %reserved.i, align 4, !tbaa !83
  store i32 %i, ptr %this, align 8, !tbaa !10
  %cmp.i = icmp slt i32 %i, 1
  br i1 %cmp.i, label %if.then.i, label %if.end.i

if.then.i:                                        ; preds = %entry
  %ptr.i = getelementptr inbounds %class.Array, ptr %this, i64 0, i32 2
  tail call void @llvm.memset.p0.i64(ptr noundef nonnull align 8 dereferenceable(16) %ptr.i, i8 0, i64 16, i1 false)
  br label %_ZN5ArrayIjLi0EE6createEi.exit

if.end.i:                                         ; preds = %entry
  %mul.i = shl i32 %i, 2
  %0 = load i32, ptr @programChecker, align 8, !tbaa !13
  %add.i.i = add nsw i32 %0, %mul.i
  store i32 %add.i.i, ptr @programChecker, align 8, !tbaa !13
  %1 = load i32, ptr getelementptr inbounds (%class.ProgramChecker, ptr @programChecker, i64 0, i32 1), align 4, !tbaa !16
  %cmp.i.i = icmp sgt i32 %add.i.i, %1
  br i1 %cmp.i.i, label %if.then.i.i, label %_ZN14ProgramChecker5allocEi.exit.i

if.then.i.i:                                      ; preds = %if.end.i
  store i32 %add.i.i, ptr getelementptr inbounds (%class.ProgramChecker, ptr @programChecker, i64 0, i32 1), align 4, !tbaa !16
  br label %_ZN14ProgramChecker5allocEi.exit.i

_ZN14ProgramChecker5allocEi.exit.i:               ; preds = %if.then.i.i, %if.end.i
  %conv4.i = sext i32 %mul.i to i64
  %call.i = tail call noalias ptr @calloc(i64 noundef %conv4.i, i64 noundef 1) #41
  %ptr5.i = getelementptr inbounds %class.Array, ptr %this, i64 0, i32 2
  store ptr %call.i, ptr %ptr5.i, align 8, !tbaa !17
  %tobool.not.i = icmp eq ptr %call.i, null
  br i1 %tobool.not.i, label %if.then7.i, label %if.end8.i

if.then7.i:                                       ; preds = %_ZN14ProgramChecker5allocEi.exit.i
  %exception.i.i = tail call ptr @__cxa_allocate_exception(i64 8) #39
  store ptr @.str.59, ptr %exception.i.i, align 16, !tbaa !5
  tail call void @__cxa_throw(ptr nonnull %exception.i.i, ptr nonnull @_ZTIPKc, ptr null) #40
  unreachable

if.end8.i:                                        ; preds = %_ZN14ProgramChecker5allocEi.exit.i
  %data10.i = getelementptr inbounds %class.Array, ptr %this, i64 0, i32 3
  store ptr %call.i, ptr %data10.i, align 8, !tbaa !84
  br label %_ZN5ArrayIjLi0EE6createEi.exit

_ZN5ArrayIjLi0EE6createEi.exit:                   ; preds = %if.then.i, %if.end8.i
  ret void
}

; Function Attrs: nounwind uwtable
define linkonce_odr dso_local void @_ZN5ArrayIjLi0EED2Ev(ptr noundef nonnull align 8 dereferenceable(24) %this) unnamed_addr #6 comdat align 2 {
entry:
  %0 = load i32, ptr %this, align 8, !tbaa !10
  %1 = load i32, ptr @programChecker, align 8, !tbaa !13
  %2 = shl i32 %0, 2
  %add.i = sub i32 %1, %2
  store i32 %add.i, ptr @programChecker, align 8, !tbaa !13
  %3 = load i32, ptr getelementptr inbounds (%class.ProgramChecker, ptr @programChecker, i64 0, i32 1), align 4, !tbaa !16
  %cmp.i = icmp sgt i32 %add.i, %3
  br i1 %cmp.i, label %if.then.i, label %_ZN14ProgramChecker5allocEi.exit

if.then.i:                                        ; preds = %entry
  store i32 %add.i, ptr getelementptr inbounds (%class.ProgramChecker, ptr @programChecker, i64 0, i32 1), align 4, !tbaa !16
  br label %_ZN14ProgramChecker5allocEi.exit

_ZN14ProgramChecker5allocEi.exit:                 ; preds = %entry, %if.then.i
  %ptr = getelementptr inbounds %class.Array, ptr %this, i64 0, i32 2
  %4 = load ptr, ptr %ptr, align 8, !tbaa !17
  tail call void @free(ptr noundef %4) #39
  ret void
}

; Function Attrs: uwtable
define dso_local void @_ZN3APMC2Ei(ptr nocapture noundef nonnull writeonly align 8 dereferenceable(32) %this, i32 noundef %n) unnamed_addr #5 align 2 personality ptr @__gxx_personality_v0 {
entry:
  %mul = mul nsw i32 %n, 24
  store i32 %mul, ptr %this, align 8, !tbaa !80
  %cxt.i = getelementptr inbounds %class.StateMap, ptr %this, i64 0, i32 1
  store i32 0, ptr %cxt.i, align 4, !tbaa !82
  %t.i = getelementptr inbounds %class.StateMap, ptr %this, i64 0, i32 2
  %reserved.i.i.i = getelementptr inbounds %class.StateMap, ptr %this, i64 0, i32 2, i32 1
  store i32 %mul, ptr %reserved.i.i.i, align 4, !tbaa !83
  store i32 %mul, ptr %t.i, align 8, !tbaa !10
  %cmp.i.i.i = icmp slt i32 %n, 1
  br i1 %cmp.i.i.i, label %_ZN8StateMapC2Ei.exit.thread, label %if.end.i.i.i

if.end.i.i.i:                                     ; preds = %entry
  %mul.i.i.i = mul i32 %n, 96
  %0 = load i32, ptr @programChecker, align 8, !tbaa !13
  %add.i.i.i.i = add nsw i32 %0, %mul.i.i.i
  store i32 %add.i.i.i.i, ptr @programChecker, align 8, !tbaa !13
  %1 = load i32, ptr getelementptr inbounds (%class.ProgramChecker, ptr @programChecker, i64 0, i32 1), align 4, !tbaa !16
  %cmp.i.i.i.i = icmp sgt i32 %add.i.i.i.i, %1
  br i1 %cmp.i.i.i.i, label %if.then.i.i.i.i, label %_ZN14ProgramChecker5allocEi.exit.i.i.i

if.then.i.i.i.i:                                  ; preds = %if.end.i.i.i
  store i32 %add.i.i.i.i, ptr getelementptr inbounds (%class.ProgramChecker, ptr @programChecker, i64 0, i32 1), align 4, !tbaa !16
  br label %_ZN14ProgramChecker5allocEi.exit.i.i.i

_ZN14ProgramChecker5allocEi.exit.i.i.i:           ; preds = %if.then.i.i.i.i, %if.end.i.i.i
  %conv4.i.i.i = sext i32 %mul.i.i.i to i64
  %call.i.i.i = tail call noalias ptr @calloc(i64 noundef %conv4.i.i.i, i64 noundef 1) #41
  %ptr5.i.i.i = getelementptr inbounds %class.StateMap, ptr %this, i64 0, i32 2, i32 2
  store ptr %call.i.i.i, ptr %ptr5.i.i.i, align 8, !tbaa !17
  %tobool.not.i.i.i = icmp eq ptr %call.i.i.i, null
  br i1 %tobool.not.i.i.i, label %if.then7.i.i.i, label %for.body.lr.ph.i

if.then7.i.i.i:                                   ; preds = %_ZN14ProgramChecker5allocEi.exit.i.i.i
  %exception.i.i.i.i = tail call ptr @__cxa_allocate_exception(i64 8) #39
  store ptr @.str.59, ptr %exception.i.i.i.i, align 16, !tbaa !5
  tail call void @__cxa_throw(ptr nonnull %exception.i.i.i.i, ptr nonnull @_ZTIPKc, ptr null) #40
  unreachable

_ZN8StateMapC2Ei.exit.thread:                     ; preds = %entry
  %ptr.i.i.i = getelementptr inbounds %class.StateMap, ptr %this, i64 0, i32 2, i32 2
  tail call void @llvm.memset.p0.i64(ptr noundef nonnull align 8 dereferenceable(16) %ptr.i.i.i, i8 0, i64 16, i1 false)
  br label %for.cond.cleanup

for.body.lr.ph.i:                                 ; preds = %_ZN14ProgramChecker5allocEi.exit.i.i.i
  %data10.i.i.i = getelementptr inbounds %class.StateMap, ptr %this, i64 0, i32 2, i32 3
  store ptr %call.i.i.i, ptr %data10.i.i.i, align 8, !tbaa !84
  %2 = tail call i32 @llvm.umax.i32(i32 %mul, i32 1)
  %umax = zext i32 %2 to i64
  %min.iters.check = icmp ult i32 %2, 8
  br i1 %min.iters.check, label %for.body.i.preheader, label %vector.ph

vector.ph:                                        ; preds = %for.body.lr.ph.i
  %n.vec = and i64 %umax, 4294967288
  br label %vector.body

vector.body:                                      ; preds = %vector.body, %vector.ph
  %index = phi i64 [ 0, %vector.ph ], [ %index.next, %vector.body ]
  %3 = getelementptr inbounds i32, ptr %call.i.i.i, i64 %index
  store <4 x i32> <i32 -2147483648, i32 -2147483648, i32 -2147483648, i32 -2147483648>, ptr %3, align 4, !tbaa !25
  %4 = getelementptr inbounds i32, ptr %3, i64 4
  store <4 x i32> <i32 -2147483648, i32 -2147483648, i32 -2147483648, i32 -2147483648>, ptr %4, align 4, !tbaa !25
  %index.next = add nuw i64 %index, 8
  %5 = icmp eq i64 %index.next, %n.vec
  br i1 %5, label %middle.block, label %vector.body, !llvm.loop !87

middle.block:                                     ; preds = %vector.body
  %cmp.n = icmp eq i64 %n.vec, %umax
  br i1 %cmp.n, label %_ZN8StateMapC2Ei.exit, label %for.body.i.preheader

for.body.i.preheader:                             ; preds = %for.body.lr.ph.i, %middle.block
  %indvars.iv.i.ph = phi i64 [ 0, %for.body.lr.ph.i ], [ %n.vec, %middle.block ]
  br label %for.body.i

for.body.i:                                       ; preds = %for.body.i.preheader, %for.body.i
  %indvars.iv.i = phi i64 [ %indvars.iv.next.i, %for.body.i ], [ %indvars.iv.i.ph, %for.body.i.preheader ]
  %arrayidx.i.i = getelementptr inbounds i32, ptr %call.i.i.i, i64 %indvars.iv.i
  store i32 -2147483648, ptr %arrayidx.i.i, align 4, !tbaa !25
  %indvars.iv.next.i = add nuw nsw i64 %indvars.iv.i, 1
  %exitcond.not = icmp eq i64 %indvars.iv.next.i, %umax
  br i1 %exitcond.not, label %_ZN8StateMapC2Ei.exit, label %for.body.i, !llvm.loop !88

_ZN8StateMapC2Ei.exit:                            ; preds = %for.body.i, %middle.block
  %cmp13 = icmp sgt i32 %n, 0
  br i1 %cmp13, label %for.body.lr.ph, label %for.cond.cleanup

for.body.lr.ph:                                   ; preds = %_ZN8StateMapC2Ei.exit
  %6 = sext i32 %mul to i64
  br label %for.body

for.cond.cleanup:                                 ; preds = %_Z6squashi.exit, %_ZN8StateMapC2Ei.exit.thread, %_ZN8StateMapC2Ei.exit
  ret void

for.body:                                         ; preds = %for.body.lr.ph, %_Z6squashi.exit
  %indvars.iv = phi i64 [ 0, %for.body.lr.ph ], [ %indvars.iv.next, %_Z6squashi.exit ]
  %7 = trunc i64 %indvars.iv to i32
  %rem = urem i32 %7, 24
  %mul2 = shl nuw nsw i32 %rem, 13
  %add = or i32 %mul2, 4096
  %cmp.i10 = icmp ugt i32 %add, 196607
  br i1 %cmp.i10, label %_Z6squashi.exit, label %if.end3.i

if.end3.i:                                        ; preds = %for.body
  %div = udiv i32 %add, 48
  %sub = add nsw i32 %div, -2048
  %and.i = and i32 %div, 127
  %shr.i = ashr i32 %sub, 7
  %add.i = add nsw i32 %shr.i, 16
  %idxprom.i = zext i32 %add.i to i64
  %arrayidx.i = getelementptr inbounds [33 x i32], ptr @_ZZ6squashiE1t, i64 0, i64 %idxprom.i
  %8 = load i32, ptr %arrayidx.i, align 4, !tbaa !25
  %sub.i = sub nuw nsw i32 128, %and.i
  %mul.i = mul nsw i32 %8, %sub.i
  %add4.i = add nsw i32 %shr.i, 17
  %idxprom5.i = zext i32 %add4.i to i64
  %arrayidx6.i = getelementptr inbounds [33 x i32], ptr @_ZZ6squashiE1t, i64 0, i64 %idxprom5.i
  %9 = load i32, ptr %arrayidx6.i, align 4, !tbaa !25
  %mul7.i = mul nsw i32 %9, %and.i
  %add8.i = add i32 %mul.i, 64
  %add9.i = add i32 %add8.i, %mul7.i
  %shr10.i = ashr i32 %add9.i, 7
  br label %_Z6squashi.exit

_Z6squashi.exit:                                  ; preds = %for.body, %if.end3.i
  %retval.0.i = phi i32 [ %shr10.i, %if.end3.i ], [ 4095, %for.body ]
  %shl = shl i32 %retval.0.i, 20
  %add4 = or i32 %shl, 6
  %arrayidx.i12 = getelementptr inbounds i32, ptr %call.i.i.i, i64 %indvars.iv
  store i32 %add4, ptr %arrayidx.i12, align 4, !tbaa !25
  %indvars.iv.next = add nuw nsw i64 %indvars.iv, 1
  %cmp = icmp slt i64 %indvars.iv.next, %6
  br i1 %cmp, label %for.body, label %for.cond.cleanup, !llvm.loop !89
}

; Function Attrs: uwtable
define dso_local void @_ZN10ContextMapC2Eii(ptr noundef nonnull align 8 dereferenceable(140) %this, i32 noundef %m, i32 noundef %c) unnamed_addr #5 align 2 personality ptr @__gxx_personality_v0 {
entry:
  store i32 %c, ptr %this, align 8, !tbaa !90
  %t = getelementptr inbounds %class.ContextMap, ptr %this, i64 0, i32 2
  %shr = ashr i32 %m, 6
  %reserved.i.i = getelementptr inbounds %class.ContextMap, ptr %this, i64 0, i32 2, i32 1
  store i32 %shr, ptr %reserved.i.i, align 4, !tbaa !94
  store i32 %shr, ptr %t, align 8, !tbaa !95
  %cmp.i.i = icmp slt i32 %m, 64
  br i1 %cmp.i.i, label %if.then.i.i, label %if.end.i.i

if.then.i.i:                                      ; preds = %entry
  %ptr.i.i = getelementptr inbounds %class.ContextMap, ptr %this, i64 0, i32 2, i32 2
  tail call void @llvm.memset.p0.i64(ptr noundef nonnull align 8 dereferenceable(16) %ptr.i.i, i8 0, i64 16, i1 false)
  br label %_ZN5ArrayIN10ContextMap1EELi64EEC2Ei.exit

if.end.i.i:                                       ; preds = %entry
  %mul.i.i = and i32 %m, -64
  %add.i.i = add nuw i32 %mul.i.i, 64
  %0 = load i32, ptr @programChecker, align 8, !tbaa !13
  %add.i.i.i = add nsw i32 %0, %add.i.i
  store i32 %add.i.i.i, ptr @programChecker, align 8, !tbaa !13
  %1 = load i32, ptr getelementptr inbounds (%class.ProgramChecker, ptr @programChecker, i64 0, i32 1), align 4, !tbaa !16
  %cmp.i.i.i = icmp sgt i32 %add.i.i.i, %1
  br i1 %cmp.i.i.i, label %if.then.i.i.i, label %_ZN14ProgramChecker5allocEi.exit.i.i

if.then.i.i.i:                                    ; preds = %if.end.i.i
  store i32 %add.i.i.i, ptr getelementptr inbounds (%class.ProgramChecker, ptr @programChecker, i64 0, i32 1), align 4, !tbaa !16
  br label %_ZN14ProgramChecker5allocEi.exit.i.i

_ZN14ProgramChecker5allocEi.exit.i.i:             ; preds = %if.then.i.i.i, %if.end.i.i
  %conv4.i.i = sext i32 %add.i.i to i64
  %call.i.i = tail call noalias ptr @calloc(i64 noundef %conv4.i.i, i64 noundef 1) #41
  %ptr5.i.i = getelementptr inbounds %class.ContextMap, ptr %this, i64 0, i32 2, i32 2
  store ptr %call.i.i, ptr %ptr5.i.i, align 8, !tbaa !96
  %tobool.not.i.i = icmp eq ptr %call.i.i, null
  br i1 %tobool.not.i.i, label %if.then7.i.i, label %if.end8.i.i

if.then7.i.i:                                     ; preds = %_ZN14ProgramChecker5allocEi.exit.i.i
  %exception.i.i.i = tail call ptr @__cxa_allocate_exception(i64 8) #39
  store ptr @.str.59, ptr %exception.i.i.i, align 16, !tbaa !5
  tail call void @__cxa_throw(ptr nonnull %exception.i.i.i, ptr nonnull @_ZTIPKc, ptr null) #40
  unreachable

if.end8.i.i:                                      ; preds = %_ZN14ProgramChecker5allocEi.exit.i.i
  %add.ptr.i.i = getelementptr inbounds i8, ptr %call.i.i, i64 64
  %2 = ptrtoint ptr %call.i.i to i64
  %and.i.i = and i64 %2, 63
  %idx.neg.i.i = sub nsw i64 0, %and.i.i
  %add.ptr11.i.i = getelementptr inbounds i8, ptr %add.ptr.i.i, i64 %idx.neg.i.i
  %data12.i.i = getelementptr inbounds %class.ContextMap, ptr %this, i64 0, i32 2, i32 3
  store ptr %add.ptr11.i.i, ptr %data12.i.i, align 8, !tbaa !97
  br label %_ZN5ArrayIN10ContextMap1EELi64EEC2Ei.exit

_ZN5ArrayIN10ContextMap1EELi64EEC2Ei.exit:        ; preds = %if.then.i.i, %if.end8.i.i
  %cp = getelementptr inbounds %class.ContextMap, ptr %this, i64 0, i32 3
  %reserved.i.i51 = getelementptr inbounds %class.ContextMap, ptr %this, i64 0, i32 3, i32 1
  store i32 %c, ptr %reserved.i.i51, align 4, !tbaa !98
  store i32 %c, ptr %cp, align 8, !tbaa !99
  %cmp.i.i52 = icmp slt i32 %c, 1
  br i1 %cmp.i.i52, label %if.then.i.i110, label %if.end.i.i58

if.end.i.i58:                                     ; preds = %_ZN5ArrayIN10ContextMap1EELi64EEC2Ei.exit
  %mul.i.i55 = shl i32 %c, 3
  %3 = load i32, ptr @programChecker, align 8, !tbaa !13
  %add.i.i.i56 = add nsw i32 %3, %mul.i.i55
  store i32 %add.i.i.i56, ptr @programChecker, align 8, !tbaa !13
  %4 = load i32, ptr getelementptr inbounds (%class.ProgramChecker, ptr @programChecker, i64 0, i32 1), align 4, !tbaa !16
  %cmp.i.i.i57 = icmp sgt i32 %add.i.i.i56, %4
  br i1 %cmp.i.i.i57, label %if.then.i.i.i59, label %_ZN14ProgramChecker5allocEi.exit.i.i64

if.then.i.i.i59:                                  ; preds = %if.end.i.i58
  store i32 %add.i.i.i56, ptr getelementptr inbounds (%class.ProgramChecker, ptr @programChecker, i64 0, i32 1), align 4, !tbaa !16
  br label %_ZN14ProgramChecker5allocEi.exit.i.i64

_ZN14ProgramChecker5allocEi.exit.i.i64:           ; preds = %if.then.i.i.i59, %if.end.i.i58
  %5 = phi i32 [ %add.i.i.i56, %if.then.i.i.i59 ], [ %4, %if.end.i.i58 ]
  %conv4.i.i60 = sext i32 %mul.i.i55 to i64
  %call.i.i61 = tail call noalias ptr @calloc(i64 noundef %conv4.i.i60, i64 noundef 1) #41
  %ptr5.i.i62 = getelementptr inbounds %class.ContextMap, ptr %this, i64 0, i32 3, i32 2
  store ptr %call.i.i61, ptr %ptr5.i.i62, align 8, !tbaa !100
  %tobool.not.i.i63 = icmp eq ptr %call.i.i61, null
  br i1 %tobool.not.i.i63, label %if.then7.i.i66, label %if.end.i.i75

if.then7.i.i66:                                   ; preds = %_ZN14ProgramChecker5allocEi.exit.i.i64
  %exception.i.i.i65 = tail call ptr @__cxa_allocate_exception(i64 8) #39
  store ptr @.str.59, ptr %exception.i.i.i65, align 16, !tbaa !5
  invoke void @__cxa_throw(ptr nonnull %exception.i.i.i65, ptr nonnull @_ZTIPKc, ptr null) #40
          to label %.noexc unwind label %lpad

.noexc:                                           ; preds = %if.then7.i.i66
  unreachable

if.end.i.i75:                                     ; preds = %_ZN14ProgramChecker5allocEi.exit.i.i64
  %data10.i.i = getelementptr inbounds %class.ContextMap, ptr %this, i64 0, i32 3, i32 3
  store ptr %call.i.i61, ptr %data10.i.i, align 8, !tbaa !101
  %cp0 = getelementptr inbounds %class.ContextMap, ptr %this, i64 0, i32 4
  %reserved.i.i68 = getelementptr inbounds %class.ContextMap, ptr %this, i64 0, i32 4, i32 1
  store i32 %c, ptr %reserved.i.i68, align 4, !tbaa !98
  store i32 %c, ptr %cp0, align 8, !tbaa !99
  %add.i.i.i73 = add nsw i32 %add.i.i.i56, %mul.i.i55
  store i32 %add.i.i.i73, ptr @programChecker, align 8, !tbaa !13
  %cmp.i.i.i74 = icmp sgt i32 %add.i.i.i73, %5
  br i1 %cmp.i.i.i74, label %if.then.i.i.i76, label %_ZN14ProgramChecker5allocEi.exit.i.i81

if.then.i.i.i76:                                  ; preds = %if.end.i.i75
  store i32 %add.i.i.i73, ptr getelementptr inbounds (%class.ProgramChecker, ptr @programChecker, i64 0, i32 1), align 4, !tbaa !16
  br label %_ZN14ProgramChecker5allocEi.exit.i.i81

_ZN14ProgramChecker5allocEi.exit.i.i81:           ; preds = %if.then.i.i.i76, %if.end.i.i75
  %6 = phi i32 [ %add.i.i.i73, %if.then.i.i.i76 ], [ %5, %if.end.i.i75 ]
  %call.i.i78 = tail call noalias ptr @calloc(i64 noundef %conv4.i.i60, i64 noundef 1) #41
  %ptr5.i.i79 = getelementptr inbounds %class.ContextMap, ptr %this, i64 0, i32 4, i32 2
  store ptr %call.i.i78, ptr %ptr5.i.i79, align 8, !tbaa !100
  %tobool.not.i.i80 = icmp eq ptr %call.i.i78, null
  br i1 %tobool.not.i.i80, label %if.then7.i.i83, label %if.end.i.i95

if.then7.i.i83:                                   ; preds = %_ZN14ProgramChecker5allocEi.exit.i.i81
  %exception.i.i.i82 = tail call ptr @__cxa_allocate_exception(i64 8) #39
  store ptr @.str.59, ptr %exception.i.i.i82, align 16, !tbaa !5
  invoke void @__cxa_throw(ptr nonnull %exception.i.i.i82, ptr nonnull @_ZTIPKc, ptr null) #40
          to label %.noexc86 unwind label %lpad2

.noexc86:                                         ; preds = %if.then7.i.i83
  unreachable

if.end.i.i95:                                     ; preds = %_ZN14ProgramChecker5allocEi.exit.i.i81
  %data10.i.i84 = getelementptr inbounds %class.ContextMap, ptr %this, i64 0, i32 4, i32 3
  store ptr %call.i.i78, ptr %data10.i.i84, align 8, !tbaa !101
  %cxt = getelementptr inbounds %class.ContextMap, ptr %this, i64 0, i32 5
  %reserved.i.i88 = getelementptr inbounds %class.ContextMap, ptr %this, i64 0, i32 5, i32 1
  store i32 %c, ptr %reserved.i.i88, align 4, !tbaa !83
  store i32 %c, ptr %cxt, align 8, !tbaa !10
  %mul.i.i92 = shl i32 %c, 2
  %add.i.i.i93 = add nsw i32 %add.i.i.i73, %mul.i.i92
  store i32 %add.i.i.i93, ptr @programChecker, align 8, !tbaa !13
  %cmp.i.i.i94 = icmp sgt i32 %add.i.i.i93, %6
  br i1 %cmp.i.i.i94, label %if.then.i.i.i96, label %_ZN14ProgramChecker5allocEi.exit.i.i101

if.then.i.i.i96:                                  ; preds = %if.end.i.i95
  store i32 %add.i.i.i93, ptr getelementptr inbounds (%class.ProgramChecker, ptr @programChecker, i64 0, i32 1), align 4, !tbaa !16
  br label %_ZN14ProgramChecker5allocEi.exit.i.i101

_ZN14ProgramChecker5allocEi.exit.i.i101:          ; preds = %if.then.i.i.i96, %if.end.i.i95
  %7 = phi i32 [ %add.i.i.i93, %if.then.i.i.i96 ], [ %6, %if.end.i.i95 ]
  %conv4.i.i97 = sext i32 %mul.i.i92 to i64
  %call.i.i98 = tail call noalias ptr @calloc(i64 noundef %conv4.i.i97, i64 noundef 1) #41
  %ptr5.i.i99 = getelementptr inbounds %class.ContextMap, ptr %this, i64 0, i32 5, i32 2
  store ptr %call.i.i98, ptr %ptr5.i.i99, align 8, !tbaa !17
  %tobool.not.i.i100 = icmp eq ptr %call.i.i98, null
  br i1 %tobool.not.i.i100, label %if.then7.i.i103, label %if.end.i.i114

if.then7.i.i103:                                  ; preds = %_ZN14ProgramChecker5allocEi.exit.i.i101
  %exception.i.i.i102 = tail call ptr @__cxa_allocate_exception(i64 8) #39
  store ptr @.str.59, ptr %exception.i.i.i102, align 16, !tbaa !5
  invoke void @__cxa_throw(ptr nonnull %exception.i.i.i102, ptr nonnull @_ZTIPKc, ptr null) #40
          to label %.noexc106 unwind label %lpad4

.noexc106:                                        ; preds = %if.then7.i.i103
  unreachable

if.then.i.i110:                                   ; preds = %_ZN5ArrayIN10ContextMap1EELi64EEC2Ei.exit
  %ptr.i.i53 = getelementptr inbounds %class.ContextMap, ptr %this, i64 0, i32 3, i32 2
  tail call void @llvm.memset.p0.i64(ptr noundef nonnull align 8 dereferenceable(16) %ptr.i.i53, i8 0, i64 16, i1 false)
  %cp0138 = getelementptr inbounds %class.ContextMap, ptr %this, i64 0, i32 4
  %reserved.i.i68139 = getelementptr inbounds %class.ContextMap, ptr %this, i64 0, i32 4, i32 1
  store i32 %c, ptr %reserved.i.i68139, align 4, !tbaa !98
  store i32 %c, ptr %cp0138, align 8, !tbaa !99
  %ptr.i.i70 = getelementptr inbounds %class.ContextMap, ptr %this, i64 0, i32 4, i32 2
  tail call void @llvm.memset.p0.i64(ptr noundef nonnull align 8 dereferenceable(16) %ptr.i.i70, i8 0, i64 16, i1 false)
  %cxt143 = getelementptr inbounds %class.ContextMap, ptr %this, i64 0, i32 5
  %reserved.i.i88144 = getelementptr inbounds %class.ContextMap, ptr %this, i64 0, i32 5, i32 1
  store i32 %c, ptr %reserved.i.i88144, align 4, !tbaa !83
  store i32 %c, ptr %cxt143, align 8, !tbaa !10
  %ptr.i.i90 = getelementptr inbounds %class.ContextMap, ptr %this, i64 0, i32 5, i32 2
  tail call void @llvm.memset.p0.i64(ptr noundef nonnull align 8 dereferenceable(16) %ptr.i.i90, i8 0, i64 16, i1 false)
  %runp152 = getelementptr inbounds %class.ContextMap, ptr %this, i64 0, i32 6
  %reserved.i.i107153 = getelementptr inbounds %class.ContextMap, ptr %this, i64 0, i32 6, i32 1
  store i32 %c, ptr %reserved.i.i107153, align 4, !tbaa !98
  store i32 %c, ptr %runp152, align 8, !tbaa !99
  %ptr.i.i109 = getelementptr inbounds %class.ContextMap, ptr %this, i64 0, i32 6, i32 2
  tail call void @llvm.memset.p0.i64(ptr noundef nonnull align 8 dereferenceable(16) %ptr.i.i109, i8 0, i64 16, i1 false)
  br label %invoke.cont7

if.end.i.i114:                                    ; preds = %_ZN14ProgramChecker5allocEi.exit.i.i101
  %data10.i.i104 = getelementptr inbounds %class.ContextMap, ptr %this, i64 0, i32 5, i32 3
  store ptr %call.i.i98, ptr %data10.i.i104, align 8, !tbaa !84
  %runp = getelementptr inbounds %class.ContextMap, ptr %this, i64 0, i32 6
  %reserved.i.i107 = getelementptr inbounds %class.ContextMap, ptr %this, i64 0, i32 6, i32 1
  store i32 %c, ptr %reserved.i.i107, align 4, !tbaa !98
  store i32 %c, ptr %runp, align 8, !tbaa !99
  %add.i.i.i112 = add nsw i32 %add.i.i.i93, %mul.i.i55
  store i32 %add.i.i.i112, ptr @programChecker, align 8, !tbaa !13
  %cmp.i.i.i113 = icmp sgt i32 %add.i.i.i112, %7
  br i1 %cmp.i.i.i113, label %if.then.i.i.i115, label %_ZN14ProgramChecker5allocEi.exit.i.i120

if.then.i.i.i115:                                 ; preds = %if.end.i.i114
  store i32 %add.i.i.i112, ptr getelementptr inbounds (%class.ProgramChecker, ptr @programChecker, i64 0, i32 1), align 4, !tbaa !16
  br label %_ZN14ProgramChecker5allocEi.exit.i.i120

_ZN14ProgramChecker5allocEi.exit.i.i120:          ; preds = %if.then.i.i.i115, %if.end.i.i114
  %call.i.i117 = tail call noalias ptr @calloc(i64 noundef %conv4.i.i60, i64 noundef 1) #41
  %ptr5.i.i118 = getelementptr inbounds %class.ContextMap, ptr %this, i64 0, i32 6, i32 2
  store ptr %call.i.i117, ptr %ptr5.i.i118, align 8, !tbaa !100
  %tobool.not.i.i119 = icmp eq ptr %call.i.i117, null
  br i1 %tobool.not.i.i119, label %if.then7.i.i122, label %if.end8.i.i124

if.then7.i.i122:                                  ; preds = %_ZN14ProgramChecker5allocEi.exit.i.i120
  %exception.i.i.i121 = tail call ptr @__cxa_allocate_exception(i64 8) #39
  store ptr @.str.59, ptr %exception.i.i.i121, align 16, !tbaa !5
  invoke void @__cxa_throw(ptr nonnull %exception.i.i.i121, ptr nonnull @_ZTIPKc, ptr null) #40
          to label %.noexc125 unwind label %lpad6

.noexc125:                                        ; preds = %if.then7.i.i122
  unreachable

if.end8.i.i124:                                   ; preds = %_ZN14ProgramChecker5allocEi.exit.i.i120
  %data10.i.i123 = getelementptr inbounds %class.ContextMap, ptr %this, i64 0, i32 6, i32 3
  store ptr %call.i.i117, ptr %data10.i.i123, align 8, !tbaa !101
  br label %invoke.cont7

invoke.cont7:                                     ; preds = %if.end8.i.i124, %if.then.i.i110
  %runp160 = phi ptr [ %runp152, %if.then.i.i110 ], [ %runp, %if.end8.i.i124 ]
  %cp0140146158 = phi ptr [ %cp0138, %if.then.i.i110 ], [ %cp0, %if.end8.i.i124 ]
  %cxt148155 = phi ptr [ %cxt143, %if.then.i.i110 ], [ %cxt, %if.end8.i.i124 ]
  %cn = getelementptr inbounds %class.ContextMap, ptr %this, i64 0, i32 8
  store i32 0, ptr %cn, align 8, !tbaa !102
  %conv = sext i32 %c to i64
  %8 = icmp slt i32 %c, 0
  %9 = shl nsw i64 %conv, 5
  %10 = or i64 %9, 8
  %11 = select i1 %8, i64 -1, i64 %10
  %call = invoke noalias noundef nonnull ptr @_Znam(i64 noundef %11) #43
          to label %invoke.cont10 unwind label %lpad9

invoke.cont10:                                    ; preds = %invoke.cont7
  store i64 %conv, ptr %call, align 16
  %12 = getelementptr inbounds i8, ptr %call, i64 8
  %isempty = icmp eq i32 %c, 0
  br i1 %isempty, label %arrayctor.cont.thread, label %new.ctorloop

arrayctor.cont.thread:                            ; preds = %invoke.cont10
  %sm173 = getelementptr inbounds %class.ContextMap, ptr %this, i64 0, i32 7
  store ptr %12, ptr %sm173, align 8, !tbaa !103
  br label %for.cond.cleanup

new.ctorloop:                                     ; preds = %invoke.cont10
  %arrayctor.end = getelementptr inbounds %class.StateMap, ptr %12, i64 %conv
  %programChecker.promoted = load i32, ptr @programChecker, align 8, !tbaa !13
  %.promoted = load i32, ptr getelementptr inbounds (%class.ProgramChecker, ptr @programChecker, i64 0, i32 1), align 4, !tbaa !16
  br label %arrayctor.loop

arrayctor.loop:                                   ; preds = %for.body.lr.ph.i, %new.ctorloop
  %add.i.i.i.i166 = phi i32 [ %.promoted, %new.ctorloop ], [ %add.i.i.i.i165, %for.body.lr.ph.i ]
  %add.i.i.i.i163 = phi i32 [ %programChecker.promoted, %new.ctorloop ], [ %add.i.i.i.i, %for.body.lr.ph.i ]
  %arrayctor.cur = phi ptr [ %12, %new.ctorloop ], [ %arrayctor.next, %for.body.lr.ph.i ]
  store <4 x i32> <i32 256, i32 0, i32 256, i32 256>, ptr %arrayctor.cur, align 8, !tbaa !25
  %add.i.i.i.i = add nsw i32 %add.i.i.i.i163, 1024
  %cmp.i.i.i.i = icmp sgt i32 %add.i.i.i.i, %add.i.i.i.i166
  br i1 %cmp.i.i.i.i, label %if.then.i.i.i.i, label %_ZN14ProgramChecker5allocEi.exit.i.i.i

if.then.i.i.i.i:                                  ; preds = %arrayctor.loop
  store i32 %add.i.i.i.i, ptr getelementptr inbounds (%class.ProgramChecker, ptr @programChecker, i64 0, i32 1), align 4, !tbaa !16
  br label %_ZN14ProgramChecker5allocEi.exit.i.i.i

_ZN14ProgramChecker5allocEi.exit.i.i.i:           ; preds = %if.then.i.i.i.i, %arrayctor.loop
  %add.i.i.i.i165 = phi i32 [ %add.i.i.i.i, %if.then.i.i.i.i ], [ %add.i.i.i.i166, %arrayctor.loop ]
  %call.i.i.i = tail call noalias dereferenceable_or_null(1024) ptr @calloc(i64 noundef 1024, i64 noundef 1) #41
  %ptr5.i.i.i = getelementptr inbounds %class.StateMap, ptr %arrayctor.cur, i64 0, i32 2, i32 2
  store ptr %call.i.i.i, ptr %ptr5.i.i.i, align 8, !tbaa !17
  %tobool.not.i.i.i = icmp eq ptr %call.i.i.i, null
  br i1 %tobool.not.i.i.i, label %if.then7.i.i.i, label %for.body.lr.ph.i

if.then7.i.i.i:                                   ; preds = %_ZN14ProgramChecker5allocEi.exit.i.i.i
  store i32 %add.i.i.i.i, ptr @programChecker, align 8, !tbaa !13
  %exception.i.i.i.i = tail call ptr @__cxa_allocate_exception(i64 8) #39
  store ptr @.str.59, ptr %exception.i.i.i.i, align 16, !tbaa !5
  invoke void @__cxa_throw(ptr nonnull %exception.i.i.i.i, ptr nonnull @_ZTIPKc, ptr null) #40
          to label %.noexc127 unwind label %lpad11

.noexc127:                                        ; preds = %if.then7.i.i.i
  unreachable

for.body.lr.ph.i:                                 ; preds = %_ZN14ProgramChecker5allocEi.exit.i.i.i
  %data10.i.i.i = getelementptr inbounds %class.StateMap, ptr %arrayctor.cur, i64 0, i32 2, i32 3
  store ptr %call.i.i.i, ptr %data10.i.i.i, align 8, !tbaa !84
  store <4 x i32> <i32 -2147483648, i32 -2147483648, i32 -2147483648, i32 -2147483648>, ptr %call.i.i.i, align 4, !tbaa !25
  %13 = getelementptr inbounds i32, ptr %call.i.i.i, i64 4
  store <4 x i32> <i32 -2147483648, i32 -2147483648, i32 -2147483648, i32 -2147483648>, ptr %13, align 4, !tbaa !25
  %14 = getelementptr inbounds i32, ptr %call.i.i.i, i64 8
  store <4 x i32> <i32 -2147483648, i32 -2147483648, i32 -2147483648, i32 -2147483648>, ptr %14, align 4, !tbaa !25
  %15 = getelementptr inbounds i32, ptr %call.i.i.i, i64 12
  store <4 x i32> <i32 -2147483648, i32 -2147483648, i32 -2147483648, i32 -2147483648>, ptr %15, align 4, !tbaa !25
  %16 = getelementptr inbounds i32, ptr %call.i.i.i, i64 16
  store <4 x i32> <i32 -2147483648, i32 -2147483648, i32 -2147483648, i32 -2147483648>, ptr %16, align 4, !tbaa !25
  %17 = getelementptr inbounds i32, ptr %call.i.i.i, i64 20
  store <4 x i32> <i32 -2147483648, i32 -2147483648, i32 -2147483648, i32 -2147483648>, ptr %17, align 4, !tbaa !25
  %18 = getelementptr inbounds i32, ptr %call.i.i.i, i64 24
  store <4 x i32> <i32 -2147483648, i32 -2147483648, i32 -2147483648, i32 -2147483648>, ptr %18, align 4, !tbaa !25
  %19 = getelementptr inbounds i32, ptr %call.i.i.i, i64 28
  store <4 x i32> <i32 -2147483648, i32 -2147483648, i32 -2147483648, i32 -2147483648>, ptr %19, align 4, !tbaa !25
  %20 = getelementptr inbounds i32, ptr %call.i.i.i, i64 32
  store <4 x i32> <i32 -2147483648, i32 -2147483648, i32 -2147483648, i32 -2147483648>, ptr %20, align 4, !tbaa !25
  %21 = getelementptr inbounds i32, ptr %call.i.i.i, i64 36
  store <4 x i32> <i32 -2147483648, i32 -2147483648, i32 -2147483648, i32 -2147483648>, ptr %21, align 4, !tbaa !25
  %22 = getelementptr inbounds i32, ptr %call.i.i.i, i64 40
  store <4 x i32> <i32 -2147483648, i32 -2147483648, i32 -2147483648, i32 -2147483648>, ptr %22, align 4, !tbaa !25
  %23 = getelementptr inbounds i32, ptr %call.i.i.i, i64 44
  store <4 x i32> <i32 -2147483648, i32 -2147483648, i32 -2147483648, i32 -2147483648>, ptr %23, align 4, !tbaa !25
  %24 = getelementptr inbounds i32, ptr %call.i.i.i, i64 48
  store <4 x i32> <i32 -2147483648, i32 -2147483648, i32 -2147483648, i32 -2147483648>, ptr %24, align 4, !tbaa !25
  %25 = getelementptr inbounds i32, ptr %call.i.i.i, i64 52
  store <4 x i32> <i32 -2147483648, i32 -2147483648, i32 -2147483648, i32 -2147483648>, ptr %25, align 4, !tbaa !25
  %26 = getelementptr inbounds i32, ptr %call.i.i.i, i64 56
  store <4 x i32> <i32 -2147483648, i32 -2147483648, i32 -2147483648, i32 -2147483648>, ptr %26, align 4, !tbaa !25
  %27 = getelementptr inbounds i32, ptr %call.i.i.i, i64 60
  store <4 x i32> <i32 -2147483648, i32 -2147483648, i32 -2147483648, i32 -2147483648>, ptr %27, align 4, !tbaa !25
  %28 = getelementptr inbounds i32, ptr %call.i.i.i, i64 64
  store <4 x i32> <i32 -2147483648, i32 -2147483648, i32 -2147483648, i32 -2147483648>, ptr %28, align 4, !tbaa !25
  %29 = getelementptr inbounds i32, ptr %call.i.i.i, i64 68
  store <4 x i32> <i32 -2147483648, i32 -2147483648, i32 -2147483648, i32 -2147483648>, ptr %29, align 4, !tbaa !25
  %30 = getelementptr inbounds i32, ptr %call.i.i.i, i64 72
  store <4 x i32> <i32 -2147483648, i32 -2147483648, i32 -2147483648, i32 -2147483648>, ptr %30, align 4, !tbaa !25
  %31 = getelementptr inbounds i32, ptr %call.i.i.i, i64 76
  store <4 x i32> <i32 -2147483648, i32 -2147483648, i32 -2147483648, i32 -2147483648>, ptr %31, align 4, !tbaa !25
  %32 = getelementptr inbounds i32, ptr %call.i.i.i, i64 80
  store <4 x i32> <i32 -2147483648, i32 -2147483648, i32 -2147483648, i32 -2147483648>, ptr %32, align 4, !tbaa !25
  %33 = getelementptr inbounds i32, ptr %call.i.i.i, i64 84
  store <4 x i32> <i32 -2147483648, i32 -2147483648, i32 -2147483648, i32 -2147483648>, ptr %33, align 4, !tbaa !25
  %34 = getelementptr inbounds i32, ptr %call.i.i.i, i64 88
  store <4 x i32> <i32 -2147483648, i32 -2147483648, i32 -2147483648, i32 -2147483648>, ptr %34, align 4, !tbaa !25
  %35 = getelementptr inbounds i32, ptr %call.i.i.i, i64 92
  store <4 x i32> <i32 -2147483648, i32 -2147483648, i32 -2147483648, i32 -2147483648>, ptr %35, align 4, !tbaa !25
  %36 = getelementptr inbounds i32, ptr %call.i.i.i, i64 96
  store <4 x i32> <i32 -2147483648, i32 -2147483648, i32 -2147483648, i32 -2147483648>, ptr %36, align 4, !tbaa !25
  %37 = getelementptr inbounds i32, ptr %call.i.i.i, i64 100
  store <4 x i32> <i32 -2147483648, i32 -2147483648, i32 -2147483648, i32 -2147483648>, ptr %37, align 4, !tbaa !25
  %38 = getelementptr inbounds i32, ptr %call.i.i.i, i64 104
  store <4 x i32> <i32 -2147483648, i32 -2147483648, i32 -2147483648, i32 -2147483648>, ptr %38, align 4, !tbaa !25
  %39 = getelementptr inbounds i32, ptr %call.i.i.i, i64 108
  store <4 x i32> <i32 -2147483648, i32 -2147483648, i32 -2147483648, i32 -2147483648>, ptr %39, align 4, !tbaa !25
  %40 = getelementptr inbounds i32, ptr %call.i.i.i, i64 112
  store <4 x i32> <i32 -2147483648, i32 -2147483648, i32 -2147483648, i32 -2147483648>, ptr %40, align 4, !tbaa !25
  %41 = getelementptr inbounds i32, ptr %call.i.i.i, i64 116
  store <4 x i32> <i32 -2147483648, i32 -2147483648, i32 -2147483648, i32 -2147483648>, ptr %41, align 4, !tbaa !25
  %42 = getelementptr inbounds i32, ptr %call.i.i.i, i64 120
  store <4 x i32> <i32 -2147483648, i32 -2147483648, i32 -2147483648, i32 -2147483648>, ptr %42, align 4, !tbaa !25
  %43 = getelementptr inbounds i32, ptr %call.i.i.i, i64 124
  store <4 x i32> <i32 -2147483648, i32 -2147483648, i32 -2147483648, i32 -2147483648>, ptr %43, align 4, !tbaa !25
  %44 = getelementptr inbounds i32, ptr %call.i.i.i, i64 128
  store <4 x i32> <i32 -2147483648, i32 -2147483648, i32 -2147483648, i32 -2147483648>, ptr %44, align 4, !tbaa !25
  %45 = getelementptr inbounds i32, ptr %call.i.i.i, i64 132
  store <4 x i32> <i32 -2147483648, i32 -2147483648, i32 -2147483648, i32 -2147483648>, ptr %45, align 4, !tbaa !25
  %46 = getelementptr inbounds i32, ptr %call.i.i.i, i64 136
  store <4 x i32> <i32 -2147483648, i32 -2147483648, i32 -2147483648, i32 -2147483648>, ptr %46, align 4, !tbaa !25
  %47 = getelementptr inbounds i32, ptr %call.i.i.i, i64 140
  store <4 x i32> <i32 -2147483648, i32 -2147483648, i32 -2147483648, i32 -2147483648>, ptr %47, align 4, !tbaa !25
  %48 = getelementptr inbounds i32, ptr %call.i.i.i, i64 144
  store <4 x i32> <i32 -2147483648, i32 -2147483648, i32 -2147483648, i32 -2147483648>, ptr %48, align 4, !tbaa !25
  %49 = getelementptr inbounds i32, ptr %call.i.i.i, i64 148
  store <4 x i32> <i32 -2147483648, i32 -2147483648, i32 -2147483648, i32 -2147483648>, ptr %49, align 4, !tbaa !25
  %50 = getelementptr inbounds i32, ptr %call.i.i.i, i64 152
  store <4 x i32> <i32 -2147483648, i32 -2147483648, i32 -2147483648, i32 -2147483648>, ptr %50, align 4, !tbaa !25
  %51 = getelementptr inbounds i32, ptr %call.i.i.i, i64 156
  store <4 x i32> <i32 -2147483648, i32 -2147483648, i32 -2147483648, i32 -2147483648>, ptr %51, align 4, !tbaa !25
  %52 = getelementptr inbounds i32, ptr %call.i.i.i, i64 160
  store <4 x i32> <i32 -2147483648, i32 -2147483648, i32 -2147483648, i32 -2147483648>, ptr %52, align 4, !tbaa !25
  %53 = getelementptr inbounds i32, ptr %call.i.i.i, i64 164
  store <4 x i32> <i32 -2147483648, i32 -2147483648, i32 -2147483648, i32 -2147483648>, ptr %53, align 4, !tbaa !25
  %54 = getelementptr inbounds i32, ptr %call.i.i.i, i64 168
  store <4 x i32> <i32 -2147483648, i32 -2147483648, i32 -2147483648, i32 -2147483648>, ptr %54, align 4, !tbaa !25
  %55 = getelementptr inbounds i32, ptr %call.i.i.i, i64 172
  store <4 x i32> <i32 -2147483648, i32 -2147483648, i32 -2147483648, i32 -2147483648>, ptr %55, align 4, !tbaa !25
  %56 = getelementptr inbounds i32, ptr %call.i.i.i, i64 176
  store <4 x i32> <i32 -2147483648, i32 -2147483648, i32 -2147483648, i32 -2147483648>, ptr %56, align 4, !tbaa !25
  %57 = getelementptr inbounds i32, ptr %call.i.i.i, i64 180
  store <4 x i32> <i32 -2147483648, i32 -2147483648, i32 -2147483648, i32 -2147483648>, ptr %57, align 4, !tbaa !25
  %58 = getelementptr inbounds i32, ptr %call.i.i.i, i64 184
  store <4 x i32> <i32 -2147483648, i32 -2147483648, i32 -2147483648, i32 -2147483648>, ptr %58, align 4, !tbaa !25
  %59 = getelementptr inbounds i32, ptr %call.i.i.i, i64 188
  store <4 x i32> <i32 -2147483648, i32 -2147483648, i32 -2147483648, i32 -2147483648>, ptr %59, align 4, !tbaa !25
  %60 = getelementptr inbounds i32, ptr %call.i.i.i, i64 192
  store <4 x i32> <i32 -2147483648, i32 -2147483648, i32 -2147483648, i32 -2147483648>, ptr %60, align 4, !tbaa !25
  %61 = getelementptr inbounds i32, ptr %call.i.i.i, i64 196
  store <4 x i32> <i32 -2147483648, i32 -2147483648, i32 -2147483648, i32 -2147483648>, ptr %61, align 4, !tbaa !25
  %62 = getelementptr inbounds i32, ptr %call.i.i.i, i64 200
  store <4 x i32> <i32 -2147483648, i32 -2147483648, i32 -2147483648, i32 -2147483648>, ptr %62, align 4, !tbaa !25
  %63 = getelementptr inbounds i32, ptr %call.i.i.i, i64 204
  store <4 x i32> <i32 -2147483648, i32 -2147483648, i32 -2147483648, i32 -2147483648>, ptr %63, align 4, !tbaa !25
  %64 = getelementptr inbounds i32, ptr %call.i.i.i, i64 208
  store <4 x i32> <i32 -2147483648, i32 -2147483648, i32 -2147483648, i32 -2147483648>, ptr %64, align 4, !tbaa !25
  %65 = getelementptr inbounds i32, ptr %call.i.i.i, i64 212
  store <4 x i32> <i32 -2147483648, i32 -2147483648, i32 -2147483648, i32 -2147483648>, ptr %65, align 4, !tbaa !25
  %66 = getelementptr inbounds i32, ptr %call.i.i.i, i64 216
  store <4 x i32> <i32 -2147483648, i32 -2147483648, i32 -2147483648, i32 -2147483648>, ptr %66, align 4, !tbaa !25
  %67 = getelementptr inbounds i32, ptr %call.i.i.i, i64 220
  store <4 x i32> <i32 -2147483648, i32 -2147483648, i32 -2147483648, i32 -2147483648>, ptr %67, align 4, !tbaa !25
  %68 = getelementptr inbounds i32, ptr %call.i.i.i, i64 224
  store <4 x i32> <i32 -2147483648, i32 -2147483648, i32 -2147483648, i32 -2147483648>, ptr %68, align 4, !tbaa !25
  %69 = getelementptr inbounds i32, ptr %call.i.i.i, i64 228
  store <4 x i32> <i32 -2147483648, i32 -2147483648, i32 -2147483648, i32 -2147483648>, ptr %69, align 4, !tbaa !25
  %70 = getelementptr inbounds i32, ptr %call.i.i.i, i64 232
  store <4 x i32> <i32 -2147483648, i32 -2147483648, i32 -2147483648, i32 -2147483648>, ptr %70, align 4, !tbaa !25
  %71 = getelementptr inbounds i32, ptr %call.i.i.i, i64 236
  store <4 x i32> <i32 -2147483648, i32 -2147483648, i32 -2147483648, i32 -2147483648>, ptr %71, align 4, !tbaa !25
  %72 = getelementptr inbounds i32, ptr %call.i.i.i, i64 240
  store <4 x i32> <i32 -2147483648, i32 -2147483648, i32 -2147483648, i32 -2147483648>, ptr %72, align 4, !tbaa !25
  %73 = getelementptr inbounds i32, ptr %call.i.i.i, i64 244
  store <4 x i32> <i32 -2147483648, i32 -2147483648, i32 -2147483648, i32 -2147483648>, ptr %73, align 4, !tbaa !25
  %74 = getelementptr inbounds i32, ptr %call.i.i.i, i64 248
  store <4 x i32> <i32 -2147483648, i32 -2147483648, i32 -2147483648, i32 -2147483648>, ptr %74, align 4, !tbaa !25
  %75 = getelementptr inbounds i32, ptr %call.i.i.i, i64 252
  store <4 x i32> <i32 -2147483648, i32 -2147483648, i32 -2147483648, i32 -2147483648>, ptr %75, align 4, !tbaa !25
  %arrayctor.next = getelementptr inbounds %class.StateMap, ptr %arrayctor.cur, i64 1
  %arrayctor.done = icmp eq ptr %arrayctor.next, %arrayctor.end
  br i1 %arrayctor.done, label %arrayctor.cont, label %arrayctor.loop

arrayctor.cont:                                   ; preds = %for.body.lr.ph.i
  store i32 %add.i.i.i.i, ptr @programChecker, align 8, !tbaa !13
  %sm = getelementptr inbounds %class.ContextMap, ptr %this, i64 0, i32 7
  store ptr %12, ptr %sm, align 8, !tbaa !103
  %cmp167 = icmp sgt i32 %c, 0
  br i1 %cmp167, label %for.body.lr.ph, label %for.cond.cleanup

for.body.lr.ph:                                   ; preds = %arrayctor.cont
  %data.i = getelementptr inbounds %class.ContextMap, ptr %this, i64 0, i32 2, i32 3
  %data.i128 = getelementptr inbounds %class.ContextMap, ptr %this, i64 0, i32 3, i32 3
  %data.i129 = getelementptr inbounds %class.ContextMap, ptr %this, i64 0, i32 4, i32 3
  %data.i135 = getelementptr inbounds %class.ContextMap, ptr %this, i64 0, i32 6, i32 3
  %wide.trip.count = zext i32 %c to i64
  %xtraiter = and i64 %wide.trip.count, 1
  %76 = icmp eq i32 %c, 1
  br i1 %76, label %for.cond.cleanup.loopexit.unr-lcssa, label %for.body.lr.ph.new

for.body.lr.ph.new:                               ; preds = %for.body.lr.ph
  %unroll_iter = and i64 %wide.trip.count, 4294967294
  br label %for.body

for.cond.cleanup.loopexit.unr-lcssa:              ; preds = %for.body, %for.body.lr.ph
  %indvars.iv.unr = phi i64 [ 0, %for.body.lr.ph ], [ %indvars.iv.next.1, %for.body ]
  %lcmp.mod.not = icmp eq i64 %xtraiter, 0
  br i1 %lcmp.mod.not, label %for.cond.cleanup, label %for.body.epil

for.body.epil:                                    ; preds = %for.cond.cleanup.loopexit.unr-lcssa
  %77 = load ptr, ptr %data.i, align 8, !tbaa !97
  %bh.epil = getelementptr inbounds %"class.ContextMap::E", ptr %77, i64 0, i32 2
  %78 = load ptr, ptr %data.i128, align 8, !tbaa !101
  %arrayidx.i.epil = getelementptr inbounds ptr, ptr %78, i64 %indvars.iv.unr
  store ptr %bh.epil, ptr %arrayidx.i.epil, align 8, !tbaa !5
  %79 = load ptr, ptr %data.i129, align 8, !tbaa !101
  %arrayidx.i131.epil = getelementptr inbounds ptr, ptr %79, i64 %indvars.iv.unr
  store ptr %bh.epil, ptr %arrayidx.i131.epil, align 8, !tbaa !5
  %80 = load ptr, ptr %data.i128, align 8, !tbaa !101
  %arrayidx.i134.epil = getelementptr inbounds ptr, ptr %80, i64 %indvars.iv.unr
  %81 = load ptr, ptr %arrayidx.i134.epil, align 8, !tbaa !5
  %add.ptr.epil = getelementptr inbounds i8, ptr %81, i64 3
  %82 = load ptr, ptr %data.i135, align 8, !tbaa !101
  %arrayidx.i137.epil = getelementptr inbounds ptr, ptr %82, i64 %indvars.iv.unr
  store ptr %add.ptr.epil, ptr %arrayidx.i137.epil, align 8, !tbaa !5
  br label %for.cond.cleanup

for.cond.cleanup:                                 ; preds = %for.body.epil, %for.cond.cleanup.loopexit.unr-lcssa, %arrayctor.cont.thread, %arrayctor.cont
  ret void

lpad:                                             ; preds = %if.then7.i.i66
  %83 = landingpad { ptr, i32 }
          cleanup
  br label %ehcleanup35

lpad2:                                            ; preds = %if.then7.i.i83
  %84 = landingpad { ptr, i32 }
          cleanup
  br label %ehcleanup34

lpad4:                                            ; preds = %if.then7.i.i103
  %85 = landingpad { ptr, i32 }
          cleanup
  br label %ehcleanup33

lpad6:                                            ; preds = %if.then7.i.i122
  %86 = landingpad { ptr, i32 }
          cleanup
  br label %ehcleanup32

lpad9:                                            ; preds = %invoke.cont7
  %87 = landingpad { ptr, i32 }
          cleanup
  br label %ehcleanup

lpad11:                                           ; preds = %if.then7.i.i.i
  %88 = landingpad { ptr, i32 }
          cleanup
  %arraydestroy.isempty = icmp eq ptr %12, %arrayctor.cur
  br i1 %arraydestroy.isempty, label %arraydestroy.done13, label %arraydestroy.body

arraydestroy.body:                                ; preds = %lpad11, %arraydestroy.body
  %arraydestroy.elementPast = phi ptr [ %arraydestroy.element, %arraydestroy.body ], [ %arrayctor.cur, %lpad11 ]
  %arraydestroy.element = getelementptr inbounds %class.StateMap, ptr %arraydestroy.elementPast, i64 -1
  tail call void @_ZN8StateMapD2Ev(ptr noundef nonnull align 8 dereferenceable(32) %arraydestroy.element) #39
  %arraydestroy.done = icmp eq ptr %arraydestroy.element, %12
  br i1 %arraydestroy.done, label %arraydestroy.done13, label %arraydestroy.body

arraydestroy.done13:                              ; preds = %arraydestroy.body, %lpad11
  tail call void @_ZdaPv(ptr noundef nonnull %call) #42
  br label %ehcleanup

for.body:                                         ; preds = %for.body, %for.body.lr.ph.new
  %indvars.iv = phi i64 [ 0, %for.body.lr.ph.new ], [ %indvars.iv.next.1, %for.body ]
  %niter = phi i64 [ 0, %for.body.lr.ph.new ], [ %niter.next.1, %for.body ]
  %89 = load ptr, ptr %data.i, align 8, !tbaa !97
  %bh = getelementptr inbounds %"class.ContextMap::E", ptr %89, i64 0, i32 2
  %90 = load ptr, ptr %data.i128, align 8, !tbaa !101
  %arrayidx.i = getelementptr inbounds ptr, ptr %90, i64 %indvars.iv
  store ptr %bh, ptr %arrayidx.i, align 8, !tbaa !5
  %91 = load ptr, ptr %data.i129, align 8, !tbaa !101
  %arrayidx.i131 = getelementptr inbounds ptr, ptr %91, i64 %indvars.iv
  store ptr %bh, ptr %arrayidx.i131, align 8, !tbaa !5
  %92 = load ptr, ptr %data.i128, align 8, !tbaa !101
  %arrayidx.i134 = getelementptr inbounds ptr, ptr %92, i64 %indvars.iv
  %93 = load ptr, ptr %arrayidx.i134, align 8, !tbaa !5
  %add.ptr = getelementptr inbounds i8, ptr %93, i64 3
  %94 = load ptr, ptr %data.i135, align 8, !tbaa !101
  %arrayidx.i137 = getelementptr inbounds ptr, ptr %94, i64 %indvars.iv
  store ptr %add.ptr, ptr %arrayidx.i137, align 8, !tbaa !5
  %indvars.iv.next = or i64 %indvars.iv, 1
  %95 = load ptr, ptr %data.i, align 8, !tbaa !97
  %bh.1 = getelementptr inbounds %"class.ContextMap::E", ptr %95, i64 0, i32 2
  %96 = load ptr, ptr %data.i128, align 8, !tbaa !101
  %arrayidx.i.1 = getelementptr inbounds ptr, ptr %96, i64 %indvars.iv.next
  store ptr %bh.1, ptr %arrayidx.i.1, align 8, !tbaa !5
  %97 = load ptr, ptr %data.i129, align 8, !tbaa !101
  %arrayidx.i131.1 = getelementptr inbounds ptr, ptr %97, i64 %indvars.iv.next
  store ptr %bh.1, ptr %arrayidx.i131.1, align 8, !tbaa !5
  %98 = load ptr, ptr %data.i128, align 8, !tbaa !101
  %arrayidx.i134.1 = getelementptr inbounds ptr, ptr %98, i64 %indvars.iv.next
  %99 = load ptr, ptr %arrayidx.i134.1, align 8, !tbaa !5
  %add.ptr.1 = getelementptr inbounds i8, ptr %99, i64 3
  %100 = load ptr, ptr %data.i135, align 8, !tbaa !101
  %arrayidx.i137.1 = getelementptr inbounds ptr, ptr %100, i64 %indvars.iv.next
  store ptr %add.ptr.1, ptr %arrayidx.i137.1, align 8, !tbaa !5
  %indvars.iv.next.1 = add nuw nsw i64 %indvars.iv, 2
  %niter.next.1 = add i64 %niter, 2
  %niter.ncmp.1 = icmp eq i64 %niter.next.1, %unroll_iter
  br i1 %niter.ncmp.1, label %for.cond.cleanup.loopexit.unr-lcssa, label %for.body, !llvm.loop !104

ehcleanup:                                        ; preds = %arraydestroy.done13, %lpad9
  %.pn = phi { ptr, i32 } [ %88, %arraydestroy.done13 ], [ %87, %lpad9 ]
  tail call void @_ZN5ArrayIPhLi0EED2Ev(ptr noundef nonnull align 8 dereferenceable(24) %runp160) #39
  br label %ehcleanup32

ehcleanup32:                                      ; preds = %ehcleanup, %lpad6
  %cp0140146157 = phi ptr [ %cp0140146158, %ehcleanup ], [ %cp0, %lpad6 ]
  %cxt148154 = phi ptr [ %cxt148155, %ehcleanup ], [ %cxt, %lpad6 ]
  %.pn.pn = phi { ptr, i32 } [ %.pn, %ehcleanup ], [ %86, %lpad6 ]
  tail call void @_ZN5ArrayIjLi0EED2Ev(ptr noundef nonnull align 8 dereferenceable(24) %cxt148154) #39
  br label %ehcleanup33

ehcleanup33:                                      ; preds = %ehcleanup32, %lpad4
  %cp0140145 = phi ptr [ %cp0140146157, %ehcleanup32 ], [ %cp0, %lpad4 ]
  %.pn.pn.pn = phi { ptr, i32 } [ %.pn.pn, %ehcleanup32 ], [ %85, %lpad4 ]
  tail call void @_ZN5ArrayIPhLi0EED2Ev(ptr noundef nonnull align 8 dereferenceable(24) %cp0140145) #39
  br label %ehcleanup34

ehcleanup34:                                      ; preds = %ehcleanup33, %lpad2
  %.pn.pn.pn.pn = phi { ptr, i32 } [ %.pn.pn.pn, %ehcleanup33 ], [ %84, %lpad2 ]
  tail call void @_ZN5ArrayIPhLi0EED2Ev(ptr noundef nonnull align 8 dereferenceable(24) %cp) #39
  br label %ehcleanup35

ehcleanup35:                                      ; preds = %ehcleanup34, %lpad
  %.pn.pn.pn.pn.pn = phi { ptr, i32 } [ %.pn.pn.pn.pn, %ehcleanup34 ], [ %83, %lpad ]
  tail call void @_ZN5ArrayIN10ContextMap1EELi64EED2Ev(ptr noundef nonnull align 8 dereferenceable(24) %t) #39
  resume { ptr, i32 } %.pn.pn.pn.pn.pn
}

; Function Attrs: uwtable
define linkonce_odr dso_local void @_ZN5ArrayIPhLi0EEC2Ei(ptr noundef nonnull align 8 dereferenceable(24) %this, i32 noundef %i) unnamed_addr #5 comdat align 2 {
entry:
  %reserved.i = getelementptr inbounds %class.Array.6, ptr %this, i64 0, i32 1
  store i32 %i, ptr %reserved.i, align 4, !tbaa !98
  store i32 %i, ptr %this, align 8, !tbaa !99
  %cmp.i = icmp slt i32 %i, 1
  br i1 %cmp.i, label %if.then.i, label %if.end.i

if.then.i:                                        ; preds = %entry
  %ptr.i = getelementptr inbounds %class.Array.6, ptr %this, i64 0, i32 2
  tail call void @llvm.memset.p0.i64(ptr noundef nonnull align 8 dereferenceable(16) %ptr.i, i8 0, i64 16, i1 false)
  br label %_ZN5ArrayIPhLi0EE6createEi.exit

if.end.i:                                         ; preds = %entry
  %mul.i = shl i32 %i, 3
  %0 = load i32, ptr @programChecker, align 8, !tbaa !13
  %add.i.i = add nsw i32 %0, %mul.i
  store i32 %add.i.i, ptr @programChecker, align 8, !tbaa !13
  %1 = load i32, ptr getelementptr inbounds (%class.ProgramChecker, ptr @programChecker, i64 0, i32 1), align 4, !tbaa !16
  %cmp.i.i = icmp sgt i32 %add.i.i, %1
  br i1 %cmp.i.i, label %if.then.i.i, label %_ZN14ProgramChecker5allocEi.exit.i

if.then.i.i:                                      ; preds = %if.end.i
  store i32 %add.i.i, ptr getelementptr inbounds (%class.ProgramChecker, ptr @programChecker, i64 0, i32 1), align 4, !tbaa !16
  br label %_ZN14ProgramChecker5allocEi.exit.i

_ZN14ProgramChecker5allocEi.exit.i:               ; preds = %if.then.i.i, %if.end.i
  %conv4.i = sext i32 %mul.i to i64
  %call.i = tail call noalias ptr @calloc(i64 noundef %conv4.i, i64 noundef 1) #41
  %ptr5.i = getelementptr inbounds %class.Array.6, ptr %this, i64 0, i32 2
  store ptr %call.i, ptr %ptr5.i, align 8, !tbaa !100
  %tobool.not.i = icmp eq ptr %call.i, null
  br i1 %tobool.not.i, label %if.then7.i, label %if.end8.i

if.then7.i:                                       ; preds = %_ZN14ProgramChecker5allocEi.exit.i
  %exception.i.i = tail call ptr @__cxa_allocate_exception(i64 8) #39
  store ptr @.str.59, ptr %exception.i.i, align 16, !tbaa !5
  tail call void @__cxa_throw(ptr nonnull %exception.i.i, ptr nonnull @_ZTIPKc, ptr null) #40
  unreachable

if.end8.i:                                        ; preds = %_ZN14ProgramChecker5allocEi.exit.i
  %data10.i = getelementptr inbounds %class.Array.6, ptr %this, i64 0, i32 3
  store ptr %call.i, ptr %data10.i, align 8, !tbaa !101
  br label %_ZN5ArrayIPhLi0EE6createEi.exit

_ZN5ArrayIPhLi0EE6createEi.exit:                  ; preds = %if.then.i, %if.end8.i
  ret void
}

; Function Attrs: nobuiltin allocsize(0)
declare noundef nonnull ptr @_Znam(i64 noundef) local_unnamed_addr #11

; Function Attrs: inlinehint nounwind uwtable
define linkonce_odr dso_local void @_ZN8StateMapD2Ev(ptr noundef nonnull align 8 dereferenceable(32) %this) unnamed_addr #3 comdat align 2 {
entry:
  %t = getelementptr inbounds %class.StateMap, ptr %this, i64 0, i32 2
  %0 = load i32, ptr %t, align 8, !tbaa !10
  %1 = load i32, ptr @programChecker, align 8, !tbaa !13
  %2 = shl i32 %0, 2
  %add.i.i = sub i32 %1, %2
  store i32 %add.i.i, ptr @programChecker, align 8, !tbaa !13
  %3 = load i32, ptr getelementptr inbounds (%class.ProgramChecker, ptr @programChecker, i64 0, i32 1), align 4, !tbaa !16
  %cmp.i.i = icmp sgt i32 %add.i.i, %3
  br i1 %cmp.i.i, label %if.then.i.i, label %_ZN5ArrayIjLi0EED2Ev.exit

if.then.i.i:                                      ; preds = %entry
  store i32 %add.i.i, ptr getelementptr inbounds (%class.ProgramChecker, ptr @programChecker, i64 0, i32 1), align 4, !tbaa !16
  br label %_ZN5ArrayIjLi0EED2Ev.exit

_ZN5ArrayIjLi0EED2Ev.exit:                        ; preds = %entry, %if.then.i.i
  %ptr.i = getelementptr inbounds %class.StateMap, ptr %this, i64 0, i32 2, i32 2
  %4 = load ptr, ptr %ptr.i, align 8, !tbaa !17
  tail call void @free(ptr noundef %4) #39
  ret void
}

; Function Attrs: nobuiltin nounwind
declare void @_ZdaPv(ptr noundef) local_unnamed_addr #10

; Function Attrs: nounwind uwtable
define linkonce_odr dso_local void @_ZN5ArrayIPhLi0EED2Ev(ptr noundef nonnull align 8 dereferenceable(24) %this) unnamed_addr #6 comdat align 2 {
entry:
  %0 = load i32, ptr %this, align 8, !tbaa !99
  %1 = load i32, ptr @programChecker, align 8, !tbaa !13
  %2 = shl i32 %0, 3
  %add.i = sub i32 %1, %2
  store i32 %add.i, ptr @programChecker, align 8, !tbaa !13
  %3 = load i32, ptr getelementptr inbounds (%class.ProgramChecker, ptr @programChecker, i64 0, i32 1), align 4, !tbaa !16
  %cmp.i = icmp sgt i32 %add.i, %3
  br i1 %cmp.i, label %if.then.i, label %_ZN14ProgramChecker5allocEi.exit

if.then.i:                                        ; preds = %entry
  store i32 %add.i, ptr getelementptr inbounds (%class.ProgramChecker, ptr @programChecker, i64 0, i32 1), align 4, !tbaa !16
  br label %_ZN14ProgramChecker5allocEi.exit

_ZN14ProgramChecker5allocEi.exit:                 ; preds = %entry, %if.then.i
  %ptr = getelementptr inbounds %class.Array.6, ptr %this, i64 0, i32 2
  %4 = load ptr, ptr %ptr, align 8, !tbaa !100
  tail call void @free(ptr noundef %4) #39
  ret void
}

; Function Attrs: nounwind uwtable
define linkonce_odr dso_local void @_ZN5ArrayIN10ContextMap1EELi64EED2Ev(ptr noundef nonnull align 8 dereferenceable(24) %this) unnamed_addr #6 comdat align 2 {
entry:
  %0 = load i32, ptr %this, align 8, !tbaa !95
  %mul = shl i32 %0, 6
  %1 = load i32, ptr @programChecker, align 8, !tbaa !13
  %reass.sub = sub i32 %1, %mul
  %add.i = add i32 %reass.sub, -64
  store i32 %add.i, ptr @programChecker, align 8, !tbaa !13
  %2 = load i32, ptr getelementptr inbounds (%class.ProgramChecker, ptr @programChecker, i64 0, i32 1), align 4, !tbaa !16
  %cmp.i = icmp sgt i32 %add.i, %2
  br i1 %cmp.i, label %if.then.i, label %_ZN14ProgramChecker5allocEi.exit

if.then.i:                                        ; preds = %entry
  store i32 %add.i, ptr getelementptr inbounds (%class.ProgramChecker, ptr @programChecker, i64 0, i32 1), align 4, !tbaa !16
  br label %_ZN14ProgramChecker5allocEi.exit

_ZN14ProgramChecker5allocEi.exit:                 ; preds = %entry, %if.then.i
  %ptr = getelementptr inbounds %class.Array.5, ptr %this, i64 0, i32 2
  %3 = load ptr, ptr %ptr, align 8, !tbaa !96
  tail call void @free(ptr noundef %3) #39
  ret void
}

; Function Attrs: nounwind uwtable
define dso_local void @_ZN10ContextMapD2Ev(ptr nocapture noundef nonnull readonly align 8 dereferenceable(140) %this) unnamed_addr #6 align 2 {
entry:
  %sm = getelementptr inbounds %class.ContextMap, ptr %this, i64 0, i32 7
  %0 = load ptr, ptr %sm, align 8, !tbaa !103
  %isnull = icmp eq ptr %0, null
  br i1 %isnull, label %delete.end3, label %delete.notnull

delete.notnull:                                   ; preds = %entry
  %1 = getelementptr inbounds i8, ptr %0, i64 -8
  %2 = load i64, ptr %1, align 8
  %arraydestroy.isempty = icmp eq i64 %2, 0
  br i1 %arraydestroy.isempty, label %arraydestroy.done2, label %arraydestroy.body.preheader

arraydestroy.body.preheader:                      ; preds = %delete.notnull
  %delete.end = getelementptr inbounds %class.StateMap, ptr %0, i64 %2
  br label %arraydestroy.body

arraydestroy.body:                                ; preds = %arraydestroy.body.preheader, %_ZN8StateMapD2Ev.exit
  %arraydestroy.elementPast = phi ptr [ %arraydestroy.element, %_ZN8StateMapD2Ev.exit ], [ %delete.end, %arraydestroy.body.preheader ]
  %arraydestroy.element = getelementptr inbounds %class.StateMap, ptr %arraydestroy.elementPast, i64 -1
  %t.i = getelementptr %class.StateMap, ptr %arraydestroy.elementPast, i64 -1, i32 2
  %3 = load i32, ptr %t.i, align 8, !tbaa !10
  %4 = load i32, ptr @programChecker, align 8, !tbaa !13
  %5 = shl i32 %3, 2
  %add.i.i.i = sub i32 %4, %5
  store i32 %add.i.i.i, ptr @programChecker, align 8, !tbaa !13
  %6 = load i32, ptr getelementptr inbounds (%class.ProgramChecker, ptr @programChecker, i64 0, i32 1), align 4, !tbaa !16
  %cmp.i.i.i = icmp sgt i32 %add.i.i.i, %6
  br i1 %cmp.i.i.i, label %if.then.i.i.i, label %_ZN8StateMapD2Ev.exit

if.then.i.i.i:                                    ; preds = %arraydestroy.body
  store i32 %add.i.i.i, ptr getelementptr inbounds (%class.ProgramChecker, ptr @programChecker, i64 0, i32 1), align 4, !tbaa !16
  br label %_ZN8StateMapD2Ev.exit

_ZN8StateMapD2Ev.exit:                            ; preds = %arraydestroy.body, %if.then.i.i.i
  %ptr.i.i = getelementptr %class.StateMap, ptr %arraydestroy.elementPast, i64 -1, i32 2, i32 2
  %7 = load ptr, ptr %ptr.i.i, align 8, !tbaa !17
  tail call void @free(ptr noundef %7) #39
  %arraydestroy.done = icmp eq ptr %arraydestroy.element, %0
  br i1 %arraydestroy.done, label %arraydestroy.done2, label %arraydestroy.body

arraydestroy.done2:                               ; preds = %_ZN8StateMapD2Ev.exit, %delete.notnull
  tail call void @_ZdaPv(ptr noundef nonnull %1) #42
  br label %delete.end3

delete.end3:                                      ; preds = %arraydestroy.done2, %entry
  %runp = getelementptr inbounds %class.ContextMap, ptr %this, i64 0, i32 6
  %8 = load i32, ptr %runp, align 8, !tbaa !99
  %9 = load i32, ptr @programChecker, align 8, !tbaa !13
  %10 = shl i32 %8, 3
  %add.i.i = sub i32 %9, %10
  store i32 %add.i.i, ptr @programChecker, align 8, !tbaa !13
  %11 = load i32, ptr getelementptr inbounds (%class.ProgramChecker, ptr @programChecker, i64 0, i32 1), align 4, !tbaa !16
  %cmp.i.i = icmp sgt i32 %add.i.i, %11
  br i1 %cmp.i.i, label %if.then.i.i, label %_ZN5ArrayIPhLi0EED2Ev.exit

if.then.i.i:                                      ; preds = %delete.end3
  store i32 %add.i.i, ptr getelementptr inbounds (%class.ProgramChecker, ptr @programChecker, i64 0, i32 1), align 4, !tbaa !16
  br label %_ZN5ArrayIPhLi0EED2Ev.exit

_ZN5ArrayIPhLi0EED2Ev.exit:                       ; preds = %delete.end3, %if.then.i.i
  %ptr.i = getelementptr inbounds %class.ContextMap, ptr %this, i64 0, i32 6, i32 2
  %12 = load ptr, ptr %ptr.i, align 8, !tbaa !100
  tail call void @free(ptr noundef %12) #39
  %cxt = getelementptr inbounds %class.ContextMap, ptr %this, i64 0, i32 5
  %13 = load i32, ptr %cxt, align 8, !tbaa !10
  %14 = load i32, ptr @programChecker, align 8, !tbaa !13
  %15 = shl i32 %13, 2
  %add.i.i4 = sub i32 %14, %15
  store i32 %add.i.i4, ptr @programChecker, align 8, !tbaa !13
  %16 = load i32, ptr getelementptr inbounds (%class.ProgramChecker, ptr @programChecker, i64 0, i32 1), align 4, !tbaa !16
  %cmp.i.i5 = icmp sgt i32 %add.i.i4, %16
  br i1 %cmp.i.i5, label %if.then.i.i6, label %_ZN5ArrayIjLi0EED2Ev.exit

if.then.i.i6:                                     ; preds = %_ZN5ArrayIPhLi0EED2Ev.exit
  store i32 %add.i.i4, ptr getelementptr inbounds (%class.ProgramChecker, ptr @programChecker, i64 0, i32 1), align 4, !tbaa !16
  br label %_ZN5ArrayIjLi0EED2Ev.exit

_ZN5ArrayIjLi0EED2Ev.exit:                        ; preds = %_ZN5ArrayIPhLi0EED2Ev.exit, %if.then.i.i6
  %ptr.i7 = getelementptr inbounds %class.ContextMap, ptr %this, i64 0, i32 5, i32 2
  %17 = load ptr, ptr %ptr.i7, align 8, !tbaa !17
  tail call void @free(ptr noundef %17) #39
  %cp0 = getelementptr inbounds %class.ContextMap, ptr %this, i64 0, i32 4
  %18 = load i32, ptr %cp0, align 8, !tbaa !99
  %19 = load i32, ptr @programChecker, align 8, !tbaa !13
  %20 = shl i32 %18, 3
  %add.i.i8 = sub i32 %19, %20
  store i32 %add.i.i8, ptr @programChecker, align 8, !tbaa !13
  %21 = load i32, ptr getelementptr inbounds (%class.ProgramChecker, ptr @programChecker, i64 0, i32 1), align 4, !tbaa !16
  %cmp.i.i9 = icmp sgt i32 %add.i.i8, %21
  br i1 %cmp.i.i9, label %if.then.i.i10, label %_ZN5ArrayIPhLi0EED2Ev.exit12

if.then.i.i10:                                    ; preds = %_ZN5ArrayIjLi0EED2Ev.exit
  store i32 %add.i.i8, ptr getelementptr inbounds (%class.ProgramChecker, ptr @programChecker, i64 0, i32 1), align 4, !tbaa !16
  br label %_ZN5ArrayIPhLi0EED2Ev.exit12

_ZN5ArrayIPhLi0EED2Ev.exit12:                     ; preds = %_ZN5ArrayIjLi0EED2Ev.exit, %if.then.i.i10
  %ptr.i11 = getelementptr inbounds %class.ContextMap, ptr %this, i64 0, i32 4, i32 2
  %22 = load ptr, ptr %ptr.i11, align 8, !tbaa !100
  tail call void @free(ptr noundef %22) #39
  %cp = getelementptr inbounds %class.ContextMap, ptr %this, i64 0, i32 3
  %23 = load i32, ptr %cp, align 8, !tbaa !99
  %24 = load i32, ptr @programChecker, align 8, !tbaa !13
  %25 = shl i32 %23, 3
  %add.i.i13 = sub i32 %24, %25
  store i32 %add.i.i13, ptr @programChecker, align 8, !tbaa !13
  %26 = load i32, ptr getelementptr inbounds (%class.ProgramChecker, ptr @programChecker, i64 0, i32 1), align 4, !tbaa !16
  %cmp.i.i14 = icmp sgt i32 %add.i.i13, %26
  br i1 %cmp.i.i14, label %if.then.i.i15, label %_ZN5ArrayIPhLi0EED2Ev.exit17

if.then.i.i15:                                    ; preds = %_ZN5ArrayIPhLi0EED2Ev.exit12
  store i32 %add.i.i13, ptr getelementptr inbounds (%class.ProgramChecker, ptr @programChecker, i64 0, i32 1), align 4, !tbaa !16
  br label %_ZN5ArrayIPhLi0EED2Ev.exit17

_ZN5ArrayIPhLi0EED2Ev.exit17:                     ; preds = %_ZN5ArrayIPhLi0EED2Ev.exit12, %if.then.i.i15
  %ptr.i16 = getelementptr inbounds %class.ContextMap, ptr %this, i64 0, i32 3, i32 2
  %27 = load ptr, ptr %ptr.i16, align 8, !tbaa !100
  tail call void @free(ptr noundef %27) #39
  %t = getelementptr inbounds %class.ContextMap, ptr %this, i64 0, i32 2
  %28 = load i32, ptr %t, align 8, !tbaa !95
  %mul.i = shl i32 %28, 6
  %29 = load i32, ptr @programChecker, align 8, !tbaa !13
  %reass.sub.i = sub i32 %29, %mul.i
  %add.i.i18 = add i32 %reass.sub.i, -64
  store i32 %add.i.i18, ptr @programChecker, align 8, !tbaa !13
  %30 = load i32, ptr getelementptr inbounds (%class.ProgramChecker, ptr @programChecker, i64 0, i32 1), align 4, !tbaa !16
  %cmp.i.i19 = icmp sgt i32 %add.i.i18, %30
  br i1 %cmp.i.i19, label %if.then.i.i20, label %_ZN5ArrayIN10ContextMap1EELi64EED2Ev.exit

if.then.i.i20:                                    ; preds = %_ZN5ArrayIPhLi0EED2Ev.exit17
  store i32 %add.i.i18, ptr getelementptr inbounds (%class.ProgramChecker, ptr @programChecker, i64 0, i32 1), align 4, !tbaa !16
  br label %_ZN5ArrayIN10ContextMap1EELi64EED2Ev.exit

_ZN5ArrayIN10ContextMap1EELi64EED2Ev.exit:        ; preds = %_ZN5ArrayIPhLi0EED2Ev.exit17, %if.then.i.i20
  %ptr.i21 = getelementptr inbounds %class.ContextMap, ptr %this, i64 0, i32 2, i32 2
  %31 = load ptr, ptr %ptr.i21, align 8, !tbaa !96
  tail call void @free(ptr noundef %31) #39
  ret void
}

; Function Attrs: mustprogress nounwind uwtable
define dso_local noundef i32 @_ZN10ContextMap4mix1ER5Mixeriiii(ptr nocapture noundef nonnull align 8 dereferenceable(140) %this, ptr nocapture noundef nonnull align 8 dereferenceable(136) %m, i32 noundef %cc, i32 noundef %bp, i32 noundef %c1, i32 noundef %y1) local_unnamed_addr #12 align 2 {
entry:
  %cn = getelementptr inbounds %class.ContextMap, ptr %this, i64 0, i32 8
  %0 = load i32, ptr %cn, align 8, !tbaa !102
  %cmp538 = icmp sgt i32 %0, 0
  br i1 %cmp538, label %for.body.lr.ph, label %for.cond.cleanup

for.body.lr.ph:                                   ; preds = %entry
  %data.i = getelementptr inbounds %class.ContextMap, ptr %this, i64 0, i32 3, i32 3
  %idxprom4 = sext i32 %y1 to i64
  %data.i355 = getelementptr inbounds %class.ContextMap, ptr %this, i64 0, i32 6, i32 3
  %t = getelementptr inbounds %class.ContextMap, ptr %this, i64 0, i32 2
  %data.i373 = getelementptr inbounds %class.ContextMap, ptr %this, i64 0, i32 5, i32 3
  %data.i376 = getelementptr inbounds %class.ContextMap, ptr %this, i64 0, i32 2, i32 3
  %data.i385 = getelementptr inbounds %class.ContextMap, ptr %this, i64 0, i32 4, i32 3
  %and32 = and i32 %cc, 3
  %idx.ext33 = zext i32 %and32 to i64
  %and = and i32 %cc, 1
  %idx.ext = zext i32 %and to i64
  %conv184 = trunc i32 %c1 to i8
  %sub226 = sub nsw i32 8, %bp
  %nx.i480 = getelementptr inbounds %class.Mixer, ptr %m, i64 0, i32 8
  %data.i.i482 = getelementptr inbounds %class.Mixer, ptr %m, i64 0, i32 3, i32 3
  %sub238 = sub nsw i32 7, %bp
  %sm = getelementptr inbounds %class.ContextMap, ptr %this, i64 0, i32 7
  %.pre = load ptr, ptr %data.i, align 8, !tbaa !101
  br label %for.body

for.cond.cleanup:                                 ; preds = %for.inc, %entry
  %result.0.lcssa = phi i32 [ 0, %entry ], [ %result.1, %for.inc ]
  %cmp269 = icmp eq i32 %bp, 7
  br i1 %cmp269, label %if.then270, label %if.end272

for.body:                                         ; preds = %for.body.lr.ph, %for.inc
  %1 = phi ptr [ %.pre, %for.body.lr.ph ], [ %70, %for.inc ]
  %indvars.iv = phi i64 [ 0, %for.body.lr.ph ], [ %indvars.iv.next, %for.inc ]
  %result.0540 = phi i32 [ 0, %for.body.lr.ph ], [ %result.1, %for.inc ]
  %arrayidx.i = getelementptr inbounds ptr, ptr %1, i64 %indvars.iv
  %2 = load ptr, ptr %arrayidx.i, align 8, !tbaa !5
  %tobool.not = icmp eq ptr %2, null
  br i1 %tobool.not, label %if.end14, label %if.then

if.then:                                          ; preds = %for.body
  %3 = load i8, ptr %2, align 1, !tbaa !9
  %idxprom = zext i8 %3 to i64
  %arrayidx5 = getelementptr inbounds [256 x [4 x i8]], ptr @_ZL11State_table, i64 0, i64 %idxprom, i64 %idxprom4
  %4 = load i8, ptr %arrayidx5, align 1, !tbaa !9
  %cmp6 = icmp ugt i8 %4, -53
  br i1 %cmp6, label %land.lhs.true, label %if.end

land.lhs.true:                                    ; preds = %if.then
  %conv = zext i8 %4 to i32
  %5 = load i32, ptr getelementptr inbounds (%class.Random, ptr @rnd, i64 0, i32 1), align 8, !tbaa !105
  %inc.i = add nsw i32 %5, 1
  store i32 %inc.i, ptr getelementptr inbounds (%class.Random, ptr @rnd, i64 0, i32 1), align 8, !tbaa !105
  %sub.i = add i32 %5, 41
  %and.i = and i32 %sub.i, 63
  %6 = load ptr, ptr getelementptr inbounds (%class.Random, ptr @rnd, i64 0, i32 0, i32 3), align 8, !tbaa !84
  %idxprom.i.i = zext i32 %and.i to i64
  %arrayidx.i.i = getelementptr inbounds i32, ptr %6, i64 %idxprom.i.i
  %7 = load i32, ptr %arrayidx.i.i, align 4, !tbaa !25
  %sub5.i = add i32 %5, 10
  %and6.i = and i32 %sub5.i, 63
  %idxprom.i13.i = zext i32 %and6.i to i64
  %arrayidx.i14.i = getelementptr inbounds i32, ptr %6, i64 %idxprom.i13.i
  %8 = load i32, ptr %arrayidx.i14.i, align 4, !tbaa !25
  %xor.i = xor i32 %8, %7
  %and10.i = and i32 %inc.i, 63
  %idxprom.i16.i = zext i32 %and10.i to i64
  %arrayidx.i17.i = getelementptr inbounds i32, ptr %6, i64 %idxprom.i16.i
  store i32 %xor.i, ptr %arrayidx.i17.i, align 4, !tbaa !25
  %sub = sub nuw nsw i32 452, %conv
  %shr = lshr i32 %sub, 3
  %shl = shl i32 %xor.i, %shr
  %tobool8.not = icmp eq i32 %shl, 0
  %sub10 = add nsw i8 %4, -4
  %spec.select = select i1 %tobool8.not, i8 %4, i8 %sub10
  br label %if.end

if.end:                                           ; preds = %land.lhs.true, %if.then
  %ns.0 = phi i8 [ %4, %if.then ], [ %spec.select, %land.lhs.true ]
  store i8 %ns.0, ptr %2, align 1, !tbaa !9
  br label %if.end14

if.end14:                                         ; preds = %if.end, %for.body
  %9 = load i32, ptr @bpos, align 4, !tbaa !25
  %cmp15 = icmp sgt i32 %9, 1
  br i1 %cmp15, label %land.lhs.true16, label %if.else

land.lhs.true16:                                  ; preds = %if.end14
  %10 = load ptr, ptr %data.i355, align 8, !tbaa !101
  %arrayidx.i357 = getelementptr inbounds ptr, ptr %10, i64 %indvars.iv
  %11 = load ptr, ptr %arrayidx.i357, align 8, !tbaa !5
  %12 = load i8, ptr %11, align 1, !tbaa !9
  %cmp20 = icmp eq i8 %12, 0
  br i1 %cmp20, label %if.end220, label %if.else

if.else:                                          ; preds = %land.lhs.true16, %if.end14
  switch i32 %9, label %sw.default [
    i32 1, label %sw.bb
    i32 3, label %sw.bb
    i32 6, label %sw.bb
    i32 4, label %sw.bb28
    i32 7, label %sw.bb28
    i32 2, label %sw.bb37
    i32 5, label %sw.bb37
  ]

sw.bb:                                            ; preds = %if.else, %if.else, %if.else
  %13 = load ptr, ptr %data.i385, align 8, !tbaa !101
  %arrayidx.i363 = getelementptr inbounds ptr, ptr %13, i64 %indvars.iv
  %14 = load ptr, ptr %arrayidx.i363, align 8, !tbaa !5
  %add.ptr = getelementptr inbounds i8, ptr %14, i64 1
  %add.ptr25 = getelementptr inbounds i8, ptr %add.ptr, i64 %idx.ext
  br label %if.end220

sw.bb28:                                          ; preds = %if.else, %if.else
  %15 = load ptr, ptr %data.i385, align 8, !tbaa !101
  %arrayidx.i369 = getelementptr inbounds ptr, ptr %15, i64 %indvars.iv
  %16 = load ptr, ptr %arrayidx.i369, align 8, !tbaa !5
  %add.ptr31 = getelementptr inbounds i8, ptr %16, i64 3
  %add.ptr34 = getelementptr inbounds i8, ptr %add.ptr31, i64 %idx.ext33
  br label %if.end220

sw.bb37:                                          ; preds = %if.else, %if.else
  %17 = load ptr, ptr %data.i373, align 8, !tbaa !84
  %arrayidx.i375 = getelementptr inbounds i32, ptr %17, i64 %indvars.iv
  %18 = load i32, ptr %arrayidx.i375, align 4, !tbaa !25
  %add = add i32 %18, %cc
  %19 = load i32, ptr %t, align 8, !tbaa !95
  %sub41 = add nsw i32 %19, -1
  %and42 = and i32 %sub41, %add
  %20 = load ptr, ptr %data.i376, align 8, !tbaa !97
  %idxprom.i377 = sext i32 %and42 to i64
  %arrayidx.i378 = getelementptr inbounds %"class.ContextMap::E", ptr %20, i64 %idxprom.i377
  %shr46 = lshr i32 %18, 16
  %conv47 = trunc i32 %shr46 to i16
  %call48 = tail call noundef ptr @_ZN10ContextMap1E3getEt(ptr noundef nonnull align 2 dereferenceable(64) %arrayidx.i378, i16 noundef zeroext %conv47)
  %21 = load ptr, ptr %data.i, align 8, !tbaa !101
  %arrayidx.i384 = getelementptr inbounds ptr, ptr %21, i64 %indvars.iv
  store ptr %call48, ptr %arrayidx.i384, align 8, !tbaa !5
  br label %if.end220

sw.default:                                       ; preds = %if.else
  %22 = load ptr, ptr %data.i373, align 8, !tbaa !84
  %arrayidx.i390 = getelementptr inbounds i32, ptr %22, i64 %indvars.iv
  %23 = load i32, ptr %arrayidx.i390, align 4, !tbaa !25
  %add56 = add i32 %23, %cc
  %24 = load i32, ptr %t, align 8, !tbaa !95
  %sub59 = add nsw i32 %24, -1
  %and60 = and i32 %sub59, %add56
  %25 = load ptr, ptr %data.i376, align 8, !tbaa !97
  %idxprom.i392 = sext i32 %and60 to i64
  %arrayidx.i393 = getelementptr inbounds %"class.ContextMap::E", ptr %25, i64 %idxprom.i392
  %shr64 = lshr i32 %23, 16
  %conv65 = trunc i32 %shr64 to i16
  %call66 = tail call noundef ptr @_ZN10ContextMap1E3getEt(ptr noundef nonnull align 2 dereferenceable(64) %arrayidx.i393, i16 noundef zeroext %conv65)
  %26 = load ptr, ptr %data.i, align 8, !tbaa !101
  %arrayidx.i399 = getelementptr inbounds ptr, ptr %26, i64 %indvars.iv
  store ptr %call66, ptr %arrayidx.i399, align 8, !tbaa !5
  %27 = load ptr, ptr %data.i385, align 8, !tbaa !101
  %arrayidx.i402 = getelementptr inbounds ptr, ptr %27, i64 %indvars.iv
  store ptr %call66, ptr %arrayidx.i402, align 8, !tbaa !5
  %28 = load ptr, ptr %data.i385, align 8, !tbaa !101
  %arrayidx.i405 = getelementptr inbounds ptr, ptr %28, i64 %indvars.iv
  %29 = load ptr, ptr %arrayidx.i405, align 8, !tbaa !5
  %arrayidx73 = getelementptr inbounds i8, ptr %29, i64 3
  %30 = load i8, ptr %arrayidx73, align 1, !tbaa !9
  %cmp75 = icmp eq i8 %30, 2
  br i1 %cmp75, label %if.then76, label %if.end160

if.then76:                                        ; preds = %sw.default
  %arrayidx79 = getelementptr inbounds i8, ptr %29, i64 4
  %31 = load i8, ptr %arrayidx79, align 1, !tbaa !9
  %conv80 = zext i8 %31 to i32
  %add81 = or i32 %conv80, 256
  %32 = load ptr, ptr %data.i373, align 8, !tbaa !84
  %arrayidx.i411 = getelementptr inbounds i32, ptr %32, i64 %indvars.iv
  %33 = load i32, ptr %arrayidx.i411, align 4, !tbaa !25
  %shr85 = lshr i32 %add81, 6
  %add86 = add i32 %shr85, %33
  %34 = load i32, ptr %t, align 8, !tbaa !95
  %sub89 = add nsw i32 %34, -1
  %and90 = and i32 %add86, %sub89
  %35 = load ptr, ptr %data.i376, align 8, !tbaa !97
  %idxprom.i413 = sext i32 %and90 to i64
  %arrayidx.i414 = getelementptr inbounds %"class.ContextMap::E", ptr %35, i64 %idxprom.i413
  %shr94 = lshr i32 %33, 16
  %conv95 = trunc i32 %shr94 to i16
  %call96 = tail call noundef ptr @_ZN10ContextMap1E3getEt(ptr noundef nonnull align 2 dereferenceable(64) %arrayidx.i414, i16 noundef zeroext %conv95)
  %shr97 = lshr i32 %conv80, 5
  %and98 = and i32 %shr97, 1
  %add99 = add nuw nsw i32 %and98, 1
  %conv100 = trunc i32 %add99 to i8
  store i8 %conv100, ptr %call96, align 1, !tbaa !9
  %shr102 = lshr i32 %add81, 4
  %36 = trunc i32 %shr102 to i8
  %37 = and i8 %36, 1
  %conv105 = add nuw nsw i8 %37, 1
  %idxprom109 = zext i32 %add99 to i64
  %arrayidx110 = getelementptr inbounds i8, ptr %call96, i64 %idxprom109
  store i8 %conv105, ptr %arrayidx110, align 1, !tbaa !9
  %shr111 = lshr i32 %add81, 3
  %38 = trunc i32 %shr111 to i8
  %39 = and i8 %38, 1
  %conv114 = add nuw nsw i8 %39, 1
  %and116 = and i32 %shr102, 3
  %add117 = add nuw nsw i32 %and116, 3
  %idxprom118 = zext i32 %add117 to i64
  %arrayidx119 = getelementptr inbounds i8, ptr %call96, i64 %idxprom118
  store i8 %conv114, ptr %arrayidx119, align 1, !tbaa !9
  %40 = load ptr, ptr %data.i373, align 8, !tbaa !84
  %arrayidx.i420 = getelementptr inbounds i32, ptr %40, i64 %indvars.iv
  %41 = load i32, ptr %arrayidx.i420, align 4, !tbaa !25
  %add124 = add i32 %41, %shr111
  %42 = load i32, ptr %t, align 8, !tbaa !95
  %sub127 = add nsw i32 %42, -1
  %and128 = and i32 %sub127, %add124
  %43 = load ptr, ptr %data.i376, align 8, !tbaa !97
  %idxprom.i422 = sext i32 %and128 to i64
  %arrayidx.i423 = getelementptr inbounds %"class.ContextMap::E", ptr %43, i64 %idxprom.i422
  %shr132 = lshr i32 %41, 16
  %conv133 = trunc i32 %shr132 to i16
  %call134 = tail call noundef ptr @_ZN10ContextMap1E3getEt(ptr noundef nonnull align 2 dereferenceable(64) %arrayidx.i423, i16 noundef zeroext %conv133)
  %shr135 = lshr i32 %conv80, 2
  %and136 = and i32 %shr135, 1
  %add137 = add nuw nsw i32 %and136, 1
  %conv138 = trunc i32 %add137 to i8
  store i8 %conv138, ptr %call134, align 1, !tbaa !9
  %shr140 = lshr i32 %add81, 1
  %44 = trunc i32 %shr140 to i8
  %45 = and i8 %44, 1
  %conv143 = add nuw nsw i8 %45, 1
  %idxprom147 = zext i32 %add137 to i64
  %arrayidx148 = getelementptr inbounds i8, ptr %call134, i64 %idxprom147
  store i8 %conv143, ptr %arrayidx148, align 1, !tbaa !9
  %and149 = and i8 %31, 1
  %add150 = add nuw nsw i8 %and149, 1
  %and153 = and i32 %shr140, 3
  %add154 = add nuw nsw i32 %and153, 3
  %idxprom155 = zext i32 %add154 to i64
  %arrayidx156 = getelementptr inbounds i8, ptr %call134, i64 %idxprom155
  store i8 %add150, ptr %arrayidx156, align 1, !tbaa !9
  %46 = load ptr, ptr %data.i385, align 8, !tbaa !101
  %arrayidx.i429 = getelementptr inbounds ptr, ptr %46, i64 %indvars.iv
  %47 = load ptr, ptr %arrayidx.i429, align 8, !tbaa !5
  %arrayidx159 = getelementptr inbounds i8, ptr %47, i64 6
  store i8 0, ptr %arrayidx159, align 1, !tbaa !9
  br label %if.end160

if.end160:                                        ; preds = %if.then76, %sw.default
  %48 = load ptr, ptr %data.i355, align 8, !tbaa !101
  %arrayidx.i432 = getelementptr inbounds ptr, ptr %48, i64 %indvars.iv
  %49 = load ptr, ptr %arrayidx.i432, align 8, !tbaa !5
  %50 = load i8, ptr %49, align 1, !tbaa !9
  %cmp165 = icmp eq i8 %50, 0
  br i1 %cmp165, label %if.then166, label %if.else174

if.then166:                                       ; preds = %if.end160
  store i8 2, ptr %49, align 1, !tbaa !9
  %51 = load ptr, ptr %data.i355, align 8, !tbaa !101
  %arrayidx.i438 = getelementptr inbounds ptr, ptr %51, i64 %indvars.iv
  %52 = load ptr, ptr %arrayidx.i438, align 8, !tbaa !5
  %arrayidx173 = getelementptr inbounds i8, ptr %52, i64 1
  store i8 %conv184, ptr %arrayidx173, align 1, !tbaa !9
  br label %if.end214

if.else174:                                       ; preds = %if.end160
  %arrayidx177 = getelementptr inbounds i8, ptr %49, i64 1
  %53 = load i8, ptr %arrayidx177, align 1, !tbaa !9
  %conv178 = zext i8 %53 to i32
  %cmp179.not = icmp eq i32 %conv178, %c1
  br i1 %cmp179.not, label %if.else188, label %if.then180

if.then180:                                       ; preds = %if.else174
  store i8 1, ptr %49, align 1, !tbaa !9
  %54 = load ptr, ptr %data.i355, align 8, !tbaa !101
  %arrayidx.i447 = getelementptr inbounds ptr, ptr %54, i64 %indvars.iv
  %55 = load ptr, ptr %arrayidx.i447, align 8, !tbaa !5
  %arrayidx187 = getelementptr inbounds i8, ptr %55, i64 1
  store i8 %conv184, ptr %arrayidx187, align 1, !tbaa !9
  br label %if.end214

if.else188:                                       ; preds = %if.else174
  %cmp193 = icmp ult i8 %50, -2
  br i1 %cmp193, label %if.then194, label %if.else201

if.then194:                                       ; preds = %if.else188
  %add199 = add nuw i8 %50, 2
  store i8 %add199, ptr %49, align 1, !tbaa !9
  br label %if.end214

if.else201:                                       ; preds = %if.else188
  %cmp206 = icmp eq i8 %50, -1
  br i1 %cmp206, label %if.then207, label %if.end214

if.then207:                                       ; preds = %if.else201
  store i8 -128, ptr %49, align 1, !tbaa !9
  br label %if.end214

if.end214:                                        ; preds = %if.then180, %if.else201, %if.then207, %if.then194, %if.then166
  %56 = load ptr, ptr %data.i385, align 8, !tbaa !101
  %arrayidx.i462 = getelementptr inbounds ptr, ptr %56, i64 %indvars.iv
  %57 = load ptr, ptr %arrayidx.i462, align 8, !tbaa !5
  %add.ptr217 = getelementptr inbounds i8, ptr %57, i64 3
  br label %if.end220

if.end220:                                        ; preds = %land.lhs.true16, %sw.bb, %sw.bb28, %sw.bb37, %if.end214
  %data.i.sink = phi ptr [ %data.i, %sw.bb ], [ %data.i, %sw.bb28 ], [ %data.i385, %sw.bb37 ], [ %data.i355, %if.end214 ], [ %data.i, %land.lhs.true16 ]
  %add.ptr25.sink = phi ptr [ %add.ptr25, %sw.bb ], [ %add.ptr34, %sw.bb28 ], [ %call48, %sw.bb37 ], [ %add.ptr217, %if.end214 ], [ null, %land.lhs.true16 ]
  %58 = load ptr, ptr %data.i.sink, align 8, !tbaa !101
  %arrayidx.i366 = getelementptr inbounds ptr, ptr %58, i64 %indvars.iv
  store ptr %add.ptr25.sink, ptr %arrayidx.i366, align 8, !tbaa !5
  %59 = load ptr, ptr %data.i355, align 8, !tbaa !101
  %arrayidx.i468 = getelementptr inbounds ptr, ptr %59, i64 %indvars.iv
  %60 = load ptr, ptr %arrayidx.i468, align 8, !tbaa !5
  %arrayidx223 = getelementptr inbounds i8, ptr %60, i64 1
  %61 = load i8, ptr %arrayidx223, align 1, !tbaa !9
  %conv224 = zext i8 %61 to i32
  %add225 = or i32 %conv224, 256
  %shr227 = lshr i32 %add225, %sub226
  %cmp228 = icmp eq i32 %shr227, %cc
  br i1 %cmp228, label %if.then229, label %if.end251

if.then229:                                       ; preds = %if.end220
  %62 = load i8, ptr %60, align 1, !tbaa !9
  %shr239 = lshr i32 %conv224, %sub238
  %and240 = shl nuw nsw i32 %shr239, 1
  %mul = and i32 %and240, 2
  %sub241 = add nuw nsw i32 %mul, 65535
  %63 = zext i8 %62 to i64
  %conv244 = add nuw nsw i64 %63, 1
  %64 = load ptr, ptr getelementptr inbounds (%class.Ilog, ptr @ilog, i64 0, i32 0, i32 3), align 8, !tbaa !22
  %arrayidx.i.i476 = getelementptr inbounds i8, ptr %64, i64 %conv244
  %65 = load i8, ptr %arrayidx.i.i476, align 1, !tbaa !9
  %conv2.i = zext i8 %65 to i32
  %66 = and i8 %62, 1
  %67 = xor i8 %66, 3
  %add247 = zext i8 %67 to i32
  %shl248 = shl nuw nsw i32 %conv2.i, %add247
  %mul249 = mul nuw nsw i32 %shl248, %sub241
  %conv.i = trunc i32 %mul249 to i16
  br label %if.end251

if.end251:                                        ; preds = %if.end220, %if.then229
  %.sink = phi i16 [ %conv.i, %if.then229 ], [ 0, %if.end220 ]
  %68 = load i32, ptr %nx.i480, align 8, !tbaa !64
  %inc.i481 = add nsw i32 %68, 1
  store i32 %inc.i481, ptr %nx.i480, align 8, !tbaa !64
  %69 = load ptr, ptr %data.i.i482, align 8, !tbaa !59
  %idxprom.i.i483 = sext i32 %68 to i64
  %arrayidx.i.i484 = getelementptr inbounds i16, ptr %69, i64 %idxprom.i.i483
  store i16 %.sink, ptr %arrayidx.i.i484, align 2, !tbaa !31
  %70 = load ptr, ptr %data.i, align 8, !tbaa !101
  %arrayidx.i487 = getelementptr inbounds ptr, ptr %70, i64 %indvars.iv
  %71 = load ptr, ptr %arrayidx.i487, align 8, !tbaa !5
  %tobool254.not = icmp eq ptr %71, null
  br i1 %tobool254.not, label %if.else263, label %if.then255

if.then255:                                       ; preds = %if.end251
  %72 = load i8, ptr %71, align 1, !tbaa !9
  %conv258 = zext i8 %72 to i32
  %73 = load ptr, ptr %sm, align 8, !tbaa !103
  %cxt.i.i.i = getelementptr inbounds %class.StateMap, ptr %73, i64 %indvars.iv, i32 1
  %74 = load i32, ptr %cxt.i.i.i, align 4, !tbaa !82
  %data.i.i.i.i = getelementptr inbounds %class.StateMap, ptr %73, i64 %indvars.iv, i32 2, i32 3
  %75 = load ptr, ptr %data.i.i.i.i, align 8, !tbaa !84
  %idxprom.i.i.i.i = sext i32 %74 to i64
  %arrayidx.i.i.i.i = getelementptr inbounds i32, ptr %75, i64 %idxprom.i.i.i.i
  %76 = load i32, ptr %arrayidx.i.i.i.i, align 4, !tbaa !25
  %and.i.i.i = and i32 %76, 1023
  %cmp.i.i.not.i = icmp eq i32 %and.i.i.i, 1023
  %inc.i.i.i = add i32 %76, 1
  %or.i.i.i = or i32 %76, 1023
  %p0.0.i.i.i = select i1 %cmp.i.i.not.i, i32 %or.i.i.i, i32 %inc.i.i.i
  %shr.i.i.i = lshr i32 %76, 10
  %77 = load i32, ptr @y, align 4, !tbaa !25
  %shl.i.i.i = shl i32 %77, 22
  %sub.i.i.i = sub nsw i32 %shl.i.i.i, %shr.i.i.i
  %shr3.i.i.i = ashr i32 %sub.i.i.i, 3
  %idxprom.i.i.i = zext i32 %and.i.i.i to i64
  %arrayidx4.i.i.i = getelementptr inbounds [1024 x i32], ptr @_ZL2dt, i64 0, i64 %idxprom.i.i.i
  %78 = load i32, ptr %arrayidx4.i.i.i, align 4, !tbaa !25
  %mul.i.i.i = mul nsw i32 %shr3.i.i.i, %78
  %and5.i.i.i = and i32 %mul.i.i.i, -1024
  %add.i.i.i = add i32 %and5.i.i.i, %p0.0.i.i.i
  store i32 %add.i.i.i, ptr %arrayidx.i.i.i.i, align 4, !tbaa !25
  store i32 %conv258, ptr %cxt.i.i.i, align 4, !tbaa !82
  %idxprom.i2.i.i = zext i8 %72 to i64
  %arrayidx.i.i.i = getelementptr inbounds i32, ptr %75, i64 %idxprom.i2.i.i
  %79 = load i32, ptr %arrayidx.i.i.i, align 4, !tbaa !25
  %shr.i.i = lshr i32 %79, 20
  %arrayidx1.i = getelementptr inbounds [256 x [4 x i8]], ptr @_ZL11State_table, i64 0, i64 %idxprom.i2.i.i, i64 2
  %80 = load i8, ptr %arrayidx1.i, align 2, !tbaa !9
  %tobool.not.i = icmp eq i8 %80, 0
  %conv.neg.i = sext i1 %tobool.not.i to i32
  %arrayidx4.i = getelementptr inbounds [256 x [4 x i8]], ptr @_ZL11State_table, i64 0, i64 %idxprom.i2.i.i, i64 3
  %81 = load i8, ptr %arrayidx4.i, align 1, !tbaa !9
  %tobool5.not.i = icmp eq i8 %81, 0
  %conv7.neg.i = sext i1 %tobool5.not.i to i32
  %82 = load ptr, ptr getelementptr inbounds (%class.Stretch, ptr @stretch, i64 0, i32 0, i32 3), align 8, !tbaa !30
  %idxprom.i.i39.i = zext i32 %shr.i.i to i64
  %arrayidx.i.i40.i = getelementptr inbounds i16, ptr %82, i64 %idxprom.i.i39.i
  %83 = load i16, ptr %arrayidx.i.i40.i, align 2, !tbaa !31
  %84 = ashr i16 %83, 2
  %85 = load i32, ptr %nx.i480, align 8, !tbaa !64
  %inc.i.i = add nsw i32 %85, 1
  %idxprom.i.i42.i = sext i32 %85 to i64
  %arrayidx.i.i43.i = getelementptr inbounds i16, ptr %69, i64 %idxprom.i.i42.i
  store i16 %84, ptr %arrayidx.i.i43.i, align 2, !tbaa !31
  %shr10.i = lshr i32 %79, 24
  %sub11.i = xor i32 %shr10.i, 255
  %sub12.i = sub nsw i32 %shr10.i, %sub11.i
  %conv.i44.i = trunc i32 %sub12.i to i16
  %inc.i46.i = add nsw i32 %85, 2
  %idxprom.i.i48.i = sext i32 %inc.i.i to i64
  %arrayidx.i.i49.i = getelementptr inbounds i16, ptr %69, i64 %idxprom.i.i48.i
  store i16 %conv.i44.i, ptr %arrayidx.i.i49.i, align 2, !tbaa !31
  %sub13.i = sub nsw i32 %conv7.neg.i, %conv.neg.i
  %86 = trunc i32 %sub13.i to i16
  %conv.i50.i = mul nsw i16 %84, %86
  %inc.i52.i = add nsw i32 %85, 3
  %idxprom.i.i54.i = sext i32 %inc.i46.i to i64
  %arrayidx.i.i55.i = getelementptr inbounds i16, ptr %69, i64 %idxprom.i.i54.i
  store i16 %conv.i50.i, ptr %arrayidx.i.i55.i, align 2, !tbaa !31
  %and.i491 = and i32 %shr10.i, %conv.neg.i
  %and14.i = and i32 %sub11.i, %conv7.neg.i
  %sub15.i = sub nsw i32 %and.i491, %and14.i
  %conv.i56.i = trunc i32 %sub15.i to i16
  %inc.i58.i = add nsw i32 %85, 4
  %idxprom.i.i60.i = sext i32 %inc.i52.i to i64
  %arrayidx.i.i61.i = getelementptr inbounds i16, ptr %69, i64 %idxprom.i.i60.i
  store i16 %conv.i56.i, ptr %arrayidx.i.i61.i, align 2, !tbaa !31
  %and16.i = and i32 %shr10.i, %conv7.neg.i
  %and17.i = and i32 %sub11.i, %conv.neg.i
  %sub18.i = sub nsw i32 %and16.i, %and17.i
  %conv.i62.i = trunc i32 %sub18.i to i16
  %inc.i64.i = add nsw i32 %85, 5
  store i32 %inc.i64.i, ptr %nx.i480, align 8, !tbaa !64
  %idxprom.i.i66.i = sext i32 %inc.i58.i to i64
  %arrayidx.i.i67.i = getelementptr inbounds i16, ptr %69, i64 %idxprom.i.i66.i
  store i16 %conv.i62.i, ptr %arrayidx.i.i67.i, align 2, !tbaa !31
  %cmp.i = icmp ne i8 %72, 0
  %conv19.i = zext i1 %cmp.i to i32
  %add262 = add nsw i32 %result.0540, %conv19.i
  br label %for.inc

if.else263:                                       ; preds = %if.end251
  %87 = load ptr, ptr %sm, align 8, !tbaa !103
  %cxt.i.i.i492 = getelementptr inbounds %class.StateMap, ptr %87, i64 %indvars.iv, i32 1
  %88 = load i32, ptr %cxt.i.i.i492, align 4, !tbaa !82
  %data.i.i.i.i493 = getelementptr inbounds %class.StateMap, ptr %87, i64 %indvars.iv, i32 2, i32 3
  %89 = load ptr, ptr %data.i.i.i.i493, align 8, !tbaa !84
  %idxprom.i.i.i.i494 = sext i32 %88 to i64
  %arrayidx.i.i.i.i495 = getelementptr inbounds i32, ptr %89, i64 %idxprom.i.i.i.i494
  %90 = load i32, ptr %arrayidx.i.i.i.i495, align 4, !tbaa !25
  %and.i.i.i496 = and i32 %90, 1023
  %cmp.i.i.not.i497 = icmp eq i32 %and.i.i.i496, 1023
  %inc.i.i.i498 = add i32 %90, 1
  %or.i.i.i499 = or i32 %90, 1023
  %p0.0.i.i.i500 = select i1 %cmp.i.i.not.i497, i32 %or.i.i.i499, i32 %inc.i.i.i498
  %shr.i.i.i501 = lshr i32 %90, 10
  %91 = load i32, ptr @y, align 4, !tbaa !25
  %shl.i.i.i502 = shl i32 %91, 22
  %sub.i.i.i503 = sub nsw i32 %shl.i.i.i502, %shr.i.i.i501
  %shr3.i.i.i504 = ashr i32 %sub.i.i.i503, 3
  %idxprom.i.i.i505 = zext i32 %and.i.i.i496 to i64
  %arrayidx4.i.i.i506 = getelementptr inbounds [1024 x i32], ptr @_ZL2dt, i64 0, i64 %idxprom.i.i.i505
  %92 = load i32, ptr %arrayidx4.i.i.i506, align 4, !tbaa !25
  %mul.i.i.i507 = mul nsw i32 %shr3.i.i.i504, %92
  %and5.i.i.i508 = and i32 %mul.i.i.i507, -1024
  %add.i.i.i509 = add i32 %and5.i.i.i508, %p0.0.i.i.i500
  store i32 %add.i.i.i509, ptr %arrayidx.i.i.i.i495, align 4, !tbaa !25
  store i32 0, ptr %cxt.i.i.i492, align 4, !tbaa !82
  %93 = load i32, ptr %89, align 4, !tbaa !25
  %shr.i.i510 = lshr i32 %93, 20
  %94 = load ptr, ptr getelementptr inbounds (%class.Stretch, ptr @stretch, i64 0, i32 0, i32 3), align 8, !tbaa !30
  %idxprom.i.i39.i511 = zext i32 %shr.i.i510 to i64
  %arrayidx.i.i40.i512 = getelementptr inbounds i16, ptr %94, i64 %idxprom.i.i39.i511
  %95 = load i16, ptr %arrayidx.i.i40.i512, align 2, !tbaa !31
  %96 = ashr i16 %95, 2
  %97 = load i32, ptr %nx.i480, align 8, !tbaa !64
  %inc.i.i514 = add nsw i32 %97, 1
  %idxprom.i.i42.i516 = sext i32 %97 to i64
  %arrayidx.i.i43.i517 = getelementptr inbounds i16, ptr %69, i64 %idxprom.i.i42.i516
  store i16 %96, ptr %arrayidx.i.i43.i517, align 2, !tbaa !31
  %98 = lshr i32 %93, 23
  %99 = trunc i32 %98 to i16
  %100 = and i16 %99, 510
  %conv.i44.i521 = add nsw i16 %100, -255
  %idxprom.i.i48.i523 = sext i32 %inc.i.i514 to i64
  %arrayidx.i.i49.i524 = getelementptr inbounds i16, ptr %69, i64 %idxprom.i.i48.i523
  %inc.i64.i535 = add nsw i32 %97, 5
  store i32 %inc.i64.i535, ptr %nx.i480, align 8, !tbaa !64
  %101 = insertelement <4 x i16> <i16 poison, i16 0, i16 poison, i16 poison>, i16 %conv.i44.i521, i64 0
  %102 = shufflevector <4 x i16> %101, <4 x i16> poison, <4 x i32> <i32 0, i32 1, i32 0, i32 0>
  store <4 x i16> %102, ptr %arrayidx.i.i49.i524, align 2, !tbaa !31
  br label %for.inc

for.inc:                                          ; preds = %if.then255, %if.else263
  %result.1 = phi i32 [ %add262, %if.then255 ], [ %result.0540, %if.else263 ]
  %indvars.iv.next = add nuw nsw i64 %indvars.iv, 1
  %103 = load i32, ptr %cn, align 8, !tbaa !102
  %104 = sext i32 %103 to i64
  %cmp = icmp slt i64 %indvars.iv.next, %104
  br i1 %cmp, label %for.body, label %for.cond.cleanup, !llvm.loop !107

if.then270:                                       ; preds = %for.cond.cleanup
  store i32 0, ptr %cn, align 8, !tbaa !102
  br label %if.end272

if.end272:                                        ; preds = %if.then270, %for.cond.cleanup
  ret i32 %result.0.lcssa
}

; Function Attrs: inlinehint mustprogress nounwind uwtable
define linkonce_odr dso_local noundef ptr @_ZN10ContextMap1E3getEt(ptr noundef nonnull align 2 dereferenceable(64) %this, i16 noundef zeroext %ch) local_unnamed_addr #13 comdat align 2 {
entry:
  %last = getelementptr inbounds %"class.ContextMap::E", ptr %this, i64 0, i32 1
  %0 = load i8, ptr %last, align 2, !tbaa !108
  %1 = and i8 %0, 15
  %idxprom = zext i8 %1 to i64
  %arrayidx = getelementptr inbounds [7 x i16], ptr %this, i64 0, i64 %idxprom
  %2 = load i16, ptr %arrayidx, align 2, !tbaa !31
  %cmp = icmp eq i16 %2, %ch
  br i1 %cmp, label %if.then, label %for.cond.preheader

for.cond.preheader:                               ; preds = %entry
  %conv34 = zext i8 %0 to i32
  %and35 = and i32 %conv34, 15
  %shr = lshr i32 %conv34, 4
  %3 = load i16, ptr %this, align 2, !tbaa !31
  %cmp16 = icmp eq i16 %3, %ch
  br i1 %cmp16, label %cleanup, label %if.end42

if.then:                                          ; preds = %entry
  %arrayidx8 = getelementptr inbounds %"class.ContextMap::E", ptr %this, i64 0, i32 2, i64 %idxprom
  br label %return

if.end42:                                         ; preds = %for.cond.preheader
  %arrayidx29 = getelementptr inbounds %"class.ContextMap::E", ptr %this, i64 0, i32 2, i64 0
  %4 = load i8, ptr %arrayidx29, align 1, !tbaa !9
  %conv31 = zext i8 %4 to i32
  %cmp36.not = icmp eq i32 %and35, 0
  %cmp40.not = icmp ult i8 %0, 16
  %or.cond = or i1 %cmp36.not, %cmp40.not
  %spec.select = select i1 %or.cond, i32 65535, i32 %conv31
  %arrayidx13.1 = getelementptr inbounds [7 x i16], ptr %this, i64 0, i64 1
  %5 = load i16, ptr %arrayidx13.1, align 2, !tbaa !31
  %cmp16.1 = icmp eq i16 %5, %ch
  br i1 %cmp16.1, label %cleanup, label %if.end26.1

if.end26.1:                                       ; preds = %if.end42
  %arrayidx29.1 = getelementptr inbounds %"class.ContextMap::E", ptr %this, i64 0, i32 2, i64 1
  %6 = load i8, ptr %arrayidx29.1, align 2, !tbaa !9
  %conv31.1 = zext i8 %6 to i32
  %cmp32.1 = icmp ugt i32 %spec.select, %conv31.1
  br i1 %cmp32.1, label %land.lhs.true.1, label %if.end42.1

land.lhs.true.1:                                  ; preds = %if.end26.1
  %cmp36.not.1 = icmp ne i32 %and35, 1
  %cmp40.not.1 = icmp ne i32 %shr, 1
  %or.cond.1.not = and i1 %cmp36.not.1, %cmp40.not.1
  %spec.select.1 = select i1 %or.cond.1.not, i32 %conv31.1, i32 %spec.select
  %spec.select68.1 = zext i1 %or.cond.1.not to i32
  br label %if.end42.1

if.end42.1:                                       ; preds = %land.lhs.true.1, %if.end26.1
  %b.1.1 = phi i32 [ %spec.select, %if.end26.1 ], [ %spec.select.1, %land.lhs.true.1 ]
  %bi.1.1 = phi i32 [ 0, %if.end26.1 ], [ %spec.select68.1, %land.lhs.true.1 ]
  %arrayidx13.2 = getelementptr inbounds [7 x i16], ptr %this, i64 0, i64 2
  %7 = load i16, ptr %arrayidx13.2, align 2, !tbaa !31
  %cmp16.2 = icmp eq i16 %7, %ch
  br i1 %cmp16.2, label %cleanup, label %if.end26.2

if.end26.2:                                       ; preds = %if.end42.1
  %arrayidx29.2 = getelementptr inbounds %"class.ContextMap::E", ptr %this, i64 0, i32 2, i64 2
  %8 = load i8, ptr %arrayidx29.2, align 1, !tbaa !9
  %conv31.2 = zext i8 %8 to i32
  %cmp32.2 = icmp ugt i32 %b.1.1, %conv31.2
  br i1 %cmp32.2, label %land.lhs.true.2, label %if.end42.2

land.lhs.true.2:                                  ; preds = %if.end26.2
  %cmp36.not.2 = icmp eq i32 %and35, 2
  %cmp40.not.2 = icmp eq i32 %shr, 2
  %or.cond.2 = or i1 %cmp36.not.2, %cmp40.not.2
  %spec.select.2 = select i1 %or.cond.2, i32 %b.1.1, i32 %conv31.2
  %spec.select68.2 = select i1 %or.cond.2, i32 %bi.1.1, i32 2
  br label %if.end42.2

if.end42.2:                                       ; preds = %land.lhs.true.2, %if.end26.2
  %b.1.2 = phi i32 [ %b.1.1, %if.end26.2 ], [ %spec.select.2, %land.lhs.true.2 ]
  %bi.1.2 = phi i32 [ %bi.1.1, %if.end26.2 ], [ %spec.select68.2, %land.lhs.true.2 ]
  %arrayidx13.3 = getelementptr inbounds [7 x i16], ptr %this, i64 0, i64 3
  %9 = load i16, ptr %arrayidx13.3, align 2, !tbaa !31
  %cmp16.3 = icmp eq i16 %9, %ch
  br i1 %cmp16.3, label %cleanup, label %if.end26.3

if.end26.3:                                       ; preds = %if.end42.2
  %arrayidx29.3 = getelementptr inbounds %"class.ContextMap::E", ptr %this, i64 0, i32 2, i64 3
  %10 = load i8, ptr %arrayidx29.3, align 2, !tbaa !9
  %conv31.3 = zext i8 %10 to i32
  %cmp32.3 = icmp ugt i32 %b.1.2, %conv31.3
  br i1 %cmp32.3, label %land.lhs.true.3, label %if.end42.3

land.lhs.true.3:                                  ; preds = %if.end26.3
  %cmp36.not.3 = icmp eq i32 %and35, 3
  %cmp40.not.3 = icmp eq i32 %shr, 3
  %or.cond.3 = or i1 %cmp36.not.3, %cmp40.not.3
  %spec.select.3 = select i1 %or.cond.3, i32 %b.1.2, i32 %conv31.3
  %spec.select68.3 = select i1 %or.cond.3, i32 %bi.1.2, i32 3
  br label %if.end42.3

if.end42.3:                                       ; preds = %land.lhs.true.3, %if.end26.3
  %b.1.3 = phi i32 [ %b.1.2, %if.end26.3 ], [ %spec.select.3, %land.lhs.true.3 ]
  %bi.1.3 = phi i32 [ %bi.1.2, %if.end26.3 ], [ %spec.select68.3, %land.lhs.true.3 ]
  %arrayidx13.4 = getelementptr inbounds [7 x i16], ptr %this, i64 0, i64 4
  %11 = load i16, ptr %arrayidx13.4, align 2, !tbaa !31
  %cmp16.4 = icmp eq i16 %11, %ch
  br i1 %cmp16.4, label %cleanup, label %if.end26.4

if.end26.4:                                       ; preds = %if.end42.3
  %arrayidx29.4 = getelementptr inbounds %"class.ContextMap::E", ptr %this, i64 0, i32 2, i64 4
  %12 = load i8, ptr %arrayidx29.4, align 1, !tbaa !9
  %conv31.4 = zext i8 %12 to i32
  %cmp32.4 = icmp ugt i32 %b.1.3, %conv31.4
  br i1 %cmp32.4, label %land.lhs.true.4, label %if.end42.4

land.lhs.true.4:                                  ; preds = %if.end26.4
  %cmp36.not.4 = icmp eq i32 %and35, 4
  %cmp40.not.4 = icmp eq i32 %shr, 4
  %or.cond.4 = or i1 %cmp36.not.4, %cmp40.not.4
  %spec.select.4 = select i1 %or.cond.4, i32 %b.1.3, i32 %conv31.4
  %spec.select68.4 = select i1 %or.cond.4, i32 %bi.1.3, i32 4
  br label %if.end42.4

if.end42.4:                                       ; preds = %land.lhs.true.4, %if.end26.4
  %b.1.4 = phi i32 [ %b.1.3, %if.end26.4 ], [ %spec.select.4, %land.lhs.true.4 ]
  %bi.1.4 = phi i32 [ %bi.1.3, %if.end26.4 ], [ %spec.select68.4, %land.lhs.true.4 ]
  %arrayidx13.5 = getelementptr inbounds [7 x i16], ptr %this, i64 0, i64 5
  %13 = load i16, ptr %arrayidx13.5, align 2, !tbaa !31
  %cmp16.5 = icmp eq i16 %13, %ch
  br i1 %cmp16.5, label %cleanup, label %if.end26.5

if.end26.5:                                       ; preds = %if.end42.4
  %arrayidx29.5 = getelementptr inbounds %"class.ContextMap::E", ptr %this, i64 0, i32 2, i64 5
  %14 = load i8, ptr %arrayidx29.5, align 2, !tbaa !9
  %conv31.5 = zext i8 %14 to i32
  %cmp32.5 = icmp ugt i32 %b.1.4, %conv31.5
  br i1 %cmp32.5, label %land.lhs.true.5, label %if.end42.5

land.lhs.true.5:                                  ; preds = %if.end26.5
  %cmp36.not.5 = icmp eq i32 %and35, 5
  %cmp40.not.5 = icmp eq i32 %shr, 5
  %or.cond.5 = or i1 %cmp36.not.5, %cmp40.not.5
  %spec.select.5 = select i1 %or.cond.5, i32 %b.1.4, i32 %conv31.5
  %spec.select68.5 = select i1 %or.cond.5, i32 %bi.1.4, i32 5
  br label %if.end42.5

if.end42.5:                                       ; preds = %land.lhs.true.5, %if.end26.5
  %b.1.5 = phi i32 [ %b.1.4, %if.end26.5 ], [ %spec.select.5, %land.lhs.true.5 ]
  %bi.1.5 = phi i32 [ %bi.1.4, %if.end26.5 ], [ %spec.select68.5, %land.lhs.true.5 ]
  %arrayidx13.6 = getelementptr inbounds [7 x i16], ptr %this, i64 0, i64 6
  %15 = load i16, ptr %arrayidx13.6, align 2, !tbaa !31
  %cmp16.6 = icmp eq i16 %15, %ch
  br i1 %cmp16.6, label %cleanup, label %if.end26.6

if.end26.6:                                       ; preds = %if.end42.5
  %arrayidx29.6 = getelementptr inbounds %"class.ContextMap::E", ptr %this, i64 0, i32 2, i64 6
  %16 = load i8, ptr %arrayidx29.6, align 1, !tbaa !9
  %conv31.6 = zext i8 %16 to i32
  %cmp32.6 = icmp ugt i32 %b.1.5, %conv31.6
  %cmp36.not.6 = icmp eq i32 %and35, 6
  %cmp40.not.6 = icmp eq i32 %shr, 6
  %or.cond.6 = or i1 %cmp36.not.6, %cmp40.not.6
  %spec.select68.6 = select i1 %or.cond.6, i32 %bi.1.5, i32 6
  %bi.1.6 = select i1 %cmp32.6, i32 %spec.select68.6, i32 %bi.1.5
  %17 = trunc i32 %bi.1.6 to i8
  %conv44 = or i8 %17, -16
  store i8 %conv44, ptr %last, align 2, !tbaa !108
  %idxprom47 = zext i32 %bi.1.6 to i64
  %arrayidx48 = getelementptr inbounds [7 x i16], ptr %this, i64 0, i64 %idxprom47
  store i16 %ch, ptr %arrayidx48, align 2, !tbaa !31
  %arrayidx51 = getelementptr inbounds %"class.ContextMap::E", ptr %this, i64 0, i32 2, i64 %idxprom47
  tail call void @llvm.memset.p0.i64(ptr noundef nonnull align 1 dereferenceable(7) %arrayidx51, i8 0, i64 7, i1 false)
  br label %return

cleanup:                                          ; preds = %if.end42.5, %if.end42.4, %if.end42.3, %if.end42.2, %if.end42.1, %if.end42, %for.cond.preheader
  %i.074.lcssa.wide = phi i64 [ 0, %for.cond.preheader ], [ 1, %if.end42 ], [ 2, %if.end42.1 ], [ 3, %if.end42.2 ], [ 4, %if.end42.3 ], [ 5, %if.end42.4 ], [ 6, %if.end42.5 ]
  %18 = trunc i64 %i.074.lcssa.wide to i8
  %shl = shl i8 %0, 4
  %or = or i8 %shl, %18
  store i8 %or, ptr %last, align 2, !tbaa !108
  %arrayidx24 = getelementptr inbounds %"class.ContextMap::E", ptr %this, i64 0, i32 2, i64 %i.074.lcssa.wide
  br label %return

return:                                           ; preds = %cleanup, %if.end26.6, %if.then
  %retval.2 = phi ptr [ %arrayidx8, %if.then ], [ %arrayidx51, %if.end26.6 ], [ %arrayidx24, %cleanup ]
  ret ptr %retval.2
}

; Function Attrs: mustprogress uwtable
define dso_local noundef i32 @_Z10matchModelR5Mixer(ptr nocapture noundef nonnull align 8 dereferenceable(136) %m) local_unnamed_addr #14 personality ptr @__gxx_personality_v0 {
entry:
  %0 = load atomic i8, ptr @_ZGVZ10matchModelR5MixerE1t acquire, align 8
  %guard.uninitialized = icmp eq i8 %0, 0
  br i1 %guard.uninitialized, label %init.check, label %init.end, !prof !110

init.check:                                       ; preds = %entry
  %1 = tail call i32 @__cxa_guard_acquire(ptr nonnull @_ZGVZ10matchModelR5MixerE1t) #39
  %tobool.not = icmp eq i32 %1, 0
  br i1 %tobool.not, label %init.end, label %init

init:                                             ; preds = %init.check
  %2 = load i32, ptr @level, align 4, !tbaa !25
  %shl = shl i32 65536, %2
  invoke void @_ZN5ArrayIiLi0EEC2Ei(ptr noundef nonnull align 8 dereferenceable(24) @_ZZ10matchModelR5MixerE1t, i32 noundef %shl)
          to label %invoke.cont unwind label %lpad

invoke.cont:                                      ; preds = %init
  %3 = tail call i32 @__cxa_atexit(ptr nonnull @_ZN5ArrayIiLi0EED2Ev, ptr nonnull @_ZZ10matchModelR5MixerE1t, ptr nonnull @__dso_handle) #39
  tail call void @__cxa_guard_release(ptr nonnull @_ZGVZ10matchModelR5MixerE1t) #39
  br label %init.end

init.end:                                         ; preds = %invoke.cont, %init.check, %entry
  %4 = load atomic i8, ptr @_ZGVZ10matchModelR5MixerE4scm1 acquire, align 8
  %guard.uninitialized1 = icmp eq i8 %4, 0
  br i1 %guard.uninitialized1, label %init.check2, label %init.end7, !prof !110

init.check2:                                      ; preds = %init.end
  %5 = tail call i32 @__cxa_guard_acquire(ptr nonnull @_ZGVZ10matchModelR5MixerE4scm1) #39
  %tobool3.not = icmp eq i32 %5, 0
  br i1 %tobool3.not, label %init.end7, label %init4

init4:                                            ; preds = %init.check2
  invoke void @_ZN25SmallStationaryContextMapC2Ei(ptr noundef nonnull align 8 dereferenceable(40) @_ZZ10matchModelR5MixerE4scm1, i32 noundef 131072)
          to label %invoke.cont6 unwind label %lpad5

invoke.cont6:                                     ; preds = %init4
  %6 = tail call i32 @__cxa_atexit(ptr nonnull @_ZN25SmallStationaryContextMapD2Ev, ptr nonnull @_ZZ10matchModelR5MixerE4scm1, ptr nonnull @__dso_handle) #39
  tail call void @__cxa_guard_release(ptr nonnull @_ZGVZ10matchModelR5MixerE4scm1) #39
  br label %init.end7

init.end7:                                        ; preds = %invoke.cont6, %init.check2, %init.end
  %7 = load i32, ptr @bpos, align 4, !tbaa !25
  %tobool8.not = icmp eq i32 %7, 0
  br i1 %tobool8.not, label %if.then, label %init.end7.if.end30_crit_edge

init.end7.if.end30_crit_edge:                     ; preds = %init.end7
  %.pre181 = load i32, ptr @_ZZ10matchModelR5MixerE3len, align 4, !tbaa !25
  br label %if.end30

if.then:                                          ; preds = %init.end7
  %8 = load i32, ptr @_ZZ10matchModelR5MixerE1h, align 4, !tbaa !25
  %mul9 = mul i32 %8, 7976
  %9 = load i32, ptr @pos, align 4, !tbaa !25
  %sub.i = add nsw i32 %9, -1
  %10 = load i32, ptr @buf, align 8, !tbaa !20
  %sub3.i = add nsw i32 %10, -1
  %and.i = and i32 %sub3.i, %sub.i
  %11 = load ptr, ptr getelementptr inbounds (%class.Buf, ptr @buf, i64 0, i32 0, i32 3), align 8, !tbaa !22
  %idxprom.i.i = sext i32 %and.i to i64
  %arrayidx.i.i = getelementptr inbounds i8, ptr %11, i64 %idxprom.i.i
  %12 = load i8, ptr %arrayidx.i.i, align 1, !tbaa !9
  %conv.i = zext i8 %12 to i32
  %add = or i32 %mul9, 1
  %add10 = add i32 %add, %conv.i
  %13 = load i32, ptr @_ZZ10matchModelR5MixerE1t, align 8, !tbaa !51
  %sub = add nsw i32 %13, -1
  %and = and i32 %add10, %sub
  store i32 %and, ptr @_ZZ10matchModelR5MixerE1h, align 4, !tbaa !25
  %14 = load i32, ptr @_ZZ10matchModelR5MixerE3len, align 4
  %tobool12.not = icmp eq i32 %14, 0
  br i1 %tobool12.not, label %if.else, label %if.then13

if.then13:                                        ; preds = %if.then
  %inc = add nsw i32 %14, 1
  store i32 %inc, ptr @_ZZ10matchModelR5MixerE3len, align 4, !tbaa !25
  %15 = load i32, ptr @_ZZ10matchModelR5MixerE3ptr, align 4, !tbaa !25
  %inc14 = add nsw i32 %15, 1
  store i32 %inc14, ptr @_ZZ10matchModelR5MixerE3ptr, align 4, !tbaa !25
  %.pre = load ptr, ptr getelementptr inbounds (%class.Array.3, ptr @_ZZ10matchModelR5MixerE1t, i64 0, i32 3), align 8, !tbaa !61
  %.pre182 = sext i32 %and to i64
  br label %if.end28

lpad:                                             ; preds = %init
  %16 = landingpad { ptr, i32 }
          cleanup
  br label %ehcleanup

lpad5:                                            ; preds = %init4
  %17 = landingpad { ptr, i32 }
          cleanup
  br label %ehcleanup

if.else:                                          ; preds = %if.then
  %18 = load ptr, ptr getelementptr inbounds (%class.Array.3, ptr @_ZZ10matchModelR5MixerE1t, i64 0, i32 3), align 8, !tbaa !61
  %idxprom.i = sext i32 %and to i64
  %arrayidx.i = getelementptr inbounds i32, ptr %18, i64 %idxprom.i
  %19 = load i32, ptr %arrayidx.i, align 4, !tbaa !25
  store i32 %19, ptr @_ZZ10matchModelR5MixerE3ptr, align 4, !tbaa !25
  %tobool16.not = icmp ne i32 %19, 0
  %sub17 = sub nsw i32 %9, %19
  %cmp = icmp slt i32 %sub17, %10
  %or.cond = select i1 %tobool16.not, i1 %cmp, i1 false
  br i1 %or.cond, label %while.cond.preheader, label %if.end28

while.cond.preheader:                             ; preds = %if.else
  %sub.i85170 = add nsw i32 %9, -1
  %and.i87171 = and i32 %sub.i85170, %sub3.i
  %idxprom.i.i88172 = sext i32 %and.i87171 to i64
  %arrayidx.i.i89173 = getelementptr inbounds i8, ptr %11, i64 %idxprom.i.i88172
  %20 = load i8, ptr %arrayidx.i.i89173, align 1, !tbaa !9
  %sub23174 = add i32 %19, -1
  %and.i92175 = and i32 %sub23174, %sub3.i
  %idxprom.i.i93176 = sext i32 %and.i92175 to i64
  %arrayidx.i.i94177 = getelementptr inbounds i8, ptr %11, i64 %idxprom.i.i93176
  %21 = load i8, ptr %arrayidx.i.i94177, align 1, !tbaa !9
  %cmp25178 = icmp eq i8 %20, %21
  br i1 %cmp25178, label %while.body, label %if.end28

while.body:                                       ; preds = %while.cond.preheader, %while.body
  %add20180 = phi i32 [ %add20, %while.body ], [ 1, %while.cond.preheader ]
  %add20 = add nuw nsw i32 %add20180, 1
  %sub.i85 = sub nsw i32 %9, %add20
  %and.i87 = and i32 %sub.i85, %sub3.i
  %idxprom.i.i88 = sext i32 %and.i87 to i64
  %arrayidx.i.i89 = getelementptr inbounds i8, ptr %11, i64 %idxprom.i.i88
  %22 = load i8, ptr %arrayidx.i.i89, align 1, !tbaa !9
  %23 = xor i32 %add20180, -1
  %sub23 = add i32 %19, %23
  %and.i92 = and i32 %sub23, %sub3.i
  %idxprom.i.i93 = sext i32 %and.i92 to i64
  %arrayidx.i.i94 = getelementptr inbounds i8, ptr %11, i64 %idxprom.i.i93
  %24 = load i8, ptr %arrayidx.i.i94, align 1, !tbaa !9
  %cmp25 = icmp eq i8 %22, %24
  %cmp26 = icmp ult i32 %add20180, 65534
  %25 = and i1 %cmp26, %cmp25
  br i1 %25, label %while.body, label %while.cond.if.end28.loopexit_crit_edge, !llvm.loop !111

while.cond.if.end28.loopexit_crit_edge:           ; preds = %while.body
  store i32 %add20180, ptr @_ZZ10matchModelR5MixerE3len, align 4, !tbaa !25
  br label %if.end28

if.end28:                                         ; preds = %while.cond.preheader, %while.cond.if.end28.loopexit_crit_edge, %if.else, %if.then13
  %idxprom.i95.pre-phi = phi i64 [ %idxprom.i, %while.cond.preheader ], [ %idxprom.i, %while.cond.if.end28.loopexit_crit_edge ], [ %idxprom.i, %if.else ], [ %.pre182, %if.then13 ]
  %26 = phi i32 [ 0, %while.cond.preheader ], [ %add20180, %while.cond.if.end28.loopexit_crit_edge ], [ 0, %if.else ], [ %inc, %if.then13 ]
  %27 = phi ptr [ %18, %while.cond.preheader ], [ %18, %while.cond.if.end28.loopexit_crit_edge ], [ %18, %if.else ], [ %.pre, %if.then13 ]
  %arrayidx.i96 = getelementptr inbounds i32, ptr %27, i64 %idxprom.i95.pre-phi
  store i32 %9, ptr %arrayidx.i96, align 4, !tbaa !25
  store i32 %26, ptr @_ZZ10matchModelR5MixerE6result, align 4, !tbaa !25
  %28 = load i32, ptr @pos, align 4, !tbaa !25
  %mul.i = shl i32 %28, 8
  %29 = load i32, ptr @_ZZ10matchModelR5MixerE4scm1, align 8, !tbaa !74
  %sub.i97 = add nsw i32 %29, -256
  %and.i98 = and i32 %sub.i97, %mul.i
  store i32 %and.i98, ptr getelementptr inbounds (%class.SmallStationaryContextMap, ptr @_ZZ10matchModelR5MixerE4scm1, i64 0, i32 1), align 8, !tbaa !112
  br label %if.end30

if.end30:                                         ; preds = %init.end7.if.end30_crit_edge, %if.end28
  %30 = phi i32 [ %.pre181, %init.end7.if.end30_crit_edge ], [ %26, %if.end28 ]
  %tobool31.not = icmp eq i32 %30, 0
  br i1 %tobool31.not, label %if.else71, label %if.then32

if.then32:                                        ; preds = %if.end30
  %31 = load i32, ptr @pos, align 4, !tbaa !25
  %sub.i99 = add nsw i32 %31, -1
  %32 = load i32, ptr @buf, align 8, !tbaa !20
  %sub3.i100 = add nsw i32 %32, -1
  %and.i101 = and i32 %sub3.i100, %sub.i99
  %33 = load ptr, ptr getelementptr inbounds (%class.Buf, ptr @buf, i64 0, i32 0, i32 3), align 8, !tbaa !22
  %idxprom.i.i102 = sext i32 %and.i101 to i64
  %arrayidx.i.i103 = getelementptr inbounds i8, ptr %33, i64 %idxprom.i.i102
  %34 = load i8, ptr %arrayidx.i.i103, align 1, !tbaa !9
  %35 = load i32, ptr @_ZZ10matchModelR5MixerE3ptr, align 4, !tbaa !25
  %sub34 = add nsw i32 %35, -1
  %and.i106 = and i32 %sub34, %sub3.i100
  %idxprom.i.i107 = sext i32 %and.i106 to i64
  %arrayidx.i.i108 = getelementptr inbounds i8, ptr %33, i64 %idxprom.i.i107
  %36 = load i8, ptr %arrayidx.i.i108, align 1, !tbaa !9
  %cmp37 = icmp eq i8 %34, %36
  br i1 %cmp37, label %land.lhs.true38, label %if.else69

land.lhs.true38:                                  ; preds = %if.then32
  %37 = load i32, ptr @c0, align 4, !tbaa !25
  %and.i110 = and i32 %35, %sub3.i100
  %idxprom.i.i111 = sext i32 %and.i110 to i64
  %arrayidx.i.i112 = getelementptr inbounds i8, ptr %33, i64 %idxprom.i.i111
  %38 = load i8, ptr %arrayidx.i.i112, align 1, !tbaa !9
  %conv40 = zext i8 %38 to i32
  %add41 = or i32 %conv40, 256
  %39 = load i32, ptr @bpos, align 4, !tbaa !25
  %sub42 = sub nsw i32 8, %39
  %shr = lshr i32 %add41, %sub42
  %cmp43 = icmp eq i32 %37, %shr
  br i1 %cmp43, label %if.then44, label %if.else69

if.then44:                                        ; preds = %land.lhs.true38
  %cmp45 = icmp sgt i32 %30, 65534
  br i1 %cmp45, label %if.then46, label %if.end47

if.then46:                                        ; preds = %if.then44
  store i32 65534, ptr @_ZZ10matchModelR5MixerE3len, align 4, !tbaa !25
  br label %if.end47

if.end47:                                         ; preds = %if.then46, %if.then44
  %40 = phi i32 [ 65534, %if.then46 ], [ %30, %if.then44 ]
  %sub50 = sub nsw i32 7, %39
  %41 = shl nuw i32 1, %sub50
  %42 = and i32 %41, %conv40
  %tobool53.not = icmp eq i32 %42, 0
  %43 = load ptr, ptr getelementptr inbounds (%class.Ilog, ptr @ilog, i64 0, i32 0, i32 3), align 8, !tbaa !22
  %44 = and i32 %40, 65535
  %idxprom.i.i128 = zext i32 %44 to i64
  %arrayidx.i.i129 = getelementptr inbounds i8, ptr %43, i64 %idxprom.i.i128
  %45 = load i8, ptr %arrayidx.i.i129, align 1, !tbaa !9
  %conv2.i130 = zext i8 %45 to i16
  %nx.i132 = getelementptr inbounds %class.Mixer, ptr %m, i64 0, i32 8
  %46 = load i32, ptr %nx.i132, align 8, !tbaa !64
  %inc.i133 = add nsw i32 %46, 1
  %data.i.i134 = getelementptr inbounds %class.Mixer, ptr %m, i64 0, i32 3, i32 3
  %47 = load ptr, ptr %data.i.i134, align 8, !tbaa !59
  %idxprom.i.i135 = sext i32 %46 to i64
  %arrayidx.i.i136 = getelementptr inbounds i16, ptr %47, i64 %idxprom.i.i135
  %cond.i137 = tail call i32 @llvm.smin.i32(i32 %40, i32 32)
  %48 = trunc i32 %cond.i137 to i16
  %inc.i140 = add nsw i32 %46, 2
  %idxprom.i.i142 = sext i32 %inc.i133 to i64
  %arrayidx.i.i143 = getelementptr inbounds i16, ptr %47, i64 %idxprom.i.i142
  br i1 %tobool53.not, label %if.else60, label %if.then54

if.then54:                                        ; preds = %if.end47
  %shl57 = shl nuw nsw i16 %conv2.i130, 2
  store i16 %shl57, ptr %arrayidx.i.i136, align 2, !tbaa !31
  %conv.i122 = shl i16 %48, 6
  store i32 %inc.i140, ptr %nx.i132, align 8, !tbaa !64
  store i16 %conv.i122, ptr %arrayidx.i.i143, align 2, !tbaa !31
  br label %if.end72

if.else60:                                        ; preds = %if.end47
  %shl63.neg = mul nsw i16 %conv2.i130, -4
  store i16 %shl63.neg, ptr %arrayidx.i.i136, align 2, !tbaa !31
  %conv.i138 = mul i16 %48, -64
  store i32 %inc.i140, ptr %nx.i132, align 8, !tbaa !64
  store i16 %conv.i138, ptr %arrayidx.i.i143, align 2, !tbaa !31
  br label %if.end72

if.else69:                                        ; preds = %land.lhs.true38, %if.then32
  store i32 0, ptr @_ZZ10matchModelR5MixerE3len, align 4, !tbaa !25
  %nx.i144 = getelementptr inbounds %class.Mixer, ptr %m, i64 0, i32 8
  %49 = load i32, ptr %nx.i144, align 8, !tbaa !64
  %inc.i145 = add nsw i32 %49, 1
  %data.i.i146 = getelementptr inbounds %class.Mixer, ptr %m, i64 0, i32 3, i32 3
  %50 = load ptr, ptr %data.i.i146, align 8, !tbaa !59
  %idxprom.i.i147 = sext i32 %49 to i64
  %arrayidx.i.i148 = getelementptr inbounds i16, ptr %50, i64 %idxprom.i.i147
  store i16 0, ptr %arrayidx.i.i148, align 2, !tbaa !31
  %inc.i150 = add nsw i32 %49, 2
  store i32 %inc.i150, ptr %nx.i144, align 8, !tbaa !64
  %idxprom.i.i152 = sext i32 %inc.i145 to i64
  %arrayidx.i.i153 = getelementptr inbounds i16, ptr %50, i64 %idxprom.i.i152
  store i16 0, ptr %arrayidx.i.i153, align 2, !tbaa !31
  br label %if.end72

if.else71:                                        ; preds = %if.end30
  %nx.i154 = getelementptr inbounds %class.Mixer, ptr %m, i64 0, i32 8
  %51 = load i32, ptr %nx.i154, align 8, !tbaa !64
  %inc.i155 = add nsw i32 %51, 1
  %data.i.i156 = getelementptr inbounds %class.Mixer, ptr %m, i64 0, i32 3, i32 3
  %52 = load ptr, ptr %data.i.i156, align 8, !tbaa !59
  %idxprom.i.i157 = sext i32 %51 to i64
  %arrayidx.i.i158 = getelementptr inbounds i16, ptr %52, i64 %idxprom.i.i157
  store i16 0, ptr %arrayidx.i.i158, align 2, !tbaa !31
  %inc.i160 = add nsw i32 %51, 2
  store i32 %inc.i160, ptr %nx.i154, align 8, !tbaa !64
  %idxprom.i.i162 = sext i32 %inc.i155 to i64
  %arrayidx.i.i163 = getelementptr inbounds i16, ptr %52, i64 %idxprom.i.i162
  store i16 0, ptr %arrayidx.i.i163, align 2, !tbaa !31
  br label %if.end72

if.end72:                                         ; preds = %if.else69, %if.else60, %if.then54, %if.else71
  %53 = phi ptr [ %50, %if.else69 ], [ %47, %if.else60 ], [ %47, %if.then54 ], [ %52, %if.else71 ]
  %54 = phi i32 [ %inc.i150, %if.else69 ], [ %inc.i140, %if.else60 ], [ %inc.i140, %if.then54 ], [ %inc.i160, %if.else71 ]
  %55 = load i32, ptr @y, align 4, !tbaa !25
  %shl.i = shl i32 %55, 16
  %56 = load ptr, ptr getelementptr inbounds (%class.SmallStationaryContextMap, ptr @_ZZ10matchModelR5MixerE4scm1, i64 0, i32 2), align 8, !tbaa !114
  %57 = load i16, ptr %56, align 2, !tbaa !31
  %conv.i164 = zext i16 %57 to i32
  %sub.i165 = or i32 %shl.i, 64
  %add.i = sub i32 %sub.i165, %conv.i164
  %58 = lshr i32 %add.i, 7
  %59 = trunc i32 %58 to i16
  %conv7.i = add i16 %57, %59
  store i16 %conv7.i, ptr %56, align 2, !tbaa !31
  %60 = load i32, ptr getelementptr inbounds (%class.SmallStationaryContextMap, ptr @_ZZ10matchModelR5MixerE4scm1, i64 0, i32 1), align 8, !tbaa !112
  %61 = load i32, ptr @c0, align 4, !tbaa !25
  %add8.i = add nsw i32 %61, %60
  %62 = load ptr, ptr getelementptr inbounds (%class.SmallStationaryContextMap, ptr @_ZZ10matchModelR5MixerE4scm1, i64 0, i32 0, i32 3), align 8, !tbaa !76
  %idxprom.i.i166 = sext i32 %add8.i to i64
  %arrayidx.i.i167 = getelementptr inbounds i16, ptr %62, i64 %idxprom.i.i166
  store ptr %arrayidx.i.i167, ptr getelementptr inbounds (%class.SmallStationaryContextMap, ptr @_ZZ10matchModelR5MixerE4scm1, i64 0, i32 2), align 8, !tbaa !114
  %63 = load i16, ptr %arrayidx.i.i167, align 2, !tbaa !31
  %64 = lshr i16 %63, 4
  %65 = load ptr, ptr getelementptr inbounds (%class.Stretch, ptr @stretch, i64 0, i32 0, i32 3), align 8, !tbaa !30
  %idxprom.i.i.i = zext i16 %64 to i64
  %arrayidx.i.i.i = getelementptr inbounds i16, ptr %65, i64 %idxprom.i.i.i
  %66 = load i16, ptr %arrayidx.i.i.i, align 2, !tbaa !31
  %nx.i.i = getelementptr inbounds %class.Mixer, ptr %m, i64 0, i32 8
  %inc.i.i = add nsw i32 %54, 1
  store i32 %inc.i.i, ptr %nx.i.i, align 8, !tbaa !64
  %idxprom.i.i15.i = sext i32 %54 to i64
  %arrayidx.i.i16.i = getelementptr inbounds i16, ptr %53, i64 %idxprom.i.i15.i
  store i16 %66, ptr %arrayidx.i.i16.i, align 2, !tbaa !31
  %67 = load i32, ptr @_ZZ10matchModelR5MixerE6result, align 4, !tbaa !25
  ret i32 %67

ehcleanup:                                        ; preds = %lpad5, %lpad
  %_ZGVZ10matchModelR5MixerE4scm1.sink = phi ptr [ @_ZGVZ10matchModelR5MixerE4scm1, %lpad5 ], [ @_ZGVZ10matchModelR5MixerE1t, %lpad ]
  %.pn = phi { ptr, i32 } [ %17, %lpad5 ], [ %16, %lpad ]
  tail call void @__cxa_guard_abort(ptr nonnull %_ZGVZ10matchModelR5MixerE4scm1.sink) #39
  resume { ptr, i32 } %.pn
}

; Function Attrs: nofree nounwind
declare i32 @__cxa_guard_acquire(ptr) local_unnamed_addr #4

; Function Attrs: nofree nounwind
declare void @__cxa_guard_abort(ptr) local_unnamed_addr #4

; Function Attrs: nofree nounwind
declare void @__cxa_guard_release(ptr) local_unnamed_addr #4

; Function Attrs: uwtable
define linkonce_odr dso_local void @_ZN25SmallStationaryContextMapC2Ei(ptr noundef nonnull align 8 dereferenceable(40) %this, i32 noundef %m) unnamed_addr #5 comdat align 2 personality ptr @__gxx_personality_v0 {
entry:
  %div = sdiv i32 %m, 2
  %reserved.i.i = getelementptr inbounds %class.Array.4, ptr %this, i64 0, i32 1
  store i32 %div, ptr %reserved.i.i, align 4, !tbaa !73
  store i32 %div, ptr %this, align 8, !tbaa !74
  %cmp.i.i = icmp slt i32 %m, 2
  br i1 %cmp.i.i, label %_ZN5ArrayItLi0EEC2Ei.exit, label %if.end.i.i

if.end.i.i:                                       ; preds = %entry
  %mul.i.i = shl nuw nsw i32 %div, 1
  %0 = load i32, ptr @programChecker, align 8, !tbaa !13
  %add.i.i.i = add nsw i32 %0, %mul.i.i
  store i32 %add.i.i.i, ptr @programChecker, align 8, !tbaa !13
  %1 = load i32, ptr getelementptr inbounds (%class.ProgramChecker, ptr @programChecker, i64 0, i32 1), align 4, !tbaa !16
  %cmp.i.i.i = icmp sgt i32 %add.i.i.i, %1
  br i1 %cmp.i.i.i, label %if.then.i.i.i, label %_ZN14ProgramChecker5allocEi.exit.i.i

if.then.i.i.i:                                    ; preds = %if.end.i.i
  store i32 %add.i.i.i, ptr getelementptr inbounds (%class.ProgramChecker, ptr @programChecker, i64 0, i32 1), align 4, !tbaa !16
  br label %_ZN14ProgramChecker5allocEi.exit.i.i

_ZN14ProgramChecker5allocEi.exit.i.i:             ; preds = %if.then.i.i.i, %if.end.i.i
  %conv4.i.i = zext i32 %mul.i.i to i64
  %call.i.i = tail call noalias ptr @calloc(i64 noundef %conv4.i.i, i64 noundef 1) #41
  %ptr5.i.i = getelementptr inbounds %class.Array.4, ptr %this, i64 0, i32 2
  store ptr %call.i.i, ptr %ptr5.i.i, align 8, !tbaa !75
  %tobool.not.i.i = icmp eq ptr %call.i.i, null
  br i1 %tobool.not.i.i, label %if.then7.i.i, label %for.body.lr.ph

if.then7.i.i:                                     ; preds = %_ZN14ProgramChecker5allocEi.exit.i.i
  %exception.i.i.i = tail call ptr @__cxa_allocate_exception(i64 8) #39
  store ptr @.str.59, ptr %exception.i.i.i, align 16, !tbaa !5
  tail call void @__cxa_throw(ptr nonnull %exception.i.i.i, ptr nonnull @_ZTIPKc, ptr null) #40
  unreachable

_ZN5ArrayItLi0EEC2Ei.exit:                        ; preds = %entry
  %ptr.i.i = getelementptr inbounds %class.Array.4, ptr %this, i64 0, i32 2
  tail call void @llvm.memset.p0.i64(ptr noundef nonnull align 8 dereferenceable(20) %ptr.i.i, i8 0, i64 20, i1 false)
  br label %for.cond.cleanup

for.body.lr.ph:                                   ; preds = %_ZN14ProgramChecker5allocEi.exit.i.i
  %data10.i.i = getelementptr inbounds %class.Array.4, ptr %this, i64 0, i32 3
  store ptr %call.i.i, ptr %data10.i.i, align 8, !tbaa !76
  %cxt17 = getelementptr inbounds %class.SmallStationaryContextMap, ptr %this, i64 0, i32 1
  store i32 0, ptr %cxt17, align 8, !tbaa !112
  %wide.trip.count = zext i32 %div to i64
  %min.iters.check = icmp ult i32 %div, 16
  br i1 %min.iters.check, label %for.body.preheader, label %vector.ph

vector.ph:                                        ; preds = %for.body.lr.ph
  %n.vec = and i64 %wide.trip.count, 4294967280
  br label %vector.body

vector.body:                                      ; preds = %vector.body, %vector.ph
  %index = phi i64 [ 0, %vector.ph ], [ %index.next, %vector.body ]
  %2 = getelementptr inbounds i16, ptr %call.i.i, i64 %index
  store <8 x i16> <i16 -32768, i16 -32768, i16 -32768, i16 -32768, i16 -32768, i16 -32768, i16 -32768, i16 -32768>, ptr %2, align 2, !tbaa !31
  %3 = getelementptr inbounds i16, ptr %2, i64 8
  store <8 x i16> <i16 -32768, i16 -32768, i16 -32768, i16 -32768, i16 -32768, i16 -32768, i16 -32768, i16 -32768>, ptr %3, align 2, !tbaa !31
  %index.next = add nuw i64 %index, 16
  %4 = icmp eq i64 %index.next, %n.vec
  br i1 %4, label %middle.block, label %vector.body, !llvm.loop !115

middle.block:                                     ; preds = %vector.body
  %cmp.n = icmp eq i64 %n.vec, %wide.trip.count
  br i1 %cmp.n, label %for.cond.cleanup, label %for.body.preheader

for.body.preheader:                               ; preds = %for.body.lr.ph, %middle.block
  %indvars.iv.ph = phi i64 [ 0, %for.body.lr.ph ], [ %n.vec, %middle.block ]
  br label %for.body

for.cond.cleanup:                                 ; preds = %for.body, %middle.block, %_ZN5ArrayItLi0EEC2Ei.exit
  %5 = phi ptr [ null, %_ZN5ArrayItLi0EEC2Ei.exit ], [ %call.i.i, %middle.block ], [ %call.i.i, %for.body ]
  %cp = getelementptr inbounds %class.SmallStationaryContextMap, ptr %this, i64 0, i32 2
  store ptr %5, ptr %cp, align 8, !tbaa !114
  ret void

for.body:                                         ; preds = %for.body.preheader, %for.body
  %indvars.iv = phi i64 [ %indvars.iv.next, %for.body ], [ %indvars.iv.ph, %for.body.preheader ]
  %arrayidx.i = getelementptr inbounds i16, ptr %call.i.i, i64 %indvars.iv
  store i16 -32768, ptr %arrayidx.i, align 2, !tbaa !31
  %indvars.iv.next = add nuw nsw i64 %indvars.iv, 1
  %exitcond.not = icmp eq i64 %indvars.iv.next, %wide.trip.count
  br i1 %exitcond.not, label %for.cond.cleanup, label %for.body, !llvm.loop !116
}

; Function Attrs: inlinehint nounwind uwtable
define linkonce_odr dso_local void @_ZN25SmallStationaryContextMapD2Ev(ptr noundef nonnull align 8 dereferenceable(40) %this) unnamed_addr #3 comdat align 2 {
entry:
  %0 = load i32, ptr %this, align 8, !tbaa !74
  %1 = load i32, ptr @programChecker, align 8, !tbaa !13
  %2 = shl i32 %0, 1
  %add.i.i = sub i32 %1, %2
  store i32 %add.i.i, ptr @programChecker, align 8, !tbaa !13
  %3 = load i32, ptr getelementptr inbounds (%class.ProgramChecker, ptr @programChecker, i64 0, i32 1), align 4, !tbaa !16
  %cmp.i.i = icmp sgt i32 %add.i.i, %3
  br i1 %cmp.i.i, label %if.then.i.i, label %_ZN5ArrayItLi0EED2Ev.exit

if.then.i.i:                                      ; preds = %entry
  store i32 %add.i.i, ptr getelementptr inbounds (%class.ProgramChecker, ptr @programChecker, i64 0, i32 1), align 4, !tbaa !16
  br label %_ZN5ArrayItLi0EED2Ev.exit

_ZN5ArrayItLi0EED2Ev.exit:                        ; preds = %entry, %if.then.i.i
  %ptr.i = getelementptr inbounds %class.Array.4, ptr %this, i64 0, i32 2
  %4 = load ptr, ptr %ptr.i, align 8, !tbaa !75
  tail call void @free(ptr noundef %4) #39
  ret void
}

; Function Attrs: mustprogress uwtable
define dso_local void @_Z8picModelR5Mixer(ptr nocapture noundef nonnull align 8 dereferenceable(136) %m) local_unnamed_addr #14 personality ptr @__gxx_personality_v0 {
entry:
  %0 = load atomic i8, ptr @_ZGVZ8picModelR5MixerE1t acquire, align 8
  %guard.uninitialized = icmp eq i8 %0, 0
  br i1 %guard.uninitialized, label %init.check, label %init.end, !prof !110

init.check:                                       ; preds = %entry
  %1 = tail call i32 @__cxa_guard_acquire(ptr nonnull @_ZGVZ8picModelR5MixerE1t) #39
  %tobool.not = icmp eq i32 %1, 0
  br i1 %tobool.not, label %init.end, label %init

init:                                             ; preds = %init.check
  invoke void @_ZN5ArrayIhLi0EEC2Ei(ptr noundef nonnull align 8 dereferenceable(24) @_ZZ8picModelR5MixerE1t, i32 noundef 66048)
          to label %invoke.cont unwind label %lpad

invoke.cont:                                      ; preds = %init
  %2 = tail call i32 @__cxa_atexit(ptr nonnull @_ZN5ArrayIhLi0EED2Ev, ptr nonnull @_ZZ8picModelR5MixerE1t, ptr nonnull @__dso_handle) #39
  tail call void @__cxa_guard_release(ptr nonnull @_ZGVZ8picModelR5MixerE1t) #39
  br label %init.end

init.end:                                         ; preds = %invoke.cont, %init.check, %entry
  %3 = load atomic i8, ptr @_ZGVZ8picModelR5MixerE2sm acquire, align 8
  %guard.uninitialized1 = icmp eq i8 %3, 0
  br i1 %guard.uninitialized1, label %init.check2, label %init.end8, !prof !110

init.check2:                                      ; preds = %init.end
  %4 = tail call i32 @__cxa_guard_acquire(ptr nonnull @_ZGVZ8picModelR5MixerE2sm) #39
  %tobool3.not = icmp eq i32 %4, 0
  br i1 %tobool3.not, label %init.end8, label %arrayctor.loop.preheader

arrayctor.loop.preheader:                         ; preds = %init.check2
  invoke void @_ZN8StateMapC2Ei(ptr noundef nonnull align 8 dereferenceable(32) @_ZZ8picModelR5MixerE2sm, i32 noundef 256)
          to label %invoke.cont6 unwind label %lpad5

invoke.cont6:                                     ; preds = %arrayctor.loop.preheader
  invoke void @_ZN8StateMapC2Ei(ptr noundef nonnull align 8 dereferenceable(32) getelementptr inbounds ([3 x %class.StateMap], ptr @_ZZ8picModelR5MixerE2sm, i64 0, i64 1), i32 noundef 256)
          to label %invoke.cont6.1 unwind label %arraydestroy.body.preheader

invoke.cont6.1:                                   ; preds = %invoke.cont6
  invoke void @_ZN8StateMapC2Ei(ptr noundef nonnull align 8 dereferenceable(32) getelementptr inbounds ([3 x %class.StateMap], ptr @_ZZ8picModelR5MixerE2sm, i64 0, i64 2), i32 noundef 256)
          to label %invoke.cont6.2 unwind label %arraydestroy.body.preheader

invoke.cont6.2:                                   ; preds = %invoke.cont6.1
  %5 = tail call i32 @__cxa_atexit(ptr nonnull @__cxx_global_array_dtor, ptr null, ptr nonnull @__dso_handle) #39
  tail call void @__cxa_guard_release(ptr nonnull @_ZGVZ8picModelR5MixerE2sm) #39
  br label %init.end8

init.end8:                                        ; preds = %invoke.cont6.2, %init.check2, %init.end
  %6 = load i32, ptr @_ZZ8picModelR5MixerE3cxt.0, align 4, !tbaa !25
  %7 = load ptr, ptr getelementptr inbounds (%class.Array.0, ptr @_ZZ8picModelR5MixerE1t, i64 0, i32 3), align 8, !tbaa !22
  %idxprom.i = sext i32 %6 to i64
  %arrayidx.i = getelementptr inbounds i8, ptr %7, i64 %idxprom.i
