; ModuleID = '/usr/local/google/home/aeubanks/repos/test-suite/MultiSource/Benchmarks/DOE-ProxyApps-C++/CLAMR/state.cpp'
source_filename = "/usr/local/google/home/aeubanks/repos/test-suite/MultiSource/Benchmarks/DOE-ProxyApps-C++/CLAMR/state.cpp"
target datalayout = "e-m:e-p270:32:32-p271:32:32-p272:64:64-i64:64-f80:128-n8:16:32:64-S128"
target triple = "x86_64-unknown-linux-gnu"

%"class.std::vector.11" = type { %"struct.std::_Vector_base.12" }
%"struct.std::_Vector_base.12" = type { %"struct.std::_Vector_base<double, std::allocator<double>>::_Vector_impl" }
%"struct.std::_Vector_base<double, std::allocator<double>>::_Vector_impl" = type { %"struct.std::_Vector_base<double, std::allocator<double>>::_Vector_impl_data" }
%"struct.std::_Vector_base<double, std::allocator<double>>::_Vector_impl_data" = type { ptr, ptr, ptr }
%class.MallocPlus = type { %"class.std::map", %"class.std::map.0" }
%"class.std::map" = type { %"class.std::_Rb_tree" }
%"class.std::_Rb_tree" = type { %"struct.std::_Rb_tree<std::__cxx11::basic_string<char>, std::pair<const std::__cxx11::basic_string<char>, malloc_plus_memory_entry *>, std::_Select1st<std::pair<const std::__cxx11::basic_string<char>, malloc_plus_memory_entry *>>, std::less<std::__cxx11::basic_string<char>>>::_Rb_tree_impl" }
%"struct.std::_Rb_tree<std::__cxx11::basic_string<char>, std::pair<const std::__cxx11::basic_string<char>, malloc_plus_memory_entry *>, std::_Select1st<std::pair<const std::__cxx11::basic_string<char>, malloc_plus_memory_entry *>>, std::less<std::__cxx11::basic_string<char>>>::_Rb_tree_impl" = type { %"struct.std::_Rb_tree_key_compare", %"struct.std::_Rb_tree_header" }
%"struct.std::_Rb_tree_key_compare" = type { %"struct.std::less" }
%"struct.std::less" = type { i8 }
%"struct.std::_Rb_tree_header" = type { %"struct.std::_Rb_tree_node_base", i64 }
%"struct.std::_Rb_tree_node_base" = type { i32, ptr, ptr, ptr }
%"class.std::map.0" = type { %"class.std::_Rb_tree.1" }
%"class.std::_Rb_tree.1" = type { %"struct.std::_Rb_tree<void *, std::pair<void *const, malloc_plus_memory_entry *>, std::_Select1st<std::pair<void *const, malloc_plus_memory_entry *>>, std::less<void *>>::_Rb_tree_impl" }
%"struct.std::_Rb_tree<void *, std::pair<void *const, malloc_plus_memory_entry *>, std::_Select1st<std::pair<void *const, malloc_plus_memory_entry *>>, std::less<void *>>::_Rb_tree_impl" = type { %"struct.std::_Rb_tree_key_compare.5", %"struct.std::_Rb_tree_header" }
%"struct.std::_Rb_tree_key_compare.5" = type { %"struct.std::less.6" }
%"struct.std::less.6" = type { i8 }
%class.State = type { %class.MallocPlus, %class.MallocPlus, ptr, ptr, ptr, ptr, [9 x double], [9 x i64] }
%class.Mesh = type { i32, %class.MallocPlus, %class.MallocPlus, [24 x double], [24 x i64], [4 x i32], [4 x i32], i8, i8, i32, i32, i32, i32, i32, ptr, ptr, float, double, i32, %"class.std::vector", %"class.std::vector", %"class.std::vector", %"class.std::vector", ptr, %struct.TKDTree, %"class.std::vector", %"class.std::vector", %"class.std::vector", %"class.std::vector", %"class.std::vector", %"class.std::vector", %"class.std::vector", %"class.std::vector", %"class.std::vector.11", %"class.std::vector.11", %"class.std::vector.11", i32, i32, i32, i32, i32, i32, i32, i32, i32, i64, i64, i64, double, double, double, double, double, double, double, double, double, double, double, double, double, double, double, %"class.std::vector", ptr, ptr, ptr, ptr, ptr, ptr, ptr, ptr, ptr, ptr, ptr, %"class.std::vector.11", %"class.std::vector.11", %"class.std::vector.11", %"class.std::vector.11", %"class.std::vector.11", %"class.std::vector.11", i32, i32, %"class.std::vector", %"class.std::vector", %"class.std::vector", %"class.std::vector", %"class.std::vector", %"class.std::vector", %"class.std::vector", %"class.std::vector", %"class.std::vector", %"class.std::vector", %"class.std::vector", %"class.std::vector", %"class.std::vector", %"class.std::vector", %"class.std::vector", %"class.std::vector", %"class.std::vector", %"class.std::vector", %"class.std::vector", %"class.std::vector", %"class.std::vector", %"class.std::vector", %"class.std::vector", %"class.std::vector", %"class.std::vector", %"class.std::vector", %"class.std::vector", %"class.std::vector", %"class.std::vector", %"class.std::vector" }
%struct.TKDTree = type { %struct.TBounds, i32, i32, ptr, i8, i32, ptr, ptr }
%struct.TBounds = type { %struct.TVector, %struct.TVector }
%struct.TVector = type { double, double }
%"class.std::vector" = type { %"struct.std::_Vector_base" }
%"struct.std::_Vector_base" = type { %"struct.std::_Vector_base<int, std::allocator<int>>::_Vector_impl" }
%"struct.std::_Vector_base<int, std::allocator<int>>::_Vector_impl" = type { %"struct.std::_Vector_base<int, std::allocator<int>>::_Vector_impl_data" }
%"struct.std::_Vector_base<int, std::allocator<int>>::_Vector_impl_data" = type { ptr, ptr, ptr }
%struct.timeval = type { i64, i64 }
%"struct.std::_Rb_tree<void *, std::pair<void *const, malloc_plus_memory_entry *>, std::_Select1st<std::pair<void *const, malloc_plus_memory_entry *>>, std::less<void *>>::_Alloc_node" = type { ptr }
%"struct.std::_Rb_tree<std::__cxx11::basic_string<char>, std::pair<const std::__cxx11::basic_string<char>, malloc_plus_memory_entry *>, std::_Select1st<std::pair<const std::__cxx11::basic_string<char>, malloc_plus_memory_entry *>>, std::less<std::__cxx11::basic_string<char>>>::_Alloc_node" = type { ptr }
%"struct.std::_Rb_tree_node" = type { %"struct.std::_Rb_tree_node_base", %"struct.__gnu_cxx::__aligned_membuf" }
%"struct.__gnu_cxx::__aligned_membuf" = type { [40 x i8] }
%"class.std::__cxx11::basic_string" = type { %"struct.std::__cxx11::basic_string<char>::_Alloc_hider", i64, %union.anon }
%"struct.std::__cxx11::basic_string<char>::_Alloc_hider" = type { ptr }
%union.anon = type { i64, [8 x i8] }
%"struct.std::pair" = type { %"class.std::__cxx11::basic_string", ptr }
%"struct.std::_Rb_tree_node.19" = type { %"struct.std::_Rb_tree_node_base", %"struct.__gnu_cxx::__aligned_membuf.20" }
%"struct.__gnu_cxx::__aligned_membuf.20" = type { [16 x i8] }

$_ZNSt6vectorIdSaIdEED2Ev = comdat any

$_ZN10MallocPlusD2Ev = comdat any

$__clang_call_terminate = comdat any

$_ZNSt3mapINSt7__cxx1112basic_stringIcSt11char_traitsIcESaIcEEEP24malloc_plus_memory_entrySt4lessIS5_ESaISt4pairIKS5_S7_EEED2Ev = comdat any

$_ZNSt8_Rb_treeINSt7__cxx1112basic_stringIcSt11char_traitsIcESaIcEEESt4pairIKS5_P24malloc_plus_memory_entryESt10_Select1stISA_ESt4lessIS5_ESaISA_EE7_M_copyILb0ENSG_11_Alloc_nodeEEEPSt13_Rb_tree_nodeISA_ESL_PSt18_Rb_tree_node_baseRT0_ = comdat any

$_ZNSt8_Rb_treeINSt7__cxx1112basic_stringIcSt11char_traitsIcESaIcEEESt4pairIKS5_P24malloc_plus_memory_entryESt10_Select1stISA_ESt4lessIS5_ESaISA_EE8_M_eraseEPSt13_Rb_tree_nodeISA_E = comdat any

$_ZNSt8_Rb_treeINSt7__cxx1112basic_stringIcSt11char_traitsIcESaIcEEESt4pairIKS5_P24malloc_plus_memory_entryESt10_Select1stISA_ESt4lessIS5_ESaISA_EE17_M_construct_nodeIJRKSA_EEEvPSt13_Rb_tree_nodeISA_EDpOT_ = comdat any

$_ZNSt8_Rb_treeIPvSt4pairIKS0_P24malloc_plus_memory_entryESt10_Select1stIS5_ESt4lessIS0_ESaIS5_EE7_M_copyILb0ENSB_11_Alloc_nodeEEEPSt13_Rb_tree_nodeIS5_ESG_PSt18_Rb_tree_node_baseRT0_ = comdat any

$_ZNSt8_Rb_treeIPvSt4pairIKS0_P24malloc_plus_memory_entryESt10_Select1stIS5_ESt4lessIS0_ESaIS5_EE8_M_eraseEPSt13_Rb_tree_nodeIS5_E = comdat any

$_ZNSt6vectorIiSaIiEE17_M_default_appendEm = comdat any

$_ZNSt6vectorIdSaIdEE17_M_default_appendEm = comdat any

@save_ncells = dso_local local_unnamed_addr global i32 0, align 4
@.str = private unnamed_addr constant [2 x i8] c"H\00", align 1
@.str.1 = private unnamed_addr constant [2 x i8] c"U\00", align 1
@.str.2 = private unnamed_addr constant [2 x i8] c"V\00", align 1
@_ZZN5State31apply_boundary_conditions_localEvE4nlft = internal unnamed_addr global ptr null, align 8
@_ZZN5State31apply_boundary_conditions_localEvE4nrht = internal unnamed_addr global ptr null, align 8
@_ZZN5State31apply_boundary_conditions_localEvE4nbot = internal unnamed_addr global ptr null, align 8
@_ZZN5State31apply_boundary_conditions_localEvE4ntop = internal unnamed_addr global ptr null, align 8
@_ZZN5State31apply_boundary_conditions_ghostEvE4nlft = internal unnamed_addr global ptr null, align 8
@_ZZN5State31apply_boundary_conditions_ghostEvE4nrht = internal unnamed_addr global ptr null, align 8
@_ZZN5State31apply_boundary_conditions_ghostEvE4nbot = internal unnamed_addr global ptr null, align 8
@_ZZN5State31apply_boundary_conditions_ghostEvE4ntop = internal unnamed_addr global ptr null, align 8
@_ZZN5State12set_timestepEddE9mindeltaT = internal unnamed_addr global double 0.000000e+00, align 8
@_ZZN5State22calc_finite_differenceEdE5H_new = internal unnamed_addr global ptr null, align 8
@_ZZN5State22calc_finite_differenceEdE5U_new = internal unnamed_addr global ptr null, align 8
@_ZZN5State22calc_finite_differenceEdE5V_new = internal unnamed_addr global ptr null, align 8
@.str.3 = private unnamed_addr constant [6 x i8] c"H_new\00", align 1
@.str.4 = private unnamed_addr constant [6 x i8] c"U_new\00", align 1
@.str.5 = private unnamed_addr constant [6 x i8] c"V_new\00", align 1
@_ZZN5State32calc_finite_difference_via_facesEdE2Hx = internal global %"class.std::vector.11" zeroinitializer, align 8
@_ZGVZN5State32calc_finite_difference_via_facesEdE2Hx = internal global i64 0, align 8
@__dso_handle = external hidden global i8
@_ZZN5State32calc_finite_difference_via_facesEdE2Ux = internal global %"class.std::vector.11" zeroinitializer, align 8
@_ZGVZN5State32calc_finite_difference_via_facesEdE2Ux = internal global i64 0, align 8
@_ZZN5State32calc_finite_difference_via_facesEdE2Vx = internal global %"class.std::vector.11" zeroinitializer, align 8
@_ZGVZN5State32calc_finite_difference_via_facesEdE2Vx = internal global i64 0, align 8
@_ZZN5State32calc_finite_difference_via_facesEdE2Hy = internal global %"class.std::vector.11" zeroinitializer, align 8
@_ZGVZN5State32calc_finite_difference_via_facesEdE2Hy = internal global i64 0, align 8
@_ZZN5State32calc_finite_difference_via_facesEdE2Uy = internal global %"class.std::vector.11" zeroinitializer, align 8
@_ZGVZN5State32calc_finite_difference_via_facesEdE2Uy = internal global i64 0, align 8
@_ZZN5State32calc_finite_difference_via_facesEdE2Vy = internal global %"class.std::vector.11" zeroinitializer, align 8
@_ZGVZN5State32calc_finite_difference_via_facesEdE2Vy = internal global i64 0, align 8
@_ZZN5State32calc_finite_difference_via_facesEdE5H_new = internal unnamed_addr global ptr null, align 8
@_ZZN5State32calc_finite_difference_via_facesEdE5U_new = internal unnamed_addr global ptr null, align 8
@_ZZN5State32calc_finite_difference_via_facesEdE5V_new = internal unnamed_addr global ptr null, align 8
@.str.6 = private unnamed_addr constant [45 x i8] c"%s ic %d sym %d H[ic] %lf Hsym %lf diff %lf\0A\00", align 1
@.str.7 = private unnamed_addr constant [45 x i8] c"%s ic %d sym %d U[ic] %lf Usym %lf diff %lf\0A\00", align 1
@.str.8 = private unnamed_addr constant [45 x i8] c"%s ic %d sym %d V[ic] %lf Vsym %lf diff %lf\0A\00", align 1
@.str.9 = private unnamed_addr constant [4 x i8] c"CPU\00", align 1
@.str.10 = private unnamed_addr constant [4 x i8] c"GPU\00", align 1
@.str.11 = private unnamed_addr constant [11 x i8] c"          \00", align 1
@reltable._ZN5State12timer_outputE12state_timers17mesh_device_typesi = private unnamed_addr constant [2 x i32] [i32 trunc (i64 sub (i64 ptrtoint (ptr @.str.9 to i64), i64 ptrtoint (ptr @reltable._ZN5State12timer_outputE12state_timers17mesh_device_typesi to i64)) to i32), i32 trunc (i64 sub (i64 ptrtoint (ptr @.str.10 to i64), i64 ptrtoint (ptr @reltable._ZN5State12timer_outputE12state_timers17mesh_device_typesi to i64)) to i32)], align 4
@.str.12 = private unnamed_addr constant [19 x i8] c"%3s: %.*s%-30.30s\09\00", align 1
@reltable._ZN5State12timer_outputE12state_timers17mesh_device_typesi.62 = internal unnamed_addr constant [9 x i32] [i32 trunc (i64 sub (i64 ptrtoint (ptr @.str.49 to i64), i64 ptrtoint (ptr @reltable._ZN5State12timer_outputE12state_timers17mesh_device_typesi.62 to i64)) to i32), i32 trunc (i64 sub (i64 ptrtoint (ptr @.str.50 to i64), i64 ptrtoint (ptr @reltable._ZN5State12timer_outputE12state_timers17mesh_device_typesi.62 to i64)) to i32), i32 trunc (i64 sub (i64 ptrtoint (ptr @.str.51 to i64), i64 ptrtoint (ptr @reltable._ZN5State12timer_outputE12state_timers17mesh_device_typesi.62 to i64)) to i32), i32 trunc (i64 sub (i64 ptrtoint (ptr @.str.52 to i64), i64 ptrtoint (ptr @reltable._ZN5State12timer_outputE12state_timers17mesh_device_typesi.62 to i64)) to i32), i32 trunc (i64 sub (i64 ptrtoint (ptr @.str.53 to i64), i64 ptrtoint (ptr @reltable._ZN5State12timer_outputE12state_timers17mesh_device_typesi.62 to i64)) to i32), i32 trunc (i64 sub (i64 ptrtoint (ptr @.str.54 to i64), i64 ptrtoint (ptr @reltable._ZN5State12timer_outputE12state_timers17mesh_device_typesi.62 to i64)) to i32), i32 trunc (i64 sub (i64 ptrtoint (ptr @.str.55 to i64), i64 ptrtoint (ptr @reltable._ZN5State12timer_outputE12state_timers17mesh_device_typesi.62 to i64)) to i32), i32 trunc (i64 sub (i64 ptrtoint (ptr @.str.56 to i64), i64 ptrtoint (ptr @reltable._ZN5State12timer_outputE12state_timers17mesh_device_typesi.62 to i64)) to i32), i32 trunc (i64 sub (i64 ptrtoint (ptr @.str.57 to i64), i64 ptrtoint (ptr @reltable._ZN5State12timer_outputE12state_timers17mesh_device_typesi.62 to i64)) to i32)], align 4
@.str.13 = private unnamed_addr constant [2 x i8] c"s\00", align 1
@.str.14 = private unnamed_addr constant [45 x i8] c"DEBUG %s at cycle %d H & H_check %d %lf %lf\0A\00", align 1
@.str.15 = private unnamed_addr constant [45 x i8] c"DEBUG %s at cycle %d U & U_check %d %lf %lf\0A\00", align 1
@.str.16 = private unnamed_addr constant [45 x i8] c"DEBUG %s at cycle %d V & V_check %d %lf %lf\0A\00", align 1
@.str.18 = private unnamed_addr constant [7 x i8] c"out%1d\00", align 1
@.str.19 = private unnamed_addr constant [2 x i8] c"w\00", align 1
@.str.20 = private unnamed_addr constant [63 x i8] c"%d:   index global  i     j     lev   nlft  nrht  nbot  ntop \0A\00", align 1
@.str.21 = private unnamed_addr constant [50 x i8] c"%d: %6d  %6d %4d  %4d   %4d  %4d  %4d  %4d  %4d \0A\00", align 1
@.str.22 = private unnamed_addr constant [58 x i8] c"%d:  index     H        U         V      i     j     lev\0A\00", align 1
@.str.23 = private unnamed_addr constant [38 x i8] c"%d: %6d %lf %lf %lf %4d  %4d   %4d  \0A\00", align 1
@.str.24 = private unnamed_addr constant [15 x i8] c"state_int_vals\00", align 1
@.str.25 = private unnamed_addr constant [17 x i8] c"state_cpu_timers\00", align 1
@.str.26 = private unnamed_addr constant [17 x i8] c"state_gpu_timers\00", align 1
@.str.27 = private unnamed_addr constant [8 x i8] c"storage\00", align 1
@.str.28 = private unnamed_addr constant [84 x i8] c"CRUX version mismatch for state data, version on file is %d, version in code is %d\0A\00", align 1
@.str.31 = private unnamed_addr constant [18 x i8] c"       %-30s %lg\0A\00", align 1
@.str.32 = private unnamed_addr constant [12 x i8] c"iteration%d\00", align 1
@.str.33 = private unnamed_addr constant [38 x i8] c"Iteration = %d\09\09Simuation Time = %lf\0A\00", align 1
@.str.34 = private unnamed_addr constant [46 x i8] c"mesh->ncells = %lu\09\09mesh->ncells_ghost = %lu\0A\00", align 1
@.str.35 = private unnamed_addr constant [46 x i8] c"Initial Mass: %14.12lg\09\09Simulation Time: %lf\0A\00", align 1
@.str.36 = private unnamed_addr constant [50 x i8] c"Initial Mass: %14.12lg\09\09Iteration Mass: %14.12lg\0A\00", align 1
@.str.37 = private unnamed_addr constant [65 x i8] c"Mass Difference: %12.6lg\09\09Mass Difference Percentage: %12.6lg%%\0A\00", align 1
@.str.38 = private unnamed_addr constant [35 x i8] c"DEBUG in print_local ncycle is %d\0A\00", align 1
@.str.39 = private unnamed_addr constant [86 x i8] c"%d:  index     H        U         V      i     j     lev   nlft   nrht   nbot   ntop\0A\00", align 1
@.str.40 = private unnamed_addr constant [73 x i8] c"%d: %6d                              %4d  %4d   %4d  %4d  %4d  %4d  %4d\0A\00", align 1
@.str.41 = private unnamed_addr constant [56 x i8] c"%d: %6d %lf %lf %lf %4d  %4d   %4d  %4d  %4d  %4d  %4d\0A\00", align 1
@.str.42 = private unnamed_addr constant [36 x i8] c"%d: %6d %lf %lf %lf %4d  %4d   %4d\0A\00", align 1
@__const._ZN5State17print_failure_logEiddddb.filename = private unnamed_addr constant [12 x i8] c"failure.log\00", align 1
@.str.43 = private unnamed_addr constant [50 x i8] c"Failed because of nan for H_sum was equal to NAN\0A\00", align 1
@.str.44 = private unnamed_addr constant [66 x i8] c"Failed because mass difference is outside of accepted percentage\0A\00", align 1
@.str.45 = private unnamed_addr constant [15 x i8] c"rollback%d.log\00", align 1
@.str.46 = private unnamed_addr constant [56 x i8] c"Rolling back because of nan for H_sum was equal to NAN\0A\00", align 1
@.str.47 = private unnamed_addr constant [72 x i8] c"Rolling back because mass difference is outside of accepted percentage\0A\00", align 1
@.str.48 = private unnamed_addr constant [59 x i8] c"Rollback attempt %d of %d ---> Number of attempts left:%d\0A\00", align 1
@.str.49 = private unnamed_addr constant [22 x i8] c"state_timer_apply_BCs\00", align 1
@.str.50 = private unnamed_addr constant [25 x i8] c"state_timer_set_timestep\00", align 1
@.str.51 = private unnamed_addr constant [30 x i8] c"state_timer_finite_difference\00", align 1
@.str.52 = private unnamed_addr constant [29 x i8] c"state_timer_refine_potential\00", align 1
@.str.53 = private unnamed_addr constant [22 x i8] c"state_timer_calc_mpot\00", align 1
@.str.54 = private unnamed_addr constant [23 x i8] c"state_timer_rezone_all\00", align 1
@.str.55 = private unnamed_addr constant [21 x i8] c"state_timer_mass_sum\00", align 1
@.str.56 = private unnamed_addr constant [17 x i8] c"state_timer_read\00", align 1
@.str.57 = private unnamed_addr constant [18 x i8] c"state_timer_write\00", align 1
@.str.58 = private unnamed_addr constant [26 x i8] c"vector::_M_default_append\00", align 1
@.str.59 = private unnamed_addr constant [49 x i8] c"cannot create std::vector larger than max_size()\00", align 1
@str = private unnamed_addr constant [30 x i8] c" ---- State object info -----\00", align 1
@str.61 = private unnamed_addr constant [41 x i8] c"       === Restored state cpu timers ===\00", align 1

@_ZN5StateC1EP4Mesh = dso_local unnamed_addr alias void (ptr, ptr), ptr @_ZN5StateC2EP4Mesh

; Function Attrs: mustprogress nofree nosync nounwind willreturn memory(argmem: write) uwtable
define dso_local void @_ZN5StateC2EP4Mesh(ptr noundef nonnull align 8 dereferenceable(368) %this, ptr noundef %mesh_in) unnamed_addr #0 align 2 personality ptr @__gxx_personality_v0 {
entry:
  %0 = getelementptr inbounds i8, ptr %this, i64 8
  store i32 0, ptr %0, align 8, !tbaa !5
  %_M_parent.i.i.i.i.i.i = getelementptr inbounds i8, ptr %this, i64 16
  store ptr null, ptr %_M_parent.i.i.i.i.i.i, align 8, !tbaa !13
  %_M_left.i.i.i.i.i.i = getelementptr inbounds i8, ptr %this, i64 24
  store ptr %0, ptr %_M_left.i.i.i.i.i.i, align 8, !tbaa !14
  %_M_right.i.i.i.i.i.i = getelementptr inbounds i8, ptr %this, i64 32
  store ptr %0, ptr %_M_right.i.i.i.i.i.i, align 8, !tbaa !15
  %_M_node_count.i.i.i.i.i.i = getelementptr inbounds i8, ptr %this, i64 40
  store i64 0, ptr %_M_node_count.i.i.i.i.i.i, align 8, !tbaa !16
  %1 = getelementptr inbounds %class.MallocPlus, ptr %this, i64 0, i32 1, i32 0, i32 0, i32 1
  store i32 0, ptr %1, align 8, !tbaa !5
  %_M_parent.i.i.i.i.i2.i = getelementptr inbounds %class.MallocPlus, ptr %this, i64 0, i32 1, i32 0, i32 0, i32 1, i32 0, i32 1
  store ptr null, ptr %_M_parent.i.i.i.i.i2.i, align 8, !tbaa !13
  %_M_left.i.i.i.i.i3.i = getelementptr inbounds %class.MallocPlus, ptr %this, i64 0, i32 1, i32 0, i32 0, i32 1, i32 0, i32 2
  store ptr %1, ptr %_M_left.i.i.i.i.i3.i, align 8, !tbaa !14
  %_M_right.i.i.i.i.i4.i = getelementptr inbounds %class.MallocPlus, ptr %this, i64 0, i32 1, i32 0, i32 0, i32 1, i32 0, i32 3
  store ptr %1, ptr %_M_right.i.i.i.i.i4.i, align 8, !tbaa !15
  %_M_node_count.i.i.i.i.i5.i = getelementptr inbounds %class.MallocPlus, ptr %this, i64 0, i32 1, i32 0, i32 0, i32 1, i32 1
  store i64 0, ptr %_M_node_count.i.i.i.i.i5.i, align 8, !tbaa !16
  %2 = getelementptr inbounds %class.State, ptr %this, i64 0, i32 1, i32 0, i32 0, i32 0, i32 1
  store i32 0, ptr %2, align 8, !tbaa !5
  %_M_parent.i.i.i.i.i.i16 = getelementptr inbounds %class.State, ptr %this, i64 0, i32 1, i32 0, i32 0, i32 0, i32 1, i32 0, i32 1
  store ptr null, ptr %_M_parent.i.i.i.i.i.i16, align 8, !tbaa !13
  %_M_left.i.i.i.i.i.i17 = getelementptr inbounds %class.State, ptr %this, i64 0, i32 1, i32 0, i32 0, i32 0, i32 1, i32 0, i32 2
  store ptr %2, ptr %_M_left.i.i.i.i.i.i17, align 8, !tbaa !14
  %_M_right.i.i.i.i.i.i18 = getelementptr inbounds %class.State, ptr %this, i64 0, i32 1, i32 0, i32 0, i32 0, i32 1, i32 0, i32 3
  store ptr %2, ptr %_M_right.i.i.i.i.i.i18, align 8, !tbaa !15
  %_M_node_count.i.i.i.i.i.i19 = getelementptr inbounds %class.State, ptr %this, i64 0, i32 1, i32 0, i32 0, i32 0, i32 1, i32 1
  store i64 0, ptr %_M_node_count.i.i.i.i.i.i19, align 8, !tbaa !16
  %3 = getelementptr inbounds %class.State, ptr %this, i64 0, i32 1, i32 1, i32 0, i32 0, i32 1
  store i32 0, ptr %3, align 8, !tbaa !5
  %_M_parent.i.i.i.i.i2.i20 = getelementptr inbounds %class.State, ptr %this, i64 0, i32 1, i32 1, i32 0, i32 0, i32 1, i32 0, i32 1
  store ptr null, ptr %_M_parent.i.i.i.i.i2.i20, align 8, !tbaa !13
  %_M_left.i.i.i.i.i3.i21 = getelementptr inbounds %class.State, ptr %this, i64 0, i32 1, i32 1, i32 0, i32 0, i32 1, i32 0, i32 2
  store ptr %3, ptr %_M_left.i.i.i.i.i3.i21, align 8, !tbaa !14
  %_M_right.i.i.i.i.i4.i22 = getelementptr inbounds %class.State, ptr %this, i64 0, i32 1, i32 1, i32 0, i32 0, i32 1, i32 0, i32 3
  store ptr %3, ptr %_M_right.i.i.i.i.i4.i22, align 8, !tbaa !15
  %_M_node_count.i.i.i.i.i5.i23 = getelementptr inbounds %class.State, ptr %this, i64 0, i32 1, i32 1, i32 0, i32 0, i32 1, i32 1
  store i64 0, ptr %_M_node_count.i.i.i.i.i5.i23, align 8, !tbaa !16
  %scevgep = getelementptr i8, ptr %this, i64 224
  %mesh = getelementptr inbounds %class.State, ptr %this, i64 0, i32 2
  tail call void @llvm.memset.p0.i64(ptr noundef nonnull align 8 dereferenceable(144) %scevgep, i8 0, i64 144, i1 false)
  store ptr %mesh_in, ptr %mesh, align 8, !tbaa !17
  ret void
}

; Function Attrs: mustprogress nocallback nofree nosync nounwind willreturn memory(argmem: readwrite)
declare void @llvm.lifetime.start.p0(i64 immarg, ptr nocapture) #1

; Function Attrs: mustprogress nocallback nofree nosync nounwind willreturn memory(argmem: readwrite)
declare void @llvm.lifetime.end.p0(i64 immarg, ptr nocapture) #1

; Function Attrs: mustprogress uwtable
define dso_local void @_ZN5State4initEi(ptr noundef nonnull align 8 dereferenceable(368) %this, i32 noundef %do_gpu_calc) local_unnamed_addr #2 align 2 {
entry:
  %mesh = getelementptr inbounds %class.State, ptr %this, i64 0, i32 2
  %0 = load ptr, ptr %mesh, align 8, !tbaa !17
  %ncells = getelementptr inbounds %class.Mesh, ptr %0, i64 0, i32 45
  %1 = load i64, ptr %ncells, align 8, !tbaa !30
  %call.i = tail call noundef ptr @_ZN10MallocPlus13memory_mallocEmmPKci(ptr noundef nonnull align 8 dereferenceable(96) %this, i64 noundef %1, i64 noundef 8, ptr noundef nonnull @.str, i32 noundef 16)
  %H.i = getelementptr inbounds %class.State, ptr %this, i64 0, i32 3
  store ptr %call.i, ptr %H.i, align 8, !tbaa !47
  %call3.i = tail call noundef ptr @_ZN10MallocPlus13memory_mallocEmmPKci(ptr noundef nonnull align 8 dereferenceable(96) %this, i64 noundef %1, i64 noundef 8, ptr noundef nonnull @.str.1, i32 noundef 16)
  %U.i = getelementptr inbounds %class.State, ptr %this, i64 0, i32 4
  store ptr %call3.i, ptr %U.i, align 8, !tbaa !48
  %call5.i = tail call noundef ptr @_ZN10MallocPlus13memory_mallocEmmPKci(ptr noundef nonnull align 8 dereferenceable(96) %this, i64 noundef %1, i64 noundef 8, ptr noundef nonnull @.str.2, i32 noundef 16)
  %V.i = getelementptr inbounds %class.State, ptr %this, i64 0, i32 5
  store ptr %call5.i, ptr %V.i, align 8, !tbaa !49
  ret void
}

; Function Attrs: mustprogress uwtable
define dso_local void @_ZN5State8allocateEm(ptr noundef nonnull align 8 dereferenceable(368) %this, i64 noundef %ncells) local_unnamed_addr #2 align 2 {
entry:
  %call = tail call noundef ptr @_ZN10MallocPlus13memory_mallocEmmPKci(ptr noundef nonnull align 8 dereferenceable(96) %this, i64 noundef %ncells, i64 noundef 8, ptr noundef nonnull @.str, i32 noundef 16)
  %H = getelementptr inbounds %class.State, ptr %this, i64 0, i32 3
  store ptr %call, ptr %H, align 8, !tbaa !47
  %call3 = tail call noundef ptr @_ZN10MallocPlus13memory_mallocEmmPKci(ptr noundef nonnull align 8 dereferenceable(96) %this, i64 noundef %ncells, i64 noundef 8, ptr noundef nonnull @.str.1, i32 noundef 16)
  %U = getelementptr inbounds %class.State, ptr %this, i64 0, i32 4
  store ptr %call3, ptr %U, align 8, !tbaa !48
  %call5 = tail call noundef ptr @_ZN10MallocPlus13memory_mallocEmmPKci(ptr noundef nonnull align 8 dereferenceable(96) %this, i64 noundef %ncells, i64 noundef 8, ptr noundef nonnull @.str.2, i32 noundef 16)
  %V = getelementptr inbounds %class.State, ptr %this, i64 0, i32 5
  store ptr %call5, ptr %V, align 8, !tbaa !49
  ret void
}

declare noundef ptr @_ZN10MallocPlus13memory_mallocEmmPKci(ptr noundef nonnull align 8 dereferenceable(96), i64 noundef, i64 noundef, ptr noundef, i32 noundef) local_unnamed_addr #3

; Function Attrs: mustprogress uwtable
define dso_local void @_ZN5State6resizeEm(ptr noundef nonnull align 8 dereferenceable(368) %this, i64 noundef %new_ncells) local_unnamed_addr #2 align 2 {
entry:
  %H = getelementptr inbounds %class.State, ptr %this, i64 0, i32 3
  %0 = load ptr, ptr %H, align 8, !tbaa !47
  %call = tail call noundef i64 @_ZN10MallocPlus15get_memory_sizeEPv(ptr noundef nonnull align 8 dereferenceable(96) %this, ptr noundef %0)
  %cmp = icmp ult i64 %call, %new_ncells
  br i1 %cmp, label %if.then, label %if.end

if.then:                                          ; preds = %entry
  tail call void @_ZN10MallocPlus18memory_realloc_allEm(ptr noundef nonnull align 8 dereferenceable(96) %this, i64 noundef %new_ncells)
  br label %if.end

if.end:                                           ; preds = %if.then, %entry
  ret void
}

declare noundef i64 @_ZN10MallocPlus15get_memory_sizeEPv(ptr noundef nonnull align 8 dereferenceable(96), ptr noundef) local_unnamed_addr #3

declare void @_ZN10MallocPlus18memory_realloc_allEm(ptr noundef nonnull align 8 dereferenceable(96), i64 noundef) local_unnamed_addr #3

; Function Attrs: mustprogress uwtable
define dso_local void @_ZN5State17memory_reset_ptrsEv(ptr noundef nonnull align 8 dereferenceable(368) %this) local_unnamed_addr #2 align 2 {
entry:
  %call = tail call noundef ptr @_ZN10MallocPlus14get_memory_ptrEPKc(ptr noundef nonnull align 8 dereferenceable(96) %this, ptr noundef nonnull @.str)
  %H = getelementptr inbounds %class.State, ptr %this, i64 0, i32 3
  store ptr %call, ptr %H, align 8, !tbaa !47
  %call3 = tail call noundef ptr @_ZN10MallocPlus14get_memory_ptrEPKc(ptr noundef nonnull align 8 dereferenceable(96) %this, ptr noundef nonnull @.str.1)
  %U = getelementptr inbounds %class.State, ptr %this, i64 0, i32 4
  store ptr %call3, ptr %U, align 8, !tbaa !48
  %call5 = tail call noundef ptr @_ZN10MallocPlus14get_memory_ptrEPKc(ptr noundef nonnull align 8 dereferenceable(96) %this, ptr noundef nonnull @.str.2)
  %V = getelementptr inbounds %class.State, ptr %this, i64 0, i32 5
  store ptr %call5, ptr %V, align 8, !tbaa !49
  ret void
}

declare noundef ptr @_ZN10MallocPlus14get_memory_ptrEPKc(ptr noundef nonnull align 8 dereferenceable(96), ptr noundef) local_unnamed_addr #3

; Function Attrs: mustprogress uwtable
define dso_local void @_ZN5State9terminateEv(ptr noundef nonnull align 8 dereferenceable(368) %this) local_unnamed_addr #2 align 2 {
entry:
  %H = getelementptr inbounds %class.State, ptr %this, i64 0, i32 3
  %0 = load ptr, ptr %H, align 8, !tbaa !47
  %call = tail call noundef ptr @_ZN10MallocPlus13memory_deleteEPv(ptr noundef nonnull align 8 dereferenceable(96) %this, ptr noundef %0)
  %U = getelementptr inbounds %class.State, ptr %this, i64 0, i32 4
  %1 = load ptr, ptr %U, align 8, !tbaa !48
  %call3 = tail call noundef ptr @_ZN10MallocPlus13memory_deleteEPv(ptr noundef nonnull align 8 dereferenceable(96) %this, ptr noundef %1)
  %V = getelementptr inbounds %class.State, ptr %this, i64 0, i32 5
  %2 = load ptr, ptr %V, align 8, !tbaa !49
  %call5 = tail call noundef ptr @_ZN10MallocPlus13memory_deleteEPv(ptr noundef nonnull align 8 dereferenceable(96) %this, ptr noundef %2)
  ret void
}

declare noundef ptr @_ZN10MallocPlus13memory_deleteEPv(ptr noundef nonnull align 8 dereferenceable(96), ptr noundef) local_unnamed_addr #3

; Function Attrs: mustprogress uwtable
define dso_local void @_ZN5State18add_boundary_cellsEv(ptr noundef nonnull align 8 dereferenceable(368) %this) local_unnamed_addr #2 align 2 personality ptr @__gxx_personality_v0 {
entry:
  %tstart_cpu = alloca %struct.timeval, align 8
  call void @llvm.lifetime.start.p0(i64 16, ptr nonnull %tstart_cpu) #24
  call void @cpu_timer_start(ptr noundef nonnull %tstart_cpu)
  %mesh = getelementptr inbounds %class.State, ptr %this, i64 0, i32 2
  %0 = load ptr, ptr %mesh, align 8, !tbaa !17
  %ncells2 = getelementptr inbounds %class.Mesh, ptr %0, i64 0, i32 45
  %index4 = getelementptr inbounds %class.Mesh, ptr %0, i64 0, i32 63
  %x6 = getelementptr inbounds %class.Mesh, ptr %0, i64 0, i32 75
  %dx8 = getelementptr inbounds %class.Mesh, ptr %0, i64 0, i32 76
  %y10 = getelementptr inbounds %class.Mesh, ptr %0, i64 0, i32 77
  %dy12 = getelementptr inbounds %class.Mesh, ptr %0, i64 0, i32 78
  %i14 = getelementptr inbounds %class.Mesh, ptr %0, i64 0, i32 64
  %1 = load ptr, ptr %i14, align 8, !tbaa !50
  %j16 = getelementptr inbounds %class.Mesh, ptr %0, i64 0, i32 65
  %2 = load ptr, ptr %j16, align 8, !tbaa !51
  %level18 = getelementptr inbounds %class.Mesh, ptr %0, i64 0, i32 67
  %3 = load ptr, ptr %level18, align 8, !tbaa !52
  %celltype20 = getelementptr inbounds %class.Mesh, ptr %0, i64 0, i32 68
  %4 = load ptr, ptr %celltype20, align 8, !tbaa !53
  %nlft22 = getelementptr inbounds %class.Mesh, ptr %0, i64 0, i32 69
  %5 = load ptr, ptr %nlft22, align 8, !tbaa !54
  %nrht24 = getelementptr inbounds %class.Mesh, ptr %0, i64 0, i32 70
  %6 = load ptr, ptr %nrht24, align 8, !tbaa !55
  %nbot26 = getelementptr inbounds %class.Mesh, ptr %0, i64 0, i32 71
  %7 = load ptr, ptr %nbot26, align 8, !tbaa !56
  %ntop28 = getelementptr inbounds %class.Mesh, ptr %0, i64 0, i32 72
  %8 = load ptr, ptr %ntop28, align 8, !tbaa !57
  %lev_ibegin30 = getelementptr inbounds %class.Mesh, ptr %0, i64 0, i32 26
  %lev_iend32 = getelementptr inbounds %class.Mesh, ptr %0, i64 0, i32 27
  %lev_jbegin34 = getelementptr inbounds %class.Mesh, ptr %0, i64 0, i32 28
  %lev_jend36 = getelementptr inbounds %class.Mesh, ptr %0, i64 0, i32 29
  %9 = load i64, ptr %ncells2, align 8, !tbaa !58
  %cmp1290.not = icmp eq i64 %9, 0
  br i1 %cmp1290.not, label %for.cond.cleanup, label %for.body.lr.ph

for.body.lr.ph:                                   ; preds = %entry
  %10 = load ptr, ptr %lev_ibegin30, align 8, !tbaa !59
  %11 = load ptr, ptr %lev_iend32, align 8, !tbaa !59
  %12 = load ptr, ptr %lev_jbegin34, align 8, !tbaa !59
  %13 = load ptr, ptr %lev_jend36, align 8, !tbaa !59
  br label %for.body

for.cond.cleanup:                                 ; preds = %for.body, %entry
  %icount.0.lcssa = phi i32 [ 0, %entry ], [ %icount.4, %for.body ]
  %14 = trunc i64 %9 to i32
  %conv73 = add i32 %icount.0.lcssa, %14
  %conv74 = sext i32 %conv73 to i64
  %H = getelementptr inbounds %class.State, ptr %this, i64 0, i32 3
  %15 = load ptr, ptr %H, align 8, !tbaa !47
  %call75 = call noundef ptr @_ZN10MallocPlus14memory_reallocEmPv(ptr noundef nonnull align 8 dereferenceable(96) %this, i64 noundef %conv74, ptr noundef %15)
  store ptr %call75, ptr %H, align 8, !tbaa !47
  %U = getelementptr inbounds %class.State, ptr %this, i64 0, i32 4
  %16 = load ptr, ptr %U, align 8, !tbaa !48
  %call79 = call noundef ptr @_ZN10MallocPlus14memory_reallocEmPv(ptr noundef nonnull align 8 dereferenceable(96) %this, i64 noundef %conv74, ptr noundef %16)
  store ptr %call79, ptr %U, align 8, !tbaa !48
  %V = getelementptr inbounds %class.State, ptr %this, i64 0, i32 5
  %17 = load ptr, ptr %V, align 8, !tbaa !49
  %call83 = call noundef ptr @_ZN10MallocPlus14memory_reallocEmPv(ptr noundef nonnull align 8 dereferenceable(96) %this, i64 noundef %conv74, ptr noundef %17)
  store ptr %call83, ptr %V, align 8, !tbaa !49
  %18 = load ptr, ptr %mesh, align 8, !tbaa !17
  %mesh_memory = getelementptr inbounds %class.Mesh, ptr %18, i64 0, i32 1
  %call87 = call noundef ptr @_ZN10MallocPlus14memory_reallocEmPv(ptr noundef nonnull align 8 dereferenceable(96) %mesh_memory, i64 noundef %conv74, ptr noundef %1)
  %19 = load ptr, ptr %mesh, align 8, !tbaa !17
  %i89 = getelementptr inbounds %class.Mesh, ptr %19, i64 0, i32 64
  store ptr %call87, ptr %i89, align 8, !tbaa !50
  %mesh_memory91 = getelementptr inbounds %class.Mesh, ptr %19, i64 0, i32 1
  %call93 = call noundef ptr @_ZN10MallocPlus14memory_reallocEmPv(ptr noundef nonnull align 8 dereferenceable(96) %mesh_memory91, i64 noundef %conv74, ptr noundef %2)
  %20 = load ptr, ptr %mesh, align 8, !tbaa !17
  %j95 = getelementptr inbounds %class.Mesh, ptr %20, i64 0, i32 65
  store ptr %call93, ptr %j95, align 8, !tbaa !51
  %mesh_memory97 = getelementptr inbounds %class.Mesh, ptr %20, i64 0, i32 1
  %call99 = call noundef ptr @_ZN10MallocPlus14memory_reallocEmPv(ptr noundef nonnull align 8 dereferenceable(96) %mesh_memory97, i64 noundef %conv74, ptr noundef %3)
  %21 = load ptr, ptr %mesh, align 8, !tbaa !17
  %level101 = getelementptr inbounds %class.Mesh, ptr %21, i64 0, i32 67
  store ptr %call99, ptr %level101, align 8, !tbaa !52
  %mesh_memory103 = getelementptr inbounds %class.Mesh, ptr %21, i64 0, i32 1
  %call105 = call noundef ptr @_ZN10MallocPlus14memory_reallocEmPv(ptr noundef nonnull align 8 dereferenceable(96) %mesh_memory103, i64 noundef %conv74, ptr noundef %4)
  %22 = load ptr, ptr %mesh, align 8, !tbaa !17
  %celltype107 = getelementptr inbounds %class.Mesh, ptr %22, i64 0, i32 68
  store ptr %call105, ptr %celltype107, align 8, !tbaa !53
  %mesh_memory109 = getelementptr inbounds %class.Mesh, ptr %22, i64 0, i32 1
  %call111 = call noundef ptr @_ZN10MallocPlus14memory_reallocEmPv(ptr noundef nonnull align 8 dereferenceable(96) %mesh_memory109, i64 noundef %conv74, ptr noundef %5)
  %23 = load ptr, ptr %mesh, align 8, !tbaa !17
  %nlft113 = getelementptr inbounds %class.Mesh, ptr %23, i64 0, i32 69
  store ptr %call111, ptr %nlft113, align 8, !tbaa !54
  %mesh_memory115 = getelementptr inbounds %class.Mesh, ptr %23, i64 0, i32 1
  %call117 = call noundef ptr @_ZN10MallocPlus14memory_reallocEmPv(ptr noundef nonnull align 8 dereferenceable(96) %mesh_memory115, i64 noundef %conv74, ptr noundef %6)
  %24 = load ptr, ptr %mesh, align 8, !tbaa !17
  %nrht119 = getelementptr inbounds %class.Mesh, ptr %24, i64 0, i32 70
  store ptr %call117, ptr %nrht119, align 8, !tbaa !55
  %mesh_memory121 = getelementptr inbounds %class.Mesh, ptr %24, i64 0, i32 1
  %call123 = call noundef ptr @_ZN10MallocPlus14memory_reallocEmPv(ptr noundef nonnull align 8 dereferenceable(96) %mesh_memory121, i64 noundef %conv74, ptr noundef %7)
  %25 = load ptr, ptr %mesh, align 8, !tbaa !17
  %nbot125 = getelementptr inbounds %class.Mesh, ptr %25, i64 0, i32 71
  store ptr %call123, ptr %nbot125, align 8, !tbaa !56
  %mesh_memory127 = getelementptr inbounds %class.Mesh, ptr %25, i64 0, i32 1
  %call129 = call noundef ptr @_ZN10MallocPlus14memory_reallocEmPv(ptr noundef nonnull align 8 dereferenceable(96) %mesh_memory127, i64 noundef %conv74, ptr noundef %8)
  %call1291324 = ptrtoint ptr %call129 to i64
  %26 = load ptr, ptr %mesh, align 8, !tbaa !17
  %ntop131 = getelementptr inbounds %class.Mesh, ptr %26, i64 0, i32 72
  store ptr %call129, ptr %ntop131, align 8, !tbaa !57
  %i133 = getelementptr inbounds %class.Mesh, ptr %26, i64 0, i32 64
  %27 = load ptr, ptr %i133, align 8, !tbaa !50
  %j135 = getelementptr inbounds %class.Mesh, ptr %26, i64 0, i32 65
  %28 = load ptr, ptr %j135, align 8, !tbaa !51
  %level137 = getelementptr inbounds %class.Mesh, ptr %26, i64 0, i32 67
  %29 = load ptr, ptr %level137, align 8, !tbaa !52
  %nlft141 = getelementptr inbounds %class.Mesh, ptr %26, i64 0, i32 69
  %30 = load ptr, ptr %nlft141, align 8, !tbaa !54
  %31 = ptrtoint ptr %30 to i64
  %nrht143 = getelementptr inbounds %class.Mesh, ptr %26, i64 0, i32 70
  %32 = load ptr, ptr %nrht143, align 8, !tbaa !55
  %33 = ptrtoint ptr %32 to i64
  %nbot145 = getelementptr inbounds %class.Mesh, ptr %26, i64 0, i32 71
  %34 = load ptr, ptr %nbot145, align 8, !tbaa !56
  %35 = ptrtoint ptr %34 to i64
  %_M_finish.i.i = getelementptr inbounds %class.Mesh, ptr %0, i64 0, i32 63, i32 0, i32 0, i32 0, i32 1
  %36 = load ptr, ptr %_M_finish.i.i, align 8, !tbaa !60
  %37 = load ptr, ptr %index4, align 8, !tbaa !59
  %sub.ptr.lhs.cast.i.i = ptrtoint ptr %36 to i64
  %sub.ptr.rhs.cast.i.i = ptrtoint ptr %37 to i64
  %sub.ptr.sub.i.i = sub i64 %sub.ptr.lhs.cast.i.i, %sub.ptr.rhs.cast.i.i
  %sub.ptr.div.i.i = ashr exact i64 %sub.ptr.sub.i.i, 2
  %cmp.i = icmp ult i64 %sub.ptr.div.i.i, %conv74
  br i1 %cmp.i, label %if.then.i, label %if.else.i

if.then.i:                                        ; preds = %for.cond.cleanup
  %sub.i = sub nsw i64 %conv74, %sub.ptr.div.i.i
  call void @_ZNSt6vectorIiSaIiEE17_M_default_appendEm(ptr noundef nonnull align 8 dereferenceable(24) %index4, i64 noundef %sub.i)
  br label %_ZNSt6vectorIiSaIiEE6resizeEm.exit

if.else.i:                                        ; preds = %for.cond.cleanup
  %cmp4.i = icmp ugt i64 %sub.ptr.div.i.i, %conv74
  br i1 %cmp4.i, label %if.then5.i, label %_ZNSt6vectorIiSaIiEE6resizeEm.exit

if.then5.i:                                       ; preds = %if.else.i
  %add.ptr.i = getelementptr inbounds i32, ptr %37, i64 %conv74
  %tobool.not.i.i = icmp eq ptr %36, %add.ptr.i
  br i1 %tobool.not.i.i, label %_ZNSt6vectorIiSaIiEE6resizeEm.exit, label %invoke.cont.i.i

invoke.cont.i.i:                                  ; preds = %if.then5.i
  store ptr %add.ptr.i, ptr %_M_finish.i.i, align 8, !tbaa !60
  br label %_ZNSt6vectorIiSaIiEE6resizeEm.exit

_ZNSt6vectorIiSaIiEE6resizeEm.exit:               ; preds = %if.then.i, %if.else.i, %if.then5.i, %invoke.cont.i.i
  %_M_finish.i.i1170 = getelementptr inbounds %class.Mesh, ptr %0, i64 0, i32 75, i32 0, i32 0, i32 0, i32 1
  %38 = load ptr, ptr %_M_finish.i.i1170, align 8, !tbaa !61
  %39 = load ptr, ptr %x6, align 8, !tbaa !62
  %sub.ptr.lhs.cast.i.i1171 = ptrtoint ptr %38 to i64
  %sub.ptr.rhs.cast.i.i1172 = ptrtoint ptr %39 to i64
  %sub.ptr.sub.i.i1173 = sub i64 %sub.ptr.lhs.cast.i.i1171, %sub.ptr.rhs.cast.i.i1172
  %sub.ptr.div.i.i1174 = ashr exact i64 %sub.ptr.sub.i.i1173, 3
  %cmp.i1175 = icmp ult i64 %sub.ptr.div.i.i1174, %conv74
  br i1 %cmp.i1175, label %if.then.i1177, label %if.else.i1179

if.then.i1177:                                    ; preds = %_ZNSt6vectorIiSaIiEE6resizeEm.exit
  %sub.i1176 = sub nsw i64 %conv74, %sub.ptr.div.i.i1174
  call void @_ZNSt6vectorIdSaIdEE17_M_default_appendEm(ptr noundef nonnull align 8 dereferenceable(24) %x6, i64 noundef %sub.i1176)
  br label %_ZNSt6vectorIdSaIdEE6resizeEm.exit

if.else.i1179:                                    ; preds = %_ZNSt6vectorIiSaIiEE6resizeEm.exit
  %cmp4.i1178 = icmp ugt i64 %sub.ptr.div.i.i1174, %conv74
  br i1 %cmp4.i1178, label %if.then5.i1182, label %_ZNSt6vectorIdSaIdEE6resizeEm.exit

if.then5.i1182:                                   ; preds = %if.else.i1179
  %add.ptr.i1180 = getelementptr inbounds double, ptr %39, i64 %conv74
  %tobool.not.i.i1181 = icmp eq ptr %38, %add.ptr.i1180
  br i1 %tobool.not.i.i1181, label %_ZNSt6vectorIdSaIdEE6resizeEm.exit, label %invoke.cont.i.i1183

invoke.cont.i.i1183:                              ; preds = %if.then5.i1182
  store ptr %add.ptr.i1180, ptr %_M_finish.i.i1170, align 8, !tbaa !61
  br label %_ZNSt6vectorIdSaIdEE6resizeEm.exit

_ZNSt6vectorIdSaIdEE6resizeEm.exit:               ; preds = %if.then.i1177, %if.else.i1179, %if.then5.i1182, %invoke.cont.i.i1183
  %_M_finish.i.i1184 = getelementptr inbounds %class.Mesh, ptr %0, i64 0, i32 76, i32 0, i32 0, i32 0, i32 1
  %40 = load ptr, ptr %_M_finish.i.i1184, align 8, !tbaa !61
  %41 = load ptr, ptr %dx8, align 8, !tbaa !62
  %sub.ptr.lhs.cast.i.i1185 = ptrtoint ptr %40 to i64
  %sub.ptr.rhs.cast.i.i1186 = ptrtoint ptr %41 to i64
  %sub.ptr.sub.i.i1187 = sub i64 %sub.ptr.lhs.cast.i.i1185, %sub.ptr.rhs.cast.i.i1186
  %sub.ptr.div.i.i1188 = ashr exact i64 %sub.ptr.sub.i.i1187, 3
  %cmp.i1189 = icmp ult i64 %sub.ptr.div.i.i1188, %conv74
  br i1 %cmp.i1189, label %if.then.i1191, label %if.else.i1193

if.then.i1191:                                    ; preds = %_ZNSt6vectorIdSaIdEE6resizeEm.exit
  %sub.i1190 = sub nsw i64 %conv74, %sub.ptr.div.i.i1188
  call void @_ZNSt6vectorIdSaIdEE17_M_default_appendEm(ptr noundef nonnull align 8 dereferenceable(24) %dx8, i64 noundef %sub.i1190)
  br label %_ZNSt6vectorIdSaIdEE6resizeEm.exit1198

if.else.i1193:                                    ; preds = %_ZNSt6vectorIdSaIdEE6resizeEm.exit
  %cmp4.i1192 = icmp ugt i64 %sub.ptr.div.i.i1188, %conv74
  br i1 %cmp4.i1192, label %if.then5.i1196, label %_ZNSt6vectorIdSaIdEE6resizeEm.exit1198

if.then5.i1196:                                   ; preds = %if.else.i1193
  %add.ptr.i1194 = getelementptr inbounds double, ptr %41, i64 %conv74
  %tobool.not.i.i1195 = icmp eq ptr %40, %add.ptr.i1194
  br i1 %tobool.not.i.i1195, label %_ZNSt6vectorIdSaIdEE6resizeEm.exit1198, label %invoke.cont.i.i1197

invoke.cont.i.i1197:                              ; preds = %if.then5.i1196
  store ptr %add.ptr.i1194, ptr %_M_finish.i.i1184, align 8, !tbaa !61
  br label %_ZNSt6vectorIdSaIdEE6resizeEm.exit1198

_ZNSt6vectorIdSaIdEE6resizeEm.exit1198:           ; preds = %if.then.i1191, %if.else.i1193, %if.then5.i1196, %invoke.cont.i.i1197
  %_M_finish.i.i1199 = getelementptr inbounds %class.Mesh, ptr %0, i64 0, i32 77, i32 0, i32 0, i32 0, i32 1
  %42 = load ptr, ptr %_M_finish.i.i1199, align 8, !tbaa !61
  %43 = load ptr, ptr %y10, align 8, !tbaa !62
  %sub.ptr.lhs.cast.i.i1200 = ptrtoint ptr %42 to i64
  %sub.ptr.rhs.cast.i.i1201 = ptrtoint ptr %43 to i64
  %sub.ptr.sub.i.i1202 = sub i64 %sub.ptr.lhs.cast.i.i1200, %sub.ptr.rhs.cast.i.i1201
  %sub.ptr.div.i.i1203 = ashr exact i64 %sub.ptr.sub.i.i1202, 3
  %cmp.i1204 = icmp ult i64 %sub.ptr.div.i.i1203, %conv74
  br i1 %cmp.i1204, label %if.then.i1206, label %if.else.i1208

if.then.i1206:                                    ; preds = %_ZNSt6vectorIdSaIdEE6resizeEm.exit1198
  %sub.i1205 = sub nsw i64 %conv74, %sub.ptr.div.i.i1203
  call void @_ZNSt6vectorIdSaIdEE17_M_default_appendEm(ptr noundef nonnull align 8 dereferenceable(24) %y10, i64 noundef %sub.i1205)
  br label %_ZNSt6vectorIdSaIdEE6resizeEm.exit1213

if.else.i1208:                                    ; preds = %_ZNSt6vectorIdSaIdEE6resizeEm.exit1198
  %cmp4.i1207 = icmp ugt i64 %sub.ptr.div.i.i1203, %conv74
  br i1 %cmp4.i1207, label %if.then5.i1211, label %_ZNSt6vectorIdSaIdEE6resizeEm.exit1213

if.then5.i1211:                                   ; preds = %if.else.i1208
  %add.ptr.i1209 = getelementptr inbounds double, ptr %43, i64 %conv74
  %tobool.not.i.i1210 = icmp eq ptr %42, %add.ptr.i1209
  br i1 %tobool.not.i.i1210, label %_ZNSt6vectorIdSaIdEE6resizeEm.exit1213, label %invoke.cont.i.i1212

invoke.cont.i.i1212:                              ; preds = %if.then5.i1211
  store ptr %add.ptr.i1209, ptr %_M_finish.i.i1199, align 8, !tbaa !61
  br label %_ZNSt6vectorIdSaIdEE6resizeEm.exit1213

_ZNSt6vectorIdSaIdEE6resizeEm.exit1213:           ; preds = %if.then.i1206, %if.else.i1208, %if.then5.i1211, %invoke.cont.i.i1212
  %_M_finish.i.i1214 = getelementptr inbounds %class.Mesh, ptr %0, i64 0, i32 78, i32 0, i32 0, i32 0, i32 1
  %44 = load ptr, ptr %_M_finish.i.i1214, align 8, !tbaa !61
  %45 = load ptr, ptr %dy12, align 8, !tbaa !62
  %sub.ptr.lhs.cast.i.i1215 = ptrtoint ptr %44 to i64
  %sub.ptr.rhs.cast.i.i1216 = ptrtoint ptr %45 to i64
  %sub.ptr.sub.i.i1217 = sub i64 %sub.ptr.lhs.cast.i.i1215, %sub.ptr.rhs.cast.i.i1216
  %sub.ptr.div.i.i1218 = ashr exact i64 %sub.ptr.sub.i.i1217, 3
  %cmp.i1219 = icmp ult i64 %sub.ptr.div.i.i1218, %conv74
  br i1 %cmp.i1219, label %if.then.i1221, label %if.else.i1223

if.then.i1221:                                    ; preds = %_ZNSt6vectorIdSaIdEE6resizeEm.exit1213
  %sub.i1220 = sub nsw i64 %conv74, %sub.ptr.div.i.i1218
  call void @_ZNSt6vectorIdSaIdEE17_M_default_appendEm(ptr noundef nonnull align 8 dereferenceable(24) %dy12, i64 noundef %sub.i1220)
  br label %_ZNSt6vectorIdSaIdEE6resizeEm.exit1228

if.else.i1223:                                    ; preds = %_ZNSt6vectorIdSaIdEE6resizeEm.exit1213
  %cmp4.i1222 = icmp ugt i64 %sub.ptr.div.i.i1218, %conv74
  br i1 %cmp4.i1222, label %if.then5.i1226, label %_ZNSt6vectorIdSaIdEE6resizeEm.exit1228

if.then5.i1226:                                   ; preds = %if.else.i1223
  %add.ptr.i1224 = getelementptr inbounds double, ptr %45, i64 %conv74
  %tobool.not.i.i1225 = icmp eq ptr %44, %add.ptr.i1224
  br i1 %tobool.not.i.i1225, label %_ZNSt6vectorIdSaIdEE6resizeEm.exit1228, label %invoke.cont.i.i1227

invoke.cont.i.i1227:                              ; preds = %if.then5.i1226
  store ptr %add.ptr.i1224, ptr %_M_finish.i.i1214, align 8, !tbaa !61
  br label %_ZNSt6vectorIdSaIdEE6resizeEm.exit1228

_ZNSt6vectorIdSaIdEE6resizeEm.exit1228:           ; preds = %if.then.i1221, %if.else.i1223, %if.then5.i1226, %invoke.cont.i.i1227
  %46 = load i64, ptr %ncells2, align 8, !tbaa !58
  %conv153 = trunc i64 %46 to i32
  %cmp1551295 = icmp sgt i32 %conv73, %conv153
  br i1 %cmp1551295, label %for.body157.preheader, label %for.cond172.preheader

for.body157.preheader:                            ; preds = %_ZNSt6vectorIdSaIdEE6resizeEm.exit1228
  %sext1322 = shl i64 %46, 32
  %47 = ashr exact i64 %sext1322, 32
  %48 = sub nsw i64 %conv74, %47
  %min.iters.check = icmp ult i64 %48, 40
  br i1 %min.iters.check, label %for.body157.preheader1333, label %vector.memcheck

vector.memcheck:                                  ; preds = %for.body157.preheader
  %49 = ashr exact i64 %sext1322, 30
  %50 = add i64 %49, %33
  %51 = add i64 %49, %31
  %52 = sub i64 %50, %51
  %diff.check = icmp ult i64 %52, 32
  %53 = add i64 %49, %35
  %54 = sub i64 %53, %51
  %diff.check1323 = icmp ult i64 %54, 32
  %conflict.rdx = or i1 %diff.check, %diff.check1323
  %55 = add i64 %49, %call1291324
  %56 = sub i64 %55, %51
  %diff.check1325 = icmp ult i64 %56, 32
  %conflict.rdx1326 = or i1 %conflict.rdx, %diff.check1325
  %57 = sub i64 %53, %50
  %diff.check1327 = icmp ult i64 %57, 32
  %conflict.rdx1328 = or i1 %conflict.rdx1326, %diff.check1327
  %58 = sub i64 %55, %50
  %diff.check1329 = icmp ult i64 %58, 32
  %conflict.rdx1330 = or i1 %conflict.rdx1328, %diff.check1329
  %59 = sub i64 %55, %53
  %diff.check1331 = icmp ult i64 %59, 32
  %conflict.rdx1332 = or i1 %conflict.rdx1330, %diff.check1331
  br i1 %conflict.rdx1332, label %for.body157.preheader1333, label %vector.ph

vector.ph:                                        ; preds = %vector.memcheck
  %n.vec = and i64 %48, -8
  %ind.end = add nsw i64 %47, %n.vec
  br label %vector.body

vector.body:                                      ; preds = %vector.body, %vector.ph
  %index = phi i64 [ 0, %vector.ph ], [ %index.next, %vector.body ]
  %offset.idx = add i64 %47, %index
  %60 = getelementptr inbounds i32, ptr %30, i64 %offset.idx
  store <4 x i32> <i32 -1, i32 -1, i32 -1, i32 -1>, ptr %60, align 4, !tbaa !63
  %61 = getelementptr inbounds i32, ptr %60, i64 4
  store <4 x i32> <i32 -1, i32 -1, i32 -1, i32 -1>, ptr %61, align 4, !tbaa !63
  %62 = getelementptr inbounds i32, ptr %32, i64 %offset.idx
  store <4 x i32> <i32 -1, i32 -1, i32 -1, i32 -1>, ptr %62, align 4, !tbaa !63
  %63 = getelementptr inbounds i32, ptr %62, i64 4
  store <4 x i32> <i32 -1, i32 -1, i32 -1, i32 -1>, ptr %63, align 4, !tbaa !63
  %64 = getelementptr inbounds i32, ptr %34, i64 %offset.idx
  store <4 x i32> <i32 -1, i32 -1, i32 -1, i32 -1>, ptr %64, align 4, !tbaa !63
  %65 = getelementptr inbounds i32, ptr %64, i64 4
  store <4 x i32> <i32 -1, i32 -1, i32 -1, i32 -1>, ptr %65, align 4, !tbaa !63
  %66 = getelementptr inbounds i32, ptr %call129, i64 %offset.idx
  store <4 x i32> <i32 -1, i32 -1, i32 -1, i32 -1>, ptr %66, align 4, !tbaa !63
  %67 = getelementptr inbounds i32, ptr %66, i64 4
  store <4 x i32> <i32 -1, i32 -1, i32 -1, i32 -1>, ptr %67, align 4, !tbaa !63
  %index.next = add nuw i64 %index, 8
  %68 = icmp eq i64 %index.next, %n.vec
  br i1 %68, label %middle.block, label %vector.body, !llvm.loop !64

middle.block:                                     ; preds = %vector.body
  %cmp.n = icmp eq i64 %48, %n.vec
  br i1 %cmp.n, label %for.cond172.preheader, label %for.body157.preheader1333

for.body157.preheader1333:                        ; preds = %vector.memcheck, %for.body157.preheader, %middle.block
  %indvars.iv.ph = phi i64 [ %47, %vector.memcheck ], [ %47, %for.body157.preheader ], [ %ind.end, %middle.block ]
  %69 = sub nsw i64 %conv74, %indvars.iv.ph
  %70 = xor i64 %indvars.iv.ph, -1
  %xtraiter = and i64 %69, 1
  %lcmp.mod.not = icmp eq i64 %xtraiter, 0
  br i1 %lcmp.mod.not, label %for.body157.prol.loopexit, label %for.body157.prol

for.body157.prol:                                 ; preds = %for.body157.preheader1333
  %arrayidx159.prol = getelementptr inbounds i32, ptr %30, i64 %indvars.iv.ph
  store i32 -1, ptr %arrayidx159.prol, align 4, !tbaa !63
  %arrayidx161.prol = getelementptr inbounds i32, ptr %32, i64 %indvars.iv.ph
  store i32 -1, ptr %arrayidx161.prol, align 4, !tbaa !63
  %arrayidx163.prol = getelementptr inbounds i32, ptr %34, i64 %indvars.iv.ph
  store i32 -1, ptr %arrayidx163.prol, align 4, !tbaa !63
  %arrayidx165.prol = getelementptr inbounds i32, ptr %call129, i64 %indvars.iv.ph
  store i32 -1, ptr %arrayidx165.prol, align 4, !tbaa !63
  %indvars.iv.next.prol = add nsw i64 %indvars.iv.ph, 1
  br label %for.body157.prol.loopexit

for.body157.prol.loopexit:                        ; preds = %for.body157.prol, %for.body157.preheader1333
  %indvars.iv.unr = phi i64 [ %indvars.iv.ph, %for.body157.preheader1333 ], [ %indvars.iv.next.prol, %for.body157.prol ]
  %71 = sub nsw i64 0, %conv74
  %72 = icmp eq i64 %70, %71
  br i1 %72, label %for.cond172.preheader, label %for.body157

for.body:                                         ; preds = %for.body.lr.ph, %for.body
  %conv1293 = phi i64 [ 0, %for.body.lr.ph ], [ %conv, %for.body ]
  %icount.01291 = phi i32 [ 0, %for.body.lr.ph ], [ %icount.4, %for.body ]
  %arrayidx = getelementptr inbounds i32, ptr %1, i64 %conv1293
  %73 = load i32, ptr %arrayidx, align 4, !tbaa !63
  %arrayidx38 = getelementptr inbounds i32, ptr %3, i64 %conv1293
  %74 = load i32, ptr %arrayidx38, align 4, !tbaa !63
  %conv39 = sext i32 %74 to i64
  %add.ptr.i1229 = getelementptr inbounds i32, ptr %10, i64 %conv39
  %75 = load i32, ptr %add.ptr.i1229, align 4, !tbaa !63
  %cmp40 = icmp eq i32 %73, %75
  %inc = zext i1 %cmp40 to i32
  %spec.select = add nsw i32 %icount.01291, %inc
  %add.ptr.i1230 = getelementptr inbounds i32, ptr %11, i64 %conv39
  %76 = load i32, ptr %add.ptr.i1230, align 4, !tbaa !63
  %cmp47 = icmp eq i32 %73, %76
  %inc49 = zext i1 %cmp47 to i32
  %icount.2 = add nsw i32 %spec.select, %inc49
  %arrayidx52 = getelementptr inbounds i32, ptr %2, i64 %conv1293
  %77 = load i32, ptr %arrayidx52, align 4, !tbaa !63
  %add.ptr.i1231 = getelementptr inbounds i32, ptr %12, i64 %conv39
  %78 = load i32, ptr %add.ptr.i1231, align 4, !tbaa !63
  %cmp57 = icmp eq i32 %77, %78
  %inc59 = zext i1 %cmp57 to i32
  %icount.3 = add nsw i32 %icount.2, %inc59
  %add.ptr.i1232 = getelementptr inbounds i32, ptr %13, i64 %conv39
  %79 = load i32, ptr %add.ptr.i1232, align 4, !tbaa !63
  %cmp67 = icmp eq i32 %77, %79
  %inc69 = zext i1 %cmp67 to i32
  %icount.4 = add nsw i32 %icount.3, %inc69
  %inc71 = add nuw nsw i64 %conv1293, 1
  %conv = and i64 %inc71, 4294967295
  %cmp = icmp ugt i64 %9, %conv
  br i1 %cmp, label %for.body, label %for.cond.cleanup, !llvm.loop !68

for.cond172.preheader:                            ; preds = %for.body157.prol.loopexit, %for.body157, %middle.block, %_ZNSt6vectorIdSaIdEE6resizeEm.exit1228
  %cmp1741297.not = icmp eq i64 %46, 0
  br i1 %cmp1741297.not, label %for.cond456.preheader, label %for.body176.lr.ph

for.body176.lr.ph:                                ; preds = %for.cond172.preheader
  %80 = load ptr, ptr %lev_ibegin30, align 8, !tbaa !59
  %81 = load ptr, ptr %H, align 8
  %82 = load ptr, ptr %U, align 8
  %83 = load ptr, ptr %V, align 8
  %84 = load ptr, ptr %lev_iend32, align 8, !tbaa !59
  %85 = load ptr, ptr %lev_jbegin34, align 8, !tbaa !59
  %86 = load ptr, ptr %lev_jend36, align 8, !tbaa !59
  br label %for.body176

for.body157:                                      ; preds = %for.body157.prol.loopexit, %for.body157
  %indvars.iv = phi i64 [ %indvars.iv.next.1, %for.body157 ], [ %indvars.iv.unr, %for.body157.prol.loopexit ]
  %arrayidx159 = getelementptr inbounds i32, ptr %30, i64 %indvars.iv
  store i32 -1, ptr %arrayidx159, align 4, !tbaa !63
  %arrayidx161 = getelementptr inbounds i32, ptr %32, i64 %indvars.iv
  store i32 -1, ptr %arrayidx161, align 4, !tbaa !63
  %arrayidx163 = getelementptr inbounds i32, ptr %34, i64 %indvars.iv
  store i32 -1, ptr %arrayidx163, align 4, !tbaa !63
  %arrayidx165 = getelementptr inbounds i32, ptr %call129, i64 %indvars.iv
  store i32 -1, ptr %arrayidx165, align 4, !tbaa !63
  %indvars.iv.next = add nsw i64 %indvars.iv, 1
  %arrayidx159.1 = getelementptr inbounds i32, ptr %30, i64 %indvars.iv.next
  store i32 -1, ptr %arrayidx159.1, align 4, !tbaa !63
  %arrayidx161.1 = getelementptr inbounds i32, ptr %32, i64 %indvars.iv.next
  store i32 -1, ptr %arrayidx161.1, align 4, !tbaa !63
  %arrayidx163.1 = getelementptr inbounds i32, ptr %34, i64 %indvars.iv.next
  store i32 -1, ptr %arrayidx163.1, align 4, !tbaa !63
  %arrayidx165.1 = getelementptr inbounds i32, ptr %call129, i64 %indvars.iv.next
  store i32 -1, ptr %arrayidx165.1, align 4, !tbaa !63
  %indvars.iv.next.1 = add nsw i64 %indvars.iv, 2
  %exitcond.not.1 = icmp eq i64 %indvars.iv.next.1, %conv74
  br i1 %exitcond.not.1, label %for.cond172.preheader, label %for.body157, !llvm.loop !69

for.cond456.preheader:                            ; preds = %for.inc451, %for.cond172.preheader
  br i1 %cmp1551295, label %for.body459.lr.ph, label %for.cond.cleanup458

for.body459.lr.ph:                                ; preds = %for.cond456.preheader
  %87 = load ptr, ptr %lev_ibegin30, align 8, !tbaa !59
  %88 = load ptr, ptr %lev_iend32, align 8, !tbaa !59
  %89 = load ptr, ptr %lev_jbegin34, align 8, !tbaa !59
  %90 = load ptr, ptr %lev_jend36, align 8, !tbaa !59
  %sext = shl i64 %46, 32
  %91 = ashr exact i64 %sext, 32
  br label %for.body459

for.body176:                                      ; preds = %for.body176.lr.ph, %for.inc451
  %conv1731300 = phi i64 [ 0, %for.body176.lr.ph ], [ %conv173, %for.inc451 ]
  %nc169.01298 = phi i32 [ %conv153, %for.body176.lr.ph ], [ %nc169.4, %for.inc451 ]
  %indvars1305 = trunc i64 %conv1731300 to i32
  %arrayidx178 = getelementptr inbounds i32, ptr %27, i64 %conv1731300
  %92 = load i32, ptr %arrayidx178, align 4, !tbaa !63
  %arrayidx180 = getelementptr inbounds i32, ptr %29, i64 %conv1731300
  %93 = load i32, ptr %arrayidx180, align 4, !tbaa !63
  %conv181 = sext i32 %93 to i64
  %add.ptr.i1233 = getelementptr inbounds i32, ptr %80, i64 %conv181
  %94 = load i32, ptr %add.ptr.i1233, align 4, !tbaa !63
  %cmp183 = icmp eq i32 %92, %94
  br i1 %cmp183, label %if.then184, label %if.end243

if.then184:                                       ; preds = %for.body176
  %arrayidx186 = getelementptr inbounds i32, ptr %30, i64 %conv1731300
  store i32 %nc169.01298, ptr %arrayidx186, align 4, !tbaa !63
  %idxprom187 = zext i32 %nc169.01298 to i64
  %arrayidx188 = getelementptr inbounds i32, ptr %30, i64 %idxprom187
  store i32 %nc169.01298, ptr %arrayidx188, align 4, !tbaa !63
  %arrayidx190 = getelementptr inbounds i32, ptr %32, i64 %idxprom187
  store i32 %indvars1305, ptr %arrayidx190, align 4, !tbaa !63
  %95 = load i32, ptr %arrayidx180, align 4, !tbaa !63
  %conv193 = sext i32 %95 to i64
  %add.ptr.i1234 = getelementptr inbounds i32, ptr %80, i64 %conv193
  %96 = load i32, ptr %add.ptr.i1234, align 4, !tbaa !63
  %sub = add nsw i32 %96, -1
  %arrayidx196 = getelementptr inbounds i32, ptr %27, i64 %idxprom187
  store i32 %sub, ptr %arrayidx196, align 4, !tbaa !63
  %arrayidx198 = getelementptr inbounds i32, ptr %28, i64 %conv1731300
  %97 = load i32, ptr %arrayidx198, align 4, !tbaa !63
  %arrayidx200 = getelementptr inbounds i32, ptr %28, i64 %idxprom187
  store i32 %97, ptr %arrayidx200, align 4, !tbaa !63
  %98 = load i32, ptr %arrayidx180, align 4, !tbaa !63
  %arrayidx204 = getelementptr inbounds i32, ptr %29, i64 %idxprom187
  store i32 %98, ptr %arrayidx204, align 4, !tbaa !63
  %99 = load ptr, ptr %dx8, align 8, !tbaa !62
  %add.ptr.i1235 = getelementptr inbounds double, ptr %99, i64 %conv1731300
  %100 = load double, ptr %add.ptr.i1235, align 8, !tbaa !70
  %add.ptr.i1236 = getelementptr inbounds double, ptr %99, i64 %idxprom187
  store double %100, ptr %add.ptr.i1236, align 8, !tbaa !70
  %101 = load ptr, ptr %dy12, align 8, !tbaa !62
  %add.ptr.i1237 = getelementptr inbounds double, ptr %101, i64 %conv1731300
  %102 = load double, ptr %add.ptr.i1237, align 8, !tbaa !70
  %add.ptr.i1238 = getelementptr inbounds double, ptr %101, i64 %idxprom187
  store double %102, ptr %add.ptr.i1238, align 8, !tbaa !70
  %103 = load ptr, ptr %x6, align 8, !tbaa !62
  %add.ptr.i1239 = getelementptr inbounds double, ptr %103, i64 %conv1731300
  %104 = load double, ptr %add.ptr.i1239, align 8, !tbaa !70
  %105 = load double, ptr %add.ptr.i1235, align 8, !tbaa !70
  %sub217 = fsub double %104, %105
  %add.ptr.i1241 = getelementptr inbounds double, ptr %103, i64 %idxprom187
  store double %sub217, ptr %add.ptr.i1241, align 8, !tbaa !70
  %106 = load ptr, ptr %y10, align 8, !tbaa !62
  %add.ptr.i1242 = getelementptr inbounds double, ptr %106, i64 %conv1731300
  %107 = load double, ptr %add.ptr.i1242, align 8, !tbaa !70
  %add.ptr.i1243 = getelementptr inbounds double, ptr %106, i64 %idxprom187
  store double %107, ptr %add.ptr.i1243, align 8, !tbaa !70
  %arrayidx226 = getelementptr inbounds double, ptr %81, i64 %conv1731300
  %108 = load double, ptr %arrayidx226, align 8, !tbaa !70
  %arrayidx229 = getelementptr inbounds double, ptr %81, i64 %idxprom187
  store double %108, ptr %arrayidx229, align 8, !tbaa !70
  %arrayidx232 = getelementptr inbounds double, ptr %82, i64 %conv1731300
  %109 = load double, ptr %arrayidx232, align 8, !tbaa !70
  %fneg = fneg double %109
  %arrayidx235 = getelementptr inbounds double, ptr %82, i64 %idxprom187
  store double %fneg, ptr %arrayidx235, align 8, !tbaa !70
  %arrayidx238 = getelementptr inbounds double, ptr %83, i64 %conv1731300
  %110 = load double, ptr %arrayidx238, align 8, !tbaa !70
  %arrayidx241 = getelementptr inbounds double, ptr %83, i64 %idxprom187
  store double %110, ptr %arrayidx241, align 8, !tbaa !70
  %inc242 = add i32 %nc169.01298, 1
  %.pre = load i32, ptr %arrayidx178, align 4, !tbaa !63
  %.pre1315 = load i32, ptr %arrayidx180, align 4, !tbaa !63
  %.pre1319 = sext i32 %.pre1315 to i64
  br label %if.end243

if.end243:                                        ; preds = %if.then184, %for.body176
  %conv248.pre-phi = phi i64 [ %.pre1319, %if.then184 ], [ %conv181, %for.body176 ]
  %111 = phi i32 [ %.pre, %if.then184 ], [ %92, %for.body176 ]
  %nc169.1 = phi i32 [ %inc242, %if.then184 ], [ %nc169.01298, %for.body176 ]
  %add.ptr.i1244 = getelementptr inbounds i32, ptr %84, i64 %conv248.pre-phi
  %112 = load i32, ptr %add.ptr.i1244, align 4, !tbaa !63
  %cmp250 = icmp eq i32 %111, %112
  br i1 %cmp250, label %if.then251, label %if.end312

if.then251:                                       ; preds = %if.end243
  %arrayidx253 = getelementptr inbounds i32, ptr %32, i64 %conv1731300
  store i32 %nc169.1, ptr %arrayidx253, align 4, !tbaa !63
  %idxprom254 = zext i32 %nc169.1 to i64
  %arrayidx255 = getelementptr inbounds i32, ptr %32, i64 %idxprom254
  store i32 %nc169.1, ptr %arrayidx255, align 4, !tbaa !63
  %arrayidx257 = getelementptr inbounds i32, ptr %30, i64 %idxprom254
  store i32 %indvars1305, ptr %arrayidx257, align 4, !tbaa !63
  %113 = load i32, ptr %arrayidx180, align 4, !tbaa !63
  %conv260 = sext i32 %113 to i64
  %add.ptr.i1245 = getelementptr inbounds i32, ptr %84, i64 %conv260
  %114 = load i32, ptr %add.ptr.i1245, align 4, !tbaa !63
  %add262 = add nsw i32 %114, 1
  %arrayidx264 = getelementptr inbounds i32, ptr %27, i64 %idxprom254
  store i32 %add262, ptr %arrayidx264, align 4, !tbaa !63
  %arrayidx266 = getelementptr inbounds i32, ptr %28, i64 %conv1731300
  %115 = load i32, ptr %arrayidx266, align 4, !tbaa !63
  %arrayidx268 = getelementptr inbounds i32, ptr %28, i64 %idxprom254
  store i32 %115, ptr %arrayidx268, align 4, !tbaa !63
  %116 = load i32, ptr %arrayidx180, align 4, !tbaa !63
  %arrayidx272 = getelementptr inbounds i32, ptr %29, i64 %idxprom254
  store i32 %116, ptr %arrayidx272, align 4, !tbaa !63
  %117 = load ptr, ptr %dx8, align 8, !tbaa !62
  %add.ptr.i1246 = getelementptr inbounds double, ptr %117, i64 %conv1731300
  %118 = load double, ptr %add.ptr.i1246, align 8, !tbaa !70
  %add.ptr.i1247 = getelementptr inbounds double, ptr %117, i64 %idxprom254
  store double %118, ptr %add.ptr.i1247, align 8, !tbaa !70
  %119 = load ptr, ptr %dy12, align 8, !tbaa !62
  %add.ptr.i1248 = getelementptr inbounds double, ptr %119, i64 %conv1731300
  %120 = load double, ptr %add.ptr.i1248, align 8, !tbaa !70
  %add.ptr.i1249 = getelementptr inbounds double, ptr %119, i64 %idxprom254
  store double %120, ptr %add.ptr.i1249, align 8, !tbaa !70
  %121 = load ptr, ptr %x6, align 8, !tbaa !62
  %add.ptr.i1250 = getelementptr inbounds double, ptr %121, i64 %conv1731300
  %122 = load double, ptr %add.ptr.i1250, align 8, !tbaa !70
  %123 = load double, ptr %add.ptr.i1246, align 8, !tbaa !70
  %add285 = fadd double %122, %123
  %add.ptr.i1252 = getelementptr inbounds double, ptr %121, i64 %idxprom254
  store double %add285, ptr %add.ptr.i1252, align 8, !tbaa !70
  %124 = load ptr, ptr %y10, align 8, !tbaa !62
  %add.ptr.i1253 = getelementptr inbounds double, ptr %124, i64 %conv1731300
  %125 = load double, ptr %add.ptr.i1253, align 8, !tbaa !70
  %add.ptr.i1254 = getelementptr inbounds double, ptr %124, i64 %idxprom254
  store double %125, ptr %add.ptr.i1254, align 8, !tbaa !70
  %arrayidx294 = getelementptr inbounds double, ptr %81, i64 %conv1731300
  %126 = load double, ptr %arrayidx294, align 8, !tbaa !70
  %arrayidx297 = getelementptr inbounds double, ptr %81, i64 %idxprom254
  store double %126, ptr %arrayidx297, align 8, !tbaa !70
  %arrayidx300 = getelementptr inbounds double, ptr %82, i64 %conv1731300
  %127 = load double, ptr %arrayidx300, align 8, !tbaa !70
  %fneg301 = fneg double %127
  %arrayidx304 = getelementptr inbounds double, ptr %82, i64 %idxprom254
  store double %fneg301, ptr %arrayidx304, align 8, !tbaa !70
  %arrayidx307 = getelementptr inbounds double, ptr %83, i64 %conv1731300
  %128 = load double, ptr %arrayidx307, align 8, !tbaa !70
  %arrayidx310 = getelementptr inbounds double, ptr %83, i64 %idxprom254
  store double %128, ptr %arrayidx310, align 8, !tbaa !70
  %inc311 = add i32 %nc169.1, 1
  %.pre1316 = load i32, ptr %arrayidx180, align 4, !tbaa !63
  %.pre1320 = sext i32 %.pre1316 to i64
  br label %if.end312

if.end312:                                        ; preds = %if.then251, %if.end243
  %conv317.pre-phi = phi i64 [ %.pre1320, %if.then251 ], [ %conv248.pre-phi, %if.end243 ]
  %nc169.2 = phi i32 [ %inc311, %if.then251 ], [ %nc169.1, %if.end243 ]
  %arrayidx314 = getelementptr inbounds i32, ptr %28, i64 %conv1731300
  %129 = load i32, ptr %arrayidx314, align 4, !tbaa !63
  %add.ptr.i1255 = getelementptr inbounds i32, ptr %85, i64 %conv317.pre-phi
  %130 = load i32, ptr %add.ptr.i1255, align 4, !tbaa !63
  %cmp319 = icmp eq i32 %129, %130
  br i1 %cmp319, label %if.then320, label %if.end381

if.then320:                                       ; preds = %if.end312
  %arrayidx322 = getelementptr inbounds i32, ptr %34, i64 %conv1731300
  store i32 %nc169.2, ptr %arrayidx322, align 4, !tbaa !63
  %idxprom323 = zext i32 %nc169.2 to i64
  %arrayidx324 = getelementptr inbounds i32, ptr %34, i64 %idxprom323
  store i32 %nc169.2, ptr %arrayidx324, align 4, !tbaa !63
  %arrayidx326 = getelementptr inbounds i32, ptr %call129, i64 %idxprom323
  store i32 %indvars1305, ptr %arrayidx326, align 4, !tbaa !63
  %131 = load i32, ptr %arrayidx178, align 4, !tbaa !63
  %arrayidx330 = getelementptr inbounds i32, ptr %27, i64 %idxprom323
  store i32 %131, ptr %arrayidx330, align 4, !tbaa !63
  %132 = load i32, ptr %arrayidx180, align 4, !tbaa !63
  %conv333 = sext i32 %132 to i64
  %add.ptr.i1256 = getelementptr inbounds i32, ptr %85, i64 %conv333
  %133 = load i32, ptr %add.ptr.i1256, align 4, !tbaa !63
  %sub335 = add nsw i32 %133, -1
  %arrayidx337 = getelementptr inbounds i32, ptr %28, i64 %idxprom323
  store i32 %sub335, ptr %arrayidx337, align 4, !tbaa !63
  %134 = load i32, ptr %arrayidx180, align 4, !tbaa !63
  %arrayidx341 = getelementptr inbounds i32, ptr %29, i64 %idxprom323
  store i32 %134, ptr %arrayidx341, align 4, !tbaa !63
  %135 = load ptr, ptr %dx8, align 8, !tbaa !62
  %add.ptr.i1257 = getelementptr inbounds double, ptr %135, i64 %conv1731300
  %136 = load double, ptr %add.ptr.i1257, align 8, !tbaa !70
  %add.ptr.i1258 = getelementptr inbounds double, ptr %135, i64 %idxprom323
  store double %136, ptr %add.ptr.i1258, align 8, !tbaa !70
  %137 = load ptr, ptr %dy12, align 8, !tbaa !62
  %add.ptr.i1259 = getelementptr inbounds double, ptr %137, i64 %conv1731300
  %138 = load double, ptr %add.ptr.i1259, align 8, !tbaa !70
  %add.ptr.i1260 = getelementptr inbounds double, ptr %137, i64 %idxprom323
  store double %138, ptr %add.ptr.i1260, align 8, !tbaa !70
  %139 = load ptr, ptr %x6, align 8, !tbaa !62
  %add.ptr.i1261 = getelementptr inbounds double, ptr %139, i64 %conv1731300
  %140 = load double, ptr %add.ptr.i1261, align 8, !tbaa !70
  %add.ptr.i1262 = getelementptr inbounds double, ptr %139, i64 %idxprom323
  store double %140, ptr %add.ptr.i1262, align 8, !tbaa !70
  %141 = load ptr, ptr %y10, align 8, !tbaa !62
  %add.ptr.i1263 = getelementptr inbounds double, ptr %141, i64 %conv1731300
  %142 = load double, ptr %add.ptr.i1263, align 8, !tbaa !70
  %143 = load double, ptr %add.ptr.i1259, align 8, !tbaa !70
  %sub358 = fsub double %142, %143
  %add.ptr.i1265 = getelementptr inbounds double, ptr %141, i64 %idxprom323
  store double %sub358, ptr %add.ptr.i1265, align 8, !tbaa !70
  %arrayidx363 = getelementptr inbounds double, ptr %81, i64 %conv1731300
  %144 = load double, ptr %arrayidx363, align 8, !tbaa !70
  %arrayidx366 = getelementptr inbounds double, ptr %81, i64 %idxprom323
  store double %144, ptr %arrayidx366, align 8, !tbaa !70
  %arrayidx369 = getelementptr inbounds double, ptr %82, i64 %conv1731300
  %145 = load double, ptr %arrayidx369, align 8, !tbaa !70
  %arrayidx372 = getelementptr inbounds double, ptr %82, i64 %idxprom323
  store double %145, ptr %arrayidx372, align 8, !tbaa !70
  %arrayidx375 = getelementptr inbounds double, ptr %83, i64 %conv1731300
  %146 = load double, ptr %arrayidx375, align 8, !tbaa !70
  %fneg376 = fneg double %146
  %arrayidx379 = getelementptr inbounds double, ptr %83, i64 %idxprom323
  store double %fneg376, ptr %arrayidx379, align 8, !tbaa !70
  %inc380 = add i32 %nc169.2, 1
  %.pre1317 = load i32, ptr %arrayidx314, align 4, !tbaa !63
  %.pre1318 = load i32, ptr %arrayidx180, align 4, !tbaa !63
  %.pre1321 = sext i32 %.pre1318 to i64
  br label %if.end381

if.end381:                                        ; preds = %if.then320, %if.end312
  %conv386.pre-phi = phi i64 [ %.pre1321, %if.then320 ], [ %conv317.pre-phi, %if.end312 ]
  %147 = phi i32 [ %.pre1317, %if.then320 ], [ %129, %if.end312 ]
  %nc169.3 = phi i32 [ %inc380, %if.then320 ], [ %nc169.2, %if.end312 ]
  %add.ptr.i1266 = getelementptr inbounds i32, ptr %86, i64 %conv386.pre-phi
  %148 = load i32, ptr %add.ptr.i1266, align 4, !tbaa !63
  %cmp388 = icmp eq i32 %147, %148
  br i1 %cmp388, label %if.then389, label %for.inc451

if.then389:                                       ; preds = %if.end381
  %arrayidx391 = getelementptr inbounds i32, ptr %call129, i64 %conv1731300
  store i32 %nc169.3, ptr %arrayidx391, align 4, !tbaa !63
  %idxprom392 = zext i32 %nc169.3 to i64
  %arrayidx393 = getelementptr inbounds i32, ptr %call129, i64 %idxprom392
  store i32 %nc169.3, ptr %arrayidx393, align 4, !tbaa !63
  %arrayidx395 = getelementptr inbounds i32, ptr %34, i64 %idxprom392
  store i32 %indvars1305, ptr %arrayidx395, align 4, !tbaa !63
  %149 = load i32, ptr %arrayidx178, align 4, !tbaa !63
  %arrayidx399 = getelementptr inbounds i32, ptr %27, i64 %idxprom392
  store i32 %149, ptr %arrayidx399, align 4, !tbaa !63
  %150 = load i32, ptr %arrayidx180, align 4, !tbaa !63
  %conv402 = sext i32 %150 to i64
  %add.ptr.i1267 = getelementptr inbounds i32, ptr %86, i64 %conv402
  %151 = load i32, ptr %add.ptr.i1267, align 4, !tbaa !63
  %add404 = add nsw i32 %151, 1
  %arrayidx406 = getelementptr inbounds i32, ptr %28, i64 %idxprom392
  store i32 %add404, ptr %arrayidx406, align 4, !tbaa !63
  %152 = load i32, ptr %arrayidx180, align 4, !tbaa !63
  %arrayidx410 = getelementptr inbounds i32, ptr %29, i64 %idxprom392
  store i32 %152, ptr %arrayidx410, align 4, !tbaa !63
  %153 = load ptr, ptr %dx8, align 8, !tbaa !62
  %add.ptr.i1268 = getelementptr inbounds double, ptr %153, i64 %conv1731300
  %154 = load double, ptr %add.ptr.i1268, align 8, !tbaa !70
  %add.ptr.i1269 = getelementptr inbounds double, ptr %153, i64 %idxprom392
  store double %154, ptr %add.ptr.i1269, align 8, !tbaa !70
  %155 = load ptr, ptr %dy12, align 8, !tbaa !62
  %add.ptr.i1270 = getelementptr inbounds double, ptr %155, i64 %conv1731300
  %156 = load double, ptr %add.ptr.i1270, align 8, !tbaa !70
  %add.ptr.i1271 = getelementptr inbounds double, ptr %155, i64 %idxprom392
  store double %156, ptr %add.ptr.i1271, align 8, !tbaa !70
  %157 = load ptr, ptr %x6, align 8, !tbaa !62
  %add.ptr.i1272 = getelementptr inbounds double, ptr %157, i64 %conv1731300
  %158 = load double, ptr %add.ptr.i1272, align 8, !tbaa !70
  %add.ptr.i1273 = getelementptr inbounds double, ptr %157, i64 %idxprom392
  store double %158, ptr %add.ptr.i1273, align 8, !tbaa !70
  %159 = load ptr, ptr %y10, align 8, !tbaa !62
  %add.ptr.i1274 = getelementptr inbounds double, ptr %159, i64 %conv1731300
  %160 = load double, ptr %add.ptr.i1274, align 8, !tbaa !70
  %161 = load double, ptr %add.ptr.i1270, align 8, !tbaa !70
  %add427 = fadd double %160, %161
  %add.ptr.i1276 = getelementptr inbounds double, ptr %159, i64 %idxprom392
  store double %add427, ptr %add.ptr.i1276, align 8, !tbaa !70
  %arrayidx432 = getelementptr inbounds double, ptr %81, i64 %conv1731300
  %162 = load double, ptr %arrayidx432, align 8, !tbaa !70
  %arrayidx435 = getelementptr inbounds double, ptr %81, i64 %idxprom392
  store double %162, ptr %arrayidx435, align 8, !tbaa !70
  %arrayidx438 = getelementptr inbounds double, ptr %82, i64 %conv1731300
  %163 = load double, ptr %arrayidx438, align 8, !tbaa !70
  %arrayidx441 = getelementptr inbounds double, ptr %82, i64 %idxprom392
  store double %163, ptr %arrayidx441, align 8, !tbaa !70
  %arrayidx444 = getelementptr inbounds double, ptr %83, i64 %conv1731300
  %164 = load double, ptr %arrayidx444, align 8, !tbaa !70
  %fneg445 = fneg double %164
  %arrayidx448 = getelementptr inbounds double, ptr %83, i64 %idxprom392
  store double %fneg445, ptr %arrayidx448, align 8, !tbaa !70
  %inc449 = add i32 %nc169.3, 1
  br label %for.inc451

for.inc451:                                       ; preds = %if.end381, %if.then389
  %nc169.4 = phi i32 [ %inc449, %if.then389 ], [ %nc169.3, %if.end381 ]
  %inc452 = add nuw nsw i64 %conv1731300, 1
  %conv173 = and i64 %inc452, 4294967295
  %cmp174 = icmp ugt i64 %46, %conv173
  br i1 %cmp174, label %for.body176, label %for.cond456.preheader, !llvm.loop !71

for.cond.cleanup458:                              ; preds = %for.inc723, %for.cond456.preheader
  store i32 %conv153, ptr @save_ncells, align 4, !tbaa !63
  store i64 %conv74, ptr %ncells2, align 8, !tbaa !58
  %agg.tmp.sroa.0.0.copyload = load i64, ptr %tstart_cpu, align 8, !tbaa.struct !72
  %agg.tmp.sroa.2.0.tstart_cpu.sroa_idx = getelementptr inbounds i8, ptr %tstart_cpu, i64 8
  %agg.tmp.sroa.2.0.copyload = load i64, ptr %agg.tmp.sroa.2.0.tstart_cpu.sroa_idx, align 8, !tbaa.struct !73
  %call728 = call double @cpu_timer_stop(i64 %agg.tmp.sroa.0.0.copyload, i64 %agg.tmp.sroa.2.0.copyload)
  %cpu_timers = getelementptr inbounds %class.State, ptr %this, i64 0, i32 6
  %165 = load double, ptr %cpu_timers, align 8, !tbaa !70
  %add730 = fadd double %call728, %165
  store double %add730, ptr %cpu_timers, align 8, !tbaa !70
  call void @llvm.lifetime.end.p0(i64 16, ptr nonnull %tstart_cpu) #24
  ret void

for.body459:                                      ; preds = %for.body459.lr.ph, %for.inc723
  %indvars.iv1306 = phi i64 [ %91, %for.body459.lr.ph ], [ %indvars.iv.next1307, %for.inc723 ]
  %arrayidx461 = getelementptr inbounds i32, ptr %27, i64 %indvars.iv1306
  %166 = load i32, ptr %arrayidx461, align 4, !tbaa !63
  %arrayidx463 = getelementptr inbounds i32, ptr %29, i64 %indvars.iv1306
  %167 = load i32, ptr %arrayidx463, align 4, !tbaa !63
  %conv464 = sext i32 %167 to i64
  %add.ptr.i1277 = getelementptr inbounds i32, ptr %87, i64 %conv464
  %168 = load i32, ptr %add.ptr.i1277, align 4, !tbaa !63
  %sub466 = add nsw i32 %168, -1
  %cmp467 = icmp eq i32 %166, %sub466
  br i1 %cmp467, label %if.then468, label %if.end508

if.then468:                                       ; preds = %for.body459
  %arrayidx470 = getelementptr inbounds i32, ptr %28, i64 %indvars.iv1306
  %169 = load i32, ptr %arrayidx470, align 4, !tbaa !63
  %170 = load ptr, ptr %lev_jbegin34, align 8, !tbaa !59
  %add.ptr.i1278 = getelementptr inbounds i32, ptr %170, i64 %conv464
  %171 = load i32, ptr %add.ptr.i1278, align 4, !tbaa !63
  %cmp475 = icmp eq i32 %169, %171
  br i1 %cmp475, label %if.then476, label %if.else

if.then476:                                       ; preds = %if.then468
  %172 = trunc i64 %indvars.iv1306 to i32
  br label %if.end487

if.else:                                          ; preds = %if.then468
  %arrayidx480 = getelementptr inbounds i32, ptr %32, i64 %indvars.iv1306
  %173 = load i32, ptr %arrayidx480, align 4, !tbaa !63
  %idxprom481 = sext i32 %173 to i64
  %arrayidx482 = getelementptr inbounds i32, ptr %34, i64 %idxprom481
  %174 = load i32, ptr %arrayidx482, align 4, !tbaa !63
  %idxprom483 = sext i32 %174 to i64
  %arrayidx484 = getelementptr inbounds i32, ptr %30, i64 %idxprom483
  %175 = load i32, ptr %arrayidx484, align 4, !tbaa !63
  br label %if.end487

if.end487:                                        ; preds = %if.else, %if.then476
  %.sink = phi i32 [ %172, %if.then476 ], [ %175, %if.else ]
  %176 = getelementptr inbounds i32, ptr %34, i64 %indvars.iv1306
  store i32 %.sink, ptr %176, align 4
  %177 = load i32, ptr %arrayidx470, align 4, !tbaa !63
  %178 = load i32, ptr %arrayidx463, align 4, !tbaa !63
  %conv492 = sext i32 %178 to i64
  %179 = load ptr, ptr %lev_jend36, align 8, !tbaa !59
  %add.ptr.i1279 = getelementptr inbounds i32, ptr %179, i64 %conv492
  %180 = load i32, ptr %add.ptr.i1279, align 4, !tbaa !63
  %cmp494 = icmp eq i32 %177, %180
  br i1 %cmp494, label %if.then495, label %if.else498

if.then495:                                       ; preds = %if.end487
  %arrayidx497 = getelementptr inbounds i32, ptr %call129, i64 %indvars.iv1306
  %181 = trunc i64 %indvars.iv1306 to i32
  store i32 %181, ptr %arrayidx497, align 4, !tbaa !63
  br label %if.end508

if.else498:                                       ; preds = %if.end487
  %arrayidx500 = getelementptr inbounds i32, ptr %32, i64 %indvars.iv1306
  %182 = load i32, ptr %arrayidx500, align 4, !tbaa !63
  %idxprom501 = sext i32 %182 to i64
  %arrayidx502 = getelementptr inbounds i32, ptr %call129, i64 %idxprom501
  %183 = load i32, ptr %arrayidx502, align 4, !tbaa !63
  %idxprom503 = sext i32 %183 to i64
  %arrayidx504 = getelementptr inbounds i32, ptr %30, i64 %idxprom503
  %184 = load i32, ptr %arrayidx504, align 4, !tbaa !63
  %arrayidx506 = getelementptr inbounds i32, ptr %call129, i64 %indvars.iv1306
  store i32 %184, ptr %arrayidx506, align 4, !tbaa !63
  br label %if.end508

if.end508:                                        ; preds = %if.then495, %if.else498, %for.body459
  %185 = load i32, ptr %arrayidx461, align 4, !tbaa !63
  %186 = load i32, ptr %arrayidx463, align 4, !tbaa !63
  %conv513 = sext i32 %186 to i64
  %add.ptr.i1280 = getelementptr inbounds i32, ptr %88, i64 %conv513
  %187 = load i32, ptr %add.ptr.i1280, align 4, !tbaa !63
  %add515 = add nsw i32 %187, 1
  %cmp516 = icmp eq i32 %185, %add515
  br i1 %cmp516, label %if.then517, label %if.end590

if.then517:                                       ; preds = %if.end508
  %arrayidx521 = getelementptr inbounds i32, ptr %30, i64 %indvars.iv1306
  %188 = load i32, ptr %arrayidx521, align 4, !tbaa !63
  %idxprom522 = sext i32 %188 to i64
  %arrayidx523 = getelementptr inbounds i32, ptr %34, i64 %idxprom522
  %189 = load i32, ptr %arrayidx523, align 4, !tbaa !63
  %idxprom524 = sext i32 %189 to i64
  %arrayidx525 = getelementptr inbounds i32, ptr %29, i64 %idxprom524
  %190 = load i32, ptr %arrayidx525, align 4, !tbaa !63
  %cmp526.not = icmp sgt i32 %186, %190
  br i1 %cmp526.not, label %if.else568, label %if.then527

if.then527:                                       ; preds = %if.then517
  %arrayidx529 = getelementptr inbounds i32, ptr %28, i64 %indvars.iv1306
  %191 = load i32, ptr %arrayidx529, align 4, !tbaa !63
  %192 = load ptr, ptr %lev_jbegin34, align 8, !tbaa !59
  %add.ptr.i1281 = getelementptr inbounds i32, ptr %192, i64 %conv513
  %193 = load i32, ptr %add.ptr.i1281, align 4, !tbaa !63
  %cmp534 = icmp eq i32 %191, %193
  br i1 %cmp534, label %if.then535, label %if.else538

if.then535:                                       ; preds = %if.then527
  %194 = trunc i64 %indvars.iv1306 to i32
  br label %if.end547

if.else538:                                       ; preds = %if.then527
  %arrayidx544 = getelementptr inbounds i32, ptr %32, i64 %idxprom524
  %195 = load i32, ptr %arrayidx544, align 4, !tbaa !63
  br label %if.end547

if.end547:                                        ; preds = %if.else538, %if.then535
  %.sink1312 = phi i32 [ %194, %if.then535 ], [ %195, %if.else538 ]
  %196 = getelementptr inbounds i32, ptr %34, i64 %indvars.iv1306
  store i32 %.sink1312, ptr %196, align 4
  %197 = load i32, ptr %arrayidx529, align 4, !tbaa !63
  %198 = load i32, ptr %arrayidx463, align 4, !tbaa !63
  %conv552 = sext i32 %198 to i64
  %199 = load ptr, ptr %lev_jend36, align 8, !tbaa !59
  %add.ptr.i1282 = getelementptr inbounds i32, ptr %199, i64 %conv552
  %200 = load i32, ptr %add.ptr.i1282, align 4, !tbaa !63
  %cmp554 = icmp eq i32 %197, %200
  br i1 %cmp554, label %if.then555, label %if.else558

if.then555:                                       ; preds = %if.end547
  %arrayidx557 = getelementptr inbounds i32, ptr %call129, i64 %indvars.iv1306
  %201 = trunc i64 %indvars.iv1306 to i32
  store i32 %201, ptr %arrayidx557, align 4, !tbaa !63
  br label %if.end590

if.else558:                                       ; preds = %if.end547
  %202 = load i32, ptr %arrayidx521, align 4, !tbaa !63
  %idxprom561 = sext i32 %202 to i64
  %arrayidx562 = getelementptr inbounds i32, ptr %call129, i64 %idxprom561
  %203 = load i32, ptr %arrayidx562, align 4, !tbaa !63
  %idxprom563 = sext i32 %203 to i64
  %arrayidx564 = getelementptr inbounds i32, ptr %32, i64 %idxprom563
  %204 = load i32, ptr %arrayidx564, align 4, !tbaa !63
  %arrayidx566 = getelementptr inbounds i32, ptr %call129, i64 %indvars.iv1306
  store i32 %204, ptr %arrayidx566, align 4, !tbaa !63
  br label %if.end590

if.else568:                                       ; preds = %if.then517
  %arrayidx574 = getelementptr inbounds i32, ptr %32, i64 %idxprom524
  %205 = load i32, ptr %arrayidx574, align 4, !tbaa !63
  %idxprom575 = sext i32 %205 to i64
  %arrayidx576 = getelementptr inbounds i32, ptr %32, i64 %idxprom575
  %206 = load i32, ptr %arrayidx576, align 4, !tbaa !63
  %arrayidx578 = getelementptr inbounds i32, ptr %34, i64 %indvars.iv1306
  store i32 %206, ptr %arrayidx578, align 4, !tbaa !63
  %207 = load i32, ptr %arrayidx521, align 4, !tbaa !63
  %idxprom581 = sext i32 %207 to i64
  %arrayidx582 = getelementptr inbounds i32, ptr %call129, i64 %idxprom581
  %208 = load i32, ptr %arrayidx582, align 4, !tbaa !63
  %idxprom583 = sext i32 %208 to i64
  %arrayidx584 = getelementptr inbounds i32, ptr %32, i64 %idxprom583
  %209 = load i32, ptr %arrayidx584, align 4, !tbaa !63
  %idxprom585 = sext i32 %209 to i64
  %arrayidx586 = getelementptr inbounds i32, ptr %32, i64 %idxprom585
  %210 = load i32, ptr %arrayidx586, align 4, !tbaa !63
  %arrayidx588 = getelementptr inbounds i32, ptr %call129, i64 %indvars.iv1306
  store i32 %210, ptr %arrayidx588, align 4, !tbaa !63
  br label %if.end590

if.end590:                                        ; preds = %if.else568, %if.else558, %if.then555, %if.end508
  %arrayidx592 = getelementptr inbounds i32, ptr %28, i64 %indvars.iv1306
  %211 = load i32, ptr %arrayidx592, align 4, !tbaa !63
  %212 = load i32, ptr %arrayidx463, align 4, !tbaa !63
  %conv595 = sext i32 %212 to i64
  %add.ptr.i1283 = getelementptr inbounds i32, ptr %89, i64 %conv595
  %213 = load i32, ptr %add.ptr.i1283, align 4, !tbaa !63
  %sub597 = add nsw i32 %213, -1
  %cmp598 = icmp eq i32 %211, %sub597
  br i1 %cmp598, label %if.then599, label %if.end640

if.then599:                                       ; preds = %if.end590
  %214 = load i32, ptr %arrayidx461, align 4, !tbaa !63
  %add.ptr.i1284 = getelementptr inbounds i32, ptr %87, i64 %conv595
  %215 = load i32, ptr %add.ptr.i1284, align 4, !tbaa !63
  %cmp606 = icmp eq i32 %214, %215
  br i1 %cmp606, label %if.then607, label %if.else610

if.then607:                                       ; preds = %if.then599
  %216 = trunc i64 %indvars.iv1306 to i32
  br label %if.end619

if.else610:                                       ; preds = %if.then599
  %arrayidx612 = getelementptr inbounds i32, ptr %call129, i64 %indvars.iv1306
  %217 = load i32, ptr %arrayidx612, align 4, !tbaa !63
  %idxprom613 = sext i32 %217 to i64
  %arrayidx614 = getelementptr inbounds i32, ptr %30, i64 %idxprom613
  %218 = load i32, ptr %arrayidx614, align 4, !tbaa !63
  %idxprom615 = sext i32 %218 to i64
  %arrayidx616 = getelementptr inbounds i32, ptr %34, i64 %idxprom615
  %219 = load i32, ptr %arrayidx616, align 4, !tbaa !63
  br label %if.end619

if.end619:                                        ; preds = %if.else610, %if.then607
  %.sink1313 = phi i32 [ %216, %if.then607 ], [ %219, %if.else610 ]
  %220 = getelementptr inbounds i32, ptr %30, i64 %indvars.iv1306
  store i32 %.sink1313, ptr %220, align 4
  %221 = load i32, ptr %arrayidx461, align 4, !tbaa !63
  %222 = load i32, ptr %arrayidx463, align 4, !tbaa !63
  %conv624 = sext i32 %222 to i64
  %add.ptr.i1285 = getelementptr inbounds i32, ptr %88, i64 %conv624
  %223 = load i32, ptr %add.ptr.i1285, align 4, !tbaa !63
  %cmp626 = icmp eq i32 %221, %223
  br i1 %cmp626, label %if.then627, label %if.else630

if.then627:                                       ; preds = %if.end619
  %arrayidx629 = getelementptr inbounds i32, ptr %32, i64 %indvars.iv1306
  %224 = trunc i64 %indvars.iv1306 to i32
  store i32 %224, ptr %arrayidx629, align 4, !tbaa !63
  br label %if.end640

if.else630:                                       ; preds = %if.end619
  %arrayidx632 = getelementptr inbounds i32, ptr %call129, i64 %indvars.iv1306
  %225 = load i32, ptr %arrayidx632, align 4, !tbaa !63
  %idxprom633 = sext i32 %225 to i64
  %arrayidx634 = getelementptr inbounds i32, ptr %32, i64 %idxprom633
  %226 = load i32, ptr %arrayidx634, align 4, !tbaa !63
  %idxprom635 = sext i32 %226 to i64
  %arrayidx636 = getelementptr inbounds i32, ptr %34, i64 %idxprom635
  %227 = load i32, ptr %arrayidx636, align 4, !tbaa !63
  %arrayidx638 = getelementptr inbounds i32, ptr %32, i64 %indvars.iv1306
  store i32 %227, ptr %arrayidx638, align 4, !tbaa !63
  br label %if.end640

if.end640:                                        ; preds = %if.then627, %if.else630, %if.end590
  %228 = load i32, ptr %arrayidx592, align 4, !tbaa !63
  %229 = load i32, ptr %arrayidx463, align 4, !tbaa !63
  %conv645 = sext i32 %229 to i64
  %add.ptr.i1286 = getelementptr inbounds i32, ptr %90, i64 %conv645
  %230 = load i32, ptr %add.ptr.i1286, align 4, !tbaa !63
  %add647 = add nsw i32 %230, 1
  %cmp648 = icmp eq i32 %228, %add647
  br i1 %cmp648, label %if.then649, label %for.inc723

if.then649:                                       ; preds = %if.end640
  %arrayidx653 = getelementptr inbounds i32, ptr %34, i64 %indvars.iv1306
  %231 = load i32, ptr %arrayidx653, align 4, !tbaa !63
  %idxprom654 = sext i32 %231 to i64
  %arrayidx655 = getelementptr inbounds i32, ptr %30, i64 %idxprom654
  %232 = load i32, ptr %arrayidx655, align 4, !tbaa !63
  %idxprom656 = sext i32 %232 to i64
  %arrayidx657 = getelementptr inbounds i32, ptr %29, i64 %idxprom656
  %233 = load i32, ptr %arrayidx657, align 4, !tbaa !63
  %cmp658.not = icmp sgt i32 %229, %233
  br i1 %cmp658.not, label %if.else700, label %if.then659

if.then659:                                       ; preds = %if.then649
  %234 = load i32, ptr %arrayidx461, align 4, !tbaa !63
  %add.ptr.i1287 = getelementptr inbounds i32, ptr %87, i64 %conv645
  %235 = load i32, ptr %add.ptr.i1287, align 4, !tbaa !63
  %cmp666 = icmp eq i32 %234, %235
  br i1 %cmp666, label %if.then667, label %if.else670

if.then667:                                       ; preds = %if.then659
  %236 = trunc i64 %indvars.iv1306 to i32
  br label %if.end679

if.else670:                                       ; preds = %if.then659
  %arrayidx676 = getelementptr inbounds i32, ptr %call129, i64 %idxprom656
  %237 = load i32, ptr %arrayidx676, align 4, !tbaa !63
  br label %if.end679

if.end679:                                        ; preds = %if.else670, %if.then667
  %.sink1314 = phi i32 [ %236, %if.then667 ], [ %237, %if.else670 ]
  %238 = getelementptr inbounds i32, ptr %30, i64 %indvars.iv1306
  store i32 %.sink1314, ptr %238, align 4
  %239 = load i32, ptr %arrayidx461, align 4, !tbaa !63
  %240 = load i32, ptr %arrayidx463, align 4, !tbaa !63
  %conv684 = sext i32 %240 to i64
  %add.ptr.i1288 = getelementptr inbounds i32, ptr %88, i64 %conv684
  %241 = load i32, ptr %add.ptr.i1288, align 4, !tbaa !63
  %cmp686 = icmp eq i32 %239, %241
  br i1 %cmp686, label %if.then687, label %if.else690

if.then687:                                       ; preds = %if.end679
  %arrayidx689 = getelementptr inbounds i32, ptr %32, i64 %indvars.iv1306
  %242 = trunc i64 %indvars.iv1306 to i32
  store i32 %242, ptr %arrayidx689, align 4, !tbaa !63
  br label %for.inc723

if.else690:                                       ; preds = %if.end679
  %243 = load i32, ptr %arrayidx653, align 4, !tbaa !63
  %idxprom693 = sext i32 %243 to i64
  %arrayidx694 = getelementptr inbounds i32, ptr %32, i64 %idxprom693
  %244 = load i32, ptr %arrayidx694, align 4, !tbaa !63
  %idxprom695 = sext i32 %244 to i64
  %arrayidx696 = getelementptr inbounds i32, ptr %call129, i64 %idxprom695
  %245 = load i32, ptr %arrayidx696, align 4, !tbaa !63
  %arrayidx698 = getelementptr inbounds i32, ptr %32, i64 %indvars.iv1306
  store i32 %245, ptr %arrayidx698, align 4, !tbaa !63
  br label %for.inc723

if.else700:                                       ; preds = %if.then649
  %arrayidx706 = getelementptr inbounds i32, ptr %call129, i64 %idxprom656
  %246 = load i32, ptr %arrayidx706, align 4, !tbaa !63
  %idxprom707 = sext i32 %246 to i64
  %arrayidx708 = getelementptr inbounds i32, ptr %call129, i64 %idxprom707
  %247 = load i32, ptr %arrayidx708, align 4, !tbaa !63
  %arrayidx710 = getelementptr inbounds i32, ptr %30, i64 %indvars.iv1306
  store i32 %247, ptr %arrayidx710, align 4, !tbaa !63
  %248 = load i32, ptr %arrayidx653, align 4, !tbaa !63
  %idxprom713 = sext i32 %248 to i64
  %arrayidx714 = getelementptr inbounds i32, ptr %32, i64 %idxprom713
  %249 = load i32, ptr %arrayidx714, align 4, !tbaa !63
  %idxprom715 = sext i32 %249 to i64
  %arrayidx716 = getelementptr inbounds i32, ptr %call129, i64 %idxprom715
  %250 = load i32, ptr %arrayidx716, align 4, !tbaa !63
  %idxprom717 = sext i32 %250 to i64
  %arrayidx718 = getelementptr inbounds i32, ptr %call129, i64 %idxprom717
  %251 = load i32, ptr %arrayidx718, align 4, !tbaa !63
  %arrayidx720 = getelementptr inbounds i32, ptr %32, i64 %indvars.iv1306
  store i32 %251, ptr %arrayidx720, align 4, !tbaa !63
  br label %for.inc723

for.inc723:                                       ; preds = %if.end640, %if.then687, %if.else690, %if.else700
  %indvars.iv.next1307 = add nsw i64 %indvars.iv1306, 1
  %exitcond1311.not = icmp eq i64 %indvars.iv.next1307, %conv74
  br i1 %exitcond1311.not, label %for.cond.cleanup458, label %for.body459, !llvm.loop !74
}

declare void @cpu_timer_start(ptr noundef) local_unnamed_addr #3

declare noundef ptr @_ZN10MallocPlus14memory_reallocEmPv(ptr noundef nonnull align 8 dereferenceable(96), i64 noundef, ptr noundef) local_unnamed_addr #3

declare double @cpu_timer_stop(i64, i64) local_unnamed_addr #3

; Function Attrs: mustprogress nocallback nofree nounwind willreturn memory(argmem: readwrite)
declare void @llvm.memcpy.p0.p0.i64(ptr noalias nocapture writeonly, ptr noalias nocapture readonly, i64, i1 immarg) #4

; Function Attrs: mustprogress uwtable
define dso_local void @_ZN5State31apply_boundary_conditions_localEv(ptr nocapture noundef nonnull readonly align 8 dereferenceable(368) %this) local_unnamed_addr #2 align 2 {
entry:
  %lowerBound = alloca i32, align 4
  %upperBound = alloca i32, align 4
  %mesh = getelementptr inbounds %class.State, ptr %this, i64 0, i32 2
  %0 = load ptr, ptr %mesh, align 8, !tbaa !17
  %ncells2 = getelementptr inbounds %class.Mesh, ptr %0, i64 0, i32 45
  %nlft = getelementptr inbounds %class.Mesh, ptr %0, i64 0, i32 69
  %1 = load ptr, ptr %nlft, align 8, !tbaa !54
  store ptr %1, ptr @_ZZN5State31apply_boundary_conditions_localEvE4nlft, align 8, !tbaa !75
  %nrht = getelementptr inbounds %class.Mesh, ptr %0, i64 0, i32 70
  %2 = load ptr, ptr %nrht, align 8, !tbaa !55
  store ptr %2, ptr @_ZZN5State31apply_boundary_conditions_localEvE4nrht, align 8, !tbaa !75
  %nbot = getelementptr inbounds %class.Mesh, ptr %0, i64 0, i32 71
  %3 = load ptr, ptr %nbot, align 8, !tbaa !56
  store ptr %3, ptr @_ZZN5State31apply_boundary_conditions_localEvE4nbot, align 8, !tbaa !75
  %ntop = getelementptr inbounds %class.Mesh, ptr %0, i64 0, i32 72
  %4 = load ptr, ptr %ntop, align 8, !tbaa !57
  store ptr %4, ptr @_ZZN5State31apply_boundary_conditions_localEvE4ntop, align 8, !tbaa !75
  call void @llvm.lifetime.start.p0(i64 4, ptr nonnull %lowerBound) #24
  call void @llvm.lifetime.start.p0(i64 4, ptr nonnull %upperBound) #24
  call void @_ZN4Mesh10get_boundsERiS0_(ptr noundef nonnull align 8 dereferenceable(2288) %0, ptr noundef nonnull align 4 dereferenceable(4) %lowerBound, ptr noundef nonnull align 4 dereferenceable(4) %upperBound)
  %5 = load i32, ptr %lowerBound, align 4, !tbaa !63
  %6 = load i32, ptr %upperBound, align 4, !tbaa !63
  %cmp182 = icmp ult i32 %5, %6
  br i1 %cmp182, label %for.body.lr.ph, label %for.cond.cleanup

for.body.lr.ph:                                   ; preds = %entry
  %7 = load ptr, ptr %mesh, align 8, !tbaa !17
  %i.i = getelementptr inbounds %class.Mesh, ptr %7, i64 0, i32 64
  %8 = load ptr, ptr %i.i, align 8, !tbaa !50
  %lev_ibegin.i = getelementptr inbounds %class.Mesh, ptr %7, i64 0, i32 26
  %level.i = getelementptr inbounds %class.Mesh, ptr %7, i64 0, i32 67
  %9 = load ptr, ptr %level.i, align 8, !tbaa !52
  %10 = load ptr, ptr %lev_ibegin.i, align 8, !tbaa !59
  %11 = load ptr, ptr @_ZZN5State31apply_boundary_conditions_localEvE4nrht, align 8
  %H = getelementptr inbounds %class.State, ptr %this, i64 0, i32 3
  %12 = load ptr, ptr %H, align 8
  %U = getelementptr inbounds %class.State, ptr %this, i64 0, i32 4
  %13 = load ptr, ptr %U, align 8
  %V = getelementptr inbounds %class.State, ptr %this, i64 0, i32 5
  %14 = load ptr, ptr %V, align 8
  %lev_iend.i = getelementptr inbounds %class.Mesh, ptr %7, i64 0, i32 27
  %15 = load ptr, ptr %lev_iend.i, align 8, !tbaa !59
  %16 = load ptr, ptr @_ZZN5State31apply_boundary_conditions_localEvE4nlft, align 8
  %j.i = getelementptr inbounds %class.Mesh, ptr %7, i64 0, i32 65
  %17 = load ptr, ptr %j.i, align 8, !tbaa !51
  %lev_jbegin.i = getelementptr inbounds %class.Mesh, ptr %7, i64 0, i32 28
  %18 = load ptr, ptr %lev_jbegin.i, align 8, !tbaa !59
  %19 = load ptr, ptr @_ZZN5State31apply_boundary_conditions_localEvE4ntop, align 8
  %lev_jend.i = getelementptr inbounds %class.Mesh, ptr %7, i64 0, i32 29
  %20 = load ptr, ptr %lev_jend.i, align 8, !tbaa !59
  %21 = load ptr, ptr @_ZZN5State31apply_boundary_conditions_localEvE4nbot, align 8
  br label %for.body

for.cond.cleanup:                                 ; preds = %for.inc, %entry
  call void @llvm.lifetime.end.p0(i64 4, ptr nonnull %upperBound) #24
  call void @llvm.lifetime.end.p0(i64 4, ptr nonnull %lowerBound) #24
  ret void

for.body:                                         ; preds = %for.body.lr.ph, %for.inc
  %ic.0183 = phi i32 [ %5, %for.body.lr.ph ], [ %inc, %for.inc ]
  %idxprom.i = sext i32 %ic.0183 to i64
  %arrayidx.i = getelementptr inbounds i32, ptr %8, i64 %idxprom.i
  %22 = load i32, ptr %arrayidx.i, align 4, !tbaa !63
  %arrayidx3.i = getelementptr inbounds i32, ptr %9, i64 %idxprom.i
  %23 = load i32, ptr %arrayidx3.i, align 4, !tbaa !63
  %conv.i = sext i32 %23 to i64
  %add.ptr.i.i = getelementptr inbounds i32, ptr %10, i64 %conv.i
  %24 = load i32, ptr %add.ptr.i.i, align 4, !tbaa !63
  %cmp.i = icmp slt i32 %22, %24
  br i1 %cmp.i, label %if.then, label %if.end26

if.then:                                          ; preds = %for.body
  %idxprom = zext i32 %ic.0183 to i64
  %arrayidx = getelementptr inbounds i32, ptr %11, i64 %idxprom
  %25 = load i32, ptr %arrayidx, align 4, !tbaa !63
  %26 = load i64, ptr %ncells2, align 8, !tbaa !58
  %conv = trunc i64 %26 to i32
  %cmp9 = icmp slt i32 %25, %conv
  br i1 %cmp9, label %if.then10, label %if.end26

if.then10:                                        ; preds = %if.then
  %idxprom11 = sext i32 %25 to i64
  %arrayidx12 = getelementptr inbounds double, ptr %12, i64 %idxprom11
  %27 = load double, ptr %arrayidx12, align 8, !tbaa !70
  %arrayidx15 = getelementptr inbounds double, ptr %12, i64 %idxprom
  store double %27, ptr %arrayidx15, align 8, !tbaa !70
  %arrayidx17 = getelementptr inbounds double, ptr %13, i64 %idxprom11
  %28 = load double, ptr %arrayidx17, align 8, !tbaa !70
  %fneg = fneg double %28
  %arrayidx20 = getelementptr inbounds double, ptr %13, i64 %idxprom
  store double %fneg, ptr %arrayidx20, align 8, !tbaa !70
  %arrayidx22 = getelementptr inbounds double, ptr %14, i64 %idxprom11
  %29 = load double, ptr %arrayidx22, align 8, !tbaa !70
  %arrayidx25 = getelementptr inbounds double, ptr %14, i64 %idxprom
  store double %29, ptr %arrayidx25, align 8, !tbaa !70
  br label %if.end26

if.end26:                                         ; preds = %if.then, %if.then10, %for.body
  %add.ptr.i.i162 = getelementptr inbounds i32, ptr %15, i64 %conv.i
  %30 = load i32, ptr %add.ptr.i.i162, align 4, !tbaa !63
  %cmp.i163 = icmp sgt i32 %22, %30
  br i1 %cmp.i163, label %if.then30, label %if.end56

if.then30:                                        ; preds = %if.end26
  %idxprom31 = zext i32 %ic.0183 to i64
  %arrayidx32 = getelementptr inbounds i32, ptr %16, i64 %idxprom31
  %31 = load i32, ptr %arrayidx32, align 4, !tbaa !63
  %32 = load i64, ptr %ncells2, align 8, !tbaa !58
  %conv33 = trunc i64 %32 to i32
  %cmp34 = icmp slt i32 %31, %conv33
  br i1 %cmp34, label %if.then35, label %if.end56

if.then35:                                        ; preds = %if.then30
  %idxprom37 = sext i32 %31 to i64
  %arrayidx38 = getelementptr inbounds double, ptr %12, i64 %idxprom37
  %33 = load double, ptr %arrayidx38, align 8, !tbaa !70
  %arrayidx41 = getelementptr inbounds double, ptr %12, i64 %idxprom31
  store double %33, ptr %arrayidx41, align 8, !tbaa !70
  %arrayidx44 = getelementptr inbounds double, ptr %13, i64 %idxprom37
  %34 = load double, ptr %arrayidx44, align 8, !tbaa !70
  %fneg45 = fneg double %34
  %arrayidx48 = getelementptr inbounds double, ptr %13, i64 %idxprom31
  store double %fneg45, ptr %arrayidx48, align 8, !tbaa !70
  %arrayidx51 = getelementptr inbounds double, ptr %14, i64 %idxprom37
  %35 = load double, ptr %arrayidx51, align 8, !tbaa !70
  %arrayidx54 = getelementptr inbounds double, ptr %14, i64 %idxprom31
  store double %35, ptr %arrayidx54, align 8, !tbaa !70
  br label %if.end56

if.end56:                                         ; preds = %if.then30, %if.then35, %if.end26
  %arrayidx.i166 = getelementptr inbounds i32, ptr %17, i64 %idxprom.i
  %36 = load i32, ptr %arrayidx.i166, align 4, !tbaa !63
  %add.ptr.i.i170 = getelementptr inbounds i32, ptr %18, i64 %conv.i
  %37 = load i32, ptr %add.ptr.i.i170, align 4, !tbaa !63
  %cmp.i171 = icmp slt i32 %36, %37
  br i1 %cmp.i171, label %if.then60, label %if.end86

if.then60:                                        ; preds = %if.end56
  %idxprom61 = zext i32 %ic.0183 to i64
  %arrayidx62 = getelementptr inbounds i32, ptr %19, i64 %idxprom61
  %38 = load i32, ptr %arrayidx62, align 4, !tbaa !63
  %39 = load i64, ptr %ncells2, align 8, !tbaa !58
  %conv63 = trunc i64 %39 to i32
  %cmp64 = icmp slt i32 %38, %conv63
  br i1 %cmp64, label %if.then65, label %if.end86

if.then65:                                        ; preds = %if.then60
  %idxprom67 = sext i32 %38 to i64
  %arrayidx68 = getelementptr inbounds double, ptr %12, i64 %idxprom67
  %40 = load double, ptr %arrayidx68, align 8, !tbaa !70
  %arrayidx71 = getelementptr inbounds double, ptr %12, i64 %idxprom61
  store double %40, ptr %arrayidx71, align 8, !tbaa !70
  %arrayidx74 = getelementptr inbounds double, ptr %13, i64 %idxprom67
  %41 = load double, ptr %arrayidx74, align 8, !tbaa !70
  %arrayidx77 = getelementptr inbounds double, ptr %13, i64 %idxprom61
  store double %41, ptr %arrayidx77, align 8, !tbaa !70
  %arrayidx80 = getelementptr inbounds double, ptr %14, i64 %idxprom67
  %42 = load double, ptr %arrayidx80, align 8, !tbaa !70
  %fneg81 = fneg double %42
  %arrayidx84 = getelementptr inbounds double, ptr %14, i64 %idxprom61
  store double %fneg81, ptr %arrayidx84, align 8, !tbaa !70
  br label %if.end86

if.end86:                                         ; preds = %if.then60, %if.then65, %if.end56
  %add.ptr.i.i179 = getelementptr inbounds i32, ptr %20, i64 %conv.i
  %43 = load i32, ptr %add.ptr.i.i179, align 4, !tbaa !63
  %cmp.i180 = icmp sgt i32 %36, %43
  br i1 %cmp.i180, label %if.then90, label %for.inc

if.then90:                                        ; preds = %if.end86
  %idxprom91 = zext i32 %ic.0183 to i64
  %arrayidx92 = getelementptr inbounds i32, ptr %21, i64 %idxprom91
  %44 = load i32, ptr %arrayidx92, align 4, !tbaa !63
  %45 = load i64, ptr %ncells2, align 8, !tbaa !58
  %conv93 = trunc i64 %45 to i32
  %cmp94 = icmp slt i32 %44, %conv93
  br i1 %cmp94, label %if.then95, label %for.inc

if.then95:                                        ; preds = %if.then90
  %idxprom97 = sext i32 %44 to i64
  %arrayidx98 = getelementptr inbounds double, ptr %12, i64 %idxprom97
  %46 = load double, ptr %arrayidx98, align 8, !tbaa !70
  %arrayidx101 = getelementptr inbounds double, ptr %12, i64 %idxprom91
  store double %46, ptr %arrayidx101, align 8, !tbaa !70
  %arrayidx104 = getelementptr inbounds double, ptr %13, i64 %idxprom97
  %47 = load double, ptr %arrayidx104, align 8, !tbaa !70
  %arrayidx107 = getelementptr inbounds double, ptr %13, i64 %idxprom91
  store double %47, ptr %arrayidx107, align 8, !tbaa !70
  %arrayidx110 = getelementptr inbounds double, ptr %14, i64 %idxprom97
  %48 = load double, ptr %arrayidx110, align 8, !tbaa !70
  %fneg111 = fneg double %48
  %arrayidx114 = getelementptr inbounds double, ptr %14, i64 %idxprom91
  store double %fneg111, ptr %arrayidx114, align 8, !tbaa !70
  br label %for.inc

for.inc:                                          ; preds = %if.then90, %if.then95, %if.end86
  %inc = add nuw i32 %ic.0183, 1
  %exitcond.not = icmp eq i32 %inc, %6
  br i1 %exitcond.not, label %for.cond.cleanup, label %for.body, !llvm.loop !76
}

declare void @_ZN4Mesh10get_boundsERiS0_(ptr noundef nonnull align 8 dereferenceable(2288), ptr noundef nonnull align 4 dereferenceable(4), ptr noundef nonnull align 4 dereferenceable(4)) local_unnamed_addr #3

; Function Attrs: mustprogress uwtable
define dso_local void @_ZN5State31apply_boundary_conditions_ghostEv(ptr nocapture noundef nonnull readonly align 8 dereferenceable(368) %this) local_unnamed_addr #2 align 2 {
entry:
  %lowerBound = alloca i32, align 4
  %upperBound = alloca i32, align 4
  %mesh = getelementptr inbounds %class.State, ptr %this, i64 0, i32 2
  %0 = load ptr, ptr %mesh, align 8, !tbaa !17
  %ncells2 = getelementptr inbounds %class.Mesh, ptr %0, i64 0, i32 45
  %nlft = getelementptr inbounds %class.Mesh, ptr %0, i64 0, i32 69
  %1 = load ptr, ptr %nlft, align 8, !tbaa !54
  store ptr %1, ptr @_ZZN5State31apply_boundary_conditions_ghostEvE4nlft, align 8, !tbaa !75
  %nrht = getelementptr inbounds %class.Mesh, ptr %0, i64 0, i32 70
  %2 = load ptr, ptr %nrht, align 8, !tbaa !55
  store ptr %2, ptr @_ZZN5State31apply_boundary_conditions_ghostEvE4nrht, align 8, !tbaa !75
  %nbot = getelementptr inbounds %class.Mesh, ptr %0, i64 0, i32 71
  %3 = load ptr, ptr %nbot, align 8, !tbaa !56
  store ptr %3, ptr @_ZZN5State31apply_boundary_conditions_ghostEvE4nbot, align 8, !tbaa !75
  %ntop = getelementptr inbounds %class.Mesh, ptr %0, i64 0, i32 72
  %4 = load ptr, ptr %ntop, align 8, !tbaa !57
  store ptr %4, ptr @_ZZN5State31apply_boundary_conditions_ghostEvE4ntop, align 8, !tbaa !75
  call void @llvm.lifetime.start.p0(i64 4, ptr nonnull %lowerBound) #24
  call void @llvm.lifetime.start.p0(i64 4, ptr nonnull %upperBound) #24
  call void @_ZN4Mesh10get_boundsERiS0_(ptr noundef nonnull align 8 dereferenceable(2288) %0, ptr noundef nonnull align 4 dereferenceable(4) %lowerBound, ptr noundef nonnull align 4 dereferenceable(4) %upperBound)
  %5 = load i32, ptr %lowerBound, align 4, !tbaa !63
  %6 = load i32, ptr %upperBound, align 4, !tbaa !63
  %cmp182 = icmp ult i32 %5, %6
  br i1 %cmp182, label %for.body.lr.ph, label %for.cond.cleanup

for.body.lr.ph:                                   ; preds = %entry
  %7 = load ptr, ptr %mesh, align 8, !tbaa !17
  %i.i = getelementptr inbounds %class.Mesh, ptr %7, i64 0, i32 64
  %8 = load ptr, ptr %i.i, align 8, !tbaa !50
  %lev_ibegin.i = getelementptr inbounds %class.Mesh, ptr %7, i64 0, i32 26
  %level.i = getelementptr inbounds %class.Mesh, ptr %7, i64 0, i32 67
  %9 = load ptr, ptr %level.i, align 8, !tbaa !52
  %10 = load ptr, ptr %lev_ibegin.i, align 8, !tbaa !59
  %11 = load ptr, ptr @_ZZN5State31apply_boundary_conditions_ghostEvE4nrht, align 8
  %H = getelementptr inbounds %class.State, ptr %this, i64 0, i32 3
  %12 = load ptr, ptr %H, align 8
  %U = getelementptr inbounds %class.State, ptr %this, i64 0, i32 4
  %13 = load ptr, ptr %U, align 8
  %V = getelementptr inbounds %class.State, ptr %this, i64 0, i32 5
  %14 = load ptr, ptr %V, align 8
  %lev_iend.i = getelementptr inbounds %class.Mesh, ptr %7, i64 0, i32 27
  %15 = load ptr, ptr %lev_iend.i, align 8, !tbaa !59
  %16 = load ptr, ptr @_ZZN5State31apply_boundary_conditions_ghostEvE4nlft, align 8
  %j.i = getelementptr inbounds %class.Mesh, ptr %7, i64 0, i32 65
  %17 = load ptr, ptr %j.i, align 8, !tbaa !51
  %lev_jbegin.i = getelementptr inbounds %class.Mesh, ptr %7, i64 0, i32 28
  %18 = load ptr, ptr %lev_jbegin.i, align 8, !tbaa !59
  %19 = load ptr, ptr @_ZZN5State31apply_boundary_conditions_ghostEvE4ntop, align 8
  %lev_jend.i = getelementptr inbounds %class.Mesh, ptr %7, i64 0, i32 29
  %20 = load ptr, ptr %lev_jend.i, align 8, !tbaa !59
  %21 = load ptr, ptr @_ZZN5State31apply_boundary_conditions_ghostEvE4nbot, align 8
  br label %for.body

for.cond.cleanup:                                 ; preds = %for.inc, %entry
  call void @llvm.lifetime.end.p0(i64 4, ptr nonnull %upperBound) #24
  call void @llvm.lifetime.end.p0(i64 4, ptr nonnull %lowerBound) #24
  ret void

for.body:                                         ; preds = %for.body.lr.ph, %for.inc
  %ic.0183 = phi i32 [ %5, %for.body.lr.ph ], [ %inc, %for.inc ]
  %idxprom.i = sext i32 %ic.0183 to i64
  %arrayidx.i = getelementptr inbounds i32, ptr %8, i64 %idxprom.i
  %22 = load i32, ptr %arrayidx.i, align 4, !tbaa !63
  %arrayidx3.i = getelementptr inbounds i32, ptr %9, i64 %idxprom.i
  %23 = load i32, ptr %arrayidx3.i, align 4, !tbaa !63
  %conv.i = sext i32 %23 to i64
  %add.ptr.i.i = getelementptr inbounds i32, ptr %10, i64 %conv.i
  %24 = load i32, ptr %add.ptr.i.i, align 4, !tbaa !63
  %cmp.i = icmp slt i32 %22, %24
  br i1 %cmp.i, label %if.then, label %if.end26

if.then:                                          ; preds = %for.body
  %idxprom = zext i32 %ic.0183 to i64
  %arrayidx = getelementptr inbounds i32, ptr %11, i64 %idxprom
  %25 = load i32, ptr %arrayidx, align 4, !tbaa !63
  %26 = load i64, ptr %ncells2, align 8, !tbaa !58
  %conv = trunc i64 %26 to i32
  %cmp9.not = icmp slt i32 %25, %conv
  br i1 %cmp9.not, label %if.end26, label %if.then10

if.then10:                                        ; preds = %if.then
  %idxprom11 = sext i32 %25 to i64
  %arrayidx12 = getelementptr inbounds double, ptr %12, i64 %idxprom11
  %27 = load double, ptr %arrayidx12, align 8, !tbaa !70
  %arrayidx15 = getelementptr inbounds double, ptr %12, i64 %idxprom
  store double %27, ptr %arrayidx15, align 8, !tbaa !70
  %arrayidx17 = getelementptr inbounds double, ptr %13, i64 %idxprom11
  %28 = load double, ptr %arrayidx17, align 8, !tbaa !70
  %fneg = fneg double %28
  %arrayidx20 = getelementptr inbounds double, ptr %13, i64 %idxprom
  store double %fneg, ptr %arrayidx20, align 8, !tbaa !70
  %arrayidx22 = getelementptr inbounds double, ptr %14, i64 %idxprom11
  %29 = load double, ptr %arrayidx22, align 8, !tbaa !70
  %arrayidx25 = getelementptr inbounds double, ptr %14, i64 %idxprom
  store double %29, ptr %arrayidx25, align 8, !tbaa !70
  br label %if.end26

if.end26:                                         ; preds = %if.then, %if.then10, %for.body
  %add.ptr.i.i162 = getelementptr inbounds i32, ptr %15, i64 %conv.i
  %30 = load i32, ptr %add.ptr.i.i162, align 4, !tbaa !63
  %cmp.i163 = icmp sgt i32 %22, %30
  br i1 %cmp.i163, label %if.then30, label %if.end56

if.then30:                                        ; preds = %if.end26
  %idxprom31 = zext i32 %ic.0183 to i64
  %arrayidx32 = getelementptr inbounds i32, ptr %16, i64 %idxprom31
  %31 = load i32, ptr %arrayidx32, align 4, !tbaa !63
  %32 = load i64, ptr %ncells2, align 8, !tbaa !58
  %conv33 = trunc i64 %32 to i32
  %cmp34.not = icmp slt i32 %31, %conv33
  br i1 %cmp34.not, label %if.end56, label %if.then35

if.then35:                                        ; preds = %if.then30
  %idxprom37 = sext i32 %31 to i64
  %arrayidx38 = getelementptr inbounds double, ptr %12, i64 %idxprom37
  %33 = load double, ptr %arrayidx38, align 8, !tbaa !70
  %arrayidx41 = getelementptr inbounds double, ptr %12, i64 %idxprom31
  store double %33, ptr %arrayidx41, align 8, !tbaa !70
  %arrayidx44 = getelementptr inbounds double, ptr %13, i64 %idxprom37
  %34 = load double, ptr %arrayidx44, align 8, !tbaa !70
  %fneg45 = fneg double %34
  %arrayidx48 = getelementptr inbounds double, ptr %13, i64 %idxprom31
  store double %fneg45, ptr %arrayidx48, align 8, !tbaa !70
  %arrayidx51 = getelementptr inbounds double, ptr %14, i64 %idxprom37
  %35 = load double, ptr %arrayidx51, align 8, !tbaa !70
  %arrayidx54 = getelementptr inbounds double, ptr %14, i64 %idxprom31
  store double %35, ptr %arrayidx54, align 8, !tbaa !70
  br label %if.end56

if.end56:                                         ; preds = %if.then30, %if.then35, %if.end26
  %arrayidx.i166 = getelementptr inbounds i32, ptr %17, i64 %idxprom.i
  %36 = load i32, ptr %arrayidx.i166, align 4, !tbaa !63
  %add.ptr.i.i170 = getelementptr inbounds i32, ptr %18, i64 %conv.i
  %37 = load i32, ptr %add.ptr.i.i170, align 4, !tbaa !63
  %cmp.i171 = icmp slt i32 %36, %37
  br i1 %cmp.i171, label %if.then60, label %if.end86

if.then60:                                        ; preds = %if.end56
  %idxprom61 = zext i32 %ic.0183 to i64
  %arrayidx62 = getelementptr inbounds i32, ptr %19, i64 %idxprom61
  %38 = load i32, ptr %arrayidx62, align 4, !tbaa !63
  %39 = load i64, ptr %ncells2, align 8, !tbaa !58
  %conv63 = trunc i64 %39 to i32
  %cmp64.not = icmp slt i32 %38, %conv63
  br i1 %cmp64.not, label %if.end86, label %if.then65

if.then65:                                        ; preds = %if.then60
  %idxprom67 = sext i32 %38 to i64
  %arrayidx68 = getelementptr inbounds double, ptr %12, i64 %idxprom67
  %40 = load double, ptr %arrayidx68, align 8, !tbaa !70
  %arrayidx71 = getelementptr inbounds double, ptr %12, i64 %idxprom61
  store double %40, ptr %arrayidx71, align 8, !tbaa !70
  %arrayidx74 = getelementptr inbounds double, ptr %13, i64 %idxprom67
  %41 = load double, ptr %arrayidx74, align 8, !tbaa !70
  %arrayidx77 = getelementptr inbounds double, ptr %13, i64 %idxprom61
  store double %41, ptr %arrayidx77, align 8, !tbaa !70
  %arrayidx80 = getelementptr inbounds double, ptr %14, i64 %idxprom67
  %42 = load double, ptr %arrayidx80, align 8, !tbaa !70
  %fneg81 = fneg double %42
  %arrayidx84 = getelementptr inbounds double, ptr %14, i64 %idxprom61
  store double %fneg81, ptr %arrayidx84, align 8, !tbaa !70
  br label %if.end86

if.end86:                                         ; preds = %if.then60, %if.then65, %if.end56
  %add.ptr.i.i179 = getelementptr inbounds i32, ptr %20, i64 %conv.i
  %43 = load i32, ptr %add.ptr.i.i179, align 4, !tbaa !63
  %cmp.i180 = icmp sgt i32 %36, %43
  br i1 %cmp.i180, label %if.then90, label %for.inc

if.then90:                                        ; preds = %if.end86
  %idxprom91 = zext i32 %ic.0183 to i64
  %arrayidx92 = getelementptr inbounds i32, ptr %21, i64 %idxprom91
  %44 = load i32, ptr %arrayidx92, align 4, !tbaa !63
  %45 = load i64, ptr %ncells2, align 8, !tbaa !58
  %conv93 = trunc i64 %45 to i32
  %cmp94.not = icmp slt i32 %44, %conv93
  br i1 %cmp94.not, label %for.inc, label %if.then95

if.then95:                                        ; preds = %if.then90
  %idxprom97 = sext i32 %44 to i64
  %arrayidx98 = getelementptr inbounds double, ptr %12, i64 %idxprom97
  %46 = load double, ptr %arrayidx98, align 8, !tbaa !70
  %arrayidx101 = getelementptr inbounds double, ptr %12, i64 %idxprom91
  store double %46, ptr %arrayidx101, align 8, !tbaa !70
  %arrayidx104 = getelementptr inbounds double, ptr %13, i64 %idxprom97
  %47 = load double, ptr %arrayidx104, align 8, !tbaa !70
  %arrayidx107 = getelementptr inbounds double, ptr %13, i64 %idxprom91
  store double %47, ptr %arrayidx107, align 8, !tbaa !70
  %arrayidx110 = getelementptr inbounds double, ptr %14, i64 %idxprom97
  %48 = load double, ptr %arrayidx110, align 8, !tbaa !70
  %fneg111 = fneg double %48
  %arrayidx114 = getelementptr inbounds double, ptr %14, i64 %idxprom91
  store double %fneg111, ptr %arrayidx114, align 8, !tbaa !70
  br label %for.inc

for.inc:                                          ; preds = %if.then90, %if.then95, %if.end86
  %inc = add nuw i32 %ic.0183, 1
  %exitcond.not = icmp eq i32 %inc, %6
  br i1 %exitcond.not, label %for.cond.cleanup, label %for.body, !llvm.loop !77
}

; Function Attrs: mustprogress uwtable
define dso_local void @_ZN5State25apply_boundary_conditionsEv(ptr nocapture noundef nonnull readonly align 8 dereferenceable(368) %this) local_unnamed_addr #2 align 2 {
entry:
  %lowerBound = alloca i32, align 4
  %upperBound = alloca i32, align 4
  %mesh = getelementptr inbounds %class.State, ptr %this, i64 0, i32 2
  %0 = load ptr, ptr %mesh, align 8, !tbaa !17
  %nlft4 = getelementptr inbounds %class.Mesh, ptr %0, i64 0, i32 69
  %1 = load ptr, ptr %nlft4, align 8, !tbaa !54
  %nrht6 = getelementptr inbounds %class.Mesh, ptr %0, i64 0, i32 70
  %2 = load ptr, ptr %nrht6, align 8, !tbaa !55
  %nbot8 = getelementptr inbounds %class.Mesh, ptr %0, i64 0, i32 71
  %3 = load ptr, ptr %nbot8, align 8, !tbaa !56
  %ntop10 = getelementptr inbounds %class.Mesh, ptr %0, i64 0, i32 72
  %4 = load ptr, ptr %ntop10, align 8, !tbaa !57
  call void @llvm.lifetime.start.p0(i64 4, ptr nonnull %lowerBound) #24
  call void @llvm.lifetime.start.p0(i64 4, ptr nonnull %upperBound) #24
  call void @_ZN4Mesh10get_boundsERiS0_(ptr noundef nonnull align 8 dereferenceable(2288) %0, ptr noundef nonnull align 4 dereferenceable(4) %lowerBound, ptr noundef nonnull align 4 dereferenceable(4) %upperBound)
  %5 = load i32, ptr %lowerBound, align 4, !tbaa !63
  %6 = load i32, ptr %upperBound, align 4, !tbaa !63
  %cmp161 = icmp ult i32 %5, %6
  br i1 %cmp161, label %for.body.lr.ph, label %for.cond.cleanup

for.body.lr.ph:                                   ; preds = %entry
  %7 = load ptr, ptr %mesh, align 8, !tbaa !17
  %i.i = getelementptr inbounds %class.Mesh, ptr %7, i64 0, i32 64
  %8 = load ptr, ptr %i.i, align 8, !tbaa !50
  %lev_ibegin.i = getelementptr inbounds %class.Mesh, ptr %7, i64 0, i32 26
  %level.i = getelementptr inbounds %class.Mesh, ptr %7, i64 0, i32 67
  %9 = load ptr, ptr %level.i, align 8, !tbaa !52
  %10 = load ptr, ptr %lev_ibegin.i, align 8, !tbaa !59
  %H = getelementptr inbounds %class.State, ptr %this, i64 0, i32 3
  %11 = load ptr, ptr %H, align 8
  %U = getelementptr inbounds %class.State, ptr %this, i64 0, i32 4
  %12 = load ptr, ptr %U, align 8
  %V = getelementptr inbounds %class.State, ptr %this, i64 0, i32 5
  %13 = load ptr, ptr %V, align 8
  %lev_iend.i = getelementptr inbounds %class.Mesh, ptr %7, i64 0, i32 27
  %14 = load ptr, ptr %lev_iend.i, align 8, !tbaa !59
  %j.i = getelementptr inbounds %class.Mesh, ptr %7, i64 0, i32 65
  %15 = load ptr, ptr %j.i, align 8, !tbaa !51
  %lev_jbegin.i = getelementptr inbounds %class.Mesh, ptr %7, i64 0, i32 28
  %16 = load ptr, ptr %lev_jbegin.i, align 8, !tbaa !59
  %lev_jend.i = getelementptr inbounds %class.Mesh, ptr %7, i64 0, i32 29
  %17 = load ptr, ptr %lev_jend.i, align 8, !tbaa !59
  br label %for.body

for.cond.cleanup:                                 ; preds = %for.inc, %entry
  call void @llvm.lifetime.end.p0(i64 4, ptr nonnull %upperBound) #24
  call void @llvm.lifetime.end.p0(i64 4, ptr nonnull %lowerBound) #24
  ret void

for.body:                                         ; preds = %for.body.lr.ph, %for.inc
  %ic.0162 = phi i32 [ %5, %for.body.lr.ph ], [ %inc, %for.inc ]
  %idxprom.i = sext i32 %ic.0162 to i64
  %arrayidx.i = getelementptr inbounds i32, ptr %8, i64 %idxprom.i
  %18 = load i32, ptr %arrayidx.i, align 4, !tbaa !63
  %arrayidx3.i = getelementptr inbounds i32, ptr %9, i64 %idxprom.i
  %19 = load i32, ptr %arrayidx3.i, align 4, !tbaa !63
  %conv.i = sext i32 %19 to i64
  %add.ptr.i.i = getelementptr inbounds i32, ptr %10, i64 %conv.i
  %20 = load i32, ptr %add.ptr.i.i, align 4, !tbaa !63
  %cmp.i = icmp slt i32 %18, %20
  br i1 %cmp.i, label %if.then, label %if.end

if.then:                                          ; preds = %for.body
  %idxprom = zext i32 %ic.0162 to i64
  %arrayidx = getelementptr inbounds i32, ptr %2, i64 %idxprom
  %21 = load i32, ptr %arrayidx, align 4, !tbaa !63
  %idxprom13 = sext i32 %21 to i64
  %arrayidx14 = getelementptr inbounds double, ptr %11, i64 %idxprom13
  %22 = load double, ptr %arrayidx14, align 8, !tbaa !70
  %arrayidx17 = getelementptr inbounds double, ptr %11, i64 %idxprom
  store double %22, ptr %arrayidx17, align 8, !tbaa !70
  %arrayidx19 = getelementptr inbounds double, ptr %12, i64 %idxprom13
  %23 = load double, ptr %arrayidx19, align 8, !tbaa !70
  %fneg = fneg double %23
  %arrayidx22 = getelementptr inbounds double, ptr %12, i64 %idxprom
  store double %fneg, ptr %arrayidx22, align 8, !tbaa !70
  %arrayidx24 = getelementptr inbounds double, ptr %13, i64 %idxprom13
  %24 = load double, ptr %arrayidx24, align 8, !tbaa !70
  %arrayidx27 = getelementptr inbounds double, ptr %13, i64 %idxprom
  store double %24, ptr %arrayidx27, align 8, !tbaa !70
  br label %if.end

if.end:                                           ; preds = %if.then, %for.body
  %add.ptr.i.i141 = getelementptr inbounds i32, ptr %14, i64 %conv.i
  %25 = load i32, ptr %add.ptr.i.i141, align 4, !tbaa !63
  %cmp.i142 = icmp sgt i32 %18, %25
  br i1 %cmp.i142, label %if.then31, label %if.end53

if.then31:                                        ; preds = %if.end
  %idxprom32 = zext i32 %ic.0162 to i64
  %arrayidx33 = getelementptr inbounds i32, ptr %1, i64 %idxprom32
  %26 = load i32, ptr %arrayidx33, align 4, !tbaa !63
  %idxprom35 = sext i32 %26 to i64
  %arrayidx36 = getelementptr inbounds double, ptr %11, i64 %idxprom35
  %27 = load double, ptr %arrayidx36, align 8, !tbaa !70
  %arrayidx39 = getelementptr inbounds double, ptr %11, i64 %idxprom32
  store double %27, ptr %arrayidx39, align 8, !tbaa !70
  %arrayidx42 = getelementptr inbounds double, ptr %12, i64 %idxprom35
  %28 = load double, ptr %arrayidx42, align 8, !tbaa !70
  %fneg43 = fneg double %28
  %arrayidx46 = getelementptr inbounds double, ptr %12, i64 %idxprom32
  store double %fneg43, ptr %arrayidx46, align 8, !tbaa !70
  %arrayidx49 = getelementptr inbounds double, ptr %13, i64 %idxprom35
  %29 = load double, ptr %arrayidx49, align 8, !tbaa !70
  %arrayidx52 = getelementptr inbounds double, ptr %13, i64 %idxprom32
  store double %29, ptr %arrayidx52, align 8, !tbaa !70
  br label %if.end53

if.end53:                                         ; preds = %if.then31, %if.end
  %arrayidx.i145 = getelementptr inbounds i32, ptr %15, i64 %idxprom.i
  %30 = load i32, ptr %arrayidx.i145, align 4, !tbaa !63
  %add.ptr.i.i149 = getelementptr inbounds i32, ptr %16, i64 %conv.i
  %31 = load i32, ptr %add.ptr.i.i149, align 4, !tbaa !63
  %cmp.i150 = icmp slt i32 %30, %31
  br i1 %cmp.i150, label %if.then57, label %if.end79

if.then57:                                        ; preds = %if.end53
  %idxprom58 = zext i32 %ic.0162 to i64
  %arrayidx59 = getelementptr inbounds i32, ptr %4, i64 %idxprom58
  %32 = load i32, ptr %arrayidx59, align 4, !tbaa !63
  %idxprom61 = sext i32 %32 to i64
  %arrayidx62 = getelementptr inbounds double, ptr %11, i64 %idxprom61
  %33 = load double, ptr %arrayidx62, align 8, !tbaa !70
  %arrayidx65 = getelementptr inbounds double, ptr %11, i64 %idxprom58
  store double %33, ptr %arrayidx65, align 8, !tbaa !70
  %arrayidx68 = getelementptr inbounds double, ptr %12, i64 %idxprom61
  %34 = load double, ptr %arrayidx68, align 8, !tbaa !70
  %arrayidx71 = getelementptr inbounds double, ptr %12, i64 %idxprom58
  store double %34, ptr %arrayidx71, align 8, !tbaa !70
  %arrayidx74 = getelementptr inbounds double, ptr %13, i64 %idxprom61
  %35 = load double, ptr %arrayidx74, align 8, !tbaa !70
  %fneg75 = fneg double %35
  %arrayidx78 = getelementptr inbounds double, ptr %13, i64 %idxprom58
  store double %fneg75, ptr %arrayidx78, align 8, !tbaa !70
  br label %if.end79

if.end79:                                         ; preds = %if.then57, %if.end53
  %add.ptr.i.i158 = getelementptr inbounds i32, ptr %17, i64 %conv.i
  %36 = load i32, ptr %add.ptr.i.i158, align 4, !tbaa !63
  %cmp.i159 = icmp sgt i32 %30, %36
  br i1 %cmp.i159, label %if.then83, label %for.inc

if.then83:                                        ; preds = %if.end79
  %idxprom84 = zext i32 %ic.0162 to i64
  %arrayidx85 = getelementptr inbounds i32, ptr %3, i64 %idxprom84
  %37 = load i32, ptr %arrayidx85, align 4, !tbaa !63
  %idxprom87 = sext i32 %37 to i64
  %arrayidx88 = getelementptr inbounds double, ptr %11, i64 %idxprom87
  %38 = load double, ptr %arrayidx88, align 8, !tbaa !70
  %arrayidx91 = getelementptr inbounds double, ptr %11, i64 %idxprom84
  store double %38, ptr %arrayidx91, align 8, !tbaa !70
  %arrayidx94 = getelementptr inbounds double, ptr %12, i64 %idxprom87
  %39 = load double, ptr %arrayidx94, align 8, !tbaa !70
  %arrayidx97 = getelementptr inbounds double, ptr %12, i64 %idxprom84
  store double %39, ptr %arrayidx97, align 8, !tbaa !70
  %arrayidx100 = getelementptr inbounds double, ptr %13, i64 %idxprom87
  %40 = load double, ptr %arrayidx100, align 8, !tbaa !70
  %fneg101 = fneg double %40
  %arrayidx104 = getelementptr inbounds double, ptr %13, i64 %idxprom84
  store double %fneg101, ptr %arrayidx104, align 8, !tbaa !70
  br label %for.inc

for.inc:                                          ; preds = %if.end79, %if.then83
  %inc = add nuw i32 %ic.0162, 1
  %exitcond.not = icmp eq i32 %inc, %6
  br i1 %exitcond.not, label %for.cond.cleanup, label %for.body, !llvm.loop !78
}

; Function Attrs: mustprogress uwtable
define dso_local void @_ZN5State21remove_boundary_cellsEv(ptr noundef nonnull align 8 dereferenceable(368) %this) local_unnamed_addr #2 align 2 personality ptr @__gxx_personality_v0 {
entry:
  %lowerBound = alloca i32, align 4
  %upperBound = alloca i32, align 4
  %mesh = getelementptr inbounds %class.State, ptr %this, i64 0, i32 2
  %0 = load ptr, ptr %mesh, align 8, !tbaa !17
  %have_boundary = getelementptr inbounds %class.Mesh, ptr %0, i64 0, i32 37
  %1 = load i32, ptr %have_boundary, align 4, !tbaa !79
  %tobool.not = icmp eq i32 %1, 0
  br i1 %tobool.not, label %if.then, label %if.end153

if.then:                                          ; preds = %entry
  %ncells3 = getelementptr inbounds %class.Mesh, ptr %0, i64 0, i32 45
  %2 = load i32, ptr @save_ncells, align 4, !tbaa !63
  %conv = sext i32 %2 to i64
  store i64 %conv, ptr %ncells3, align 8, !tbaa !58
  %H = getelementptr inbounds %class.State, ptr %this, i64 0, i32 3
  %3 = load ptr, ptr %H, align 8, !tbaa !47
  %call = tail call noundef ptr @_ZN10MallocPlus14memory_reallocEmPv(ptr noundef nonnull align 8 dereferenceable(96) %this, i64 noundef %conv, ptr noundef %3)
  store ptr %call, ptr %H, align 8, !tbaa !47
  %4 = load i32, ptr @save_ncells, align 4, !tbaa !63
  %conv7 = sext i32 %4 to i64
  %U = getelementptr inbounds %class.State, ptr %this, i64 0, i32 4
  %5 = load ptr, ptr %U, align 8, !tbaa !48
  %call8 = tail call noundef ptr @_ZN10MallocPlus14memory_reallocEmPv(ptr noundef nonnull align 8 dereferenceable(96) %this, i64 noundef %conv7, ptr noundef %5)
  store ptr %call8, ptr %U, align 8, !tbaa !48
  %6 = load i32, ptr @save_ncells, align 4, !tbaa !63
  %conv11 = sext i32 %6 to i64
  %V = getelementptr inbounds %class.State, ptr %this, i64 0, i32 5
  %7 = load ptr, ptr %V, align 8, !tbaa !49
  %call12 = tail call noundef ptr @_ZN10MallocPlus14memory_reallocEmPv(ptr noundef nonnull align 8 dereferenceable(96) %this, i64 noundef %conv11, ptr noundef %7)
  store ptr %call12, ptr %V, align 8, !tbaa !49
  %8 = load ptr, ptr %mesh, align 8, !tbaa !17
  %mesh_memory = getelementptr inbounds %class.Mesh, ptr %8, i64 0, i32 1
  %9 = load i32, ptr @save_ncells, align 4, !tbaa !63
  %conv15 = sext i32 %9 to i64
  %i = getelementptr inbounds %class.Mesh, ptr %8, i64 0, i32 64
  %10 = load ptr, ptr %i, align 8, !tbaa !50
  %call17 = tail call noundef ptr @_ZN10MallocPlus14memory_reallocEmPv(ptr noundef nonnull align 8 dereferenceable(96) %mesh_memory, i64 noundef %conv15, ptr noundef %10)
  %11 = load ptr, ptr %mesh, align 8, !tbaa !17
  %i19 = getelementptr inbounds %class.Mesh, ptr %11, i64 0, i32 64
  store ptr %call17, ptr %i19, align 8, !tbaa !50
  %mesh_memory21 = getelementptr inbounds %class.Mesh, ptr %11, i64 0, i32 1
  %12 = load i32, ptr @save_ncells, align 4, !tbaa !63
  %conv22 = sext i32 %12 to i64
  %j = getelementptr inbounds %class.Mesh, ptr %11, i64 0, i32 65
  %13 = load ptr, ptr %j, align 8, !tbaa !51
  %call24 = tail call noundef ptr @_ZN10MallocPlus14memory_reallocEmPv(ptr noundef nonnull align 8 dereferenceable(96) %mesh_memory21, i64 noundef %conv22, ptr noundef %13)
  %14 = load ptr, ptr %mesh, align 8, !tbaa !17
  %j26 = getelementptr inbounds %class.Mesh, ptr %14, i64 0, i32 65
  store ptr %call24, ptr %j26, align 8, !tbaa !51
  %mesh_memory28 = getelementptr inbounds %class.Mesh, ptr %14, i64 0, i32 1
  %15 = load i32, ptr @save_ncells, align 4, !tbaa !63
  %conv29 = sext i32 %15 to i64
  %level = getelementptr inbounds %class.Mesh, ptr %14, i64 0, i32 67
  %16 = load ptr, ptr %level, align 8, !tbaa !52
  %call31 = tail call noundef ptr @_ZN10MallocPlus14memory_reallocEmPv(ptr noundef nonnull align 8 dereferenceable(96) %mesh_memory28, i64 noundef %conv29, ptr noundef %16)
  %17 = load ptr, ptr %mesh, align 8, !tbaa !17
  %level33 = getelementptr inbounds %class.Mesh, ptr %17, i64 0, i32 67
  store ptr %call31, ptr %level33, align 8, !tbaa !52
  %mesh_memory35 = getelementptr inbounds %class.Mesh, ptr %17, i64 0, i32 1
  %18 = load i32, ptr @save_ncells, align 4, !tbaa !63
  %conv36 = sext i32 %18 to i64
  %celltype = getelementptr inbounds %class.Mesh, ptr %17, i64 0, i32 68
  %19 = load ptr, ptr %celltype, align 8, !tbaa !53
  %call38 = tail call noundef ptr @_ZN10MallocPlus14memory_reallocEmPv(ptr noundef nonnull align 8 dereferenceable(96) %mesh_memory35, i64 noundef %conv36, ptr noundef %19)
  %20 = load ptr, ptr %mesh, align 8, !tbaa !17
  %celltype40 = getelementptr inbounds %class.Mesh, ptr %20, i64 0, i32 68
  store ptr %call38, ptr %celltype40, align 8, !tbaa !53
  %mesh_memory42 = getelementptr inbounds %class.Mesh, ptr %20, i64 0, i32 1
  %21 = load i32, ptr @save_ncells, align 4, !tbaa !63
  %conv43 = sext i32 %21 to i64
  %nlft = getelementptr inbounds %class.Mesh, ptr %20, i64 0, i32 69
  %22 = load ptr, ptr %nlft, align 8, !tbaa !54
  %call45 = tail call noundef ptr @_ZN10MallocPlus14memory_reallocEmPv(ptr noundef nonnull align 8 dereferenceable(96) %mesh_memory42, i64 noundef %conv43, ptr noundef %22)
  %23 = load ptr, ptr %mesh, align 8, !tbaa !17
  %nlft47 = getelementptr inbounds %class.Mesh, ptr %23, i64 0, i32 69
  store ptr %call45, ptr %nlft47, align 8, !tbaa !54
  %mesh_memory49 = getelementptr inbounds %class.Mesh, ptr %23, i64 0, i32 1
  %24 = load i32, ptr @save_ncells, align 4, !tbaa !63
  %conv50 = sext i32 %24 to i64
  %nrht = getelementptr inbounds %class.Mesh, ptr %23, i64 0, i32 70
  %25 = load ptr, ptr %nrht, align 8, !tbaa !55
  %call52 = tail call noundef ptr @_ZN10MallocPlus14memory_reallocEmPv(ptr noundef nonnull align 8 dereferenceable(96) %mesh_memory49, i64 noundef %conv50, ptr noundef %25)
  %26 = load ptr, ptr %mesh, align 8, !tbaa !17
  %nrht54 = getelementptr inbounds %class.Mesh, ptr %26, i64 0, i32 70
  store ptr %call52, ptr %nrht54, align 8, !tbaa !55
  %mesh_memory56 = getelementptr inbounds %class.Mesh, ptr %26, i64 0, i32 1
  %27 = load i32, ptr @save_ncells, align 4, !tbaa !63
  %conv57 = sext i32 %27 to i64
  %nbot = getelementptr inbounds %class.Mesh, ptr %26, i64 0, i32 71
  %28 = load ptr, ptr %nbot, align 8, !tbaa !56
  %call59 = tail call noundef ptr @_ZN10MallocPlus14memory_reallocEmPv(ptr noundef nonnull align 8 dereferenceable(96) %mesh_memory56, i64 noundef %conv57, ptr noundef %28)
  %29 = load ptr, ptr %mesh, align 8, !tbaa !17
  %nbot61 = getelementptr inbounds %class.Mesh, ptr %29, i64 0, i32 71
  store ptr %call59, ptr %nbot61, align 8, !tbaa !56
  %mesh_memory63 = getelementptr inbounds %class.Mesh, ptr %29, i64 0, i32 1
  %30 = load i32, ptr @save_ncells, align 4, !tbaa !63
  %conv64 = sext i32 %30 to i64
  %ntop = getelementptr inbounds %class.Mesh, ptr %29, i64 0, i32 72
  %31 = load ptr, ptr %ntop, align 8, !tbaa !57
  %call66 = tail call noundef ptr @_ZN10MallocPlus14memory_reallocEmPv(ptr noundef nonnull align 8 dereferenceable(96) %mesh_memory63, i64 noundef %conv64, ptr noundef %31)
  %32 = load ptr, ptr %mesh, align 8, !tbaa !17
  %ntop68 = getelementptr inbounds %class.Mesh, ptr %32, i64 0, i32 72
  store ptr %call66, ptr %ntop68, align 8, !tbaa !57
  %index = getelementptr inbounds %class.Mesh, ptr %32, i64 0, i32 63
  %33 = load i32, ptr @save_ncells, align 4, !tbaa !63
  %conv70 = sext i32 %33 to i64
  %_M_finish.i.i = getelementptr inbounds %class.Mesh, ptr %32, i64 0, i32 63, i32 0, i32 0, i32 0, i32 1
  %34 = load ptr, ptr %_M_finish.i.i, align 8, !tbaa !60
  %35 = load ptr, ptr %index, align 8, !tbaa !59
  %sub.ptr.lhs.cast.i.i = ptrtoint ptr %34 to i64
  %sub.ptr.rhs.cast.i.i = ptrtoint ptr %35 to i64
  %sub.ptr.sub.i.i = sub i64 %sub.ptr.lhs.cast.i.i, %sub.ptr.rhs.cast.i.i
  %sub.ptr.div.i.i = ashr exact i64 %sub.ptr.sub.i.i, 2
  %cmp.i = icmp ult i64 %sub.ptr.div.i.i, %conv70
  br i1 %cmp.i, label %if.then.i, label %if.else.i

if.then.i:                                        ; preds = %if.then
  %sub.i = sub nsw i64 %conv70, %sub.ptr.div.i.i
  tail call void @_ZNSt6vectorIiSaIiEE17_M_default_appendEm(ptr noundef nonnull align 8 dereferenceable(24) %index, i64 noundef %sub.i)
  %.pre = load ptr, ptr %mesh, align 8, !tbaa !17
  %.pre237 = load i32, ptr @save_ncells, align 4, !tbaa !63
  %.pre253 = sext i32 %.pre237 to i64
  br label %_ZNSt6vectorIiSaIiEE6resizeEm.exit

if.else.i:                                        ; preds = %if.then
  %cmp4.i = icmp ugt i64 %sub.ptr.div.i.i, %conv70
  br i1 %cmp4.i, label %if.then5.i, label %_ZNSt6vectorIiSaIiEE6resizeEm.exit

if.then5.i:                                       ; preds = %if.else.i
  %add.ptr.i = getelementptr inbounds i32, ptr %35, i64 %conv70
  %tobool.not.i.i = icmp eq ptr %34, %add.ptr.i
  br i1 %tobool.not.i.i, label %_ZNSt6vectorIiSaIiEE6resizeEm.exit, label %invoke.cont.i.i

invoke.cont.i.i:                                  ; preds = %if.then5.i
  store ptr %add.ptr.i, ptr %_M_finish.i.i, align 8, !tbaa !60
  br label %_ZNSt6vectorIiSaIiEE6resizeEm.exit

_ZNSt6vectorIiSaIiEE6resizeEm.exit:               ; preds = %if.then.i, %if.else.i, %if.then5.i, %invoke.cont.i.i
  %conv72.pre-phi = phi i64 [ %.pre253, %if.then.i ], [ %conv70, %if.else.i ], [ %conv70, %if.then5.i ], [ %conv70, %invoke.cont.i.i ]
  %36 = phi ptr [ %.pre, %if.then.i ], [ %32, %if.else.i ], [ %32, %if.then5.i ], [ %32, %invoke.cont.i.i ]
  %x = getelementptr inbounds %class.Mesh, ptr %36, i64 0, i32 75
  %_M_finish.i.i171 = getelementptr inbounds %class.Mesh, ptr %36, i64 0, i32 75, i32 0, i32 0, i32 0, i32 1
  %37 = load ptr, ptr %_M_finish.i.i171, align 8, !tbaa !61
  %38 = load ptr, ptr %x, align 8, !tbaa !62
  %sub.ptr.lhs.cast.i.i172 = ptrtoint ptr %37 to i64
  %sub.ptr.rhs.cast.i.i173 = ptrtoint ptr %38 to i64
  %sub.ptr.sub.i.i174 = sub i64 %sub.ptr.lhs.cast.i.i172, %sub.ptr.rhs.cast.i.i173
  %sub.ptr.div.i.i175 = ashr exact i64 %sub.ptr.sub.i.i174, 3
  %cmp.i176 = icmp ugt i64 %conv72.pre-phi, %sub.ptr.div.i.i175
  br i1 %cmp.i176, label %if.then.i178, label %if.else.i180

if.then.i178:                                     ; preds = %_ZNSt6vectorIiSaIiEE6resizeEm.exit
  %sub.i177 = sub nsw i64 %conv72.pre-phi, %sub.ptr.div.i.i175
  tail call void @_ZNSt6vectorIdSaIdEE17_M_default_appendEm(ptr noundef nonnull align 8 dereferenceable(24) %x, i64 noundef %sub.i177)
  %.pre238 = load ptr, ptr %mesh, align 8, !tbaa !17
  %.pre239 = load i32, ptr @save_ncells, align 4, !tbaa !63
  %.pre254 = sext i32 %.pre239 to i64
  br label %_ZNSt6vectorIdSaIdEE6resizeEm.exit

if.else.i180:                                     ; preds = %_ZNSt6vectorIiSaIiEE6resizeEm.exit
  %cmp4.i179 = icmp ult i64 %conv72.pre-phi, %sub.ptr.div.i.i175
  br i1 %cmp4.i179, label %if.then5.i183, label %_ZNSt6vectorIdSaIdEE6resizeEm.exit

if.then5.i183:                                    ; preds = %if.else.i180
  %add.ptr.i181 = getelementptr inbounds double, ptr %38, i64 %conv72.pre-phi
  %tobool.not.i.i182 = icmp eq ptr %37, %add.ptr.i181
  br i1 %tobool.not.i.i182, label %_ZNSt6vectorIdSaIdEE6resizeEm.exit, label %invoke.cont.i.i184

invoke.cont.i.i184:                               ; preds = %if.then5.i183
  store ptr %add.ptr.i181, ptr %_M_finish.i.i171, align 8, !tbaa !61
  br label %_ZNSt6vectorIdSaIdEE6resizeEm.exit

_ZNSt6vectorIdSaIdEE6resizeEm.exit:               ; preds = %if.then.i178, %if.else.i180, %if.then5.i183, %invoke.cont.i.i184
  %conv74.pre-phi = phi i64 [ %.pre254, %if.then.i178 ], [ %conv72.pre-phi, %if.else.i180 ], [ %conv72.pre-phi, %if.then5.i183 ], [ %conv72.pre-phi, %invoke.cont.i.i184 ]
  %39 = phi ptr [ %.pre238, %if.then.i178 ], [ %36, %if.else.i180 ], [ %36, %if.then5.i183 ], [ %36, %invoke.cont.i.i184 ]
  %dx = getelementptr inbounds %class.Mesh, ptr %39, i64 0, i32 76
  %_M_finish.i.i185 = getelementptr inbounds %class.Mesh, ptr %39, i64 0, i32 76, i32 0, i32 0, i32 0, i32 1
  %40 = load ptr, ptr %_M_finish.i.i185, align 8, !tbaa !61
  %41 = load ptr, ptr %dx, align 8, !tbaa !62
  %sub.ptr.lhs.cast.i.i186 = ptrtoint ptr %40 to i64
  %sub.ptr.rhs.cast.i.i187 = ptrtoint ptr %41 to i64
  %sub.ptr.sub.i.i188 = sub i64 %sub.ptr.lhs.cast.i.i186, %sub.ptr.rhs.cast.i.i187
  %sub.ptr.div.i.i189 = ashr exact i64 %sub.ptr.sub.i.i188, 3
  %cmp.i190 = icmp ugt i64 %conv74.pre-phi, %sub.ptr.div.i.i189
  br i1 %cmp.i190, label %if.then.i192, label %if.else.i194

if.then.i192:                                     ; preds = %_ZNSt6vectorIdSaIdEE6resizeEm.exit
  %sub.i191 = sub nsw i64 %conv74.pre-phi, %sub.ptr.div.i.i189
  tail call void @_ZNSt6vectorIdSaIdEE17_M_default_appendEm(ptr noundef nonnull align 8 dereferenceable(24) %dx, i64 noundef %sub.i191)
  %.pre240 = load ptr, ptr %mesh, align 8, !tbaa !17
  %.pre241 = load i32, ptr @save_ncells, align 4, !tbaa !63
  %.pre255 = sext i32 %.pre241 to i64
  br label %_ZNSt6vectorIdSaIdEE6resizeEm.exit199

if.else.i194:                                     ; preds = %_ZNSt6vectorIdSaIdEE6resizeEm.exit
  %cmp4.i193 = icmp ult i64 %conv74.pre-phi, %sub.ptr.div.i.i189
  br i1 %cmp4.i193, label %if.then5.i197, label %_ZNSt6vectorIdSaIdEE6resizeEm.exit199

if.then5.i197:                                    ; preds = %if.else.i194
  %add.ptr.i195 = getelementptr inbounds double, ptr %41, i64 %conv74.pre-phi
  %tobool.not.i.i196 = icmp eq ptr %40, %add.ptr.i195
  br i1 %tobool.not.i.i196, label %_ZNSt6vectorIdSaIdEE6resizeEm.exit199, label %invoke.cont.i.i198

invoke.cont.i.i198:                               ; preds = %if.then5.i197
  store ptr %add.ptr.i195, ptr %_M_finish.i.i185, align 8, !tbaa !61
  br label %_ZNSt6vectorIdSaIdEE6resizeEm.exit199

_ZNSt6vectorIdSaIdEE6resizeEm.exit199:            ; preds = %if.then.i192, %if.else.i194, %if.then5.i197, %invoke.cont.i.i198
  %conv76.pre-phi = phi i64 [ %.pre255, %if.then.i192 ], [ %conv74.pre-phi, %if.else.i194 ], [ %conv74.pre-phi, %if.then5.i197 ], [ %conv74.pre-phi, %invoke.cont.i.i198 ]
  %42 = phi ptr [ %.pre240, %if.then.i192 ], [ %39, %if.else.i194 ], [ %39, %if.then5.i197 ], [ %39, %invoke.cont.i.i198 ]
  %y = getelementptr inbounds %class.Mesh, ptr %42, i64 0, i32 77
  %_M_finish.i.i200 = getelementptr inbounds %class.Mesh, ptr %42, i64 0, i32 77, i32 0, i32 0, i32 0, i32 1
  %43 = load ptr, ptr %_M_finish.i.i200, align 8, !tbaa !61
  %44 = load ptr, ptr %y, align 8, !tbaa !62
  %sub.ptr.lhs.cast.i.i201 = ptrtoint ptr %43 to i64
  %sub.ptr.rhs.cast.i.i202 = ptrtoint ptr %44 to i64
  %sub.ptr.sub.i.i203 = sub i64 %sub.ptr.lhs.cast.i.i201, %sub.ptr.rhs.cast.i.i202
  %sub.ptr.div.i.i204 = ashr exact i64 %sub.ptr.sub.i.i203, 3
  %cmp.i205 = icmp ugt i64 %conv76.pre-phi, %sub.ptr.div.i.i204
  br i1 %cmp.i205, label %if.then.i207, label %if.else.i209

if.then.i207:                                     ; preds = %_ZNSt6vectorIdSaIdEE6resizeEm.exit199
  %sub.i206 = sub nsw i64 %conv76.pre-phi, %sub.ptr.div.i.i204
  tail call void @_ZNSt6vectorIdSaIdEE17_M_default_appendEm(ptr noundef nonnull align 8 dereferenceable(24) %y, i64 noundef %sub.i206)
  %.pre242 = load ptr, ptr %mesh, align 8, !tbaa !17
  %.pre243 = load i32, ptr @save_ncells, align 4, !tbaa !63
  %.pre256 = sext i32 %.pre243 to i64
  br label %_ZNSt6vectorIdSaIdEE6resizeEm.exit214

if.else.i209:                                     ; preds = %_ZNSt6vectorIdSaIdEE6resizeEm.exit199
  %cmp4.i208 = icmp ult i64 %conv76.pre-phi, %sub.ptr.div.i.i204
  br i1 %cmp4.i208, label %if.then5.i212, label %_ZNSt6vectorIdSaIdEE6resizeEm.exit214

if.then5.i212:                                    ; preds = %if.else.i209
  %add.ptr.i210 = getelementptr inbounds double, ptr %44, i64 %conv76.pre-phi
  %tobool.not.i.i211 = icmp eq ptr %43, %add.ptr.i210
  br i1 %tobool.not.i.i211, label %_ZNSt6vectorIdSaIdEE6resizeEm.exit214, label %invoke.cont.i.i213

invoke.cont.i.i213:                               ; preds = %if.then5.i212
  store ptr %add.ptr.i210, ptr %_M_finish.i.i200, align 8, !tbaa !61
  br label %_ZNSt6vectorIdSaIdEE6resizeEm.exit214

_ZNSt6vectorIdSaIdEE6resizeEm.exit214:            ; preds = %if.then.i207, %if.else.i209, %if.then5.i212, %invoke.cont.i.i213
  %conv78.pre-phi = phi i64 [ %.pre256, %if.then.i207 ], [ %conv76.pre-phi, %if.else.i209 ], [ %conv76.pre-phi, %if.then5.i212 ], [ %conv76.pre-phi, %invoke.cont.i.i213 ]
  %45 = phi ptr [ %.pre242, %if.then.i207 ], [ %42, %if.else.i209 ], [ %42, %if.then5.i212 ], [ %42, %invoke.cont.i.i213 ]
  %dy = getelementptr inbounds %class.Mesh, ptr %45, i64 0, i32 78
  %_M_finish.i.i215 = getelementptr inbounds %class.Mesh, ptr %45, i64 0, i32 78, i32 0, i32 0, i32 0, i32 1
  %46 = load ptr, ptr %_M_finish.i.i215, align 8, !tbaa !61
  %47 = load ptr, ptr %dy, align 8, !tbaa !62
  %sub.ptr.lhs.cast.i.i216 = ptrtoint ptr %46 to i64
  %sub.ptr.rhs.cast.i.i217 = ptrtoint ptr %47 to i64
  %sub.ptr.sub.i.i218 = sub i64 %sub.ptr.lhs.cast.i.i216, %sub.ptr.rhs.cast.i.i217
  %sub.ptr.div.i.i219 = ashr exact i64 %sub.ptr.sub.i.i218, 3
  %cmp.i220 = icmp ugt i64 %conv78.pre-phi, %sub.ptr.div.i.i219
  br i1 %cmp.i220, label %if.then.i222, label %if.else.i224

if.then.i222:                                     ; preds = %_ZNSt6vectorIdSaIdEE6resizeEm.exit214
  %sub.i221 = sub nsw i64 %conv78.pre-phi, %sub.ptr.div.i.i219
  tail call void @_ZNSt6vectorIdSaIdEE17_M_default_appendEm(ptr noundef nonnull align 8 dereferenceable(24) %dy, i64 noundef %sub.i221)
  %.pre244 = load ptr, ptr %mesh, align 8, !tbaa !17
  br label %_ZNSt6vectorIdSaIdEE6resizeEm.exit229

if.else.i224:                                     ; preds = %_ZNSt6vectorIdSaIdEE6resizeEm.exit214
  %cmp4.i223 = icmp ult i64 %conv78.pre-phi, %sub.ptr.div.i.i219
  br i1 %cmp4.i223, label %if.then5.i227, label %_ZNSt6vectorIdSaIdEE6resizeEm.exit229

if.then5.i227:                                    ; preds = %if.else.i224
  %add.ptr.i225 = getelementptr inbounds double, ptr %47, i64 %conv78.pre-phi
  %tobool.not.i.i226 = icmp eq ptr %46, %add.ptr.i225
  br i1 %tobool.not.i.i226, label %_ZNSt6vectorIdSaIdEE6resizeEm.exit229, label %invoke.cont.i.i228

invoke.cont.i.i228:                               ; preds = %if.then5.i227
  store ptr %add.ptr.i225, ptr %_M_finish.i.i215, align 8, !tbaa !61
  br label %_ZNSt6vectorIdSaIdEE6resizeEm.exit229

_ZNSt6vectorIdSaIdEE6resizeEm.exit229:            ; preds = %if.then.i222, %if.else.i224, %if.then5.i227, %invoke.cont.i.i228
  %48 = phi ptr [ %.pre244, %if.then.i222 ], [ %45, %if.else.i224 ], [ %45, %if.then5.i227 ], [ %45, %invoke.cont.i.i228 ]
  %ncells81 = getelementptr inbounds %class.Mesh, ptr %48, i64 0, i32 45
  %49 = load i64, ptr %ncells81, align 8, !tbaa !30
  %conv82 = trunc i64 %49 to i32
  tail call void @_ZN4Mesh10set_boundsEi(ptr noundef nonnull align 8 dereferenceable(2288) %48, i32 noundef %conv82)
  call void @llvm.lifetime.start.p0(i64 4, ptr nonnull %lowerBound) #24
  call void @llvm.lifetime.start.p0(i64 4, ptr nonnull %upperBound) #24
  %50 = load ptr, ptr %mesh, align 8, !tbaa !17
  call void @_ZN4Mesh10get_boundsERiS0_(ptr noundef nonnull align 8 dereferenceable(2288) %50, ptr noundef nonnull align 4 dereferenceable(4) %lowerBound, ptr noundef nonnull align 4 dereferenceable(4) %upperBound)
  %51 = load i32, ptr %lowerBound, align 4, !tbaa !63
  %52 = load i32, ptr %upperBound, align 4, !tbaa !63
  %cmp234 = icmp ult i32 %51, %52
  br i1 %cmp234, label %for.body.lr.ph, label %for.cond.cleanup

for.body.lr.ph:                                   ; preds = %_ZNSt6vectorIdSaIdEE6resizeEm.exit229
  %53 = load ptr, ptr %mesh, align 8, !tbaa !17
  %i85 = getelementptr inbounds %class.Mesh, ptr %53, i64 0, i32 64
  %54 = load ptr, ptr %i85, align 8, !tbaa !50
  %lev_ibegin = getelementptr inbounds %class.Mesh, ptr %53, i64 0, i32 26
  %level88 = getelementptr inbounds %class.Mesh, ptr %53, i64 0, i32 67
  %55 = load ptr, ptr %level88, align 8, !tbaa !52
  %56 = load ptr, ptr %lev_ibegin, align 8, !tbaa !59
  %nlft96 = getelementptr inbounds %class.Mesh, ptr %53, i64 0, i32 69
  %lev_iend = getelementptr inbounds %class.Mesh, ptr %53, i64 0, i32 27
  %57 = load ptr, ptr %lev_iend, align 8, !tbaa !59
  %nrht113 = getelementptr inbounds %class.Mesh, ptr %53, i64 0, i32 70
  %j118 = getelementptr inbounds %class.Mesh, ptr %53, i64 0, i32 65
  %58 = load ptr, ptr %j118, align 8, !tbaa !51
  %lev_jbegin = getelementptr inbounds %class.Mesh, ptr %53, i64 0, i32 28
  %59 = load ptr, ptr %lev_jbegin, align 8, !tbaa !59
  %nbot131 = getelementptr inbounds %class.Mesh, ptr %53, i64 0, i32 71
  %lev_jend = getelementptr inbounds %class.Mesh, ptr %53, i64 0, i32 29
  %60 = load ptr, ptr %lev_jend, align 8, !tbaa !59
  %ntop149 = getelementptr inbounds %class.Mesh, ptr %53, i64 0, i32 72
  %61 = zext i32 %51 to i64
  br label %for.body

for.cond.cleanup:                                 ; preds = %for.inc, %_ZNSt6vectorIdSaIdEE6resizeEm.exit229
  call void @llvm.lifetime.end.p0(i64 4, ptr nonnull %upperBound) #24
  call void @llvm.lifetime.end.p0(i64 4, ptr nonnull %lowerBound) #24
  br label %if.end153

for.body:                                         ; preds = %for.body.lr.ph, %for.inc
  %indvars.iv = phi i64 [ %61, %for.body.lr.ph ], [ %indvars.iv.next, %for.inc ]
  %arrayidx = getelementptr inbounds i32, ptr %54, i64 %indvars.iv
  %62 = load i32, ptr %arrayidx, align 4, !tbaa !63
  %arrayidx90 = getelementptr inbounds i32, ptr %55, i64 %indvars.iv
  %63 = load i32, ptr %arrayidx90, align 4, !tbaa !63
  %conv91 = sext i32 %63 to i64
  %add.ptr.i230 = getelementptr inbounds i32, ptr %56, i64 %conv91
  %64 = load i32, ptr %add.ptr.i230, align 4, !tbaa !63
  %cmp93 = icmp eq i32 %62, %64
  br i1 %cmp93, label %if.then94, label %if.end

if.then94:                                        ; preds = %for.body
  %65 = load ptr, ptr %nlft96, align 8, !tbaa !54
  %arrayidx98 = getelementptr inbounds i32, ptr %65, i64 %indvars.iv
  %66 = trunc i64 %indvars.iv to i32
  store i32 %66, ptr %arrayidx98, align 4, !tbaa !63
  %.pre245 = load i32, ptr %arrayidx, align 4, !tbaa !63
  %.pre246 = load i32, ptr %arrayidx90, align 4, !tbaa !63
  %.pre250 = sext i32 %.pre246 to i64
  br label %if.end

if.end:                                           ; preds = %if.then94, %for.body
  %conv108.pre-phi = phi i64 [ %.pre250, %if.then94 ], [ %conv91, %for.body ]
  %67 = phi i32 [ %.pre245, %if.then94 ], [ %62, %for.body ]
  %add.ptr.i231 = getelementptr inbounds i32, ptr %57, i64 %conv108.pre-phi
  %68 = load i32, ptr %add.ptr.i231, align 4, !tbaa !63
  %cmp110 = icmp eq i32 %67, %68
  br i1 %cmp110, label %if.then111, label %if.end116

if.then111:                                       ; preds = %if.end
  %69 = load ptr, ptr %nrht113, align 8, !tbaa !55
  %arrayidx115 = getelementptr inbounds i32, ptr %69, i64 %indvars.iv
  %70 = trunc i64 %indvars.iv to i32
  store i32 %70, ptr %arrayidx115, align 4, !tbaa !63
  %.pre247 = load i32, ptr %arrayidx90, align 4, !tbaa !63
  %.pre251 = sext i32 %.pre247 to i64
  br label %if.end116

if.end116:                                        ; preds = %if.then111, %if.end
  %conv126.pre-phi = phi i64 [ %.pre251, %if.then111 ], [ %conv108.pre-phi, %if.end ]
  %arrayidx120 = getelementptr inbounds i32, ptr %58, i64 %indvars.iv
  %71 = load i32, ptr %arrayidx120, align 4, !tbaa !63
  %add.ptr.i232 = getelementptr inbounds i32, ptr %59, i64 %conv126.pre-phi
  %72 = load i32, ptr %add.ptr.i232, align 4, !tbaa !63
  %cmp128 = icmp eq i32 %71, %72
  br i1 %cmp128, label %if.then129, label %if.end134

if.then129:                                       ; preds = %if.end116
  %73 = load ptr, ptr %nbot131, align 8, !tbaa !56
  %arrayidx133 = getelementptr inbounds i32, ptr %73, i64 %indvars.iv
  %74 = trunc i64 %indvars.iv to i32
  store i32 %74, ptr %arrayidx133, align 4, !tbaa !63
  %.pre248 = load i32, ptr %arrayidx120, align 4, !tbaa !63
  %.pre249 = load i32, ptr %arrayidx90, align 4, !tbaa !63
  %.pre252 = sext i32 %.pre249 to i64
  br label %if.end134

if.end134:                                        ; preds = %if.then129, %if.end116
  %conv144.pre-phi = phi i64 [ %.pre252, %if.then129 ], [ %conv126.pre-phi, %if.end116 ]
  %75 = phi i32 [ %.pre248, %if.then129 ], [ %71, %if.end116 ]
  %add.ptr.i233 = getelementptr inbounds i32, ptr %60, i64 %conv144.pre-phi
  %76 = load i32, ptr %add.ptr.i233, align 4, !tbaa !63
  %cmp146 = icmp eq i32 %75, %76
  br i1 %cmp146, label %if.then147, label %for.inc

if.then147:                                       ; preds = %if.end134
  %77 = load ptr, ptr %ntop149, align 8, !tbaa !57
  %arrayidx151 = getelementptr inbounds i32, ptr %77, i64 %indvars.iv
  %78 = trunc i64 %indvars.iv to i32
  store i32 %78, ptr %arrayidx151, align 4, !tbaa !63
  br label %for.inc

for.inc:                                          ; preds = %if.end134, %if.then147
  %indvars.iv.next = add nuw nsw i64 %indvars.iv, 1
  %79 = load i32, ptr %upperBound, align 4, !tbaa !63
  %80 = zext i32 %79 to i64
  %cmp = icmp ult i64 %indvars.iv.next, %80
  br i1 %cmp, label %for.body, label %for.cond.cleanup, !llvm.loop !80

if.end153:                                        ; preds = %for.cond.cleanup, %entry
  ret void
}

declare void @_ZN4Mesh10set_boundsEi(ptr noundef nonnull align 8 dereferenceable(2288), i32 noundef) local_unnamed_addr #3

; Function Attrs: mustprogress uwtable
define dso_local noundef double @_ZN5State12set_timestepEdd(ptr nocapture noundef nonnull align 8 dereferenceable(368) %this, double noundef %g, double noundef %sigma) local_unnamed_addr #2 align 2 {
entry:
  %tstart_cpu = alloca %struct.timeval, align 8
  %lowerBounds = alloca i32, align 4
  %upperBounds = alloca i32, align 4
  call void @llvm.lifetime.start.p0(i64 16, ptr nonnull %tstart_cpu) #24
  call void @cpu_timer_start(ptr noundef nonnull %tstart_cpu)
  call void @llvm.lifetime.start.p0(i64 4, ptr nonnull %lowerBounds) #24
  call void @llvm.lifetime.start.p0(i64 4, ptr nonnull %upperBounds) #24
  %mesh = getelementptr inbounds %class.State, ptr %this, i64 0, i32 2
  %0 = load ptr, ptr %mesh, align 8, !tbaa !17
  %ncells = getelementptr inbounds %class.Mesh, ptr %0, i64 0, i32 45
  %1 = load i64, ptr %ncells, align 8, !tbaa !30
  %conv = trunc i64 %1 to i32
  call void @_ZN4Mesh10set_boundsEi(ptr noundef nonnull align 8 dereferenceable(2288) %0, i32 noundef %conv)
  %2 = load ptr, ptr %mesh, align 8, !tbaa !17
  call void @_ZN4Mesh10get_boundsERiS0_(ptr noundef nonnull align 8 dereferenceable(2288) %2, ptr noundef nonnull align 4 dereferenceable(4) %lowerBounds, ptr noundef nonnull align 4 dereferenceable(4) %upperBounds)
  store double 1.000000e+03, ptr @_ZZN5State12set_timestepEddE9mindeltaT, align 8, !tbaa !70
  %3 = load i32, ptr %lowerBounds, align 4, !tbaa !63
  %4 = load i32, ptr %upperBounds, align 4, !tbaa !63
  %cmp46 = icmp slt i32 %3, %4
  br i1 %cmp46, label %for.body.lr.ph, label %if.end30

for.body.lr.ph:                                   ; preds = %entry
  %H = getelementptr inbounds %class.State, ptr %this, i64 0, i32 3
  %U = getelementptr inbounds %class.State, ptr %this, i64 0, i32 4
  %V = getelementptr inbounds %class.State, ptr %this, i64 0, i32 5
  %5 = sext i32 %3 to i64
  %.pre = load ptr, ptr %mesh, align 8, !tbaa !17
  br label %for.body

for.cond.cleanup:                                 ; preds = %for.inc
  %.pre51 = load double, ptr @_ZZN5State12set_timestepEddE9mindeltaT, align 8, !tbaa !70
  %cmp28 = fcmp olt double %mymindeltaT.2, %.pre51
  br i1 %cmp28, label %if.then29, label %if.end30

for.body:                                         ; preds = %for.body.lr.ph, %for.inc
  %6 = phi i32 [ %4, %for.body.lr.ph ], [ %33, %for.inc ]
  %7 = phi ptr [ %.pre, %for.body.lr.ph ], [ %34, %for.inc ]
  %indvars.iv = phi i64 [ %5, %for.body.lr.ph ], [ %indvars.iv.next, %for.inc ]
  %mymindeltaT.048 = phi double [ 1.000000e+03, %for.body.lr.ph ], [ %mymindeltaT.2, %for.inc ]
  %celltype = getelementptr inbounds %class.Mesh, ptr %7, i64 0, i32 68
  %8 = load ptr, ptr %celltype, align 8, !tbaa !53
  %arrayidx = getelementptr inbounds i32, ptr %8, i64 %indvars.iv
  %9 = load i32, ptr %arrayidx, align 4, !tbaa !63
  %cmp5 = icmp eq i32 %9, 1
  br i1 %cmp5, label %if.then, label %for.inc

if.then:                                          ; preds = %for.body
  %level = getelementptr inbounds %class.Mesh, ptr %7, i64 0, i32 67
  %10 = load ptr, ptr %level, align 8, !tbaa !52
  %arrayidx8 = getelementptr inbounds i32, ptr %10, i64 %indvars.iv
  %11 = load i32, ptr %arrayidx8, align 4, !tbaa !63
  %12 = load ptr, ptr %H, align 8, !tbaa !47
  %arrayidx10 = getelementptr inbounds double, ptr %12, i64 %indvars.iv
  %13 = load double, ptr %arrayidx10, align 8, !tbaa !70
  %mul = fmul double %13, %g
  %call = call double @sqrt(double noundef %mul) #24
  %14 = load ptr, ptr %U, align 8, !tbaa !48
  %arrayidx12 = getelementptr inbounds double, ptr %14, i64 %indvars.iv
  %15 = load ptr, ptr %mesh, align 8, !tbaa !17
  %lev_deltax = getelementptr inbounds %class.Mesh, ptr %15, i64 0, i32 33
  %conv14 = sext i32 %11 to i64
  %16 = load ptr, ptr %lev_deltax, align 8, !tbaa !62
  %add.ptr.i = getelementptr inbounds double, ptr %16, i64 %conv14
  %17 = load ptr, ptr %V, align 8, !tbaa !49
  %arrayidx17 = getelementptr inbounds double, ptr %17, i64 %indvars.iv
  %lev_deltay = getelementptr inbounds %class.Mesh, ptr %15, i64 0, i32 34
  %18 = load ptr, ptr %lev_deltay, align 8, !tbaa !62
  %add.ptr.i45 = getelementptr inbounds double, ptr %18, i64 %conv14
  %19 = load double, ptr %arrayidx12, align 8, !tbaa !70
  %20 = load double, ptr %add.ptr.i, align 8, !tbaa !70
  %21 = load double, ptr %arrayidx17, align 8, !tbaa !70
  %22 = insertelement <2 x double> poison, double %19, i64 0
  %23 = insertelement <2 x double> %22, double %21, i64 1
  %24 = call <2 x double> @llvm.fabs.v2f64(<2 x double> %23)
  %25 = insertelement <2 x double> poison, double %call, i64 0
  %26 = shufflevector <2 x double> %25, <2 x double> poison, <2 x i32> zeroinitializer
  %27 = fadd <2 x double> %26, %24
  %28 = load double, ptr %add.ptr.i45, align 8, !tbaa !70
  %29 = insertelement <2 x double> poison, double %20, i64 0
  %30 = insertelement <2 x double> %29, double %28, i64 1
  %31 = fdiv <2 x double> %27, %30
  %shift = shufflevector <2 x double> %31, <2 x double> poison, <2 x i32> <i32 1, i32 poison>
  %32 = fadd <2 x double> %31, %shift
  %add23 = extractelement <2 x double> %32, i64 0
  %div24 = fdiv double %sigma, %add23
  %cmp25 = fcmp olt double %div24, %mymindeltaT.048
  %mymindeltaT.1 = select i1 %cmp25, double %div24, double %mymindeltaT.048
  %.pre50 = load i32, ptr %upperBounds, align 4, !tbaa !63
  br label %for.inc

for.inc:                                          ; preds = %for.body, %if.then
  %33 = phi i32 [ %.pre50, %if.then ], [ %6, %for.body ]
  %34 = phi ptr [ %15, %if.then ], [ %7, %for.body ]
  %mymindeltaT.2 = phi double [ %mymindeltaT.1, %if.then ], [ %mymindeltaT.048, %for.body ]
  %indvars.iv.next = add nsw i64 %indvars.iv, 1
  %35 = sext i32 %33 to i64
  %cmp = icmp slt i64 %indvars.iv.next, %35
  br i1 %cmp, label %for.body, label %for.cond.cleanup, !llvm.loop !81

if.then29:                                        ; preds = %for.cond.cleanup
  store double %mymindeltaT.2, ptr @_ZZN5State12set_timestepEddE9mindeltaT, align 8, !tbaa !70
  br label %if.end30

if.end30:                                         ; preds = %entry, %if.then29, %for.cond.cleanup
  %36 = phi double [ %mymindeltaT.2, %if.then29 ], [ %.pre51, %for.cond.cleanup ], [ 1.000000e+03, %entry ]
  %agg.tmp.sroa.0.0.copyload = load i64, ptr %tstart_cpu, align 8, !tbaa.struct !72
  %agg.tmp.sroa.2.0.tstart_cpu.sroa_idx = getelementptr inbounds i8, ptr %tstart_cpu, i64 8
  %agg.tmp.sroa.2.0.copyload = load i64, ptr %agg.tmp.sroa.2.0.tstart_cpu.sroa_idx, align 8, !tbaa.struct !73
  %call31 = call double @cpu_timer_stop(i64 %agg.tmp.sroa.0.0.copyload, i64 %agg.tmp.sroa.2.0.copyload)
  %arrayidx32 = getelementptr inbounds %class.State, ptr %this, i64 0, i32 6, i64 1
  %37 = load double, ptr %arrayidx32, align 8, !tbaa !70
  %add33 = fadd double %call31, %37
  store double %add33, ptr %arrayidx32, align 8, !tbaa !70
  call void @llvm.lifetime.end.p0(i64 4, ptr nonnull %upperBounds) #24
  call void @llvm.lifetime.end.p0(i64 4, ptr nonnull %lowerBounds) #24
  call void @llvm.lifetime.end.p0(i64 16, ptr nonnull %tstart_cpu) #24
  ret double %36
}

; Function Attrs: mustprogress nofree nounwind willreturn memory(write)
declare double @sqrt(double noundef) local_unnamed_addr #5

; Function Attrs: mustprogress nocallback nofree nosync nounwind speculatable willreturn memory(none)
declare double @llvm.fabs.f64(double) #6

; Function Attrs: uwtable
define dso_local void @_ZN5State11fill_circleEddd(ptr nocapture noundef nonnull readonly align 8 dereferenceable(368) %this, double noundef %circ_radius, double noundef %fill_value, double noundef %background) local_unnamed_addr #7 align 2 personality ptr @__gxx_personality_v0 {
entry:
  %nez = alloca i32, align 4
  %mesh = getelementptr inbounds %class.State, ptr %this, i64 0, i32 2
  %0 = load ptr, ptr %mesh, align 8, !tbaa !17
  %ncells2 = getelementptr inbounds %class.Mesh, ptr %0, i64 0, i32 45
  %x4 = getelementptr inbounds %class.Mesh, ptr %0, i64 0, i32 75
  %dx6 = getelementptr inbounds %class.Mesh, ptr %0, i64 0, i32 76
  %y8 = getelementptr inbounds %class.Mesh, ptr %0, i64 0, i32 77
  %dy10 = getelementptr inbounds %class.Mesh, ptr %0, i64 0, i32 78
  %1 = load i64, ptr %ncells2, align 8, !tbaa !58
  %cmp154.not = icmp eq i64 %1, 0
  br i1 %cmp154.not, label %for.cond.cleanup, label %for.body.lr.ph

for.body.lr.ph:                                   ; preds = %entry
  %H = getelementptr inbounds %class.State, ptr %this, i64 0, i32 3
  %2 = load ptr, ptr %H, align 8, !tbaa !47
  %V = getelementptr inbounds %class.State, ptr %this, i64 0, i32 5
  %3 = load ptr, ptr %V, align 8, !tbaa !49
  %U = getelementptr inbounds %class.State, ptr %this, i64 0, i32 4
  %4 = load ptr, ptr %U, align 8, !tbaa !48
  br label %for.body

for.cond.cleanup:                                 ; preds = %for.body, %entry
  tail call void @_ZN4Mesh12kdtree_setupEv(ptr noundef nonnull align 8 dereferenceable(2288) %0)
  call void @llvm.lifetime.start.p0(i64 4, ptr nonnull %nez) #24
  %5 = load i64, ptr %ncells2, align 8, !tbaa !58
  %cmp.i.i = icmp ugt i64 %5, 2305843009213693951
  br i1 %cmp.i.i, label %if.then.i.i, label %_ZNSt6vectorIiSaIiEE17_S_check_init_lenEmRKS0_.exit.i

if.then.i.i:                                      ; preds = %for.cond.cleanup
  tail call void @_ZSt20__throw_length_errorPKc(ptr noundef nonnull @.str.59) #25
  unreachable

_ZNSt6vectorIiSaIiEE17_S_check_init_lenEmRKS0_.exit.i: ; preds = %for.cond.cleanup
  %cmp.not.i.i.i.i = icmp eq i64 %5, 0
  br i1 %cmp.not.i.i.i.i, label %invoke.cont18, label %if.then.i.i.i.i.i

if.then.i.i.i.i.i:                                ; preds = %_ZNSt6vectorIiSaIiEE17_S_check_init_lenEmRKS0_.exit.i
  %mul.i.i.i.i.i.i = shl nuw nsw i64 %5, 2
  %call5.i.i.i.i4.i.i98 = tail call noalias noundef nonnull ptr @_Znwm(i64 noundef %mul.i.i.i.i.i.i) #26
  store i32 0, ptr %call5.i.i.i.i4.i.i98, align 4, !tbaa !63
  %cmp.i.i.i.i.i.i.i = icmp eq i64 %5, 1
  br i1 %cmp.i.i.i.i.i.i.i, label %invoke.cont, label %if.end.i.i.i.i.i.i.i

if.end.i.i.i.i.i.i.i:                             ; preds = %if.then.i.i.i.i.i
  %incdec.ptr.i.i.i.i.i = getelementptr i32, ptr %call5.i.i.i.i4.i.i98, i64 1
  %6 = add nsw i64 %mul.i.i.i.i.i.i, -4
  tail call void @llvm.memset.p0.i64(ptr align 4 %incdec.ptr.i.i.i.i.i, i8 0, i64 %6, i1 false), !tbaa !63
  br label %invoke.cont

for.body:                                         ; preds = %for.body.lr.ph, %for.body
  %conv156 = phi i64 [ 0, %for.body.lr.ph ], [ %conv, %for.body ]
  %arrayidx = getelementptr inbounds double, ptr %2, i64 %conv156
  store double %background, ptr %arrayidx, align 8, !tbaa !70
  %arrayidx12 = getelementptr inbounds double, ptr %3, i64 %conv156
  store double 0.000000e+00, ptr %arrayidx12, align 8, !tbaa !70
  %arrayidx14 = getelementptr inbounds double, ptr %4, i64 %conv156
  store double 0.000000e+00, ptr %arrayidx14, align 8, !tbaa !70
  %inc = add nuw nsw i64 %conv156, 1
  %conv = and i64 %inc, 4294967295
  %cmp = icmp ugt i64 %1, %conv
  br i1 %cmp, label %for.body, label %for.cond.cleanup, !llvm.loop !82

invoke.cont:                                      ; preds = %if.end.i.i.i.i.i.i.i, %if.then.i.i.i.i.i
  %.pr = load i64, ptr %ncells2, align 8, !tbaa !58
  %cmp.i.i99 = icmp ugt i64 %.pr, 1152921504606846975
  br i1 %cmp.i.i99, label %if.then.i.i100, label %_ZNSt6vectorIdSaIdEE17_S_check_init_lenEmRKS0_.exit.i

if.then.i.i100:                                   ; preds = %invoke.cont
  invoke void @_ZSt20__throw_length_errorPKc(ptr noundef nonnull @.str.59) #25
          to label %.noexc111 unwind label %ehcleanup.thread

.noexc111:                                        ; preds = %if.then.i.i100
  unreachable

_ZNSt6vectorIdSaIdEE17_S_check_init_lenEmRKS0_.exit.i: ; preds = %invoke.cont
  %cmp.not.i.i.i.i101 = icmp eq i64 %.pr, 0
  br i1 %cmp.not.i.i.i.i101, label %invoke.cont18, label %if.then.i.i.i.i.i107

if.then.i.i.i.i.i107:                             ; preds = %_ZNSt6vectorIdSaIdEE17_S_check_init_lenEmRKS0_.exit.i
  %mul.i.i.i.i.i.i102 = shl nuw nsw i64 %.pr, 3
  %call5.i.i.i.i4.i.i113 = invoke noalias noundef nonnull ptr @_Znwm(i64 noundef %mul.i.i.i.i.i.i102) #26
          to label %call5.i.i.i.i4.i.i.noexc112 unwind label %ehcleanup.thread

call5.i.i.i.i4.i.i.noexc112:                      ; preds = %if.then.i.i.i.i.i107
  store double 0.000000e+00, ptr %call5.i.i.i.i4.i.i113, align 8, !tbaa !70
  %cmp.i.i.i.i.i.i.i106 = icmp eq i64 %.pr, 1
  br i1 %cmp.i.i.i.i.i.i.i106, label %invoke.cont18, label %if.end.i.i.i.i.i.i.i108

if.end.i.i.i.i.i.i.i108:                          ; preds = %call5.i.i.i.i4.i.i.noexc112
  %incdec.ptr.i.i.i.i.i105 = getelementptr double, ptr %call5.i.i.i.i4.i.i113, i64 1
  %7 = add nsw i64 %mul.i.i.i.i.i.i102, -8
  tail call void @llvm.memset.p0.i64(ptr align 8 %incdec.ptr.i.i.i.i.i105, i8 0, i64 %7, i1 false), !tbaa !70
  br label %invoke.cont18

invoke.cont18:                                    ; preds = %_ZNSt6vectorIiSaIiEE17_S_check_init_lenEmRKS0_.exit.i, %if.end.i.i.i.i.i.i.i108, %call5.i.i.i.i4.i.i.noexc112, %_ZNSt6vectorIdSaIdEE17_S_check_init_lenEmRKS0_.exit.i
  %ind.sroa.0.0144147 = phi ptr [ %call5.i.i.i.i4.i.i98, %call5.i.i.i.i4.i.i.noexc112 ], [ %call5.i.i.i.i4.i.i98, %if.end.i.i.i.i.i.i.i108 ], [ %call5.i.i.i.i4.i.i98, %_ZNSt6vectorIdSaIdEE17_S_check_init_lenEmRKS0_.exit.i ], [ null, %_ZNSt6vectorIiSaIiEE17_S_check_init_lenEmRKS0_.exit.i ]
  %weight.sroa.0.0 = phi ptr [ %call5.i.i.i.i4.i.i113, %call5.i.i.i.i4.i.i.noexc112 ], [ %call5.i.i.i.i4.i.i113, %if.end.i.i.i.i.i.i.i108 ], [ null, %_ZNSt6vectorIdSaIdEE17_S_check_init_lenEmRKS0_.exit.i ], [ null, %_ZNSt6vectorIiSaIiEE17_S_check_init_lenEmRKS0_.exit.i ]
  %8 = load ptr, ptr %mesh, align 8, !tbaa !17
  %tree = getelementptr inbounds %class.Mesh, ptr %8, i64 0, i32 24
  %9 = load i64, ptr %ncells2, align 8, !tbaa !58
  %conv20 = trunc i64 %9 to i32
  %10 = load ptr, ptr %x4, align 8, !tbaa !62
  %11 = load ptr, ptr %dx6, align 8, !tbaa !62
  %12 = load ptr, ptr %y8, align 8, !tbaa !62
  %13 = load ptr, ptr %dy10, align 8, !tbaa !62
  invoke void @KDTree_QueryCircleInterior_Double(ptr noundef nonnull %tree, ptr noundef nonnull %nez, ptr noundef %ind.sroa.0.0144147, double noundef %circ_radius, i32 noundef %conv20, ptr noundef %10, ptr noundef %11, ptr noundef %12, ptr noundef %13)
          to label %for.cond28.preheader unwind label %lpad25

for.cond28.preheader:                             ; preds = %invoke.cont18
  %14 = load i32, ptr %nez, align 4, !tbaa !63
  %cmp29157 = icmp sgt i32 %14, 0
  br i1 %cmp29157, label %for.body31.lr.ph, label %for.cond.cleanup30

for.body31.lr.ph:                                 ; preds = %for.cond28.preheader
  %H32 = getelementptr inbounds %class.State, ptr %this, i64 0, i32 3
  %15 = load ptr, ptr %H32, align 8, !tbaa !47
  %wide.trip.count = zext i32 %14 to i64
  %xtraiter = and i64 %wide.trip.count, 3
  %16 = icmp ult i32 %14, 4
  br i1 %16, label %for.cond.cleanup30.loopexit.unr-lcssa, label %for.body31.lr.ph.new

for.body31.lr.ph.new:                             ; preds = %for.body31.lr.ph
  %unroll_iter = and i64 %wide.trip.count, 4294967292
  br label %for.body31

for.cond.cleanup30.loopexit.unr-lcssa:            ; preds = %for.body31, %for.body31.lr.ph
  %indvars.iv.unr = phi i64 [ 0, %for.body31.lr.ph ], [ %indvars.iv.next.3, %for.body31 ]
  %lcmp.mod.not = icmp eq i64 %xtraiter, 0
  br i1 %lcmp.mod.not, label %for.cond.cleanup30, label %for.body31.epil

for.body31.epil:                                  ; preds = %for.cond.cleanup30.loopexit.unr-lcssa, %for.body31.epil
  %indvars.iv.epil = phi i64 [ %indvars.iv.next.epil, %for.body31.epil ], [ %indvars.iv.unr, %for.cond.cleanup30.loopexit.unr-lcssa ]
  %epil.iter = phi i64 [ %epil.iter.next, %for.body31.epil ], [ 0, %for.cond.cleanup30.loopexit.unr-lcssa ]
  %add.ptr.i.epil = getelementptr inbounds i32, ptr %ind.sroa.0.0144147, i64 %indvars.iv.epil
  %17 = load i32, ptr %add.ptr.i.epil, align 4, !tbaa !63
  %idxprom35.epil = sext i32 %17 to i64
  %arrayidx36.epil = getelementptr inbounds double, ptr %15, i64 %idxprom35.epil
  store double %fill_value, ptr %arrayidx36.epil, align 8, !tbaa !70
  %indvars.iv.next.epil = add nuw nsw i64 %indvars.iv.epil, 1
  %epil.iter.next = add i64 %epil.iter, 1
  %epil.iter.cmp.not = icmp eq i64 %epil.iter.next, %xtraiter
  br i1 %epil.iter.cmp.not, label %for.cond.cleanup30, label %for.body31.epil, !llvm.loop !83

for.cond.cleanup30:                               ; preds = %for.cond.cleanup30.loopexit.unr-lcssa, %for.body31.epil, %for.cond28.preheader
  %18 = load ptr, ptr %mesh, align 8, !tbaa !17
  %tree41 = getelementptr inbounds %class.Mesh, ptr %18, i64 0, i32 24
  %19 = load i64, ptr %ncells2, align 8, !tbaa !58
  %conv44 = trunc i64 %19 to i32
  %20 = load ptr, ptr %x4, align 8, !tbaa !62
  %21 = load ptr, ptr %dx6, align 8, !tbaa !62
  %22 = load ptr, ptr %y8, align 8, !tbaa !62
  %23 = load ptr, ptr %dy10, align 8, !tbaa !62
  invoke void @KDTree_QueryCircleIntersectWeighted_Double(ptr noundef nonnull %tree41, ptr noundef nonnull %nez, ptr noundef %ind.sroa.0.0144147, ptr noundef %weight.sroa.0.0, double noundef %circ_radius, i32 noundef %conv44, ptr noundef %20, ptr noundef %21, ptr noundef %22, ptr noundef %23)
          to label %for.cond51.preheader unwind label %lpad25

for.cond51.preheader:                             ; preds = %for.cond.cleanup30
  %24 = load i32, ptr %nez, align 4, !tbaa !63
  %cmp52159 = icmp sgt i32 %24, 0
  br i1 %cmp52159, label %for.body54.lr.ph, label %for.cond.cleanup53

for.body54.lr.ph:                                 ; preds = %for.cond51.preheader
  %sub = fsub double %fill_value, %background
  %H57 = getelementptr inbounds %class.State, ptr %this, i64 0, i32 3
  %25 = load ptr, ptr %H57, align 8, !tbaa !47
  %wide.trip.count167 = zext i32 %24 to i64
  %xtraiter169 = and i64 %wide.trip.count167, 1
  %26 = icmp eq i32 %24, 1
  br i1 %26, label %for.cond.cleanup53.loopexit.unr-lcssa, label %for.body54.lr.ph.new

for.body54.lr.ph.new:                             ; preds = %for.body54.lr.ph
  %unroll_iter172 = and i64 %wide.trip.count167, 4294967294
  br label %for.body54

ehcleanup.thread:                                 ; preds = %if.then.i.i100, %if.then.i.i.i.i.i107
  %27 = landingpad { ptr, i32 }
          cleanup
  br label %if.then.i.i.i122

lpad25:                                           ; preds = %for.cond.cleanup53, %for.cond.cleanup30, %invoke.cont18
  %28 = landingpad { ptr, i32 }
          cleanup
  %tobool.not.i.i.i = icmp eq ptr %weight.sroa.0.0, null
  br i1 %tobool.not.i.i.i, label %ehcleanup, label %if.then.i.i.i

if.then.i.i.i:                                    ; preds = %lpad25
  call void @_ZdlPv(ptr noundef nonnull %weight.sroa.0.0) #27
  br label %ehcleanup

for.body31:                                       ; preds = %for.body31, %for.body31.lr.ph.new
  %indvars.iv = phi i64 [ 0, %for.body31.lr.ph.new ], [ %indvars.iv.next.3, %for.body31 ]
  %niter = phi i64 [ 0, %for.body31.lr.ph.new ], [ %niter.next.3, %for.body31 ]
  %add.ptr.i = getelementptr inbounds i32, ptr %ind.sroa.0.0144147, i64 %indvars.iv
  %29 = load i32, ptr %add.ptr.i, align 4, !tbaa !63
  %idxprom35 = sext i32 %29 to i64
  %arrayidx36 = getelementptr inbounds double, ptr %15, i64 %idxprom35
  store double %fill_value, ptr %arrayidx36, align 8, !tbaa !70
  %indvars.iv.next = or i64 %indvars.iv, 1
  %add.ptr.i.1 = getelementptr inbounds i32, ptr %ind.sroa.0.0144147, i64 %indvars.iv.next
  %30 = load i32, ptr %add.ptr.i.1, align 4, !tbaa !63
  %idxprom35.1 = sext i32 %30 to i64
  %arrayidx36.1 = getelementptr inbounds double, ptr %15, i64 %idxprom35.1
  store double %fill_value, ptr %arrayidx36.1, align 8, !tbaa !70
  %indvars.iv.next.1 = or i64 %indvars.iv, 2
  %add.ptr.i.2 = getelementptr inbounds i32, ptr %ind.sroa.0.0144147, i64 %indvars.iv.next.1
  %31 = load i32, ptr %add.ptr.i.2, align 4, !tbaa !63
  %idxprom35.2 = sext i32 %31 to i64
  %arrayidx36.2 = getelementptr inbounds double, ptr %15, i64 %idxprom35.2
  store double %fill_value, ptr %arrayidx36.2, align 8, !tbaa !70
  %indvars.iv.next.2 = or i64 %indvars.iv, 3
  %add.ptr.i.3 = getelementptr inbounds i32, ptr %ind.sroa.0.0144147, i64 %indvars.iv.next.2
  %32 = load i32, ptr %add.ptr.i.3, align 4, !tbaa !63
  %idxprom35.3 = sext i32 %32 to i64
  %arrayidx36.3 = getelementptr inbounds double, ptr %15, i64 %idxprom35.3
  store double %fill_value, ptr %arrayidx36.3, align 8, !tbaa !70
  %indvars.iv.next.3 = add nuw nsw i64 %indvars.iv, 4
  %niter.next.3 = add i64 %niter, 4
  %niter.ncmp.3 = icmp eq i64 %niter.next.3, %unroll_iter
  br i1 %niter.ncmp.3, label %for.cond.cleanup30.loopexit.unr-lcssa, label %for.body31, !llvm.loop !85

for.cond.cleanup53.loopexit.unr-lcssa:            ; preds = %for.body54, %for.body54.lr.ph
  %indvars.iv163.unr = phi i64 [ 0, %for.body54.lr.ph ], [ %indvars.iv.next164.1, %for.body54 ]
  %lcmp.mod171.not = icmp eq i64 %xtraiter169, 0
  br i1 %lcmp.mod171.not, label %for.cond.cleanup53, label %for.body54.epil

for.body54.epil:                                  ; preds = %for.cond.cleanup53.loopexit.unr-lcssa
  %add.ptr.i114.epil = getelementptr inbounds double, ptr %weight.sroa.0.0, i64 %indvars.iv163.unr
  %33 = load double, ptr %add.ptr.i114.epil, align 8, !tbaa !70
  %mul.epil = fmul double %sub, %33
  %add.epil = fadd double %mul.epil, %background
  %add.ptr.i115.epil = getelementptr inbounds i32, ptr %ind.sroa.0.0144147, i64 %indvars.iv163.unr
  %34 = load i32, ptr %add.ptr.i115.epil, align 4, !tbaa !63
  %idxprom60.epil = sext i32 %34 to i64
  %arrayidx61.epil = getelementptr inbounds double, ptr %25, i64 %idxprom60.epil
  store double %add.epil, ptr %arrayidx61.epil, align 8, !tbaa !70
  br label %for.cond.cleanup53

for.cond.cleanup53:                               ; preds = %for.body54.epil, %for.cond.cleanup53.loopexit.unr-lcssa, %for.cond51.preheader
  %35 = load ptr, ptr %mesh, align 8, !tbaa !17
  %tree66 = getelementptr inbounds %class.Mesh, ptr %35, i64 0, i32 24
  invoke void @KDTree_Destroy(ptr noundef nonnull %tree66)
          to label %invoke.cont67 unwind label %lpad25

for.body54:                                       ; preds = %for.body54, %for.body54.lr.ph.new
  %indvars.iv163 = phi i64 [ 0, %for.body54.lr.ph.new ], [ %indvars.iv.next164.1, %for.body54 ]
  %niter173 = phi i64 [ 0, %for.body54.lr.ph.new ], [ %niter173.next.1, %for.body54 ]
  %add.ptr.i114 = getelementptr inbounds double, ptr %weight.sroa.0.0, i64 %indvars.iv163
  %36 = load double, ptr %add.ptr.i114, align 8, !tbaa !70
  %mul = fmul double %sub, %36
  %add = fadd double %mul, %background
  %add.ptr.i115 = getelementptr inbounds i32, ptr %ind.sroa.0.0144147, i64 %indvars.iv163
  %37 = load i32, ptr %add.ptr.i115, align 4, !tbaa !63
  %idxprom60 = sext i32 %37 to i64
  %arrayidx61 = getelementptr inbounds double, ptr %25, i64 %idxprom60
  store double %add, ptr %arrayidx61, align 8, !tbaa !70
  %indvars.iv.next164 = or i64 %indvars.iv163, 1
  %add.ptr.i114.1 = getelementptr inbounds double, ptr %weight.sroa.0.0, i64 %indvars.iv.next164
  %38 = load double, ptr %add.ptr.i114.1, align 8, !tbaa !70
  %mul.1 = fmul double %sub, %38
  %add.1 = fadd double %mul.1, %background
  %add.ptr.i115.1 = getelementptr inbounds i32, ptr %ind.sroa.0.0144147, i64 %indvars.iv.next164
  %39 = load i32, ptr %add.ptr.i115.1, align 4, !tbaa !63
  %idxprom60.1 = sext i32 %39 to i64
  %arrayidx61.1 = getelementptr inbounds double, ptr %25, i64 %idxprom60.1
  store double %add.1, ptr %arrayidx61.1, align 8, !tbaa !70
  %indvars.iv.next164.1 = add nuw nsw i64 %indvars.iv163, 2
  %niter173.next.1 = add i64 %niter173, 2
  %niter173.ncmp.1 = icmp eq i64 %niter173.next.1, %unroll_iter172
  br i1 %niter173.ncmp.1, label %for.cond.cleanup53.loopexit.unr-lcssa, label %for.body54, !llvm.loop !86

invoke.cont67:                                    ; preds = %for.cond.cleanup53
  %tobool.not.i.i.i116 = icmp eq ptr %weight.sroa.0.0, null
  br i1 %tobool.not.i.i.i116, label %_ZNSt6vectorIdSaIdEED2Ev.exit118, label %if.then.i.i.i117

if.then.i.i.i117:                                 ; preds = %invoke.cont67
  call void @_ZdlPv(ptr noundef nonnull %weight.sroa.0.0) #27
  br label %_ZNSt6vectorIdSaIdEED2Ev.exit118

_ZNSt6vectorIdSaIdEED2Ev.exit118:                 ; preds = %invoke.cont67, %if.then.i.i.i117
  %tobool.not.i.i.i119 = icmp eq ptr %ind.sroa.0.0144147, null
  br i1 %tobool.not.i.i.i119, label %_ZNSt6vectorIiSaIiEED2Ev.exit, label %if.then.i.i.i120

if.then.i.i.i120:                                 ; preds = %_ZNSt6vectorIdSaIdEED2Ev.exit118
  call void @_ZdlPv(ptr noundef nonnull %ind.sroa.0.0144147) #27
  br label %_ZNSt6vectorIiSaIiEED2Ev.exit

_ZNSt6vectorIiSaIiEED2Ev.exit:                    ; preds = %_ZNSt6vectorIdSaIdEED2Ev.exit118, %if.then.i.i.i120
  call void @llvm.lifetime.end.p0(i64 4, ptr nonnull %nez) #24
  ret void

ehcleanup:                                        ; preds = %if.then.i.i.i, %lpad25
  %tobool.not.i.i.i121 = icmp eq ptr %ind.sroa.0.0144147, null
  br i1 %tobool.not.i.i.i121, label %ehcleanup69, label %if.then.i.i.i122

if.then.i.i.i122:                                 ; preds = %ehcleanup.thread, %ehcleanup
  %.pn152 = phi { ptr, i32 } [ %27, %ehcleanup.thread ], [ %28, %ehcleanup ]
  %ind.sroa.0.0142151 = phi ptr [ %call5.i.i.i.i4.i.i98, %ehcleanup.thread ], [ %ind.sroa.0.0144147, %ehcleanup ]
  call void @_ZdlPv(ptr noundef nonnull %ind.sroa.0.0142151) #27
  br label %ehcleanup69

ehcleanup69:                                      ; preds = %if.then.i.i.i122, %ehcleanup
  %.pn153 = phi { ptr, i32 } [ %.pn152, %if.then.i.i.i122 ], [ %28, %ehcleanup ]
  call void @llvm.lifetime.end.p0(i64 4, ptr nonnull %nez) #24
  resume { ptr, i32 } %.pn153
}

declare void @_ZN4Mesh12kdtree_setupEv(ptr noundef nonnull align 8 dereferenceable(2288)) local_unnamed_addr #3

declare i32 @__gxx_personality_v0(...)

declare void @KDTree_QueryCircleInterior_Double(ptr noundef, ptr noundef, ptr noundef, double noundef, i32 noundef, ptr noundef, ptr noundef, ptr noundef, ptr noundef) local_unnamed_addr #3

declare void @KDTree_QueryCircleIntersectWeighted_Double(ptr noundef, ptr noundef, ptr noundef, ptr noundef, double noundef, i32 noundef, ptr noundef, ptr noundef, ptr noundef, ptr noundef) local_unnamed_addr #3

declare void @KDTree_Destroy(ptr noundef) local_unnamed_addr #3

; Function Attrs: nounwind uwtable
define linkonce_odr dso_local void @_ZNSt6vectorIdSaIdEED2Ev(ptr noundef nonnull align 8 dereferenceable(24) %this) unnamed_addr #8 comdat align 2 personality ptr @__gxx_personality_v0 {
entry:
  %0 = load ptr, ptr %this, align 8, !tbaa !62
  %tobool.not.i.i = icmp eq ptr %0, null
  br i1 %tobool.not.i.i, label %_ZNSt12_Vector_baseIdSaIdEED2Ev.exit, label %if.then.i.i

if.then.i.i:                                      ; preds = %entry
  tail call void @_ZdlPv(ptr noundef nonnull %0) #27
  br label %_ZNSt12_Vector_baseIdSaIdEED2Ev.exit

_ZNSt12_Vector_baseIdSaIdEED2Ev.exit:             ; preds = %entry, %if.then.i.i
  ret void
}

; Function Attrs: mustprogress uwtable
define dso_local void @_ZN5State13state_reorderESt6vectorIiSaIiEE(ptr noundef nonnull align 8 dereferenceable(368) %this, ptr nocapture noundef readonly %iorder) local_unnamed_addr #2 align 2 {
entry:
  %H = getelementptr inbounds %class.State, ptr %this, i64 0, i32 3
  %0 = load ptr, ptr %H, align 8, !tbaa !47
  %1 = load ptr, ptr %iorder, align 8, !tbaa !59
  %call2 = tail call noundef ptr @_ZN10MallocPlus14memory_reorderEPdPi(ptr noundef nonnull align 8 dereferenceable(96) %this, ptr noundef %0, ptr noundef %1)
  store ptr %call2, ptr %H, align 8, !tbaa !47
  %U = getelementptr inbounds %class.State, ptr %this, i64 0, i32 4
  %2 = load ptr, ptr %U, align 8, !tbaa !48
  %3 = load ptr, ptr %iorder, align 8, !tbaa !59
  %call6 = tail call noundef ptr @_ZN10MallocPlus14memory_reorderEPdPi(ptr noundef nonnull align 8 dereferenceable(96) %this, ptr noundef %2, ptr noundef %3)
  store ptr %call6, ptr %U, align 8, !tbaa !48
  %V = getelementptr inbounds %class.State, ptr %this, i64 0, i32 5
  %4 = load ptr, ptr %V, align 8, !tbaa !49
  %5 = load ptr, ptr %iorder, align 8, !tbaa !59
  %call10 = tail call noundef ptr @_ZN10MallocPlus14memory_reorderEPdPi(ptr noundef nonnull align 8 dereferenceable(96) %this, ptr noundef %4, ptr noundef %5)
  store ptr %call10, ptr %V, align 8, !tbaa !49
  ret void
}

declare noundef ptr @_ZN10MallocPlus14memory_reorderEPdPi(ptr noundef nonnull align 8 dereferenceable(96), ptr noundef, ptr noundef) local_unnamed_addr #3

; Function Attrs: uwtable
define dso_local void @_ZN5State10rezone_allEiiSt6vectorIiSaIiEE(ptr noundef nonnull align 8 dereferenceable(368) %this, i32 noundef %icount, i32 noundef %jcount, ptr nocapture noundef readonly %mpot) local_unnamed_addr #7 align 2 personality ptr @__gxx_personality_v0 {
entry:
  %tstart_cpu = alloca %struct.timeval, align 8
  %agg.tmp = alloca %"class.std::vector", align 8
  call void @llvm.lifetime.start.p0(i64 16, ptr nonnull %tstart_cpu) #24
  call void @cpu_timer_start(ptr noundef nonnull %tstart_cpu)
  %mesh = getelementptr inbounds %class.State, ptr %this, i64 0, i32 2
  %0 = load ptr, ptr %mesh, align 8, !tbaa !17
  %_M_finish.i.i = getelementptr inbounds %"struct.std::_Vector_base<int, std::allocator<int>>::_Vector_impl_data", ptr %mpot, i64 0, i32 1
  %1 = load ptr, ptr %_M_finish.i.i, align 8, !tbaa !75
  %2 = load ptr, ptr %mpot, align 8, !tbaa !75
  %sub.ptr.lhs.cast.i.i = ptrtoint ptr %1 to i64
  %sub.ptr.rhs.cast.i.i = ptrtoint ptr %2 to i64
  %sub.ptr.sub.i.i = sub i64 %sub.ptr.lhs.cast.i.i, %sub.ptr.rhs.cast.i.i
  %sub.ptr.div.i.i = ashr exact i64 %sub.ptr.sub.i.i, 2
  call void @llvm.memset.p0.i64(ptr noundef nonnull align 8 dereferenceable(24) %agg.tmp, i8 0, i64 24, i1 false)
  %cmp.not.i.i.i.i = icmp eq ptr %1, %2
  br i1 %cmp.not.i.i.i.i, label %_ZNSt12_Vector_baseIiSaIiEEC2EmRKS0_.exit.i.thread, label %cond.true.i.i.i.i

_ZNSt12_Vector_baseIiSaIiEEC2EmRKS0_.exit.i.thread: ; preds = %entry
  %_M_finish.i.i.i8 = getelementptr inbounds %"struct.std::_Vector_base<int, std::allocator<int>>::_Vector_impl_data", ptr %agg.tmp, i64 0, i32 1
  %add.ptr.i.i.i9 = getelementptr inbounds i32, ptr null, i64 %sub.ptr.div.i.i
  %_M_end_of_storage.i.i.i10 = getelementptr inbounds %"struct.std::_Vector_base<int, std::allocator<int>>::_Vector_impl_data", ptr %agg.tmp, i64 0, i32 2
  call void @llvm.memset.p0.i64(ptr noundef nonnull align 8 dereferenceable(16) %agg.tmp, i8 0, i64 16, i1 false)
  store ptr %add.ptr.i.i.i9, ptr %_M_end_of_storage.i.i.i10, align 8, !tbaa !87
  br label %_ZNSt6vectorIiSaIiEEC2ERKS1_.exit

cond.true.i.i.i.i:                                ; preds = %entry
  %cmp.i.i.i.i.i.i = icmp ugt i64 %sub.ptr.sub.i.i, 9223372036854775804
  br i1 %cmp.i.i.i.i.i.i, label %if.then.i.i.i.i.i.i, label %if.then.i.i.i.i.i.i.i.i.i, !prof !88

if.then.i.i.i.i.i.i:                              ; preds = %cond.true.i.i.i.i
  %cmp2.i.i.i.i.i.i = icmp slt i64 %sub.ptr.sub.i.i, 0
  br i1 %cmp2.i.i.i.i.i.i, label %if.then3.i.i.i.i.i.i, label %if.end.i.i.i.i.i.i

if.then3.i.i.i.i.i.i:                             ; preds = %if.then.i.i.i.i.i.i
  call void @_ZSt28__throw_bad_array_new_lengthv() #25
  unreachable

if.end.i.i.i.i.i.i:                               ; preds = %if.then.i.i.i.i.i.i
  call void @_ZSt17__throw_bad_allocv() #25
  unreachable

if.then.i.i.i.i.i.i.i.i.i:                        ; preds = %cond.true.i.i.i.i
  %call5.i.i.i.i4.i19.i = call noalias noundef nonnull ptr @_Znwm(i64 noundef %sub.ptr.sub.i.i) #26
  store ptr %call5.i.i.i.i4.i19.i, ptr %agg.tmp, align 8, !tbaa !59
  %_M_finish.i.i.i = getelementptr inbounds %"struct.std::_Vector_base<int, std::allocator<int>>::_Vector_impl_data", ptr %agg.tmp, i64 0, i32 1
  store ptr %call5.i.i.i.i4.i19.i, ptr %_M_finish.i.i.i, align 8, !tbaa !60
  %add.ptr.i.i.i = getelementptr inbounds i32, ptr %call5.i.i.i.i4.i19.i, i64 %sub.ptr.div.i.i
  %_M_end_of_storage.i.i.i = getelementptr inbounds %"struct.std::_Vector_base<int, std::allocator<int>>::_Vector_impl_data", ptr %agg.tmp, i64 0, i32 2
  store ptr %add.ptr.i.i.i, ptr %_M_end_of_storage.i.i.i, align 8, !tbaa !87
  call void @llvm.memmove.p0.p0.i64(ptr nonnull align 4 %call5.i.i.i.i4.i19.i, ptr align 4 %2, i64 %sub.ptr.sub.i.i, i1 false)
  br label %_ZNSt6vectorIiSaIiEEC2ERKS1_.exit

_ZNSt6vectorIiSaIiEEC2ERKS1_.exit:                ; preds = %_ZNSt12_Vector_baseIiSaIiEEC2EmRKS0_.exit.i.thread, %if.then.i.i.i.i.i.i.i.i.i
  %add.ptr.i.i.i12 = phi ptr [ %add.ptr.i.i.i9, %_ZNSt12_Vector_baseIiSaIiEEC2EmRKS0_.exit.i.thread ], [ %add.ptr.i.i.i, %if.then.i.i.i.i.i.i.i.i.i ]
  %_M_finish.i.i.i11 = phi ptr [ %_M_finish.i.i.i8, %_ZNSt12_Vector_baseIiSaIiEEC2EmRKS0_.exit.i.thread ], [ %_M_finish.i.i.i, %if.then.i.i.i.i.i.i.i.i.i ]
  store ptr %add.ptr.i.i.i12, ptr %_M_finish.i.i.i11, align 8, !tbaa !60
  invoke void @_ZN4Mesh10rezone_allEiiSt6vectorIiSaIiEEiR10MallocPlus(ptr noundef nonnull align 8 dereferenceable(2288) %0, i32 noundef %icount, i32 noundef %jcount, ptr noundef nonnull %agg.tmp, i32 noundef 1, ptr noundef nonnull align 8 dereferenceable(96) %this)
          to label %invoke.cont unwind label %lpad

invoke.cont:                                      ; preds = %_ZNSt6vectorIiSaIiEEC2ERKS1_.exit
  %3 = load ptr, ptr %agg.tmp, align 8, !tbaa !59
  %tobool.not.i.i.i = icmp eq ptr %3, null
  br i1 %tobool.not.i.i.i, label %_ZNSt6vectorIiSaIiEED2Ev.exit, label %if.then.i.i.i

if.then.i.i.i:                                    ; preds = %invoke.cont
  call void @_ZdlPv(ptr noundef nonnull %3) #27
  br label %_ZNSt6vectorIiSaIiEED2Ev.exit

_ZNSt6vectorIiSaIiEED2Ev.exit:                    ; preds = %invoke.cont, %if.then.i.i.i
  %call.i = call noundef ptr @_ZN10MallocPlus14get_memory_ptrEPKc(ptr noundef nonnull align 8 dereferenceable(96) %this, ptr noundef nonnull @.str)
  %H.i = getelementptr inbounds %class.State, ptr %this, i64 0, i32 3
  store ptr %call.i, ptr %H.i, align 8, !tbaa !47
  %call3.i = call noundef ptr @_ZN10MallocPlus14get_memory_ptrEPKc(ptr noundef nonnull align 8 dereferenceable(96) %this, ptr noundef nonnull @.str.1)
  %U.i = getelementptr inbounds %class.State, ptr %this, i64 0, i32 4
  store ptr %call3.i, ptr %U.i, align 8, !tbaa !48
  %call5.i = call noundef ptr @_ZN10MallocPlus14get_memory_ptrEPKc(ptr noundef nonnull align 8 dereferenceable(96) %this, ptr noundef nonnull @.str.2)
  %V.i = getelementptr inbounds %class.State, ptr %this, i64 0, i32 5
  store ptr %call5.i, ptr %V.i, align 8, !tbaa !49
  %agg.tmp2.sroa.0.0.copyload = load i64, ptr %tstart_cpu, align 8, !tbaa.struct !72
  %agg.tmp2.sroa.2.0.tstart_cpu.sroa_idx = getelementptr inbounds i8, ptr %tstart_cpu, i64 8
  %agg.tmp2.sroa.2.0.copyload = load i64, ptr %agg.tmp2.sroa.2.0.tstart_cpu.sroa_idx, align 8, !tbaa.struct !73
  %call = call double @cpu_timer_stop(i64 %agg.tmp2.sroa.0.0.copyload, i64 %agg.tmp2.sroa.2.0.copyload)
  %arrayidx = getelementptr inbounds %class.State, ptr %this, i64 0, i32 6, i64 5
  %4 = load double, ptr %arrayidx, align 8, !tbaa !70
  %add = fadd double %call, %4
  store double %add, ptr %arrayidx, align 8, !tbaa !70
  call void @llvm.lifetime.end.p0(i64 16, ptr nonnull %tstart_cpu) #24
  ret void

lpad:                                             ; preds = %_ZNSt6vectorIiSaIiEEC2ERKS1_.exit
  %5 = landingpad { ptr, i32 }
          cleanup
  %6 = load ptr, ptr %agg.tmp, align 8, !tbaa !59
  %tobool.not.i.i.i4 = icmp eq ptr %6, null
  br i1 %tobool.not.i.i.i4, label %_ZNSt6vectorIiSaIiEED2Ev.exit6, label %if.then.i.i.i5

if.then.i.i.i5:                                   ; preds = %lpad
  call void @_ZdlPv(ptr noundef nonnull %6) #27
  br label %_ZNSt6vectorIiSaIiEED2Ev.exit6

_ZNSt6vectorIiSaIiEED2Ev.exit6:                   ; preds = %lpad, %if.then.i.i.i5
  call void @llvm.lifetime.end.p0(i64 16, ptr nonnull %tstart_cpu) #24
  resume { ptr, i32 } %5
}

declare void @_ZN4Mesh10rezone_allEiiSt6vectorIiSaIiEEiR10MallocPlus(ptr noundef nonnull align 8 dereferenceable(2288), i32 noundef, i32 noundef, ptr noundef, i32 noundef, ptr noundef nonnull align 8 dereferenceable(96)) local_unnamed_addr #3

; Function Attrs: mustprogress uwtable
define dso_local void @_ZN5State22calc_finite_differenceEd(ptr noundef nonnull align 8 dereferenceable(368) %this, double noundef %deltaT) local_unnamed_addr #2 align 2 {
entry:
  %tstart_cpu = alloca %struct.timeval, align 8
  %lowerBound = alloca i32, align 4
  %upperBound = alloca i32, align 4
  call void @llvm.lifetime.start.p0(i64 16, ptr nonnull %tstart_cpu) #24
  call void @cpu_timer_start(ptr noundef nonnull %tstart_cpu)
  %mesh = getelementptr inbounds %class.State, ptr %this, i64 0, i32 2
  %0 = load ptr, ptr %mesh, align 8, !tbaa !17
  %ncells2 = getelementptr inbounds %class.Mesh, ptr %0, i64 0, i32 45
  %1 = load i64, ptr %ncells2, align 8, !tbaa !30
  %ncells_ghost4 = getelementptr inbounds %class.Mesh, ptr %0, i64 0, i32 47
  %2 = load i64, ptr %ncells_ghost4, align 8, !tbaa !58
  %cmp = icmp ult i64 %2, %1
  br i1 %cmp, label %if.then, label %if.end

if.then:                                          ; preds = %entry
  store i64 %1, ptr %ncells_ghost4, align 8, !tbaa !58
  br label %if.end

if.end:                                           ; preds = %if.then, %entry
  call void @_ZN5State25apply_boundary_conditionsEv(ptr noundef nonnull align 8 dereferenceable(368) %this)
  %3 = load ptr, ptr %mesh, align 8, !tbaa !17
  %nlft6 = getelementptr inbounds %class.Mesh, ptr %3, i64 0, i32 69
  %4 = load ptr, ptr %nlft6, align 8, !tbaa !54
  %nrht8 = getelementptr inbounds %class.Mesh, ptr %3, i64 0, i32 70
  %5 = load ptr, ptr %nrht8, align 8, !tbaa !55
  %nbot10 = getelementptr inbounds %class.Mesh, ptr %3, i64 0, i32 71
  %6 = load ptr, ptr %nbot10, align 8, !tbaa !56
  %ntop12 = getelementptr inbounds %class.Mesh, ptr %3, i64 0, i32 72
  %7 = load ptr, ptr %ntop12, align 8, !tbaa !57
  %level14 = getelementptr inbounds %class.Mesh, ptr %3, i64 0, i32 67
  %8 = load ptr, ptr %level14, align 8, !tbaa !52
  %lev_deltax16 = getelementptr inbounds %class.Mesh, ptr %3, i64 0, i32 33
  %lev_deltay18 = getelementptr inbounds %class.Mesh, ptr %3, i64 0, i32 34
  %9 = load i64, ptr %ncells_ghost4, align 8, !tbaa !58
  %call = call noundef ptr @_ZN10MallocPlus13memory_mallocEmmPKci(ptr noundef nonnull align 8 dereferenceable(96) %this, i64 noundef %9, i64 noundef 8, ptr noundef nonnull @.str.3, i32 noundef 16)
  store ptr %call, ptr @_ZZN5State22calc_finite_differenceEdE5H_new, align 8, !tbaa !75
  %10 = load i64, ptr %ncells_ghost4, align 8, !tbaa !58
  %call20 = call noundef ptr @_ZN10MallocPlus13memory_mallocEmmPKci(ptr noundef nonnull align 8 dereferenceable(96) %this, i64 noundef %10, i64 noundef 8, ptr noundef nonnull @.str.4, i32 noundef 16)
  store ptr %call20, ptr @_ZZN5State22calc_finite_differenceEdE5U_new, align 8, !tbaa !75
  %11 = load i64, ptr %ncells_ghost4, align 8, !tbaa !58
  %call22 = call noundef ptr @_ZN10MallocPlus13memory_mallocEmmPKci(ptr noundef nonnull align 8 dereferenceable(96) %this, i64 noundef %11, i64 noundef 8, ptr noundef nonnull @.str.5, i32 noundef 16)
  store ptr %call22, ptr @_ZZN5State22calc_finite_differenceEdE5V_new, align 8, !tbaa !75
  call void @llvm.lifetime.start.p0(i64 4, ptr nonnull %lowerBound) #24
  call void @llvm.lifetime.start.p0(i64 4, ptr nonnull %upperBound) #24
  %12 = load ptr, ptr %mesh, align 8, !tbaa !17
  call void @_ZN4Mesh10get_boundsERiS0_(ptr noundef nonnull align 8 dereferenceable(2288) %12, ptr noundef nonnull align 4 dereferenceable(4) %lowerBound, ptr noundef nonnull align 4 dereferenceable(4) %upperBound)
  %13 = load i32, ptr %lowerBound, align 4, !tbaa !63
  %14 = load i32, ptr %upperBound, align 4, !tbaa !63
  %cmp243013 = icmp slt i32 %13, %14
  br i1 %cmp243013, label %for.body.lr.ph, label %if.end.for.cond.cleanup_crit_edge

if.end.for.cond.cleanup_crit_edge:                ; preds = %if.end
  %.pre = load ptr, ptr @_ZZN5State22calc_finite_differenceEdE5H_new, align 8, !tbaa !75
  br label %for.cond.cleanup

for.body.lr.ph:                                   ; preds = %if.end
  %H = getelementptr inbounds %class.State, ptr %this, i64 0, i32 3
  %U = getelementptr inbounds %class.State, ptr %this, i64 0, i32 4
  %V = getelementptr inbounds %class.State, ptr %this, i64 0, i32 5
  %mul3.i = fmul double %deltaT, 5.000000e-01
  %15 = sext i32 %13 to i64
  %16 = insertelement <2 x double> poison, double %mul3.i, i64 0
  %17 = shufflevector <2 x double> %16, <2 x double> poison, <2 x i32> zeroinitializer
  br label %for.body

for.cond.cleanup:                                 ; preds = %if.end1014, %if.end.for.cond.cleanup_crit_edge
  %18 = phi ptr [ %.pre, %if.end.for.cond.cleanup_crit_edge ], [ %567, %if.end1014 ]
  %H1033 = getelementptr inbounds %class.State, ptr %this, i64 0, i32 3
  %19 = load ptr, ptr %H1033, align 8, !tbaa !47
  %call1034 = call noundef ptr @_ZN10MallocPlus14memory_replaceEPvS0_(ptr noundef nonnull align 8 dereferenceable(96) %this, ptr noundef %19, ptr noundef %18)
  store ptr %call1034, ptr %H1033, align 8, !tbaa !47
  %U1037 = getelementptr inbounds %class.State, ptr %this, i64 0, i32 4
  %20 = load ptr, ptr %U1037, align 8, !tbaa !48
  %21 = load ptr, ptr @_ZZN5State22calc_finite_differenceEdE5U_new, align 8, !tbaa !75
  %call1038 = call noundef ptr @_ZN10MallocPlus14memory_replaceEPvS0_(ptr noundef nonnull align 8 dereferenceable(96) %this, ptr noundef %20, ptr noundef %21)
  store ptr %call1038, ptr %U1037, align 8, !tbaa !48
  %V1041 = getelementptr inbounds %class.State, ptr %this, i64 0, i32 5
  %22 = load ptr, ptr %V1041, align 8, !tbaa !49
  %23 = load ptr, ptr @_ZZN5State22calc_finite_differenceEdE5V_new, align 8, !tbaa !75
  %call1042 = call noundef ptr @_ZN10MallocPlus14memory_replaceEPvS0_(ptr noundef nonnull align 8 dereferenceable(96) %this, ptr noundef %22, ptr noundef %23)
  store ptr %call1042, ptr %V1041, align 8, !tbaa !49
  %agg.tmp.sroa.0.0.copyload = load i64, ptr %tstart_cpu, align 8, !tbaa.struct !72
  %agg.tmp.sroa.2.0.tstart_cpu.sroa_idx = getelementptr inbounds i8, ptr %tstart_cpu, i64 8
  %agg.tmp.sroa.2.0.copyload = load i64, ptr %agg.tmp.sroa.2.0.tstart_cpu.sroa_idx, align 8, !tbaa.struct !73
  %call1044 = call double @cpu_timer_stop(i64 %agg.tmp.sroa.0.0.copyload, i64 %agg.tmp.sroa.2.0.copyload)
  %arrayidx1045 = getelementptr inbounds %class.State, ptr %this, i64 0, i32 6, i64 2
  %24 = load double, ptr %arrayidx1045, align 8, !tbaa !70
  %add1046 = fadd double %call1044, %24
  store double %add1046, ptr %arrayidx1045, align 8, !tbaa !70
  call void @llvm.lifetime.end.p0(i64 4, ptr nonnull %upperBound) #24
  call void @llvm.lifetime.end.p0(i64 4, ptr nonnull %lowerBound) #24
  call void @llvm.lifetime.end.p0(i64 16, ptr nonnull %tstart_cpu) #24
  ret void

for.body:                                         ; preds = %for.body.lr.ph, %if.end1014
  %indvars.iv = phi i64 [ %15, %for.body.lr.ph ], [ %indvars.iv.next, %if.end1014 ]
  %arrayidx = getelementptr inbounds i32, ptr %8, i64 %indvars.iv
  %25 = load i32, ptr %arrayidx, align 4, !tbaa !63
  %arrayidx26 = getelementptr inbounds i32, ptr %4, i64 %indvars.iv
  %26 = load i32, ptr %arrayidx26, align 4, !tbaa !63
  %arrayidx28 = getelementptr inbounds i32, ptr %5, i64 %indvars.iv
  %27 = load i32, ptr %arrayidx28, align 4, !tbaa !63
  %arrayidx30 = getelementptr inbounds i32, ptr %7, i64 %indvars.iv
  %28 = load i32, ptr %arrayidx30, align 4, !tbaa !63
  %arrayidx32 = getelementptr inbounds i32, ptr %6, i64 %indvars.iv
  %29 = load i32, ptr %arrayidx32, align 4, !tbaa !63
  %30 = load ptr, ptr %H, align 8, !tbaa !47
  %arrayidx34 = getelementptr inbounds double, ptr %30, i64 %indvars.iv
  %31 = load ptr, ptr %U, align 8, !tbaa !48
  %arrayidx36 = getelementptr inbounds double, ptr %31, i64 %indvars.iv
  %32 = load ptr, ptr %V, align 8, !tbaa !49
  %arrayidx38 = getelementptr inbounds double, ptr %32, i64 %indvars.iv
  %33 = load double, ptr %arrayidx36, align 8, !tbaa !70
  %34 = load double, ptr %arrayidx34, align 8, !tbaa !70
  %35 = load double, ptr %arrayidx38, align 8, !tbaa !70
  %idxprom39 = sext i32 %26 to i64
  %arrayidx40 = getelementptr inbounds i32, ptr %4, i64 %idxprom39
  %36 = load i32, ptr %arrayidx40, align 4, !tbaa !63
  %arrayidx43 = getelementptr inbounds double, ptr %30, i64 %idxprom39
  %arrayidx46 = getelementptr inbounds double, ptr %31, i64 %idxprom39
  %37 = load double, ptr %arrayidx43, align 8, !tbaa !70
  %38 = load double, ptr %arrayidx46, align 8, !tbaa !70
  %arrayidx49 = getelementptr inbounds double, ptr %32, i64 %idxprom39
  %39 = load double, ptr %arrayidx49, align 8, !tbaa !70
  %idxprom50 = sext i32 %27 to i64
  %arrayidx51 = getelementptr inbounds i32, ptr %5, i64 %idxprom50
  %40 = load i32, ptr %arrayidx51, align 4, !tbaa !63
  %arrayidx54 = getelementptr inbounds double, ptr %30, i64 %idxprom50
  %41 = load double, ptr %arrayidx54, align 8, !tbaa !70
  %arrayidx57 = getelementptr inbounds double, ptr %31, i64 %idxprom50
  %42 = load double, ptr %arrayidx57, align 8, !tbaa !70
  %arrayidx60 = getelementptr inbounds double, ptr %32, i64 %idxprom50
  %43 = load double, ptr %arrayidx60, align 8, !tbaa !70
  %idxprom61 = sext i32 %28 to i64
  %arrayidx62 = getelementptr inbounds i32, ptr %7, i64 %idxprom61
  %44 = load i32, ptr %arrayidx62, align 4, !tbaa !63
  %arrayidx65 = getelementptr inbounds double, ptr %30, i64 %idxprom61
  %45 = load double, ptr %arrayidx65, align 8, !tbaa !70
  %arrayidx68 = getelementptr inbounds double, ptr %31, i64 %idxprom61
  %46 = load double, ptr %arrayidx68, align 8, !tbaa !70
  %arrayidx71 = getelementptr inbounds double, ptr %32, i64 %idxprom61
  %47 = load double, ptr %arrayidx71, align 8, !tbaa !70
  %idxprom72 = sext i32 %29 to i64
  %arrayidx73 = getelementptr inbounds i32, ptr %6, i64 %idxprom72
  %48 = load i32, ptr %arrayidx73, align 4, !tbaa !63
  %arrayidx76 = getelementptr inbounds double, ptr %30, i64 %idxprom72
  %49 = load double, ptr %arrayidx76, align 8, !tbaa !70
  %arrayidx79 = getelementptr inbounds double, ptr %31, i64 %idxprom72
  %50 = load double, ptr %arrayidx79, align 8, !tbaa !70
  %arrayidx82 = getelementptr inbounds double, ptr %32, i64 %idxprom72
  %51 = load double, ptr %arrayidx82, align 8, !tbaa !70
  %arrayidx84 = getelementptr inbounds i32, ptr %7, i64 %idxprom39
  %52 = load i32, ptr %arrayidx84, align 4, !tbaa !63
  %arrayidx86 = getelementptr inbounds i32, ptr %7, i64 %idxprom50
  %53 = load i32, ptr %arrayidx86, align 4, !tbaa !63
  %arrayidx88 = getelementptr inbounds i32, ptr %5, i64 %idxprom61
  %54 = load i32, ptr %arrayidx88, align 4, !tbaa !63
  %arrayidx90 = getelementptr inbounds i32, ptr %5, i64 %idxprom72
  %55 = load i32, ptr %arrayidx90, align 4, !tbaa !63
  %idxprom92 = sext i32 %36 to i64
  %arrayidx93 = getelementptr inbounds double, ptr %30, i64 %idxprom92
  %56 = load double, ptr %arrayidx93, align 8, !tbaa !70
  %arrayidx96 = getelementptr inbounds double, ptr %31, i64 %idxprom92
  %57 = load double, ptr %arrayidx96, align 8, !tbaa !70
  %idxprom98 = sext i32 %40 to i64
  %arrayidx99 = getelementptr inbounds double, ptr %30, i64 %idxprom98
  %58 = load double, ptr %arrayidx99, align 8, !tbaa !70
  %arrayidx102 = getelementptr inbounds double, ptr %31, i64 %idxprom98
  %59 = load double, ptr %arrayidx102, align 8, !tbaa !70
  %idxprom104 = sext i32 %44 to i64
  %arrayidx105 = getelementptr inbounds double, ptr %30, i64 %idxprom104
  %60 = load double, ptr %arrayidx105, align 8, !tbaa !70
  %arrayidx108 = getelementptr inbounds double, ptr %32, i64 %idxprom104
  %61 = load double, ptr %arrayidx108, align 8, !tbaa !70
  %idxprom110 = sext i32 %48 to i64
  %arrayidx111 = getelementptr inbounds double, ptr %30, i64 %idxprom110
  %62 = load double, ptr %arrayidx111, align 8, !tbaa !70
  %arrayidx114 = getelementptr inbounds double, ptr %32, i64 %idxprom110
  %63 = load double, ptr %arrayidx114, align 8, !tbaa !70
  %conv = sext i32 %25 to i64
  %64 = load ptr, ptr %lev_deltax16, align 8, !tbaa !62
  %add.ptr.i = getelementptr inbounds double, ptr %64, i64 %conv
  %65 = load ptr, ptr %lev_deltay18, align 8, !tbaa !62
  %add.ptr.i2017 = getelementptr inbounds double, ptr %65, i64 %conv
  %66 = load double, ptr %add.ptr.i2017, align 8, !tbaa !70
  %arrayidx119 = getelementptr inbounds i32, ptr %8, i64 %idxprom39
  %67 = load i32, ptr %arrayidx119, align 4, !tbaa !63
  %conv120 = sext i32 %67 to i64
  %add.ptr.i2018 = getelementptr inbounds double, ptr %64, i64 %conv120
  %68 = load double, ptr %add.ptr.i2018, align 8, !tbaa !70
  %arrayidx123 = getelementptr inbounds i32, ptr %8, i64 %idxprom50
  %69 = load i32, ptr %arrayidx123, align 4, !tbaa !63
  %conv124 = sext i32 %69 to i64
  %add.ptr.i2019 = getelementptr inbounds double, ptr %64, i64 %conv124
  %70 = load double, ptr %add.ptr.i2019, align 8, !tbaa !70
  %arrayidx127 = getelementptr inbounds i32, ptr %8, i64 %idxprom61
  %71 = load i32, ptr %arrayidx127, align 4, !tbaa !63
  %conv128 = sext i32 %71 to i64
  %add.ptr.i2020 = getelementptr inbounds double, ptr %65, i64 %conv128
  %72 = load double, ptr %add.ptr.i, align 8, !tbaa !70
  %73 = load double, ptr %add.ptr.i2020, align 8, !tbaa !70
  %arrayidx131 = getelementptr inbounds i32, ptr %8, i64 %idxprom72
  %74 = load i32, ptr %arrayidx131, align 4, !tbaa !63
  %conv132 = sext i32 %74 to i64
  %add.ptr.i2021 = getelementptr inbounds double, ptr %65, i64 %conv132
  %75 = load double, ptr %add.ptr.i2021, align 8, !tbaa !70
  %cmp136 = icmp slt i32 %25, %67
  br i1 %cmp136, label %if.then137, label %if.end161

if.then137:                                       ; preds = %for.body
  %idxprom141 = sext i32 %52 to i64
  %arrayidx142 = getelementptr inbounds double, ptr %30, i64 %idxprom141
  %arrayidx147 = getelementptr inbounds double, ptr %31, i64 %idxprom141
  %76 = load double, ptr %arrayidx142, align 8, !tbaa !70
  %77 = load double, ptr %arrayidx147, align 8, !tbaa !70
  %arrayidx152 = getelementptr inbounds double, ptr %32, i64 %idxprom141
  %78 = load double, ptr %arrayidx152, align 8, !tbaa !70
  %arrayidx154 = getelementptr inbounds i32, ptr %4, i64 %idxprom141
  %79 = load i32, ptr %arrayidx154, align 4, !tbaa !63
  %idxprom156 = sext i32 %79 to i64
  %arrayidx157 = getelementptr inbounds double, ptr %30, i64 %idxprom156
  %80 = load double, ptr %arrayidx157, align 8, !tbaa !70
  %arrayidx160 = getelementptr inbounds double, ptr %31, i64 %idxprom156
  %81 = load double, ptr %arrayidx160, align 8, !tbaa !70
  %82 = insertelement <2 x double> poison, double %76, i64 0
  %83 = insertelement <2 x double> %82, double %77, i64 1
  br label %if.end161

if.end161:                                        ; preds = %if.then137, %for.body
  %Ull2.0 = phi double [ %81, %if.then137 ], [ 0.000000e+00, %for.body ]
  %Hll2.0 = phi double [ %80, %if.then137 ], [ 0.000000e+00, %for.body ]
  %Vlt.0 = phi double [ %78, %if.then137 ], [ 0.000000e+00, %for.body ]
  %nltl.0 = phi i32 [ %79, %if.then137 ], [ 0, %for.body ]
  %84 = phi <2 x double> [ %83, %if.then137 ], [ zeroinitializer, %for.body ]
  %cmp164 = icmp slt i32 %25, %69
  br i1 %cmp164, label %if.then165, label %if.end189

if.then165:                                       ; preds = %if.end161
  %idxprom169 = sext i32 %53 to i64
  %arrayidx170 = getelementptr inbounds double, ptr %30, i64 %idxprom169
  %arrayidx175 = getelementptr inbounds double, ptr %31, i64 %idxprom169
  %85 = load double, ptr %arrayidx170, align 8, !tbaa !70
  %86 = load double, ptr %arrayidx175, align 8, !tbaa !70
  %arrayidx180 = getelementptr inbounds double, ptr %32, i64 %idxprom169
  %87 = load double, ptr %arrayidx180, align 8, !tbaa !70
  %arrayidx182 = getelementptr inbounds i32, ptr %5, i64 %idxprom169
  %88 = load i32, ptr %arrayidx182, align 4, !tbaa !63
  %idxprom184 = sext i32 %88 to i64
  %arrayidx185 = getelementptr inbounds double, ptr %30, i64 %idxprom184
  %89 = load double, ptr %arrayidx185, align 8, !tbaa !70
  %arrayidx188 = getelementptr inbounds double, ptr %31, i64 %idxprom184
  %90 = load double, ptr %arrayidx188, align 8, !tbaa !70
  %91 = insertelement <2 x double> poison, double %85, i64 0
  %92 = insertelement <2 x double> %91, double %86, i64 1
  br label %if.end189

if.end189:                                        ; preds = %if.then165, %if.end161
  %nrtr.0 = phi i32 [ %88, %if.then165 ], [ 0, %if.end161 ]
  %Vrt.0 = phi double [ %87, %if.then165 ], [ 0.000000e+00, %if.end161 ]
  %Hrr2.0 = phi double [ %89, %if.then165 ], [ 0.000000e+00, %if.end161 ]
  %Urr2.0 = phi double [ %90, %if.then165 ], [ 0.000000e+00, %if.end161 ]
  %93 = phi <2 x double> [ %92, %if.then165 ], [ zeroinitializer, %if.end161 ]
  %cmp192 = icmp slt i32 %25, %74
  br i1 %cmp192, label %if.then193, label %if.end217

if.then193:                                       ; preds = %if.end189
  %idxprom197 = sext i32 %55 to i64
  %arrayidx198 = getelementptr inbounds double, ptr %30, i64 %idxprom197
  %arrayidx203 = getelementptr inbounds double, ptr %31, i64 %idxprom197
  %94 = load double, ptr %arrayidx203, align 8, !tbaa !70
  %arrayidx208 = getelementptr inbounds double, ptr %32, i64 %idxprom197
  %95 = load double, ptr %arrayidx198, align 8, !tbaa !70
  %96 = load double, ptr %arrayidx208, align 8, !tbaa !70
  %arrayidx210 = getelementptr inbounds i32, ptr %6, i64 %idxprom197
  %97 = load i32, ptr %arrayidx210, align 4, !tbaa !63
  %idxprom212 = sext i32 %97 to i64
  %arrayidx213 = getelementptr inbounds double, ptr %30, i64 %idxprom212
  %98 = load double, ptr %arrayidx213, align 8, !tbaa !70
  %arrayidx216 = getelementptr inbounds double, ptr %32, i64 %idxprom212
  %99 = load double, ptr %arrayidx216, align 8, !tbaa !70
  %100 = insertelement <2 x double> poison, double %95, i64 0
  %101 = insertelement <2 x double> %100, double %96, i64 1
  br label %if.end217

if.end217:                                        ; preds = %if.then193, %if.end189
  %nbrb.0 = phi i32 [ %97, %if.then193 ], [ 0, %if.end189 ]
  %Ubr.0 = phi double [ %94, %if.then193 ], [ 0.000000e+00, %if.end189 ]
  %Hbb2.0 = phi double [ %98, %if.then193 ], [ 0.000000e+00, %if.end189 ]
  %Vbb2.0 = phi double [ %99, %if.then193 ], [ 0.000000e+00, %if.end189 ]
  %102 = phi <2 x double> [ %101, %if.then193 ], [ zeroinitializer, %if.end189 ]
  %cmp220 = icmp slt i32 %25, %71
  br i1 %cmp220, label %if.then221, label %if.end245

if.then221:                                       ; preds = %if.end217
  %idxprom225 = sext i32 %54 to i64
  %arrayidx226 = getelementptr inbounds double, ptr %30, i64 %idxprom225
  %arrayidx231 = getelementptr inbounds double, ptr %31, i64 %idxprom225
  %103 = load double, ptr %arrayidx231, align 8, !tbaa !70
  %arrayidx236 = getelementptr inbounds double, ptr %32, i64 %idxprom225
  %104 = load double, ptr %arrayidx226, align 8, !tbaa !70
  %105 = load double, ptr %arrayidx236, align 8, !tbaa !70
  %arrayidx238 = getelementptr inbounds i32, ptr %7, i64 %idxprom225
  %106 = load i32, ptr %arrayidx238, align 4, !tbaa !63
  %idxprom240 = sext i32 %106 to i64
  %arrayidx241 = getelementptr inbounds double, ptr %30, i64 %idxprom240
  %107 = load double, ptr %arrayidx241, align 8, !tbaa !70
  %arrayidx244 = getelementptr inbounds double, ptr %32, i64 %idxprom240
  %108 = load double, ptr %arrayidx244, align 8, !tbaa !70
  %109 = insertelement <2 x double> poison, double %104, i64 0
  %110 = insertelement <2 x double> %109, double %105, i64 1
  br label %if.end245

if.end245:                                        ; preds = %if.then221, %if.end217
  %ntrt.0 = phi i32 [ %106, %if.then221 ], [ 0, %if.end217 ]
  %Utr.0 = phi double [ %103, %if.then221 ], [ 0.000000e+00, %if.end217 ]
  %Htt2.0 = phi double [ %107, %if.then221 ], [ 0.000000e+00, %if.end217 ]
  %Vtt2.0 = phi double [ %108, %if.then221 ], [ 0.000000e+00, %if.end217 ]
  %111 = phi <2 x double> [ %110, %if.then221 ], [ zeroinitializer, %if.end217 ]
  %mul246 = fmul double %68, %68
  %112 = insertelement <2 x double> poison, double %73, i64 0
  %113 = insertelement <2 x double> %112, double %72, i64 1
  %114 = fmul <2 x double> %113, %113
  %115 = insertelement <2 x double> poison, double %34, i64 0
  %116 = insertelement <2 x double> %115, double %33, i64 1
  %117 = insertelement <2 x double> poison, double %68, i64 0
  %118 = shufflevector <2 x double> %117, <2 x double> poison, <2 x i32> zeroinitializer
  %119 = fmul <2 x double> %116, %118
  %120 = insertelement <2 x double> poison, double %37, i64 0
  %121 = insertelement <2 x double> %120, double %38, i64 1
  %122 = insertelement <2 x double> poison, double %72, i64 0
  %123 = shufflevector <2 x double> %122, <2 x double> poison, <2 x i32> zeroinitializer
  %124 = fmul <2 x double> %121, %123
  %div6.i = fdiv double %68, %72
  %cmp.i.i = fcmp olt double %div6.i, 1.000000e+00
  %.sroa.speculated46.i = select i1 %cmp.i.i, double %div6.i, double 1.000000e+00
  %div11.i = fdiv double %72, %68
  %cmp.i38.i = fcmp olt double %div11.i, 1.000000e+00
  %.sroa.speculated45.i = select i1 %cmp.i38.i, double %div11.i, double 1.000000e+00
  %125 = extractelement <2 x double> %114, i64 1
  %div16.i = fdiv double %mul246, %125
  %cmp.i40.i = fcmp olt double %div16.i, 5.000000e-01
  %.sroa.speculated44.i = select i1 %cmp.i40.i, double %div16.i, double 5.000000e-01
  %mul18.i = fmul double %125, %.sroa.speculated44.i
  %div21.i = fdiv double %125, %mul246
  %cmp.i42.i = fcmp olt double %div21.i, 5.000000e-01
  %.sroa.speculated.i = select i1 %cmp.i42.i, double %div21.i, double 5.000000e-01
  %mul23.i = fmul double %mul246, %.sroa.speculated.i
  %mul249 = fmul double %38, %38
  %div = fdiv double %mul249, %37
  %mul250 = fmul double %37, %37
  %mul251 = fmul double %mul250, 4.900000e+00
  %add = fadd double %mul251, %div
  %mul252 = fmul double %33, %33
  %div253 = fdiv double %mul252, %34
  %mul254 = fmul double %34, %34
  %mul255 = fmul double %mul254, 4.900000e+00
  %add256 = fadd double %mul255, %div253
  %mul260 = fmul double %38, %39
  %div261 = fdiv double %mul260, %37
  %mul262 = fmul double %33, %35
  %div263 = fdiv double %mul262, %34
  %mul4.i2057 = fmul double %div263, %72
  %126 = insertelement <2 x double> %122, double %mul18.i, i64 1
  %127 = insertelement <2 x double> %117, double %mul23.i, i64 1
  %128 = fadd <2 x double> %126, %127
  %129 = insertelement <2 x double> poison, double %35, i64 0
  %130 = insertelement <2 x double> %129, double %mul4.i2057, i64 1
  %131 = insertelement <2 x double> %127, double %.sroa.speculated46.i, i64 1
  %132 = fmul <2 x double> %130, %131
  %mul8.i2062 = fmul double %div261, %68
  %133 = insertelement <2 x double> poison, double %39, i64 0
  %134 = insertelement <2 x double> %133, double %mul8.i2062, i64 1
  %135 = insertelement <2 x double> %122, double %.sroa.speculated45.i, i64 1
  %136 = fmul <2 x double> %134, %135
  %137 = fadd <2 x double> %132, %136
  %138 = fsub <2 x double> %132, %136
  %139 = shufflevector <2 x double> %137, <2 x double> %138, <2 x i32> <i32 0, i32 3>
  %140 = fdiv <2 x double> %139, %128
  %141 = extractelement <2 x double> %140, i64 1
  %mul26.i2078 = fmul double %mul3.i, %141
  %142 = extractelement <2 x double> %140, i64 0
  %sub27.i2079 = fsub double %142, %mul26.i2078
  %mul268 = fmul double %70, %70
  %mul.i2080 = fmul double %41, %72
  %143 = insertelement <2 x double> poison, double %70, i64 0
  %144 = shufflevector <2 x double> %143, <2 x double> poison, <2 x i32> zeroinitializer
  %145 = fmul <2 x double> %116, %144
  %146 = extractelement <2 x double> %145, i64 0
  %add.i2082 = fadd double %mul.i2080, %146
  %mul4.i2086 = fmul double %42, %70
  %div6.i2087 = fdiv double %72, %70
  %cmp.i.i2088 = fcmp olt double %div6.i2087, 1.000000e+00
  %.sroa.speculated46.i2089 = select i1 %cmp.i.i2088, double %div6.i2087, double 1.000000e+00
  %mul7.i2090 = fmul double %mul4.i2086, %.sroa.speculated46.i2089
  %div11.i2092 = fdiv double %70, %72
  %cmp.i38.i2093 = fcmp olt double %div11.i2092, 1.000000e+00
  %.sroa.speculated45.i2094 = select i1 %cmp.i38.i2093, double %div11.i2092, double 1.000000e+00
  %div16.i2097 = fdiv double %125, %mul268
  %cmp.i40.i2098 = fcmp olt double %div16.i2097, 5.000000e-01
  %.sroa.speculated44.i2099 = select i1 %cmp.i40.i2098, double %div16.i2097, double 5.000000e-01
  %mul18.i2100 = fmul double %mul268, %.sroa.speculated44.i2099
  %div21.i2101 = fdiv double %mul268, %125
  %cmp.i42.i2102 = fcmp olt double %div21.i2101, 5.000000e-01
  %.sroa.speculated.i2103 = select i1 %cmp.i42.i2102, double %div21.i2101, double 5.000000e-01
  %mul23.i2104 = fmul double %125, %.sroa.speculated.i2103
  %mul275 = fmul double %42, %42
  %div276 = fdiv double %mul275, %41
  %mul277 = fmul double %41, %41
  %mul278 = fmul double %mul277, 4.900000e+00
  %add279 = fadd double %mul278, %div276
  %mul.i2109 = fmul double %42, %72
  %147 = extractelement <2 x double> %145, i64 1
  %add.i2111 = fadd double %mul.i2109, %147
  %mul4.i2115 = fmul double %add279, %70
  %mul7.i2119 = fmul double %mul4.i2115, %.sroa.speculated46.i2089
  %148 = insertelement <2 x double> poison, double %33, i64 0
  %149 = insertelement <2 x double> %148, double %add256, i64 1
  %150 = fmul <2 x double> %149, %123
  %151 = insertelement <2 x double> poison, double %.sroa.speculated46.i, i64 0
  %152 = shufflevector <2 x double> %151, <2 x double> poison, <2 x i32> zeroinitializer
  %153 = fmul <2 x double> %150, %152
  %154 = insertelement <2 x double> poison, double %.sroa.speculated45.i2094, i64 0
  %155 = shufflevector <2 x double> %154, <2 x double> poison, <2 x i32> zeroinitializer
  %156 = fmul <2 x double> %150, %155
  %157 = extractelement <2 x double> %156, i64 0
  %sub.i2096 = fsub double %mul7.i2090, %157
  %158 = extractelement <2 x double> %156, i64 1
  %sub.i2125 = fsub double %mul7.i2119, %158
  %mul285 = fmul double %42, %43
  %div286 = fdiv double %mul285, %41
  %mul.i2138 = fmul double %43, %72
  %mul4.i2144 = fmul double %div286, %70
  %mul7.i2148 = fmul double %mul4.i2144, %.sroa.speculated46.i2089
  %159 = insertelement <2 x double> %122, double %mul18.i2100, i64 1
  %160 = insertelement <2 x double> %143, double %mul23.i2104, i64 1
  %161 = fadd <2 x double> %159, %160
  %162 = extractelement <2 x double> %161, i64 0
  %div.i2084 = fdiv double %add.i2082, %162
  %div.i2113 = fdiv double %add.i2111, %162
  %163 = extractelement <2 x double> %161, i64 1
  %div25.i2106 = fdiv double %sub.i2096, %163
  %mul26.i2107 = fmul double %mul3.i, %div25.i2106
  %sub27.i2108 = fsub double %div.i2084, %mul26.i2107
  %div25.i2135 = fdiv double %sub.i2125, %163
  %mul26.i2136 = fmul double %mul3.i, %div25.i2135
  %164 = insertelement <2 x double> %160, double %.sroa.speculated45.i2094, i64 1
  %165 = fmul <2 x double> %130, %164
  %166 = extractelement <2 x double> %165, i64 0
  %add.i2140 = fadd double %mul.i2138, %166
  %div.i2142 = fdiv double %add.i2140, %162
  %167 = extractelement <2 x double> %165, i64 1
  %sub.i2154 = fsub double %mul7.i2148, %167
  %div25.i2164 = fdiv double %sub.i2154, %163
  %mul26.i2165 = fmul double %mul3.i, %div25.i2164
  %sub27.i2166 = fsub double %div.i2142, %mul26.i2165
  %mul290 = fmul double %75, %75
  %mul291 = fmul double %66, %66
  %168 = insertelement <2 x double> %115, double %35, i64 1
  %169 = insertelement <2 x double> poison, double %75, i64 0
  %170 = shufflevector <2 x double> %169, <2 x double> poison, <2 x i32> zeroinitializer
  %171 = fmul <2 x double> %168, %170
  %mul1.i2168 = fmul double %49, %66
  %172 = extractelement <2 x double> %171, i64 0
  %add.i2169 = fadd double %mul1.i2168, %172
  %add2.i2170 = fadd double %66, %75
  %div.i2171 = fdiv double %add.i2169, %add2.i2170
  %mul4.i2173 = fmul double %35, %66
  %div6.i2174 = fdiv double %75, %66
  %cmp.i.i2175 = fcmp olt double %div6.i2174, 1.000000e+00
  %.sroa.speculated46.i2176 = select i1 %cmp.i.i2175, double %div6.i2174, double 1.000000e+00
  %mul7.i2177 = fmul double %mul4.i2173, %.sroa.speculated46.i2176
  %mul8.i2178 = fmul double %51, %75
  %div11.i2179 = fdiv double %66, %75
  %cmp.i38.i2180 = fcmp olt double %div11.i2179, 1.000000e+00
  %.sroa.speculated45.i2181 = select i1 %cmp.i38.i2180, double %div11.i2179, double 1.000000e+00
  %mul13.i2182 = fmul double %mul8.i2178, %.sroa.speculated45.i2181
  %sub.i2183 = fsub double %mul7.i2177, %mul13.i2182
  %div16.i2184 = fdiv double %mul290, %mul291
  %cmp.i40.i2185 = fcmp olt double %div16.i2184, 5.000000e-01
  %.sroa.speculated44.i2186 = select i1 %cmp.i40.i2185, double %div16.i2184, double 5.000000e-01
  %mul18.i2187 = fmul double %mul291, %.sroa.speculated44.i2186
  %div21.i2188 = fdiv double %mul291, %mul290
  %cmp.i42.i2189 = fcmp olt double %div21.i2188, 5.000000e-01
  %.sroa.speculated.i2190 = select i1 %cmp.i42.i2189, double %div21.i2188, double 5.000000e-01
  %mul23.i2191 = fmul double %mul290, %.sroa.speculated.i2190
  %add24.i2192 = fadd double %mul18.i2187, %mul23.i2191
  %div25.i2193 = fdiv double %sub.i2183, %add24.i2192
  %mul26.i2194 = fmul double %mul3.i, %div25.i2193
  %sub27.i2195 = fsub double %div.i2171, %mul26.i2194
  %mul293 = fmul double %50, %51
  %div294 = fdiv double %mul293, %49
  %mul.i2196 = fmul double %33, %75
  %mul1.i2197 = fmul double %50, %66
  %add.i2198 = fadd double %mul1.i2197, %mul.i2196
  %div.i2200 = fdiv double %add.i2198, %add2.i2170
  %mul4.i2202 = fmul double %div263, %66
  %mul7.i2206 = fmul double %mul4.i2202, %.sroa.speculated46.i2176
  %mul8.i2207 = fmul double %div294, %75
  %mul13.i2211 = fmul double %mul8.i2207, %.sroa.speculated45.i2181
  %sub.i2212 = fsub double %mul7.i2206, %mul13.i2211
  %div25.i2222 = fdiv double %sub.i2212, %add24.i2192
  %mul26.i2223 = fmul double %mul3.i, %div25.i2222
  %sub27.i2224 = fsub double %div.i2200, %mul26.i2223
  %mul300 = fmul double %51, %51
  %div301 = fdiv double %mul300, %49
  %mul302 = fmul double %49, %49
  %mul303 = fmul double %mul302, 4.900000e+00
  %add304 = fadd double %mul303, %div301
  %mul305 = fmul double %35, %35
  %div306 = fdiv double %mul305, %34
  %add309 = fadd double %mul255, %div306
  %mul1.i2226 = fmul double %51, %66
  %173 = extractelement <2 x double> %171, i64 1
  %add.i2227 = fadd double %mul1.i2226, %173
  %div.i2229 = fdiv double %add.i2227, %add2.i2170
  %mul4.i2231 = fmul double %add309, %66
  %mul7.i2235 = fmul double %mul4.i2231, %.sroa.speculated46.i2176
  %mul8.i2236 = fmul double %add304, %75
  %mul13.i2240 = fmul double %mul8.i2236, %.sroa.speculated45.i2181
  %sub.i2241 = fsub double %mul7.i2235, %mul13.i2240
  %div25.i2251 = fdiv double %sub.i2241, %add24.i2192
  %mul26.i2252 = fmul double %mul3.i, %div25.i2251
  %mul.i2254 = fmul double %45, %66
  %174 = shufflevector <2 x double> %112, <2 x double> poison, <2 x i32> zeroinitializer
  %175 = fmul <2 x double> %168, %174
  %176 = extractelement <2 x double> %175, i64 0
  %add.i2256 = fadd double %mul.i2254, %176
  %add2.i2257 = fadd double %66, %73
  %div.i2258 = fdiv double %add.i2256, %add2.i2257
  %mul4.i2260 = fmul double %47, %73
  %div6.i2261 = fdiv double %66, %73
  %cmp.i.i2262 = fcmp olt double %div6.i2261, 1.000000e+00
  %.sroa.speculated46.i2263 = select i1 %cmp.i.i2262, double %div6.i2261, double 1.000000e+00
  %mul7.i2264 = fmul double %mul4.i2260, %.sroa.speculated46.i2263
  %div11.i2266 = fdiv double %73, %66
  %cmp.i38.i2267 = fcmp olt double %div11.i2266, 1.000000e+00
  %.sroa.speculated45.i2268 = select i1 %cmp.i38.i2267, double %div11.i2266, double 1.000000e+00
  %mul13.i2269 = fmul double %mul4.i2173, %.sroa.speculated45.i2268
  %sub.i2270 = fsub double %mul7.i2264, %mul13.i2269
  %177 = extractelement <2 x double> %114, i64 0
  %div16.i2271 = fdiv double %mul291, %177
  %cmp.i40.i2272 = fcmp olt double %div16.i2271, 5.000000e-01
  %.sroa.speculated44.i2273 = select i1 %cmp.i40.i2272, double %div16.i2271, double 5.000000e-01
  %mul18.i2274 = fmul double %177, %.sroa.speculated44.i2273
  %div21.i2275 = fdiv double %177, %mul291
  %cmp.i42.i2276 = fcmp olt double %div21.i2275, 5.000000e-01
  %.sroa.speculated.i2277 = select i1 %cmp.i42.i2276, double %div21.i2275, double 5.000000e-01
  %mul23.i2278 = fmul double %mul291, %.sroa.speculated.i2277
  %add24.i2279 = fadd double %mul18.i2274, %mul23.i2278
  %div25.i2280 = fdiv double %sub.i2270, %add24.i2279
  %mul26.i2281 = fmul double %mul3.i, %div25.i2280
  %sub27.i2282 = fsub double %div.i2258, %mul26.i2281
  %mul318 = fmul double %46, %47
  %div319 = fdiv double %mul318, %45
  %mul.i2283 = fmul double %46, %66
  %mul1.i2284 = fmul double %33, %73
  %add.i2285 = fadd double %mul.i2283, %mul1.i2284
  %div.i2287 = fdiv double %add.i2285, %add2.i2257
  %mul4.i2289 = fmul double %div319, %73
  %mul7.i2293 = fmul double %mul4.i2289, %.sroa.speculated46.i2263
  %mul13.i2298 = fmul double %mul4.i2202, %.sroa.speculated45.i2268
  %sub.i2299 = fsub double %mul7.i2293, %mul13.i2298
  %div25.i2309 = fdiv double %sub.i2299, %add24.i2279
  %mul26.i2310 = fmul double %mul3.i, %div25.i2309
  %sub27.i2311 = fsub double %div.i2287, %mul26.i2310
  %mul328 = fmul double %47, %47
  %div329 = fdiv double %mul328, %45
  %mul330 = fmul double %45, %45
  %mul331 = fmul double %mul330, 4.900000e+00
  %add332 = fadd double %mul331, %div329
  %mul.i2312 = fmul double %47, %66
  %178 = extractelement <2 x double> %175, i64 1
  %add.i2314 = fadd double %mul.i2312, %178
  %div.i2316 = fdiv double %add.i2314, %add2.i2257
  %mul4.i2318 = fmul double %add332, %73
  %mul7.i2322 = fmul double %mul4.i2318, %.sroa.speculated46.i2263
  %mul13.i2327 = fmul double %mul4.i2231, %.sroa.speculated45.i2268
  %sub.i2328 = fsub double %mul7.i2322, %mul13.i2327
  %div25.i2338 = fdiv double %sub.i2328, %add24.i2279
  %mul26.i2339 = fmul double %mul3.i, %div25.i2338
  %179 = fadd <2 x double> %124, %119
  %180 = insertelement <2 x double> poison, double %38, i64 0
  %181 = insertelement <2 x double> %180, double %add, i64 1
  %182 = fmul <2 x double> %181, %118
  %183 = insertelement <2 x double> poison, double %.sroa.speculated45.i, i64 0
  %184 = shufflevector <2 x double> %183, <2 x double> poison, <2 x i32> zeroinitializer
  %185 = fmul <2 x double> %182, %184
  %186 = shufflevector <2 x double> %128, <2 x double> poison, <2 x i32> zeroinitializer
  %187 = fdiv <2 x double> %179, %186
  %188 = fsub <2 x double> %153, %185
  %189 = shufflevector <2 x double> %128, <2 x double> poison, <2 x i32> <i32 1, i32 1>
  %190 = fdiv <2 x double> %188, %189
  %191 = fmul <2 x double> %17, %190
  %192 = fsub <2 x double> %187, %191
  %193 = extractelement <2 x double> %192, i64 0
  %194 = fmul <2 x double> %192, %192
  %mul338 = extractelement <2 x double> %194, i64 0
  %mul339 = fmul double %mul338, 4.900000e+00
  %195 = extractelement <2 x double> %192, i64 1
  %mul336 = fmul double %195, %195
  %div337 = fdiv double %mul336, %193
  %add340 = fadd double %div337, %mul339
  %mul341 = fmul double %195, %sub27.i2079
  %div342 = fdiv double %mul341, %193
  %mul345 = fmul double %sub27.i2108, %sub27.i2108
  %mul346 = fmul double %mul345, 4.900000e+00
  %sub27.i2137 = fsub double %div.i2113, %mul26.i2136
  %mul343 = fmul double %sub27.i2137, %sub27.i2137
  %div344 = fdiv double %mul343, %sub27.i2108
  %add347 = fadd double %div344, %mul346
  %mul348 = fmul double %sub27.i2137, %sub27.i2166
  %div349 = fdiv double %mul348, %sub27.i2108
  %sub27.i2253 = fsub double %div.i2229, %mul26.i2252
  %mul350 = fmul double %sub27.i2253, %sub27.i2224
  %div351 = fdiv double %mul350, %sub27.i2195
  %mul352 = fmul double %sub27.i2253, %sub27.i2253
  %div353 = fdiv double %mul352, %sub27.i2195
  %mul354 = fmul double %sub27.i2195, %sub27.i2195
  %mul355 = fmul double %mul354, 4.900000e+00
  %add356 = fadd double %div353, %mul355
  %sub27.i2340 = fsub double %div.i2316, %mul26.i2339
  %mul357 = fmul double %sub27.i2340, %sub27.i2311
  %div358 = fdiv double %mul357, %sub27.i2282
  %mul359 = fmul double %sub27.i2340, %sub27.i2340
  %div360 = fdiv double %mul359, %sub27.i2282
  %mul361 = fmul double %sub27.i2282, %sub27.i2282
  %mul362 = fmul double %mul361, 4.900000e+00
  %add363 = fadd double %div360, %mul362
  %196 = shufflevector <2 x double> %192, <2 x double> poison, <2 x i32> <i32 1, i32 poison>
  %197 = insertelement <2 x double> %196, double %add340, i64 1
  br i1 %cmp136, label %if.then367, label %if.end404

if.then367:                                       ; preds = %if.end245
  %198 = fmul <2 x double> %123, %84
  %199 = extractelement <2 x double> %84, i64 1
  %mul371 = fmul double %199, %199
  %200 = extractelement <2 x double> %84, i64 0
  %div372 = fdiv double %mul371, %200
  %201 = fmul <2 x double> %84, %84
  %mul373 = extractelement <2 x double> %201, i64 0
  %mul374 = fmul double %mul373, 4.900000e+00
  %add375 = fadd double %div372, %mul374
  %202 = fadd <2 x double> %119, %198
  %203 = fdiv <2 x double> %202, %186
  %204 = shufflevector <2 x double> %84, <2 x double> poison, <2 x i32> <i32 1, i32 poison>
  %205 = insertelement <2 x double> %204, double %add375, i64 1
  %206 = fmul <2 x double> %118, %205
  %207 = fmul <2 x double> %184, %206
  %208 = fsub <2 x double> %153, %207
  %209 = shufflevector <2 x double> %128, <2 x double> poison, <2 x i32> <i32 1, i32 1>
  %210 = fdiv <2 x double> %208, %209
  %211 = fmul <2 x double> %17, %210
  %212 = fsub <2 x double> %203, %211
  %mul384 = fmul double %Vlt.0, %199
  %div385 = fdiv double %mul384, %200
  %mul8.i2410 = fmul double %68, %div385
  %213 = insertelement <2 x double> %126, double %.sroa.speculated45.i, i64 1
  %214 = insertelement <2 x double> poison, double %Vlt.0, i64 0
  %215 = insertelement <2 x double> %214, double %mul8.i2410, i64 1
  %216 = fmul <2 x double> %213, %215
  %217 = fadd <2 x double> %132, %216
  %218 = fsub <2 x double> %132, %216
  %219 = shufflevector <2 x double> %217, <2 x double> %218, <2 x i32> <i32 0, i32 3>
  %220 = fdiv <2 x double> %219, %128
  %221 = extractelement <2 x double> %220, i64 1
  %mul26.i2426 = fmul double %mul3.i, %221
  %222 = extractelement <2 x double> %220, i64 0
  %sub27.i2427 = fsub double %222, %mul26.i2426
  %223 = extractelement <2 x double> %212, i64 1
  %mul393 = fmul double %223, %223
  %224 = extractelement <2 x double> %212, i64 0
  %div394 = fdiv double %mul393, %224
  %225 = fmul <2 x double> %212, %212
  %mul395 = extractelement <2 x double> %225, i64 0
  %mul396 = fmul double %mul395, 4.900000e+00
  %add397 = fadd double %mul396, %div394
  %226 = shufflevector <2 x double> %212, <2 x double> poison, <2 x i32> <i32 1, i32 poison>
  %227 = insertelement <2 x double> %226, double %add397, i64 1
  %228 = fadd <2 x double> %197, %227
  %229 = fmul <2 x double> %228, <double 5.000000e-01, double 5.000000e-01>
  %mul400 = fmul double %sub27.i2427, %223
  %div401 = fdiv double %mul400, %224
  %add402 = fadd double %div342, %div401
  %mul403 = fmul double %add402, 5.000000e-01
  br label %if.end404

if.end404:                                        ; preds = %if.then367, %if.end245
  %Vxfluxminus.0 = phi double [ %mul403, %if.then367 ], [ %div342, %if.end245 ]
  %230 = phi <2 x double> [ %212, %if.then367 ], [ zeroinitializer, %if.end245 ]
  %231 = phi <2 x double> [ %229, %if.then367 ], [ %197, %if.end245 ]
  %232 = insertelement <2 x double> poison, double %sub27.i2137, i64 0
  %233 = insertelement <2 x double> %232, double %add347, i64 1
  br i1 %cmp164, label %if.then408, label %if.end445

if.then408:                                       ; preds = %if.end404
  %234 = fmul <2 x double> %123, %93
  %235 = extractelement <2 x double> %93, i64 1
  %mul417 = fmul double %235, %235
  %236 = extractelement <2 x double> %93, i64 0
  %div418 = fdiv double %mul417, %236
  %237 = fmul <2 x double> %93, %93
  %mul419 = extractelement <2 x double> %237, i64 0
  %mul420 = fmul double %mul419, 4.900000e+00
  %add421 = fadd double %mul420, %div418
  %238 = fadd <2 x double> %145, %234
  %239 = shufflevector <2 x double> %161, <2 x double> poison, <2 x i32> zeroinitializer
  %240 = fdiv <2 x double> %238, %239
  %241 = shufflevector <2 x double> %93, <2 x double> poison, <2 x i32> <i32 1, i32 poison>
  %242 = insertelement <2 x double> %241, double %add421, i64 1
  %243 = fmul <2 x double> %144, %242
  %244 = insertelement <2 x double> poison, double %.sroa.speculated46.i2089, i64 0
  %245 = shufflevector <2 x double> %244, <2 x double> poison, <2 x i32> zeroinitializer
  %246 = fmul <2 x double> %245, %243
  %247 = fsub <2 x double> %246, %156
  %248 = shufflevector <2 x double> %161, <2 x double> poison, <2 x i32> <i32 1, i32 1>
  %249 = fdiv <2 x double> %247, %248
  %250 = fmul <2 x double> %17, %249
  %251 = fsub <2 x double> %240, %250
  %mul427 = fmul double %235, %Vrt.0
  %div428 = fdiv double %mul427, %236
  %mul4.i2492 = fmul double %70, %div428
  %252 = insertelement <2 x double> %159, double %.sroa.speculated46.i2089, i64 1
  %253 = insertelement <2 x double> poison, double %Vrt.0, i64 0
  %254 = insertelement <2 x double> %253, double %mul4.i2492, i64 1
  %255 = fmul <2 x double> %252, %254
  %256 = fadd <2 x double> %255, %165
  %257 = fsub <2 x double> %255, %165
  %258 = shufflevector <2 x double> %256, <2 x double> %257, <2 x i32> <i32 0, i32 3>
  %259 = fdiv <2 x double> %258, %161
  %260 = extractelement <2 x double> %259, i64 1
  %mul26.i2513 = fmul double %mul3.i, %260
  %261 = extractelement <2 x double> %259, i64 0
  %sub27.i2514 = fsub double %261, %mul26.i2513
  %262 = extractelement <2 x double> %251, i64 1
  %mul434 = fmul double %262, %262
  %263 = extractelement <2 x double> %251, i64 0
  %div435 = fdiv double %mul434, %263
  %264 = fmul <2 x double> %251, %251
  %mul436 = extractelement <2 x double> %264, i64 0
  %mul437 = fmul double %mul436, 4.900000e+00
  %add438 = fadd double %mul437, %div435
  %265 = shufflevector <2 x double> %251, <2 x double> poison, <2 x i32> <i32 1, i32 poison>
  %266 = insertelement <2 x double> %265, double %add438, i64 1
  %267 = fadd <2 x double> %233, %266
  %268 = fmul <2 x double> %267, <double 5.000000e-01, double 5.000000e-01>
  %mul441 = fmul double %262, %sub27.i2514
  %div442 = fdiv double %mul441, %263
  %add443 = fadd double %div349, %div442
  %mul444 = fmul double %add443, 5.000000e-01
  br label %if.end445

if.end445:                                        ; preds = %if.then408, %if.end404
  %Vxfluxplus.0 = phi double [ %mul444, %if.then408 ], [ %div349, %if.end404 ]
  %269 = phi <2 x double> [ %251, %if.then408 ], [ zeroinitializer, %if.end404 ]
  %270 = phi <2 x double> [ %268, %if.then408 ], [ %233, %if.end404 ]
  %271 = insertelement <2 x double> poison, double %sub27.i2253, i64 0
  %272 = insertelement <2 x double> %271, double %div351, i64 1
  br i1 %cmp192, label %if.then449, label %if.end486

if.then449:                                       ; preds = %if.end445
  %273 = fmul <2 x double> %123, %102
  %274 = insertelement <2 x double> poison, double %35, i64 0
  %275 = insertelement <2 x double> %274, double %add309, i64 1
  %276 = fmul <2 x double> %275, %123
  %277 = shufflevector <2 x double> %114, <2 x double> poison, <4 x i32> <i32 1, i32 poison, i32 poison, i32 poison>
  %278 = insertelement <4 x double> %277, double %mul290, i64 1
  %279 = insertelement <4 x double> %278, double %72, i64 2
  %280 = insertelement <4 x double> %279, double %75, i64 3
  %281 = shufflevector <2 x double> %114, <2 x double> poison, <4 x i32> <i32 poison, i32 1, i32 poison, i32 poison>
  %282 = shufflevector <4 x double> %281, <4 x double> %280, <4 x i32> <i32 5, i32 1, i32 7, i32 6>
  %283 = fdiv <4 x double> %280, %282
  %284 = fcmp olt <4 x double> %283, <double 5.000000e-01, double 5.000000e-01, double 1.000000e+00, double 1.000000e+00>
  %285 = extractelement <4 x i1> %284, i64 3
  %286 = extractelement <4 x double> %283, i64 3
  %.sroa.speculated46.i2524 = select i1 %285, double %286, double 1.000000e+00
  %287 = extractelement <4 x i1> %284, i64 2
  %288 = extractelement <4 x double> %283, i64 2
  %.sroa.speculated45.i2529 = select i1 %287, double %288, double 1.000000e+00
  %289 = extractelement <4 x i1> %284, i64 1
  %290 = extractelement <4 x double> %283, i64 1
  %.sroa.speculated44.i2534 = select i1 %289, double %290, double 5.000000e-01
  %mul18.i2535 = fmul double %125, %.sroa.speculated44.i2534
  %291 = extractelement <4 x i1> %284, i64 0
  %292 = extractelement <4 x double> %283, i64 0
  %.sroa.speculated.i2538 = select i1 %291, double %292, double 5.000000e-01
  %mul23.i2539 = fmul double %mul290, %.sroa.speculated.i2538
  %293 = extractelement <2 x double> %102, i64 1
  %mul453 = fmul double %Ubr.0, %293
  %294 = extractelement <2 x double> %102, i64 0
  %div454 = fdiv double %mul453, %294
  %mul8.i2555 = fmul double %75, %div454
  %mul13.i2559 = fmul double %.sroa.speculated45.i2529, %mul8.i2555
  %295 = insertelement <2 x double> %122, double %mul18.i2535, i64 1
  %296 = insertelement <2 x double> %169, double %mul23.i2539, i64 1
  %297 = fadd <2 x double> %295, %296
  %298 = insertelement <2 x double> %295, double %mul4.i2057, i64 1
  %299 = insertelement <2 x double> poison, double %Ubr.0, i64 0
  %300 = insertelement <2 x double> %299, double %.sroa.speculated46.i2524, i64 1
  %301 = fmul <2 x double> %298, %300
  %302 = insertelement <2 x double> poison, double %mul.i2196, i64 0
  %303 = insertelement <2 x double> %302, double %mul13.i2559, i64 1
  %304 = fadd <2 x double> %301, %303
  %305 = fsub <2 x double> %301, %303
  %306 = shufflevector <2 x double> %304, <2 x double> %305, <2 x i32> <i32 0, i32 3>
  %307 = fdiv <2 x double> %306, %297
  %308 = extractelement <2 x double> %307, i64 1
  %mul26.i2571 = fmul double %mul3.i, %308
  %309 = extractelement <2 x double> %307, i64 0
  %sub27.i2572 = fsub double %309, %mul26.i2571
  %mul460 = fmul double %293, %293
  %div461 = fdiv double %mul460, %294
  %310 = fmul <2 x double> %102, %102
  %mul462 = extractelement <2 x double> %310, i64 0
  %mul463 = fmul double %mul462, 4.900000e+00
  %add464 = fadd double %mul463, %div461
  %311 = fadd <2 x double> %171, %273
  %312 = shufflevector <2 x double> %297, <2 x double> poison, <2 x i32> zeroinitializer
  %313 = fdiv <2 x double> %311, %312
  %314 = insertelement <2 x double> poison, double %.sroa.speculated46.i2524, i64 0
  %315 = shufflevector <2 x double> %314, <2 x double> poison, <2 x i32> zeroinitializer
  %316 = fmul <2 x double> %276, %315
  %317 = shufflevector <2 x double> %102, <2 x double> poison, <2 x i32> <i32 1, i32 poison>
  %318 = insertelement <2 x double> %317, double %add464, i64 1
  %319 = fmul <2 x double> %170, %318
  %320 = insertelement <2 x double> poison, double %.sroa.speculated45.i2529, i64 0
  %321 = shufflevector <2 x double> %320, <2 x double> poison, <2 x i32> zeroinitializer
  %322 = fmul <2 x double> %321, %319
  %323 = fsub <2 x double> %316, %322
  %324 = shufflevector <2 x double> %297, <2 x double> poison, <2 x i32> <i32 1, i32 1>
  %325 = fdiv <2 x double> %323, %324
  %326 = fmul <2 x double> %17, %325
  %327 = fsub <2 x double> %313, %326
  %328 = extractelement <2 x double> %327, i64 1
  %mul475 = fmul double %sub27.i2572, %328
  %329 = extractelement <2 x double> %327, i64 0
  %div476 = fdiv double %mul475, %329
  %330 = shufflevector <2 x double> %327, <2 x double> poison, <2 x i32> <i32 1, i32 poison>
  %331 = insertelement <2 x double> %330, double %div476, i64 1
  %332 = fadd <2 x double> %272, %331
  %333 = fmul <2 x double> %332, <double 5.000000e-01, double 5.000000e-01>
  %mul479 = fmul double %328, %328
  %div480 = fdiv double %mul479, %329
  %334 = fmul <2 x double> %327, %327
  %mul481 = extractelement <2 x double> %334, i64 0
  %mul482 = fmul double %mul481, 4.900000e+00
  %add483 = fadd double %mul482, %div480
  %add484 = fadd double %add356, %add483
  %mul485 = fmul double %add484, 5.000000e-01
  br label %if.end486

if.end486:                                        ; preds = %if.then449, %if.end445
  %Vyfluxminus.0 = phi double [ %mul485, %if.then449 ], [ %add356, %if.end445 ]
  %335 = phi <2 x double> [ %327, %if.then449 ], [ zeroinitializer, %if.end445 ]
  %336 = phi <2 x double> [ %333, %if.then449 ], [ %272, %if.end445 ]
  %337 = insertelement <2 x double> poison, double %sub27.i2340, i64 0
  %338 = insertelement <2 x double> %337, double %div358, i64 1
  br i1 %cmp220, label %if.then490, label %if.end527

if.then490:                                       ; preds = %if.end486
  %339 = fmul <2 x double> %123, %111
  %340 = shufflevector <2 x double> %114, <2 x double> poison, <4 x i32> <i32 0, i32 1, i32 poison, i32 poison>
  %341 = insertelement <4 x double> %340, double %73, i64 2
  %342 = insertelement <4 x double> %341, double %72, i64 3
  %343 = shufflevector <4 x double> %342, <4 x double> poison, <4 x i32> <i32 1, i32 0, i32 3, i32 2>
  %344 = fdiv <4 x double> %342, %343
  %345 = insertelement <2 x double> poison, double %35, i64 0
  %346 = insertelement <2 x double> %345, double %add309, i64 1
  %347 = fmul <2 x double> %346, %123
  %348 = fcmp olt <4 x double> %344, <double 5.000000e-01, double 5.000000e-01, double 1.000000e+00, double 1.000000e+00>
  %349 = extractelement <4 x i1> %348, i64 3
  %350 = extractelement <4 x double> %344, i64 3
  %.sroa.speculated46.i2611 = select i1 %349, double %350, double 1.000000e+00
  %351 = extractelement <4 x i1> %348, i64 2
  %352 = extractelement <4 x double> %344, i64 2
  %.sroa.speculated45.i2616 = select i1 %351, double %352, double 1.000000e+00
  %353 = extractelement <4 x i1> %348, i64 1
  %354 = extractelement <4 x double> %344, i64 1
  %.sroa.speculated44.i2621 = select i1 %353, double %354, double 5.000000e-01
  %mul18.i2622 = fmul double %177, %.sroa.speculated44.i2621
  %355 = extractelement <4 x i1> %348, i64 0
  %356 = extractelement <4 x double> %344, i64 0
  %.sroa.speculated.i2625 = select i1 %355, double %356, double 5.000000e-01
  %mul23.i2626 = fmul double %125, %.sroa.speculated.i2625
  %357 = extractelement <2 x double> %111, i64 1
  %mul496 = fmul double %Utr.0, %357
  %358 = extractelement <2 x double> %111, i64 0
  %div497 = fdiv double %mul496, %358
  %mul4.i2637 = fmul double %73, %div497
  %mul13.i2646 = fmul double %mul4.i2057, %.sroa.speculated45.i2616
  %359 = insertelement <2 x double> %122, double %mul18.i2622, i64 1
  %360 = insertelement <2 x double> %112, double %mul23.i2626, i64 1
  %361 = fadd <2 x double> %359, %360
  %362 = insertelement <2 x double> %359, double %.sroa.speculated46.i2611, i64 1
  %363 = insertelement <2 x double> poison, double %Utr.0, i64 0
  %364 = insertelement <2 x double> %363, double %mul4.i2637, i64 1
  %365 = fmul <2 x double> %362, %364
  %366 = insertelement <2 x double> poison, double %mul1.i2284, i64 0
  %367 = insertelement <2 x double> %366, double %mul13.i2646, i64 1
  %368 = fadd <2 x double> %365, %367
  %369 = fsub <2 x double> %365, %367
  %370 = shufflevector <2 x double> %368, <2 x double> %369, <2 x i32> <i32 0, i32 3>
  %371 = fdiv <2 x double> %370, %361
  %372 = extractelement <2 x double> %371, i64 1
  %mul26.i2658 = fmul double %mul3.i, %372
  %373 = extractelement <2 x double> %371, i64 0
  %sub27.i2659 = fsub double %373, %mul26.i2658
  %mul506 = fmul double %357, %357
  %div507 = fdiv double %mul506, %358
  %374 = fmul <2 x double> %111, %111
  %mul508 = extractelement <2 x double> %374, i64 0
  %mul509 = fmul double %mul508, 4.900000e+00
  %add510 = fadd double %mul509, %div507
  %375 = fadd <2 x double> %175, %339
  %376 = shufflevector <2 x double> %361, <2 x double> poison, <2 x i32> zeroinitializer
  %377 = fdiv <2 x double> %375, %376
  %378 = shufflevector <2 x double> %111, <2 x double> poison, <2 x i32> <i32 1, i32 poison>
  %379 = insertelement <2 x double> %378, double %add510, i64 1
  %380 = fmul <2 x double> %174, %379
  %381 = insertelement <2 x double> poison, double %.sroa.speculated46.i2611, i64 0
  %382 = shufflevector <2 x double> %381, <2 x double> poison, <2 x i32> zeroinitializer
  %383 = fmul <2 x double> %382, %380
  %384 = insertelement <2 x double> poison, double %.sroa.speculated45.i2616, i64 0
  %385 = shufflevector <2 x double> %384, <2 x double> poison, <2 x i32> zeroinitializer
  %386 = fmul <2 x double> %347, %385
  %387 = fsub <2 x double> %383, %386
  %388 = shufflevector <2 x double> %361, <2 x double> poison, <2 x i32> <i32 1, i32 1>
  %389 = fdiv <2 x double> %387, %388
  %390 = fmul <2 x double> %17, %389
  %391 = fsub <2 x double> %377, %390
  %392 = extractelement <2 x double> %391, i64 1
  %mul516 = fmul double %sub27.i2659, %392
  %393 = extractelement <2 x double> %391, i64 0
  %div517 = fdiv double %mul516, %393
  %394 = shufflevector <2 x double> %391, <2 x double> poison, <2 x i32> <i32 1, i32 poison>
  %395 = insertelement <2 x double> %394, double %div517, i64 1
  %396 = fadd <2 x double> %338, %395
  %397 = fmul <2 x double> %396, <double 5.000000e-01, double 5.000000e-01>
  %mul520 = fmul double %392, %392
  %div521 = fdiv double %mul520, %393
  %398 = fmul <2 x double> %391, %391
  %mul522 = extractelement <2 x double> %398, i64 0
  %mul523 = fmul double %mul522, 4.900000e+00
  %add524 = fadd double %mul523, %div521
  %add525 = fadd double %add363, %add524
  %mul526 = fmul double %add525, 5.000000e-01
  br label %if.end527

if.end527:                                        ; preds = %if.then490, %if.end486
  %Vyfluxplus.0 = phi double [ %mul526, %if.then490 ], [ %add363, %if.end486 ]
  %399 = phi <2 x double> [ %391, %if.then490 ], [ zeroinitializer, %if.end486 ]
  %400 = phi <2 x double> [ %397, %if.then490 ], [ %338, %if.end486 ]
  %arrayidx531 = getelementptr inbounds i32, ptr %8, i64 %idxprom92
  %401 = load i32, ptr %arrayidx531, align 4, !tbaa !63
  %cmp532 = icmp slt i32 %67, %401
  br i1 %cmp532, label %if.then533, label %if.end548

if.then533:                                       ; preds = %if.end527
  %arrayidx536 = getelementptr inbounds i32, ptr %7, i64 %idxprom92
  %402 = load i32, ptr %arrayidx536, align 4, !tbaa !63
  %idxprom537 = sext i32 %402 to i64
  %arrayidx538 = getelementptr inbounds double, ptr %30, i64 %idxprom537
  %403 = load double, ptr %arrayidx538, align 8, !tbaa !70
  %add539 = fadd double %56, %403
  %mul540 = fmul double %add539, 5.000000e-01
  %arrayidx545 = getelementptr inbounds double, ptr %31, i64 %idxprom537
  %404 = load double, ptr %arrayidx545, align 8, !tbaa !70
  %add546 = fadd double %57, %404
  %mul547 = fmul double %add546, 5.000000e-01
  br label %if.end548

if.end548:                                        ; preds = %if.then533, %if.end527
  %Ull.0 = phi double [ %mul547, %if.then533 ], [ %57, %if.end527 ]
  %Hll.0 = phi double [ %mul540, %if.then533 ], [ %56, %if.end527 ]
  %405 = extractelement <2 x double> %93, i64 0
  %add553 = fadd double %41, %405
  %mul554 = fmul double %add553, 5.000000e-01
  %406 = extractelement <2 x double> %93, i64 1
  %add555 = fadd double %42, %406
  %mul556 = fmul double %add555, 5.000000e-01
  %Hr2.0 = select i1 %cmp164, double %mul554, double %41
  %Ur2.0 = select i1 %cmp164, double %mul556, double %42
  %407 = extractelement <2 x double> %128, i64 0
  %mul559 = fmul double %407, 5.000000e-01
  %div560 = fdiv double %195, %193
  %408 = call double @llvm.fabs.f64(double %div560)
  %mul561 = fmul double %193, 9.800000e+00
  %call562 = call double @sqrt(double noundef %mul561) #24
  %add563 = fadd double %408, %call562
  %sub = fsub double %34, %37
  %sub564 = fsub double %37, %Hll.0
  %sub565 = fsub double %Hr2.0, %34
  %mul.i2689 = fmul double %add563, 5.000000e-01
  %mul1.i2690 = fmul double %mul.i2689, %deltaT
  %div.i2691 = fdiv double %mul1.i2690, %mul559
  %sub.i2692 = fsub double 1.000000e+00, %div.i2691
  %mul2.i = fmul double %div.i2691, %sub.i2692
  %mul3.i2693 = fmul double %sub, %sub
  %cmp.i.i2694 = fcmp olt double %mul3.i2693, 1.000000e-30
  %409 = fdiv double 1.000000e+00, %mul3.i2693
  %div5.i = select i1 %cmp.i.i2694, double 0x46293E5939A08CE9, double %409
  %mul6.i = fmul double %sub, %sub565
  %mul7.i2695 = fmul double %div5.i, %mul6.i
  %mul8.i2696 = fmul double %sub, %sub564
  %mul9.i = fmul double %div5.i, %mul8.i2696
  %mul10.i = fmul double %mul2.i, 5.000000e-01
  %cmp.i24.i = fcmp olt double %mul7.i2695, 1.000000e+00
  %.sroa.speculated33.i = select i1 %cmp.i24.i, double %mul7.i2695, double 1.000000e+00
  %cmp.i26.i = fcmp olt double %mul9.i, %.sroa.speculated33.i
  %.sroa.speculated30.i = select i1 %cmp.i26.i, double %mul9.i, double %.sroa.speculated33.i
  %cmp.i28.i = fcmp olt double %.sroa.speculated30.i, 0.000000e+00
  %410 = fsub double 1.000000e+00, %.sroa.speculated30.i
  %sub16.i = select i1 %cmp.i28.i, double 1.000000e+00, double %410
  %mul17.i = fmul double %sub16.i, %mul10.i
  %mul568 = fmul double %sub, %mul17.i
  %411 = load i32, ptr %arrayidx119, align 4, !tbaa !63
  %cmp571 = icmp slt i32 %25, %411
  br i1 %cmp571, label %if.then572, label %if.end602

if.then572:                                       ; preds = %if.end548
  %idxprom573 = sext i32 %52 to i64
  %arrayidx574 = getelementptr inbounds i32, ptr %8, i64 %idxprom573
  %412 = load i32, ptr %arrayidx574, align 4, !tbaa !63
  %idxprom575 = sext i32 %nltl.0 to i64
  %arrayidx576 = getelementptr inbounds i32, ptr %8, i64 %idxprom575
  %413 = load i32, ptr %arrayidx576, align 4, !tbaa !63
  %cmp577 = icmp slt i32 %412, %413
  br i1 %cmp577, label %if.then578, label %if.end586

if.then578:                                       ; preds = %if.then572
  %414 = load ptr, ptr %H, align 8, !tbaa !47
  %arrayidx581 = getelementptr inbounds i32, ptr %7, i64 %idxprom575
  %415 = load i32, ptr %arrayidx581, align 4, !tbaa !63
  %idxprom582 = sext i32 %415 to i64
  %arrayidx583 = getelementptr inbounds double, ptr %414, i64 %idxprom582
  %416 = load double, ptr %arrayidx583, align 8, !tbaa !70
  %add584 = fadd double %Hll2.0, %416
  %mul585 = fmul double %add584, 5.000000e-01
  br label %if.end586

if.end586:                                        ; preds = %if.then578, %if.then572
  %Hll2.1 = phi double [ %mul585, %if.then578 ], [ %Hll2.0, %if.then572 ]
  %417 = extractelement <2 x double> %230, i64 0
  %418 = extractelement <2 x double> %230, i64 1
  %div589 = fdiv double %418, %417
  %419 = call double @llvm.fabs.f64(double %div589)
  %mul590 = fmul double %417, 9.800000e+00
  %call591 = call double @sqrt(double noundef %mul590) #24
  %add592 = fadd double %419, %call591
  %420 = extractelement <2 x double> %84, i64 0
  %sub593 = fsub double %34, %420
  %sub594 = fsub double %420, %Hll2.1
  %mul.i2697 = fmul double %add592, 5.000000e-01
  %mul1.i2698 = fmul double %mul.i2697, %deltaT
  %div.i2699 = fdiv double %mul1.i2698, %mul559
  %sub.i2700 = fsub double 1.000000e+00, %div.i2699
  %mul2.i2701 = fmul double %div.i2699, %sub.i2700
  %mul3.i2702 = fmul double %sub593, %sub593
  %cmp.i.i2703 = fcmp olt double %mul3.i2702, 1.000000e-30
  %421 = fdiv double 1.000000e+00, %mul3.i2702
  %div5.i2704 = select i1 %cmp.i.i2703, double 0x46293E5939A08CE9, double %421
  %mul6.i2705 = fmul double %sub593, %sub565
  %mul7.i2706 = fmul double %div5.i2704, %mul6.i2705
  %mul8.i2707 = fmul double %sub593, %sub594
  %mul9.i2708 = fmul double %div5.i2704, %mul8.i2707
  %mul10.i2709 = fmul double %mul2.i2701, 5.000000e-01
  %cmp.i24.i2710 = fcmp olt double %mul7.i2706, 1.000000e+00
  %.sroa.speculated33.i2711 = select i1 %cmp.i24.i2710, double %mul7.i2706, double 1.000000e+00
  %cmp.i26.i2712 = fcmp olt double %mul9.i2708, %.sroa.speculated33.i2711
  %.sroa.speculated30.i2713 = select i1 %cmp.i26.i2712, double %mul9.i2708, double %.sroa.speculated33.i2711
  %cmp.i28.i2714 = fcmp olt double %.sroa.speculated30.i2713, 0.000000e+00
  %422 = fsub double 1.000000e+00, %.sroa.speculated30.i2713
  %sub16.i2715 = select i1 %cmp.i28.i2714, double 1.000000e+00, double %422
  %mul17.i2716 = fmul double %sub16.i2715, %mul10.i2709
  %mul598 = fmul double %sub593, %mul17.i2716
  %add599 = fadd double %mul568, %mul598
  %mul600 = fmul double %add599, 5.000000e-01
  %mul601 = fmul double %mul600, 5.000000e-01
  br label %if.end602

if.end602:                                        ; preds = %if.end586, %if.end548
  %wminusx_H.0 = phi double [ %mul601, %if.end586 ], [ %mul568, %if.end548 ]
  %423 = load i32, ptr %arrayidx123, align 4, !tbaa !63
  %arrayidx606 = getelementptr inbounds i32, ptr %8, i64 %idxprom98
  %424 = load i32, ptr %arrayidx606, align 4, !tbaa !63
  %cmp607 = icmp slt i32 %423, %424
  br i1 %cmp607, label %if.then608, label %if.end623

if.then608:                                       ; preds = %if.end602
  %425 = load ptr, ptr %H, align 8, !tbaa !47
  %arrayidx611 = getelementptr inbounds i32, ptr %7, i64 %idxprom98
  %426 = load i32, ptr %arrayidx611, align 4, !tbaa !63
  %idxprom612 = sext i32 %426 to i64
  %arrayidx613 = getelementptr inbounds double, ptr %425, i64 %idxprom612
  %427 = load double, ptr %arrayidx613, align 8, !tbaa !70
  %add614 = fadd double %58, %427
  %mul615 = fmul double %add614, 5.000000e-01
  %428 = load ptr, ptr %U, align 8, !tbaa !48
  %arrayidx620 = getelementptr inbounds double, ptr %428, i64 %idxprom612
  %429 = load double, ptr %arrayidx620, align 8, !tbaa !70
  %add621 = fadd double %59, %429
  %mul622 = fmul double %add621, 5.000000e-01
  br label %if.end623

if.end623:                                        ; preds = %if.then608, %if.end602
  %Urr.0 = phi double [ %mul622, %if.then608 ], [ %59, %if.end602 ]
  %Hrr.0 = phi double [ %mul615, %if.then608 ], [ %58, %if.end602 ]
  %430 = load i32, ptr %arrayidx119, align 4, !tbaa !63
  %cmp626 = icmp slt i32 %25, %430
  %431 = extractelement <2 x double> %84, i64 0
  %add628 = fadd double %37, %431
  %mul629 = fmul double %add628, 5.000000e-01
  %432 = extractelement <2 x double> %84, i64 1
  %add630 = fadd double %38, %432
  %mul631 = fmul double %add630, 5.000000e-01
  %Hl2.0 = select i1 %cmp626, double %mul629, double %37
  %Ul2.0 = select i1 %cmp626, double %mul631, double %38
  %mul634 = fmul double %162, 5.000000e-01
  %div635 = fdiv double %sub27.i2137, %sub27.i2108
  %433 = call double @llvm.fabs.f64(double %div635)
  %mul636 = fmul double %sub27.i2108, 9.800000e+00
  %call637 = call double @sqrt(double noundef %mul636) #24
  %add638 = fadd double %433, %call637
  %sub639 = fsub double %41, %34
  %sub640 = fsub double %34, %Hl2.0
  %sub641 = fsub double %Hrr.0, %41
  %mul.i2717 = fmul double %add638, 5.000000e-01
  %mul1.i2718 = fmul double %mul.i2717, %deltaT
  %div.i2719 = fdiv double %mul1.i2718, %mul634
  %sub.i2720 = fsub double 1.000000e+00, %div.i2719
  %mul2.i2721 = fmul double %div.i2719, %sub.i2720
  %mul3.i2722 = fmul double %sub639, %sub639
  %cmp.i.i2723 = fcmp olt double %mul3.i2722, 1.000000e-30
  %434 = fdiv double 1.000000e+00, %mul3.i2722
  %div5.i2724 = select i1 %cmp.i.i2723, double 0x46293E5939A08CE9, double %434
  %mul6.i2725 = fmul double %sub639, %sub641
  %mul7.i2726 = fmul double %div5.i2724, %mul6.i2725
  %mul8.i2727 = fmul double %sub639, %sub640
  %mul9.i2728 = fmul double %div5.i2724, %mul8.i2727
  %mul10.i2729 = fmul double %mul2.i2721, 5.000000e-01
  %cmp.i24.i2730 = fcmp olt double %mul7.i2726, 1.000000e+00
  %.sroa.speculated33.i2731 = select i1 %cmp.i24.i2730, double %mul7.i2726, double 1.000000e+00
  %cmp.i26.i2732 = fcmp olt double %mul9.i2728, %.sroa.speculated33.i2731
  %.sroa.speculated30.i2733 = select i1 %cmp.i26.i2732, double %mul9.i2728, double %.sroa.speculated33.i2731
  %cmp.i28.i2734 = fcmp olt double %.sroa.speculated30.i2733, 0.000000e+00
  %435 = fsub double 1.000000e+00, %.sroa.speculated30.i2733
  %sub16.i2735 = select i1 %cmp.i28.i2734, double 1.000000e+00, double %435
  %mul17.i2736 = fmul double %mul10.i2729, %sub16.i2735
  %mul644 = fmul double %sub639, %mul17.i2736
  %436 = load i32, ptr %arrayidx123, align 4, !tbaa !63
  %cmp647 = icmp slt i32 %25, %436
  br i1 %cmp647, label %if.then648, label %if.end678

if.then648:                                       ; preds = %if.end623
  %idxprom649 = sext i32 %53 to i64
  %arrayidx650 = getelementptr inbounds i32, ptr %8, i64 %idxprom649
  %437 = load i32, ptr %arrayidx650, align 4, !tbaa !63
  %idxprom651 = sext i32 %nrtr.0 to i64
  %arrayidx652 = getelementptr inbounds i32, ptr %8, i64 %idxprom651
  %438 = load i32, ptr %arrayidx652, align 4, !tbaa !63
  %cmp653 = icmp slt i32 %437, %438
  br i1 %cmp653, label %if.then654, label %if.end662

if.then654:                                       ; preds = %if.then648
  %439 = load ptr, ptr %H, align 8, !tbaa !47
  %arrayidx657 = getelementptr inbounds i32, ptr %7, i64 %idxprom651
  %440 = load i32, ptr %arrayidx657, align 4, !tbaa !63
  %idxprom658 = sext i32 %440 to i64
  %arrayidx659 = getelementptr inbounds double, ptr %439, i64 %idxprom658
  %441 = load double, ptr %arrayidx659, align 8, !tbaa !70
  %add660 = fadd double %Hrr2.0, %441
  %mul661 = fmul double %add660, 5.000000e-01
  br label %if.end662

if.end662:                                        ; preds = %if.then654, %if.then648
  %Hrr2.1 = phi double [ %mul661, %if.then654 ], [ %Hrr2.0, %if.then648 ]
  %442 = extractelement <2 x double> %269, i64 0
  %443 = extractelement <2 x double> %269, i64 1
  %div665 = fdiv double %443, %442
  %444 = call double @llvm.fabs.f64(double %div665)
  %mul666 = fmul double %442, 9.800000e+00
  %call667 = call double @sqrt(double noundef %mul666) #24
  %add668 = fadd double %444, %call667
  %sub669 = fsub double %405, %34
  %sub671 = fsub double %Hrr2.1, %405
  %mul.i2737 = fmul double %add668, 5.000000e-01
  %mul1.i2738 = fmul double %mul.i2737, %deltaT
  %div.i2739 = fdiv double %mul1.i2738, %mul634
  %sub.i2740 = fsub double 1.000000e+00, %div.i2739
  %mul2.i2741 = fmul double %div.i2739, %sub.i2740
  %mul3.i2742 = fmul double %sub669, %sub669
  %cmp.i.i2743 = fcmp olt double %mul3.i2742, 1.000000e-30
  %445 = fdiv double 1.000000e+00, %mul3.i2742
  %div5.i2744 = select i1 %cmp.i.i2743, double 0x46293E5939A08CE9, double %445
  %mul6.i2745 = fmul double %sub669, %sub671
  %mul7.i2746 = fmul double %div5.i2744, %mul6.i2745
  %mul8.i2747 = fmul double %sub669, %sub640
  %mul9.i2748 = fmul double %div5.i2744, %mul8.i2747
  %mul10.i2749 = fmul double %mul2.i2741, 5.000000e-01
  %cmp.i24.i2750 = fcmp olt double %mul7.i2746, 1.000000e+00
  %.sroa.speculated33.i2751 = select i1 %cmp.i24.i2750, double %mul7.i2746, double 1.000000e+00
  %cmp.i26.i2752 = fcmp olt double %mul9.i2748, %.sroa.speculated33.i2751
  %.sroa.speculated30.i2753 = select i1 %cmp.i26.i2752, double %mul9.i2748, double %.sroa.speculated33.i2751
  %cmp.i28.i2754 = fcmp olt double %.sroa.speculated30.i2753, 0.000000e+00
  %446 = fsub double 1.000000e+00, %.sroa.speculated30.i2753
  %sub16.i2755 = select i1 %cmp.i28.i2754, double 1.000000e+00, double %446
  %mul17.i2756 = fmul double %mul10.i2749, %sub16.i2755
  %mul674 = fmul double %sub669, %mul17.i2756
  %add675 = fadd double %mul644, %mul674
  %mul676 = fmul double %add675, 5.000000e-01
  %mul677 = fmul double %mul676, 5.000000e-01
  br label %if.end678

if.end678:                                        ; preds = %if.end662, %if.end623
  %wplusx_H.0 = phi double [ %mul677, %if.end662 ], [ %mul644, %if.end623 ]
  %call683 = call double @sqrt(double noundef %mul561) #24
  %add684 = fadd double %408, %call683
  %sub685 = fsub double %33, %38
  %sub686 = fsub double %38, %Ull.0
