; ModuleID = '/usr/local/google/home/aeubanks/repos/test-suite/MicroBenchmarks/libs/benchmark/test/skip_with_error_test.cc'
source_filename = "/usr/local/google/home/aeubanks/repos/test-suite/MicroBenchmarks/libs/benchmark/test/skip_with_error_test.cc"
target datalayout = "e-m:e-p270:32:32-p271:32:32-p272:64:64-i64:64-f80:128-n8:16:32:64-S128"
target triple = "x86_64-unknown-linux-gnu"

%"class.std::ios_base::Init" = type { i8 }
%"class.std::vector" = type { %"struct.std::_Vector_base" }
%"struct.std::_Vector_base" = type { %"struct.std::_Vector_base<(anonymous namespace)::TestCase, std::allocator<(anonymous namespace)::TestCase>>::_Vector_impl" }
%"struct.std::_Vector_base<(anonymous namespace)::TestCase, std::allocator<(anonymous namespace)::TestCase>>::_Vector_impl" = type { %"struct.std::_Vector_base<(anonymous namespace)::TestCase, std::allocator<(anonymous namespace)::TestCase>>::_Vector_impl_data" }
%"struct.std::_Vector_base<(anonymous namespace)::TestCase, std::allocator<(anonymous namespace)::TestCase>>::_Vector_impl_data" = type { ptr, ptr, ptr }
%"class.benchmark::internal::LogType" = type { ptr }
%"class.std::basic_ostream" = type { ptr, %"class.std::basic_ios" }
%"class.std::basic_ios" = type { %"class.std::ios_base", ptr, i8, i8, ptr, ptr, ptr, ptr }
%"class.std::ios_base" = type { ptr, i64, i64, i32, i32, i32, ptr, %"struct.std::ios_base::_Words", [8 x %"struct.std::ios_base::_Words"], i32, ptr, %"class.std::locale" }
%"struct.std::ios_base::_Words" = type { ptr, i64 }
%"class.std::locale" = type { ptr }
%"struct.(anonymous namespace)::TestCase" = type { %"class.std::__cxx11::basic_string", i8, %"class.std::__cxx11::basic_string" }
%"class.std::__cxx11::basic_string" = type { %"struct.std::__cxx11::basic_string<char>::_Alloc_hider", i64, %union.anon }
%"struct.std::__cxx11::basic_string<char>::_Alloc_hider" = type { ptr }
%union.anon = type { i64, [8 x i8] }
%"class.benchmark::State" = type { i64, i64, i64, i8, i8, i8, %"class.std::vector.3", i64, %"class.std::map", i32, i32, ptr, ptr, ptr }
%"class.std::vector.3" = type { %"struct.std::_Vector_base.4" }
%"struct.std::_Vector_base.4" = type { %"struct.std::_Vector_base<long, std::allocator<long>>::_Vector_impl" }
%"struct.std::_Vector_base<long, std::allocator<long>>::_Vector_impl" = type { %"struct.std::_Vector_base<long, std::allocator<long>>::_Vector_impl_data" }
%"struct.std::_Vector_base<long, std::allocator<long>>::_Vector_impl_data" = type { ptr, ptr, ptr }
%"class.std::map" = type { %"class.std::_Rb_tree" }
%"class.std::_Rb_tree" = type { %"struct.std::_Rb_tree<std::__cxx11::basic_string<char>, std::pair<const std::__cxx11::basic_string<char>, benchmark::Counter>, std::_Select1st<std::pair<const std::__cxx11::basic_string<char>, benchmark::Counter>>, std::less<std::__cxx11::basic_string<char>>>::_Rb_tree_impl" }
%"struct.std::_Rb_tree<std::__cxx11::basic_string<char>, std::pair<const std::__cxx11::basic_string<char>, benchmark::Counter>, std::_Select1st<std::pair<const std::__cxx11::basic_string<char>, benchmark::Counter>>, std::less<std::__cxx11::basic_string<char>>>::_Rb_tree_impl" = type { %"struct.std::_Rb_tree_key_compare", %"struct.std::_Rb_tree_header" }
%"struct.std::_Rb_tree_key_compare" = type { %"struct.std::less" }
%"struct.std::less" = type { i8 }
%"struct.std::_Rb_tree_header" = type { %"struct.std::_Rb_tree_node_base", i64 }
%"struct.std::_Rb_tree_node_base" = type { i32, ptr, ptr, ptr }
%"class.benchmark::internal::CheckHandler" = type { ptr }
%"class.(anonymous namespace)::TestReporter" = type { %"class.benchmark::ConsoleReporter.base", %"class.std::vector.36" }
%"class.benchmark::ConsoleReporter.base" = type <{ %"class.benchmark::BenchmarkReporter", i32, [4 x i8], i64, %"class.std::map", i8 }>
%"class.benchmark::BenchmarkReporter" = type { ptr, ptr, ptr }
%"class.std::vector.36" = type { %"struct.std::_Vector_base.37" }
%"struct.std::_Vector_base.37" = type { %"struct.std::_Vector_base<benchmark::BenchmarkReporter::Run, std::allocator<benchmark::BenchmarkReporter::Run>>::_Vector_impl" }
%"struct.std::_Vector_base<benchmark::BenchmarkReporter::Run, std::allocator<benchmark::BenchmarkReporter::Run>>::_Vector_impl" = type { %"struct.std::_Vector_base<benchmark::BenchmarkReporter::Run, std::allocator<benchmark::BenchmarkReporter::Run>>::_Vector_impl_data" }
%"struct.std::_Vector_base<benchmark::BenchmarkReporter::Run, std::allocator<benchmark::BenchmarkReporter::Run>>::_Vector_impl_data" = type { ptr, ptr, ptr }
%"class.benchmark::ConsoleReporter" = type <{ %"class.benchmark::BenchmarkReporter", i32, [4 x i8], i64, %"class.std::map", i8, [7 x i8] }>
%"struct.benchmark::BenchmarkReporter::Run" = type { %"struct.benchmark::BenchmarkName", i64, i64, i32, %"class.std::__cxx11::basic_string", i32, %"class.std::__cxx11::basic_string", i8, %"class.std::__cxx11::basic_string", i64, i64, i64, i64, i32, double, double, double, i32, ptr, i64, ptr, i8, i8, %"class.std::map", ptr, double }
%"struct.benchmark::BenchmarkName" = type { %"class.std::__cxx11::basic_string", %"class.std::__cxx11::basic_string", %"class.std::__cxx11::basic_string", %"class.std::__cxx11::basic_string", %"class.std::__cxx11::basic_string", %"class.std::__cxx11::basic_string", %"class.std::__cxx11::basic_string" }
%"struct.std::_Rb_tree_node" = type { %"struct.std::_Rb_tree_node_base", %"struct.__gnu_cxx::__aligned_membuf" }
%"struct.__gnu_cxx::__aligned_membuf" = type { [48 x i8] }
%"struct.std::_Rb_tree<std::__cxx11::basic_string<char>, std::pair<const std::__cxx11::basic_string<char>, benchmark::Counter>, std::_Select1st<std::pair<const std::__cxx11::basic_string<char>, benchmark::Counter>>, std::less<std::__cxx11::basic_string<char>>>::_Reuse_or_alloc_node" = type { ptr, ptr, ptr }
%"struct.std::pair" = type { %"class.std::__cxx11::basic_string", %"class.benchmark::Counter" }
%"class.benchmark::Counter" = type { double, i32, i32 }
%"struct.std::_Rb_tree<std::__cxx11::basic_string<char>, std::pair<const std::__cxx11::basic_string<char>, benchmark::Counter>, std::_Select1st<std::pair<const std::__cxx11::basic_string<char>, benchmark::Counter>>, std::less<std::__cxx11::basic_string<char>>>::_Alloc_node" = type { ptr }
%"class.std::ctype" = type <{ %"class.std::locale::facet.base", [4 x i8], ptr, i8, [7 x i8], ptr, ptr, ptr, i8, [256 x i8], [256 x i8], i8, [6 x i8] }>
%"class.std::locale::facet.base" = type <{ ptr, i32 }>
%"class.benchmark::internal::FunctionBenchmark" = type { %"class.benchmark::internal::Benchmark", ptr }
%"class.benchmark::internal::Benchmark" = type { ptr, %"class.std::__cxx11::basic_string", i32, %"class.std::vector.11", %"class.std::vector.16", i32, i8, i32, double, i64, i32, i8, i8, i8, i32, ptr, %"class.std::vector.21", %"class.std::vector.31", ptr, ptr }
%"class.std::vector.11" = type { %"struct.std::_Vector_base.12" }
%"struct.std::_Vector_base.12" = type { %"struct.std::_Vector_base<std::__cxx11::basic_string<char>, std::allocator<std::__cxx11::basic_string<char>>>::_Vector_impl" }
%"struct.std::_Vector_base<std::__cxx11::basic_string<char>, std::allocator<std::__cxx11::basic_string<char>>>::_Vector_impl" = type { %"struct.std::_Vector_base<std::__cxx11::basic_string<char>, std::allocator<std::__cxx11::basic_string<char>>>::_Vector_impl_data" }
%"struct.std::_Vector_base<std::__cxx11::basic_string<char>, std::allocator<std::__cxx11::basic_string<char>>>::_Vector_impl_data" = type { ptr, ptr, ptr }
%"class.std::vector.16" = type { %"struct.std::_Vector_base.17" }
%"struct.std::_Vector_base.17" = type { %"struct.std::_Vector_base<std::vector<long>, std::allocator<std::vector<long>>>::_Vector_impl" }
%"struct.std::_Vector_base<std::vector<long>, std::allocator<std::vector<long>>>::_Vector_impl" = type { %"struct.std::_Vector_base<std::vector<long>, std::allocator<std::vector<long>>>::_Vector_impl_data" }
%"struct.std::_Vector_base<std::vector<long>, std::allocator<std::vector<long>>>::_Vector_impl_data" = type { ptr, ptr, ptr }
%"class.std::vector.21" = type { %"struct.std::_Vector_base.22" }
%"struct.std::_Vector_base.22" = type { %"struct.std::_Vector_base<benchmark::internal::Statistics, std::allocator<benchmark::internal::Statistics>>::_Vector_impl" }
%"struct.std::_Vector_base<benchmark::internal::Statistics, std::allocator<benchmark::internal::Statistics>>::_Vector_impl" = type { %"struct.std::_Vector_base<benchmark::internal::Statistics, std::allocator<benchmark::internal::Statistics>>::_Vector_impl_data" }
%"struct.std::_Vector_base<benchmark::internal::Statistics, std::allocator<benchmark::internal::Statistics>>::_Vector_impl_data" = type { ptr, ptr, ptr }
%"class.std::vector.31" = type { %"struct.std::_Vector_base.32" }
%"struct.std::_Vector_base.32" = type { %"struct.std::_Vector_base<int, std::allocator<int>>::_Vector_impl" }
%"struct.std::_Vector_base<int, std::allocator<int>>::_Vector_impl" = type { %"struct.std::_Vector_base<int, std::allocator<int>>::_Vector_impl_data" }
%"struct.std::_Vector_base<int, std::allocator<int>>::_Vector_impl_data" = type { ptr, ptr, ptr }

$_ZStplIcSt11char_traitsIcESaIcEENSt7__cxx1112basic_stringIT_T0_T1_EEPKS5_RKS8_ = comdat any

$__clang_call_terminate = comdat any

$_ZN9benchmark17BenchmarkReporter8FinalizeEv = comdat any

$_ZNSt6vectorIN9benchmark17BenchmarkReporter3RunESaIS2_EE15_M_range_insertIN9__gnu_cxx17__normal_iteratorIPKS2_S4_EEEEvNS7_IPS2_S4_EET_SD_St20forward_iterator_tag = comdat any

$_ZN9benchmark17BenchmarkReporter3RunC2EOS1_ = comdat any

$_ZN9benchmark13BenchmarkNameC2EOS0_ = comdat any

$_ZN9benchmark17BenchmarkReporter3RunD2Ev = comdat any

$_ZN9benchmark13BenchmarkNameD2Ev = comdat any

$_ZNSt8_Rb_treeINSt7__cxx1112basic_stringIcSt11char_traitsIcESaIcEEESt4pairIKS5_N9benchmark7CounterEESt10_Select1stISA_ESt4lessIS5_ESaISA_EE8_M_eraseEPSt13_Rb_tree_nodeISA_E = comdat any

$_ZN9benchmark17BenchmarkReporter3RunaSEOS1_ = comdat any

$_ZN9benchmark13BenchmarkNameaSEOS0_ = comdat any

$_ZNSt11__copy_moveILb0ELb0ESt26random_access_iterator_tagE8__copy_mIPKN9benchmark17BenchmarkReporter3RunEPS5_EET0_T_SA_S9_ = comdat any

$_ZNSt8_Rb_treeINSt7__cxx1112basic_stringIcSt11char_traitsIcESaIcEEESt4pairIKS5_N9benchmark7CounterEESt10_Select1stISA_ESt4lessIS5_ESaISA_EEaSERKSG_ = comdat any

$_ZNSt8_Rb_treeINSt7__cxx1112basic_stringIcSt11char_traitsIcESaIcEEESt4pairIKS5_N9benchmark7CounterEESt10_Select1stISA_ESt4lessIS5_ESaISA_EE20_Reuse_or_alloc_nodeD2Ev = comdat any

$_ZNSt8_Rb_treeINSt7__cxx1112basic_stringIcSt11char_traitsIcESaIcEEESt4pairIKS5_N9benchmark7CounterEESt10_Select1stISA_ESt4lessIS5_ESaISA_EE7_M_copyILb0ENSG_20_Reuse_or_alloc_nodeEEEPSt13_Rb_tree_nodeISA_ESL_PSt18_Rb_tree_node_baseRT0_ = comdat any

$_ZNSt8_Rb_treeINSt7__cxx1112basic_stringIcSt11char_traitsIcESaIcEEESt4pairIKS5_N9benchmark7CounterEESt10_Select1stISA_ESt4lessIS5_ESaISA_EE20_Reuse_or_alloc_nodeclIRKSA_EEPSt13_Rb_tree_nodeISA_EOT_ = comdat any

$_ZNSt8_Rb_treeINSt7__cxx1112basic_stringIcSt11char_traitsIcESaIcEEESt4pairIKS5_N9benchmark7CounterEESt10_Select1stISA_ESt4lessIS5_ESaISA_EE17_M_construct_nodeIJRKSA_EEEvPSt13_Rb_tree_nodeISA_EDpOT_ = comdat any

$_ZN9benchmark17BenchmarkReporter3RunC2ERKS1_ = comdat any

$_ZN9benchmark13BenchmarkNameC2ERKS0_ = comdat any

$_ZNSt8_Rb_treeINSt7__cxx1112basic_stringIcSt11char_traitsIcESaIcEEESt4pairIKS5_N9benchmark7CounterEESt10_Select1stISA_ESt4lessIS5_ESaISA_EE7_M_copyILb0ENSG_11_Alloc_nodeEEEPSt13_Rb_tree_nodeISA_ESL_PSt18_Rb_tree_node_baseRT0_ = comdat any

$_ZN9benchmark8internal12CheckHandlerC2EPKcS3_S3_i = comdat any

$_ZN9benchmark8internal12CheckHandlerD2Ev = comdat any

$_ZN9benchmark8internal16CallAbortHandlerEv = comdat any

$_ZZN9benchmark8internal18GetNullLogInstanceEvE3log = comdat any

$_ZGVZN9benchmark8internal18GetNullLogInstanceEvE3log = comdat any

$_ZZN9benchmark8internal19GetErrorLogInstanceEvE3log = comdat any

$_ZGVZN9benchmark8internal19GetErrorLogInstanceEvE3log = comdat any

@_ZStL8__ioinit = internal global %"class.std::ios_base::Init" zeroinitializer, align 1
@__dso_handle = external hidden global i8
@_ZN12_GLOBAL__N_115ExpectedResultsE = internal global %"class.std::vector" zeroinitializer, align 8
@.str = private unnamed_addr constant [14 x i8] c"error message\00", align 1
@_ZL27benchmark_uniq_2_benchmark_ = internal unnamed_addr global ptr null, align 8
@.str.4 = private unnamed_addr constant [20 x i8] c"BM_error_no_running\00", align 1
@dummy68 = hidden local_unnamed_addr global i32 0, align 4
@.str.7 = private unnamed_addr constant [6 x i8] c"false\00", align 1
@.str.8 = private unnamed_addr constant [109 x i8] c"/usr/local/google/home/aeubanks/repos/test-suite/MicroBenchmarks/libs/benchmark/test/skip_with_error_test.cc\00", align 1
@__PRETTY_FUNCTION__._Z23BM_error_before_runningRN9benchmark5StateE = private unnamed_addr constant [49 x i8] c"void BM_error_before_running(benchmark::State &)\00", align 1
@_ZL27benchmark_uniq_3_benchmark_ = internal unnamed_addr global ptr null, align 8
@.str.10 = private unnamed_addr constant [24 x i8] c"BM_error_before_running\00", align 1
@dummy77 = hidden local_unnamed_addr global i32 0, align 4
@__PRETTY_FUNCTION__._Z29BM_error_before_running_batchRN9benchmark5StateE = private unnamed_addr constant [55 x i8] c"void BM_error_before_running_batch(benchmark::State &)\00", align 1
@_ZL27benchmark_uniq_4_benchmark_ = internal unnamed_addr global ptr null, align 8
@.str.13 = private unnamed_addr constant [30 x i8] c"BM_error_before_running_batch\00", align 1
@dummy86 = hidden local_unnamed_addr global i32 0, align 4
@__PRETTY_FUNCTION__._Z33BM_error_before_running_range_forRN9benchmark5StateE = private unnamed_addr constant [59 x i8] c"void BM_error_before_running_range_for(benchmark::State &)\00", align 1
@_ZL27benchmark_uniq_5_benchmark_ = internal unnamed_addr global ptr null, align 8
@.str.16 = private unnamed_addr constant [34 x i8] c"BM_error_before_running_range_for\00", align 1
@dummy95 = hidden local_unnamed_addr global i32 0, align 4
@.str.18 = private unnamed_addr constant [11 x i8] c"first_iter\00", align 1
@__PRETTY_FUNCTION__._Z23BM_error_during_runningRN9benchmark5StateE = private unnamed_addr constant [49 x i8] c"void BM_error_during_running(benchmark::State &)\00", align 1
@_ZL27benchmark_uniq_6_benchmark_ = internal unnamed_addr global ptr null, align 8
@.str.20 = private unnamed_addr constant [24 x i8] c"BM_error_during_running\00", align 1
@dummy118 = hidden local_unnamed_addr global i32 0, align 4
@.str.22 = private unnamed_addr constant [13 x i8] c"/1/threads:1\00", align 1
@.str.23 = private unnamed_addr constant [13 x i8] c"/1/threads:2\00", align 1
@.str.24 = private unnamed_addr constant [13 x i8] c"/1/threads:4\00", align 1
@.str.25 = private unnamed_addr constant [13 x i8] c"/1/threads:8\00", align 1
@.str.26 = private unnamed_addr constant [13 x i8] c"/2/threads:1\00", align 1
@.str.27 = private unnamed_addr constant [13 x i8] c"/2/threads:2\00", align 1
@.str.28 = private unnamed_addr constant [13 x i8] c"/2/threads:4\00", align 1
@.str.29 = private unnamed_addr constant [13 x i8] c"/2/threads:8\00", align 1
@.str.31 = private unnamed_addr constant [70 x i8] c"state.max_iterations > 3 && \22test requires at least a few iterations\22\00", align 1
@__PRETTY_FUNCTION__._Z34BM_error_during_running_ranged_forRN9benchmark5StateE = private unnamed_addr constant [60 x i8] c"void BM_error_during_running_ranged_for(benchmark::State &)\00", align 1
@_ZL27benchmark_uniq_7_benchmark_ = internal unnamed_addr global ptr null, align 8
@.str.34 = private unnamed_addr constant [35 x i8] c"BM_error_during_running_ranged_for\00", align 1
@dummy140 = hidden local_unnamed_addr global i32 0, align 4
@.str.36 = private unnamed_addr constant [16 x i8] c"/1/iterations:5\00", align 1
@.str.37 = private unnamed_addr constant [16 x i8] c"/2/iterations:5\00", align 1
@_ZL27benchmark_uniq_8_benchmark_ = internal unnamed_addr global ptr null, align 8
@.str.39 = private unnamed_addr constant [23 x i8] c"BM_error_after_running\00", align 1
@dummy153 = hidden local_unnamed_addr global i32 0, align 4
@.str.41 = private unnamed_addr constant [11 x i8] c"/threads:1\00", align 1
@.str.42 = private unnamed_addr constant [11 x i8] c"/threads:2\00", align 1
@.str.43 = private unnamed_addr constant [11 x i8] c"/threads:4\00", align 1
@.str.44 = private unnamed_addr constant [11 x i8] c"/threads:8\00", align 1
@__PRETTY_FUNCTION__._Z21BM_error_while_pausedRN9benchmark5StateE = private unnamed_addr constant [47 x i8] c"void BM_error_while_paused(benchmark::State &)\00", align 1
@_ZL27benchmark_uniq_9_benchmark_ = internal unnamed_addr global ptr null, align 8
@.str.46 = private unnamed_addr constant [22 x i8] c"BM_error_while_paused\00", align 1
@dummy177 = hidden local_unnamed_addr global i32 0, align 4
@.str.48 = private unnamed_addr constant [28 x i8] c"EB != ExpectedResults.end()\00", align 1
@__PRETTY_FUNCTION__.main = private unnamed_addr constant [23 x i8] c"int main(int, char **)\00", align 1
@.str.49 = private unnamed_addr constant [28 x i8] c"EB == ExpectedResults.end()\00", align 1
@_ZTVN9benchmark8internal17FunctionBenchmarkE = external unnamed_addr constant { [5 x ptr] }, align 8
@.str.50 = private unnamed_addr constant [21 x i8] c"basic_string::append\00", align 1
@.str.51 = private unnamed_addr constant [26 x i8] c"vector::_M_realloc_insert\00", align 1
@.str.53 = private unnamed_addr constant [110 x i8] c"/usr/local/google/home/aeubanks/repos/test-suite/MicroBenchmarks/libs/benchmark/include/benchmark/benchmark.h\00", align 1
@.str.56 = private unnamed_addr constant [20 x i8] c"range_.size() > pos\00", align 1
@__PRETTY_FUNCTION__._ZNK9benchmark5State5rangeEm = private unnamed_addr constant [51 x i8] c"int64_t benchmark::State::range(std::size_t) const\00", align 1
@_ZTVN12_GLOBAL__N_112TestReporterE = internal unnamed_addr constant { [9 x ptr] } { [9 x ptr] [ptr null, ptr @_ZTIN12_GLOBAL__N_112TestReporterE, ptr @_ZN12_GLOBAL__N_112TestReporter13ReportContextERKN9benchmark17BenchmarkReporter7ContextE, ptr @_ZN12_GLOBAL__N_112TestReporter10ReportRunsERKSt6vectorIN9benchmark17BenchmarkReporter3RunESaIS4_EE, ptr @_ZN9benchmark17BenchmarkReporter8FinalizeEv, ptr @_ZN12_GLOBAL__N_112TestReporterD2Ev, ptr @_ZN12_GLOBAL__N_112TestReporterD0Ev, ptr @_ZN9benchmark15ConsoleReporter12PrintRunDataERKNS_17BenchmarkReporter3RunE, ptr @_ZN9benchmark15ConsoleReporter11PrintHeaderERKNS_17BenchmarkReporter3RunE] }, align 8
@_ZTVN10__cxxabiv120__si_class_type_infoE = external global ptr
@_ZTSN12_GLOBAL__N_112TestReporterE = internal constant [31 x i8] c"N12_GLOBAL__N_112TestReporterE\00", align 1
@_ZTIN9benchmark15ConsoleReporterE = external constant ptr
@_ZTIN12_GLOBAL__N_112TestReporterE = internal constant { ptr, ptr, ptr } { ptr getelementptr inbounds (ptr, ptr @_ZTVN10__cxxabiv120__si_class_type_infoE, i64 2), ptr @_ZTSN12_GLOBAL__N_112TestReporterE, ptr @_ZTIN9benchmark15ConsoleReporterE }, align 8
@_ZTVN9benchmark15ConsoleReporterE = external unnamed_addr constant { [9 x ptr] }, align 8
@.str.57 = private unnamed_addr constant [24 x i8] c"vector::_M_range_insert\00", align 1
@.str.58 = private unnamed_addr constant [29 x i8] c"name == run.benchmark_name()\00", align 1
@__func__._ZNK12_GLOBAL__N_18TestCase8CheckRunERKN9benchmark17BenchmarkReporter3RunE = private unnamed_addr constant [9 x i8] c"CheckRun\00", align 1
@.str.59 = private unnamed_addr constant [10 x i8] c"expected \00", align 1
@.str.60 = private unnamed_addr constant [6 x i8] c" got \00", align 1
@.str.61 = private unnamed_addr constant [37 x i8] c"error_occurred == run.error_occurred\00", align 1
@.str.62 = private unnamed_addr constant [35 x i8] c"error_message == run.error_message\00", align 1
@.str.63 = private unnamed_addr constant [20 x i8] c"run.iterations != 0\00", align 1
@_ZZN9benchmark8internal18GetNullLogInstanceEvE3log = linkonce_odr hidden local_unnamed_addr global %"class.benchmark::internal::LogType" zeroinitializer, comdat, align 8
@_ZGVZN9benchmark8internal18GetNullLogInstanceEvE3log = linkonce_odr hidden global i64 0, comdat, align 8
@.str.64 = private unnamed_addr constant [2 x i8] c":\00", align 1
@.str.65 = private unnamed_addr constant [3 x i8] c": \00", align 1
@.str.66 = private unnamed_addr constant [10 x i8] c": Check `\00", align 1
@.str.67 = private unnamed_addr constant [11 x i8] c"' failed. \00", align 1
@_ZZN9benchmark8internal19GetErrorLogInstanceEvE3log = linkonce_odr hidden global %"class.benchmark::internal::LogType" zeroinitializer, comdat, align 8
@_ZGVZN9benchmark8internal19GetErrorLogInstanceEvE3log = linkonce_odr hidden global i64 0, comdat, align 8
@_ZSt4clog = external global %"class.std::basic_ostream", align 8
@llvm.global_ctors = appending global [1 x { i32, ptr, ptr }] [{ i32, ptr, ptr } { i32 65535, ptr @_GLOBAL__sub_I_skip_with_error_test.cc, ptr null }]

declare noundef i32 @_ZN9benchmark8internal17InitializeStreamsEv() local_unnamed_addr #0

declare void @_ZNSt8ios_base4InitC1Ev(ptr noundef nonnull align 1 dereferenceable(1)) unnamed_addr #0

; Function Attrs: nounwind
declare void @_ZNSt8ios_base4InitD1Ev(ptr noundef nonnull align 1 dereferenceable(1)) unnamed_addr #1

; Function Attrs: nofree nounwind
declare i32 @__cxa_atexit(ptr, ptr, ptr) local_unnamed_addr #2

; Function Attrs: nounwind uwtable
define internal void @_ZNSt6vectorIN12_GLOBAL__N_18TestCaseESaIS1_EED2Ev(ptr nocapture noundef nonnull readonly align 8 dereferenceable(24) %this) unnamed_addr #3 align 2 personality ptr @__gxx_personality_v0 {
entry:
  %0 = load ptr, ptr %this, align 8, !tbaa !5
  %_M_finish = getelementptr inbounds %"struct.std::_Vector_base<(anonymous namespace)::TestCase, std::allocator<(anonymous namespace)::TestCase>>::_Vector_impl_data", ptr %this, i64 0, i32 1
  %1 = load ptr, ptr %_M_finish, align 8, !tbaa !10
  %cmp.not3.i.i.i = icmp eq ptr %0, %1
  br i1 %cmp.not3.i.i.i, label %invoke.cont, label %for.body.i.i.i

for.body.i.i.i:                                   ; preds = %entry, %_ZSt8_DestroyIN12_GLOBAL__N_18TestCaseEEvPT_.exit.i.i.i
  %__first.addr.04.i.i.i = phi ptr [ %incdec.ptr.i.i.i, %_ZSt8_DestroyIN12_GLOBAL__N_18TestCaseEEvPT_.exit.i.i.i ], [ %0, %entry ]
  %error_message.i.i.i.i.i = getelementptr inbounds %"struct.(anonymous namespace)::TestCase", ptr %__first.addr.04.i.i.i, i64 0, i32 2
  %2 = load ptr, ptr %error_message.i.i.i.i.i, align 8, !tbaa !11
  %3 = getelementptr inbounds %"struct.(anonymous namespace)::TestCase", ptr %__first.addr.04.i.i.i, i64 0, i32 2, i32 2
  %cmp.i.i.i.i.i.i.i.i = icmp eq ptr %2, %3
  br i1 %cmp.i.i.i.i.i.i.i.i, label %_ZNSt7__cxx1112basic_stringIcSt11char_traitsIcESaIcEED2Ev.exit.i.i.i.i.i, label %if.then.i.i.i.i.i.i.i

if.then.i.i.i.i.i.i.i:                            ; preds = %for.body.i.i.i
  tail call void @_ZdlPv(ptr noundef %2) #24
  br label %_ZNSt7__cxx1112basic_stringIcSt11char_traitsIcESaIcEED2Ev.exit.i.i.i.i.i

_ZNSt7__cxx1112basic_stringIcSt11char_traitsIcESaIcEED2Ev.exit.i.i.i.i.i: ; preds = %if.then.i.i.i.i.i.i.i, %for.body.i.i.i
  %4 = load ptr, ptr %__first.addr.04.i.i.i, align 8, !tbaa !11
  %5 = getelementptr inbounds %"class.std::__cxx11::basic_string", ptr %__first.addr.04.i.i.i, i64 0, i32 2
  %cmp.i.i.i2.i.i.i.i.i = icmp eq ptr %4, %5
  br i1 %cmp.i.i.i2.i.i.i.i.i, label %_ZSt8_DestroyIN12_GLOBAL__N_18TestCaseEEvPT_.exit.i.i.i, label %if.then.i.i3.i.i.i.i.i

if.then.i.i3.i.i.i.i.i:                           ; preds = %_ZNSt7__cxx1112basic_stringIcSt11char_traitsIcESaIcEED2Ev.exit.i.i.i.i.i
  tail call void @_ZdlPv(ptr noundef %4) #24
  br label %_ZSt8_DestroyIN12_GLOBAL__N_18TestCaseEEvPT_.exit.i.i.i

_ZSt8_DestroyIN12_GLOBAL__N_18TestCaseEEvPT_.exit.i.i.i: ; preds = %if.then.i.i3.i.i.i.i.i, %_ZNSt7__cxx1112basic_stringIcSt11char_traitsIcESaIcEED2Ev.exit.i.i.i.i.i
  %incdec.ptr.i.i.i = getelementptr inbounds %"struct.(anonymous namespace)::TestCase", ptr %__first.addr.04.i.i.i, i64 1
  %cmp.not.i.i.i = icmp eq ptr %incdec.ptr.i.i.i, %1
  br i1 %cmp.not.i.i.i, label %invoke.contthread-pre-split, label %for.body.i.i.i, !llvm.loop !15

invoke.contthread-pre-split:                      ; preds = %_ZSt8_DestroyIN12_GLOBAL__N_18TestCaseEEvPT_.exit.i.i.i
  %this.val.pr = load ptr, ptr %this, align 8, !tbaa !5
  br label %invoke.cont

invoke.cont:                                      ; preds = %invoke.contthread-pre-split, %entry
  %this.val = phi ptr [ %this.val.pr, %invoke.contthread-pre-split ], [ %0, %entry ]
  %tobool.not.i.i = icmp eq ptr %this.val, null
  br i1 %tobool.not.i.i, label %_ZNSt12_Vector_baseIN12_GLOBAL__N_18TestCaseESaIS1_EED2Ev.exit, label %if.then.i.i

if.then.i.i:                                      ; preds = %invoke.cont
  tail call void @_ZdlPv(ptr noundef nonnull %this.val) #24
  br label %_ZNSt12_Vector_baseIN12_GLOBAL__N_18TestCaseESaIS1_EED2Ev.exit

_ZNSt12_Vector_baseIN12_GLOBAL__N_18TestCaseESaIS1_EED2Ev.exit: ; preds = %invoke.cont, %if.then.i.i
  ret void
}

; Function Attrs: mustprogress uwtable
define hidden void @_Z19BM_error_no_runningRN9benchmark5StateE(ptr noundef nonnull align 8 dereferenceable(144) %state) #4 {
entry:
  tail call void @_ZN9benchmark5State13SkipWithErrorEPKc(ptr noundef nonnull align 8 dereferenceable(144) %state, ptr noundef nonnull @.str)
  ret void
}

declare void @_ZN9benchmark5State13SkipWithErrorEPKc(ptr noundef nonnull align 8 dereferenceable(144), ptr noundef) local_unnamed_addr #0

declare noundef ptr @_ZN9benchmark8internal25RegisterBenchmarkInternalEPNS0_9BenchmarkE(ptr noundef) local_unnamed_addr #0

; Function Attrs: nobuiltin allocsize(0)
declare noundef nonnull ptr @_Znwm(i64 noundef) local_unnamed_addr #5

declare i32 @__gxx_personality_v0(...)

; Function Attrs: nobuiltin nounwind
declare void @_ZdlPv(ptr noundef) local_unnamed_addr #6

; Function Attrs: uwtable
define internal fastcc void @_ZN12_GLOBAL__N_18AddCasesEPKcRKSt16initializer_listINS_8TestCaseEE(ptr noundef %base_name, ptr readonly %v.0.val, i64 %v.8.val) unnamed_addr #7 personality ptr @__gxx_personality_v0 {
entry:
  %__dnew.i.i8.i = alloca i64, align 8
  %__dnew.i.i.i = alloca i64, align 8
  %TC = alloca %"struct.(anonymous namespace)::TestCase", align 8
  %ref.tmp = alloca %"class.std::__cxx11::basic_string", align 8
  %add.ptr.i = getelementptr inbounds %"struct.(anonymous namespace)::TestCase", ptr %v.0.val, i64 %v.8.val
  %cmp.not5 = icmp eq i64 %v.8.val, 0
  br i1 %cmp.not5, label %for.cond.cleanup, label %for.body.lr.ph

for.body.lr.ph:                                   ; preds = %entry
  %0 = getelementptr inbounds %"class.std::__cxx11::basic_string", ptr %TC, i64 0, i32 2
  %_M_string_length.i.i.i.i.i = getelementptr inbounds %"class.std::__cxx11::basic_string", ptr %TC, i64 0, i32 1
  %error_occurred.i = getelementptr inbounds %"struct.(anonymous namespace)::TestCase", ptr %TC, i64 0, i32 1
  %error_message.i = getelementptr inbounds %"struct.(anonymous namespace)::TestCase", ptr %TC, i64 0, i32 2
  %1 = getelementptr inbounds %"struct.(anonymous namespace)::TestCase", ptr %TC, i64 0, i32 2, i32 2
  %_M_string_length.i.i.i.i16.i = getelementptr inbounds %"struct.(anonymous namespace)::TestCase", ptr %TC, i64 0, i32 2, i32 1
  %2 = getelementptr inbounds %"class.std::__cxx11::basic_string", ptr %ref.tmp, i64 0, i32 2
  %_M_string_length.i61.i = getelementptr inbounds %"class.std::__cxx11::basic_string", ptr %ref.tmp, i64 0, i32 1
  br label %for.body

for.cond.cleanup:                                 ; preds = %_ZN12_GLOBAL__N_18TestCaseD2Ev.exit, %entry
  ret void

for.body:                                         ; preds = %for.body.lr.ph, %_ZN12_GLOBAL__N_18TestCaseD2Ev.exit
  %__begin1.06 = phi ptr [ %v.0.val, %for.body.lr.ph ], [ %incdec.ptr, %_ZN12_GLOBAL__N_18TestCaseD2Ev.exit ]
  call void @llvm.lifetime.start.p0(i64 72, ptr nonnull %TC) #25
  store ptr %0, ptr %TC, align 8, !tbaa !17
  %3 = load ptr, ptr %__begin1.06, align 8, !tbaa !11
  %_M_string_length.i.i.i = getelementptr inbounds %"class.std::__cxx11::basic_string", ptr %__begin1.06, i64 0, i32 1
  %4 = load i64, ptr %_M_string_length.i.i.i, align 8, !tbaa !18
  call void @llvm.lifetime.start.p0(i64 8, ptr nonnull %__dnew.i.i.i) #25
  store i64 %4, ptr %__dnew.i.i.i, align 8, !tbaa !19
  %cmp.i.i.i = icmp ugt i64 %4, 15
  br i1 %cmp.i.i.i, label %if.then.i.i.i, label %if.end.i.i.i

if.then.i.i.i:                                    ; preds = %for.body
  %call2.i14.i.i = call noundef ptr @_ZNSt7__cxx1112basic_stringIcSt11char_traitsIcESaIcEE9_M_createERmm(ptr noundef nonnull align 8 dereferenceable(32) %TC, ptr noundef nonnull align 8 dereferenceable(8) %__dnew.i.i.i, i64 noundef 0)
  store ptr %call2.i14.i.i, ptr %TC, align 8, !tbaa !11
  %5 = load i64, ptr %__dnew.i.i.i, align 8, !tbaa !19
  store i64 %5, ptr %0, align 8, !tbaa !20
  br label %if.end.i.i.i

if.end.i.i.i:                                     ; preds = %if.then.i.i.i, %for.body
  %6 = phi ptr [ %call2.i14.i.i, %if.then.i.i.i ], [ %0, %for.body ]
  switch i64 %4, label %if.end.i.i.i.i.i.i [
    i64 1, label %if.then.i.i.i.i.i
    i64 0, label %_ZNSt7__cxx1112basic_stringIcSt11char_traitsIcESaIcEEC2ERKS4_.exit.i
  ]

if.then.i.i.i.i.i:                                ; preds = %if.end.i.i.i
  %7 = load i8, ptr %3, align 1, !tbaa !20
  store i8 %7, ptr %6, align 1, !tbaa !20
  br label %_ZNSt7__cxx1112basic_stringIcSt11char_traitsIcESaIcEEC2ERKS4_.exit.i

if.end.i.i.i.i.i.i:                               ; preds = %if.end.i.i.i
  call void @llvm.memcpy.p0.p0.i64(ptr align 1 %6, ptr align 1 %3, i64 %4, i1 false)
  br label %_ZNSt7__cxx1112basic_stringIcSt11char_traitsIcESaIcEEC2ERKS4_.exit.i

_ZNSt7__cxx1112basic_stringIcSt11char_traitsIcESaIcEEC2ERKS4_.exit.i: ; preds = %if.end.i.i.i.i.i.i, %if.then.i.i.i.i.i, %if.end.i.i.i
  %8 = load i64, ptr %__dnew.i.i.i, align 8, !tbaa !19
  store i64 %8, ptr %_M_string_length.i.i.i.i.i, align 8, !tbaa !18
  %9 = load ptr, ptr %TC, align 8, !tbaa !11
  %arrayidx.i.i.i.i = getelementptr inbounds i8, ptr %9, i64 %8
  store i8 0, ptr %arrayidx.i.i.i.i, align 1, !tbaa !20
  call void @llvm.lifetime.end.p0(i64 8, ptr nonnull %__dnew.i.i.i) #25
  %error_occurred3.i = getelementptr inbounds %"struct.(anonymous namespace)::TestCase", ptr %__begin1.06, i64 0, i32 1
  %10 = load i8, ptr %error_occurred3.i, align 8, !tbaa !21, !range !24, !noundef !25
  store i8 %10, ptr %error_occurred.i, align 8, !tbaa !21
  %error_message4.i = getelementptr inbounds %"struct.(anonymous namespace)::TestCase", ptr %__begin1.06, i64 0, i32 2
  store ptr %1, ptr %error_message.i, align 8, !tbaa !17
  %11 = load ptr, ptr %error_message4.i, align 8, !tbaa !11
  %_M_string_length.i.i9.i = getelementptr inbounds %"struct.(anonymous namespace)::TestCase", ptr %__begin1.06, i64 0, i32 2, i32 1
  %12 = load i64, ptr %_M_string_length.i.i9.i, align 8, !tbaa !18
  call void @llvm.lifetime.start.p0(i64 8, ptr nonnull %__dnew.i.i8.i) #25
  store i64 %12, ptr %__dnew.i.i8.i, align 8, !tbaa !19
  %cmp.i.i10.i = icmp ugt i64 %12, 15
  br i1 %cmp.i.i10.i, label %if.then.i.i12.i, label %if.end.i.i13.i

if.then.i.i12.i:                                  ; preds = %_ZNSt7__cxx1112basic_stringIcSt11char_traitsIcESaIcEEC2ERKS4_.exit.i
  %call2.i14.i1118.i = invoke noundef ptr @_ZNSt7__cxx1112basic_stringIcSt11char_traitsIcESaIcEE9_M_createERmm(ptr noundef nonnull align 8 dereferenceable(32) %error_message.i, ptr noundef nonnull align 8 dereferenceable(8) %__dnew.i.i8.i, i64 noundef 0)
          to label %call2.i14.i11.noexc.i unwind label %lpad.i

call2.i14.i11.noexc.i:                            ; preds = %if.then.i.i12.i
  store ptr %call2.i14.i1118.i, ptr %error_message.i, align 8, !tbaa !11
  %13 = load i64, ptr %__dnew.i.i8.i, align 8, !tbaa !19
  store i64 %13, ptr %1, align 8, !tbaa !20
  br label %if.end.i.i13.i

if.end.i.i13.i:                                   ; preds = %call2.i14.i11.noexc.i, %_ZNSt7__cxx1112basic_stringIcSt11char_traitsIcESaIcEEC2ERKS4_.exit.i
  %14 = phi ptr [ %call2.i14.i1118.i, %call2.i14.i11.noexc.i ], [ %1, %_ZNSt7__cxx1112basic_stringIcSt11char_traitsIcESaIcEEC2ERKS4_.exit.i ]
  switch i64 %12, label %if.end.i.i.i.i.i15.i [
    i64 1, label %if.then.i.i.i.i14.i
    i64 0, label %_ZN12_GLOBAL__N_18TestCaseC2ERKS0_.exit
  ]

if.then.i.i.i.i14.i:                              ; preds = %if.end.i.i13.i
  %15 = load i8, ptr %11, align 1, !tbaa !20
  store i8 %15, ptr %14, align 1, !tbaa !20
  br label %_ZN12_GLOBAL__N_18TestCaseC2ERKS0_.exit

if.end.i.i.i.i.i15.i:                             ; preds = %if.end.i.i13.i
  call void @llvm.memcpy.p0.p0.i64(ptr align 1 %14, ptr align 1 %11, i64 %12, i1 false)
  br label %_ZN12_GLOBAL__N_18TestCaseC2ERKS0_.exit

lpad.i:                                           ; preds = %if.then.i.i12.i
  %16 = landingpad { ptr, i32 }
          cleanup
  %17 = load ptr, ptr %TC, align 8, !tbaa !11
  %cmp.i.i.i.i = icmp eq ptr %17, %0
  br i1 %cmp.i.i.i.i, label %common.resume, label %if.then.i.i20.i

if.then.i.i20.i:                                  ; preds = %lpad.i
  call void @_ZdlPv(ptr noundef %17) #24
  br label %common.resume

common.resume:                                    ; preds = %lpad.i, %if.then.i.i20.i, %ehcleanup
  %common.resume.op = phi { ptr, i32 } [ %.pn, %ehcleanup ], [ %16, %if.then.i.i20.i ], [ %16, %lpad.i ]
  resume { ptr, i32 } %common.resume.op

_ZN12_GLOBAL__N_18TestCaseC2ERKS0_.exit:          ; preds = %if.end.i.i13.i, %if.then.i.i.i.i14.i, %if.end.i.i.i.i.i15.i
  %18 = load i64, ptr %__dnew.i.i8.i, align 8, !tbaa !19
  store i64 %18, ptr %_M_string_length.i.i.i.i16.i, align 8, !tbaa !18
  %19 = load ptr, ptr %error_message.i, align 8, !tbaa !11
  %arrayidx.i.i.i17.i = getelementptr inbounds i8, ptr %19, i64 %18
  store i8 0, ptr %arrayidx.i.i.i17.i, align 1, !tbaa !20
  call void @llvm.lifetime.end.p0(i64 8, ptr nonnull %__dnew.i.i8.i) #25
  call void @llvm.lifetime.start.p0(i64 32, ptr nonnull %ref.tmp) #25
  invoke void @_ZStplIcSt11char_traitsIcESaIcEENSt7__cxx1112basic_stringIT_T0_T1_EEPKS5_RKS8_(ptr nonnull sret(%"class.std::__cxx11::basic_string") align 8 %ref.tmp, ptr noundef %base_name, ptr noundef nonnull align 8 dereferenceable(32) %TC)
          to label %invoke.cont unwind label %lpad

invoke.cont:                                      ; preds = %_ZN12_GLOBAL__N_18TestCaseC2ERKS0_.exit
  %20 = load ptr, ptr %ref.tmp, align 8, !tbaa !11
  %cmp.i56.i = icmp eq ptr %20, %2
  br i1 %cmp.i56.i, label %if.then15.i, label %if.else.i

if.then15.i:                                      ; preds = %invoke.cont
  %21 = load i64, ptr %_M_string_length.i61.i, align 8, !tbaa !18
  %tobool18.not.i = icmp eq i64 %21, 0
  br i1 %tobool18.not.i, label %if.end24.i, label %if.then19.i

if.then19.i:                                      ; preds = %if.then15.i
  %22 = load ptr, ptr %TC, align 8, !tbaa !11
  %cond.i = icmp eq i64 %21, 1
  br i1 %cond.i, label %if.then.i.i, label %if.end.i.i.i16

if.then.i.i:                                      ; preds = %if.then19.i
  %23 = load i8, ptr %2, align 8, !tbaa !20
  store i8 %23, ptr %22, align 1, !tbaa !20
  br label %if.end24.i

if.end.i.i.i16:                                   ; preds = %if.then19.i
  call void @llvm.memcpy.p0.p0.i64(ptr align 1 %22, ptr nonnull align 8 %2, i64 %21, i1 false)
  br label %if.end24.i

if.end24.i:                                       ; preds = %if.end.i.i.i16, %if.then.i.i, %if.then15.i
  %24 = load i64, ptr %_M_string_length.i61.i, align 8, !tbaa !18
  store i64 %24, ptr %_M_string_length.i.i.i.i.i, align 8, !tbaa !18
  %25 = load ptr, ptr %TC, align 8, !tbaa !11
  %arrayidx.i.i = getelementptr inbounds i8, ptr %25, i64 %24
  store i8 0, ptr %arrayidx.i.i, align 1, !tbaa !20
  %.pre.i = load ptr, ptr %ref.tmp, align 8, !tbaa !11
  br label %_ZNSt7__cxx1112basic_stringIcSt11char_traitsIcESaIcEEaSEOS4_.exit

if.else.i:                                        ; preds = %invoke.cont
  %26 = load ptr, ptr %TC, align 8, !tbaa !11
  %cmp.i60.i = icmp eq ptr %26, %0
  %27 = load i64, ptr %0, align 8
  store ptr %20, ptr %TC, align 8, !tbaa !11
  %28 = load <2 x i64>, ptr %_M_string_length.i61.i, align 8, !tbaa !20
  store <2 x i64> %28, ptr %_M_string_length.i.i.i.i.i, align 8, !tbaa !20
  %tobool35.not63.i = icmp eq ptr %26, null
  %tobool35.not.i = or i1 %cmp.i60.i, %tobool35.not63.i
  br i1 %tobool35.not.i, label %if.else37.i, label %if.then36.i

if.then36.i:                                      ; preds = %if.else.i
  store ptr %26, ptr %ref.tmp, align 8, !tbaa !11
  store i64 %27, ptr %2, align 8, !tbaa !20
  br label %_ZNSt7__cxx1112basic_stringIcSt11char_traitsIcESaIcEEaSEOS4_.exit

if.else37.i:                                      ; preds = %if.else.i
  store ptr %2, ptr %ref.tmp, align 8, !tbaa !11
  br label %_ZNSt7__cxx1112basic_stringIcSt11char_traitsIcESaIcEEaSEOS4_.exit

_ZNSt7__cxx1112basic_stringIcSt11char_traitsIcESaIcEEaSEOS4_.exit: ; preds = %if.end24.i, %if.then36.i, %if.else37.i
  %29 = phi ptr [ %26, %if.then36.i ], [ %2, %if.else37.i ], [ %.pre.i, %if.end24.i ]
  store i64 0, ptr %_M_string_length.i61.i, align 8, !tbaa !18
  store i8 0, ptr %29, align 1, !tbaa !20
  %30 = load ptr, ptr %ref.tmp, align 8, !tbaa !11
  %cmp.i.i.i17 = icmp eq ptr %30, %2
  br i1 %cmp.i.i.i17, label %_ZNSt7__cxx1112basic_stringIcSt11char_traitsIcESaIcEED2Ev.exit, label %if.then.i.i18

if.then.i.i18:                                    ; preds = %_ZNSt7__cxx1112basic_stringIcSt11char_traitsIcESaIcEEaSEOS4_.exit
  call void @_ZdlPv(ptr noundef %30) #24
  br label %_ZNSt7__cxx1112basic_stringIcSt11char_traitsIcESaIcEED2Ev.exit

_ZNSt7__cxx1112basic_stringIcSt11char_traitsIcESaIcEED2Ev.exit: ; preds = %_ZNSt7__cxx1112basic_stringIcSt11char_traitsIcESaIcEEaSEOS4_.exit, %if.then.i.i18
  call void @llvm.lifetime.end.p0(i64 32, ptr nonnull %ref.tmp) #25
  %31 = load ptr, ptr getelementptr inbounds (%"class.std::vector", ptr @_ZN12_GLOBAL__N_115ExpectedResultsE, i64 0, i32 0, i32 0, i32 0, i32 1), align 8, !tbaa !26
  %32 = load ptr, ptr getelementptr inbounds (%"class.std::vector", ptr @_ZN12_GLOBAL__N_115ExpectedResultsE, i64 0, i32 0, i32 0, i32 0, i32 2), align 8, !tbaa !27
  %cmp.not.i.i = icmp eq ptr %31, %32
  br i1 %cmp.not.i.i, label %if.else.i.i, label %if.then.i.i19

if.then.i.i19:                                    ; preds = %_ZNSt7__cxx1112basic_stringIcSt11char_traitsIcESaIcEED2Ev.exit
  %33 = getelementptr inbounds %"class.std::__cxx11::basic_string", ptr %31, i64 0, i32 2
  store ptr %33, ptr %31, align 8, !tbaa !17
  %34 = load ptr, ptr %TC, align 8, !tbaa !11
  %cmp.i.i.i.i.i.i.i = icmp eq ptr %34, %0
  br i1 %cmp.i.i.i.i.i.i.i, label %if.then.i.i.i.i.i.i, label %if.else.i.i.i.i.i.i

if.then.i.i.i.i.i.i:                              ; preds = %if.then.i.i19
  %35 = load i64, ptr %_M_string_length.i.i.i.i.i, align 8, !tbaa !18
  %add.i.i.i.i.i.i = add i64 %35, 1
  %cmp.i21.i.i.i.i.i.i = icmp eq i64 %add.i.i.i.i.i.i, 0
  br i1 %cmp.i21.i.i.i.i.i.i, label %_ZNSt7__cxx1112basic_stringIcSt11char_traitsIcESaIcEEC2EOS4_.exit.i.i.i.i.i, label %if.end.i.i.i.i.i.i.i

if.end.i.i.i.i.i.i.i:                             ; preds = %if.then.i.i.i.i.i.i
  call void @llvm.memcpy.p0.p0.i64(ptr nonnull align 8 %33, ptr nonnull align 8 %0, i64 %add.i.i.i.i.i.i, i1 false)
  br label %_ZNSt7__cxx1112basic_stringIcSt11char_traitsIcESaIcEEC2EOS4_.exit.i.i.i.i.i

if.else.i.i.i.i.i.i:                              ; preds = %if.then.i.i19
  store ptr %34, ptr %31, align 8, !tbaa !11
  %36 = load i64, ptr %0, align 8, !tbaa !20
  store i64 %36, ptr %33, align 8, !tbaa !20
  %.pre = load i64, ptr %_M_string_length.i.i.i.i.i, align 8, !tbaa !18
  br label %_ZNSt7__cxx1112basic_stringIcSt11char_traitsIcESaIcEEC2EOS4_.exit.i.i.i.i.i

_ZNSt7__cxx1112basic_stringIcSt11char_traitsIcESaIcEEC2EOS4_.exit.i.i.i.i.i: ; preds = %if.else.i.i.i.i.i.i, %if.end.i.i.i.i.i.i.i, %if.then.i.i.i.i.i.i
  %37 = phi i64 [ %.pre, %if.else.i.i.i.i.i.i ], [ %35, %if.end.i.i.i.i.i.i.i ], [ -1, %if.then.i.i.i.i.i.i ]
  %_M_string_length.i23.i.i.i.i.i.i = getelementptr inbounds %"class.std::__cxx11::basic_string", ptr %31, i64 0, i32 1
  store i64 %37, ptr %_M_string_length.i23.i.i.i.i.i.i, align 8, !tbaa !18
  store ptr %0, ptr %TC, align 8, !tbaa !11
  store i64 0, ptr %_M_string_length.i.i.i.i.i, align 8, !tbaa !18
  store i8 0, ptr %0, align 8, !tbaa !20
  %error_occurred.i.i.i.i.i = getelementptr inbounds %"struct.(anonymous namespace)::TestCase", ptr %31, i64 0, i32 1
  %38 = load i8, ptr %error_occurred.i, align 8, !tbaa !21, !range !24, !noundef !25
  store i8 %38, ptr %error_occurred.i.i.i.i.i, align 8, !tbaa !21
  %error_message.i.i.i.i.i = getelementptr inbounds %"struct.(anonymous namespace)::TestCase", ptr %31, i64 0, i32 2
  %39 = getelementptr inbounds %"struct.(anonymous namespace)::TestCase", ptr %31, i64 0, i32 2, i32 2
  store ptr %39, ptr %error_message.i.i.i.i.i, align 8, !tbaa !17
  %40 = load ptr, ptr %error_message.i, align 8, !tbaa !11
  %cmp.i.i7.i.i.i.i.i = icmp eq ptr %40, %1
  br i1 %cmp.i.i7.i.i.i.i.i, label %if.then.i11.i.i.i.i.i, label %if.else.i13.i.i.i.i.i

if.then.i11.i.i.i.i.i:                            ; preds = %_ZNSt7__cxx1112basic_stringIcSt11char_traitsIcESaIcEEC2EOS4_.exit.i.i.i.i.i
  %41 = load i64, ptr %_M_string_length.i.i.i.i16.i, align 8, !tbaa !18
  %add.i9.i.i.i.i.i = add i64 %41, 1
  %cmp.i21.i10.i.i.i.i.i = icmp eq i64 %add.i9.i.i.i.i.i, 0
  br i1 %cmp.i21.i10.i.i.i.i.i, label %invoke.cont5.thread, label %if.end.i.i12.i.i.i.i.i

if.end.i.i12.i.i.i.i.i:                           ; preds = %if.then.i11.i.i.i.i.i
  call void @llvm.memcpy.p0.p0.i64(ptr nonnull align 8 %39, ptr nonnull align 8 %1, i64 %add.i9.i.i.i.i.i, i1 false)
  br label %invoke.cont5.thread

if.else.i13.i.i.i.i.i:                            ; preds = %_ZNSt7__cxx1112basic_stringIcSt11char_traitsIcESaIcEEC2EOS4_.exit.i.i.i.i.i
  store ptr %40, ptr %error_message.i.i.i.i.i, align 8, !tbaa !11
  %42 = load i64, ptr %1, align 8, !tbaa !20
  store i64 %42, ptr %39, align 8, !tbaa !20
  %.pre7 = load i64, ptr %_M_string_length.i.i.i.i16.i, align 8, !tbaa !18
  br label %invoke.cont5.thread

invoke.cont5.thread:                              ; preds = %if.then.i11.i.i.i.i.i, %if.end.i.i12.i.i.i.i.i, %if.else.i13.i.i.i.i.i
  %43 = phi i64 [ %.pre7, %if.else.i13.i.i.i.i.i ], [ %41, %if.end.i.i12.i.i.i.i.i ], [ -1, %if.then.i11.i.i.i.i.i ]
  %_M_string_length.i23.i15.i.i.i.i.i = getelementptr inbounds %"struct.(anonymous namespace)::TestCase", ptr %31, i64 0, i32 2, i32 1
  store i64 %43, ptr %_M_string_length.i23.i15.i.i.i.i.i, align 8, !tbaa !18
  store ptr %1, ptr %error_message.i, align 8, !tbaa !11
  store i64 0, ptr %_M_string_length.i.i.i.i16.i, align 8, !tbaa !18
  store i8 0, ptr %1, align 8, !tbaa !20
  %incdec.ptr.i.i = getelementptr inbounds %"struct.(anonymous namespace)::TestCase", ptr %31, i64 1
  store ptr %incdec.ptr.i.i, ptr getelementptr inbounds (%"class.std::vector", ptr @_ZN12_GLOBAL__N_115ExpectedResultsE, i64 0, i32 0, i32 0, i32 0, i32 1), align 8, !tbaa !10
  br label %_ZNSt7__cxx1112basic_stringIcSt11char_traitsIcESaIcEED2Ev.exit.i25

if.else.i.i:                                      ; preds = %_ZNSt7__cxx1112basic_stringIcSt11char_traitsIcESaIcEED2Ev.exit
  %44 = load ptr, ptr @_ZN12_GLOBAL__N_115ExpectedResultsE, align 8, !tbaa !26
  %sub.ptr.lhs.cast.i.i.i.i.i = ptrtoint ptr %31 to i64
  %sub.ptr.rhs.cast.i.i.i.i.i = ptrtoint ptr %44 to i64
  %sub.ptr.sub.i.i.i.i.i = sub i64 %sub.ptr.lhs.cast.i.i.i.i.i, %sub.ptr.rhs.cast.i.i.i.i.i
  %cmp.i.i.i.i20 = icmp eq i64 %sub.ptr.sub.i.i.i.i.i, 9223372036854775800
  br i1 %cmp.i.i.i.i20, label %if.then.i.i.i.i, label %_ZNKSt6vectorIN12_GLOBAL__N_18TestCaseESaIS1_EE12_M_check_lenEmPKc.exit.i.i.i

if.then.i.i.i.i:                                  ; preds = %if.else.i.i
  invoke void @_ZSt20__throw_length_errorPKc(ptr noundef nonnull @.str.51) #26
          to label %.noexc unwind label %lpad4.loopexit.split-lp

.noexc:                                           ; preds = %if.then.i.i.i.i
  unreachable

_ZNKSt6vectorIN12_GLOBAL__N_18TestCaseESaIS1_EE12_M_check_lenEmPKc.exit.i.i.i: ; preds = %if.else.i.i
  %sub.ptr.div.i.i.i.i.i = sdiv exact i64 %sub.ptr.sub.i.i.i.i.i, 72
  %cmp.i.i.i.i.i = icmp eq ptr %31, %44
  %.sroa.speculated.i.i.i.i = select i1 %cmp.i.i.i.i.i, i64 1, i64 %sub.ptr.div.i.i.i.i.i
  %add.i.i.i.i = add nsw i64 %.sroa.speculated.i.i.i.i, %sub.ptr.div.i.i.i.i.i
  %cmp7.i.i.i.i = icmp ult i64 %add.i.i.i.i, %sub.ptr.div.i.i.i.i.i
  %cmp9.i.i.i.i = icmp ugt i64 %add.i.i.i.i, 128102389400760775
  %or.cond.i.i.i.i = or i1 %cmp7.i.i.i.i, %cmp9.i.i.i.i
  %cond.i.i.i.i = select i1 %or.cond.i.i.i.i, i64 128102389400760775, i64 %add.i.i.i.i
  %cmp.not.i.i.i.i = icmp eq i64 %cond.i.i.i.i, 0
  br i1 %cmp.not.i.i.i.i, label %_ZNSt12_Vector_baseIN12_GLOBAL__N_18TestCaseESaIS1_EE11_M_allocateEm.exit.i.i.i, label %_ZNSt16allocator_traitsISaIN12_GLOBAL__N_18TestCaseEEE8allocateERS2_m.exit.i.i.i.i

_ZNSt16allocator_traitsISaIN12_GLOBAL__N_18TestCaseEEE8allocateERS2_m.exit.i.i.i.i: ; preds = %_ZNKSt6vectorIN12_GLOBAL__N_18TestCaseESaIS1_EE12_M_check_lenEmPKc.exit.i.i.i
  %mul.i.i.i.i.i.i = mul nuw nsw i64 %cond.i.i.i.i, 72
  %call5.i.i.i.i.i.i21 = invoke noalias noundef nonnull ptr @_Znwm(i64 noundef %mul.i.i.i.i.i.i) #27
          to label %_ZNSt12_Vector_baseIN12_GLOBAL__N_18TestCaseESaIS1_EE11_M_allocateEm.exit.i.i.i unwind label %lpad4.loopexit

_ZNSt12_Vector_baseIN12_GLOBAL__N_18TestCaseESaIS1_EE11_M_allocateEm.exit.i.i.i: ; preds = %_ZNSt16allocator_traitsISaIN12_GLOBAL__N_18TestCaseEEE8allocateERS2_m.exit.i.i.i.i, %_ZNKSt6vectorIN12_GLOBAL__N_18TestCaseESaIS1_EE12_M_check_lenEmPKc.exit.i.i.i
  %cond.i31.i.i.i = phi ptr [ null, %_ZNKSt6vectorIN12_GLOBAL__N_18TestCaseESaIS1_EE12_M_check_lenEmPKc.exit.i.i.i ], [ %call5.i.i.i.i.i.i21, %_ZNSt16allocator_traitsISaIN12_GLOBAL__N_18TestCaseEEE8allocateERS2_m.exit.i.i.i.i ]
  %add.ptr.i.i.i = getelementptr inbounds %"struct.(anonymous namespace)::TestCase", ptr %cond.i31.i.i.i, i64 %sub.ptr.div.i.i.i.i.i
  %45 = getelementptr inbounds %"class.std::__cxx11::basic_string", ptr %add.ptr.i.i.i, i64 0, i32 2
  store ptr %45, ptr %add.ptr.i.i.i, align 8, !tbaa !17
  %46 = load ptr, ptr %TC, align 8, !tbaa !11
  %cmp.i.i.i.i.i.i.i.i = icmp eq ptr %46, %0
  br i1 %cmp.i.i.i.i.i.i.i.i, label %if.then.i.i.i.i.i.i.i, label %if.else.i.i.i.i.i.i.i

if.then.i.i.i.i.i.i.i:                            ; preds = %_ZNSt12_Vector_baseIN12_GLOBAL__N_18TestCaseESaIS1_EE11_M_allocateEm.exit.i.i.i
  %47 = load i64, ptr %_M_string_length.i.i.i.i.i, align 8, !tbaa !18
  %add.i.i.i.i.i.i.i = add i64 %47, 1
  %cmp.i21.i.i.i.i.i.i.i = icmp eq i64 %add.i.i.i.i.i.i.i, 0
  br i1 %cmp.i21.i.i.i.i.i.i.i, label %_ZNSt7__cxx1112basic_stringIcSt11char_traitsIcESaIcEEC2EOS4_.exit.i.i.i.i.i.i, label %if.end.i.i.i.i.i.i.i.i

if.end.i.i.i.i.i.i.i.i:                           ; preds = %if.then.i.i.i.i.i.i.i
  call void @llvm.memcpy.p0.p0.i64(ptr nonnull align 8 %45, ptr nonnull align 8 %0, i64 %add.i.i.i.i.i.i.i, i1 false)
  br label %_ZNSt7__cxx1112basic_stringIcSt11char_traitsIcESaIcEEC2EOS4_.exit.i.i.i.i.i.i

if.else.i.i.i.i.i.i.i:                            ; preds = %_ZNSt12_Vector_baseIN12_GLOBAL__N_18TestCaseESaIS1_EE11_M_allocateEm.exit.i.i.i
  store ptr %46, ptr %add.ptr.i.i.i, align 8, !tbaa !11
  %48 = load i64, ptr %0, align 8, !tbaa !20
  store i64 %48, ptr %45, align 8, !tbaa !20
  %.pre.i.i.i = load i64, ptr %_M_string_length.i.i.i.i.i, align 8, !tbaa !18
  br label %_ZNSt7__cxx1112basic_stringIcSt11char_traitsIcESaIcEEC2EOS4_.exit.i.i.i.i.i.i

_ZNSt7__cxx1112basic_stringIcSt11char_traitsIcESaIcEEC2EOS4_.exit.i.i.i.i.i.i: ; preds = %if.else.i.i.i.i.i.i.i, %if.end.i.i.i.i.i.i.i.i, %if.then.i.i.i.i.i.i.i
  %49 = phi i64 [ %.pre.i.i.i, %if.else.i.i.i.i.i.i.i ], [ %47, %if.end.i.i.i.i.i.i.i.i ], [ -1, %if.then.i.i.i.i.i.i.i ]
  %_M_string_length.i23.i.i.i.i.i.i.i = getelementptr inbounds %"class.std::__cxx11::basic_string", ptr %add.ptr.i.i.i, i64 0, i32 1
  store i64 %49, ptr %_M_string_length.i23.i.i.i.i.i.i.i, align 8, !tbaa !18
  store ptr %0, ptr %TC, align 8, !tbaa !11
  store i64 0, ptr %_M_string_length.i.i.i.i.i, align 8, !tbaa !18
  store i8 0, ptr %0, align 8, !tbaa !20
  %error_occurred.i.i.i.i.i.i = getelementptr inbounds %"struct.(anonymous namespace)::TestCase", ptr %cond.i31.i.i.i, i64 %sub.ptr.div.i.i.i.i.i, i32 1
  %50 = load i8, ptr %error_occurred.i, align 8, !tbaa !21, !range !24, !noundef !25
  store i8 %50, ptr %error_occurred.i.i.i.i.i.i, align 8, !tbaa !21
  %error_message.i.i.i.i.i.i = getelementptr inbounds %"struct.(anonymous namespace)::TestCase", ptr %cond.i31.i.i.i, i64 %sub.ptr.div.i.i.i.i.i, i32 2
  %51 = getelementptr inbounds %"struct.(anonymous namespace)::TestCase", ptr %cond.i31.i.i.i, i64 %sub.ptr.div.i.i.i.i.i, i32 2, i32 2
  store ptr %51, ptr %error_message.i.i.i.i.i.i, align 8, !tbaa !17
  %52 = load ptr, ptr %error_message.i, align 8, !tbaa !11
  %cmp.i.i7.i.i.i.i.i.i = icmp eq ptr %52, %1
  br i1 %cmp.i.i7.i.i.i.i.i.i, label %if.then.i11.i.i.i.i.i.i, label %if.else.i13.i.i.i.i.i.i

if.then.i11.i.i.i.i.i.i:                          ; preds = %_ZNSt7__cxx1112basic_stringIcSt11char_traitsIcESaIcEEC2EOS4_.exit.i.i.i.i.i.i
  %53 = load i64, ptr %_M_string_length.i.i.i.i16.i, align 8, !tbaa !18
  %add.i9.i.i.i.i.i.i = add i64 %53, 1
  %cmp.i21.i10.i.i.i.i.i.i = icmp eq i64 %add.i9.i.i.i.i.i.i, 0
  br i1 %cmp.i21.i10.i.i.i.i.i.i, label %_ZNSt16allocator_traitsISaIN12_GLOBAL__N_18TestCaseEEE9constructIS1_JS1_EEEvRS2_PT_DpOT0_.exit.i.i.i, label %if.end.i.i12.i.i.i.i.i.i

if.end.i.i12.i.i.i.i.i.i:                         ; preds = %if.then.i11.i.i.i.i.i.i
  call void @llvm.memcpy.p0.p0.i64(ptr nonnull align 8 %51, ptr nonnull align 8 %1, i64 %add.i9.i.i.i.i.i.i, i1 false)
  br label %_ZNSt16allocator_traitsISaIN12_GLOBAL__N_18TestCaseEEE9constructIS1_JS1_EEEvRS2_PT_DpOT0_.exit.i.i.i

if.else.i13.i.i.i.i.i.i:                          ; preds = %_ZNSt7__cxx1112basic_stringIcSt11char_traitsIcESaIcEEC2EOS4_.exit.i.i.i.i.i.i
  store ptr %52, ptr %error_message.i.i.i.i.i.i, align 8, !tbaa !11
  %54 = load i64, ptr %1, align 8, !tbaa !20
  store i64 %54, ptr %51, align 8, !tbaa !20
  %.pre2.i.i.i = load i64, ptr %_M_string_length.i.i.i.i16.i, align 8, !tbaa !18
  br label %_ZNSt16allocator_traitsISaIN12_GLOBAL__N_18TestCaseEEE9constructIS1_JS1_EEEvRS2_PT_DpOT0_.exit.i.i.i

_ZNSt16allocator_traitsISaIN12_GLOBAL__N_18TestCaseEEE9constructIS1_JS1_EEEvRS2_PT_DpOT0_.exit.i.i.i: ; preds = %if.else.i13.i.i.i.i.i.i, %if.end.i.i12.i.i.i.i.i.i, %if.then.i11.i.i.i.i.i.i
  %55 = phi i64 [ -1, %if.then.i11.i.i.i.i.i.i ], [ %53, %if.end.i.i12.i.i.i.i.i.i ], [ %.pre2.i.i.i, %if.else.i13.i.i.i.i.i.i ]
  %_M_string_length.i23.i15.i.i.i.i.i.i = getelementptr inbounds %"struct.(anonymous namespace)::TestCase", ptr %cond.i31.i.i.i, i64 %sub.ptr.div.i.i.i.i.i, i32 2, i32 1
  store i64 %55, ptr %_M_string_length.i23.i15.i.i.i.i.i.i, align 8, !tbaa !18
  store ptr %1, ptr %error_message.i, align 8, !tbaa !11
  store i64 0, ptr %_M_string_length.i.i.i.i16.i, align 8, !tbaa !18
  store i8 0, ptr %1, align 8, !tbaa !20
  br i1 %cmp.i.i.i.i.i, label %_ZNSt6vectorIN12_GLOBAL__N_18TestCaseESaIS1_EE11_S_relocateEPS1_S4_S4_RS2_.exit.i.i.i, label %for.body.i.i.i.i.i.i.i

for.body.i.i.i.i.i.i.i:                           ; preds = %_ZNSt16allocator_traitsISaIN12_GLOBAL__N_18TestCaseEEE9constructIS1_JS1_EEEvRS2_PT_DpOT0_.exit.i.i.i, %_ZSt19__relocate_object_aIN12_GLOBAL__N_18TestCaseES1_SaIS1_EEvPT_PT0_RT1_.exit.i.i.i.i.i.i.i
  %__cur.03.i.i.i.i.i.i.i = phi ptr [ %incdec.ptr1.i.i.i.i.i.i.i, %_ZSt19__relocate_object_aIN12_GLOBAL__N_18TestCaseES1_SaIS1_EEvPT_PT0_RT1_.exit.i.i.i.i.i.i.i ], [ %cond.i31.i.i.i, %_ZNSt16allocator_traitsISaIN12_GLOBAL__N_18TestCaseEEE9constructIS1_JS1_EEEvRS2_PT_DpOT0_.exit.i.i.i ]
  %__first.addr.02.i.i.i.i.i.i.i = phi ptr [ %incdec.ptr.i.i.i.i.i.i.i, %_ZSt19__relocate_object_aIN12_GLOBAL__N_18TestCaseES1_SaIS1_EEvPT_PT0_RT1_.exit.i.i.i.i.i.i.i ], [ %44, %_ZNSt16allocator_traitsISaIN12_GLOBAL__N_18TestCaseEEE9constructIS1_JS1_EEEvRS2_PT_DpOT0_.exit.i.i.i ]
  call void @llvm.experimental.noalias.scope.decl(metadata !28)
  call void @llvm.experimental.noalias.scope.decl(metadata !31)
  %56 = getelementptr inbounds %"class.std::__cxx11::basic_string", ptr %__cur.03.i.i.i.i.i.i.i, i64 0, i32 2
  store ptr %56, ptr %__cur.03.i.i.i.i.i.i.i, align 8, !tbaa !17, !alias.scope !28, !noalias !31
  %57 = load ptr, ptr %__first.addr.02.i.i.i.i.i.i.i, align 8, !tbaa !11, !alias.scope !31, !noalias !28
  %58 = getelementptr inbounds %"class.std::__cxx11::basic_string", ptr %__first.addr.02.i.i.i.i.i.i.i, i64 0, i32 2
  %cmp.i.i.i.i.i.i.i.i.i.i.i.i.i = icmp eq ptr %57, %58
  br i1 %cmp.i.i.i.i.i.i.i.i.i.i.i.i.i, label %if.then.i.i.i.i.i.i.i.i.i.i.i.i, label %if.else.i.i.i.i.i.i.i.i.i.i.i.i

if.then.i.i.i.i.i.i.i.i.i.i.i.i:                  ; preds = %for.body.i.i.i.i.i.i.i
  %_M_string_length.i.i.i.i.i.i.i.i.i.i.i.i.i = getelementptr inbounds %"class.std::__cxx11::basic_string", ptr %__first.addr.02.i.i.i.i.i.i.i, i64 0, i32 1
  %59 = load i64, ptr %_M_string_length.i.i.i.i.i.i.i.i.i.i.i.i.i, align 8, !tbaa !18, !alias.scope !31, !noalias !28
  %add.i.i.i.i.i.i.i.i.i.i.i.i = add i64 %59, 1
  %cmp.i21.i.i.i.i.i.i.i.i.i.i.i.i = icmp eq i64 %add.i.i.i.i.i.i.i.i.i.i.i.i, 0
  br i1 %cmp.i21.i.i.i.i.i.i.i.i.i.i.i.i, label %_ZNSt7__cxx1112basic_stringIcSt11char_traitsIcESaIcEEC2EOS4_.exit.i.i.i.i.i.i.i.i.i.i.i, label %if.end.i.i.i.i.i.i.i.i.i.i.i.i.i

if.end.i.i.i.i.i.i.i.i.i.i.i.i.i:                 ; preds = %if.then.i.i.i.i.i.i.i.i.i.i.i.i
  call void @llvm.memcpy.p0.p0.i64(ptr nonnull align 8 %56, ptr nonnull align 8 %57, i64 %add.i.i.i.i.i.i.i.i.i.i.i.i, i1 false)
  br label %_ZNSt7__cxx1112basic_stringIcSt11char_traitsIcESaIcEEC2EOS4_.exit.i.i.i.i.i.i.i.i.i.i.i

if.else.i.i.i.i.i.i.i.i.i.i.i.i:                  ; preds = %for.body.i.i.i.i.i.i.i
  store ptr %57, ptr %__cur.03.i.i.i.i.i.i.i, align 8, !tbaa !11, !alias.scope !28, !noalias !31
  %60 = load i64, ptr %58, align 8, !tbaa !20, !alias.scope !31, !noalias !28
  store i64 %60, ptr %56, align 8, !tbaa !20, !alias.scope !28, !noalias !31
  %_M_string_length.i22.i.i.i.i.phi.trans.insert.i.i.i.i.i.i.i.i = getelementptr inbounds %"class.std::__cxx11::basic_string", ptr %__first.addr.02.i.i.i.i.i.i.i, i64 0, i32 1
  %.pre.i.i.i.i.i.i.i.i = load i64, ptr %_M_string_length.i22.i.i.i.i.phi.trans.insert.i.i.i.i.i.i.i.i, align 8, !tbaa !18, !alias.scope !31, !noalias !28
  br label %_ZNSt7__cxx1112basic_stringIcSt11char_traitsIcESaIcEEC2EOS4_.exit.i.i.i.i.i.i.i.i.i.i.i

_ZNSt7__cxx1112basic_stringIcSt11char_traitsIcESaIcEEC2EOS4_.exit.i.i.i.i.i.i.i.i.i.i.i: ; preds = %if.else.i.i.i.i.i.i.i.i.i.i.i.i, %if.end.i.i.i.i.i.i.i.i.i.i.i.i.i, %if.then.i.i.i.i.i.i.i.i.i.i.i.i
  %61 = phi i64 [ %.pre.i.i.i.i.i.i.i.i, %if.else.i.i.i.i.i.i.i.i.i.i.i.i ], [ %59, %if.end.i.i.i.i.i.i.i.i.i.i.i.i.i ], [ -1, %if.then.i.i.i.i.i.i.i.i.i.i.i.i ]
  %_M_string_length.i22.i.i.i.i.i.i.i.i.i.i.i.i = getelementptr inbounds %"class.std::__cxx11::basic_string", ptr %__first.addr.02.i.i.i.i.i.i.i, i64 0, i32 1
  %_M_string_length.i23.i.i.i.i.i.i.i.i.i.i.i.i = getelementptr inbounds %"class.std::__cxx11::basic_string", ptr %__cur.03.i.i.i.i.i.i.i, i64 0, i32 1
  store i64 %61, ptr %_M_string_length.i23.i.i.i.i.i.i.i.i.i.i.i.i, align 8, !tbaa !18, !alias.scope !28, !noalias !31
  store ptr %58, ptr %__first.addr.02.i.i.i.i.i.i.i, align 8, !tbaa !11, !alias.scope !31, !noalias !28
  store i64 0, ptr %_M_string_length.i22.i.i.i.i.i.i.i.i.i.i.i.i, align 8, !tbaa !18, !alias.scope !31, !noalias !28
  store i8 0, ptr %58, align 8, !tbaa !20, !alias.scope !31, !noalias !28
  %error_occurred.i.i.i.i.i.i.i.i.i.i.i = getelementptr inbounds %"struct.(anonymous namespace)::TestCase", ptr %__cur.03.i.i.i.i.i.i.i, i64 0, i32 1
  %error_occurred3.i.i.i.i.i.i.i.i.i.i.i = getelementptr inbounds %"struct.(anonymous namespace)::TestCase", ptr %__first.addr.02.i.i.i.i.i.i.i, i64 0, i32 1
  %62 = load i8, ptr %error_occurred3.i.i.i.i.i.i.i.i.i.i.i, align 8, !tbaa !21, !range !24, !alias.scope !31, !noalias !28, !noundef !25
  store i8 %62, ptr %error_occurred.i.i.i.i.i.i.i.i.i.i.i, align 8, !tbaa !21, !alias.scope !28, !noalias !31
  %error_message.i.i.i.i.i.i.i.i.i.i.i = getelementptr inbounds %"struct.(anonymous namespace)::TestCase", ptr %__cur.03.i.i.i.i.i.i.i, i64 0, i32 2
  %error_message4.i.i.i.i.i.i.i.i.i.i.i = getelementptr inbounds %"struct.(anonymous namespace)::TestCase", ptr %__first.addr.02.i.i.i.i.i.i.i, i64 0, i32 2
  %63 = getelementptr inbounds %"struct.(anonymous namespace)::TestCase", ptr %__cur.03.i.i.i.i.i.i.i, i64 0, i32 2, i32 2
  store ptr %63, ptr %error_message.i.i.i.i.i.i.i.i.i.i.i, align 8, !tbaa !17, !alias.scope !28, !noalias !31
  %64 = load ptr, ptr %error_message4.i.i.i.i.i.i.i.i.i.i.i, align 8, !tbaa !11, !alias.scope !31, !noalias !28
  %65 = getelementptr inbounds %"struct.(anonymous namespace)::TestCase", ptr %__first.addr.02.i.i.i.i.i.i.i, i64 0, i32 2, i32 2
  %cmp.i.i7.i.i.i.i.i.i.i.i.i.i.i = icmp eq ptr %64, %65
  br i1 %cmp.i.i7.i.i.i.i.i.i.i.i.i.i.i, label %if.then.i11.i.i.i.i.i.i.i.i.i.i.i, label %if.else.i13.i.i.i.i.i.i.i.i.i.i.i

if.then.i11.i.i.i.i.i.i.i.i.i.i.i:                ; preds = %_ZNSt7__cxx1112basic_stringIcSt11char_traitsIcESaIcEEC2EOS4_.exit.i.i.i.i.i.i.i.i.i.i.i
  %_M_string_length.i.i8.i.i.i.i.i.i.i.i.i.i.i = getelementptr inbounds %"struct.(anonymous namespace)::TestCase", ptr %__first.addr.02.i.i.i.i.i.i.i, i64 0, i32 2, i32 1
  %66 = load i64, ptr %_M_string_length.i.i8.i.i.i.i.i.i.i.i.i.i.i, align 8, !tbaa !18, !alias.scope !31, !noalias !28
  %add.i9.i.i.i.i.i.i.i.i.i.i.i = add i64 %66, 1
  %cmp.i21.i10.i.i.i.i.i.i.i.i.i.i.i = icmp eq i64 %add.i9.i.i.i.i.i.i.i.i.i.i.i, 0
  br i1 %cmp.i21.i10.i.i.i.i.i.i.i.i.i.i.i, label %_ZSt19__relocate_object_aIN12_GLOBAL__N_18TestCaseES1_SaIS1_EEvPT_PT0_RT1_.exit.i.i.i.i.i.i.i, label %if.end.i.i12.i.i.i.i.i.i.i.i.i.i.i

if.end.i.i12.i.i.i.i.i.i.i.i.i.i.i:               ; preds = %if.then.i11.i.i.i.i.i.i.i.i.i.i.i
  call void @llvm.memcpy.p0.p0.i64(ptr nonnull align 8 %63, ptr nonnull align 8 %64, i64 %add.i9.i.i.i.i.i.i.i.i.i.i.i, i1 false)
  br label %_ZSt19__relocate_object_aIN12_GLOBAL__N_18TestCaseES1_SaIS1_EEvPT_PT0_RT1_.exit.i.i.i.i.i.i.i

if.else.i13.i.i.i.i.i.i.i.i.i.i.i:                ; preds = %_ZNSt7__cxx1112basic_stringIcSt11char_traitsIcESaIcEEC2EOS4_.exit.i.i.i.i.i.i.i.i.i.i.i
  store ptr %64, ptr %error_message.i.i.i.i.i.i.i.i.i.i.i, align 8, !tbaa !11, !alias.scope !28, !noalias !31
  %67 = load i64, ptr %65, align 8, !tbaa !20, !alias.scope !31, !noalias !28
  store i64 %67, ptr %63, align 8, !tbaa !20, !alias.scope !28, !noalias !31
  %_M_string_length.i22.i14.i.i.i.phi.trans.insert.i.i.i.i.i.i.i.i = getelementptr inbounds %"struct.(anonymous namespace)::TestCase", ptr %__first.addr.02.i.i.i.i.i.i.i, i64 0, i32 2, i32 1
  %.pre1.i.i.i.i.i.i.i.i = load i64, ptr %_M_string_length.i22.i14.i.i.i.phi.trans.insert.i.i.i.i.i.i.i.i, align 8, !tbaa !18, !alias.scope !31, !noalias !28
  br label %_ZSt19__relocate_object_aIN12_GLOBAL__N_18TestCaseES1_SaIS1_EEvPT_PT0_RT1_.exit.i.i.i.i.i.i.i

_ZSt19__relocate_object_aIN12_GLOBAL__N_18TestCaseES1_SaIS1_EEvPT_PT0_RT1_.exit.i.i.i.i.i.i.i: ; preds = %if.else.i13.i.i.i.i.i.i.i.i.i.i.i, %if.end.i.i12.i.i.i.i.i.i.i.i.i.i.i, %if.then.i11.i.i.i.i.i.i.i.i.i.i.i
  %68 = phi i64 [ -1, %if.then.i11.i.i.i.i.i.i.i.i.i.i.i ], [ %66, %if.end.i.i12.i.i.i.i.i.i.i.i.i.i.i ], [ %.pre1.i.i.i.i.i.i.i.i, %if.else.i13.i.i.i.i.i.i.i.i.i.i.i ]
  %_M_string_length.i22.i14.i.i.i.i.i.i.i.i.i.i.i = getelementptr inbounds %"struct.(anonymous namespace)::TestCase", ptr %__first.addr.02.i.i.i.i.i.i.i, i64 0, i32 2, i32 1
  %_M_string_length.i23.i15.i.i.i.i.i.i.i.i.i.i.i = getelementptr inbounds %"struct.(anonymous namespace)::TestCase", ptr %__cur.03.i.i.i.i.i.i.i, i64 0, i32 2, i32 1
  store i64 %68, ptr %_M_string_length.i23.i15.i.i.i.i.i.i.i.i.i.i.i, align 8, !tbaa !18, !alias.scope !28, !noalias !31
  store ptr %65, ptr %error_message4.i.i.i.i.i.i.i.i.i.i.i, align 8, !tbaa !11, !alias.scope !31, !noalias !28
  store i64 0, ptr %_M_string_length.i22.i14.i.i.i.i.i.i.i.i.i.i.i, align 8, !tbaa !18, !alias.scope !31, !noalias !28
  store i8 0, ptr %65, align 8, !tbaa !20, !alias.scope !31, !noalias !28
  %incdec.ptr.i.i.i.i.i.i.i = getelementptr inbounds %"struct.(anonymous namespace)::TestCase", ptr %__first.addr.02.i.i.i.i.i.i.i, i64 1
  %incdec.ptr1.i.i.i.i.i.i.i = getelementptr inbounds %"struct.(anonymous namespace)::TestCase", ptr %__cur.03.i.i.i.i.i.i.i, i64 1
  %cmp.not.i.i.i.i.i.i.i = icmp eq ptr %incdec.ptr.i.i.i.i.i.i.i, %31
  br i1 %cmp.not.i.i.i.i.i.i.i, label %_ZNSt6vectorIN12_GLOBAL__N_18TestCaseESaIS1_EE11_S_relocateEPS1_S4_S4_RS2_.exit.i.i.i, label %for.body.i.i.i.i.i.i.i, !llvm.loop !33

_ZNSt6vectorIN12_GLOBAL__N_18TestCaseESaIS1_EE11_S_relocateEPS1_S4_S4_RS2_.exit.i.i.i: ; preds = %_ZSt19__relocate_object_aIN12_GLOBAL__N_18TestCaseES1_SaIS1_EEvPT_PT0_RT1_.exit.i.i.i.i.i.i.i, %_ZNSt16allocator_traitsISaIN12_GLOBAL__N_18TestCaseEEE9constructIS1_JS1_EEEvRS2_PT_DpOT0_.exit.i.i.i
  %__cur.0.lcssa.i.i.i.i.i.i.i = phi ptr [ %cond.i31.i.i.i, %_ZNSt16allocator_traitsISaIN12_GLOBAL__N_18TestCaseEEE9constructIS1_JS1_EEEvRS2_PT_DpOT0_.exit.i.i.i ], [ %incdec.ptr1.i.i.i.i.i.i.i, %_ZSt19__relocate_object_aIN12_GLOBAL__N_18TestCaseES1_SaIS1_EEvPT_PT0_RT1_.exit.i.i.i.i.i.i.i ]
  %incdec.ptr.i.i.i = getelementptr inbounds %"struct.(anonymous namespace)::TestCase", ptr %__cur.0.lcssa.i.i.i.i.i.i.i, i64 1
  %tobool.not.i.i.i.i = icmp eq ptr %44, null
  br i1 %tobool.not.i.i.i.i, label %invoke.cont5, label %if.then.i69.i.i.i

if.then.i69.i.i.i:                                ; preds = %_ZNSt6vectorIN12_GLOBAL__N_18TestCaseESaIS1_EE11_S_relocateEPS1_S4_S4_RS2_.exit.i.i.i
  call void @_ZdlPv(ptr noundef nonnull %44) #24
  br label %invoke.cont5

invoke.cont5:                                     ; preds = %_ZNSt6vectorIN12_GLOBAL__N_18TestCaseESaIS1_EE11_S_relocateEPS1_S4_S4_RS2_.exit.i.i.i, %if.then.i69.i.i.i
  store ptr %cond.i31.i.i.i, ptr @_ZN12_GLOBAL__N_115ExpectedResultsE, align 8, !tbaa !5
  store ptr %incdec.ptr.i.i.i, ptr getelementptr inbounds (%"class.std::vector", ptr @_ZN12_GLOBAL__N_115ExpectedResultsE, i64 0, i32 0, i32 0, i32 0, i32 1), align 8, !tbaa !10
  %add.ptr19.i.i.i = getelementptr inbounds %"struct.(anonymous namespace)::TestCase", ptr %cond.i31.i.i.i, i64 %cond.i.i.i.i
  store ptr %add.ptr19.i.i.i, ptr getelementptr inbounds (%"class.std::vector", ptr @_ZN12_GLOBAL__N_115ExpectedResultsE, i64 0, i32 0, i32 0, i32 0, i32 2), align 8, !tbaa !27
  %.pre8 = load ptr, ptr %error_message.i, align 8, !tbaa !11
  %cmp.i.i.i.i23 = icmp eq ptr %.pre8, %1
  br i1 %cmp.i.i.i.i23, label %_ZNSt7__cxx1112basic_stringIcSt11char_traitsIcESaIcEED2Ev.exit.i25, label %if.then.i.i.i24

if.then.i.i.i24:                                  ; preds = %invoke.cont5
  call void @_ZdlPv(ptr noundef %.pre8) #24
  br label %_ZNSt7__cxx1112basic_stringIcSt11char_traitsIcESaIcEED2Ev.exit.i25

_ZNSt7__cxx1112basic_stringIcSt11char_traitsIcESaIcEED2Ev.exit.i25: ; preds = %invoke.cont5.thread, %if.then.i.i.i24, %invoke.cont5
  %69 = load ptr, ptr %TC, align 8, !tbaa !11
  %cmp.i.i.i2.i = icmp eq ptr %69, %0
  br i1 %cmp.i.i.i2.i, label %_ZN12_GLOBAL__N_18TestCaseD2Ev.exit, label %if.then.i.i3.i

if.then.i.i3.i:                                   ; preds = %_ZNSt7__cxx1112basic_stringIcSt11char_traitsIcESaIcEED2Ev.exit.i25
  call void @_ZdlPv(ptr noundef %69) #24
  br label %_ZN12_GLOBAL__N_18TestCaseD2Ev.exit

_ZN12_GLOBAL__N_18TestCaseD2Ev.exit:              ; preds = %_ZNSt7__cxx1112basic_stringIcSt11char_traitsIcESaIcEED2Ev.exit.i25, %if.then.i.i3.i
  call void @llvm.lifetime.end.p0(i64 72, ptr nonnull %TC) #25
  %incdec.ptr = getelementptr inbounds %"struct.(anonymous namespace)::TestCase", ptr %__begin1.06, i64 1
  %cmp.not = icmp eq ptr %incdec.ptr, %add.ptr.i
  br i1 %cmp.not, label %for.cond.cleanup, label %for.body

lpad:                                             ; preds = %_ZN12_GLOBAL__N_18TestCaseC2ERKS0_.exit
  %70 = landingpad { ptr, i32 }
          cleanup
  call void @llvm.lifetime.end.p0(i64 32, ptr nonnull %ref.tmp) #25
  br label %ehcleanup

lpad4.loopexit:                                   ; preds = %_ZNSt16allocator_traitsISaIN12_GLOBAL__N_18TestCaseEEE8allocateERS2_m.exit.i.i.i.i
  %lpad.loopexit = landingpad { ptr, i32 }
          cleanup
  br label %ehcleanup

lpad4.loopexit.split-lp:                          ; preds = %if.then.i.i.i.i
  %lpad.loopexit.split-lp = landingpad { ptr, i32 }
          cleanup
  br label %ehcleanup

ehcleanup:                                        ; preds = %lpad4.loopexit, %lpad4.loopexit.split-lp, %lpad
  %.pn = phi { ptr, i32 } [ %70, %lpad ], [ %lpad.loopexit, %lpad4.loopexit ], [ %lpad.loopexit.split-lp, %lpad4.loopexit.split-lp ]
  call fastcc void @_ZN12_GLOBAL__N_18TestCaseD2Ev(ptr noundef nonnull align 8 dereferenceable(72) %TC) #25
  call void @llvm.lifetime.end.p0(i64 72, ptr nonnull %TC) #25
  br label %common.resume
}

; Function Attrs: mustprogress nocallback nofree nosync nounwind willreturn memory(argmem: readwrite)
declare void @llvm.lifetime.start.p0(i64 immarg, ptr nocapture) #8

; Function Attrs: inlinehint nounwind uwtable
define internal fastcc void @_ZN12_GLOBAL__N_18TestCaseD2Ev(ptr noundef nonnull readonly align 8 dereferenceable(72) %this) unnamed_addr #9 align 2 personality ptr @__gxx_personality_v0 {
entry:
  %error_message = getelementptr inbounds %"struct.(anonymous namespace)::TestCase", ptr %this, i64 0, i32 2
  %0 = load ptr, ptr %error_message, align 8, !tbaa !11
  %1 = getelementptr inbounds %"struct.(anonymous namespace)::TestCase", ptr %this, i64 0, i32 2, i32 2
  %cmp.i.i.i = icmp eq ptr %0, %1
  br i1 %cmp.i.i.i, label %_ZNSt7__cxx1112basic_stringIcSt11char_traitsIcESaIcEED2Ev.exit, label %if.then.i.i

if.then.i.i:                                      ; preds = %entry
  tail call void @_ZdlPv(ptr noundef %0) #24
  br label %_ZNSt7__cxx1112basic_stringIcSt11char_traitsIcESaIcEED2Ev.exit

_ZNSt7__cxx1112basic_stringIcSt11char_traitsIcESaIcEED2Ev.exit: ; preds = %entry, %if.then.i.i
  %2 = load ptr, ptr %this, align 8, !tbaa !11
  %3 = getelementptr inbounds %"class.std::__cxx11::basic_string", ptr %this, i64 0, i32 2
  %cmp.i.i.i2 = icmp eq ptr %2, %3
  br i1 %cmp.i.i.i2, label %_ZNSt7__cxx1112basic_stringIcSt11char_traitsIcESaIcEED2Ev.exit4, label %if.then.i.i3

if.then.i.i3:                                     ; preds = %_ZNSt7__cxx1112basic_stringIcSt11char_traitsIcESaIcEED2Ev.exit
  tail call void @_ZdlPv(ptr noundef %2) #24
  br label %_ZNSt7__cxx1112basic_stringIcSt11char_traitsIcESaIcEED2Ev.exit4

_ZNSt7__cxx1112basic_stringIcSt11char_traitsIcESaIcEED2Ev.exit4: ; preds = %_ZNSt7__cxx1112basic_stringIcSt11char_traitsIcESaIcEED2Ev.exit, %if.then.i.i3
  ret void
}

; Function Attrs: mustprogress nocallback nofree nosync nounwind willreturn memory(argmem: readwrite)
declare void @llvm.lifetime.end.p0(i64 immarg, ptr nocapture) #8

; Function Attrs: mustprogress uwtable
define hidden void @_Z23BM_error_before_runningRN9benchmark5StateE(ptr noundef nonnull align 8 dereferenceable(144) %state) #4 {
entry:
  tail call void @_ZN9benchmark5State13SkipWithErrorEPKc(ptr noundef nonnull align 8 dereferenceable(144) %state, ptr noundef nonnull @.str)
  %0 = load i64, ptr %state, align 8, !tbaa !34
  %cmp6.not.i.i = icmp eq i64 %0, 0
  br i1 %cmp6.not.i.i, label %if.end.i.i, label %while.body.critedge, !prof !49

if.end.i.i:                                       ; preds = %entry
  %started_.i.i = getelementptr inbounds %"class.benchmark::State", ptr %state, i64 0, i32 3
  %1 = load i8, ptr %started_.i.i, align 8, !tbaa !50, !range !24, !noundef !25
  %tobool9.not.i.i = icmp eq i8 %1, 0
  br i1 %tobool9.not.i.i, label %if.then10.i.i, label %if.end18.i.i

if.then10.i.i:                                    ; preds = %if.end.i.i
  tail call void @_ZN9benchmark5State16StartKeepRunningEv(ptr noundef nonnull align 8 dereferenceable(144) %state)
  %error_occurred_.i.i = getelementptr inbounds %"class.benchmark::State", ptr %state, i64 0, i32 5
  %2 = load i8, ptr %error_occurred_.i.i, align 2, !tbaa !51, !range !24, !noundef !25
  %tobool11.not.i.i = icmp ne i8 %2, 0
  %3 = load i64, ptr %state, align 8
  %cmp13.not.i.i = icmp eq i64 %3, 0
  %or.cond = select i1 %tobool11.not.i.i, i1 true, i1 %cmp13.not.i.i
  br i1 %or.cond, label %if.end18.i.i, label %while.body.critedge

if.end18.i.i:                                     ; preds = %if.then10.i.i, %if.end.i.i
  tail call void @_ZN9benchmark5State17FinishKeepRunningEv(ptr noundef nonnull align 8 dereferenceable(144) %state)
  ret void

while.body.critedge:                              ; preds = %if.then10.i.i, %entry
  %storemerge.in = phi i64 [ %0, %entry ], [ %3, %if.then10.i.i ]
  %storemerge = add i64 %storemerge.in, -1
  store i64 %storemerge, ptr %state, align 8, !tbaa !34
  tail call void @__assert_fail(ptr noundef nonnull @.str.7, ptr noundef nonnull @.str.8, i32 noundef 73, ptr noundef nonnull @__PRETTY_FUNCTION__._Z23BM_error_before_runningRN9benchmark5StateE) #28
  unreachable
}

; Function Attrs: noreturn nounwind
declare void @__assert_fail(ptr noundef, ptr noundef, i32 noundef, ptr noundef) local_unnamed_addr #10

; Function Attrs: mustprogress uwtable
define hidden void @_Z29BM_error_before_running_batchRN9benchmark5StateE(ptr noundef nonnull align 8 dereferenceable(144) %state) #4 {
entry:
  tail call void @_ZN9benchmark5State13SkipWithErrorEPKc(ptr noundef nonnull align 8 dereferenceable(144) %state, ptr noundef nonnull @.str)
  %0 = load i64, ptr %state, align 8, !tbaa !34
  %cmp6.not.i.i = icmp ult i64 %0, 17
  br i1 %cmp6.not.i.i, label %if.end.i.i, label %if.then.i.i, !prof !49

if.then.i.i:                                      ; preds = %entry
  %sub.i.i = add i64 %0, -17
  br label %while.body.critedge

if.end.i.i:                                       ; preds = %entry
  %started_.i.i = getelementptr inbounds %"class.benchmark::State", ptr %state, i64 0, i32 3
  %1 = load i8, ptr %started_.i.i, align 8, !tbaa !50, !range !24, !noundef !25
  %tobool9.not.i.i = icmp eq i8 %1, 0
  br i1 %tobool9.not.i.i, label %if.then10.i.i, label %if.end18.i.i

if.then10.i.i:                                    ; preds = %if.end.i.i
  tail call void @_ZN9benchmark5State16StartKeepRunningEv(ptr noundef nonnull align 8 dereferenceable(144) %state)
  %error_occurred_.i.i = getelementptr inbounds %"class.benchmark::State", ptr %state, i64 0, i32 5
  %2 = load i8, ptr %error_occurred_.i.i, align 2, !tbaa !51, !range !24, !noundef !25
  %tobool11.not.i.i = icmp ne i8 %2, 0
  %3 = load i64, ptr %state, align 8, !tbaa !34
  %cmp13.not.i.i = icmp ult i64 %3, 17
  %or.cond.i = select i1 %tobool11.not.i.i, i1 true, i1 %cmp13.not.i.i
  br i1 %or.cond.i, label %if.end18.i.i, label %if.then14.i.i

if.then14.i.i:                                    ; preds = %if.then10.i.i
  %sub16.i.i = add i64 %3, -17
  br label %while.body.critedge

if.end18.i.i:                                     ; preds = %if.then10.i.i, %if.end.i.i
  %4 = phi i64 [ %0, %if.end.i.i ], [ %3, %if.then10.i.i ]
  %cmp22.not.i.i = icmp eq i64 %4, 0
  br i1 %cmp22.not.i.i, label %if.end27.i.i, label %if.then23.i.i

if.then23.i.i:                                    ; preds = %if.end18.i.i
  %sub25.i.i = sub i64 17, %4
  %batch_leftover_.i.i = getelementptr inbounds %"class.benchmark::State", ptr %state, i64 0, i32 1
  store i64 %sub25.i.i, ptr %batch_leftover_.i.i, align 8, !tbaa !52
  br label %while.body.critedge

if.end27.i.i:                                     ; preds = %if.end18.i.i
  tail call void @_ZN9benchmark5State17FinishKeepRunningEv(ptr noundef nonnull align 8 dereferenceable(144) %state)
  ret void

while.body.critedge:                              ; preds = %if.then14.i.i, %if.then23.i.i, %if.then.i.i
  %sub16.i.i.sink = phi i64 [ %sub16.i.i, %if.then14.i.i ], [ 0, %if.then23.i.i ], [ %sub.i.i, %if.then.i.i ]
  store i64 %sub16.i.i.sink, ptr %state, align 8, !tbaa !34
  tail call void @__assert_fail(ptr noundef nonnull @.str.7, ptr noundef nonnull @.str.8, i32 noundef 82, ptr noundef nonnull @__PRETTY_FUNCTION__._Z29BM_error_before_running_batchRN9benchmark5StateE) #28
  unreachable
}

; Function Attrs: uwtable
define hidden void @_Z33BM_error_before_running_range_forRN9benchmark5StateE(ptr noundef nonnull align 8 dereferenceable(144) %state) #7 {
entry:
  tail call void @_ZN9benchmark5State13SkipWithErrorEPKc(ptr noundef nonnull align 8 dereferenceable(144) %state, ptr noundef nonnull @.str)
  %error_occurred_.i.i = getelementptr inbounds %"class.benchmark::State", ptr %state, i64 0, i32 5
  %0 = load i8, ptr %error_occurred_.i.i, align 2, !tbaa !51, !range !24, !noundef !25
  %tobool.not.i.i = icmp ne i8 %0, 0
  %max_iterations.i.i = getelementptr inbounds %"class.benchmark::State", ptr %state, i64 0, i32 2
  %1 = load i64, ptr %max_iterations.i.i, align 8
  tail call void @_ZN9benchmark5State16StartKeepRunningEv(ptr noundef nonnull align 8 dereferenceable(144) %state)
  %cmp.not.i.not6 = icmp eq i64 %1, 0
  %cmp.not.i.not = select i1 %tobool.not.i.i, i1 true, i1 %cmp.not.i.not6
  br i1 %cmp.not.i.not, label %if.end.i, label %for.body, !prof !49

if.end.i:                                         ; preds = %entry
  tail call void @_ZN9benchmark5State17FinishKeepRunningEv(ptr noundef nonnull align 8 dereferenceable(144) %state)
  ret void

for.body:                                         ; preds = %entry
  tail call void @__assert_fail(ptr noundef nonnull @.str.7, ptr noundef nonnull @.str.8, i32 noundef 91, ptr noundef nonnull @__PRETTY_FUNCTION__._Z33BM_error_before_running_range_forRN9benchmark5StateE) #28
  unreachable
}

; Function Attrs: mustprogress uwtable
define hidden void @_Z23BM_error_during_runningRN9benchmark5StateE(ptr noundef nonnull align 8 dereferenceable(144) %state) #4 {
entry:
  %started_.i.i = getelementptr inbounds %"class.benchmark::State", ptr %state, i64 0, i32 3
  %error_occurred_.i.i = getelementptr inbounds %"class.benchmark::State", ptr %state, i64 0, i32 5
  %range_.i = getelementptr inbounds %"class.benchmark::State", ptr %state, i64 0, i32 6
  %_M_finish.i.i = getelementptr inbounds %"class.benchmark::State", ptr %state, i64 0, i32 6, i32 0, i32 0, i32 0, i32 1
  %thread_index_.i = getelementptr inbounds %"class.benchmark::State", ptr %state, i64 0, i32 9
  %threads_.i = getelementptr inbounds %"class.benchmark::State", ptr %state, i64 0, i32 10
  br label %while.cond

while.cond:                                       ; preds = %entry, %if.else
  %0 = load i64, ptr %state, align 8, !tbaa !34
  %cmp6.not.i.i = icmp eq i64 %0, 0
  br i1 %cmp6.not.i.i, label %if.end.i.i, label %while.body.critedge, !prof !49

if.end.i.i:                                       ; preds = %while.cond
  %1 = load i8, ptr %started_.i.i, align 8, !tbaa !50, !range !24, !noundef !25
  %tobool9.not.i.i = icmp eq i8 %1, 0
  br i1 %tobool9.not.i.i, label %if.then10.i.i, label %if.end18.i.i

if.then10.i.i:                                    ; preds = %if.end.i.i
  tail call void @_ZN9benchmark5State16StartKeepRunningEv(ptr noundef nonnull align 8 dereferenceable(144) %state)
  %2 = load i8, ptr %error_occurred_.i.i, align 2, !tbaa !51, !range !24, !noundef !25
  %tobool11.not.i.i = icmp ne i8 %2, 0
  %3 = load i64, ptr %state, align 8
  %cmp13.not.i.i = icmp eq i64 %3, 0
  %or.cond = select i1 %tobool11.not.i.i, i1 true, i1 %cmp13.not.i.i
  br i1 %or.cond, label %if.end18.i.i, label %while.body.critedge

if.end18.i.i:                                     ; preds = %if.then10.i.i.1, %if.end.i.i.1, %if.then10.i.i, %if.end.i.i
  tail call void @_ZN9benchmark5State17FinishKeepRunningEv(ptr noundef nonnull align 8 dereferenceable(144) %state)
  ret void

while.body.critedge:                              ; preds = %if.then10.i.i, %while.cond
  %storemerge.in = phi i64 [ %0, %while.cond ], [ %3, %if.then10.i.i ]
  %storemerge = add i64 %storemerge.in, -1
  store i64 %storemerge, ptr %state, align 8, !tbaa !34
  %4 = load ptr, ptr %_M_finish.i.i, align 8, !tbaa !53
  %5 = load ptr, ptr %range_.i, align 8, !tbaa !54
  %cmp.i.not = icmp eq ptr %4, %5
  br i1 %cmp.i.not, label %cond.false.i, label %_ZNK9benchmark5State5rangeEm.exit

cond.false.i:                                     ; preds = %while.body.critedge.1, %while.body.critedge
  tail call void @__assert_fail(ptr noundef nonnull @.str.56, ptr noundef nonnull @.str.53, i32 noundef 762, ptr noundef nonnull @__PRETTY_FUNCTION__._ZNK9benchmark5State5rangeEm) #28
  unreachable

_ZNK9benchmark5State5rangeEm.exit:                ; preds = %while.body.critedge
  %6 = load i64, ptr %5, align 8, !tbaa !19
  %cmp = icmp eq i64 %6, 1
  br i1 %cmp, label %land.lhs.true, label %if.else

land.lhs.true:                                    ; preds = %_ZNK9benchmark5State5rangeEm.exit
  %7 = load i32, ptr %thread_index_.i, align 8, !tbaa !55
  %8 = load i32, ptr %threads_.i, align 4, !tbaa !56
  %div = sdiv i32 %8, 2
  %cmp4.not = icmp sgt i32 %7, %div
  br i1 %cmp4.not, label %if.else, label %cond.end

cond.end:                                         ; preds = %land.lhs.true
  tail call void @_ZN9benchmark5State13SkipWithErrorEPKc(ptr noundef nonnull align 8 dereferenceable(144) %state, ptr noundef nonnull @.str)
  br label %while.cond.1

while.cond.1:                                     ; preds = %if.else.1, %cond.end
  %9 = load i64, ptr %state, align 8, !tbaa !34
  %cmp6.not.i.i.1 = icmp eq i64 %9, 0
  br i1 %cmp6.not.i.i.1, label %if.end.i.i.1, label %while.body.critedge.1, !prof !49

if.end.i.i.1:                                     ; preds = %while.cond.1
  %10 = load i8, ptr %started_.i.i, align 8, !tbaa !50, !range !24, !noundef !25
  %tobool9.not.i.i.1 = icmp eq i8 %10, 0
  br i1 %tobool9.not.i.i.1, label %if.then10.i.i.1, label %if.end18.i.i

if.then10.i.i.1:                                  ; preds = %if.end.i.i.1
  tail call void @_ZN9benchmark5State16StartKeepRunningEv(ptr noundef nonnull align 8 dereferenceable(144) %state)
  %11 = load i8, ptr %error_occurred_.i.i, align 2, !tbaa !51, !range !24, !noundef !25
  %tobool11.not.i.i.1 = icmp ne i8 %11, 0
  %12 = load i64, ptr %state, align 8
  %cmp13.not.i.i.1 = icmp eq i64 %12, 0
  %or.cond.1 = select i1 %tobool11.not.i.i.1, i1 true, i1 %cmp13.not.i.i.1
  br i1 %or.cond.1, label %if.end18.i.i, label %while.body.critedge.1

while.body.critedge.1:                            ; preds = %if.then10.i.i.1, %while.cond.1
  %storemerge.in.1 = phi i64 [ %9, %while.cond.1 ], [ %12, %if.then10.i.i.1 ]
  %storemerge.1 = add i64 %storemerge.in.1, -1
  store i64 %storemerge.1, ptr %state, align 8, !tbaa !34
  %13 = load ptr, ptr %_M_finish.i.i, align 8, !tbaa !53
  %14 = load ptr, ptr %range_.i, align 8, !tbaa !54
  %cmp.i.not.1 = icmp eq ptr %13, %14
  br i1 %cmp.i.not.1, label %cond.false.i, label %_ZNK9benchmark5State5rangeEm.exit.1

_ZNK9benchmark5State5rangeEm.exit.1:              ; preds = %while.body.critedge.1
  %15 = load i64, ptr %14, align 8, !tbaa !19
  %cmp.1 = icmp eq i64 %15, 1
  br i1 %cmp.1, label %land.lhs.true.1, label %if.else.1

land.lhs.true.1:                                  ; preds = %_ZNK9benchmark5State5rangeEm.exit.1
  %16 = load i32, ptr %thread_index_.i, align 8, !tbaa !55
  %17 = load i32, ptr %threads_.i, align 4, !tbaa !56
  %div.1 = sdiv i32 %17, 2
  %cmp4.not.1 = icmp sgt i32 %16, %div.1
  br i1 %cmp4.not.1, label %if.else.1, label %if.then.1

if.then.1:                                        ; preds = %land.lhs.true.1
  tail call void @__assert_fail(ptr noundef nonnull @.str.18, ptr noundef nonnull @.str.8, i32 noundef 101, ptr noundef nonnull @__PRETTY_FUNCTION__._Z23BM_error_during_runningRN9benchmark5StateE) #28
  unreachable

if.else.1:                                        ; preds = %land.lhs.true.1, %_ZNK9benchmark5State5rangeEm.exit.1
  tail call void @_ZN9benchmark5State11PauseTimingEv(ptr noundef nonnull align 8 dereferenceable(144) %state)
  tail call void @_ZN9benchmark5State12ResumeTimingEv(ptr noundef nonnull align 8 dereferenceable(144) %state)
  br label %while.cond.1, !llvm.loop !57

if.else:                                          ; preds = %land.lhs.true, %_ZNK9benchmark5State5rangeEm.exit
  tail call void @_ZN9benchmark5State11PauseTimingEv(ptr noundef nonnull align 8 dereferenceable(144) %state)
  tail call void @_ZN9benchmark5State12ResumeTimingEv(ptr noundef nonnull align 8 dereferenceable(144) %state)
  br label %while.cond, !llvm.loop !57
}

declare void @_ZN9benchmark5State11PauseTimingEv(ptr noundef nonnull align 8 dereferenceable(144)) local_unnamed_addr #0

declare void @_ZN9benchmark5State12ResumeTimingEv(ptr noundef nonnull align 8 dereferenceable(144)) local_unnamed_addr #0

declare noundef ptr @_ZN9benchmark8internal9Benchmark3ArgEl(ptr noundef nonnull align 8 dereferenceable(216), i64 noundef) local_unnamed_addr #0

declare noundef ptr @_ZN9benchmark8internal9Benchmark11ThreadRangeEii(ptr noundef nonnull align 8 dereferenceable(216), i32 noundef, i32 noundef) local_unnamed_addr #0

; Function Attrs: uwtable
define hidden void @_Z34BM_error_during_running_ranged_forRN9benchmark5StateE(ptr noundef nonnull align 8 dereferenceable(144) %state) #7 {
entry:
  %max_iterations = getelementptr inbounds %"class.benchmark::State", ptr %state, i64 0, i32 2
  %0 = load i64, ptr %max_iterations, align 8
  %cmp = icmp ugt i64 %0, 3
  br i1 %cmp, label %cond.end, label %cond.false

cond.false:                                       ; preds = %entry
  tail call void @__assert_fail(ptr noundef nonnull @.str.31, ptr noundef nonnull @.str.8, i32 noundef 121, ptr noundef nonnull @__PRETTY_FUNCTION__._Z34BM_error_during_running_ranged_forRN9benchmark5StateE) #28
  unreachable

cond.end:                                         ; preds = %entry
  %error_occurred_.i.i = getelementptr inbounds %"class.benchmark::State", ptr %state, i64 0, i32 5
  %1 = load i8, ptr %error_occurred_.i.i, align 2, !tbaa !51, !range !24, !noundef !25
  %tobool.not.i.i.not = icmp eq i8 %1, 0
  tail call void @_ZN9benchmark5State16StartKeepRunningEv(ptr noundef nonnull align 8 dereferenceable(144) %state)
  br i1 %tobool.not.i.i.not, label %for.body.lr.ph, label %if.end.i, !prof !58

for.body.lr.ph:                                   ; preds = %cond.end
  %range_.i = getelementptr inbounds %"class.benchmark::State", ptr %state, i64 0, i32 6
  %_M_finish.i.i = getelementptr inbounds %"class.benchmark::State", ptr %state, i64 0, i32 6, i32 0, i32 0, i32 0, i32 1
  %2 = load ptr, ptr %_M_finish.i.i, align 8, !tbaa !53
  %3 = load ptr, ptr %range_.i, align 8, !tbaa !54
  %cmp.i.not = icmp eq ptr %2, %3
  br i1 %cmp.i.not, label %cond.false.i, label %for.body.lr.ph.split

for.body.lr.ph.split:                             ; preds = %for.body.lr.ph
  %4 = load i64, ptr %3, align 8, !tbaa !19
  %cmp4 = icmp eq i64 %4, 1
  br i1 %cmp4, label %cond.end7, label %if.end.i

if.end.i:                                         ; preds = %for.body.lr.ph.split, %cond.end
  tail call void @_ZN9benchmark5State17FinishKeepRunningEv(ptr noundef nonnull align 8 dereferenceable(144) %state)
  br label %cleanup

cond.false.i:                                     ; preds = %for.body.lr.ph
  tail call void @__assert_fail(ptr noundef nonnull @.str.56, ptr noundef nonnull @.str.53, i32 noundef 762, ptr noundef nonnull @__PRETTY_FUNCTION__._ZNK9benchmark5State5rangeEm) #28
  unreachable

cond.end7:                                        ; preds = %for.body.lr.ph.split
  tail call void @_ZN9benchmark5State13SkipWithErrorEPKc(ptr noundef nonnull align 8 dereferenceable(144) %state, ptr noundef nonnull @.str)
  br label %cleanup

cleanup:                                          ; preds = %cond.end7, %if.end.i
  ret void
}

declare noundef ptr @_ZN9benchmark8internal9Benchmark10IterationsEm(ptr noundef nonnull align 8 dereferenceable(216), i64 noundef) local_unnamed_addr #0

; Function Attrs: uwtable
define hidden void @_Z22BM_error_after_runningRN9benchmark5StateE(ptr noundef nonnull align 8 dereferenceable(144) %state) #7 {
entry:
  %error_occurred_.i.i = getelementptr inbounds %"class.benchmark::State", ptr %state, i64 0, i32 5
  %0 = load i8, ptr %error_occurred_.i.i, align 2, !tbaa !51, !range !24, !noundef !25
  %tobool.not.i.i = icmp ne i8 %0, 0
  %max_iterations.i.i = getelementptr inbounds %"class.benchmark::State", ptr %state, i64 0, i32 2
  %1 = load i64, ptr %max_iterations.i.i, align 8
  tail call void @_ZN9benchmark5State16StartKeepRunningEv(ptr noundef nonnull align 8 dereferenceable(144) %state)
  %cmp.not.i.not1517 = icmp eq i64 %1, 0
  %cmp.not.i.not15 = select i1 %tobool.not.i.i, i1 true, i1 %cmp.not.i.not1517
  br i1 %cmp.not.i.not15, label %if.end.i, label %for.body.lr.ph, !prof !49

for.body.lr.ph:                                   ; preds = %entry
  %started_.i = getelementptr inbounds %"class.benchmark::State", ptr %state, i64 0, i32 3
  %batch_leftover_.i = getelementptr inbounds %"class.benchmark::State", ptr %state, i64 0, i32 1
  br label %for.body

if.end.i:                                         ; preds = %_ZNK9benchmark5State10iterationsEv.exit, %entry
  tail call void @_ZN9benchmark5State17FinishKeepRunningEv(ptr noundef nonnull align 8 dereferenceable(144) %state)
  %thread_index_.i = getelementptr inbounds %"class.benchmark::State", ptr %state, i64 0, i32 9
  %2 = load i32, ptr %thread_index_.i, align 8, !tbaa !55
  %threads_.i = getelementptr inbounds %"class.benchmark::State", ptr %state, i64 0, i32 10
  %3 = load i32, ptr %threads_.i, align 4, !tbaa !56
  %div = sdiv i32 %3, 2
  %cmp.not = icmp sgt i32 %2, %div
  br i1 %cmp.not, label %if.end, label %if.then

for.body:                                         ; preds = %for.body.lr.ph, %_ZNK9benchmark5State10iterationsEv.exit
  %__begin1.sroa.0.016 = phi i64 [ %1, %for.body.lr.ph ], [ %dec.i, %_ZNK9benchmark5State10iterationsEv.exit ]
  %4 = load i8, ptr %started_.i, align 8, !tbaa !50, !range !24, !noundef !25
  %tobool.not.i = icmp eq i8 %4, 0
  br i1 %tobool.not.i, label %_ZNK9benchmark5State10iterationsEv.exit, label %if.end.i12, !prof !49

if.end.i12:                                       ; preds = %for.body
  %5 = load i64, ptr %max_iterations.i.i, align 8, !tbaa !59
  %6 = load i64, ptr %state, align 8, !tbaa !34
  %sub.i = sub i64 %5, %6
  %7 = load i64, ptr %batch_leftover_.i, align 8, !tbaa !52
  %add.i = add i64 %sub.i, %7
  br label %_ZNK9benchmark5State10iterationsEv.exit

_ZNK9benchmark5State10iterationsEv.exit:          ; preds = %for.body, %if.end.i12
  %retval.0.i = phi i64 [ %add.i, %if.end.i12 ], [ 0, %for.body ]
  tail call void asm sideeffect "", "r|m,~{memory},~{dirflag},~{fpsr},~{flags}"(i64 %retval.0.i) #25, !srcloc !60
  %dec.i = add i64 %__begin1.sroa.0.016, -1
  %cmp.not.i.not = icmp eq i64 %dec.i, 0
  br i1 %cmp.not.i.not, label %if.end.i, label %for.body, !prof !49

if.then:                                          ; preds = %if.end.i
  tail call void @_ZN9benchmark5State13SkipWithErrorEPKc(ptr noundef nonnull align 8 dereferenceable(144) %state, ptr noundef nonnull @.str)
  br label %if.end

if.end:                                           ; preds = %if.then, %if.end.i
  ret void
}

; Function Attrs: mustprogress uwtable
define hidden void @_Z21BM_error_while_pausedRN9benchmark5StateE(ptr noundef nonnull align 8 dereferenceable(144) %state) #4 {
entry:
  %started_.i.i = getelementptr inbounds %"class.benchmark::State", ptr %state, i64 0, i32 3
  %error_occurred_.i.i = getelementptr inbounds %"class.benchmark::State", ptr %state, i64 0, i32 5
  %range_.i = getelementptr inbounds %"class.benchmark::State", ptr %state, i64 0, i32 6
  %_M_finish.i.i = getelementptr inbounds %"class.benchmark::State", ptr %state, i64 0, i32 6, i32 0, i32 0, i32 0, i32 1
  %thread_index_.i = getelementptr inbounds %"class.benchmark::State", ptr %state, i64 0, i32 9
  %threads_.i = getelementptr inbounds %"class.benchmark::State", ptr %state, i64 0, i32 10
  br label %while.cond

while.cond:                                       ; preds = %entry, %if.else
  %0 = load i64, ptr %state, align 8, !tbaa !34
  %cmp6.not.i.i = icmp eq i64 %0, 0
  br i1 %cmp6.not.i.i, label %if.end.i.i, label %while.body.critedge, !prof !49

if.end.i.i:                                       ; preds = %while.cond
  %1 = load i8, ptr %started_.i.i, align 8, !tbaa !50, !range !24, !noundef !25
  %tobool9.not.i.i = icmp eq i8 %1, 0
  br i1 %tobool9.not.i.i, label %if.then10.i.i, label %if.end18.i.i

if.then10.i.i:                                    ; preds = %if.end.i.i
  tail call void @_ZN9benchmark5State16StartKeepRunningEv(ptr noundef nonnull align 8 dereferenceable(144) %state)
  %2 = load i8, ptr %error_occurred_.i.i, align 2, !tbaa !51, !range !24, !noundef !25
  %tobool11.not.i.i = icmp ne i8 %2, 0
  %3 = load i64, ptr %state, align 8
  %cmp13.not.i.i = icmp eq i64 %3, 0
  %or.cond = select i1 %tobool11.not.i.i, i1 true, i1 %cmp13.not.i.i
  br i1 %or.cond, label %if.end18.i.i, label %while.body.critedge

if.end18.i.i:                                     ; preds = %if.then10.i.i.1, %if.end.i.i.1, %if.then10.i.i, %if.end.i.i
  tail call void @_ZN9benchmark5State17FinishKeepRunningEv(ptr noundef nonnull align 8 dereferenceable(144) %state)
  ret void

while.body.critedge:                              ; preds = %if.then10.i.i, %while.cond
  %storemerge.in = phi i64 [ %0, %while.cond ], [ %3, %if.then10.i.i ]
  %storemerge = add i64 %storemerge.in, -1
  store i64 %storemerge, ptr %state, align 8, !tbaa !34
  %4 = load ptr, ptr %_M_finish.i.i, align 8, !tbaa !53
  %5 = load ptr, ptr %range_.i, align 8, !tbaa !54
  %cmp.i.not = icmp eq ptr %4, %5
  br i1 %cmp.i.not, label %cond.false.i, label %_ZNK9benchmark5State5rangeEm.exit

cond.false.i:                                     ; preds = %while.body.critedge.1, %while.body.critedge
  tail call void @__assert_fail(ptr noundef nonnull @.str.56, ptr noundef nonnull @.str.53, i32 noundef 762, ptr noundef nonnull @__PRETTY_FUNCTION__._ZNK9benchmark5State5rangeEm) #28
  unreachable

_ZNK9benchmark5State5rangeEm.exit:                ; preds = %while.body.critedge
  %6 = load i64, ptr %5, align 8, !tbaa !19
  %cmp = icmp eq i64 %6, 1
  br i1 %cmp, label %land.lhs.true, label %if.else

land.lhs.true:                                    ; preds = %_ZNK9benchmark5State5rangeEm.exit
  %7 = load i32, ptr %thread_index_.i, align 8, !tbaa !55
  %8 = load i32, ptr %threads_.i, align 4, !tbaa !56
  %div = sdiv i32 %8, 2
  %cmp4.not = icmp sgt i32 %7, %div
  br i1 %cmp4.not, label %if.else, label %cond.end

cond.end:                                         ; preds = %land.lhs.true
  tail call void @_ZN9benchmark5State11PauseTimingEv(ptr noundef nonnull align 8 dereferenceable(144) %state)
  tail call void @_ZN9benchmark5State13SkipWithErrorEPKc(ptr noundef nonnull align 8 dereferenceable(144) %state, ptr noundef nonnull @.str)
  br label %while.cond.1

while.cond.1:                                     ; preds = %if.else.1, %cond.end
  %9 = load i64, ptr %state, align 8, !tbaa !34
  %cmp6.not.i.i.1 = icmp eq i64 %9, 0
  br i1 %cmp6.not.i.i.1, label %if.end.i.i.1, label %while.body.critedge.1, !prof !49

if.end.i.i.1:                                     ; preds = %while.cond.1
  %10 = load i8, ptr %started_.i.i, align 8, !tbaa !50, !range !24, !noundef !25
  %tobool9.not.i.i.1 = icmp eq i8 %10, 0
  br i1 %tobool9.not.i.i.1, label %if.then10.i.i.1, label %if.end18.i.i

if.then10.i.i.1:                                  ; preds = %if.end.i.i.1
  tail call void @_ZN9benchmark5State16StartKeepRunningEv(ptr noundef nonnull align 8 dereferenceable(144) %state)
  %11 = load i8, ptr %error_occurred_.i.i, align 2, !tbaa !51, !range !24, !noundef !25
  %tobool11.not.i.i.1 = icmp ne i8 %11, 0
  %12 = load i64, ptr %state, align 8
  %cmp13.not.i.i.1 = icmp eq i64 %12, 0
  %or.cond.1 = select i1 %tobool11.not.i.i.1, i1 true, i1 %cmp13.not.i.i.1
  br i1 %or.cond.1, label %if.end18.i.i, label %while.body.critedge.1

while.body.critedge.1:                            ; preds = %if.then10.i.i.1, %while.cond.1
  %storemerge.in.1 = phi i64 [ %9, %while.cond.1 ], [ %12, %if.then10.i.i.1 ]
  %storemerge.1 = add i64 %storemerge.in.1, -1
  store i64 %storemerge.1, ptr %state, align 8, !tbaa !34
  %13 = load ptr, ptr %_M_finish.i.i, align 8, !tbaa !53
  %14 = load ptr, ptr %range_.i, align 8, !tbaa !54
  %cmp.i.not.1 = icmp eq ptr %13, %14
  br i1 %cmp.i.not.1, label %cond.false.i, label %_ZNK9benchmark5State5rangeEm.exit.1

_ZNK9benchmark5State5rangeEm.exit.1:              ; preds = %while.body.critedge.1
  %15 = load i64, ptr %14, align 8, !tbaa !19
  %cmp.1 = icmp eq i64 %15, 1
  br i1 %cmp.1, label %land.lhs.true.1, label %if.else.1

land.lhs.true.1:                                  ; preds = %_ZNK9benchmark5State5rangeEm.exit.1
  %16 = load i32, ptr %thread_index_.i, align 8, !tbaa !55
  %17 = load i32, ptr %threads_.i, align 4, !tbaa !56
  %div.1 = sdiv i32 %17, 2
  %cmp4.not.1 = icmp sgt i32 %16, %div.1
  br i1 %cmp4.not.1, label %if.else.1, label %if.then.1

if.then.1:                                        ; preds = %land.lhs.true.1
  tail call void @__assert_fail(ptr noundef nonnull @.str.18, ptr noundef nonnull @.str.8, i32 noundef 159, ptr noundef nonnull @__PRETTY_FUNCTION__._Z21BM_error_while_pausedRN9benchmark5StateE) #28
  unreachable

if.else.1:                                        ; preds = %land.lhs.true.1, %_ZNK9benchmark5State5rangeEm.exit.1
  tail call void @_ZN9benchmark5State11PauseTimingEv(ptr noundef nonnull align 8 dereferenceable(144) %state)
  tail call void @_ZN9benchmark5State12ResumeTimingEv(ptr noundef nonnull align 8 dereferenceable(144) %state)
  br label %while.cond.1, !llvm.loop !61

if.else:                                          ; preds = %land.lhs.true, %_ZNK9benchmark5State5rangeEm.exit
  tail call void @_ZN9benchmark5State11PauseTimingEv(ptr noundef nonnull align 8 dereferenceable(144) %state)
  tail call void @_ZN9benchmark5State12ResumeTimingEv(ptr noundef nonnull align 8 dereferenceable(144) %state)
  br label %while.cond, !llvm.loop !61
}

; Function Attrs: norecurse uwtable
define hidden noundef i32 @main(i32 noundef %argc, ptr noundef %argv) local_unnamed_addr #11 personality ptr @__gxx_personality_v0 {
entry:
  %ref.tmp.i = alloca %"class.std::__cxx11::basic_string", align 8
  %ref.tmp3.i = alloca %"class.benchmark::internal::CheckHandler", align 8
  %ref.tmp17.i = alloca %"class.std::__cxx11::basic_string", align 8
  %ref.tmp44.i = alloca %"class.benchmark::internal::CheckHandler", align 8
  %ref.tmp72.i = alloca %"class.benchmark::internal::CheckHandler", align 8
  %ref.tmp101.i = alloca %"class.benchmark::internal::CheckHandler", align 8
  %argc.addr = alloca i32, align 4
  %test_reporter = alloca %"class.(anonymous namespace)::TestReporter", align 8
  store i32 %argc, ptr %argc.addr, align 4, !tbaa !62
  call void @_ZN9benchmark10InitializeEPiPPcPFvvE(ptr noundef nonnull %argc.addr, ptr noundef %argv, ptr noundef null)
  call void @llvm.lifetime.start.p0(i64 120, ptr nonnull %test_reporter) #25
  call void @_ZN9benchmark17BenchmarkReporterC2Ev(ptr noundef nonnull align 8 dereferenceable(24) %test_reporter)
  %output_options_.i.i = getelementptr inbounds %"class.benchmark::ConsoleReporter", ptr %test_reporter, i64 0, i32 1
  store i32 3, ptr %output_options_.i.i, align 8, !tbaa !63
  %name_field_width_.i.i = getelementptr inbounds %"class.benchmark::ConsoleReporter", ptr %test_reporter, i64 0, i32 3
  store i64 0, ptr %name_field_width_.i.i, align 8, !tbaa !67
  %0 = getelementptr inbounds %"class.benchmark::ConsoleReporter", ptr %test_reporter, i64 0, i32 4, i32 0, i32 0, i32 1
  store i32 0, ptr %0, align 8, !tbaa !68
  %_M_parent.i.i.i.i.i.i.i = getelementptr inbounds %"class.benchmark::ConsoleReporter", ptr %test_reporter, i64 0, i32 4, i32 0, i32 0, i32 1, i32 0, i32 1
  store ptr null, ptr %_M_parent.i.i.i.i.i.i.i, align 8, !tbaa !69
  %_M_left.i.i.i.i.i.i.i = getelementptr inbounds %"class.benchmark::ConsoleReporter", ptr %test_reporter, i64 0, i32 4, i32 0, i32 0, i32 1, i32 0, i32 2
  store ptr %0, ptr %_M_left.i.i.i.i.i.i.i, align 8, !tbaa !70
  %_M_right.i.i.i.i.i.i.i = getelementptr inbounds %"class.benchmark::ConsoleReporter", ptr %test_reporter, i64 0, i32 4, i32 0, i32 0, i32 1, i32 0, i32 3
  store ptr %0, ptr %_M_right.i.i.i.i.i.i.i, align 8, !tbaa !71
  %_M_node_count.i.i.i.i.i.i.i = getelementptr inbounds %"class.benchmark::ConsoleReporter", ptr %test_reporter, i64 0, i32 4, i32 0, i32 0, i32 1, i32 1
  store i64 0, ptr %_M_node_count.i.i.i.i.i.i.i, align 8, !tbaa !72
  %printed_header_.i.i = getelementptr inbounds %"class.benchmark::ConsoleReporter", ptr %test_reporter, i64 0, i32 5
  store i8 0, ptr %printed_header_.i.i, align 8, !tbaa !73
  store ptr getelementptr inbounds ({ [9 x ptr] }, ptr @_ZTVN12_GLOBAL__N_112TestReporterE, i64 0, inrange i32 0, i64 2), ptr %test_reporter, align 8, !tbaa !74
  %all_runs_.i = getelementptr inbounds %"class.(anonymous namespace)::TestReporter", ptr %test_reporter, i64 0, i32 1
  call void @llvm.memset.p0.i64(ptr noundef nonnull align 8 dereferenceable(24) %all_runs_.i, i8 0, i64 24, i1 false)
  %call = invoke noundef i64 @_ZN9benchmark22RunSpecifiedBenchmarksEPNS_17BenchmarkReporterE(ptr noundef nonnull %test_reporter)
          to label %invoke.cont unwind label %lpad

invoke.cont:                                      ; preds = %entry
  %_ZN12_GLOBAL__N_115ExpectedResultsE.val.i = load ptr, ptr @_ZN12_GLOBAL__N_115ExpectedResultsE, align 8, !tbaa !26
  %1 = load ptr, ptr %all_runs_.i, align 8, !tbaa !26
  %_M_finish.i = getelementptr inbounds %"class.(anonymous namespace)::TestReporter", ptr %test_reporter, i64 0, i32 1, i32 0, i32 0, i32 0, i32 1
  %2 = load ptr, ptr %_M_finish.i, align 8, !tbaa !26
  %cmp.i.not61 = icmp eq ptr %1, %2
  br i1 %cmp.i.not61, label %for.cond.cleanup, label %for.body.lr.ph

for.body.lr.ph:                                   ; preds = %invoke.cont
  %_M_string_length.i9.i.i = getelementptr inbounds %"class.std::__cxx11::basic_string", ptr %ref.tmp.i, i64 0, i32 1
  %_M_string_length.i.i.i140.i = getelementptr inbounds %"class.std::__cxx11::basic_string", ptr %ref.tmp17.i, i64 0, i32 1
  %3 = getelementptr inbounds %"class.std::__cxx11::basic_string", ptr %ref.tmp17.i, i64 0, i32 2
  %4 = getelementptr inbounds %"class.std::__cxx11::basic_string", ptr %ref.tmp.i, i64 0, i32 2
  br label %for.body

for.cond.cleanup:                                 ; preds = %invoke.cont13, %invoke.cont
  %EB.sroa.0.0.lcssa = phi ptr [ %_ZN12_GLOBAL__N_115ExpectedResultsE.val.i, %invoke.cont ], [ %incdec.ptr.i, %invoke.cont13 ]
  %.val.i = load ptr, ptr getelementptr inbounds (%"class.std::vector", ptr @_ZN12_GLOBAL__N_115ExpectedResultsE, i64 0, i32 0, i32 0, i32 0, i32 1), align 8, !tbaa !26
  %cmp.i28 = icmp eq ptr %EB.sroa.0.0.lcssa, %.val.i
  br i1 %cmp.i28, label %cond.end22, label %cond.false21

lpad:                                             ; preds = %entry
  %5 = landingpad { ptr, i32 }
          cleanup
  br label %ehcleanup

for.body:                                         ; preds = %for.body.lr.ph, %invoke.cont13
  %EB.sroa.0.063 = phi ptr [ %_ZN12_GLOBAL__N_115ExpectedResultsE.val.i, %for.body.lr.ph ], [ %incdec.ptr.i, %invoke.cont13 ]
  %__begin1.sroa.0.062 = phi ptr [ %1, %for.body.lr.ph ], [ %incdec.ptr.i37, %invoke.cont13 ]
  %.val.i29 = load ptr, ptr getelementptr inbounds (%"class.std::vector", ptr @_ZN12_GLOBAL__N_115ExpectedResultsE, i64 0, i32 0, i32 0, i32 0, i32 1), align 8, !tbaa !26
  %cmp.i30.not = icmp eq ptr %EB.sroa.0.063, %.val.i29
  br i1 %cmp.i30.not, label %cond.false, label %cond.end

cond.false:                                       ; preds = %for.body
  call void @__assert_fail(ptr noundef nonnull @.str.48, ptr noundef nonnull @.str.8, i32 noundef 189, ptr noundef nonnull @__PRETTY_FUNCTION__.main) #28
  unreachable

cond.end:                                         ; preds = %for.body
  call void @llvm.lifetime.start.p0(i64 32, ptr nonnull %ref.tmp.i) #25
  invoke void @_ZNK9benchmark17BenchmarkReporter3Run14benchmark_nameB5cxx11Ev(ptr nonnull sret(%"class.std::__cxx11::basic_string") align 8 %ref.tmp.i, ptr noundef nonnull align 8 dereferenceable(528) %__begin1.sroa.0.062)
          to label %.noexc unwind label %lpad12.loopexit

.noexc:                                           ; preds = %cond.end
  %_M_string_length.i.i.i = getelementptr inbounds %"class.std::__cxx11::basic_string", ptr %EB.sroa.0.063, i64 0, i32 1
  %6 = load i64, ptr %_M_string_length.i.i.i, align 8, !tbaa !18
  %7 = load i64, ptr %_M_string_length.i9.i.i, align 8, !tbaa !18
  %cmp.i.i = icmp eq i64 %6, %7
  br i1 %cmp.i.i, label %land.rhs.i.i, label %cond.false.i

land.rhs.i.i:                                     ; preds = %.noexc
  %cmp.i.i.i = icmp eq i64 %6, 0
  br i1 %cmp.i.i.i, label %cond.true.i, label %_ZSteqIcEN9__gnu_cxx11__enable_ifIXsr9__is_charIT_EE7__valueEbE6__typeERKNSt7__cxx1112basic_stringIS2_St11char_traitsIS2_ESaIS2_EEESC_.exit.i

_ZSteqIcEN9__gnu_cxx11__enable_ifIXsr9__is_charIT_EE7__valueEbE6__typeERKNSt7__cxx1112basic_stringIS2_St11char_traitsIS2_ESaIS2_EEESC_.exit.i: ; preds = %land.rhs.i.i
  %8 = load ptr, ptr %ref.tmp.i, align 8, !tbaa !11
  %9 = load ptr, ptr %EB.sroa.0.063, align 8, !tbaa !11
  %bcmp.i.i = call i32 @bcmp(ptr %9, ptr %8, i64 %6)
  %10 = icmp eq i32 %bcmp.i.i, 0
  br i1 %10, label %cond.true.i, label %cond.false.i

cond.true.i:                                      ; preds = %_ZSteqIcEN9__gnu_cxx11__enable_ifIXsr9__is_charIT_EE7__valueEbE6__typeERKNSt7__cxx1112basic_stringIS2_St11char_traitsIS2_ESaIS2_EEESC_.exit.i, %land.rhs.i.i
  %11 = load atomic i8, ptr @_ZGVZN9benchmark8internal18GetNullLogInstanceEvE3log acquire, align 8
  %guard.uninitialized.i.i = icmp eq i8 %11, 0
  br i1 %guard.uninitialized.i.i, label %init.check.i.i, label %cond.end.i, !prof !76

init.check.i.i:                                   ; preds = %cond.true.i
  %12 = call i32 @__cxa_guard_acquire(ptr nonnull @_ZGVZN9benchmark8internal18GetNullLogInstanceEvE3log) #25
  %tobool.not.i.i = icmp eq i32 %12, 0
  br i1 %tobool.not.i.i, label %cond.end.i, label %init.i.i

init.i.i:                                         ; preds = %init.check.i.i
  store ptr null, ptr @_ZZN9benchmark8internal18GetNullLogInstanceEvE3log, align 8, !tbaa !77
  call void @__cxa_guard_release(ptr nonnull @_ZGVZN9benchmark8internal18GetNullLogInstanceEvE3log) #25
  br label %cond.end.i

cond.false.i:                                     ; preds = %_ZSteqIcEN9__gnu_cxx11__enable_ifIXsr9__is_charIT_EE7__valueEbE6__typeERKNSt7__cxx1112basic_stringIS2_St11char_traitsIS2_ESaIS2_EEESC_.exit.i, %.noexc
  call void @llvm.lifetime.start.p0(i64 8, ptr nonnull %ref.tmp3.i) #25
  invoke void @_ZN9benchmark8internal12CheckHandlerC2EPKcS3_S3_i(ptr noundef nonnull align 8 dereferenceable(8) %ref.tmp3.i, ptr noundef nonnull @.str.58, ptr noundef nonnull @.str.8, ptr noundef nonnull @__func__._ZNK12_GLOBAL__N_18TestCase8CheckRunERKN9benchmark17BenchmarkReporter3RunE, i32 noundef 36)
          to label %invoke.cont5.i unwind label %cleanup.action34.i.loopexit

invoke.cont5.i:                                   ; preds = %cond.false.i
  %13 = load ptr, ptr %ref.tmp3.i, align 8, !tbaa !79
  br label %cond.end.i

cond.end.i:                                       ; preds = %invoke.cont5.i, %init.i.i, %init.check.i.i, %cond.true.i
  %14 = phi i1 [ false, %invoke.cont5.i ], [ true, %cond.true.i ], [ true, %init.check.i.i ], [ true, %init.i.i ]
  %cond-lvalue.i = phi ptr [ %13, %invoke.cont5.i ], [ @_ZZN9benchmark8internal18GetNullLogInstanceEvE3log, %cond.true.i ], [ @_ZZN9benchmark8internal18GetNullLogInstanceEvE3log, %init.check.i.i ], [ @_ZZN9benchmark8internal18GetNullLogInstanceEvE3log, %init.i.i ]
  %15 = load ptr, ptr %cond-lvalue.i, align 8, !tbaa !77
  %tobool.not.i129.i = icmp eq ptr %15, null
  br i1 %tobool.not.i129.i, label %invoke.cont15.i, label %if.then.i.i

if.then.i.i:                                      ; preds = %cond.end.i
  %call1.i.i130.i = invoke noundef nonnull align 8 dereferenceable(8) ptr @_ZSt16__ostream_insertIcSt11char_traitsIcEERSt13basic_ostreamIT_T0_ES6_PKS3_l(ptr noundef nonnull align 8 dereferenceable(8) %15, ptr noundef nonnull @.str.59, i64 noundef 9)
          to label %invoke.cont10.i unwind label %lpad7.i

invoke.cont10.i:                                  ; preds = %if.then.i.i
  %.pr.i = load ptr, ptr %cond-lvalue.i, align 8, !tbaa !77
  %tobool.not.i131.i = icmp eq ptr %.pr.i, null
  br i1 %tobool.not.i131.i, label %invoke.cont15.i, label %if.then.i132.i

if.then.i132.i:                                   ; preds = %invoke.cont10.i
  %16 = load ptr, ptr %EB.sroa.0.063, align 8, !tbaa !11
  %17 = load i64, ptr %_M_string_length.i.i.i, align 8, !tbaa !18
  %call2.i.i133.i = invoke noundef nonnull align 8 dereferenceable(8) ptr @_ZSt16__ostream_insertIcSt11char_traitsIcEERSt13basic_ostreamIT_T0_ES6_PKS3_l(ptr noundef nonnull align 8 dereferenceable(8) %.pr.i, ptr noundef %16, i64 noundef %17)
          to label %invoke.cont13.i unwind label %lpad7.i

invoke.cont13.i:                                  ; preds = %if.then.i132.i
  %.pr183.i = load ptr, ptr %cond-lvalue.i, align 8, !tbaa !77
  %tobool.not.i134.i = icmp eq ptr %.pr183.i, null
  br i1 %tobool.not.i134.i, label %invoke.cont15.i, label %if.then.i136.i

if.then.i136.i:                                   ; preds = %invoke.cont13.i
  %call1.i.i138.i = invoke noundef nonnull align 8 dereferenceable(8) ptr @_ZSt16__ostream_insertIcSt11char_traitsIcEERSt13basic_ostreamIT_T0_ES6_PKS3_l(ptr noundef nonnull align 8 dereferenceable(8) %.pr183.i, ptr noundef nonnull @.str.60, i64 noundef 5)
          to label %invoke.cont15.i unwind label %lpad7.i

invoke.cont15.i:                                  ; preds = %if.then.i136.i, %invoke.cont13.i, %invoke.cont10.i, %cond.end.i
  call void @llvm.lifetime.start.p0(i64 32, ptr nonnull %ref.tmp17.i) #25
  invoke void @_ZNK9benchmark17BenchmarkReporter3Run14benchmark_nameB5cxx11Ev(ptr nonnull sret(%"class.std::__cxx11::basic_string") align 8 %ref.tmp17.i, ptr noundef nonnull align 8 dereferenceable(528) %__begin1.sroa.0.062)
          to label %invoke.cont19.i unwind label %lpad18.i

invoke.cont19.i:                                  ; preds = %invoke.cont15.i
  %18 = load ptr, ptr %cond-lvalue.i, align 8, !tbaa !77
  %tobool.not.i139.i = icmp eq ptr %18, null
  br i1 %tobool.not.i139.i, label %invoke.cont21.i, label %if.then.i141.i

if.then.i141.i:                                   ; preds = %invoke.cont19.i
  %19 = load ptr, ptr %ref.tmp17.i, align 8, !tbaa !11
  %20 = load i64, ptr %_M_string_length.i.i.i140.i, align 8, !tbaa !18
  %call2.i.i143.i = invoke noundef nonnull align 8 dereferenceable(8) ptr @_ZSt16__ostream_insertIcSt11char_traitsIcEERSt13basic_ostreamIT_T0_ES6_PKS3_l(ptr noundef nonnull align 8 dereferenceable(8) %18, ptr noundef %19, i64 noundef %20)
          to label %invoke.cont21.i unwind label %lpad20.i

invoke.cont21.i:                                  ; preds = %if.then.i141.i, %invoke.cont19.i
  %21 = load ptr, ptr %ref.tmp17.i, align 8, !tbaa !11
  %cmp.i.i.i.i = icmp eq ptr %21, %3
  br i1 %cmp.i.i.i.i, label %_ZNSt7__cxx1112basic_stringIcSt11char_traitsIcESaIcEED2Ev.exit.i, label %if.then.i.i.i

if.then.i.i.i:                                    ; preds = %invoke.cont21.i
  call void @_ZdlPv(ptr noundef %21) #24
  br label %_ZNSt7__cxx1112basic_stringIcSt11char_traitsIcESaIcEED2Ev.exit.i

_ZNSt7__cxx1112basic_stringIcSt11char_traitsIcESaIcEED2Ev.exit.i: ; preds = %if.then.i.i.i, %invoke.cont21.i
  call void @llvm.lifetime.end.p0(i64 32, ptr nonnull %ref.tmp17.i) #25
  br i1 %14, label %cleanup.done31.i, label %cleanup.action.i

cleanup.action.i:                                 ; preds = %_ZNSt7__cxx1112basic_stringIcSt11char_traitsIcESaIcEED2Ev.exit.i
  invoke void @_ZN9benchmark8internal12CheckHandlerD2Ev(ptr noundef nonnull align 8 dereferenceable(8) %ref.tmp3.i) #26
          to label %invoke.cont23.i unwind label %cleanup.action34.i.loopexit.split-lp

invoke.cont23.i:                                  ; preds = %cleanup.action.i
  unreachable

lpad7.i:                                          ; preds = %if.then.i136.i, %if.then.i132.i, %if.then.i.i
  %22 = landingpad { ptr, i32 }
          cleanup
  br label %ehcleanup24.i

lpad18.i:                                         ; preds = %invoke.cont15.i
  %23 = landingpad { ptr, i32 }
          cleanup
  br label %ehcleanup.i

lpad20.i:                                         ; preds = %if.then.i141.i
  %24 = landingpad { ptr, i32 }
          cleanup
  %25 = load ptr, ptr %ref.tmp17.i, align 8, !tbaa !11
  %cmp.i.i.i145.i = icmp eq ptr %25, %3
  br i1 %cmp.i.i.i145.i, label %ehcleanup.i, label %if.then.i.i146.i

if.then.i.i146.i:                                 ; preds = %lpad20.i
  call void @_ZdlPv(ptr noundef %25) #24
  br label %ehcleanup.i

ehcleanup.i:                                      ; preds = %if.then.i.i146.i, %lpad20.i, %lpad18.i
  %.pn.i = phi { ptr, i32 } [ %23, %lpad18.i ], [ %24, %lpad20.i ], [ %24, %if.then.i.i146.i ]
  call void @llvm.lifetime.end.p0(i64 32, ptr nonnull %ref.tmp17.i) #25
  br label %ehcleanup24.i

cleanup.done31.i:                                 ; preds = %_ZNSt7__cxx1112basic_stringIcSt11char_traitsIcESaIcEED2Ev.exit.i
  %26 = load ptr, ptr %ref.tmp.i, align 8, !tbaa !11
  %cmp.i.i.i148.i = icmp eq ptr %26, %4
  br i1 %cmp.i.i.i148.i, label %_ZNSt7__cxx1112basic_stringIcSt11char_traitsIcESaIcEED2Ev.exit150.i, label %if.then.i.i149.i

if.then.i.i149.i:                                 ; preds = %cleanup.done31.i
  call void @_ZdlPv(ptr noundef %26) #24
  br label %_ZNSt7__cxx1112basic_stringIcSt11char_traitsIcESaIcEED2Ev.exit150.i

_ZNSt7__cxx1112basic_stringIcSt11char_traitsIcESaIcEED2Ev.exit150.i: ; preds = %if.then.i.i149.i, %cleanup.done31.i
  call void @llvm.lifetime.end.p0(i64 32, ptr nonnull %ref.tmp.i) #25
  %error_occurred.i = getelementptr inbounds %"struct.(anonymous namespace)::TestCase", ptr %EB.sroa.0.063, i64 0, i32 1
  %27 = load i8, ptr %error_occurred.i, align 8, !tbaa !21, !range !24, !noundef !25
  %error_occurred38.i = getelementptr inbounds %"struct.benchmark::BenchmarkReporter::Run", ptr %__begin1.sroa.0.062, i64 0, i32 7
  %28 = load i8, ptr %error_occurred38.i, align 8, !tbaa !81, !range !24, !noundef !25
  %cmp.not.i = icmp eq i8 %27, %28
  br i1 %cmp.not.i, label %cond.true41.i, label %cleanup.action53.i

cond.true41.i:                                    ; preds = %_ZNSt7__cxx1112basic_stringIcSt11char_traitsIcESaIcEED2Ev.exit150.i
  %29 = load atomic i8, ptr @_ZGVZN9benchmark8internal18GetNullLogInstanceEvE3log acquire, align 8
  %guard.uninitialized.i151.i = icmp eq i8 %29, 0
  br i1 %guard.uninitialized.i151.i, label %init.check.i153.i, label %cleanup.done62.i, !prof !76

init.check.i153.i:                                ; preds = %cond.true41.i
  %30 = call i32 @__cxa_guard_acquire(ptr nonnull @_ZGVZN9benchmark8internal18GetNullLogInstanceEvE3log) #25
  %tobool.not.i152.i = icmp eq i32 %30, 0
  br i1 %tobool.not.i152.i, label %cleanup.done62.i, label %init.i154.i

init.i154.i:                                      ; preds = %init.check.i153.i
  store ptr null, ptr @_ZZN9benchmark8internal18GetNullLogInstanceEvE3log, align 8, !tbaa !77
  call void @__cxa_guard_release(ptr nonnull @_ZGVZN9benchmark8internal18GetNullLogInstanceEvE3log) #25
  br label %cleanup.done62.i

cleanup.action53.i:                               ; preds = %_ZNSt7__cxx1112basic_stringIcSt11char_traitsIcESaIcEED2Ev.exit150.i
  call void @llvm.lifetime.start.p0(i64 8, ptr nonnull %ref.tmp44.i) #25
  invoke void @_ZN9benchmark8internal12CheckHandlerC2EPKcS3_S3_i(ptr noundef nonnull align 8 dereferenceable(8) %ref.tmp44.i, ptr noundef nonnull @.str.61, ptr noundef nonnull @.str.8, ptr noundef nonnull @__func__._ZNK12_GLOBAL__N_18TestCase8CheckRunERKN9benchmark17BenchmarkReporter3RunE, i32 noundef 38)
          to label %.noexc31.invoke unwind label %lpad12.loopexit.split-lp

.noexc31.invoke:                                  ; preds = %cleanup.action110.i, %cleanup.action81.i, %cleanup.action53.i
  %31 = phi ptr [ %ref.tmp44.i, %cleanup.action53.i ], [ %ref.tmp72.i, %cleanup.action81.i ], [ %ref.tmp101.i, %cleanup.action110.i ]
  invoke void @_ZN9benchmark8internal12CheckHandlerD2Ev(ptr noundef nonnull align 8 dereferenceable(8) %31) #26
          to label %.noexc31.cont unwind label %lpad12.loopexit.split-lp

.noexc31.cont:                                    ; preds = %.noexc31.invoke
  unreachable

ehcleanup24.i:                                    ; preds = %ehcleanup.i, %lpad7.i
  %.pn.pn.i = phi { ptr, i32 } [ %.pn.i, %ehcleanup.i ], [ %22, %lpad7.i ]
  br i1 %14, label %ehcleanup36.i, label %cleanup.action26.i

cleanup.action26.i:                               ; preds = %ehcleanup24.i
  invoke void @_ZN9benchmark8internal12CheckHandlerD2Ev(ptr noundef nonnull align 8 dereferenceable(8) %ref.tmp3.i) #26
          to label %invoke.cont27.i unwind label %terminate.lpad.i

invoke.cont27.i:                                  ; preds = %cleanup.action26.i
  unreachable

cleanup.action34.i.loopexit:                      ; preds = %cond.false.i
  %lpad.loopexit42 = landingpad { ptr, i32 }
          cleanup
  br label %cleanup.action34.i

cleanup.action34.i.loopexit.split-lp:             ; preds = %cleanup.action.i
  %lpad.loopexit.split-lp43 = landingpad { ptr, i32 }
          cleanup
  br label %cleanup.action34.i

cleanup.action34.i:                               ; preds = %cleanup.action34.i.loopexit.split-lp, %cleanup.action34.i.loopexit
  %lpad.phi44 = phi { ptr, i32 } [ %lpad.loopexit42, %cleanup.action34.i.loopexit ], [ %lpad.loopexit.split-lp43, %cleanup.action34.i.loopexit.split-lp ]
  call void @llvm.lifetime.end.p0(i64 8, ptr nonnull %ref.tmp3.i) #25
  br label %ehcleanup36.i

ehcleanup36.i:                                    ; preds = %cleanup.action34.i, %ehcleanup24.i
  %.pn177187.i = phi { ptr, i32 } [ %lpad.phi44, %cleanup.action34.i ], [ %.pn.pn.i, %ehcleanup24.i ]
  %32 = load ptr, ptr %ref.tmp.i, align 8, !tbaa !11
  %cmp.i.i.i156.i = icmp eq ptr %32, %4
  br i1 %cmp.i.i.i156.i, label %_ZNSt7__cxx1112basic_stringIcSt11char_traitsIcESaIcEED2Ev.exit158.i, label %if.then.i.i157.i

if.then.i.i157.i:                                 ; preds = %ehcleanup36.i
  call void @_ZdlPv(ptr noundef %32) #24
  br label %_ZNSt7__cxx1112basic_stringIcSt11char_traitsIcESaIcEED2Ev.exit158.i

_ZNSt7__cxx1112basic_stringIcSt11char_traitsIcESaIcEED2Ev.exit158.i: ; preds = %if.then.i.i157.i, %ehcleanup36.i
  call void @llvm.lifetime.end.p0(i64 32, ptr nonnull %ref.tmp.i) #25
  br label %ehcleanup

cleanup.done62.i:                                 ; preds = %init.i154.i, %init.check.i153.i, %cond.true41.i
  %error_message.i = getelementptr inbounds %"struct.(anonymous namespace)::TestCase", ptr %EB.sroa.0.063, i64 0, i32 2
  %error_message67.i = getelementptr inbounds %"struct.benchmark::BenchmarkReporter::Run", ptr %__begin1.sroa.0.062, i64 0, i32 8
  %_M_string_length.i.i159.i = getelementptr inbounds %"struct.(anonymous namespace)::TestCase", ptr %EB.sroa.0.063, i64 0, i32 2, i32 1
  %33 = load i64, ptr %_M_string_length.i.i159.i, align 8, !tbaa !18
  %_M_string_length.i9.i160.i = getelementptr inbounds %"struct.benchmark::BenchmarkReporter::Run", ptr %__begin1.sroa.0.062, i64 0, i32 8, i32 1
  %34 = load i64, ptr %_M_string_length.i9.i160.i, align 8, !tbaa !18
  %cmp.i161.i = icmp eq i64 %33, %34
  br i1 %cmp.i161.i, label %land.rhs.i163.i, label %cleanup.action81.i

land.rhs.i163.i:                                  ; preds = %cleanup.done62.i
  %cmp.i.i162.i = icmp eq i64 %33, 0
  br i1 %cmp.i.i162.i, label %cond.true69.i, label %_ZSteqIcEN9__gnu_cxx11__enable_ifIXsr9__is_charIT_EE7__valueEbE6__typeERKNSt7__cxx1112basic_stringIS2_St11char_traitsIS2_ESaIS2_EEESC_.exit166.i

_ZSteqIcEN9__gnu_cxx11__enable_ifIXsr9__is_charIT_EE7__valueEbE6__typeERKNSt7__cxx1112basic_stringIS2_St11char_traitsIS2_ESaIS2_EEESC_.exit166.i: ; preds = %land.rhs.i163.i
  %35 = load ptr, ptr %error_message67.i, align 8, !tbaa !11
  %36 = load ptr, ptr %error_message.i, align 8, !tbaa !11
  %bcmp.i164.i = call i32 @bcmp(ptr %36, ptr %35, i64 %33)
  %37 = icmp eq i32 %bcmp.i164.i, 0
  br i1 %37, label %cond.true69.i, label %cleanup.action81.i

cond.true69.i:                                    ; preds = %_ZSteqIcEN9__gnu_cxx11__enable_ifIXsr9__is_charIT_EE7__valueEbE6__typeERKNSt7__cxx1112basic_stringIS2_St11char_traitsIS2_ESaIS2_EEESC_.exit166.i, %land.rhs.i163.i
  %38 = load atomic i8, ptr @_ZGVZN9benchmark8internal18GetNullLogInstanceEvE3log acquire, align 8
  %guard.uninitialized.i167.i = icmp eq i8 %38, 0
  br i1 %guard.uninitialized.i167.i, label %init.check.i169.i, label %cleanup.done90.i, !prof !76

init.check.i169.i:                                ; preds = %cond.true69.i
  %39 = call i32 @__cxa_guard_acquire(ptr nonnull @_ZGVZN9benchmark8internal18GetNullLogInstanceEvE3log) #25
  %tobool.not.i168.i = icmp eq i32 %39, 0
  br i1 %tobool.not.i168.i, label %cleanup.done90.i, label %init.i170.i

init.i170.i:                                      ; preds = %init.check.i169.i
  store ptr null, ptr @_ZZN9benchmark8internal18GetNullLogInstanceEvE3log, align 8, !tbaa !77
  call void @__cxa_guard_release(ptr nonnull @_ZGVZN9benchmark8internal18GetNullLogInstanceEvE3log) #25
  br label %cleanup.done90.i

cleanup.action81.i:                               ; preds = %_ZSteqIcEN9__gnu_cxx11__enable_ifIXsr9__is_charIT_EE7__valueEbE6__typeERKNSt7__cxx1112basic_stringIS2_St11char_traitsIS2_ESaIS2_EEESC_.exit166.i, %cleanup.done62.i
  call void @llvm.lifetime.start.p0(i64 8, ptr nonnull %ref.tmp72.i) #25
  invoke void @_ZN9benchmark8internal12CheckHandlerC2EPKcS3_S3_i(ptr noundef nonnull align 8 dereferenceable(8) %ref.tmp72.i, ptr noundef nonnull @.str.62, ptr noundef nonnull @.str.8, ptr noundef nonnull @__func__._ZNK12_GLOBAL__N_18TestCase8CheckRunERKN9benchmark17BenchmarkReporter3RunE, i32 noundef 39)
          to label %.noexc31.invoke unwind label %lpad12.loopexit.split-lp

cleanup.done90.i:                                 ; preds = %init.i170.i, %init.check.i169.i, %cond.true69.i
  %40 = load i8, ptr %error_occurred.i, align 8, !tbaa !21, !range !24, !noundef !25
  %tobool96.not.i = icmp eq i8 %40, 0
  br i1 %tobool96.not.i, label %if.else.i, label %invoke.cont13

if.else.i:                                        ; preds = %cleanup.done90.i
  %iterations.i = getelementptr inbounds %"struct.benchmark::BenchmarkReporter::Run", ptr %__begin1.sroa.0.062, i64 0, i32 9
  %41 = load i64, ptr %iterations.i, align 8, !tbaa !89
  %cmp97.not.i = icmp eq i64 %41, 0
  br i1 %cmp97.not.i, label %cleanup.action110.i, label %cond.true98.i

cond.true98.i:                                    ; preds = %if.else.i
  %42 = load atomic i8, ptr @_ZGVZN9benchmark8internal18GetNullLogInstanceEvE3log acquire, align 8
  %guard.uninitialized.i172.i = icmp eq i8 %42, 0
  br i1 %guard.uninitialized.i172.i, label %init.check.i174.i, label %invoke.cont13, !prof !76

init.check.i174.i:                                ; preds = %cond.true98.i
  %43 = call i32 @__cxa_guard_acquire(ptr nonnull @_ZGVZN9benchmark8internal18GetNullLogInstanceEvE3log) #25
  %tobool.not.i173.i = icmp eq i32 %43, 0
  br i1 %tobool.not.i173.i, label %invoke.cont13, label %init.i175.i

init.i175.i:                                      ; preds = %init.check.i174.i
  store ptr null, ptr @_ZZN9benchmark8internal18GetNullLogInstanceEvE3log, align 8, !tbaa !77
  call void @__cxa_guard_release(ptr nonnull @_ZGVZN9benchmark8internal18GetNullLogInstanceEvE3log) #25
  br label %invoke.cont13

cleanup.action110.i:                              ; preds = %if.else.i
  call void @llvm.lifetime.start.p0(i64 8, ptr nonnull %ref.tmp101.i) #25
  invoke void @_ZN9benchmark8internal12CheckHandlerC2EPKcS3_S3_i(ptr noundef nonnull align 8 dereferenceable(8) %ref.tmp101.i, ptr noundef nonnull @.str.63, ptr noundef nonnull @.str.8, ptr noundef nonnull @__func__._ZNK12_GLOBAL__N_18TestCase8CheckRunERKN9benchmark17BenchmarkReporter3RunE, i32 noundef 43)
          to label %.noexc31.invoke unwind label %lpad12.loopexit.split-lp

terminate.lpad.i:                                 ; preds = %cleanup.action26.i
  %44 = landingpad { ptr, i32 }
          catch ptr null
  %45 = extractvalue { ptr, i32 } %44, 0
  call void @__clang_call_terminate(ptr %45) #28
  unreachable

invoke.cont13:                                    ; preds = %init.i175.i, %init.check.i174.i, %cond.true98.i, %cleanup.done90.i
  %incdec.ptr.i = getelementptr inbounds %"struct.(anonymous namespace)::TestCase", ptr %EB.sroa.0.063, i64 1
  %incdec.ptr.i37 = getelementptr inbounds %"struct.benchmark::BenchmarkReporter::Run", ptr %__begin1.sroa.0.062, i64 1
  %cmp.i.not = icmp eq ptr %incdec.ptr.i37, %2
  br i1 %cmp.i.not, label %for.cond.cleanup, label %for.body

lpad12.loopexit:                                  ; preds = %cond.end
  %lpad.loopexit = landingpad { ptr, i32 }
          cleanup
  br label %ehcleanup

lpad12.loopexit.split-lp:                         ; preds = %.noexc31.invoke, %cleanup.action53.i, %cleanup.action81.i, %cleanup.action110.i
  %lpad.loopexit.split-lp = landingpad { ptr, i32 }
          cleanup
  br label %ehcleanup

cond.false21:                                     ; preds = %for.cond.cleanup
  call void @__assert_fail(ptr noundef nonnull @.str.49, ptr noundef nonnull @.str.8, i32 noundef 193, ptr noundef nonnull @__PRETTY_FUNCTION__.main) #28
  unreachable

cond.end22:                                       ; preds = %for.cond.cleanup
  store ptr getelementptr inbounds ({ [9 x ptr] }, ptr @_ZTVN12_GLOBAL__N_112TestReporterE, i64 0, inrange i32 0, i64 2), ptr %test_reporter, align 8, !tbaa !74
  %46 = load ptr, ptr %all_runs_.i, align 8, !tbaa !90
  %47 = load ptr, ptr %_M_finish.i, align 8, !tbaa !92
  %cmp.not3.i.i.i.i.i = icmp eq ptr %46, %47
  br i1 %cmp.not3.i.i.i.i.i, label %invoke.cont.i.i, label %for.body.i.i.i.i.i

for.body.i.i.i.i.i:                               ; preds = %cond.end22, %for.body.i.i.i.i.i
  %__first.addr.04.i.i.i.i.i = phi ptr [ %incdec.ptr.i.i.i.i.i, %for.body.i.i.i.i.i ], [ %46, %cond.end22 ]
  call void @_ZN9benchmark17BenchmarkReporter3RunD2Ev(ptr noundef nonnull align 8 dereferenceable(528) %__first.addr.04.i.i.i.i.i) #25
  %incdec.ptr.i.i.i.i.i = getelementptr inbounds %"struct.benchmark::BenchmarkReporter::Run", ptr %__first.addr.04.i.i.i.i.i, i64 1
  %cmp.not.i.i.i.i.i = icmp eq ptr %incdec.ptr.i.i.i.i.i, %47
  br i1 %cmp.not.i.i.i.i.i, label %invoke.contthread-pre-split.i.i, label %for.body.i.i.i.i.i, !llvm.loop !93

invoke.contthread-pre-split.i.i:                  ; preds = %for.body.i.i.i.i.i
  %.pr.i.i = load ptr, ptr %all_runs_.i, align 8, !tbaa !90
  br label %invoke.cont.i.i

invoke.cont.i.i:                                  ; preds = %invoke.contthread-pre-split.i.i, %cond.end22
  %48 = phi ptr [ %.pr.i.i, %invoke.contthread-pre-split.i.i ], [ %46, %cond.end22 ]
  %tobool.not.i.i.i.i = icmp eq ptr %48, null
  br i1 %tobool.not.i.i.i.i, label %_ZNSt6vectorIN9benchmark17BenchmarkReporter3RunESaIS2_EED2Ev.exit.i, label %if.then.i.i.i.i

if.then.i.i.i.i:                                  ; preds = %invoke.cont.i.i
  call void @_ZdlPv(ptr noundef nonnull %48) #24
  br label %_ZNSt6vectorIN9benchmark17BenchmarkReporter3RunESaIS2_EED2Ev.exit.i

_ZNSt6vectorIN9benchmark17BenchmarkReporter3RunESaIS2_EED2Ev.exit.i: ; preds = %if.then.i.i.i.i, %invoke.cont.i.i
  store ptr getelementptr inbounds ({ [9 x ptr] }, ptr @_ZTVN9benchmark15ConsoleReporterE, i64 0, inrange i32 0, i64 2), ptr %test_reporter, align 8, !tbaa !74
  %prev_counters_.i.i = getelementptr inbounds %"class.benchmark::ConsoleReporter", ptr %test_reporter, i64 0, i32 4
  %49 = load ptr, ptr %_M_parent.i.i.i.i.i.i.i, align 8, !tbaa !69
  invoke void @_ZNSt8_Rb_treeINSt7__cxx1112basic_stringIcSt11char_traitsIcESaIcEEESt4pairIKS5_N9benchmark7CounterEESt10_Select1stISA_ESt4lessIS5_ESaISA_EE8_M_eraseEPSt13_Rb_tree_nodeISA_E(ptr noundef nonnull align 8 dereferenceable(48) %prev_counters_.i.i, ptr noundef %49)
          to label %_ZN12_GLOBAL__N_112TestReporterD2Ev.exit unwind label %terminate.lpad.i.i.i.i

terminate.lpad.i.i.i.i:                           ; preds = %_ZNSt6vectorIN9benchmark17BenchmarkReporter3RunESaIS2_EED2Ev.exit.i
  %50 = landingpad { ptr, i32 }
          catch ptr null
  %51 = extractvalue { ptr, i32 } %50, 0
  call void @__clang_call_terminate(ptr %51) #28
  unreachable

_ZN12_GLOBAL__N_112TestReporterD2Ev.exit:         ; preds = %_ZNSt6vectorIN9benchmark17BenchmarkReporter3RunESaIS2_EED2Ev.exit.i
  call void @_ZN9benchmark17BenchmarkReporterD2Ev(ptr noundef nonnull align 8 dereferenceable(24) %test_reporter) #25
  call void @llvm.lifetime.end.p0(i64 120, ptr nonnull %test_reporter) #25
  ret i32 0

ehcleanup:                                        ; preds = %lpad12.loopexit, %lpad12.loopexit.split-lp, %_ZNSt7__cxx1112basic_stringIcSt11char_traitsIcESaIcEED2Ev.exit158.i, %lpad
  %eh.lpad-body.pn = phi { ptr, i32 } [ %5, %lpad ], [ %.pn177187.i, %_ZNSt7__cxx1112basic_stringIcSt11char_traitsIcESaIcEED2Ev.exit158.i ], [ %lpad.loopexit, %lpad12.loopexit ], [ %lpad.loopexit.split-lp, %lpad12.loopexit.split-lp ]
  call void @_ZN12_GLOBAL__N_112TestReporterD2Ev(ptr noundef nonnull align 8 dereferenceable(120) %test_reporter) #25
  call void @llvm.lifetime.end.p0(i64 120, ptr nonnull %test_reporter) #25
  resume { ptr, i32 } %eh.lpad-body.pn
}

declare void @_ZN9benchmark10InitializeEPiPPcPFvvE(ptr noundef, ptr noundef, ptr noundef) local_unnamed_addr #0

declare noundef i64 @_ZN9benchmark22RunSpecifiedBenchmarksEPNS_17BenchmarkReporterE(ptr noundef) local_unnamed_addr #0

; Function Attrs: nounwind uwtable
define internal void @_ZN12_GLOBAL__N_112TestReporterD2Ev(ptr noundef nonnull align 8 dereferenceable(120) %this) unnamed_addr #3 align 2 personality ptr @__gxx_personality_v0 {
entry:
  store ptr getelementptr inbounds ({ [9 x ptr] }, ptr @_ZTVN12_GLOBAL__N_112TestReporterE, i64 0, inrange i32 0, i64 2), ptr %this, align 8, !tbaa !74
  %all_runs_ = getelementptr inbounds %"class.(anonymous namespace)::TestReporter", ptr %this, i64 0, i32 1
  %0 = load ptr, ptr %all_runs_, align 8, !tbaa !90
  %_M_finish.i = getelementptr inbounds %"class.(anonymous namespace)::TestReporter", ptr %this, i64 0, i32 1, i32 0, i32 0, i32 0, i32 1
  %1 = load ptr, ptr %_M_finish.i, align 8, !tbaa !92
  %cmp.not3.i.i.i.i = icmp eq ptr %0, %1
  br i1 %cmp.not3.i.i.i.i, label %invoke.cont.i, label %for.body.i.i.i.i

for.body.i.i.i.i:                                 ; preds = %entry, %for.body.i.i.i.i
  %__first.addr.04.i.i.i.i = phi ptr [ %incdec.ptr.i.i.i.i, %for.body.i.i.i.i ], [ %0, %entry ]
  tail call void @_ZN9benchmark17BenchmarkReporter3RunD2Ev(ptr noundef nonnull align 8 dereferenceable(528) %__first.addr.04.i.i.i.i) #25
  %incdec.ptr.i.i.i.i = getelementptr inbounds %"struct.benchmark::BenchmarkReporter::Run", ptr %__first.addr.04.i.i.i.i, i64 1
  %cmp.not.i.i.i.i = icmp eq ptr %incdec.ptr.i.i.i.i, %1
  br i1 %cmp.not.i.i.i.i, label %invoke.contthread-pre-split.i, label %for.body.i.i.i.i, !llvm.loop !93

invoke.contthread-pre-split.i:                    ; preds = %for.body.i.i.i.i
  %.pr.i = load ptr, ptr %all_runs_, align 8, !tbaa !90
  br label %invoke.cont.i

invoke.cont.i:                                    ; preds = %invoke.contthread-pre-split.i, %entry
  %2 = phi ptr [ %.pr.i, %invoke.contthread-pre-split.i ], [ %0, %entry ]
  %tobool.not.i.i.i = icmp eq ptr %2, null
  br i1 %tobool.not.i.i.i, label %_ZNSt6vectorIN9benchmark17BenchmarkReporter3RunESaIS2_EED2Ev.exit, label %if.then.i.i.i

if.then.i.i.i:                                    ; preds = %invoke.cont.i
  tail call void @_ZdlPv(ptr noundef nonnull %2) #24
  br label %_ZNSt6vectorIN9benchmark17BenchmarkReporter3RunESaIS2_EED2Ev.exit

_ZNSt6vectorIN9benchmark17BenchmarkReporter3RunESaIS2_EED2Ev.exit: ; preds = %invoke.cont.i, %if.then.i.i.i
  store ptr getelementptr inbounds ({ [9 x ptr] }, ptr @_ZTVN9benchmark15ConsoleReporterE, i64 0, inrange i32 0, i64 2), ptr %this, align 8, !tbaa !74
  %prev_counters_.i = getelementptr inbounds %"class.benchmark::ConsoleReporter", ptr %this, i64 0, i32 4
  %_M_parent.i.i.i.i.i = getelementptr inbounds %"class.benchmark::ConsoleReporter", ptr %this, i64 0, i32 4, i32 0, i32 0, i32 1, i32 0, i32 1
  %3 = load ptr, ptr %_M_parent.i.i.i.i.i, align 8, !tbaa !69
  invoke void @_ZNSt8_Rb_treeINSt7__cxx1112basic_stringIcSt11char_traitsIcESaIcEEESt4pairIKS5_N9benchmark7CounterEESt10_Select1stISA_ESt4lessIS5_ESaISA_EE8_M_eraseEPSt13_Rb_tree_nodeISA_E(ptr noundef nonnull align 8 dereferenceable(48) %prev_counters_.i, ptr noundef %3)
          to label %_ZN9benchmark15ConsoleReporterD2Ev.exit unwind label %terminate.lpad.i.i.i

terminate.lpad.i.i.i:                             ; preds = %_ZNSt6vectorIN9benchmark17BenchmarkReporter3RunESaIS2_EED2Ev.exit
  %4 = landingpad { ptr, i32 }
          catch ptr null
  %5 = extractvalue { ptr, i32 } %4, 0
  tail call void @__clang_call_terminate(ptr %5) #28
  unreachable

_ZN9benchmark15ConsoleReporterD2Ev.exit:          ; preds = %_ZNSt6vectorIN9benchmark17BenchmarkReporter3RunESaIS2_EED2Ev.exit
  tail call void @_ZN9benchmark17BenchmarkReporterD2Ev(ptr noundef nonnull align 8 dereferenceable(24) %this) #25
  ret void
}

declare void @_ZN9benchmark8internal9BenchmarkC2EPKc(ptr noundef nonnull align 8 dereferenceable(216), ptr noundef) unnamed_addr #0

; Function Attrs: uwtable
define linkonce_odr dso_local void @_ZStplIcSt11char_traitsIcESaIcEENSt7__cxx1112basic_stringIT_T0_T1_EEPKS5_RKS8_(ptr noalias sret(%"class.std::__cxx11::basic_string") align 8 %agg.result, ptr noundef %__lhs, ptr noundef nonnull align 8 dereferenceable(32) %__rhs) local_unnamed_addr #7 comdat personality ptr @__gxx_personality_v0 {
entry:
  %call.i = tail call i64 @strlen(ptr noundef nonnull dereferenceable(1) %__lhs) #25
  %0 = getelementptr inbounds %"class.std::__cxx11::basic_string", ptr %agg.result, i64 0, i32 2
  store ptr %0, ptr %agg.result, align 8, !tbaa !17
  %_M_string_length.i.i.i = getelementptr inbounds %"class.std::__cxx11::basic_string", ptr %agg.result, i64 0, i32 1
  store i64 0, ptr %_M_string_length.i.i.i, align 8, !tbaa !18
  store i8 0, ptr %0, align 8, !tbaa !20
  %_M_string_length.i = getelementptr inbounds %"class.std::__cxx11::basic_string", ptr %__rhs, i64 0, i32 1
  %1 = load i64, ptr %_M_string_length.i, align 8, !tbaa !18
  %add = add i64 %1, %call.i
  invoke void @_ZNSt7__cxx1112basic_stringIcSt11char_traitsIcESaIcEE7reserveEm(ptr noundef nonnull align 8 dereferenceable(32) %agg.result, i64 noundef %add)
          to label %invoke.cont4 unwind label %lpad3

invoke.cont4:                                     ; preds = %entry
  %2 = load i64, ptr %_M_string_length.i.i.i, align 8, !tbaa !18
  %sub3.i.i = sub i64 4611686018427387903, %2
  %cmp.i.i = icmp ult i64 %sub3.i.i, %call.i
  br i1 %cmp.i.i, label %if.then.i.i.i.invoke, label %_ZNKSt7__cxx1112basic_stringIcSt11char_traitsIcESaIcEE15_M_check_lengthEmmPKc.exit.i

_ZNKSt7__cxx1112basic_stringIcSt11char_traitsIcESaIcEE15_M_check_lengthEmmPKc.exit.i: ; preds = %invoke.cont4
  %call.i1516 = invoke noundef nonnull align 8 dereferenceable(32) ptr @_ZNSt7__cxx1112basic_stringIcSt11char_traitsIcESaIcEE9_M_appendEPKcm(ptr noundef nonnull align 8 dereferenceable(32) %agg.result, ptr noundef %__lhs, i64 noundef %call.i)
          to label %invoke.cont5 unwind label %lpad3

invoke.cont5:                                     ; preds = %_ZNKSt7__cxx1112basic_stringIcSt11char_traitsIcESaIcEE15_M_check_lengthEmmPKc.exit.i
  %3 = load i64, ptr %_M_string_length.i, align 8, !tbaa !18
  %4 = load i64, ptr %_M_string_length.i.i.i, align 8, !tbaa !18
  %sub3.i.i.i = sub i64 4611686018427387903, %4
  %cmp.i.i.i = icmp ult i64 %sub3.i.i.i, %3
  br i1 %cmp.i.i.i, label %if.then.i.i.i.invoke, label %_ZNSt7__cxx1112basic_stringIcSt11char_traitsIcESaIcEE6appendEPKcm.exit.i

if.then.i.i.i.invoke:                             ; preds = %invoke.cont5, %invoke.cont4
  invoke void @_ZSt20__throw_length_errorPKc(ptr noundef nonnull @.str.50) #26
          to label %if.then.i.i.i.cont unwind label %lpad3

if.then.i.i.i.cont:                               ; preds = %if.then.i.i.i.invoke
  unreachable

_ZNSt7__cxx1112basic_stringIcSt11char_traitsIcESaIcEE6appendEPKcm.exit.i: ; preds = %invoke.cont5
  %5 = load ptr, ptr %__rhs, align 8, !tbaa !11
  %call.i.i18 = invoke noundef nonnull align 8 dereferenceable(32) ptr @_ZNSt7__cxx1112basic_stringIcSt11char_traitsIcESaIcEE9_M_appendEPKcm(ptr noundef nonnull align 8 dereferenceable(32) %agg.result, ptr noundef %5, i64 noundef %3)
          to label %nrvo.skipdtor unwind label %lpad3

lpad3:                                            ; preds = %if.then.i.i.i.invoke, %_ZNSt7__cxx1112basic_stringIcSt11char_traitsIcESaIcEE6appendEPKcm.exit.i, %_ZNKSt7__cxx1112basic_stringIcSt11char_traitsIcESaIcEE15_M_check_lengthEmmPKc.exit.i, %entry
  %6 = landingpad { ptr, i32 }
          cleanup
  %7 = load ptr, ptr %agg.result, align 8, !tbaa !11
  %cmp.i.i.i19 = icmp eq ptr %7, %0
  br i1 %cmp.i.i.i19, label %ehcleanup, label %if.then.i.i20

if.then.i.i20:                                    ; preds = %lpad3
  tail call void @_ZdlPv(ptr noundef %7) #24
  br label %ehcleanup

nrvo.skipdtor:                                    ; preds = %_ZNSt7__cxx1112basic_stringIcSt11char_traitsIcESaIcEE6appendEPKcm.exit.i
  ret void

ehcleanup:                                        ; preds = %if.then.i.i20, %lpad3
  resume { ptr, i32 } %6
}

declare noundef ptr @_ZNSt7__cxx1112basic_stringIcSt11char_traitsIcESaIcEE9_M_createERmm(ptr noundef nonnull align 8 dereferenceable(32), ptr noundef nonnull align 8 dereferenceable(8), i64 noundef) local_unnamed_addr #0

; Function Attrs: noinline noreturn nounwind
define linkonce_odr hidden void @__clang_call_terminate(ptr noundef %0) local_unnamed_addr #12 comdat {
  %2 = tail call ptr @__cxa_begin_catch(ptr %0) #25
  tail call void @_ZSt9terminatev() #28
  unreachable
}

declare ptr @__cxa_begin_catch(ptr) local_unnamed_addr

declare void @_ZSt9terminatev() local_unnamed_addr

; Function Attrs: mustprogress nocallback nofree nounwind willreturn memory(argmem: readwrite)
declare void @llvm.memcpy.p0.p0.i64(ptr noalias nocapture writeonly, ptr noalias nocapture readonly, i64, i1 immarg) #13

declare void @_ZNSt7__cxx1112basic_stringIcSt11char_traitsIcESaIcEE7reserveEm(ptr noundef nonnull align 8 dereferenceable(32), i64 noundef) local_unnamed_addr #0

; Function Attrs: mustprogress nofree nounwind willreturn memory(argmem: read)
declare i64 @strlen(ptr nocapture noundef) local_unnamed_addr #14

declare noundef nonnull align 8 dereferenceable(32) ptr @_ZNSt7__cxx1112basic_stringIcSt11char_traitsIcESaIcEE9_M_appendEPKcm(ptr noundef nonnull align 8 dereferenceable(32), ptr noundef, i64 noundef) local_unnamed_addr #0

; Function Attrs: noreturn
declare void @_ZSt20__throw_length_errorPKc(ptr noundef) local_unnamed_addr #15

declare void @_ZN9benchmark5State16StartKeepRunningEv(ptr noundef nonnull align 8 dereferenceable(144)) local_unnamed_addr #0

declare void @_ZN9benchmark5State17FinishKeepRunningEv(ptr noundef nonnull align 8 dereferenceable(144)) local_unnamed_addr #0

; Function Attrs: mustprogress uwtable
define internal noundef zeroext i1 @_ZN12_GLOBAL__N_112TestReporter13ReportContextERKN9benchmark17BenchmarkReporter7ContextE(ptr noundef nonnull align 8 dereferenceable(120) %this, ptr noundef nonnull align 8 dereferenceable(24) %context) unnamed_addr #4 align 2 {
entry:
  %call = tail call noundef zeroext i1 @_ZN9benchmark15ConsoleReporter13ReportContextERKNS_17BenchmarkReporter7ContextE(ptr noundef nonnull align 8 dereferenceable(89) %this, ptr noundef nonnull align 8 dereferenceable(24) %context)
  ret i1 %call
}

; Function Attrs: uwtable
define internal void @_ZN12_GLOBAL__N_112TestReporter10ReportRunsERKSt6vectorIN9benchmark17BenchmarkReporter3RunESaIS4_EE(ptr noundef nonnull align 8 dereferenceable(120) %this, ptr noundef nonnull align 8 dereferenceable(24) %report) unnamed_addr #7 align 2 {
entry:
  %all_runs_ = getelementptr inbounds %"class.(anonymous namespace)::TestReporter", ptr %this, i64 0, i32 1
  %_M_finish.i = getelementptr inbounds %"class.(anonymous namespace)::TestReporter", ptr %this, i64 0, i32 1, i32 0, i32 0, i32 0, i32 1
  %0 = load ptr, ptr %_M_finish.i, align 8, !tbaa !26
  %1 = load ptr, ptr %report, align 8, !tbaa !26
  %_M_finish.i.i = getelementptr inbounds %"struct.std::_Vector_base<benchmark::BenchmarkReporter::Run, std::allocator<benchmark::BenchmarkReporter::Run>>::_Vector_impl_data", ptr %report, i64 0, i32 1
  %2 = load ptr, ptr %_M_finish.i.i, align 8, !tbaa !26
  %3 = load ptr, ptr %all_runs_, align 8, !tbaa !26
  %sub.ptr.lhs.cast.i.i = ptrtoint ptr %0 to i64
  %sub.ptr.rhs.cast.i.i = ptrtoint ptr %3 to i64
  %sub.ptr.sub.i.i = sub i64 %sub.ptr.lhs.cast.i.i, %sub.ptr.rhs.cast.i.i
  %sub.ptr.div.i.i = sdiv exact i64 %sub.ptr.sub.i.i, 528
  %add.ptr.i.i = getelementptr inbounds %"struct.benchmark::BenchmarkReporter::Run", ptr %3, i64 %sub.ptr.div.i.i
  tail call void @_ZNSt6vectorIN9benchmark17BenchmarkReporter3RunESaIS2_EE15_M_range_insertIN9__gnu_cxx17__normal_iteratorIPKS2_S4_EEEEvNS7_IPS2_S4_EET_SD_St20forward_iterator_tag(ptr noundef nonnull align 8 dereferenceable(24) %all_runs_, ptr %add.ptr.i.i, ptr %1, ptr %2)
  tail call void @_ZN9benchmark15ConsoleReporter10ReportRunsERKSt6vectorINS_17BenchmarkReporter3RunESaIS3_EE(ptr noundef nonnull align 8 dereferenceable(89) %this, ptr noundef nonnull align 8 dereferenceable(24) %report)
  ret void
}

; Function Attrs: mustprogress nounwind uwtable
define linkonce_odr hidden void @_ZN9benchmark17BenchmarkReporter8FinalizeEv(ptr noundef nonnull align 8 dereferenceable(24) %this) unnamed_addr #16 comdat align 2 {
entry:
  ret void
}

; Function Attrs: nounwind uwtable
define internal void @_ZN12_GLOBAL__N_112TestReporterD0Ev(ptr noundef nonnull align 8 dereferenceable(120) %this) unnamed_addr #3 align 2 personality ptr @__gxx_personality_v0 {
entry:
  store ptr getelementptr inbounds ({ [9 x ptr] }, ptr @_ZTVN12_GLOBAL__N_112TestReporterE, i64 0, inrange i32 0, i64 2), ptr %this, align 8, !tbaa !74
  %all_runs_.i = getelementptr inbounds %"class.(anonymous namespace)::TestReporter", ptr %this, i64 0, i32 1
  %0 = load ptr, ptr %all_runs_.i, align 8, !tbaa !90
  %_M_finish.i.i = getelementptr inbounds %"class.(anonymous namespace)::TestReporter", ptr %this, i64 0, i32 1, i32 0, i32 0, i32 0, i32 1
  %1 = load ptr, ptr %_M_finish.i.i, align 8, !tbaa !92
  %cmp.not3.i.i.i.i.i = icmp eq ptr %0, %1
  br i1 %cmp.not3.i.i.i.i.i, label %invoke.cont.i.i, label %for.body.i.i.i.i.i

for.body.i.i.i.i.i:                               ; preds = %entry, %for.body.i.i.i.i.i
  %__first.addr.04.i.i.i.i.i = phi ptr [ %incdec.ptr.i.i.i.i.i, %for.body.i.i.i.i.i ], [ %0, %entry ]
  tail call void @_ZN9benchmark17BenchmarkReporter3RunD2Ev(ptr noundef nonnull align 8 dereferenceable(528) %__first.addr.04.i.i.i.i.i) #25
  %incdec.ptr.i.i.i.i.i = getelementptr inbounds %"struct.benchmark::BenchmarkReporter::Run", ptr %__first.addr.04.i.i.i.i.i, i64 1
  %cmp.not.i.i.i.i.i = icmp eq ptr %incdec.ptr.i.i.i.i.i, %1
  br i1 %cmp.not.i.i.i.i.i, label %invoke.contthread-pre-split.i.i, label %for.body.i.i.i.i.i, !llvm.loop !93

invoke.contthread-pre-split.i.i:                  ; preds = %for.body.i.i.i.i.i
  %.pr.i.i = load ptr, ptr %all_runs_.i, align 8, !tbaa !90
  br label %invoke.cont.i.i

invoke.cont.i.i:                                  ; preds = %invoke.contthread-pre-split.i.i, %entry
  %2 = phi ptr [ %.pr.i.i, %invoke.contthread-pre-split.i.i ], [ %0, %entry ]
  %tobool.not.i.i.i.i = icmp eq ptr %2, null
  br i1 %tobool.not.i.i.i.i, label %_ZNSt6vectorIN9benchmark17BenchmarkReporter3RunESaIS2_EED2Ev.exit.i, label %if.then.i.i.i.i

if.then.i.i.i.i:                                  ; preds = %invoke.cont.i.i
  tail call void @_ZdlPv(ptr noundef nonnull %2) #24
  br label %_ZNSt6vectorIN9benchmark17BenchmarkReporter3RunESaIS2_EED2Ev.exit.i

_ZNSt6vectorIN9benchmark17BenchmarkReporter3RunESaIS2_EED2Ev.exit.i: ; preds = %if.then.i.i.i.i, %invoke.cont.i.i
  store ptr getelementptr inbounds ({ [9 x ptr] }, ptr @_ZTVN9benchmark15ConsoleReporterE, i64 0, inrange i32 0, i64 2), ptr %this, align 8, !tbaa !74
  %prev_counters_.i.i = getelementptr inbounds %"class.benchmark::ConsoleReporter", ptr %this, i64 0, i32 4
  %_M_parent.i.i.i.i.i.i = getelementptr inbounds %"class.benchmark::ConsoleReporter", ptr %this, i64 0, i32 4, i32 0, i32 0, i32 1, i32 0, i32 1
  %3 = load ptr, ptr %_M_parent.i.i.i.i.i.i, align 8, !tbaa !69
  invoke void @_ZNSt8_Rb_treeINSt7__cxx1112basic_stringIcSt11char_traitsIcESaIcEEESt4pairIKS5_N9benchmark7CounterEESt10_Select1stISA_ESt4lessIS5_ESaISA_EE8_M_eraseEPSt13_Rb_tree_nodeISA_E(ptr noundef nonnull align 8 dereferenceable(48) %prev_counters_.i.i, ptr noundef %3)
          to label %_ZN12_GLOBAL__N_112TestReporterD2Ev.exit unwind label %terminate.lpad.i.i.i.i

terminate.lpad.i.i.i.i:                           ; preds = %_ZNSt6vectorIN9benchmark17BenchmarkReporter3RunESaIS2_EED2Ev.exit.i
  %4 = landingpad { ptr, i32 }
          catch ptr null
  %5 = extractvalue { ptr, i32 } %4, 0
  tail call void @__clang_call_terminate(ptr %5) #28
  unreachable

_ZN12_GLOBAL__N_112TestReporterD2Ev.exit:         ; preds = %_ZNSt6vectorIN9benchmark17BenchmarkReporter3RunESaIS2_EED2Ev.exit.i
  tail call void @_ZN9benchmark17BenchmarkReporterD2Ev(ptr noundef nonnull align 8 dereferenceable(24) %this) #25
  tail call void @_ZdlPv(ptr noundef nonnull %this) #24
  ret void
}

declare void @_ZN9benchmark15ConsoleReporter12PrintRunDataERKNS_17BenchmarkReporter3RunE(ptr noundef nonnull align 8 dereferenceable(89), ptr noundef nonnull align 8 dereferenceable(528)) unnamed_addr #0

declare void @_ZN9benchmark15ConsoleReporter11PrintHeaderERKNS_17BenchmarkReporter3RunE(ptr noundef nonnull align 8 dereferenceable(89), ptr noundef nonnull align 8 dereferenceable(528)) unnamed_addr #0

declare void @_ZN9benchmark17BenchmarkReporterC2Ev(ptr noundef nonnull align 8 dereferenceable(24)) unnamed_addr #0

declare noundef zeroext i1 @_ZN9benchmark15ConsoleReporter13ReportContextERKNS_17BenchmarkReporter7ContextE(ptr noundef nonnull align 8 dereferenceable(89), ptr noundef nonnull align 8 dereferenceable(24)) unnamed_addr #0

declare void @_ZN9benchmark15ConsoleReporter10ReportRunsERKSt6vectorINS_17BenchmarkReporter3RunESaIS3_EE(ptr noundef nonnull align 8 dereferenceable(89), ptr noundef nonnull align 8 dereferenceable(24)) unnamed_addr #0

; Function Attrs: uwtable
define linkonce_odr hidden void @_ZNSt6vectorIN9benchmark17BenchmarkReporter3RunESaIS2_EE15_M_range_insertIN9__gnu_cxx17__normal_iteratorIPKS2_S4_EEEEvNS7_IPS2_S4_EET_SD_St20forward_iterator_tag(ptr noundef nonnull align 8 dereferenceable(24) %this, ptr %__position.coerce, ptr %__first.coerce, ptr %__last.coerce) local_unnamed_addr #7 comdat align 2 personality ptr @__gxx_personality_v0 {
entry:
  %cmp.i.not = icmp eq ptr %__first.coerce, %__last.coerce
  br i1 %cmp.i.not, label %if.end116, label %if.then

if.then:                                          ; preds = %entry
  %sub.ptr.lhs.cast.i.i.i = ptrtoint ptr %__last.coerce to i64
  %sub.ptr.rhs.cast.i.i.i = ptrtoint ptr %__first.coerce to i64
  %sub.ptr.sub.i.i.i = sub i64 %sub.ptr.lhs.cast.i.i.i, %sub.ptr.rhs.cast.i.i.i
  %sub.ptr.div.i.i.i = sdiv exact i64 %sub.ptr.sub.i.i.i, 528
  %_M_end_of_storage = getelementptr inbounds %"struct.std::_Vector_base<benchmark::BenchmarkReporter::Run, std::allocator<benchmark::BenchmarkReporter::Run>>::_Vector_impl_data", ptr %this, i64 0, i32 2
  %0 = load ptr, ptr %_M_end_of_storage, align 8, !tbaa !94
  %_M_finish = getelementptr inbounds %"struct.std::_Vector_base<benchmark::BenchmarkReporter::Run, std::allocator<benchmark::BenchmarkReporter::Run>>::_Vector_impl_data", ptr %this, i64 0, i32 1
  %1 = load ptr, ptr %_M_finish, align 8, !tbaa !26
  %sub.ptr.lhs.cast = ptrtoint ptr %0 to i64
  %sub.ptr.rhs.cast = ptrtoint ptr %1 to i64
  %sub.ptr.sub = sub i64 %sub.ptr.lhs.cast, %sub.ptr.rhs.cast
  %sub.ptr.div = sdiv exact i64 %sub.ptr.sub, 528
  %cmp.not = icmp ult i64 %sub.ptr.div, %sub.ptr.div.i.i.i
  br i1 %cmp.not, label %if.else68, label %if.then9

if.then9:                                         ; preds = %if.then
  %sub.ptr.rhs.cast.i = ptrtoint ptr %__position.coerce to i64
  %sub.ptr.sub.i = sub i64 %sub.ptr.rhs.cast, %sub.ptr.rhs.cast.i
  %sub.ptr.div.i = sdiv exact i64 %sub.ptr.sub.i, 528
  %cmp15 = icmp ult i64 %sub.ptr.div.i.i.i, %sub.ptr.div.i
  br i1 %cmp15, label %if.then16, label %if.else

if.then16:                                        ; preds = %if.then9
  %idx.neg = sub nsw i64 0, %sub.ptr.div.i.i.i
  %add.ptr = getelementptr inbounds %"struct.benchmark::BenchmarkReporter::Run", ptr %1, i64 %idx.neg
  br label %for.body.i.i.i.i.i

for.body.i.i.i.i.i:                               ; preds = %if.then16, %for.body.i.i.i.i.i
  %__cur.020.i.i.i.i.i = phi ptr [ %incdec.ptr.i.i.i.i.i, %for.body.i.i.i.i.i ], [ %1, %if.then16 ]
  %__first.sroa.0.019.i.i.i.i.i = phi ptr [ %incdec.ptr.i.i.i.i.i.i, %for.body.i.i.i.i.i ], [ %add.ptr, %if.then16 ]
  tail call void @_ZN9benchmark17BenchmarkReporter3RunC2EOS1_(ptr noundef nonnull align 8 dereferenceable(528) %__cur.020.i.i.i.i.i, ptr noundef nonnull align 8 dereferenceable(528) %__first.sroa.0.019.i.i.i.i.i) #25
  %incdec.ptr.i.i.i.i.i.i = getelementptr inbounds %"struct.benchmark::BenchmarkReporter::Run", ptr %__first.sroa.0.019.i.i.i.i.i, i64 1
  %incdec.ptr.i.i.i.i.i = getelementptr inbounds %"struct.benchmark::BenchmarkReporter::Run", ptr %__cur.020.i.i.i.i.i, i64 1
  %cmp.i.i.not.i.i.i.i.i = icmp eq ptr %incdec.ptr.i.i.i.i.i.i, %1
  br i1 %cmp.i.i.not.i.i.i.i.i, label %_ZSt22__uninitialized_move_aIPN9benchmark17BenchmarkReporter3RunES3_SaIS2_EET0_T_S6_S5_RT1_.exit, label %for.body.i.i.i.i.i, !llvm.loop !95

_ZSt22__uninitialized_move_aIPN9benchmark17BenchmarkReporter3RunES3_SaIS2_EET0_T_S6_S5_RT1_.exit: ; preds = %for.body.i.i.i.i.i
  %2 = load ptr, ptr %_M_finish, align 8, !tbaa !92
  %add.ptr27 = getelementptr inbounds %"struct.benchmark::BenchmarkReporter::Run", ptr %2, i64 %sub.ptr.div.i.i.i
  store ptr %add.ptr27, ptr %_M_finish, align 8, !tbaa !92
  %sub.ptr.lhs.cast.i.i.i.i.i = ptrtoint ptr %add.ptr to i64
  %sub.ptr.sub.i.i.i.i.i = sub i64 %sub.ptr.lhs.cast.i.i.i.i.i, %sub.ptr.rhs.cast.i
  %cmp5.i.i.i.i.i = icmp sgt i64 %sub.ptr.sub.i.i.i.i.i, 0
  br i1 %cmp5.i.i.i.i.i, label %for.body.preheader.i.i.i.i.i, label %_ZSt13move_backwardIPN9benchmark17BenchmarkReporter3RunES3_ET0_T_S5_S4_.exit

for.body.preheader.i.i.i.i.i:                     ; preds = %_ZSt22__uninitialized_move_aIPN9benchmark17BenchmarkReporter3RunES3_SaIS2_EET0_T_S6_S5_RT1_.exit
  %sub.ptr.div9.i.i.i.i.i = udiv exact i64 %sub.ptr.sub.i.i.i.i.i, 528
  br label %for.body.i.i.i.i.i141

for.body.i.i.i.i.i141:                            ; preds = %for.body.i.i.i.i.i141, %for.body.preheader.i.i.i.i.i
  %__n.08.i.i.i.i.i = phi i64 [ %dec.i.i.i.i.i, %for.body.i.i.i.i.i141 ], [ %sub.ptr.div9.i.i.i.i.i, %for.body.preheader.i.i.i.i.i ]
  %__result.addr.07.i.i.i.i.i = phi ptr [ %incdec.ptr1.i.i.i.i.i, %for.body.i.i.i.i.i141 ], [ %1, %for.body.preheader.i.i.i.i.i ]
  %__last.addr.06.i.i.i.i.i = phi ptr [ %incdec.ptr.i.i.i.i.i140, %for.body.i.i.i.i.i141 ], [ %add.ptr, %for.body.preheader.i.i.i.i.i ]
  %incdec.ptr.i.i.i.i.i140 = getelementptr inbounds %"struct.benchmark::BenchmarkReporter::Run", ptr %__last.addr.06.i.i.i.i.i, i64 -1
  %incdec.ptr1.i.i.i.i.i = getelementptr inbounds %"struct.benchmark::BenchmarkReporter::Run", ptr %__result.addr.07.i.i.i.i.i, i64 -1
  %call.i.i.i.i.i = tail call noundef nonnull align 8 dereferenceable(528) ptr @_ZN9benchmark17BenchmarkReporter3RunaSEOS1_(ptr noundef nonnull align 8 dereferenceable(528) %incdec.ptr1.i.i.i.i.i, ptr noundef nonnull align 8 dereferenceable(528) %incdec.ptr.i.i.i.i.i140) #25
  %dec.i.i.i.i.i = add nsw i64 %__n.08.i.i.i.i.i, -1
  %cmp.i.i.i.i.i = icmp ugt i64 %__n.08.i.i.i.i.i, 1
  br i1 %cmp.i.i.i.i.i, label %for.body.i.i.i.i.i141, label %_ZSt13move_backwardIPN9benchmark17BenchmarkReporter3RunES3_ET0_T_S5_S4_.exit, !llvm.loop !96

_ZSt13move_backwardIPN9benchmark17BenchmarkReporter3RunES3_ET0_T_S5_S4_.exit: ; preds = %for.body.i.i.i.i.i141, %_ZSt22__uninitialized_move_aIPN9benchmark17BenchmarkReporter3RunES3_SaIS2_EET0_T_S6_S5_RT1_.exit
  %call.i.i.i.i = tail call noundef ptr @_ZNSt11__copy_moveILb0ELb0ESt26random_access_iterator_tagE8__copy_mIPKN9benchmark17BenchmarkReporter3RunEPS5_EET0_T_SA_S9_(ptr noundef %__first.coerce, ptr noundef %__last.coerce, ptr noundef %__position.coerce)
  br label %if.end116

if.else:                                          ; preds = %if.then9
  %incdec.ptr.i.i.i = getelementptr inbounds %"struct.benchmark::BenchmarkReporter::Run", ptr %__first.coerce, i64 %sub.ptr.div.i
  %cmp.i.not16.i.i.i.i = icmp eq ptr %incdec.ptr.i.i.i, %__last.coerce
  br i1 %cmp.i.not16.i.i.i.i, label %_ZSt22__uninitialized_copy_aIN9__gnu_cxx17__normal_iteratorIPKN9benchmark17BenchmarkReporter3RunESt6vectorIS4_SaIS4_EEEEPS4_S4_ET0_T_SD_SC_RSaIT1_E.exit, label %for.body.i.i.i.i

for.body.i.i.i.i:                                 ; preds = %if.else, %for.inc.i.i.i.i
  %__cur.018.i.i.i.i = phi ptr [ %incdec.ptr.i.i.i.i, %for.inc.i.i.i.i ], [ %1, %if.else ]
  %__first.sroa.0.017.i.i.i.i = phi ptr [ %incdec.ptr.i.i.i.i.i146, %for.inc.i.i.i.i ], [ %incdec.ptr.i.i.i, %if.else ]
  invoke void @_ZN9benchmark17BenchmarkReporter3RunC2ERKS1_(ptr noundef nonnull align 8 dereferenceable(528) %__cur.018.i.i.i.i, ptr noundef nonnull align 8 dereferenceable(528) %__first.sroa.0.017.i.i.i.i)
          to label %for.inc.i.i.i.i unwind label %lpad.i.i.i.i

for.inc.i.i.i.i:                                  ; preds = %for.body.i.i.i.i
  %incdec.ptr.i.i.i.i.i146 = getelementptr inbounds %"struct.benchmark::BenchmarkReporter::Run", ptr %__first.sroa.0.017.i.i.i.i, i64 1
  %incdec.ptr.i.i.i.i = getelementptr inbounds %"struct.benchmark::BenchmarkReporter::Run", ptr %__cur.018.i.i.i.i, i64 1
  %cmp.i.not.i.i.i.i = icmp eq ptr %incdec.ptr.i.i.i.i.i146, %__last.coerce
  br i1 %cmp.i.not.i.i.i.i, label %_ZSt22__uninitialized_copy_aIN9__gnu_cxx17__normal_iteratorIPKN9benchmark17BenchmarkReporter3RunESt6vectorIS4_SaIS4_EEEEPS4_S4_ET0_T_SD_SC_RSaIT1_E.exit.loopexit, label %for.body.i.i.i.i, !llvm.loop !97

lpad.i.i.i.i:                                     ; preds = %for.body.i.i.i.i
  %3 = landingpad { ptr, i32 }
          catch ptr null
  %4 = extractvalue { ptr, i32 } %3, 0
  %5 = tail call ptr @__cxa_begin_catch(ptr %4) #25
  %cmp.not3.i.i.i.i.i.i = icmp eq ptr %__cur.018.i.i.i.i, %1
  br i1 %cmp.not3.i.i.i.i.i.i, label %invoke.cont5.i.i.i.i, label %for.body.i.i.i.i.i.i

for.body.i.i.i.i.i.i:                             ; preds = %lpad.i.i.i.i, %for.body.i.i.i.i.i.i
  %__first.addr.04.i.i.i.i.i.i = phi ptr [ %incdec.ptr.i.i.i.i.i.i147, %for.body.i.i.i.i.i.i ], [ %1, %lpad.i.i.i.i ]
  tail call void @_ZN9benchmark17BenchmarkReporter3RunD2Ev(ptr noundef nonnull align 8 dereferenceable(528) %__first.addr.04.i.i.i.i.i.i) #25
  %incdec.ptr.i.i.i.i.i.i147 = getelementptr inbounds %"struct.benchmark::BenchmarkReporter::Run", ptr %__first.addr.04.i.i.i.i.i.i, i64 1
  %cmp.not.i.i.i.i.i.i = icmp eq ptr %incdec.ptr.i.i.i.i.i.i147, %__cur.018.i.i.i.i
  br i1 %cmp.not.i.i.i.i.i.i, label %invoke.cont5.i.i.i.i, label %for.body.i.i.i.i.i.i, !llvm.loop !93

invoke.cont5.i.i.i.i:                             ; preds = %for.body.i.i.i.i.i.i, %lpad.i.i.i.i
  invoke void @__cxa_rethrow() #26
          to label %unreachable.i.i.i.i unwind label %lpad4.i.i.i.i

lpad4.i.i.i.i:                                    ; preds = %invoke.cont5.i.i.i.i
  %6 = landingpad { ptr, i32 }
          cleanup
  invoke void @__cxa_end_catch()
          to label %common.resume unwind label %terminate.lpad.i.i.i.i

common.resume:                                    ; preds = %lpad89, %lpad4.i.i.i.i
  %common.resume.op = phi { ptr, i32 } [ %6, %lpad4.i.i.i.i ], [ %24, %lpad89 ]
  resume { ptr, i32 } %common.resume.op

terminate.lpad.i.i.i.i:                           ; preds = %lpad4.i.i.i.i
  %7 = landingpad { ptr, i32 }
          catch ptr null
  %8 = extractvalue { ptr, i32 } %7, 0
  tail call void @__clang_call_terminate(ptr %8) #28
  unreachable

unreachable.i.i.i.i:                              ; preds = %invoke.cont5.i.i.i.i
  unreachable

_ZSt22__uninitialized_copy_aIN9__gnu_cxx17__normal_iteratorIPKN9benchmark17BenchmarkReporter3RunESt6vectorIS4_SaIS4_EEEEPS4_S4_ET0_T_SD_SC_RSaIT1_E.exit.loopexit: ; preds = %for.inc.i.i.i.i
  %.pre = load ptr, ptr %_M_finish, align 8, !tbaa !92
  br label %_ZSt22__uninitialized_copy_aIN9__gnu_cxx17__normal_iteratorIPKN9benchmark17BenchmarkReporter3RunESt6vectorIS4_SaIS4_EEEEPS4_S4_ET0_T_SD_SC_RSaIT1_E.exit

_ZSt22__uninitialized_copy_aIN9__gnu_cxx17__normal_iteratorIPKN9benchmark17BenchmarkReporter3RunESt6vectorIS4_SaIS4_EEEEPS4_S4_ET0_T_SD_SC_RSaIT1_E.exit: ; preds = %_ZSt22__uninitialized_copy_aIN9__gnu_cxx17__normal_iteratorIPKN9benchmark17BenchmarkReporter3RunESt6vectorIS4_SaIS4_EEEEPS4_S4_ET0_T_SD_SC_RSaIT1_E.exit.loopexit, %if.else
  %9 = phi ptr [ %.pre, %_ZSt22__uninitialized_copy_aIN9__gnu_cxx17__normal_iteratorIPKN9benchmark17BenchmarkReporter3RunESt6vectorIS4_SaIS4_EEEEPS4_S4_ET0_T_SD_SC_RSaIT1_E.exit.loopexit ], [ %1, %if.else ]
  %sub = sub nsw i64 %sub.ptr.div.i.i.i, %sub.ptr.div.i
  %add.ptr50 = getelementptr inbounds %"struct.benchmark::BenchmarkReporter::Run", ptr %9, i64 %sub
  store ptr %add.ptr50, ptr %_M_finish, align 8, !tbaa !92
  %cmp.i.i.not18.i.i.i.i.i148 = icmp eq ptr %1, %__position.coerce
  br i1 %cmp.i.i.not18.i.i.i.i.i148, label %_ZSt22__uninitialized_move_aIPN9benchmark17BenchmarkReporter3RunES3_SaIS2_EET0_T_S6_S5_RT1_.exit156, label %for.body.i.i.i.i.i154

for.body.i.i.i.i.i154:                            ; preds = %_ZSt22__uninitialized_copy_aIN9__gnu_cxx17__normal_iteratorIPKN9benchmark17BenchmarkReporter3RunESt6vectorIS4_SaIS4_EEEEPS4_S4_ET0_T_SD_SC_RSaIT1_E.exit, %for.body.i.i.i.i.i154
  %__cur.020.i.i.i.i.i149 = phi ptr [ %incdec.ptr.i.i.i.i.i152, %for.body.i.i.i.i.i154 ], [ %add.ptr50, %_ZSt22__uninitialized_copy_aIN9__gnu_cxx17__normal_iteratorIPKN9benchmark17BenchmarkReporter3RunESt6vectorIS4_SaIS4_EEEEPS4_S4_ET0_T_SD_SC_RSaIT1_E.exit ]
  %__first.sroa.0.019.i.i.i.i.i150 = phi ptr [ %incdec.ptr.i.i.i.i.i.i151, %for.body.i.i.i.i.i154 ], [ %__position.coerce, %_ZSt22__uninitialized_copy_aIN9__gnu_cxx17__normal_iteratorIPKN9benchmark17BenchmarkReporter3RunESt6vectorIS4_SaIS4_EEEEPS4_S4_ET0_T_SD_SC_RSaIT1_E.exit ]
  tail call void @_ZN9benchmark17BenchmarkReporter3RunC2EOS1_(ptr noundef nonnull align 8 dereferenceable(528) %__cur.020.i.i.i.i.i149, ptr noundef nonnull align 8 dereferenceable(528) %__first.sroa.0.019.i.i.i.i.i150) #25
  %incdec.ptr.i.i.i.i.i.i151 = getelementptr inbounds %"struct.benchmark::BenchmarkReporter::Run", ptr %__first.sroa.0.019.i.i.i.i.i150, i64 1
  %incdec.ptr.i.i.i.i.i152 = getelementptr inbounds %"struct.benchmark::BenchmarkReporter::Run", ptr %__cur.020.i.i.i.i.i149, i64 1
  %cmp.i.i.not.i.i.i.i.i153 = icmp eq ptr %incdec.ptr.i.i.i.i.i.i151, %1
  br i1 %cmp.i.i.not.i.i.i.i.i153, label %_ZSt22__uninitialized_move_aIPN9benchmark17BenchmarkReporter3RunES3_SaIS2_EET0_T_S6_S5_RT1_.exit156.loopexit, label %for.body.i.i.i.i.i154, !llvm.loop !95

_ZSt22__uninitialized_move_aIPN9benchmark17BenchmarkReporter3RunES3_SaIS2_EET0_T_S6_S5_RT1_.exit156.loopexit: ; preds = %for.body.i.i.i.i.i154
  %.pre223 = load ptr, ptr %_M_finish, align 8, !tbaa !92
  br label %_ZSt22__uninitialized_move_aIPN9benchmark17BenchmarkReporter3RunES3_SaIS2_EET0_T_S6_S5_RT1_.exit156

_ZSt22__uninitialized_move_aIPN9benchmark17BenchmarkReporter3RunES3_SaIS2_EET0_T_S6_S5_RT1_.exit156: ; preds = %_ZSt22__uninitialized_move_aIPN9benchmark17BenchmarkReporter3RunES3_SaIS2_EET0_T_S6_S5_RT1_.exit156.loopexit, %_ZSt22__uninitialized_copy_aIN9__gnu_cxx17__normal_iteratorIPKN9benchmark17BenchmarkReporter3RunESt6vectorIS4_SaIS4_EEEEPS4_S4_ET0_T_SD_SC_RSaIT1_E.exit
  %10 = phi ptr [ %.pre223, %_ZSt22__uninitialized_move_aIPN9benchmark17BenchmarkReporter3RunES3_SaIS2_EET0_T_S6_S5_RT1_.exit156.loopexit ], [ %add.ptr50, %_ZSt22__uninitialized_copy_aIN9__gnu_cxx17__normal_iteratorIPKN9benchmark17BenchmarkReporter3RunESt6vectorIS4_SaIS4_EEEEPS4_S4_ET0_T_SD_SC_RSaIT1_E.exit ]
  %add.ptr58 = getelementptr inbounds %"struct.benchmark::BenchmarkReporter::Run", ptr %10, i64 %sub.ptr.div.i
  store ptr %add.ptr58, ptr %_M_finish, align 8, !tbaa !92
  %call.i.i.i.i157 = tail call noundef ptr @_ZNSt11__copy_moveILb0ELb0ESt26random_access_iterator_tagE8__copy_mIPKN9benchmark17BenchmarkReporter3RunEPS5_EET0_T_SA_S9_(ptr noundef %__first.coerce, ptr noundef %incdec.ptr.i.i.i, ptr noundef %__position.coerce)
  br label %if.end116

if.else68:                                        ; preds = %if.then
  %11 = load ptr, ptr %this, align 8, !tbaa !90
  %sub.ptr.rhs.cast.i.i = ptrtoint ptr %11 to i64
  %sub.ptr.sub.i.i = sub i64 %sub.ptr.rhs.cast, %sub.ptr.rhs.cast.i.i
  %sub.ptr.div.i.i = sdiv exact i64 %sub.ptr.sub.i.i, 528
  %sub.i = sub nsw i64 17468507645558287, %sub.ptr.div.i.i
  %cmp.i163 = icmp ult i64 %sub.i, %sub.ptr.div.i.i.i
  br i1 %cmp.i163, label %if.then.i, label %_ZNKSt6vectorIN9benchmark17BenchmarkReporter3RunESaIS2_EE12_M_check_lenEmPKc.exit

if.then.i:                                        ; preds = %if.else68
  tail call void @_ZSt20__throw_length_errorPKc(ptr noundef nonnull @.str.57) #26
  unreachable

_ZNKSt6vectorIN9benchmark17BenchmarkReporter3RunESaIS2_EE12_M_check_lenEmPKc.exit: ; preds = %if.else68
  %.sroa.speculated.i = tail call i64 @llvm.umax.i64(i64 %sub.ptr.div.i.i, i64 %sub.ptr.div.i.i.i)
  %add.i = add nsw i64 %.sroa.speculated.i, %sub.ptr.div.i.i
  %cmp7.i = icmp ult i64 %add.i, %sub.ptr.div.i.i
  %cmp9.i = icmp ugt i64 %add.i, 17468507645558287
  %or.cond.i = or i1 %cmp7.i, %cmp9.i
  %cond.i = select i1 %or.cond.i, i64 17468507645558287, i64 %add.i
  %cmp.not.i = icmp eq i64 %cond.i, 0
  br i1 %cmp.not.i, label %_ZNSt12_Vector_baseIN9benchmark17BenchmarkReporter3RunESaIS2_EE11_M_allocateEm.exit, label %_ZNSt16allocator_traitsISaIN9benchmark17BenchmarkReporter3RunEEE8allocateERS3_m.exit.i

_ZNSt16allocator_traitsISaIN9benchmark17BenchmarkReporter3RunEEE8allocateERS3_m.exit.i: ; preds = %_ZNKSt6vectorIN9benchmark17BenchmarkReporter3RunESaIS2_EE12_M_check_lenEmPKc.exit
  %mul.i.i.i = mul nuw nsw i64 %cond.i, 528
  %call5.i.i.i = tail call noalias noundef nonnull ptr @_Znwm(i64 noundef %mul.i.i.i) #27
  br label %_ZNSt12_Vector_baseIN9benchmark17BenchmarkReporter3RunESaIS2_EE11_M_allocateEm.exit

_ZNSt12_Vector_baseIN9benchmark17BenchmarkReporter3RunESaIS2_EE11_M_allocateEm.exit: ; preds = %_ZNKSt6vectorIN9benchmark17BenchmarkReporter3RunESaIS2_EE12_M_check_lenEmPKc.exit, %_ZNSt16allocator_traitsISaIN9benchmark17BenchmarkReporter3RunEEE8allocateERS3_m.exit.i
  %cond.i164 = phi ptr [ %call5.i.i.i, %_ZNSt16allocator_traitsISaIN9benchmark17BenchmarkReporter3RunEEE8allocateERS3_m.exit.i ], [ null, %_ZNKSt6vectorIN9benchmark17BenchmarkReporter3RunESaIS2_EE12_M_check_lenEmPKc.exit ]
  %cmp.i.i.not18.i.i.i.i.i165 = icmp eq ptr %11, %__position.coerce
  br i1 %cmp.i.i.not18.i.i.i.i.i165, label %for.body.i.i.i.i176.preheader, label %for.body.i.i.i.i.i171

for.body.i.i.i.i.i171:                            ; preds = %_ZNSt12_Vector_baseIN9benchmark17BenchmarkReporter3RunESaIS2_EE11_M_allocateEm.exit, %for.body.i.i.i.i.i171
  %__cur.020.i.i.i.i.i166 = phi ptr [ %incdec.ptr.i.i.i.i.i169, %for.body.i.i.i.i.i171 ], [ %cond.i164, %_ZNSt12_Vector_baseIN9benchmark17BenchmarkReporter3RunESaIS2_EE11_M_allocateEm.exit ]
  %__first.sroa.0.019.i.i.i.i.i167 = phi ptr [ %incdec.ptr.i.i.i.i.i.i168, %for.body.i.i.i.i.i171 ], [ %11, %_ZNSt12_Vector_baseIN9benchmark17BenchmarkReporter3RunESaIS2_EE11_M_allocateEm.exit ]
  tail call void @_ZN9benchmark17BenchmarkReporter3RunC2EOS1_(ptr noundef nonnull align 8 dereferenceable(528) %__cur.020.i.i.i.i.i166, ptr noundef nonnull align 8 dereferenceable(528) %__first.sroa.0.019.i.i.i.i.i167) #25
  %incdec.ptr.i.i.i.i.i.i168 = getelementptr inbounds %"struct.benchmark::BenchmarkReporter::Run", ptr %__first.sroa.0.019.i.i.i.i.i167, i64 1
  %incdec.ptr.i.i.i.i.i169 = getelementptr inbounds %"struct.benchmark::BenchmarkReporter::Run", ptr %__cur.020.i.i.i.i.i166, i64 1
  %cmp.i.i.not.i.i.i.i.i170 = icmp eq ptr %incdec.ptr.i.i.i.i.i.i168, %__position.coerce
  br i1 %cmp.i.i.not.i.i.i.i.i170, label %for.body.i.i.i.i176.preheader, label %for.body.i.i.i.i.i171, !llvm.loop !95

for.body.i.i.i.i176.preheader:                    ; preds = %for.body.i.i.i.i.i171, %_ZNSt12_Vector_baseIN9benchmark17BenchmarkReporter3RunESaIS2_EE11_M_allocateEm.exit
  %__cur.0.lcssa.i.i.i.i.i172 = phi ptr [ %cond.i164, %_ZNSt12_Vector_baseIN9benchmark17BenchmarkReporter3RunESaIS2_EE11_M_allocateEm.exit ], [ %incdec.ptr.i.i.i.i.i169, %for.body.i.i.i.i.i171 ]
  br label %for.body.i.i.i.i176

for.body.i.i.i.i176:                              ; preds = %for.body.i.i.i.i176.preheader, %for.inc.i.i.i.i180
  %__cur.018.i.i.i.i174 = phi ptr [ %incdec.ptr.i.i.i.i178, %for.inc.i.i.i.i180 ], [ %__cur.0.lcssa.i.i.i.i.i172, %for.body.i.i.i.i176.preheader ]
  %__first.sroa.0.017.i.i.i.i175 = phi ptr [ %incdec.ptr.i.i.i.i.i177, %for.inc.i.i.i.i180 ], [ %__first.coerce, %for.body.i.i.i.i176.preheader ]
  invoke void @_ZN9benchmark17BenchmarkReporter3RunC2ERKS1_(ptr noundef nonnull align 8 dereferenceable(528) %__cur.018.i.i.i.i174, ptr noundef nonnull align 8 dereferenceable(528) %__first.sroa.0.017.i.i.i.i175)
          to label %for.inc.i.i.i.i180 unwind label %lpad.i.i.i.i182

for.inc.i.i.i.i180:                               ; preds = %for.body.i.i.i.i176
  %incdec.ptr.i.i.i.i.i177 = getelementptr inbounds %"struct.benchmark::BenchmarkReporter::Run", ptr %__first.sroa.0.017.i.i.i.i175, i64 1
  %incdec.ptr.i.i.i.i178 = getelementptr inbounds %"struct.benchmark::BenchmarkReporter::Run", ptr %__cur.018.i.i.i.i174, i64 1
  %cmp.i.not.i.i.i.i179 = icmp eq ptr %incdec.ptr.i.i.i.i.i177, %__last.coerce
  br i1 %cmp.i.not.i.i.i.i179, label %invoke.cont80, label %for.body.i.i.i.i176, !llvm.loop !97

lpad.i.i.i.i182:                                  ; preds = %for.body.i.i.i.i176
  %12 = landingpad { ptr, i32 }
          catch ptr null
  %13 = extractvalue { ptr, i32 } %12, 0
  %14 = tail call ptr @__cxa_begin_catch(ptr %13) #25
  %cmp.not3.i.i.i.i.i.i181 = icmp eq ptr %__cur.018.i.i.i.i174, %__cur.0.lcssa.i.i.i.i.i172
  br i1 %cmp.not3.i.i.i.i.i.i181, label %invoke.cont5.i.i.i.i187, label %for.body.i.i.i.i.i.i186

for.body.i.i.i.i.i.i186:                          ; preds = %lpad.i.i.i.i182, %for.body.i.i.i.i.i.i186
  %__first.addr.04.i.i.i.i.i.i183 = phi ptr [ %incdec.ptr.i.i.i.i.i.i184, %for.body.i.i.i.i.i.i186 ], [ %__cur.0.lcssa.i.i.i.i.i172, %lpad.i.i.i.i182 ]
  tail call void @_ZN9benchmark17BenchmarkReporter3RunD2Ev(ptr noundef nonnull align 8 dereferenceable(528) %__first.addr.04.i.i.i.i.i.i183) #25
  %incdec.ptr.i.i.i.i.i.i184 = getelementptr inbounds %"struct.benchmark::BenchmarkReporter::Run", ptr %__first.addr.04.i.i.i.i.i.i183, i64 1
  %cmp.not.i.i.i.i.i.i185 = icmp eq ptr %incdec.ptr.i.i.i.i.i.i184, %__cur.018.i.i.i.i174
  br i1 %cmp.not.i.i.i.i.i.i185, label %invoke.cont5.i.i.i.i187, label %for.body.i.i.i.i.i.i186, !llvm.loop !93

invoke.cont5.i.i.i.i187:                          ; preds = %for.body.i.i.i.i.i.i186, %lpad.i.i.i.i182
  invoke void @__cxa_rethrow() #26
          to label %unreachable.i.i.i.i191 unwind label %lpad4.i.i.i.i188

lpad4.i.i.i.i188:                                 ; preds = %invoke.cont5.i.i.i.i187
  %15 = landingpad { ptr, i32 }
          catch ptr null
  invoke void @__cxa_end_catch()
          to label %lpad.body unwind label %terminate.lpad.i.i.i.i190

terminate.lpad.i.i.i.i190:                        ; preds = %lpad4.i.i.i.i188
  %16 = landingpad { ptr, i32 }
          catch ptr null
  %17 = extractvalue { ptr, i32 } %16, 0
  tail call void @__clang_call_terminate(ptr %17) #28
  unreachable

unreachable.i.i.i.i191:                           ; preds = %invoke.cont5.i.i.i.i187
  unreachable

invoke.cont80:                                    ; preds = %for.inc.i.i.i.i180
  %18 = load ptr, ptr %_M_finish, align 8, !tbaa !92
  %cmp.i.i.not18.i.i.i.i.i194 = icmp eq ptr %18, %__position.coerce
  br i1 %cmp.i.i.not18.i.i.i.i.i194, label %invoke.cont86, label %for.body.i.i.i.i.i200

for.body.i.i.i.i.i200:                            ; preds = %invoke.cont80, %for.body.i.i.i.i.i200
  %__cur.020.i.i.i.i.i195 = phi ptr [ %incdec.ptr.i.i.i.i.i198, %for.body.i.i.i.i.i200 ], [ %incdec.ptr.i.i.i.i178, %invoke.cont80 ]
  %__first.sroa.0.019.i.i.i.i.i196 = phi ptr [ %incdec.ptr.i.i.i.i.i.i197, %for.body.i.i.i.i.i200 ], [ %__position.coerce, %invoke.cont80 ]
  tail call void @_ZN9benchmark17BenchmarkReporter3RunC2EOS1_(ptr noundef nonnull align 8 dereferenceable(528) %__cur.020.i.i.i.i.i195, ptr noundef nonnull align 8 dereferenceable(528) %__first.sroa.0.019.i.i.i.i.i196) #25
  %incdec.ptr.i.i.i.i.i.i197 = getelementptr inbounds %"struct.benchmark::BenchmarkReporter::Run", ptr %__first.sroa.0.019.i.i.i.i.i196, i64 1
  %incdec.ptr.i.i.i.i.i198 = getelementptr inbounds %"struct.benchmark::BenchmarkReporter::Run", ptr %__cur.020.i.i.i.i.i195, i64 1
  %cmp.i.i.not.i.i.i.i.i199 = icmp eq ptr %incdec.ptr.i.i.i.i.i.i197, %18
  br i1 %cmp.i.i.not.i.i.i.i.i199, label %invoke.cont86.loopexit, label %for.body.i.i.i.i.i200, !llvm.loop !95

invoke.cont86.loopexit:                           ; preds = %for.body.i.i.i.i.i200
  %.pre224 = load ptr, ptr %_M_finish, align 8, !tbaa !92
  br label %invoke.cont86

invoke.cont86:                                    ; preds = %invoke.cont86.loopexit, %invoke.cont80
  %19 = phi ptr [ %__position.coerce, %invoke.cont80 ], [ %.pre224, %invoke.cont86.loopexit ]
  %__cur.0.lcssa.i.i.i.i.i201 = phi ptr [ %incdec.ptr.i.i.i.i178, %invoke.cont80 ], [ %incdec.ptr.i.i.i.i.i198, %invoke.cont86.loopexit ]
  %20 = load ptr, ptr %this, align 8, !tbaa !90
  %cmp.not3.i.i.i = icmp eq ptr %20, %19
  br i1 %cmp.not3.i.i.i, label %_ZSt8_DestroyIPN9benchmark17BenchmarkReporter3RunES2_EvT_S4_RSaIT0_E.exit, label %for.body.i.i.i

for.body.i.i.i:                                   ; preds = %invoke.cont86, %for.body.i.i.i
  %__first.addr.04.i.i.i = phi ptr [ %incdec.ptr.i.i.i203, %for.body.i.i.i ], [ %20, %invoke.cont86 ]
  tail call void @_ZN9benchmark17BenchmarkReporter3RunD2Ev(ptr noundef nonnull align 8 dereferenceable(528) %__first.addr.04.i.i.i) #25
  %incdec.ptr.i.i.i203 = getelementptr inbounds %"struct.benchmark::BenchmarkReporter::Run", ptr %__first.addr.04.i.i.i, i64 1
  %cmp.not.i.i.i = icmp eq ptr %incdec.ptr.i.i.i203, %19
  br i1 %cmp.not.i.i.i, label %_ZSt8_DestroyIPN9benchmark17BenchmarkReporter3RunES2_EvT_S4_RSaIT0_E.exitthread-pre-split, label %for.body.i.i.i, !llvm.loop !93

_ZSt8_DestroyIPN9benchmark17BenchmarkReporter3RunES2_EvT_S4_RSaIT0_E.exitthread-pre-split: ; preds = %for.body.i.i.i
  %.pr = load ptr, ptr %this, align 8, !tbaa !90
  br label %_ZSt8_DestroyIPN9benchmark17BenchmarkReporter3RunES2_EvT_S4_RSaIT0_E.exit

_ZSt8_DestroyIPN9benchmark17BenchmarkReporter3RunES2_EvT_S4_RSaIT0_E.exit: ; preds = %_ZSt8_DestroyIPN9benchmark17BenchmarkReporter3RunES2_EvT_S4_RSaIT0_E.exitthread-pre-split, %invoke.cont86
  %21 = phi ptr [ %.pr, %_ZSt8_DestroyIPN9benchmark17BenchmarkReporter3RunES2_EvT_S4_RSaIT0_E.exitthread-pre-split ], [ %19, %invoke.cont86 ]
  %tobool.not.i = icmp eq ptr %21, null
  br i1 %tobool.not.i, label %_ZNSt12_Vector_baseIN9benchmark17BenchmarkReporter3RunESaIS2_EE13_M_deallocateEPS2_m.exit, label %if.then.i204

if.then.i204:                                     ; preds = %_ZSt8_DestroyIPN9benchmark17BenchmarkReporter3RunES2_EvT_S4_RSaIT0_E.exit
  tail call void @_ZdlPv(ptr noundef nonnull %21) #24
  br label %_ZNSt12_Vector_baseIN9benchmark17BenchmarkReporter3RunESaIS2_EE13_M_deallocateEPS2_m.exit

_ZNSt12_Vector_baseIN9benchmark17BenchmarkReporter3RunESaIS2_EE13_M_deallocateEPS2_m.exit: ; preds = %_ZSt8_DestroyIPN9benchmark17BenchmarkReporter3RunES2_EvT_S4_RSaIT0_E.exit, %if.then.i204
  store ptr %cond.i164, ptr %this, align 8, !tbaa !90
  store ptr %__cur.0.lcssa.i.i.i.i.i201, ptr %_M_finish, align 8, !tbaa !92
  %add.ptr112 = getelementptr inbounds %"struct.benchmark::BenchmarkReporter::Run", ptr %cond.i164, i64 %cond.i
  store ptr %add.ptr112, ptr %_M_end_of_storage, align 8, !tbaa !94
  br label %if.end116

lpad.body:                                        ; preds = %lpad4.i.i.i.i188
  %22 = extractvalue { ptr, i32 } %15, 0
  %23 = tail call ptr @__cxa_begin_catch(ptr %22) #25
  %cmp.not3.i.i.i205 = icmp eq ptr %cond.i164, %__cur.0.lcssa.i.i.i.i.i172
  br i1 %cmp.not3.i.i.i205, label %invoke.cont90, label %for.body.i.i.i209

for.body.i.i.i209:                                ; preds = %lpad.body, %for.body.i.i.i209
  %__first.addr.04.i.i.i206 = phi ptr [ %incdec.ptr.i.i.i207, %for.body.i.i.i209 ], [ %cond.i164, %lpad.body ]
  tail call void @_ZN9benchmark17BenchmarkReporter3RunD2Ev(ptr noundef nonnull align 8 dereferenceable(528) %__first.addr.04.i.i.i206) #25
  %incdec.ptr.i.i.i207 = getelementptr inbounds %"struct.benchmark::BenchmarkReporter::Run", ptr %__first.addr.04.i.i.i206, i64 1
  %cmp.not.i.i.i208 = icmp eq ptr %incdec.ptr.i.i.i207, %__cur.0.lcssa.i.i.i.i.i172
  br i1 %cmp.not.i.i.i208, label %invoke.cont90, label %for.body.i.i.i209, !llvm.loop !93

invoke.cont90:                                    ; preds = %for.body.i.i.i209, %lpad.body
  %tobool.not.i211 = icmp eq ptr %cond.i164, null
  br i1 %tobool.not.i211, label %invoke.cont91, label %if.then.i212

if.then.i212:                                     ; preds = %invoke.cont90
  tail call void @_ZdlPv(ptr noundef nonnull %cond.i164) #24
  br label %invoke.cont91

invoke.cont91:                                    ; preds = %if.then.i212, %invoke.cont90
  invoke void @__cxa_rethrow() #26
          to label %unreachable unwind label %lpad89

lpad89:                                           ; preds = %invoke.cont91
  %24 = landingpad { ptr, i32 }
          cleanup
  invoke void @__cxa_end_catch()
          to label %common.resume unwind label %terminate.lpad

if.end116:                                        ; preds = %_ZNSt12_Vector_baseIN9benchmark17BenchmarkReporter3RunESaIS2_EE13_M_deallocateEPS2_m.exit, %_ZSt22__uninitialized_move_aIPN9benchmark17BenchmarkReporter3RunES3_SaIS2_EET0_T_S6_S5_RT1_.exit156, %_ZSt13move_backwardIPN9benchmark17BenchmarkReporter3RunES3_ET0_T_S5_S4_.exit, %entry
  ret void

terminate.lpad:                                   ; preds = %lpad89
  %25 = landingpad { ptr, i32 }
          catch ptr null
  %26 = extractvalue { ptr, i32 } %25, 0
  tail call void @__clang_call_terminate(ptr %26) #28
  unreachable

unreachable:                                      ; preds = %invoke.cont91
  unreachable
}

declare void @__cxa_rethrow() local_unnamed_addr

declare void @__cxa_end_catch() local_unnamed_addr

; Function Attrs: inlinehint nounwind uwtable
define linkonce_odr hidden void @_ZN9benchmark17BenchmarkReporter3RunC2EOS1_(ptr noundef nonnull align 8 dereferenceable(528) %this, ptr noundef nonnull align 8 dereferenceable(528) %0) unnamed_addr #9 comdat align 2 personality ptr @__gxx_personality_v0 {
entry:
  tail call void @_ZN9benchmark13BenchmarkNameC2EOS0_(ptr noundef nonnull align 8 dereferenceable(224) %this, ptr noundef nonnull align 8 dereferenceable(224) %0) #25
  %family_index = getelementptr inbounds %"struct.benchmark::BenchmarkReporter::Run", ptr %this, i64 0, i32 1
  %family_index3 = getelementptr inbounds %"struct.benchmark::BenchmarkReporter::Run", ptr %0, i64 0, i32 1
  tail call void @llvm.memcpy.p0.p0.i64(ptr noundef nonnull align 8 dereferenceable(20) %family_index, ptr noundef nonnull align 8 dereferenceable(20) %family_index3, i64 20, i1 false)
  %aggregate_name = getelementptr inbounds %"struct.benchmark::BenchmarkReporter::Run", ptr %this, i64 0, i32 4
  %aggregate_name4 = getelementptr inbounds %"struct.benchmark::BenchmarkReporter::Run", ptr %0, i64 0, i32 4
  %1 = getelementptr inbounds %"struct.benchmark::BenchmarkReporter::Run", ptr %this, i64 0, i32 4, i32 2
  store ptr %1, ptr %aggregate_name, align 8, !tbaa !17
  %2 = load ptr, ptr %aggregate_name4, align 8, !tbaa !11
  %3 = getelementptr inbounds %"struct.benchmark::BenchmarkReporter::Run", ptr %0, i64 0, i32 4, i32 2
  %cmp.i.i = icmp eq ptr %2, %3
  br i1 %cmp.i.i, label %if.then.i, label %if.else.i

if.then.i:                                        ; preds = %entry
  %_M_string_length.i.i = getelementptr inbounds %"struct.benchmark::BenchmarkReporter::Run", ptr %0, i64 0, i32 4, i32 1
  %4 = load i64, ptr %_M_string_length.i.i, align 8, !tbaa !18
  %add.i = add i64 %4, 1
  %cmp.i21.i = icmp eq i64 %add.i, 0
  br i1 %cmp.i21.i, label %_ZNSt7__cxx1112basic_stringIcSt11char_traitsIcESaIcEEC2EOS4_.exit, label %if.end.i.i

if.end.i.i:                                       ; preds = %if.then.i
  tail call void @llvm.memcpy.p0.p0.i64(ptr nonnull align 8 %1, ptr nonnull align 8 %2, i64 %add.i, i1 false)
  br label %_ZNSt7__cxx1112basic_stringIcSt11char_traitsIcESaIcEEC2EOS4_.exit

if.else.i:                                        ; preds = %entry
  store ptr %2, ptr %aggregate_name, align 8, !tbaa !11
  %5 = load i64, ptr %3, align 8, !tbaa !20
  store i64 %5, ptr %1, align 8, !tbaa !20
  br label %_ZNSt7__cxx1112basic_stringIcSt11char_traitsIcESaIcEEC2EOS4_.exit

_ZNSt7__cxx1112basic_stringIcSt11char_traitsIcESaIcEEC2EOS4_.exit: ; preds = %if.then.i, %if.end.i.i, %if.else.i
  %_M_string_length.i22.i = getelementptr inbounds %"struct.benchmark::BenchmarkReporter::Run", ptr %0, i64 0, i32 4, i32 1
  %6 = load i64, ptr %_M_string_length.i22.i, align 8, !tbaa !18
  %_M_string_length.i23.i = getelementptr inbounds %"struct.benchmark::BenchmarkReporter::Run", ptr %this, i64 0, i32 4, i32 1
  store i64 %6, ptr %_M_string_length.i23.i, align 8, !tbaa !18
  store ptr %3, ptr %aggregate_name4, align 8, !tbaa !11
  store i64 0, ptr %_M_string_length.i22.i, align 8, !tbaa !18
  store i8 0, ptr %3, align 8, !tbaa !20
  %aggregate_unit = getelementptr inbounds %"struct.benchmark::BenchmarkReporter::Run", ptr %this, i64 0, i32 5
  %aggregate_unit5 = getelementptr inbounds %"struct.benchmark::BenchmarkReporter::Run", ptr %0, i64 0, i32 5
  %7 = load i32, ptr %aggregate_unit5, align 8, !tbaa !98
  store i32 %7, ptr %aggregate_unit, align 8, !tbaa !98
  %report_label = getelementptr inbounds %"struct.benchmark::BenchmarkReporter::Run", ptr %this, i64 0, i32 6
  %report_label6 = getelementptr inbounds %"struct.benchmark::BenchmarkReporter::Run", ptr %0, i64 0, i32 6
  %8 = getelementptr inbounds %"struct.benchmark::BenchmarkReporter::Run", ptr %this, i64 0, i32 6, i32 2
  store ptr %8, ptr %report_label, align 8, !tbaa !17
  %9 = load ptr, ptr %report_label6, align 8, !tbaa !11
  %10 = getelementptr inbounds %"struct.benchmark::BenchmarkReporter::Run", ptr %0, i64 0, i32 6, i32 2
  %cmp.i.i21 = icmp eq ptr %9, %10
  br i1 %cmp.i.i21, label %if.then.i25, label %if.else.i27

if.then.i25:                                      ; preds = %_ZNSt7__cxx1112basic_stringIcSt11char_traitsIcESaIcEEC2EOS4_.exit
  %_M_string_length.i.i22 = getelementptr inbounds %"struct.benchmark::BenchmarkReporter::Run", ptr %0, i64 0, i32 6, i32 1
  %11 = load i64, ptr %_M_string_length.i.i22, align 8, !tbaa !18
  %add.i23 = add i64 %11, 1
  %cmp.i21.i24 = icmp eq i64 %add.i23, 0
  br i1 %cmp.i21.i24, label %_ZNSt7__cxx1112basic_stringIcSt11char_traitsIcESaIcEEC2EOS4_.exit30, label %if.end.i.i26

if.end.i.i26:                                     ; preds = %if.then.i25
  tail call void @llvm.memcpy.p0.p0.i64(ptr nonnull align 8 %8, ptr nonnull align 8 %9, i64 %add.i23, i1 false)
  br label %_ZNSt7__cxx1112basic_stringIcSt11char_traitsIcESaIcEEC2EOS4_.exit30

if.else.i27:                                      ; preds = %_ZNSt7__cxx1112basic_stringIcSt11char_traitsIcESaIcEEC2EOS4_.exit
  store ptr %9, ptr %report_label, align 8, !tbaa !11
  %12 = load i64, ptr %10, align 8, !tbaa !20
  store i64 %12, ptr %8, align 8, !tbaa !20
  br label %_ZNSt7__cxx1112basic_stringIcSt11char_traitsIcESaIcEEC2EOS4_.exit30

_ZNSt7__cxx1112basic_stringIcSt11char_traitsIcESaIcEEC2EOS4_.exit30: ; preds = %if.then.i25, %if.end.i.i26, %if.else.i27
  %_M_string_length.i22.i28 = getelementptr inbounds %"struct.benchmark::BenchmarkReporter::Run", ptr %0, i64 0, i32 6, i32 1
  %13 = load i64, ptr %_M_string_length.i22.i28, align 8, !tbaa !18
  %_M_string_length.i23.i29 = getelementptr inbounds %"struct.benchmark::BenchmarkReporter::Run", ptr %this, i64 0, i32 6, i32 1
  store i64 %13, ptr %_M_string_length.i23.i29, align 8, !tbaa !18
  store ptr %10, ptr %report_label6, align 8, !tbaa !11
  store i64 0, ptr %_M_string_length.i22.i28, align 8, !tbaa !18
  store i8 0, ptr %10, align 8, !tbaa !20
  %error_occurred = getelementptr inbounds %"struct.benchmark::BenchmarkReporter::Run", ptr %this, i64 0, i32 7
  %error_occurred7 = getelementptr inbounds %"struct.benchmark::BenchmarkReporter::Run", ptr %0, i64 0, i32 7
  %14 = load i8, ptr %error_occurred7, align 8, !tbaa !81, !range !24, !noundef !25
  store i8 %14, ptr %error_occurred, align 8, !tbaa !81
  %error_message = getelementptr inbounds %"struct.benchmark::BenchmarkReporter::Run", ptr %this, i64 0, i32 8
  %error_message8 = getelementptr inbounds %"struct.benchmark::BenchmarkReporter::Run", ptr %0, i64 0, i32 8
  %15 = getelementptr inbounds %"struct.benchmark::BenchmarkReporter::Run", ptr %this, i64 0, i32 8, i32 2
  store ptr %15, ptr %error_message, align 8, !tbaa !17
  %16 = load ptr, ptr %error_message8, align 8, !tbaa !11
  %17 = getelementptr inbounds %"struct.benchmark::BenchmarkReporter::Run", ptr %0, i64 0, i32 8, i32 2
  %cmp.i.i31 = icmp eq ptr %16, %17
  br i1 %cmp.i.i31, label %if.then.i35, label %if.else.i37

if.then.i35:                                      ; preds = %_ZNSt7__cxx1112basic_stringIcSt11char_traitsIcESaIcEEC2EOS4_.exit30
  %_M_string_length.i.i32 = getelementptr inbounds %"struct.benchmark::BenchmarkReporter::Run", ptr %0, i64 0, i32 8, i32 1
  %18 = load i64, ptr %_M_string_length.i.i32, align 8, !tbaa !18
  %add.i33 = add i64 %18, 1
  %cmp.i21.i34 = icmp eq i64 %add.i33, 0
  br i1 %cmp.i21.i34, label %_ZNSt7__cxx1112basic_stringIcSt11char_traitsIcESaIcEEC2EOS4_.exit40, label %if.end.i.i36

if.end.i.i36:                                     ; preds = %if.then.i35
  tail call void @llvm.memcpy.p0.p0.i64(ptr nonnull align 8 %15, ptr nonnull align 8 %16, i64 %add.i33, i1 false)
  br label %_ZNSt7__cxx1112basic_stringIcSt11char_traitsIcESaIcEEC2EOS4_.exit40

if.else.i37:                                      ; preds = %_ZNSt7__cxx1112basic_stringIcSt11char_traitsIcESaIcEEC2EOS4_.exit30
  store ptr %16, ptr %error_message, align 8, !tbaa !11
  %19 = load i64, ptr %17, align 8, !tbaa !20
  store i64 %19, ptr %15, align 8, !tbaa !20
  br label %_ZNSt7__cxx1112basic_stringIcSt11char_traitsIcESaIcEEC2EOS4_.exit40

_ZNSt7__cxx1112basic_stringIcSt11char_traitsIcESaIcEEC2EOS4_.exit40: ; preds = %if.then.i35, %if.end.i.i36, %if.else.i37
  %_M_string_length.i22.i38 = getelementptr inbounds %"struct.benchmark::BenchmarkReporter::Run", ptr %0, i64 0, i32 8, i32 1
  %20 = load i64, ptr %_M_string_length.i22.i38, align 8, !tbaa !18
  %_M_string_length.i23.i39 = getelementptr inbounds %"struct.benchmark::BenchmarkReporter::Run", ptr %this, i64 0, i32 8, i32 1
  store i64 %20, ptr %_M_string_length.i23.i39, align 8, !tbaa !18
  store ptr %17, ptr %error_message8, align 8, !tbaa !11
  store i64 0, ptr %_M_string_length.i22.i38, align 8, !tbaa !18
  store i8 0, ptr %17, align 8, !tbaa !20
  %iterations = getelementptr inbounds %"struct.benchmark::BenchmarkReporter::Run", ptr %this, i64 0, i32 9
  %iterations9 = getelementptr inbounds %"struct.benchmark::BenchmarkReporter::Run", ptr %0, i64 0, i32 9
  tail call void @llvm.memcpy.p0.p0.i64(ptr noundef nonnull align 8 dereferenceable(98) %iterations, ptr noundef nonnull align 8 dereferenceable(98) %iterations9, i64 98, i1 false)
  %21 = getelementptr inbounds %"struct.benchmark::BenchmarkReporter::Run", ptr %this, i64 0, i32 23, i32 0, i32 0, i32 1
  %_M_parent.i.i.i.i = getelementptr inbounds %"struct.benchmark::BenchmarkReporter::Run", ptr %0, i64 0, i32 23, i32 0, i32 0, i32 1, i32 0, i32 1
  %22 = load ptr, ptr %_M_parent.i.i.i.i, align 8, !tbaa !69
  %cmp.not.i.i.i.i = icmp eq ptr %22, null
  br i1 %cmp.not.i.i.i.i, label %if.else.i.i.i.i, label %if.then.i.i.i.i

if.then.i.i.i.i:                                  ; preds = %_ZNSt7__cxx1112basic_stringIcSt11char_traitsIcESaIcEEC2EOS4_.exit40
  %add.ptr.i.i.i = getelementptr inbounds %"struct.benchmark::BenchmarkReporter::Run", ptr %0, i64 0, i32 23, i32 0, i32 0, i32 1
  %23 = load i32, ptr %add.ptr.i.i.i, align 8, !tbaa !68
  %_M_parent6.i.i.i.i.i = getelementptr inbounds %"struct.benchmark::BenchmarkReporter::Run", ptr %this, i64 0, i32 23, i32 0, i32 0, i32 1, i32 0, i32 1
  store ptr %22, ptr %_M_parent6.i.i.i.i.i, align 8, !tbaa !69
  %_M_left.i.i.i.i.i = getelementptr inbounds %"struct.benchmark::BenchmarkReporter::Run", ptr %0, i64 0, i32 23, i32 0, i32 0, i32 1, i32 0, i32 2
  %_M_left9.i.i.i.i.i = getelementptr inbounds %"struct.benchmark::BenchmarkReporter::Run", ptr %this, i64 0, i32 23, i32 0, i32 0, i32 1, i32 0, i32 2
  %_M_right.i.i.i.i.i = getelementptr inbounds %"struct.benchmark::BenchmarkReporter::Run", ptr %0, i64 0, i32 23, i32 0, i32 0, i32 1, i32 0, i32 3
  %24 = load <2 x ptr>, ptr %_M_left.i.i.i.i.i, align 8, !tbaa !26
  store <2 x ptr> %24, ptr %_M_left9.i.i.i.i.i, align 8, !tbaa !26
  %_M_parent16.i.i.i.i.i = getelementptr inbounds %"struct.std::_Rb_tree_node_base", ptr %22, i64 0, i32 1
  store ptr %21, ptr %_M_parent16.i.i.i.i.i, align 8, !tbaa !99
  %_M_node_count.i.i.i.i.i = getelementptr inbounds %"struct.benchmark::BenchmarkReporter::Run", ptr %0, i64 0, i32 23, i32 0, i32 0, i32 1, i32 1
  %25 = load i64, ptr %_M_node_count.i.i.i.i.i, align 8, !tbaa !72
  %_M_node_count17.i.i.i.i.i = getelementptr inbounds %"struct.benchmark::BenchmarkReporter::Run", ptr %this, i64 0, i32 23, i32 0, i32 0, i32 1, i32 1
  store i64 %25, ptr %_M_node_count17.i.i.i.i.i, align 8, !tbaa !72
  store ptr null, ptr %_M_parent.i.i.i.i, align 8, !tbaa !69
  store ptr %add.ptr.i.i.i, ptr %_M_left.i.i.i.i.i, align 8, !tbaa !70
  store ptr %add.ptr.i.i.i, ptr %_M_right.i.i.i.i.i, align 8, !tbaa !71
  br label %_ZNSt3mapINSt7__cxx1112basic_stringIcSt11char_traitsIcESaIcEEEN9benchmark7CounterESt4lessIS5_ESaISt4pairIKS5_S7_EEEC2EOSE_.exit

if.else.i.i.i.i:                                  ; preds = %_ZNSt7__cxx1112basic_stringIcSt11char_traitsIcESaIcEEC2EOS4_.exit40
  %_M_parent.i5.i.i.i.i = getelementptr inbounds %"struct.benchmark::BenchmarkReporter::Run", ptr %this, i64 0, i32 23, i32 0, i32 0, i32 1, i32 0, i32 1
  store ptr null, ptr %_M_parent.i5.i.i.i.i, align 8, !tbaa !69
  %_M_left.i6.i.i.i.i = getelementptr inbounds %"struct.benchmark::BenchmarkReporter::Run", ptr %this, i64 0, i32 23, i32 0, i32 0, i32 1, i32 0, i32 2
  store ptr %21, ptr %_M_left.i6.i.i.i.i, align 8, !tbaa !70
  %_M_right.i7.i.i.i.i = getelementptr inbounds %"struct.benchmark::BenchmarkReporter::Run", ptr %this, i64 0, i32 23, i32 0, i32 0, i32 1, i32 0, i32 3
  store ptr %21, ptr %_M_right.i7.i.i.i.i, align 8, !tbaa !71
  %_M_node_count.i8.i.i.i.i = getelementptr inbounds %"struct.benchmark::BenchmarkReporter::Run", ptr %this, i64 0, i32 23, i32 0, i32 0, i32 1, i32 1
  br label %_ZNSt3mapINSt7__cxx1112basic_stringIcSt11char_traitsIcESaIcEEEN9benchmark7CounterESt4lessIS5_ESaISt4pairIKS5_S7_EEEC2EOSE_.exit

_ZNSt3mapINSt7__cxx1112basic_stringIcSt11char_traitsIcESaIcEEEN9benchmark7CounterESt4lessIS5_ESaISt4pairIKS5_S7_EEEC2EOSE_.exit: ; preds = %if.then.i.i.i.i, %if.else.i.i.i.i
  %_M_node_count.i8.sink.i.i.i.i = phi ptr [ %_M_node_count.i8.i.i.i.i, %if.else.i.i.i.i ], [ %_M_node_count.i.i.i.i.i, %if.then.i.i.i.i ]
  %.sink.i.i.i.i = phi i32 [ 0, %if.else.i.i.i.i ], [ %23, %if.then.i.i.i.i ]
  store i64 0, ptr %_M_node_count.i8.sink.i.i.i.i, align 8, !tbaa !72
  store i32 %.sink.i.i.i.i, ptr %21, align 8
  %memory_result = getelementptr inbounds %"struct.benchmark::BenchmarkReporter::Run", ptr %this, i64 0, i32 24
  %memory_result11 = getelementptr inbounds %"struct.benchmark::BenchmarkReporter::Run", ptr %0, i64 0, i32 24
  tail call void @llvm.memcpy.p0.p0.i64(ptr noundef nonnull align 8 dereferenceable(16) %memory_result, ptr noundef nonnull align 8 dereferenceable(16) %memory_result11, i64 16, i1 false)
  ret void
}

; Function Attrs: inlinehint nounwind uwtable
define linkonce_odr hidden void @_ZN9benchmark13BenchmarkNameC2EOS0_(ptr noundef nonnull align 8 dereferenceable(224) %this, ptr noundef nonnull align 8 dereferenceable(224) %0) unnamed_addr #9 comdat align 2 personality ptr @__gxx_personality_v0 {
entry:
  %1 = getelementptr inbounds %"class.std::__cxx11::basic_string", ptr %this, i64 0, i32 2
  store ptr %1, ptr %this, align 8, !tbaa !17
  %2 = load ptr, ptr %0, align 8, !tbaa !11
  %3 = getelementptr inbounds %"class.std::__cxx11::basic_string", ptr %0, i64 0, i32 2
  %cmp.i.i = icmp eq ptr %2, %3
  br i1 %cmp.i.i, label %if.then.i, label %if.else.i

if.then.i:                                        ; preds = %entry
  %_M_string_length.i.i = getelementptr inbounds %"class.std::__cxx11::basic_string", ptr %0, i64 0, i32 1
  %4 = load i64, ptr %_M_string_length.i.i, align 8, !tbaa !18
  %add.i = add i64 %4, 1
  %cmp.i21.i = icmp eq i64 %add.i, 0
  br i1 %cmp.i21.i, label %_ZNSt7__cxx1112basic_stringIcSt11char_traitsIcESaIcEEC2EOS4_.exit, label %if.end.i.i

if.end.i.i:                                       ; preds = %if.then.i
  tail call void @llvm.memcpy.p0.p0.i64(ptr nonnull align 8 %1, ptr nonnull align 8 %2, i64 %add.i, i1 false)
  br label %_ZNSt7__cxx1112basic_stringIcSt11char_traitsIcESaIcEEC2EOS4_.exit

if.else.i:                                        ; preds = %entry
  store ptr %2, ptr %this, align 8, !tbaa !11
  %5 = load i64, ptr %3, align 8, !tbaa !20
  store i64 %5, ptr %1, align 8, !tbaa !20
  br label %_ZNSt7__cxx1112basic_stringIcSt11char_traitsIcESaIcEEC2EOS4_.exit

_ZNSt7__cxx1112basic_stringIcSt11char_traitsIcESaIcEEC2EOS4_.exit: ; preds = %if.then.i, %if.end.i.i, %if.else.i
  %_M_string_length.i22.i = getelementptr inbounds %"class.std::__cxx11::basic_string", ptr %0, i64 0, i32 1
  %6 = load i64, ptr %_M_string_length.i22.i, align 8, !tbaa !18
  %_M_string_length.i23.i = getelementptr inbounds %"class.std::__cxx11::basic_string", ptr %this, i64 0, i32 1
  store i64 %6, ptr %_M_string_length.i23.i, align 8, !tbaa !18
  store ptr %3, ptr %0, align 8, !tbaa !11
  store i64 0, ptr %_M_string_length.i22.i, align 8, !tbaa !18
  store i8 0, ptr %3, align 8, !tbaa !20
  %args = getelementptr inbounds %"struct.benchmark::BenchmarkName", ptr %this, i64 0, i32 1
  %args3 = getelementptr inbounds %"struct.benchmark::BenchmarkName", ptr %0, i64 0, i32 1
  %7 = getelementptr inbounds %"struct.benchmark::BenchmarkName", ptr %this, i64 0, i32 1, i32 2
  store ptr %7, ptr %args, align 8, !tbaa !17
  %8 = load ptr, ptr %args3, align 8, !tbaa !11
  %9 = getelementptr inbounds %"struct.benchmark::BenchmarkName", ptr %0, i64 0, i32 1, i32 2
  %cmp.i.i15 = icmp eq ptr %8, %9
  br i1 %cmp.i.i15, label %if.then.i19, label %if.else.i21

if.then.i19:                                      ; preds = %_ZNSt7__cxx1112basic_stringIcSt11char_traitsIcESaIcEEC2EOS4_.exit
  %_M_string_length.i.i16 = getelementptr inbounds %"struct.benchmark::BenchmarkName", ptr %0, i64 0, i32 1, i32 1
  %10 = load i64, ptr %_M_string_length.i.i16, align 8, !tbaa !18
  %add.i17 = add i64 %10, 1
  %cmp.i21.i18 = icmp eq i64 %add.i17, 0
  br i1 %cmp.i21.i18, label %_ZNSt7__cxx1112basic_stringIcSt11char_traitsIcESaIcEEC2EOS4_.exit24, label %if.end.i.i20

if.end.i.i20:                                     ; preds = %if.then.i19
  tail call void @llvm.memcpy.p0.p0.i64(ptr nonnull align 8 %7, ptr nonnull align 8 %8, i64 %add.i17, i1 false)
  br label %_ZNSt7__cxx1112basic_stringIcSt11char_traitsIcESaIcEEC2EOS4_.exit24

if.else.i21:                                      ; preds = %_ZNSt7__cxx1112basic_stringIcSt11char_traitsIcESaIcEEC2EOS4_.exit
  store ptr %8, ptr %args, align 8, !tbaa !11
  %11 = load i64, ptr %9, align 8, !tbaa !20
  store i64 %11, ptr %7, align 8, !tbaa !20
  br label %_ZNSt7__cxx1112basic_stringIcSt11char_traitsIcESaIcEEC2EOS4_.exit24

_ZNSt7__cxx1112basic_stringIcSt11char_traitsIcESaIcEEC2EOS4_.exit24: ; preds = %if.then.i19, %if.end.i.i20, %if.else.i21
  %_M_string_length.i22.i22 = getelementptr inbounds %"struct.benchmark::BenchmarkName", ptr %0, i64 0, i32 1, i32 1
  %12 = load i64, ptr %_M_string_length.i22.i22, align 8, !tbaa !18
  %_M_string_length.i23.i23 = getelementptr inbounds %"struct.benchmark::BenchmarkName", ptr %this, i64 0, i32 1, i32 1
  store i64 %12, ptr %_M_string_length.i23.i23, align 8, !tbaa !18
  store ptr %9, ptr %args3, align 8, !tbaa !11
  store i64 0, ptr %_M_string_length.i22.i22, align 8, !tbaa !18
  store i8 0, ptr %9, align 8, !tbaa !20
  %min_time = getelementptr inbounds %"struct.benchmark::BenchmarkName", ptr %this, i64 0, i32 2
  %min_time4 = getelementptr inbounds %"struct.benchmark::BenchmarkName", ptr %0, i64 0, i32 2
  %13 = getelementptr inbounds %"struct.benchmark::BenchmarkName", ptr %this, i64 0, i32 2, i32 2
  store ptr %13, ptr %min_time, align 8, !tbaa !17
  %14 = load ptr, ptr %min_time4, align 8, !tbaa !11
  %15 = getelementptr inbounds %"struct.benchmark::BenchmarkName", ptr %0, i64 0, i32 2, i32 2
  %cmp.i.i25 = icmp eq ptr %14, %15
  br i1 %cmp.i.i25, label %if.then.i29, label %if.else.i31

if.then.i29:                                      ; preds = %_ZNSt7__cxx1112basic_stringIcSt11char_traitsIcESaIcEEC2EOS4_.exit24
  %_M_string_length.i.i26 = getelementptr inbounds %"struct.benchmark::BenchmarkName", ptr %0, i64 0, i32 2, i32 1
  %16 = load i64, ptr %_M_string_length.i.i26, align 8, !tbaa !18
  %add.i27 = add i64 %16, 1
  %cmp.i21.i28 = icmp eq i64 %add.i27, 0
  br i1 %cmp.i21.i28, label %_ZNSt7__cxx1112basic_stringIcSt11char_traitsIcESaIcEEC2EOS4_.exit34, label %if.end.i.i30

if.end.i.i30:                                     ; preds = %if.then.i29
  tail call void @llvm.memcpy.p0.p0.i64(ptr nonnull align 8 %13, ptr nonnull align 8 %14, i64 %add.i27, i1 false)
  br label %_ZNSt7__cxx1112basic_stringIcSt11char_traitsIcESaIcEEC2EOS4_.exit34

if.else.i31:                                      ; preds = %_ZNSt7__cxx1112basic_stringIcSt11char_traitsIcESaIcEEC2EOS4_.exit24
  store ptr %14, ptr %min_time, align 8, !tbaa !11
  %17 = load i64, ptr %15, align 8, !tbaa !20
  store i64 %17, ptr %13, align 8, !tbaa !20
  br label %_ZNSt7__cxx1112basic_stringIcSt11char_traitsIcESaIcEEC2EOS4_.exit34

_ZNSt7__cxx1112basic_stringIcSt11char_traitsIcESaIcEEC2EOS4_.exit34: ; preds = %if.then.i29, %if.end.i.i30, %if.else.i31
  %_M_string_length.i22.i32 = getelementptr inbounds %"struct.benchmark::BenchmarkName", ptr %0, i64 0, i32 2, i32 1
  %18 = load i64, ptr %_M_string_length.i22.i32, align 8, !tbaa !18
  %_M_string_length.i23.i33 = getelementptr inbounds %"struct.benchmark::BenchmarkName", ptr %this, i64 0, i32 2, i32 1
  store i64 %18, ptr %_M_string_length.i23.i33, align 8, !tbaa !18
  store ptr %15, ptr %min_time4, align 8, !tbaa !11
  store i64 0, ptr %_M_string_length.i22.i32, align 8, !tbaa !18
  store i8 0, ptr %15, align 8, !tbaa !20
  %iterations = getelementptr inbounds %"struct.benchmark::BenchmarkName", ptr %this, i64 0, i32 3
  %iterations5 = getelementptr inbounds %"struct.benchmark::BenchmarkName", ptr %0, i64 0, i32 3
  %19 = getelementptr inbounds %"struct.benchmark::BenchmarkName", ptr %this, i64 0, i32 3, i32 2
  store ptr %19, ptr %iterations, align 8, !tbaa !17
  %20 = load ptr, ptr %iterations5, align 8, !tbaa !11
  %21 = getelementptr inbounds %"struct.benchmark::BenchmarkName", ptr %0, i64 0, i32 3, i32 2
  %cmp.i.i35 = icmp eq ptr %20, %21
  br i1 %cmp.i.i35, label %if.then.i39, label %if.else.i41

if.then.i39:                                      ; preds = %_ZNSt7__cxx1112basic_stringIcSt11char_traitsIcESaIcEEC2EOS4_.exit34
  %_M_string_length.i.i36 = getelementptr inbounds %"struct.benchmark::BenchmarkName", ptr %0, i64 0, i32 3, i32 1
  %22 = load i64, ptr %_M_string_length.i.i36, align 8, !tbaa !18
  %add.i37 = add i64 %22, 1
  %cmp.i21.i38 = icmp eq i64 %add.i37, 0
  br i1 %cmp.i21.i38, label %_ZNSt7__cxx1112basic_stringIcSt11char_traitsIcESaIcEEC2EOS4_.exit44, label %if.end.i.i40

if.end.i.i40:                                     ; preds = %if.then.i39
  tail call void @llvm.memcpy.p0.p0.i64(ptr nonnull align 8 %19, ptr nonnull align 8 %20, i64 %add.i37, i1 false)
  br label %_ZNSt7__cxx1112basic_stringIcSt11char_traitsIcESaIcEEC2EOS4_.exit44

if.else.i41:                                      ; preds = %_ZNSt7__cxx1112basic_stringIcSt11char_traitsIcESaIcEEC2EOS4_.exit34
  store ptr %20, ptr %iterations, align 8, !tbaa !11
  %23 = load i64, ptr %21, align 8, !tbaa !20
  store i64 %23, ptr %19, align 8, !tbaa !20
  br label %_ZNSt7__cxx1112basic_stringIcSt11char_traitsIcESaIcEEC2EOS4_.exit44

_ZNSt7__cxx1112basic_stringIcSt11char_traitsIcESaIcEEC2EOS4_.exit44: ; preds = %if.then.i39, %if.end.i.i40, %if.else.i41
  %_M_string_length.i22.i42 = getelementptr inbounds %"struct.benchmark::BenchmarkName", ptr %0, i64 0, i32 3, i32 1
  %24 = load i64, ptr %_M_string_length.i22.i42, align 8, !tbaa !18
  %_M_string_length.i23.i43 = getelementptr inbounds %"struct.benchmark::BenchmarkName", ptr %this, i64 0, i32 3, i32 1
  store i64 %24, ptr %_M_string_length.i23.i43, align 8, !tbaa !18
  store ptr %21, ptr %iterations5, align 8, !tbaa !11
  store i64 0, ptr %_M_string_length.i22.i42, align 8, !tbaa !18
  store i8 0, ptr %21, align 8, !tbaa !20
  %repetitions = getelementptr inbounds %"struct.benchmark::BenchmarkName", ptr %this, i64 0, i32 4
  %repetitions6 = getelementptr inbounds %"struct.benchmark::BenchmarkName", ptr %0, i64 0, i32 4
  %25 = getelementptr inbounds %"struct.benchmark::BenchmarkName", ptr %this, i64 0, i32 4, i32 2
  store ptr %25, ptr %repetitions, align 8, !tbaa !17
  %26 = load ptr, ptr %repetitions6, align 8, !tbaa !11
  %27 = getelementptr inbounds %"struct.benchmark::BenchmarkName", ptr %0, i64 0, i32 4, i32 2
  %cmp.i.i45 = icmp eq ptr %26, %27
  br i1 %cmp.i.i45, label %if.then.i49, label %if.else.i51

if.then.i49:                                      ; preds = %_ZNSt7__cxx1112basic_stringIcSt11char_traitsIcESaIcEEC2EOS4_.exit44
  %_M_string_length.i.i46 = getelementptr inbounds %"struct.benchmark::BenchmarkName", ptr %0, i64 0, i32 4, i32 1
  %28 = load i64, ptr %_M_string_length.i.i46, align 8, !tbaa !18
  %add.i47 = add i64 %28, 1
  %cmp.i21.i48 = icmp eq i64 %add.i47, 0
  br i1 %cmp.i21.i48, label %_ZNSt7__cxx1112basic_stringIcSt11char_traitsIcESaIcEEC2EOS4_.exit54, label %if.end.i.i50

if.end.i.i50:                                     ; preds = %if.then.i49
  tail call void @llvm.memcpy.p0.p0.i64(ptr nonnull align 8 %25, ptr nonnull align 8 %26, i64 %add.i47, i1 false)
  br label %_ZNSt7__cxx1112basic_stringIcSt11char_traitsIcESaIcEEC2EOS4_.exit54

if.else.i51:                                      ; preds = %_ZNSt7__cxx1112basic_stringIcSt11char_traitsIcESaIcEEC2EOS4_.exit44
  store ptr %26, ptr %repetitions, align 8, !tbaa !11
  %29 = load i64, ptr %27, align 8, !tbaa !20
  store i64 %29, ptr %25, align 8, !tbaa !20
  br label %_ZNSt7__cxx1112basic_stringIcSt11char_traitsIcESaIcEEC2EOS4_.exit54

_ZNSt7__cxx1112basic_stringIcSt11char_traitsIcESaIcEEC2EOS4_.exit54: ; preds = %if.then.i49, %if.end.i.i50, %if.else.i51
  %_M_string_length.i22.i52 = getelementptr inbounds %"struct.benchmark::BenchmarkName", ptr %0, i64 0, i32 4, i32 1
  %30 = load i64, ptr %_M_string_length.i22.i52, align 8, !tbaa !18
  %_M_string_length.i23.i53 = getelementptr inbounds %"struct.benchmark::BenchmarkName", ptr %this, i64 0, i32 4, i32 1
  store i64 %30, ptr %_M_string_length.i23.i53, align 8, !tbaa !18
  store ptr %27, ptr %repetitions6, align 8, !tbaa !11
  store i64 0, ptr %_M_string_length.i22.i52, align 8, !tbaa !18
  store i8 0, ptr %27, align 8, !tbaa !20
  %time_type = getelementptr inbounds %"struct.benchmark::BenchmarkName", ptr %this, i64 0, i32 5
  %time_type7 = getelementptr inbounds %"struct.benchmark::BenchmarkName", ptr %0, i64 0, i32 5
  %31 = getelementptr inbounds %"struct.benchmark::BenchmarkName", ptr %this, i64 0, i32 5, i32 2
  store ptr %31, ptr %time_type, align 8, !tbaa !17
  %32 = load ptr, ptr %time_type7, align 8, !tbaa !11
  %33 = getelementptr inbounds %"struct.benchmark::BenchmarkName", ptr %0, i64 0, i32 5, i32 2
  %cmp.i.i55 = icmp eq ptr %32, %33
  br i1 %cmp.i.i55, label %if.then.i59, label %if.else.i61

if.then.i59:                                      ; preds = %_ZNSt7__cxx1112basic_stringIcSt11char_traitsIcESaIcEEC2EOS4_.exit54
  %_M_string_length.i.i56 = getelementptr inbounds %"struct.benchmark::BenchmarkName", ptr %0, i64 0, i32 5, i32 1
  %34 = load i64, ptr %_M_string_length.i.i56, align 8, !tbaa !18
  %add.i57 = add i64 %34, 1
  %cmp.i21.i58 = icmp eq i64 %add.i57, 0
  br i1 %cmp.i21.i58, label %_ZNSt7__cxx1112basic_stringIcSt11char_traitsIcESaIcEEC2EOS4_.exit64, label %if.end.i.i60

if.end.i.i60:                                     ; preds = %if.then.i59
  tail call void @llvm.memcpy.p0.p0.i64(ptr nonnull align 8 %31, ptr nonnull align 8 %32, i64 %add.i57, i1 false)
  br label %_ZNSt7__cxx1112basic_stringIcSt11char_traitsIcESaIcEEC2EOS4_.exit64

if.else.i61:                                      ; preds = %_ZNSt7__cxx1112basic_stringIcSt11char_traitsIcESaIcEEC2EOS4_.exit54
  store ptr %32, ptr %time_type, align 8, !tbaa !11
  %35 = load i64, ptr %33, align 8, !tbaa !20
  store i64 %35, ptr %31, align 8, !tbaa !20
  br label %_ZNSt7__cxx1112basic_stringIcSt11char_traitsIcESaIcEEC2EOS4_.exit64

_ZNSt7__cxx1112basic_stringIcSt11char_traitsIcESaIcEEC2EOS4_.exit64: ; preds = %if.then.i59, %if.end.i.i60, %if.else.i61
  %_M_string_length.i22.i62 = getelementptr inbounds %"struct.benchmark::BenchmarkName", ptr %0, i64 0, i32 5, i32 1
  %36 = load i64, ptr %_M_string_length.i22.i62, align 8, !tbaa !18
  %_M_string_length.i23.i63 = getelementptr inbounds %"struct.benchmark::BenchmarkName", ptr %this, i64 0, i32 5, i32 1
  store i64 %36, ptr %_M_string_length.i23.i63, align 8, !tbaa !18
  store ptr %33, ptr %time_type7, align 8, !tbaa !11
  store i64 0, ptr %_M_string_length.i22.i62, align 8, !tbaa !18
  store i8 0, ptr %33, align 8, !tbaa !20
  %threads = getelementptr inbounds %"struct.benchmark::BenchmarkName", ptr %this, i64 0, i32 6
  %threads8 = getelementptr inbounds %"struct.benchmark::BenchmarkName", ptr %0, i64 0, i32 6
  %37 = getelementptr inbounds %"struct.benchmark::BenchmarkName", ptr %this, i64 0, i32 6, i32 2
  store ptr %37, ptr %threads, align 8, !tbaa !17
  %38 = load ptr, ptr %threads8, align 8, !tbaa !11
  %39 = getelementptr inbounds %"struct.benchmark::BenchmarkName", ptr %0, i64 0, i32 6, i32 2
  %cmp.i.i65 = icmp eq ptr %38, %39
  br i1 %cmp.i.i65, label %if.then.i69, label %if.else.i71

if.then.i69:                                      ; preds = %_ZNSt7__cxx1112basic_stringIcSt11char_traitsIcESaIcEEC2EOS4_.exit64
  %_M_string_length.i.i66 = getelementptr inbounds %"struct.benchmark::BenchmarkName", ptr %0, i64 0, i32 6, i32 1
  %40 = load i64, ptr %_M_string_length.i.i66, align 8, !tbaa !18
  %add.i67 = add i64 %40, 1
  %cmp.i21.i68 = icmp eq i64 %add.i67, 0
  br i1 %cmp.i21.i68, label %_ZNSt7__cxx1112basic_stringIcSt11char_traitsIcESaIcEEC2EOS4_.exit74, label %if.end.i.i70

if.end.i.i70:                                     ; preds = %if.then.i69
  tail call void @llvm.memcpy.p0.p0.i64(ptr nonnull align 8 %37, ptr nonnull align 8 %38, i64 %add.i67, i1 false)
  br label %_ZNSt7__cxx1112basic_stringIcSt11char_traitsIcESaIcEEC2EOS4_.exit74

if.else.i71:                                      ; preds = %_ZNSt7__cxx1112basic_stringIcSt11char_traitsIcESaIcEEC2EOS4_.exit64
  store ptr %38, ptr %threads, align 8, !tbaa !11
  %41 = load i64, ptr %39, align 8, !tbaa !20
  store i64 %41, ptr %37, align 8, !tbaa !20
  br label %_ZNSt7__cxx1112basic_stringIcSt11char_traitsIcESaIcEEC2EOS4_.exit74

_ZNSt7__cxx1112basic_stringIcSt11char_traitsIcESaIcEEC2EOS4_.exit74: ; preds = %if.then.i69, %if.end.i.i70, %if.else.i71
  %_M_string_length.i22.i72 = getelementptr inbounds %"struct.benchmark::BenchmarkName", ptr %0, i64 0, i32 6, i32 1
  %42 = load i64, ptr %_M_string_length.i22.i72, align 8, !tbaa !18
  %_M_string_length.i23.i73 = getelementptr inbounds %"struct.benchmark::BenchmarkName", ptr %this, i64 0, i32 6, i32 1
  store i64 %42, ptr %_M_string_length.i23.i73, align 8, !tbaa !18
  store ptr %39, ptr %threads8, align 8, !tbaa !11
  store i64 0, ptr %_M_string_length.i22.i72, align 8, !tbaa !18
  store i8 0, ptr %39, align 8, !tbaa !20
  ret void
}

; Function Attrs: inlinehint nounwind uwtable
define linkonce_odr hidden void @_ZN9benchmark17BenchmarkReporter3RunD2Ev(ptr noundef nonnull align 8 dereferenceable(528) %this) unnamed_addr #9 comdat align 2 personality ptr @__gxx_personality_v0 {
entry:
  %counters = getelementptr inbounds %"struct.benchmark::BenchmarkReporter::Run", ptr %this, i64 0, i32 23
  %_M_parent.i.i.i.i = getelementptr inbounds %"struct.benchmark::BenchmarkReporter::Run", ptr %this, i64 0, i32 23, i32 0, i32 0, i32 1, i32 0, i32 1
  %0 = load ptr, ptr %_M_parent.i.i.i.i, align 8, !tbaa !69
  invoke void @_ZNSt8_Rb_treeINSt7__cxx1112basic_stringIcSt11char_traitsIcESaIcEEESt4pairIKS5_N9benchmark7CounterEESt10_Select1stISA_ESt4lessIS5_ESaISA_EE8_M_eraseEPSt13_Rb_tree_nodeISA_E(ptr noundef nonnull align 8 dereferenceable(48) %counters, ptr noundef %0)
          to label %_ZNSt3mapINSt7__cxx1112basic_stringIcSt11char_traitsIcESaIcEEEN9benchmark7CounterESt4lessIS5_ESaISt4pairIKS5_S7_EEED2Ev.exit unwind label %terminate.lpad.i.i

terminate.lpad.i.i:                               ; preds = %entry
  %1 = landingpad { ptr, i32 }
          catch ptr null
  %2 = extractvalue { ptr, i32 } %1, 0
  tail call void @__clang_call_terminate(ptr %2) #28
  unreachable

_ZNSt3mapINSt7__cxx1112basic_stringIcSt11char_traitsIcESaIcEEEN9benchmark7CounterESt4lessIS5_ESaISt4pairIKS5_S7_EEED2Ev.exit: ; preds = %entry
  %error_message = getelementptr inbounds %"struct.benchmark::BenchmarkReporter::Run", ptr %this, i64 0, i32 8
  %3 = load ptr, ptr %error_message, align 8, !tbaa !11
  %4 = getelementptr inbounds %"struct.benchmark::BenchmarkReporter::Run", ptr %this, i64 0, i32 8, i32 2
  %cmp.i.i.i = icmp eq ptr %3, %4
  br i1 %cmp.i.i.i, label %_ZNSt7__cxx1112basic_stringIcSt11char_traitsIcESaIcEED2Ev.exit, label %if.then.i.i

if.then.i.i:                                      ; preds = %_ZNSt3mapINSt7__cxx1112basic_stringIcSt11char_traitsIcESaIcEEEN9benchmark7CounterESt4lessIS5_ESaISt4pairIKS5_S7_EEED2Ev.exit
  tail call void @_ZdlPv(ptr noundef %3) #24
  br label %_ZNSt7__cxx1112basic_stringIcSt11char_traitsIcESaIcEED2Ev.exit

_ZNSt7__cxx1112basic_stringIcSt11char_traitsIcESaIcEED2Ev.exit: ; preds = %_ZNSt3mapINSt7__cxx1112basic_stringIcSt11char_traitsIcESaIcEEEN9benchmark7CounterESt4lessIS5_ESaISt4pairIKS5_S7_EEED2Ev.exit, %if.then.i.i
  %report_label = getelementptr inbounds %"struct.benchmark::BenchmarkReporter::Run", ptr %this, i64 0, i32 6
  %5 = load ptr, ptr %report_label, align 8, !tbaa !11
  %6 = getelementptr inbounds %"struct.benchmark::BenchmarkReporter::Run", ptr %this, i64 0, i32 6, i32 2
  %cmp.i.i.i2 = icmp eq ptr %5, %6
  br i1 %cmp.i.i.i2, label %_ZNSt7__cxx1112basic_stringIcSt11char_traitsIcESaIcEED2Ev.exit4, label %if.then.i.i3

if.then.i.i3:                                     ; preds = %_ZNSt7__cxx1112basic_stringIcSt11char_traitsIcESaIcEED2Ev.exit
  tail call void @_ZdlPv(ptr noundef %5) #24
  br label %_ZNSt7__cxx1112basic_stringIcSt11char_traitsIcESaIcEED2Ev.exit4

_ZNSt7__cxx1112basic_stringIcSt11char_traitsIcESaIcEED2Ev.exit4: ; preds = %_ZNSt7__cxx1112basic_stringIcSt11char_traitsIcESaIcEED2Ev.exit, %if.then.i.i3
  %aggregate_name = getelementptr inbounds %"struct.benchmark::BenchmarkReporter::Run", ptr %this, i64 0, i32 4
  %7 = load ptr, ptr %aggregate_name, align 8, !tbaa !11
  %8 = getelementptr inbounds %"struct.benchmark::BenchmarkReporter::Run", ptr %this, i64 0, i32 4, i32 2
  %cmp.i.i.i5 = icmp eq ptr %7, %8
  br i1 %cmp.i.i.i5, label %_ZNSt7__cxx1112basic_stringIcSt11char_traitsIcESaIcEED2Ev.exit7, label %if.then.i.i6

if.then.i.i6:                                     ; preds = %_ZNSt7__cxx1112basic_stringIcSt11char_traitsIcESaIcEED2Ev.exit4
  tail call void @_ZdlPv(ptr noundef %7) #24
  br label %_ZNSt7__cxx1112basic_stringIcSt11char_traitsIcESaIcEED2Ev.exit7

_ZNSt7__cxx1112basic_stringIcSt11char_traitsIcESaIcEED2Ev.exit7: ; preds = %_ZNSt7__cxx1112basic_stringIcSt11char_traitsIcESaIcEED2Ev.exit4, %if.then.i.i6
  %threads.i = getelementptr inbounds %"struct.benchmark::BenchmarkName", ptr %this, i64 0, i32 6
  %9 = load ptr, ptr %threads.i, align 8, !tbaa !11
  %10 = getelementptr inbounds %"struct.benchmark::BenchmarkName", ptr %this, i64 0, i32 6, i32 2
  %cmp.i.i.i.i = icmp eq ptr %9, %10
  br i1 %cmp.i.i.i.i, label %_ZNSt7__cxx1112basic_stringIcSt11char_traitsIcESaIcEED2Ev.exit.i, label %if.then.i.i.i

if.then.i.i.i:                                    ; preds = %_ZNSt7__cxx1112basic_stringIcSt11char_traitsIcESaIcEED2Ev.exit7
  tail call void @_ZdlPv(ptr noundef %9) #24
  br label %_ZNSt7__cxx1112basic_stringIcSt11char_traitsIcESaIcEED2Ev.exit.i

_ZNSt7__cxx1112basic_stringIcSt11char_traitsIcESaIcEED2Ev.exit.i: ; preds = %if.then.i.i.i, %_ZNSt7__cxx1112basic_stringIcSt11char_traitsIcESaIcEED2Ev.exit7
  %time_type.i = getelementptr inbounds %"struct.benchmark::BenchmarkName", ptr %this, i64 0, i32 5
  %11 = load ptr, ptr %time_type.i, align 8, !tbaa !11
  %12 = getelementptr inbounds %"struct.benchmark::BenchmarkName", ptr %this, i64 0, i32 5, i32 2
  %cmp.i.i.i2.i = icmp eq ptr %11, %12
  br i1 %cmp.i.i.i2.i, label %_ZNSt7__cxx1112basic_stringIcSt11char_traitsIcESaIcEED2Ev.exit4.i, label %if.then.i.i3.i

if.then.i.i3.i:                                   ; preds = %_ZNSt7__cxx1112basic_stringIcSt11char_traitsIcESaIcEED2Ev.exit.i
  tail call void @_ZdlPv(ptr noundef %11) #24
  br label %_ZNSt7__cxx1112basic_stringIcSt11char_traitsIcESaIcEED2Ev.exit4.i

_ZNSt7__cxx1112basic_stringIcSt11char_traitsIcESaIcEED2Ev.exit4.i: ; preds = %if.then.i.i3.i, %_ZNSt7__cxx1112basic_stringIcSt11char_traitsIcESaIcEED2Ev.exit.i
  %repetitions.i = getelementptr inbounds %"struct.benchmark::BenchmarkName", ptr %this, i64 0, i32 4
  %13 = load ptr, ptr %repetitions.i, align 8, !tbaa !11
  %14 = getelementptr inbounds %"struct.benchmark::BenchmarkName", ptr %this, i64 0, i32 4, i32 2
  %cmp.i.i.i5.i = icmp eq ptr %13, %14
  br i1 %cmp.i.i.i5.i, label %_ZNSt7__cxx1112basic_stringIcSt11char_traitsIcESaIcEED2Ev.exit7.i, label %if.then.i.i6.i

if.then.i.i6.i:                                   ; preds = %_ZNSt7__cxx1112basic_stringIcSt11char_traitsIcESaIcEED2Ev.exit4.i
  tail call void @_ZdlPv(ptr noundef %13) #24
  br label %_ZNSt7__cxx1112basic_stringIcSt11char_traitsIcESaIcEED2Ev.exit7.i

_ZNSt7__cxx1112basic_stringIcSt11char_traitsIcESaIcEED2Ev.exit7.i: ; preds = %if.then.i.i6.i, %_ZNSt7__cxx1112basic_stringIcSt11char_traitsIcESaIcEED2Ev.exit4.i
  %iterations.i = getelementptr inbounds %"struct.benchmark::BenchmarkName", ptr %this, i64 0, i32 3
  %15 = load ptr, ptr %iterations.i, align 8, !tbaa !11
  %16 = getelementptr inbounds %"struct.benchmark::BenchmarkName", ptr %this, i64 0, i32 3, i32 2
  %cmp.i.i.i8.i = icmp eq ptr %15, %16
  br i1 %cmp.i.i.i8.i, label %_ZNSt7__cxx1112basic_stringIcSt11char_traitsIcESaIcEED2Ev.exit10.i, label %if.then.i.i9.i

if.then.i.i9.i:                                   ; preds = %_ZNSt7__cxx1112basic_stringIcSt11char_traitsIcESaIcEED2Ev.exit7.i
  tail call void @_ZdlPv(ptr noundef %15) #24
  br label %_ZNSt7__cxx1112basic_stringIcSt11char_traitsIcESaIcEED2Ev.exit10.i

_ZNSt7__cxx1112basic_stringIcSt11char_traitsIcESaIcEED2Ev.exit10.i: ; preds = %if.then.i.i9.i, %_ZNSt7__cxx1112basic_stringIcSt11char_traitsIcESaIcEED2Ev.exit7.i
  %min_time.i = getelementptr inbounds %"struct.benchmark::BenchmarkName", ptr %this, i64 0, i32 2
  %17 = load ptr, ptr %min_time.i, align 8, !tbaa !11
  %18 = getelementptr inbounds %"struct.benchmark::BenchmarkName", ptr %this, i64 0, i32 2, i32 2
  %cmp.i.i.i11.i = icmp eq ptr %17, %18
  br i1 %cmp.i.i.i11.i, label %_ZNSt7__cxx1112basic_stringIcSt11char_traitsIcESaIcEED2Ev.exit13.i, label %if.then.i.i12.i

if.then.i.i12.i:                                  ; preds = %_ZNSt7__cxx1112basic_stringIcSt11char_traitsIcESaIcEED2Ev.exit10.i
  tail call void @_ZdlPv(ptr noundef %17) #24
  br label %_ZNSt7__cxx1112basic_stringIcSt11char_traitsIcESaIcEED2Ev.exit13.i

_ZNSt7__cxx1112basic_stringIcSt11char_traitsIcESaIcEED2Ev.exit13.i: ; preds = %if.then.i.i12.i, %_ZNSt7__cxx1112basic_stringIcSt11char_traitsIcESaIcEED2Ev.exit10.i
  %args.i = getelementptr inbounds %"struct.benchmark::BenchmarkName", ptr %this, i64 0, i32 1
  %19 = load ptr, ptr %args.i, align 8, !tbaa !11
  %20 = getelementptr inbounds %"struct.benchmark::BenchmarkName", ptr %this, i64 0, i32 1, i32 2
  %cmp.i.i.i14.i = icmp eq ptr %19, %20
  br i1 %cmp.i.i.i14.i, label %_ZNSt7__cxx1112basic_stringIcSt11char_traitsIcESaIcEED2Ev.exit16.i, label %if.then.i.i15.i

if.then.i.i15.i:                                  ; preds = %_ZNSt7__cxx1112basic_stringIcSt11char_traitsIcESaIcEED2Ev.exit13.i
  tail call void @_ZdlPv(ptr noundef %19) #24
  br label %_ZNSt7__cxx1112basic_stringIcSt11char_traitsIcESaIcEED2Ev.exit16.i

_ZNSt7__cxx1112basic_stringIcSt11char_traitsIcESaIcEED2Ev.exit16.i: ; preds = %if.then.i.i15.i, %_ZNSt7__cxx1112basic_stringIcSt11char_traitsIcESaIcEED2Ev.exit13.i
  %21 = load ptr, ptr %this, align 8, !tbaa !11
  %22 = getelementptr inbounds %"class.std::__cxx11::basic_string", ptr %this, i64 0, i32 2
  %cmp.i.i.i17.i = icmp eq ptr %21, %22
  br i1 %cmp.i.i.i17.i, label %_ZN9benchmark13BenchmarkNameD2Ev.exit, label %if.then.i.i18.i

if.then.i.i18.i:                                  ; preds = %_ZNSt7__cxx1112basic_stringIcSt11char_traitsIcESaIcEED2Ev.exit16.i
  tail call void @_ZdlPv(ptr noundef %21) #24
  br label %_ZN9benchmark13BenchmarkNameD2Ev.exit

_ZN9benchmark13BenchmarkNameD2Ev.exit:            ; preds = %_ZNSt7__cxx1112basic_stringIcSt11char_traitsIcESaIcEED2Ev.exit16.i, %if.then.i.i18.i
  ret void
}

; Function Attrs: inlinehint nounwind uwtable
define linkonce_odr hidden void @_ZN9benchmark13BenchmarkNameD2Ev(ptr noundef nonnull align 8 dereferenceable(224) %this) unnamed_addr #9 comdat align 2 personality ptr @__gxx_personality_v0 {
entry:
  %threads = getelementptr inbounds %"struct.benchmark::BenchmarkName", ptr %this, i64 0, i32 6
  %0 = load ptr, ptr %threads, align 8, !tbaa !11
  %1 = getelementptr inbounds %"struct.benchmark::BenchmarkName", ptr %this, i64 0, i32 6, i32 2
  %cmp.i.i.i = icmp eq ptr %0, %1
  br i1 %cmp.i.i.i, label %_ZNSt7__cxx1112basic_stringIcSt11char_traitsIcESaIcEED2Ev.exit, label %if.then.i.i

if.then.i.i:                                      ; preds = %entry
  tail call void @_ZdlPv(ptr noundef %0) #24
  br label %_ZNSt7__cxx1112basic_stringIcSt11char_traitsIcESaIcEED2Ev.exit

_ZNSt7__cxx1112basic_stringIcSt11char_traitsIcESaIcEED2Ev.exit: ; preds = %entry, %if.then.i.i
  %time_type = getelementptr inbounds %"struct.benchmark::BenchmarkName", ptr %this, i64 0, i32 5
  %2 = load ptr, ptr %time_type, align 8, !tbaa !11
  %3 = getelementptr inbounds %"struct.benchmark::BenchmarkName", ptr %this, i64 0, i32 5, i32 2
  %cmp.i.i.i2 = icmp eq ptr %2, %3
  br i1 %cmp.i.i.i2, label %_ZNSt7__cxx1112basic_stringIcSt11char_traitsIcESaIcEED2Ev.exit4, label %if.then.i.i3

if.then.i.i3:                                     ; preds = %_ZNSt7__cxx1112basic_stringIcSt11char_traitsIcESaIcEED2Ev.exit
  tail call void @_ZdlPv(ptr noundef %2) #24
  br label %_ZNSt7__cxx1112basic_stringIcSt11char_traitsIcESaIcEED2Ev.exit4

_ZNSt7__cxx1112basic_stringIcSt11char_traitsIcESaIcEED2Ev.exit4: ; preds = %_ZNSt7__cxx1112basic_stringIcSt11char_traitsIcESaIcEED2Ev.exit, %if.then.i.i3
  %repetitions = getelementptr inbounds %"struct.benchmark::BenchmarkName", ptr %this, i64 0, i32 4
  %4 = load ptr, ptr %repetitions, align 8, !tbaa !11
  %5 = getelementptr inbounds %"struct.benchmark::BenchmarkName", ptr %this, i64 0, i32 4, i32 2
  %cmp.i.i.i5 = icmp eq ptr %4, %5
  br i1 %cmp.i.i.i5, label %_ZNSt7__cxx1112basic_stringIcSt11char_traitsIcESaIcEED2Ev.exit7, label %if.then.i.i6

if.then.i.i6:                                     ; preds = %_ZNSt7__cxx1112basic_stringIcSt11char_traitsIcESaIcEED2Ev.exit4
  tail call void @_ZdlPv(ptr noundef %4) #24
  br label %_ZNSt7__cxx1112basic_stringIcSt11char_traitsIcESaIcEED2Ev.exit7

_ZNSt7__cxx1112basic_stringIcSt11char_traitsIcESaIcEED2Ev.exit7: ; preds = %_ZNSt7__cxx1112basic_stringIcSt11char_traitsIcESaIcEED2Ev.exit4, %if.then.i.i6
  %iterations = getelementptr inbounds %"struct.benchmark::BenchmarkName", ptr %this, i64 0, i32 3
  %6 = load ptr, ptr %iterations, align 8, !tbaa !11
  %7 = getelementptr inbounds %"struct.benchmark::BenchmarkName", ptr %this, i64 0, i32 3, i32 2
  %cmp.i.i.i8 = icmp eq ptr %6, %7
  br i1 %cmp.i.i.i8, label %_ZNSt7__cxx1112basic_stringIcSt11char_traitsIcESaIcEED2Ev.exit10, label %if.then.i.i9

if.then.i.i9:                                     ; preds = %_ZNSt7__cxx1112basic_stringIcSt11char_traitsIcESaIcEED2Ev.exit7
  tail call void @_ZdlPv(ptr noundef %6) #24
  br label %_ZNSt7__cxx1112basic_stringIcSt11char_traitsIcESaIcEED2Ev.exit10

_ZNSt7__cxx1112basic_stringIcSt11char_traitsIcESaIcEED2Ev.exit10: ; preds = %_ZNSt7__cxx1112basic_stringIcSt11char_traitsIcESaIcEED2Ev.exit7, %if.then.i.i9
  %min_time = getelementptr inbounds %"struct.benchmark::BenchmarkName", ptr %this, i64 0, i32 2
  %8 = load ptr, ptr %min_time, align 8, !tbaa !11
  %9 = getelementptr inbounds %"struct.benchmark::BenchmarkName", ptr %this, i64 0, i32 2, i32 2
  %cmp.i.i.i11 = icmp eq ptr %8, %9
  br i1 %cmp.i.i.i11, label %_ZNSt7__cxx1112basic_stringIcSt11char_traitsIcESaIcEED2Ev.exit13, label %if.then.i.i12

if.then.i.i12:                                    ; preds = %_ZNSt7__cxx1112basic_stringIcSt11char_traitsIcESaIcEED2Ev.exit10
  tail call void @_ZdlPv(ptr noundef %8) #24
  br label %_ZNSt7__cxx1112basic_stringIcSt11char_traitsIcESaIcEED2Ev.exit13

_ZNSt7__cxx1112basic_stringIcSt11char_traitsIcESaIcEED2Ev.exit13: ; preds = %_ZNSt7__cxx1112basic_stringIcSt11char_traitsIcESaIcEED2Ev.exit10, %if.then.i.i12
  %args = getelementptr inbounds %"struct.benchmark::BenchmarkName", ptr %this, i64 0, i32 1
  %10 = load ptr, ptr %args, align 8, !tbaa !11
  %11 = getelementptr inbounds %"struct.benchmark::BenchmarkName", ptr %this, i64 0, i32 1, i32 2
  %cmp.i.i.i14 = icmp eq ptr %10, %11
  br i1 %cmp.i.i.i14, label %_ZNSt7__cxx1112basic_stringIcSt11char_traitsIcESaIcEED2Ev.exit16, label %if.then.i.i15

if.then.i.i15:                                    ; preds = %_ZNSt7__cxx1112basic_stringIcSt11char_traitsIcESaIcEED2Ev.exit13
  tail call void @_ZdlPv(ptr noundef %10) #24
  br label %_ZNSt7__cxx1112basic_stringIcSt11char_traitsIcESaIcEED2Ev.exit16

_ZNSt7__cxx1112basic_stringIcSt11char_traitsIcESaIcEED2Ev.exit16: ; preds = %_ZNSt7__cxx1112basic_stringIcSt11char_traitsIcESaIcEED2Ev.exit13, %if.then.i.i15
  %12 = load ptr, ptr %this, align 8, !tbaa !11
  %13 = getelementptr inbounds %"class.std::__cxx11::basic_string", ptr %this, i64 0, i32 2
  %cmp.i.i.i17 = icmp eq ptr %12, %13
  br i1 %cmp.i.i.i17, label %_ZNSt7__cxx1112basic_stringIcSt11char_traitsIcESaIcEED2Ev.exit19, label %if.then.i.i18

if.then.i.i18:                                    ; preds = %_ZNSt7__cxx1112basic_stringIcSt11char_traitsIcESaIcEED2Ev.exit16
  tail call void @_ZdlPv(ptr noundef %12) #24
  br label %_ZNSt7__cxx1112basic_stringIcSt11char_traitsIcESaIcEED2Ev.exit19

_ZNSt7__cxx1112basic_stringIcSt11char_traitsIcESaIcEED2Ev.exit19: ; preds = %_ZNSt7__cxx1112basic_stringIcSt11char_traitsIcESaIcEED2Ev.exit16, %if.then.i.i18
  ret void
}

; Function Attrs: uwtable
define linkonce_odr hidden void @_ZNSt8_Rb_treeINSt7__cxx1112basic_stringIcSt11char_traitsIcESaIcEEESt4pairIKS5_N9benchmark7CounterEESt10_Select1stISA_ESt4lessIS5_ESaISA_EE8_M_eraseEPSt13_Rb_tree_nodeISA_E(ptr noundef nonnull align 8 dereferenceable(48) %this, ptr noundef %__x) local_unnamed_addr #7 comdat align 2 personality ptr @__gxx_personality_v0 {
entry:
  %cmp.not6 = icmp eq ptr %__x, null
  br i1 %cmp.not6, label %while.end, label %while.body

while.body:                                       ; preds = %entry, %_ZNSt8_Rb_treeINSt7__cxx1112basic_stringIcSt11char_traitsIcESaIcEEESt4pairIKS5_N9benchmark7CounterEESt10_Select1stISA_ESt4lessIS5_ESaISA_EE12_M_drop_nodeEPSt13_Rb_tree_nodeISA_E.exit
  %__x.addr.07 = phi ptr [ %1, %_ZNSt8_Rb_treeINSt7__cxx1112basic_stringIcSt11char_traitsIcESaIcEEESt4pairIKS5_N9benchmark7CounterEESt10_Select1stISA_ESt4lessIS5_ESaISA_EE12_M_drop_nodeEPSt13_Rb_tree_nodeISA_E.exit ], [ %__x, %entry ]
  %_M_right.i = getelementptr inbounds %"struct.std::_Rb_tree_node_base", ptr %__x.addr.07, i64 0, i32 3
  %0 = load ptr, ptr %_M_right.i, align 8, !tbaa !100
  tail call void @_ZNSt8_Rb_treeINSt7__cxx1112basic_stringIcSt11char_traitsIcESaIcEEESt4pairIKS5_N9benchmark7CounterEESt10_Select1stISA_ESt4lessIS5_ESaISA_EE8_M_eraseEPSt13_Rb_tree_nodeISA_E(ptr noundef nonnull align 8 dereferenceable(48) %this, ptr noundef %0)
  %_M_left.i = getelementptr inbounds %"struct.std::_Rb_tree_node_base", ptr %__x.addr.07, i64 0, i32 2
  %1 = load ptr, ptr %_M_left.i, align 8, !tbaa !101
  %_M_storage.i.i.i = getelementptr inbounds %"struct.std::_Rb_tree_node", ptr %__x.addr.07, i64 0, i32 1
  %2 = load ptr, ptr %_M_storage.i.i.i, align 8, !tbaa !11
  %3 = getelementptr inbounds %"struct.std::_Rb_tree_node", ptr %__x.addr.07, i64 0, i32 1, i32 0, i64 16
  %cmp.i.i.i.i.i.i.i.i = icmp eq ptr %2, %3
  br i1 %cmp.i.i.i.i.i.i.i.i, label %_ZNSt8_Rb_treeINSt7__cxx1112basic_stringIcSt11char_traitsIcESaIcEEESt4pairIKS5_N9benchmark7CounterEESt10_Select1stISA_ESt4lessIS5_ESaISA_EE12_M_drop_nodeEPSt13_Rb_tree_nodeISA_E.exit, label %if.then.i.i.i.i.i.i.i

if.then.i.i.i.i.i.i.i:                            ; preds = %while.body
  tail call void @_ZdlPv(ptr noundef %2) #24
  br label %_ZNSt8_Rb_treeINSt7__cxx1112basic_stringIcSt11char_traitsIcESaIcEEESt4pairIKS5_N9benchmark7CounterEESt10_Select1stISA_ESt4lessIS5_ESaISA_EE12_M_drop_nodeEPSt13_Rb_tree_nodeISA_E.exit

_ZNSt8_Rb_treeINSt7__cxx1112basic_stringIcSt11char_traitsIcESaIcEEESt4pairIKS5_N9benchmark7CounterEESt10_Select1stISA_ESt4lessIS5_ESaISA_EE12_M_drop_nodeEPSt13_Rb_tree_nodeISA_E.exit: ; preds = %while.body, %if.then.i.i.i.i.i.i.i
  tail call void @_ZdlPv(ptr noundef nonnull %__x.addr.07) #24
  %cmp.not = icmp eq ptr %1, null
  br i1 %cmp.not, label %while.end, label %while.body, !llvm.loop !102

while.end:                                        ; preds = %_ZNSt8_Rb_treeINSt7__cxx1112basic_stringIcSt11char_traitsIcESaIcEEESt4pairIKS5_N9benchmark7CounterEESt10_Select1stISA_ESt4lessIS5_ESaISA_EE12_M_drop_nodeEPSt13_Rb_tree_nodeISA_E.exit, %entry
  ret void
}

; Function Attrs: inlinehint nounwind uwtable
define linkonce_odr hidden noundef nonnull align 8 dereferenceable(528) ptr @_ZN9benchmark17BenchmarkReporter3RunaSEOS1_(ptr noundef nonnull align 8 dereferenceable(528) %this, ptr noundef nonnull align 8 dereferenceable(528) %0) local_unnamed_addr #9 comdat align 2 personality ptr @__gxx_personality_v0 {
entry:
  %call = tail call noundef nonnull align 8 dereferenceable(224) ptr @_ZN9benchmark13BenchmarkNameaSEOS0_(ptr noundef nonnull align 8 dereferenceable(224) %this, ptr noundef nonnull align 8 dereferenceable(224) %0) #25
  %family_index = getelementptr inbounds %"struct.benchmark::BenchmarkReporter::Run", ptr %this, i64 0, i32 1
  %family_index3 = getelementptr inbounds %"struct.benchmark::BenchmarkReporter::Run", ptr %0, i64 0, i32 1
  tail call void @llvm.memcpy.p0.p0.i64(ptr noundef nonnull align 8 dereferenceable(20) %family_index, ptr noundef nonnull align 8 dereferenceable(20) %family_index3, i64 20, i1 false)
  %aggregate_name = getelementptr inbounds %"struct.benchmark::BenchmarkReporter::Run", ptr %this, i64 0, i32 4
  %aggregate_name4 = getelementptr inbounds %"struct.benchmark::BenchmarkReporter::Run", ptr %0, i64 0, i32 4
  %1 = load ptr, ptr %aggregate_name4, align 8, !tbaa !11
  %2 = getelementptr inbounds %"struct.benchmark::BenchmarkReporter::Run", ptr %0, i64 0, i32 4, i32 2
  %cmp.i56.i = icmp eq ptr %1, %2
  br i1 %cmp.i56.i, label %if.then15.i, label %if.else.i

if.then15.i:                                      ; preds = %entry
  %cmp.not.i = icmp eq ptr %0, %this
  br i1 %cmp.not.i, label %_ZNSt7__cxx1112basic_stringIcSt11char_traitsIcESaIcEEaSEOS4_.exit, label %if.then16.i, !prof !49

if.then16.i:                                      ; preds = %if.then15.i
  %_M_string_length.i.i = getelementptr inbounds %"struct.benchmark::BenchmarkReporter::Run", ptr %0, i64 0, i32 4, i32 1
  %3 = load i64, ptr %_M_string_length.i.i, align 8, !tbaa !18
  %tobool18.not.i = icmp eq i64 %3, 0
  br i1 %tobool18.not.i, label %if.end24.i, label %if.then19.i

if.then19.i:                                      ; preds = %if.then16.i
  %4 = load ptr, ptr %aggregate_name, align 8, !tbaa !11
  %cond.i = icmp eq i64 %3, 1
  br i1 %cond.i, label %if.then.i.i, label %if.end.i.i.i

if.then.i.i:                                      ; preds = %if.then19.i
  %5 = load i8, ptr %1, align 1, !tbaa !20
  store i8 %5, ptr %4, align 1, !tbaa !20
  br label %if.end24.i

if.end.i.i.i:                                     ; preds = %if.then19.i
  tail call void @llvm.memcpy.p0.p0.i64(ptr align 1 %4, ptr align 1 %1, i64 %3, i1 false)
  br label %if.end24.i

if.end24.i:                                       ; preds = %if.end.i.i.i, %if.then.i.i, %if.then16.i
  %6 = load i64, ptr %_M_string_length.i.i, align 8, !tbaa !18
  %_M_string_length.i.i59.i = getelementptr inbounds %"struct.benchmark::BenchmarkReporter::Run", ptr %this, i64 0, i32 4, i32 1
  store i64 %6, ptr %_M_string_length.i.i59.i, align 8, !tbaa !18
  %7 = load ptr, ptr %aggregate_name, align 8, !tbaa !11
  %arrayidx.i.i = getelementptr inbounds i8, ptr %7, i64 %6
  store i8 0, ptr %arrayidx.i.i, align 1, !tbaa !20
  %.pre.i = load ptr, ptr %aggregate_name4, align 8, !tbaa !11
  br label %_ZNSt7__cxx1112basic_stringIcSt11char_traitsIcESaIcEEaSEOS4_.exit

if.else.i:                                        ; preds = %entry
  %8 = getelementptr inbounds %"struct.benchmark::BenchmarkReporter::Run", ptr %this, i64 0, i32 4, i32 2
  %9 = load ptr, ptr %aggregate_name, align 8, !tbaa !11
  %cmp.i60.i = icmp eq ptr %9, %8
  %10 = load i64, ptr %8, align 8
  store ptr %1, ptr %aggregate_name, align 8, !tbaa !11
  %_M_string_length.i61.i = getelementptr inbounds %"struct.benchmark::BenchmarkReporter::Run", ptr %0, i64 0, i32 4, i32 1
  %11 = load i64, ptr %_M_string_length.i61.i, align 8, !tbaa !18
  %_M_string_length.i62.i = getelementptr inbounds %"struct.benchmark::BenchmarkReporter::Run", ptr %this, i64 0, i32 4, i32 1
  store i64 %11, ptr %_M_string_length.i62.i, align 8, !tbaa !18
  %12 = load i64, ptr %2, align 8, !tbaa !20
  store i64 %12, ptr %8, align 8, !tbaa !20
  %tobool35.not63.i = icmp eq ptr %9, null
  %tobool35.not.i = or i1 %cmp.i60.i, %tobool35.not63.i
  br i1 %tobool35.not.i, label %if.else37.i, label %if.then36.i

if.then36.i:                                      ; preds = %if.else.i
  store ptr %9, ptr %aggregate_name4, align 8, !tbaa !11
  store i64 %10, ptr %2, align 8, !tbaa !20
  br label %_ZNSt7__cxx1112basic_stringIcSt11char_traitsIcESaIcEEaSEOS4_.exit

if.else37.i:                                      ; preds = %if.else.i
  store ptr %2, ptr %aggregate_name4, align 8, !tbaa !11
  br label %_ZNSt7__cxx1112basic_stringIcSt11char_traitsIcESaIcEEaSEOS4_.exit

_ZNSt7__cxx1112basic_stringIcSt11char_traitsIcESaIcEEaSEOS4_.exit: ; preds = %if.then15.i, %if.end24.i, %if.then36.i, %if.else37.i
  %13 = phi ptr [ %9, %if.then36.i ], [ %2, %if.else37.i ], [ %.pre.i, %if.end24.i ], [ %1, %if.then15.i ]
  %_M_string_length.i.i.i.i = getelementptr inbounds %"struct.benchmark::BenchmarkReporter::Run", ptr %0, i64 0, i32 4, i32 1
  store i64 0, ptr %_M_string_length.i.i.i.i, align 8, !tbaa !18
  store i8 0, ptr %13, align 1, !tbaa !20
  %aggregate_unit = getelementptr inbounds %"struct.benchmark::BenchmarkReporter::Run", ptr %0, i64 0, i32 5
  %14 = load i32, ptr %aggregate_unit, align 8, !tbaa !98
  %aggregate_unit6 = getelementptr inbounds %"struct.benchmark::BenchmarkReporter::Run", ptr %this, i64 0, i32 5
  store i32 %14, ptr %aggregate_unit6, align 8, !tbaa !98
  %report_label = getelementptr inbounds %"struct.benchmark::BenchmarkReporter::Run", ptr %this, i64 0, i32 6
  %report_label7 = getelementptr inbounds %"struct.benchmark::BenchmarkReporter::Run", ptr %0, i64 0, i32 6
  %15 = load ptr, ptr %report_label7, align 8, !tbaa !11
  %16 = getelementptr inbounds %"struct.benchmark::BenchmarkReporter::Run", ptr %0, i64 0, i32 6, i32 2
  %cmp.i56.i25 = icmp eq ptr %15, %16
  br i1 %cmp.i56.i25, label %if.then15.i27, label %if.else.i44

if.then15.i27:                                    ; preds = %_ZNSt7__cxx1112basic_stringIcSt11char_traitsIcESaIcEEaSEOS4_.exit
  %cmp.not.i26 = icmp eq ptr %0, %this
  br i1 %cmp.not.i26, label %_ZNSt7__cxx1112basic_stringIcSt11char_traitsIcESaIcEEaSEOS4_.exit48, label %if.then16.i30, !prof !49

if.then16.i30:                                    ; preds = %if.then15.i27
  %_M_string_length.i.i28 = getelementptr inbounds %"struct.benchmark::BenchmarkReporter::Run", ptr %0, i64 0, i32 6, i32 1
  %17 = load i64, ptr %_M_string_length.i.i28, align 8, !tbaa !18
  %tobool18.not.i29 = icmp eq i64 %17, 0
  br i1 %tobool18.not.i29, label %if.end24.i38, label %if.then19.i32

if.then19.i32:                                    ; preds = %if.then16.i30
  %18 = load ptr, ptr %report_label, align 8, !tbaa !11
  %cond.i31 = icmp eq i64 %17, 1
  br i1 %cond.i31, label %if.then.i.i33, label %if.end.i.i.i34

if.then.i.i33:                                    ; preds = %if.then19.i32
  %19 = load i8, ptr %15, align 1, !tbaa !20
  store i8 %19, ptr %18, align 1, !tbaa !20
  br label %if.end24.i38

if.end.i.i.i34:                                   ; preds = %if.then19.i32
  tail call void @llvm.memcpy.p0.p0.i64(ptr align 1 %18, ptr align 1 %15, i64 %17, i1 false)
  br label %if.end24.i38

if.end24.i38:                                     ; preds = %if.end.i.i.i34, %if.then.i.i33, %if.then16.i30
  %20 = load i64, ptr %_M_string_length.i.i28, align 8, !tbaa !18
  %_M_string_length.i.i59.i35 = getelementptr inbounds %"struct.benchmark::BenchmarkReporter::Run", ptr %this, i64 0, i32 6, i32 1
  store i64 %20, ptr %_M_string_length.i.i59.i35, align 8, !tbaa !18
  %21 = load ptr, ptr %report_label, align 8, !tbaa !11
  %arrayidx.i.i36 = getelementptr inbounds i8, ptr %21, i64 %20
  store i8 0, ptr %arrayidx.i.i36, align 1, !tbaa !20
  %.pre.i37 = load ptr, ptr %report_label7, align 8, !tbaa !11
  br label %_ZNSt7__cxx1112basic_stringIcSt11char_traitsIcESaIcEEaSEOS4_.exit48

if.else.i44:                                      ; preds = %_ZNSt7__cxx1112basic_stringIcSt11char_traitsIcESaIcEEaSEOS4_.exit
  %22 = getelementptr inbounds %"struct.benchmark::BenchmarkReporter::Run", ptr %this, i64 0, i32 6, i32 2
  %23 = load ptr, ptr %report_label, align 8, !tbaa !11
  %cmp.i60.i39 = icmp eq ptr %23, %22
  %24 = load i64, ptr %22, align 8
  store ptr %15, ptr %report_label, align 8, !tbaa !11
  %_M_string_length.i61.i40 = getelementptr inbounds %"struct.benchmark::BenchmarkReporter::Run", ptr %0, i64 0, i32 6, i32 1
  %25 = load i64, ptr %_M_string_length.i61.i40, align 8, !tbaa !18
  %_M_string_length.i62.i41 = getelementptr inbounds %"struct.benchmark::BenchmarkReporter::Run", ptr %this, i64 0, i32 6, i32 1
  store i64 %25, ptr %_M_string_length.i62.i41, align 8, !tbaa !18
  %26 = load i64, ptr %16, align 8, !tbaa !20
  store i64 %26, ptr %22, align 8, !tbaa !20
  %tobool35.not63.i42 = icmp eq ptr %23, null
  %tobool35.not.i43 = or i1 %cmp.i60.i39, %tobool35.not63.i42
  br i1 %tobool35.not.i43, label %if.else37.i46, label %if.then36.i45

if.then36.i45:                                    ; preds = %if.else.i44
  store ptr %23, ptr %report_label7, align 8, !tbaa !11
  store i64 %24, ptr %16, align 8, !tbaa !20
  br label %_ZNSt7__cxx1112basic_stringIcSt11char_traitsIcESaIcEEaSEOS4_.exit48

if.else37.i46:                                    ; preds = %if.else.i44
  store ptr %16, ptr %report_label7, align 8, !tbaa !11
  br label %_ZNSt7__cxx1112basic_stringIcSt11char_traitsIcESaIcEEaSEOS4_.exit48

_ZNSt7__cxx1112basic_stringIcSt11char_traitsIcESaIcEEaSEOS4_.exit48: ; preds = %if.then15.i27, %if.end24.i38, %if.then36.i45, %if.else37.i46
  %27 = phi ptr [ %23, %if.then36.i45 ], [ %16, %if.else37.i46 ], [ %.pre.i37, %if.end24.i38 ], [ %15, %if.then15.i27 ]
  %_M_string_length.i.i.i.i47 = getelementptr inbounds %"struct.benchmark::BenchmarkReporter::Run", ptr %0, i64 0, i32 6, i32 1
  store i64 0, ptr %_M_string_length.i.i.i.i47, align 8, !tbaa !18
  store i8 0, ptr %27, align 1, !tbaa !20
  %error_occurred = getelementptr inbounds %"struct.benchmark::BenchmarkReporter::Run", ptr %0, i64 0, i32 7
  %28 = load i8, ptr %error_occurred, align 8, !tbaa !81, !range !24, !noundef !25
  %error_occurred9 = getelementptr inbounds %"struct.benchmark::BenchmarkReporter::Run", ptr %this, i64 0, i32 7
  store i8 %28, ptr %error_occurred9, align 8, !tbaa !81
  %error_message = getelementptr inbounds %"struct.benchmark::BenchmarkReporter::Run", ptr %this, i64 0, i32 8
  %error_message10 = getelementptr inbounds %"struct.benchmark::BenchmarkReporter::Run", ptr %0, i64 0, i32 8
  %29 = load ptr, ptr %error_message10, align 8, !tbaa !11
  %30 = getelementptr inbounds %"struct.benchmark::BenchmarkReporter::Run", ptr %0, i64 0, i32 8, i32 2
  %cmp.i56.i49 = icmp eq ptr %29, %30
  br i1 %cmp.i56.i49, label %if.then15.i51, label %if.else.i68

if.then15.i51:                                    ; preds = %_ZNSt7__cxx1112basic_stringIcSt11char_traitsIcESaIcEEaSEOS4_.exit48
  %cmp.not.i50 = icmp eq ptr %0, %this
  br i1 %cmp.not.i50, label %_ZNSt7__cxx1112basic_stringIcSt11char_traitsIcESaIcEEaSEOS4_.exit72, label %if.then16.i54, !prof !49

if.then16.i54:                                    ; preds = %if.then15.i51
  %_M_string_length.i.i52 = getelementptr inbounds %"struct.benchmark::BenchmarkReporter::Run", ptr %0, i64 0, i32 8, i32 1
  %31 = load i64, ptr %_M_string_length.i.i52, align 8, !tbaa !18
  %tobool18.not.i53 = icmp eq i64 %31, 0
  br i1 %tobool18.not.i53, label %if.end24.i62, label %if.then19.i56

if.then19.i56:                                    ; preds = %if.then16.i54
  %32 = load ptr, ptr %error_message, align 8, !tbaa !11
  %cond.i55 = icmp eq i64 %31, 1
  br i1 %cond.i55, label %if.then.i.i57, label %if.end.i.i.i58

if.then.i.i57:                                    ; preds = %if.then19.i56
  %33 = load i8, ptr %29, align 1, !tbaa !20
  store i8 %33, ptr %32, align 1, !tbaa !20
  br label %if.end24.i62

if.end.i.i.i58:                                   ; preds = %if.then19.i56
  tail call void @llvm.memcpy.p0.p0.i64(ptr align 1 %32, ptr align 1 %29, i64 %31, i1 false)
  br label %if.end24.i62

if.end24.i62:                                     ; preds = %if.end.i.i.i58, %if.then.i.i57, %if.then16.i54
  %34 = load i64, ptr %_M_string_length.i.i52, align 8, !tbaa !18
  %_M_string_length.i.i59.i59 = getelementptr inbounds %"struct.benchmark::BenchmarkReporter::Run", ptr %this, i64 0, i32 8, i32 1
  store i64 %34, ptr %_M_string_length.i.i59.i59, align 8, !tbaa !18
  %35 = load ptr, ptr %error_message, align 8, !tbaa !11
  %arrayidx.i.i60 = getelementptr inbounds i8, ptr %35, i64 %34
  store i8 0, ptr %arrayidx.i.i60, align 1, !tbaa !20
  %.pre.i61 = load ptr, ptr %error_message10, align 8, !tbaa !11
  br label %_ZNSt7__cxx1112basic_stringIcSt11char_traitsIcESaIcEEaSEOS4_.exit72

if.else.i68:                                      ; preds = %_ZNSt7__cxx1112basic_stringIcSt11char_traitsIcESaIcEEaSEOS4_.exit48
  %36 = getelementptr inbounds %"struct.benchmark::BenchmarkReporter::Run", ptr %this, i64 0, i32 8, i32 2
  %37 = load ptr, ptr %error_message, align 8, !tbaa !11
  %cmp.i60.i63 = icmp eq ptr %37, %36
  %38 = load i64, ptr %36, align 8
  store ptr %29, ptr %error_message, align 8, !tbaa !11
  %_M_string_length.i61.i64 = getelementptr inbounds %"struct.benchmark::BenchmarkReporter::Run", ptr %0, i64 0, i32 8, i32 1
  %39 = load i64, ptr %_M_string_length.i61.i64, align 8, !tbaa !18
  %_M_string_length.i62.i65 = getelementptr inbounds %"struct.benchmark::BenchmarkReporter::Run", ptr %this, i64 0, i32 8, i32 1
  store i64 %39, ptr %_M_string_length.i62.i65, align 8, !tbaa !18
  %40 = load i64, ptr %30, align 8, !tbaa !20
  store i64 %40, ptr %36, align 8, !tbaa !20
  %tobool35.not63.i66 = icmp eq ptr %37, null
  %tobool35.not.i67 = or i1 %cmp.i60.i63, %tobool35.not63.i66
  br i1 %tobool35.not.i67, label %if.else37.i70, label %if.then36.i69

if.then36.i69:                                    ; preds = %if.else.i68
  store ptr %37, ptr %error_message10, align 8, !tbaa !11
  store i64 %38, ptr %30, align 8, !tbaa !20
  br label %_ZNSt7__cxx1112basic_stringIcSt11char_traitsIcESaIcEEaSEOS4_.exit72

if.else37.i70:                                    ; preds = %if.else.i68
  store ptr %30, ptr %error_message10, align 8, !tbaa !11
  br label %_ZNSt7__cxx1112basic_stringIcSt11char_traitsIcESaIcEEaSEOS4_.exit72

_ZNSt7__cxx1112basic_stringIcSt11char_traitsIcESaIcEEaSEOS4_.exit72: ; preds = %if.then15.i51, %if.end24.i62, %if.then36.i69, %if.else37.i70
  %41 = phi ptr [ %37, %if.then36.i69 ], [ %30, %if.else37.i70 ], [ %.pre.i61, %if.end24.i62 ], [ %29, %if.then15.i51 ]
  %_M_string_length.i.i.i.i71 = getelementptr inbounds %"struct.benchmark::BenchmarkReporter::Run", ptr %0, i64 0, i32 8, i32 1
  store i64 0, ptr %_M_string_length.i.i.i.i71, align 8, !tbaa !18
  store i8 0, ptr %41, align 1, !tbaa !20
  %iterations = getelementptr inbounds %"struct.benchmark::BenchmarkReporter::Run", ptr %this, i64 0, i32 9
  %iterations12 = getelementptr inbounds %"struct.benchmark::BenchmarkReporter::Run", ptr %0, i64 0, i32 9
  tail call void @llvm.memcpy.p0.p0.i64(ptr noundef nonnull align 8 dereferenceable(98) %iterations, ptr noundef nonnull align 8 dereferenceable(98) %iterations12, i64 98, i1 false)
  %counters = getelementptr inbounds %"struct.benchmark::BenchmarkReporter::Run", ptr %this, i64 0, i32 23
  %_M_parent.i.i.i.i.i.i = getelementptr inbounds %"struct.benchmark::BenchmarkReporter::Run", ptr %this, i64 0, i32 23, i32 0, i32 0, i32 1, i32 0, i32 1
  %42 = load ptr, ptr %_M_parent.i.i.i.i.i.i, align 8, !tbaa !69
  invoke void @_ZNSt8_Rb_treeINSt7__cxx1112basic_stringIcSt11char_traitsIcESaIcEEESt4pairIKS5_N9benchmark7CounterEESt10_Select1stISA_ESt4lessIS5_ESaISA_EE8_M_eraseEPSt13_Rb_tree_nodeISA_E(ptr noundef nonnull align 8 dereferenceable(48) %counters, ptr noundef %42)
          to label %_ZNSt8_Rb_treeINSt7__cxx1112basic_stringIcSt11char_traitsIcESaIcEEESt4pairIKS5_N9benchmark7CounterEESt10_Select1stISA_ESt4lessIS5_ESaISA_EE5clearEv.exit.i.i.i unwind label %terminate.lpad.i.i.i.i

terminate.lpad.i.i.i.i:                           ; preds = %_ZNSt7__cxx1112basic_stringIcSt11char_traitsIcESaIcEEaSEOS4_.exit72
  %43 = landingpad { ptr, i32 }
          catch ptr null
  %44 = extractvalue { ptr, i32 } %43, 0
  tail call void @__clang_call_terminate(ptr %44) #28
  unreachable

_ZNSt8_Rb_treeINSt7__cxx1112basic_stringIcSt11char_traitsIcESaIcEEESt4pairIKS5_N9benchmark7CounterEESt10_Select1stISA_ESt4lessIS5_ESaISA_EE5clearEv.exit.i.i.i: ; preds = %_ZNSt7__cxx1112basic_stringIcSt11char_traitsIcESaIcEEaSEOS4_.exit72
  %add.ptr.i.i.i.i = getelementptr inbounds %"struct.benchmark::BenchmarkReporter::Run", ptr %this, i64 0, i32 23, i32 0, i32 0, i32 1
  store ptr null, ptr %_M_parent.i.i.i.i.i.i, align 8, !tbaa !69
  %_M_left.i.i.i.i.i = getelementptr inbounds %"struct.benchmark::BenchmarkReporter::Run", ptr %this, i64 0, i32 23, i32 0, i32 0, i32 1, i32 0, i32 2
  store ptr %add.ptr.i.i.i.i, ptr %_M_left.i.i.i.i.i, align 8, !tbaa !70
  %_M_right.i.i.i.i.i = getelementptr inbounds %"struct.benchmark::BenchmarkReporter::Run", ptr %this, i64 0, i32 23, i32 0, i32 0, i32 1, i32 0, i32 3
  store ptr %add.ptr.i.i.i.i, ptr %_M_right.i.i.i.i.i, align 8, !tbaa !71
  %_M_node_count.i.i.i.i.i = getelementptr inbounds %"struct.benchmark::BenchmarkReporter::Run", ptr %this, i64 0, i32 23, i32 0, i32 0, i32 1, i32 1
  store i64 0, ptr %_M_node_count.i.i.i.i.i, align 8, !tbaa !72
  %_M_parent.i.i.i.i = getelementptr inbounds %"struct.benchmark::BenchmarkReporter::Run", ptr %0, i64 0, i32 23, i32 0, i32 0, i32 1, i32 0, i32 1
  %45 = load ptr, ptr %_M_parent.i.i.i.i, align 8, !tbaa !26
  %cmp.not.i.i.i = icmp eq ptr %45, null
  br i1 %cmp.not.i.i.i, label %_ZNSt3mapINSt7__cxx1112basic_stringIcSt11char_traitsIcESaIcEEEN9benchmark7CounterESt4lessIS5_ESaISt4pairIKS5_S7_EEEaSEOSE_.exit, label %if.then.i.i.i

if.then.i.i.i:                                    ; preds = %_ZNSt8_Rb_treeINSt7__cxx1112basic_stringIcSt11char_traitsIcESaIcEEESt4pairIKS5_N9benchmark7CounterEESt10_Select1stISA_ESt4lessIS5_ESaISA_EE5clearEv.exit.i.i.i
  %add.ptr3.i.i.i.i = getelementptr inbounds %"struct.benchmark::BenchmarkReporter::Run", ptr %0, i64 0, i32 23, i32 0, i32 0, i32 1
  %46 = load i32, ptr %add.ptr3.i.i.i.i, align 8, !tbaa !68
  store i32 %46, ptr %add.ptr.i.i.i.i, align 8, !tbaa !68
  store ptr %45, ptr %_M_parent.i.i.i.i.i.i, align 8, !tbaa !69
  %_M_left.i.i7.i.i.i = getelementptr inbounds %"struct.benchmark::BenchmarkReporter::Run", ptr %0, i64 0, i32 23, i32 0, i32 0, i32 1, i32 0, i32 2
  %_M_right.i.i8.i.i.i = getelementptr inbounds %"struct.benchmark::BenchmarkReporter::Run", ptr %0, i64 0, i32 23, i32 0, i32 0, i32 1, i32 0, i32 3
  %47 = load <2 x ptr>, ptr %_M_left.i.i7.i.i.i, align 8, !tbaa !26
  store <2 x ptr> %47, ptr %_M_left.i.i.i.i.i, align 8, !tbaa !26
  %_M_parent16.i.i.i.i.i = getelementptr inbounds %"struct.std::_Rb_tree_node_base", ptr %45, i64 0, i32 1
  store ptr %add.ptr.i.i.i.i, ptr %_M_parent16.i.i.i.i.i, align 8, !tbaa !99
  %_M_node_count.i.i9.i.i.i = getelementptr inbounds %"struct.benchmark::BenchmarkReporter::Run", ptr %0, i64 0, i32 23, i32 0, i32 0, i32 1, i32 1
  %48 = load i64, ptr %_M_node_count.i.i9.i.i.i, align 8, !tbaa !72
  store i64 %48, ptr %_M_node_count.i.i.i.i.i, align 8, !tbaa !72
  store ptr null, ptr %_M_parent.i.i.i.i, align 8, !tbaa !69
  store ptr %add.ptr3.i.i.i.i, ptr %_M_left.i.i7.i.i.i, align 8, !tbaa !70
  store ptr %add.ptr3.i.i.i.i, ptr %_M_right.i.i8.i.i.i, align 8, !tbaa !71
  store i64 0, ptr %_M_node_count.i.i9.i.i.i, align 8, !tbaa !72
  br label %_ZNSt3mapINSt7__cxx1112basic_stringIcSt11char_traitsIcESaIcEEEN9benchmark7CounterESt4lessIS5_ESaISt4pairIKS5_S7_EEEaSEOSE_.exit

_ZNSt3mapINSt7__cxx1112basic_stringIcSt11char_traitsIcESaIcEEEN9benchmark7CounterESt4lessIS5_ESaISt4pairIKS5_S7_EEEaSEOSE_.exit: ; preds = %_ZNSt8_Rb_treeINSt7__cxx1112basic_stringIcSt11char_traitsIcESaIcEEESt4pairIKS5_N9benchmark7CounterEESt10_Select1stISA_ESt4lessIS5_ESaISA_EE5clearEv.exit.i.i.i, %if.then.i.i.i
  %memory_result = getelementptr inbounds %"struct.benchmark::BenchmarkReporter::Run", ptr %this, i64 0, i32 24
  %memory_result15 = getelementptr inbounds %"struct.benchmark::BenchmarkReporter::Run", ptr %0, i64 0, i32 24
  tail call void @llvm.memcpy.p0.p0.i64(ptr noundef nonnull align 8 dereferenceable(16) %memory_result, ptr noundef nonnull align 8 dereferenceable(16) %memory_result15, i64 16, i1 false)
  ret ptr %this
}

; Function Attrs: inlinehint nounwind uwtable
define linkonce_odr hidden noundef nonnull align 8 dereferenceable(224) ptr @_ZN9benchmark13BenchmarkNameaSEOS0_(ptr noundef nonnull align 8 dereferenceable(224) %this, ptr noundef nonnull align 8 dereferenceable(224) %0) local_unnamed_addr #9 comdat align 2 personality ptr @__gxx_personality_v0 {
entry:
  %1 = load ptr, ptr %0, align 8, !tbaa !11
  %2 = getelementptr inbounds %"class.std::__cxx11::basic_string", ptr %0, i64 0, i32 2
  %cmp.i56.i = icmp eq ptr %1, %2
  br i1 %cmp.i56.i, label %if.then15.i, label %if.else.i

if.then15.i:                                      ; preds = %entry
  %cmp.not.i = icmp eq ptr %0, %this
  br i1 %cmp.not.i, label %_ZNSt7__cxx1112basic_stringIcSt11char_traitsIcESaIcEEaSEOS4_.exit, label %if.then16.i, !prof !49

if.then16.i:                                      ; preds = %if.then15.i
  %_M_string_length.i.i = getelementptr inbounds %"class.std::__cxx11::basic_string", ptr %0, i64 0, i32 1
  %3 = load i64, ptr %_M_string_length.i.i, align 8, !tbaa !18
  %tobool18.not.i = icmp eq i64 %3, 0
  br i1 %tobool18.not.i, label %if.end24.i, label %if.then19.i

if.then19.i:                                      ; preds = %if.then16.i
  %4 = load ptr, ptr %this, align 8, !tbaa !11
  %cond.i = icmp eq i64 %3, 1
  br i1 %cond.i, label %if.then.i.i, label %if.end.i.i.i

if.then.i.i:                                      ; preds = %if.then19.i
  %5 = load i8, ptr %1, align 1, !tbaa !20
  store i8 %5, ptr %4, align 1, !tbaa !20
  br label %if.end24.i

if.end.i.i.i:                                     ; preds = %if.then19.i
  tail call void @llvm.memcpy.p0.p0.i64(ptr align 1 %4, ptr align 1 %1, i64 %3, i1 false)
  br label %if.end24.i

if.end24.i:                                       ; preds = %if.end.i.i.i, %if.then.i.i, %if.then16.i
  %6 = load i64, ptr %_M_string_length.i.i, align 8, !tbaa !18
  %_M_string_length.i.i59.i = getelementptr inbounds %"class.std::__cxx11::basic_string", ptr %this, i64 0, i32 1
  store i64 %6, ptr %_M_string_length.i.i59.i, align 8, !tbaa !18
  %7 = load ptr, ptr %this, align 8, !tbaa !11
  %arrayidx.i.i = getelementptr inbounds i8, ptr %7, i64 %6
  store i8 0, ptr %arrayidx.i.i, align 1, !tbaa !20
  %.pre.i = load ptr, ptr %0, align 8, !tbaa !11
  br label %_ZNSt7__cxx1112basic_stringIcSt11char_traitsIcESaIcEEaSEOS4_.exit

if.else.i:                                        ; preds = %entry
  %8 = getelementptr inbounds %"class.std::__cxx11::basic_string", ptr %this, i64 0, i32 2
  %9 = load ptr, ptr %this, align 8, !tbaa !11
  %cmp.i60.i = icmp eq ptr %9, %8
  %10 = load i64, ptr %8, align 8
  store ptr %1, ptr %this, align 8, !tbaa !11
  %_M_string_length.i61.i = getelementptr inbounds %"class.std::__cxx11::basic_string", ptr %0, i64 0, i32 1
  %11 = load i64, ptr %_M_string_length.i61.i, align 8, !tbaa !18
  %_M_string_length.i62.i = getelementptr inbounds %"class.std::__cxx11::basic_string", ptr %this, i64 0, i32 1
  store i64 %11, ptr %_M_string_length.i62.i, align 8, !tbaa !18
  %12 = load i64, ptr %2, align 8, !tbaa !20
  store i64 %12, ptr %8, align 8, !tbaa !20
  %tobool35.not63.i = icmp eq ptr %9, null
  %tobool35.not.i = or i1 %cmp.i60.i, %tobool35.not63.i
  br i1 %tobool35.not.i, label %if.else37.i, label %if.then36.i

if.then36.i:                                      ; preds = %if.else.i
  store ptr %9, ptr %0, align 8, !tbaa !11
  store i64 %10, ptr %2, align 8, !tbaa !20
  br label %_ZNSt7__cxx1112basic_stringIcSt11char_traitsIcESaIcEEaSEOS4_.exit

if.else37.i:                                      ; preds = %if.else.i
  store ptr %2, ptr %0, align 8, !tbaa !11
  br label %_ZNSt7__cxx1112basic_stringIcSt11char_traitsIcESaIcEEaSEOS4_.exit

_ZNSt7__cxx1112basic_stringIcSt11char_traitsIcESaIcEEaSEOS4_.exit: ; preds = %if.then15.i, %if.end24.i, %if.then36.i, %if.else37.i
  %13 = phi ptr [ %9, %if.then36.i ], [ %2, %if.else37.i ], [ %.pre.i, %if.end24.i ], [ %1, %if.then15.i ]
  %_M_string_length.i.i.i.i = getelementptr inbounds %"class.std::__cxx11::basic_string", ptr %0, i64 0, i32 1
  store i64 0, ptr %_M_string_length.i.i.i.i, align 8, !tbaa !18
  store i8 0, ptr %13, align 1, !tbaa !20
  %args = getelementptr inbounds %"struct.benchmark::BenchmarkName", ptr %this, i64 0, i32 1
  %args3 = getelementptr inbounds %"struct.benchmark::BenchmarkName", ptr %0, i64 0, i32 1
  %14 = load ptr, ptr %args3, align 8, !tbaa !11
  %15 = getelementptr inbounds %"struct.benchmark::BenchmarkName", ptr %0, i64 0, i32 1, i32 2
  %cmp.i56.i21 = icmp eq ptr %14, %15
  br i1 %cmp.i56.i21, label %if.then15.i23, label %if.else.i40

if.then15.i23:                                    ; preds = %_ZNSt7__cxx1112basic_stringIcSt11char_traitsIcESaIcEEaSEOS4_.exit
  %cmp.not.i22 = icmp eq ptr %0, %this
  br i1 %cmp.not.i22, label %_ZNSt7__cxx1112basic_stringIcSt11char_traitsIcESaIcEEaSEOS4_.exit44, label %if.then16.i26, !prof !49

if.then16.i26:                                    ; preds = %if.then15.i23
  %_M_string_length.i.i24 = getelementptr inbounds %"struct.benchmark::BenchmarkName", ptr %0, i64 0, i32 1, i32 1
  %16 = load i64, ptr %_M_string_length.i.i24, align 8, !tbaa !18
  %tobool18.not.i25 = icmp eq i64 %16, 0
  br i1 %tobool18.not.i25, label %if.end24.i34, label %if.then19.i28

if.then19.i28:                                    ; preds = %if.then16.i26
  %17 = load ptr, ptr %args, align 8, !tbaa !11
  %cond.i27 = icmp eq i64 %16, 1
  br i1 %cond.i27, label %if.then.i.i29, label %if.end.i.i.i30

if.then.i.i29:                                    ; preds = %if.then19.i28
  %18 = load i8, ptr %14, align 1, !tbaa !20
  store i8 %18, ptr %17, align 1, !tbaa !20
  br label %if.end24.i34

if.end.i.i.i30:                                   ; preds = %if.then19.i28
  tail call void @llvm.memcpy.p0.p0.i64(ptr align 1 %17, ptr align 1 %14, i64 %16, i1 false)
  br label %if.end24.i34

if.end24.i34:                                     ; preds = %if.end.i.i.i30, %if.then.i.i29, %if.then16.i26
  %19 = load i64, ptr %_M_string_length.i.i24, align 8, !tbaa !18
  %_M_string_length.i.i59.i31 = getelementptr inbounds %"struct.benchmark::BenchmarkName", ptr %this, i64 0, i32 1, i32 1
  store i64 %19, ptr %_M_string_length.i.i59.i31, align 8, !tbaa !18
  %20 = load ptr, ptr %args, align 8, !tbaa !11
  %arrayidx.i.i32 = getelementptr inbounds i8, ptr %20, i64 %19
  store i8 0, ptr %arrayidx.i.i32, align 1, !tbaa !20
  %.pre.i33 = load ptr, ptr %args3, align 8, !tbaa !11
  br label %_ZNSt7__cxx1112basic_stringIcSt11char_traitsIcESaIcEEaSEOS4_.exit44

if.else.i40:                                      ; preds = %_ZNSt7__cxx1112basic_stringIcSt11char_traitsIcESaIcEEaSEOS4_.exit
  %21 = getelementptr inbounds %"struct.benchmark::BenchmarkName", ptr %this, i64 0, i32 1, i32 2
  %22 = load ptr, ptr %args, align 8, !tbaa !11
  %cmp.i60.i35 = icmp eq ptr %22, %21
  %23 = load i64, ptr %21, align 8
  store ptr %14, ptr %args, align 8, !tbaa !11
  %_M_string_length.i61.i36 = getelementptr inbounds %"struct.benchmark::BenchmarkName", ptr %0, i64 0, i32 1, i32 1
  %24 = load i64, ptr %_M_string_length.i61.i36, align 8, !tbaa !18
  %_M_string_length.i62.i37 = getelementptr inbounds %"struct.benchmark::BenchmarkName", ptr %this, i64 0, i32 1, i32 1
  store i64 %24, ptr %_M_string_length.i62.i37, align 8, !tbaa !18
  %25 = load i64, ptr %15, align 8, !tbaa !20
  store i64 %25, ptr %21, align 8, !tbaa !20
  %tobool35.not63.i38 = icmp eq ptr %22, null
  %tobool35.not.i39 = or i1 %cmp.i60.i35, %tobool35.not63.i38
  br i1 %tobool35.not.i39, label %if.else37.i42, label %if.then36.i41

if.then36.i41:                                    ; preds = %if.else.i40
  store ptr %22, ptr %args3, align 8, !tbaa !11
  store i64 %23, ptr %15, align 8, !tbaa !20
  br label %_ZNSt7__cxx1112basic_stringIcSt11char_traitsIcESaIcEEaSEOS4_.exit44

if.else37.i42:                                    ; preds = %if.else.i40
  store ptr %15, ptr %args3, align 8, !tbaa !11
  br label %_ZNSt7__cxx1112basic_stringIcSt11char_traitsIcESaIcEEaSEOS4_.exit44

_ZNSt7__cxx1112basic_stringIcSt11char_traitsIcESaIcEEaSEOS4_.exit44: ; preds = %if.then15.i23, %if.end24.i34, %if.then36.i41, %if.else37.i42
  %26 = phi ptr [ %22, %if.then36.i41 ], [ %15, %if.else37.i42 ], [ %.pre.i33, %if.end24.i34 ], [ %14, %if.then15.i23 ]
  %_M_string_length.i.i.i.i43 = getelementptr inbounds %"struct.benchmark::BenchmarkName", ptr %0, i64 0, i32 1, i32 1
  store i64 0, ptr %_M_string_length.i.i.i.i43, align 8, !tbaa !18
  store i8 0, ptr %26, align 1, !tbaa !20
  %min_time = getelementptr inbounds %"struct.benchmark::BenchmarkName", ptr %this, i64 0, i32 2
  %min_time5 = getelementptr inbounds %"struct.benchmark::BenchmarkName", ptr %0, i64 0, i32 2
  %27 = load ptr, ptr %min_time5, align 8, !tbaa !11
  %28 = getelementptr inbounds %"struct.benchmark::BenchmarkName", ptr %0, i64 0, i32 2, i32 2
  %cmp.i56.i45 = icmp eq ptr %27, %28
  br i1 %cmp.i56.i45, label %if.then15.i47, label %if.else.i64

if.then15.i47:                                    ; preds = %_ZNSt7__cxx1112basic_stringIcSt11char_traitsIcESaIcEEaSEOS4_.exit44
  %cmp.not.i46 = icmp eq ptr %0, %this
  br i1 %cmp.not.i46, label %_ZNSt7__cxx1112basic_stringIcSt11char_traitsIcESaIcEEaSEOS4_.exit68, label %if.then16.i50, !prof !49

if.then16.i50:                                    ; preds = %if.then15.i47
  %_M_string_length.i.i48 = getelementptr inbounds %"struct.benchmark::BenchmarkName", ptr %0, i64 0, i32 2, i32 1
  %29 = load i64, ptr %_M_string_length.i.i48, align 8, !tbaa !18
  %tobool18.not.i49 = icmp eq i64 %29, 0
  br i1 %tobool18.not.i49, label %if.end24.i58, label %if.then19.i52

if.then19.i52:                                    ; preds = %if.then16.i50
  %30 = load ptr, ptr %min_time, align 8, !tbaa !11
  %cond.i51 = icmp eq i64 %29, 1
  br i1 %cond.i51, label %if.then.i.i53, label %if.end.i.i.i54

if.then.i.i53:                                    ; preds = %if.then19.i52
  %31 = load i8, ptr %27, align 1, !tbaa !20
  store i8 %31, ptr %30, align 1, !tbaa !20
  br label %if.end24.i58

if.end.i.i.i54:                                   ; preds = %if.then19.i52
