; ModuleID = '/usr/local/google/home/aeubanks/repos/test-suite/MultiSource/Benchmarks/Bullet/btSoftBody.cpp'
source_filename = "/usr/local/google/home/aeubanks/repos/test-suite/MultiSource/Benchmarks/Bullet/btSoftBody.cpp"
target datalayout = "e-m:e-p270:32:32-p271:32:32-p272:64:64-i64:64-f80:128-n8:16:32:64-S128"
target triple = "x86_64-unknown-linux-gnu"

%class.btVector3 = type { [4 x float] }
%class.btTransform = type { %class.btMatrix3x3, %class.btVector3 }
%class.btMatrix3x3 = type { [3 x %class.btVector3] }
%"struct.btSoftBody::Node" = type <{ %"struct.btSoftBody::Feature", %class.btVector3, %class.btVector3, %class.btVector3, %class.btVector3, %class.btVector3, float, float, ptr, i8, [7 x i8] }>
%"struct.btSoftBody::Feature" = type { %"struct.btSoftBody::Element", ptr }
%"struct.btSoftBody::Element" = type { ptr }
%"struct.btSoftBody::Material" = type { %"struct.btSoftBody::Element", float, float, float, i32 }
%"struct.btSoftBody::Note" = type { %"struct.btSoftBody::Element", ptr, %class.btVector3, i32, [4 x ptr], [4 x float] }
%"struct.btSoftBody::Link" = type <{ %"struct.btSoftBody::Feature", [2 x ptr], float, i8, [3 x i8], float, float, float, %class.btVector3, [4 x i8] }>
%"struct.btSoftBody::Face" = type { %"struct.btSoftBody::Feature", [3 x ptr], %class.btVector3, float, ptr }
%"struct.btSoftBody::Tetra" = type { %"struct.btSoftBody::Feature", [4 x ptr], float, ptr, [4 x %class.btVector3], float, float }
%struct.btDbvtAabbMm = type { %class.btVector3, %class.btVector3 }
%class.btSoftBody = type { %class.btCollisionObject, %class.btAlignedObjectArray, %"struct.btSoftBody::Config", %"struct.btSoftBody::SolverState", [4 x i8], %"struct.btSoftBody::Pose", ptr, ptr, %class.btAlignedObjectArray.20, %class.btAlignedObjectArray.24, %class.btAlignedObjectArray.28, %class.btAlignedObjectArray.32, %class.btAlignedObjectArray.36, %class.btAlignedObjectArray.40, %class.btAlignedObjectArray.48, %class.btAlignedObjectArray.52, %class.btAlignedObjectArray.56, %class.btAlignedObjectArray.64, float, [2 x %class.btVector3], i8, %struct.btDbvt, %struct.btDbvt, %struct.btDbvt, %class.btAlignedObjectArray.72, %class.btAlignedObjectArray.76, %class.btTransform, %class.btAlignedObjectArray.80 }
%class.btCollisionObject = type { ptr, %class.btTransform, %class.btTransform, %class.btVector3, %class.btVector3, %class.btVector3, i8, float, ptr, ptr, ptr, i32, i32, i32, i32, float, float, float, ptr, i32, float, float, float, i8, [7 x i8] }
%class.btAlignedObjectArray = type <{ %class.btAlignedAllocator, [3 x i8], i32, i32, [4 x i8], ptr, i8, [7 x i8] }>
%class.btAlignedAllocator = type { i8 }
%"struct.btSoftBody::Config" = type { i32, float, float, float, float, float, float, float, float, float, float, float, float, float, float, float, float, float, float, float, float, i32, i32, i32, i32, i32, %class.btAlignedObjectArray.0, %class.btAlignedObjectArray.4, %class.btAlignedObjectArray.4 }
%class.btAlignedObjectArray.0 = type <{ %class.btAlignedAllocator.1, [3 x i8], i32, i32, [4 x i8], ptr, i8, [7 x i8] }>
%class.btAlignedAllocator.1 = type { i8 }
%class.btAlignedObjectArray.4 = type <{ %class.btAlignedAllocator.5, [3 x i8], i32, i32, [4 x i8], ptr, i8, [7 x i8] }>
%class.btAlignedAllocator.5 = type { i8 }
%"struct.btSoftBody::SolverState" = type { float, float, float, float, float }
%"struct.btSoftBody::Pose" = type { i8, i8, float, %class.btAlignedObjectArray.8, %class.btAlignedObjectArray.12, %class.btVector3, %class.btMatrix3x3, %class.btMatrix3x3, %class.btMatrix3x3 }
%class.btAlignedObjectArray.8 = type <{ %class.btAlignedAllocator.9, [3 x i8], i32, i32, [4 x i8], ptr, i8, [7 x i8] }>
%class.btAlignedAllocator.9 = type { i8 }
%class.btAlignedObjectArray.12 = type <{ %class.btAlignedAllocator.13, [3 x i8], i32, i32, [4 x i8], ptr, i8, [7 x i8] }>
%class.btAlignedAllocator.13 = type { i8 }
%class.btAlignedObjectArray.20 = type <{ %class.btAlignedAllocator.21, [3 x i8], i32, i32, [4 x i8], ptr, i8, [7 x i8] }>
%class.btAlignedAllocator.21 = type { i8 }
%class.btAlignedObjectArray.24 = type <{ %class.btAlignedAllocator.25, [3 x i8], i32, i32, [4 x i8], ptr, i8, [7 x i8] }>
%class.btAlignedAllocator.25 = type { i8 }
%class.btAlignedObjectArray.28 = type <{ %class.btAlignedAllocator.29, [3 x i8], i32, i32, [4 x i8], ptr, i8, [7 x i8] }>
%class.btAlignedAllocator.29 = type { i8 }
%class.btAlignedObjectArray.32 = type <{ %class.btAlignedAllocator.33, [3 x i8], i32, i32, [4 x i8], ptr, i8, [7 x i8] }>
%class.btAlignedAllocator.33 = type { i8 }
%class.btAlignedObjectArray.36 = type <{ %class.btAlignedAllocator.37, [3 x i8], i32, i32, [4 x i8], ptr, i8, [7 x i8] }>
%class.btAlignedAllocator.37 = type { i8 }
%class.btAlignedObjectArray.40 = type <{ %class.btAlignedAllocator.41, [3 x i8], i32, i32, [4 x i8], ptr, i8, [7 x i8] }>
%class.btAlignedAllocator.41 = type { i8 }
%class.btAlignedObjectArray.48 = type <{ %class.btAlignedAllocator.49, [3 x i8], i32, i32, [4 x i8], ptr, i8, [7 x i8] }>
%class.btAlignedAllocator.49 = type { i8 }
%class.btAlignedObjectArray.52 = type <{ %class.btAlignedAllocator.53, [3 x i8], i32, i32, [4 x i8], ptr, i8, [7 x i8] }>
%class.btAlignedAllocator.53 = type { i8 }
%class.btAlignedObjectArray.56 = type <{ %class.btAlignedAllocator.57, [3 x i8], i32, i32, [4 x i8], ptr, i8, [7 x i8] }>
%class.btAlignedAllocator.57 = type { i8 }
%class.btAlignedObjectArray.64 = type <{ %class.btAlignedAllocator.65, [3 x i8], i32, i32, [4 x i8], ptr, i8, [7 x i8] }>
%class.btAlignedAllocator.65 = type { i8 }
%struct.btDbvt = type { ptr, ptr, i32, i32, i32, [4 x i8], %class.btAlignedObjectArray.68 }
%class.btAlignedObjectArray.68 = type <{ %class.btAlignedAllocator.69, [3 x i8], i32, i32, [4 x i8], ptr, i8, [7 x i8] }>
%class.btAlignedAllocator.69 = type { i8 }
%class.btAlignedObjectArray.72 = type <{ %class.btAlignedAllocator.73, [3 x i8], i32, i32, [4 x i8], ptr, i8, [7 x i8] }>
%class.btAlignedAllocator.73 = type { i8 }
%class.btAlignedObjectArray.76 = type <{ %class.btAlignedAllocator.77, [3 x i8], i32, i32, [4 x i8], ptr, i8, [7 x i8] }>
%class.btAlignedAllocator.77 = type { i8 }
%class.btAlignedObjectArray.80 = type <{ %class.btAlignedAllocator.81, [3 x i8], i32, i32, [4 x i8], ptr, i8, [7 x i8] }>
%class.btAlignedAllocator.81 = type { i8 }
%class.btCollisionShape = type { ptr, i32, ptr }
%class.btSoftBodyCollisionShape = type { %class.btConcaveShape.base, ptr }
%class.btConcaveShape.base = type <{ %class.btCollisionShape, float }>
%class.btConcaveShape = type <{ %class.btCollisionShape, float, [4 x i8] }>
%struct.btSoftBodyWorldInfo = type { float, float, float, %class.btVector3, ptr, ptr, %class.btVector3, %struct.btSparseSdf }
%struct.btSparseSdf = type { %class.btAlignedObjectArray.16, float, i32, i32, i32, i32, [4 x i8] }
%class.btAlignedObjectArray.16 = type <{ %class.btAlignedAllocator.17, [3 x i8], i32, i32, [4 x i8], ptr, i8, [7 x i8] }>
%class.btAlignedAllocator.17 = type { i8 }
%"struct.btSoftBody::Cluster" = type { %class.btAlignedObjectArray.59, %class.btAlignedObjectArray.12, %class.btAlignedObjectArray.8, %class.btTransform, float, float, %class.btMatrix3x3, %class.btMatrix3x3, %class.btVector3, [2 x %class.btVector3], [2 x %class.btVector3], i32, i32, %class.btVector3, %class.btVector3, ptr, float, float, float, float, float, float, i8, i8, i32 }
%class.btAlignedObjectArray.59 = type <{ %class.btAlignedAllocator.60, [3 x i8], i32, i32, [4 x i8], ptr, i8, [7 x i8] }>
%class.btAlignedAllocator.60 = type { i8 }
%class.btVector4 = type { %class.btVector3 }
%struct.btDbvtNode = type { %struct.btDbvtAabbMm, ptr, %union.anon }
%union.anon = type { [2 x ptr] }
%"struct.btSoftBody::Anchor" = type <{ ptr, %class.btVector3, ptr, %class.btMatrix3x3, %class.btVector3, float, [4 x i8] }>
%"struct.btSoftBody::Body" = type { ptr, ptr, ptr }
%"struct.btSoftBody::Joint" = type <{ ptr, [2 x %"struct.btSoftBody::Body"], [2 x %class.btVector3], float, float, float, %class.btVector3, %class.btVector3, %class.btMatrix3x3, i8, [3 x i8] }>
%"struct.btSoftBody::LJoint::Specs" = type { %"struct.btSoftBody::Joint::Specs", %class.btVector3 }
%"struct.btSoftBody::Joint::Specs" = type { float, float, float }
%"struct.btSoftBody::AJoint::Specs" = type { %"struct.btSoftBody::Joint::Specs", %class.btVector3, ptr }
%"struct.btSoftBody::AJoint" = type { %"struct.btSoftBody::Joint.base", [2 x %class.btVector3], ptr }
%"struct.btSoftBody::Joint.base" = type <{ ptr, [2 x %"struct.btSoftBody::Body"], [2 x %class.btVector3], float, float, float, %class.btVector3, %class.btVector3, %class.btMatrix3x3, i8 }>
%"struct.btSoftBody::Impulse" = type <{ %class.btVector3, %class.btVector3, i8, [3 x i8] }>
%class.btAlignedObjectArray.84 = type <{ %class.btAlignedAllocator.85, [3 x i8], i32, i32, [4 x i8], ptr, i8, [7 x i8] }>
%class.btAlignedAllocator.85 = type { i8 }
%struct.NodeLinks = type { %class.btAlignedObjectArray.80 }
%struct.btSymMatrix = type { %class.btAlignedObjectArray.80, i32, [4 x i8] }
%"struct.btSoftBody::sRayCast" = type { ptr, i32, i32, float }
%"struct.btSoftBody::RayFromToCaster" = type <{ %"struct.btDbvt::ICollide", %class.btVector3, %class.btVector3, %class.btVector3, float, [4 x i8], ptr, i32, [4 x i8] }>
%"struct.btDbvt::ICollide" = type { ptr }
%"struct.btSoftBody::RContact" = type <{ %"struct.btSoftBody::sCti", ptr, %class.btMatrix3x3, %class.btVector3, float, float, float, [4 x i8] }>
%"struct.btSoftBody::sCti" = type <{ ptr, %class.btVector3, float, [4 x i8] }>
%"struct.btSoftBody::SContact" = type { ptr, ptr, %class.btVector3, %class.btVector3, float, float, [2 x float] }
%class.btRigidBody = type <{ %class.btCollisionObject, %class.btMatrix3x3, %class.btVector3, %class.btVector3, float, %class.btVector3, %class.btVector3, %class.btVector3, %class.btVector3, %class.btVector3, %class.btVector3, %class.btVector3, float, float, i8, [3 x i8], float, float, float, float, float, float, ptr, %class.btAlignedObjectArray.43, i32, i32, i32, [4 x i8] }>
%class.btAlignedObjectArray.43 = type <{ %class.btAlignedAllocator.44, [3 x i8], i32, i32, [4 x i8], ptr, i8, [7 x i8] }>
%class.btAlignedAllocator.44 = type { i8 }
%class.btAlignedObjectArray.88 = type <{ %class.btAlignedAllocator.89, [3 x i8], i32, i32, [4 x i8], ptr, i8, [7 x i8] }>
%class.btAlignedAllocator.89 = type { i8 }
%"struct.btSparseSdf<3>::Cell" = type { [4 x [4 x [4 x float]]], [3 x i32], i32, i32, ptr, ptr }
%"struct.btSoftBody::LJoint" = type { %"struct.btSoftBody::Joint.base", [2 x %class.btVector3] }
%"struct.btSoftBody::CJoint" = type { %"struct.btSoftBody::Joint.base", i32, i32, [2 x %class.btVector3], %class.btVector3, float, [4 x i8] }
%"struct.btSoftColliders::CollideSDF_RS" = type { %"struct.btDbvt::ICollide", ptr, ptr, ptr, float, float }
%"struct.btSoftColliders::CollideCL_RS" = type { %"struct.btSoftColliders::ClusterBase.base", ptr, ptr }
%"struct.btSoftColliders::ClusterBase.base" = type <{ %"struct.btDbvt::ICollide", float, float, float, float, float }>
%"struct.btSoftColliders::ClusterBase" = type <{ %"struct.btDbvt::ICollide", float, float, float, float, float, [4 x i8] }>
%"struct.btSoftColliders::CollideCL_SS" = type { %"struct.btSoftColliders::ClusterBase.base", [2 x ptr] }
%"struct.btSoftColliders::CollideVF_SS" = type <{ %"struct.btDbvt::ICollide", [2 x ptr], float, [4 x i8] }>
%"struct.btDbvt::sStkNN" = type { ptr, ptr }
%class.btSoftClusterCollisionShape = type { %class.btConvexInternalShape, ptr }
%class.btConvexInternalShape = type { %class.btConvexShape, %class.btVector3, %class.btVector3, float, float }
%class.btConvexShape = type { %class.btCollisionShape }
%"struct.btGjkEpaSolver2::sResults" = type { i32, [2 x %class.btVector3], %class.btVector3, float }

$_ZN20btAlignedObjectArrayIiED2Ev = comdat any

$__clang_call_terminate = comdat any

$_ZN20btAlignedObjectArrayIbED2Ev = comdat any

$_ZN20btAlignedObjectArrayIPN10btSoftBody7ClusterEED2Ev = comdat any

$_ZN20btAlignedObjectArrayIPN10btSoftBody8MaterialEED2Ev = comdat any

$_ZN20btAlignedObjectArrayIPN10btSoftBody5JointEED2Ev = comdat any

$_ZN20btAlignedObjectArrayIN10btSoftBody8SContactEED2Ev = comdat any

$_ZN20btAlignedObjectArrayIN10btSoftBody8RContactEED2Ev = comdat any

$_ZN20btAlignedObjectArrayIN10btSoftBody6AnchorEED2Ev = comdat any

$_ZN20btAlignedObjectArrayIN10btSoftBody5TetraEED2Ev = comdat any

$_ZN20btAlignedObjectArrayIN10btSoftBody4FaceEED2Ev = comdat any

$_ZN20btAlignedObjectArrayIN10btSoftBody4LinkEED2Ev = comdat any

$_ZN20btAlignedObjectArrayIN10btSoftBody4NodeEED2Ev = comdat any

$_ZN20btAlignedObjectArrayIN10btSoftBody4NoteEED2Ev = comdat any

$_ZN10btSoftBody4PoseD2Ev = comdat any

$_ZN10btSoftBody6ConfigD2Ev = comdat any

$_ZN20btAlignedObjectArrayIP17btCollisionObjectED2Ev = comdat any

$_ZN20btAlignedObjectArrayIN10btSoftBody6AnchorEE9push_backERKS1_ = comdat any

$_ZN20btAlignedObjectArrayIfED2Ev = comdat any

$_ZN20btAlignedObjectArrayI9NodeLinksE6resizeEiRKS0_ = comdat any

$_ZN20btAlignedObjectArrayI9NodeLinksED2Ev = comdat any

$_ZN10btSoftBody7ClusterD2Ev = comdat any

$_ZN20btAlignedObjectArrayI9btVector3ED2Ev = comdat any

$_ZN11btSymMatrixIiEC2EiRKi = comdat any

$_ZN10btSoftBody15RayFromToCaster17rayFromToTriangleERK9btVector3S3_S3_S3_S3_S3_f = comdat any

$_ZN6btDbvt7rayTestEPK10btDbvtNodeRK9btVector3S5_RNS_8ICollideE = comdat any

$_ZN11btSparseSdfILi3EE8EvaluateERK9btVector3P16btCollisionShapeRS1_f = comdat any

$_ZNK10btSoftBody4Body13applyDImpulseERK9btVector3S3_ = comdat any

$_ZNK10btSoftBody4Body14applyDAImpulseERK9btVector3 = comdat any

$_ZN11btRigidBody12applyImpulseERK9btVector3S2_ = comdat any

$_ZN6btDbvt9collideTVEPK10btDbvtNodeRK12btDbvtAabbMmRNS_8ICollideE = comdat any

$_ZN6btDbvt9collideTTEPK10btDbvtNodeS2_RNS_8ICollideE = comdat any

$_ZN10btSoftBody5JointD0Ev = comdat any

$_ZN10btSoftBody5JointD2Ev = comdat any

$_ZN10btSoftBody6CJointD0Ev = comdat any

$_ZNK10btSoftBody6CJoint4TypeEv = comdat any

$_ZN17btCollisionObject24checkCollideWithOverrideEPS_ = comdat any

$_ZN10btSoftBody17setCollisionShapeEP16btCollisionShape = comdat any

$_ZNK10btSoftBody7getAabbER9btVector3S1_ = comdat any

$_ZN10btSoftBody6LJointD0Ev = comdat any

$_ZNK10btSoftBody6LJoint4TypeEv = comdat any

$_ZN10btSoftBody6AJointD0Ev = comdat any

$_ZNK10btSoftBody6AJoint4TypeEv = comdat any

$_ZN10btSoftBody15RayFromToCasterD0Ev = comdat any

$_ZN6btDbvt8ICollide7ProcessEPK10btDbvtNodeS3_ = comdat any

$_ZN6btDbvt8ICollide7ProcessEPK10btDbvtNodef = comdat any

$_ZN6btDbvt8ICollide7DescentEPK10btDbvtNode = comdat any

$_ZN6btDbvt8ICollide9AllLeavesEPK10btDbvtNode = comdat any

$_ZN20btAlignedObjectArrayIN10btSoftBody8ePSolver1_EED2Ev = comdat any

$_ZN20btAlignedObjectArrayIN10btSoftBody8eVSolver1_EED2Ev = comdat any

$_ZN24btSoftBodyCollisionShapeD0Ev = comdat any

$_ZNK24btSoftBodyCollisionShape7getAabbERK11btTransformR9btVector3S4_ = comdat any

$_ZN24btSoftBodyCollisionShape15setLocalScalingERK9btVector3 = comdat any

$_ZNK24btSoftBodyCollisionShape15getLocalScalingEv = comdat any

$_ZNK24btSoftBodyCollisionShape21calculateLocalInertiaEfR9btVector3 = comdat any

$_ZNK24btSoftBodyCollisionShape7getNameEv = comdat any

$_ZN14btConcaveShape9setMarginEf = comdat any

$_ZNK14btConcaveShape9getMarginEv = comdat any

$_ZNK24btSoftBodyCollisionShape19processAllTrianglesEP18btTriangleCallbackRK9btVector3S4_ = comdat any

$_ZN11btMatrix3x311getIdentityEv = comdat any

$_ZN20btAlignedObjectArrayIPN10btSoftBody4NodeEED2Ev = comdat any

$_ZN6btDbvt8ICollideD2Ev = comdat any

$_ZN6btDbvt8ICollide7ProcessEPK10btDbvtNode = comdat any

$_ZNK10btSoftBody4Body13applyVImpulseERK9btVector3S3_ = comdat any

$_ZNK10btSoftBody4Body14applyVAImpulseERK9btVector3 = comdat any

$_ZN15btSoftColliders13CollideSDF_RSD0Ev = comdat any

$_ZN15btSoftColliders13CollideSDF_RS7ProcessEPK10btDbvtNode = comdat any

$_ZNK15btSoftColliders13CollideSDF_RS6DoNodeERN10btSoftBody4NodeE = comdat any

$_ZN20btAlignedObjectArrayIN10btSoftBody8RContactEE9push_backERKS1_ = comdat any

$_ZN15btSoftColliders12CollideCL_RSD0Ev = comdat any

$_ZN15btSoftColliders12CollideCL_RS7ProcessEPK10btDbvtNode = comdat any

$_ZN15btSoftColliders11ClusterBase12SolveContactERKN15btGjkEpaSolver28sResultsEN10btSoftBody4BodyES6_RNS5_6CJointE = comdat any

$_ZN27btSoftClusterCollisionShapeD0Ev = comdat any

$_ZNK27btSoftClusterCollisionShape7getAabbERK11btTransformR9btVector3S4_ = comdat any

$_ZNK21btConvexInternalShape15getLocalScalingEv = comdat any

$_ZNK27btSoftClusterCollisionShape21calculateLocalInertiaEfR9btVector3 = comdat any

$_ZNK27btSoftClusterCollisionShape7getNameEv = comdat any

$_ZN27btSoftClusterCollisionShape9setMarginEf = comdat any

$_ZNK27btSoftClusterCollisionShape9getMarginEv = comdat any

$_ZNK27btSoftClusterCollisionShape24localGetSupportingVertexERK9btVector3 = comdat any

$_ZNK27btSoftClusterCollisionShape37localGetSupportingVertexWithoutMarginERK9btVector3 = comdat any

$_ZNK27btSoftClusterCollisionShape49batchedUnitVectorGetSupportingVertexWithoutMarginEPK9btVector3PS0_i = comdat any

$_ZNK21btConvexInternalShape36getNumPreferredPenetrationDirectionsEv = comdat any

$_ZNK21btConvexInternalShape32getPreferredPenetrationDirectionEiR9btVector3 = comdat any

$_ZNK27btSoftClusterCollisionShape12getShapeTypeEv = comdat any

$_ZN15btSoftColliders12CollideCL_SSD0Ev = comdat any

$_ZN15btSoftColliders12CollideCL_SS7ProcessEPK10btDbvtNodeS3_ = comdat any

$_ZN15btSoftColliders12CollideVF_SSD0Ev = comdat any

$_ZN15btSoftColliders12CollideVF_SS7ProcessEPK10btDbvtNodeS3_ = comdat any

$_ZN20btAlignedObjectArrayI9NodeLinksE7reserveEi = comdat any

$_ZN11btSparseSdfILi3EE9BuildCellERNS0_4CellE = comdat any

$_ZTSN6btDbvt8ICollideE = comdat any

$_ZTIN6btDbvt8ICollideE = comdat any

$_ZTV24btSoftBodyCollisionShape = comdat any

$_ZTS24btSoftBodyCollisionShape = comdat any

$_ZTI24btSoftBodyCollisionShape = comdat any

$_ZZNK24btSoftBodyCollisionShape15getLocalScalingEvE5dummy = comdat any

$_ZGVZNK24btSoftBodyCollisionShape15getLocalScalingEvE5dummy = comdat any

$_ZZNK10btSoftBody4Body5xformEvE8identity = comdat any

$_ZGVZNK10btSoftBody4Body5xformEvE8identity = comdat any

$_ZZN11btTransform11getIdentityEvE17identityTransform = comdat any

$_ZGVZN11btTransform11getIdentityEvE17identityTransform = comdat any

$_ZZN11btMatrix3x311getIdentityEvE14identityMatrix = comdat any

$_ZGVZN11btMatrix3x311getIdentityEvE14identityMatrix = comdat any

$_ZZNK10btSoftBody4Body15invWorldInertiaEvE3iwi = comdat any

$_ZGVZNK10btSoftBody4Body15invWorldInertiaEvE3iwi = comdat any

$_ZTVN15btSoftColliders13CollideSDF_RSE = comdat any

$_ZTSN15btSoftColliders13CollideSDF_RSE = comdat any

$_ZTIN15btSoftColliders13CollideSDF_RSE = comdat any

$_ZZNK15btSoftColliders13CollideSDF_RS6DoNodeERN10btSoftBody4NodeEE9iwiStatic = comdat any

$_ZGVZNK15btSoftColliders13CollideSDF_RS6DoNodeERN10btSoftBody4NodeEE9iwiStatic = comdat any

$_ZTVN15btSoftColliders12CollideCL_RSE = comdat any

$_ZTSN15btSoftColliders12CollideCL_RSE = comdat any

$_ZTSN15btSoftColliders11ClusterBaseE = comdat any

$_ZTIN15btSoftColliders11ClusterBaseE = comdat any

$_ZTIN15btSoftColliders12CollideCL_RSE = comdat any

$_ZTV27btSoftClusterCollisionShape = comdat any

$_ZTS27btSoftClusterCollisionShape = comdat any

$_ZTI27btSoftClusterCollisionShape = comdat any

$_ZTVN15btSoftColliders12CollideCL_SSE = comdat any

$_ZTSN15btSoftColliders12CollideCL_SSE = comdat any

$_ZTIN15btSoftColliders12CollideCL_SSE = comdat any

$_ZZN15btSoftColliders12CollideCL_SS7ProcessEPK10btDbvtNodeS3_E5count = comdat any

$_ZTVN15btSoftColliders12CollideVF_SSE = comdat any

$_ZTSN15btSoftColliders12CollideVF_SSE = comdat any

$_ZTIN15btSoftColliders12CollideVF_SSE = comdat any

@_ZTV10btSoftBody = dso_local unnamed_addr constant { [7 x ptr] } { [7 x ptr] [ptr null, ptr @_ZTI10btSoftBody, ptr @_ZN17btCollisionObject24checkCollideWithOverrideEPS_, ptr @_ZN10btSoftBodyD2Ev, ptr @_ZN10btSoftBodyD0Ev, ptr @_ZN10btSoftBody17setCollisionShapeEP16btCollisionShape, ptr @_ZNK10btSoftBody7getAabbER9btVector3S1_] }, align 8
@_ZTVN10btSoftBody15RayFromToCasterE = dso_local unnamed_addr constant { [9 x ptr] } { [9 x ptr] [ptr null, ptr @_ZTIN10btSoftBody15RayFromToCasterE, ptr @_ZN6btDbvt8ICollideD2Ev, ptr @_ZN10btSoftBody15RayFromToCasterD0Ev, ptr @_ZN6btDbvt8ICollide7ProcessEPK10btDbvtNodeS3_, ptr @_ZN10btSoftBody15RayFromToCaster7ProcessEPK10btDbvtNode, ptr @_ZN6btDbvt8ICollide7ProcessEPK10btDbvtNodef, ptr @_ZN6btDbvt8ICollide7DescentEPK10btDbvtNode, ptr @_ZN6btDbvt8ICollide9AllLeavesEPK10btDbvtNode] }, align 8
@.str = private unnamed_addr constant [15 x i8] c"UpdateClusters\00", align 1
@.str.1 = private unnamed_addr constant [14 x i8] c"ApplyClusters\00", align 1
@.str.2 = private unnamed_addr constant [21 x i8] c"SoftBody applyForces\00", align 1
@_ZTVN10btSoftBody5JointE = dso_local unnamed_addr constant { [8 x ptr] } { [8 x ptr] [ptr null, ptr @_ZTIN10btSoftBody5JointE, ptr @_ZN10btSoftBody5JointD2Ev, ptr @_ZN10btSoftBody5JointD0Ev, ptr @_ZN10btSoftBody5Joint7PrepareEfi, ptr @__cxa_pure_virtual, ptr @__cxa_pure_virtual, ptr @__cxa_pure_virtual] }, align 8
@_ZTVN10__cxxabiv117__class_type_infoE = external global ptr
@_ZTSN10btSoftBody5JointE = dso_local constant [21 x i8] c"N10btSoftBody5JointE\00", align 1
@_ZTIN10btSoftBody5JointE = dso_local constant { ptr, ptr } { ptr getelementptr inbounds (ptr, ptr @_ZTVN10__cxxabiv117__class_type_infoE, i64 2), ptr @_ZTSN10btSoftBody5JointE }, align 8
@_ZTVN10btSoftBody6CJointE = dso_local unnamed_addr constant { [8 x ptr] } { [8 x ptr] [ptr null, ptr @_ZTIN10btSoftBody6CJointE, ptr @_ZN10btSoftBody5JointD2Ev, ptr @_ZN10btSoftBody6CJointD0Ev, ptr @_ZN10btSoftBody6CJoint7PrepareEfi, ptr @_ZN10btSoftBody6CJoint5SolveEff, ptr @_ZN10btSoftBody6CJoint9TerminateEf, ptr @_ZNK10btSoftBody6CJoint4TypeEv] }, align 8
@_ZTVN10__cxxabiv120__si_class_type_infoE = external global ptr
@_ZTSN10btSoftBody6CJointE = dso_local constant [22 x i8] c"N10btSoftBody6CJointE\00", align 1
@_ZTIN10btSoftBody6CJointE = dso_local constant { ptr, ptr, ptr } { ptr getelementptr inbounds (ptr, ptr @_ZTVN10__cxxabiv120__si_class_type_infoE, i64 2), ptr @_ZTSN10btSoftBody6CJointE, ptr @_ZTIN10btSoftBody5JointE }, align 8
@_ZTS10btSoftBody = dso_local constant [13 x i8] c"10btSoftBody\00", align 1
@_ZTI17btCollisionObject = external constant ptr
@_ZTI10btSoftBody = dso_local constant { ptr, ptr, ptr } { ptr getelementptr inbounds (ptr, ptr @_ZTVN10__cxxabiv120__si_class_type_infoE, i64 2), ptr @_ZTS10btSoftBody, ptr @_ZTI17btCollisionObject }, align 8
@_ZTVN10btSoftBody6LJointE = dso_local unnamed_addr constant { [8 x ptr] } { [8 x ptr] [ptr null, ptr @_ZTIN10btSoftBody6LJointE, ptr @_ZN10btSoftBody5JointD2Ev, ptr @_ZN10btSoftBody6LJointD0Ev, ptr @_ZN10btSoftBody6LJoint7PrepareEfi, ptr @_ZN10btSoftBody6LJoint5SolveEff, ptr @_ZN10btSoftBody6LJoint9TerminateEf, ptr @_ZNK10btSoftBody6LJoint4TypeEv] }, align 8
@_ZTSN10btSoftBody6LJointE = dso_local constant [22 x i8] c"N10btSoftBody6LJointE\00", align 1
@_ZTIN10btSoftBody6LJointE = dso_local constant { ptr, ptr, ptr } { ptr getelementptr inbounds (ptr, ptr @_ZTVN10__cxxabiv120__si_class_type_infoE, i64 2), ptr @_ZTSN10btSoftBody6LJointE, ptr @_ZTIN10btSoftBody5JointE }, align 8
@_ZTVN10btSoftBody6AJointE = dso_local unnamed_addr constant { [8 x ptr] } { [8 x ptr] [ptr null, ptr @_ZTIN10btSoftBody6AJointE, ptr @_ZN10btSoftBody5JointD2Ev, ptr @_ZN10btSoftBody6AJointD0Ev, ptr @_ZN10btSoftBody6AJoint7PrepareEfi, ptr @_ZN10btSoftBody6AJoint5SolveEff, ptr @_ZN10btSoftBody6AJoint9TerminateEf, ptr @_ZNK10btSoftBody6AJoint4TypeEv] }, align 8
@_ZTSN10btSoftBody6AJointE = dso_local constant [22 x i8] c"N10btSoftBody6AJointE\00", align 1
@_ZTIN10btSoftBody6AJointE = dso_local constant { ptr, ptr, ptr } { ptr getelementptr inbounds (ptr, ptr @_ZTVN10__cxxabiv120__si_class_type_infoE, i64 2), ptr @_ZTSN10btSoftBody6AJointE, ptr @_ZTIN10btSoftBody5JointE }, align 8
@_ZTSN10btSoftBody15RayFromToCasterE = dso_local constant [32 x i8] c"N10btSoftBody15RayFromToCasterE\00", align 1
@_ZTSN6btDbvt8ICollideE = linkonce_odr dso_local constant [19 x i8] c"N6btDbvt8ICollideE\00", comdat, align 1
@_ZTIN6btDbvt8ICollideE = linkonce_odr dso_local constant { ptr, ptr } { ptr getelementptr inbounds (ptr, ptr @_ZTVN10__cxxabiv117__class_type_infoE, i64 2), ptr @_ZTSN6btDbvt8ICollideE }, comdat, align 8
@_ZTIN10btSoftBody15RayFromToCasterE = dso_local constant { ptr, ptr, ptr } { ptr getelementptr inbounds (ptr, ptr @_ZTVN10__cxxabiv120__si_class_type_infoE, i64 2), ptr @_ZTSN10btSoftBody15RayFromToCasterE, ptr @_ZTIN6btDbvt8ICollideE }, align 8
@_ZTV24btSoftBodyCollisionShape = linkonce_odr dso_local unnamed_addr constant { [15 x ptr] } { [15 x ptr] [ptr null, ptr @_ZTI24btSoftBodyCollisionShape, ptr @_ZN14btConcaveShapeD2Ev, ptr @_ZN24btSoftBodyCollisionShapeD0Ev, ptr @_ZNK24btSoftBodyCollisionShape7getAabbERK11btTransformR9btVector3S4_, ptr @_ZNK16btCollisionShape17getBoundingSphereER9btVector3Rf, ptr @_ZNK16btCollisionShape20getAngularMotionDiscEv, ptr @_ZNK16btCollisionShape27getContactBreakingThresholdEv, ptr @_ZN24btSoftBodyCollisionShape15setLocalScalingERK9btVector3, ptr @_ZNK24btSoftBodyCollisionShape15getLocalScalingEv, ptr @_ZNK24btSoftBodyCollisionShape21calculateLocalInertiaEfR9btVector3, ptr @_ZNK24btSoftBodyCollisionShape7getNameEv, ptr @_ZN14btConcaveShape9setMarginEf, ptr @_ZNK14btConcaveShape9getMarginEv, ptr @_ZNK24btSoftBodyCollisionShape19processAllTrianglesEP18btTriangleCallbackRK9btVector3S4_] }, comdat, align 8
@_ZTS24btSoftBodyCollisionShape = linkonce_odr dso_local constant [27 x i8] c"24btSoftBodyCollisionShape\00", comdat, align 1
@_ZTI14btConcaveShape = external constant ptr
@_ZTI24btSoftBodyCollisionShape = linkonce_odr dso_local constant { ptr, ptr, ptr } { ptr getelementptr inbounds (ptr, ptr @_ZTVN10__cxxabiv120__si_class_type_infoE, i64 2), ptr @_ZTS24btSoftBodyCollisionShape, ptr @_ZTI14btConcaveShape }, comdat, align 8
@_ZZNK24btSoftBodyCollisionShape15getLocalScalingEvE5dummy = linkonce_odr dso_local global %class.btVector3 zeroinitializer, comdat, align 4
@_ZGVZNK24btSoftBodyCollisionShape15getLocalScalingEvE5dummy = linkonce_odr dso_local global i64 0, comdat, align 8
@.str.3 = private unnamed_addr constant [9 x i8] c"SoftBody\00", align 1
@_ZZNK10btSoftBody4Body5xformEvE8identity = linkonce_odr dso_local global %class.btTransform zeroinitializer, comdat, align 4
@_ZGVZNK10btSoftBody4Body5xformEvE8identity = linkonce_odr dso_local global i64 0, comdat, align 8
@_ZZN11btTransform11getIdentityEvE17identityTransform = linkonce_odr dso_local global %class.btTransform zeroinitializer, comdat, align 4
@_ZGVZN11btTransform11getIdentityEvE17identityTransform = linkonce_odr dso_local global i64 0, comdat, align 8
@_ZZN11btMatrix3x311getIdentityEvE14identityMatrix = linkonce_odr dso_local global %class.btMatrix3x3 zeroinitializer, comdat, align 4
@_ZGVZN11btMatrix3x311getIdentityEvE14identityMatrix = linkonce_odr dso_local global i64 0, comdat, align 8
@_ZZNK10btSoftBody4Body15invWorldInertiaEvE3iwi = linkonce_odr dso_local global %class.btMatrix3x3 zeroinitializer, comdat, align 4
@_ZGVZNK10btSoftBody4Body15invWorldInertiaEvE3iwi = linkonce_odr dso_local global i64 0, comdat, align 8
@_ZTVN15btSoftColliders13CollideSDF_RSE = linkonce_odr dso_local unnamed_addr constant { [9 x ptr] } { [9 x ptr] [ptr null, ptr @_ZTIN15btSoftColliders13CollideSDF_RSE, ptr @_ZN6btDbvt8ICollideD2Ev, ptr @_ZN15btSoftColliders13CollideSDF_RSD0Ev, ptr @_ZN6btDbvt8ICollide7ProcessEPK10btDbvtNodeS3_, ptr @_ZN15btSoftColliders13CollideSDF_RS7ProcessEPK10btDbvtNode, ptr @_ZN6btDbvt8ICollide7ProcessEPK10btDbvtNodef, ptr @_ZN6btDbvt8ICollide7DescentEPK10btDbvtNode, ptr @_ZN6btDbvt8ICollide9AllLeavesEPK10btDbvtNode] }, comdat, align 8
@_ZTSN15btSoftColliders13CollideSDF_RSE = linkonce_odr dso_local constant [35 x i8] c"N15btSoftColliders13CollideSDF_RSE\00", comdat, align 1
@_ZTIN15btSoftColliders13CollideSDF_RSE = linkonce_odr dso_local constant { ptr, ptr, ptr } { ptr getelementptr inbounds (ptr, ptr @_ZTVN10__cxxabiv120__si_class_type_infoE, i64 2), ptr @_ZTSN15btSoftColliders13CollideSDF_RSE, ptr @_ZTIN6btDbvt8ICollideE }, comdat, align 8
@_ZZNK15btSoftColliders13CollideSDF_RS6DoNodeERN10btSoftBody4NodeEE9iwiStatic = linkonce_odr dso_local global %class.btMatrix3x3 zeroinitializer, comdat, align 4
@_ZGVZNK15btSoftColliders13CollideSDF_RS6DoNodeERN10btSoftBody4NodeEE9iwiStatic = linkonce_odr dso_local global i64 0, comdat, align 8
@_ZTVN15btSoftColliders12CollideCL_RSE = linkonce_odr dso_local unnamed_addr constant { [9 x ptr] } { [9 x ptr] [ptr null, ptr @_ZTIN15btSoftColliders12CollideCL_RSE, ptr @_ZN6btDbvt8ICollideD2Ev, ptr @_ZN15btSoftColliders12CollideCL_RSD0Ev, ptr @_ZN6btDbvt8ICollide7ProcessEPK10btDbvtNodeS3_, ptr @_ZN15btSoftColliders12CollideCL_RS7ProcessEPK10btDbvtNode, ptr @_ZN6btDbvt8ICollide7ProcessEPK10btDbvtNodef, ptr @_ZN6btDbvt8ICollide7DescentEPK10btDbvtNode, ptr @_ZN6btDbvt8ICollide9AllLeavesEPK10btDbvtNode] }, comdat, align 8
@_ZTSN15btSoftColliders12CollideCL_RSE = linkonce_odr dso_local constant [34 x i8] c"N15btSoftColliders12CollideCL_RSE\00", comdat, align 1
@_ZTSN15btSoftColliders11ClusterBaseE = linkonce_odr dso_local constant [33 x i8] c"N15btSoftColliders11ClusterBaseE\00", comdat, align 1
@_ZTIN15btSoftColliders11ClusterBaseE = linkonce_odr dso_local constant { ptr, ptr, ptr } { ptr getelementptr inbounds (ptr, ptr @_ZTVN10__cxxabiv120__si_class_type_infoE, i64 2), ptr @_ZTSN15btSoftColliders11ClusterBaseE, ptr @_ZTIN6btDbvt8ICollideE }, comdat, align 8
@_ZTIN15btSoftColliders12CollideCL_RSE = linkonce_odr dso_local constant { ptr, ptr, ptr } { ptr getelementptr inbounds (ptr, ptr @_ZTVN10__cxxabiv120__si_class_type_infoE, i64 2), ptr @_ZTSN15btSoftColliders12CollideCL_RSE, ptr @_ZTIN15btSoftColliders11ClusterBaseE }, comdat, align 8
@_ZTV27btSoftClusterCollisionShape = linkonce_odr dso_local unnamed_addr constant { [21 x ptr] } { [21 x ptr] [ptr null, ptr @_ZTI27btSoftClusterCollisionShape, ptr @_ZN13btConvexShapeD2Ev, ptr @_ZN27btSoftClusterCollisionShapeD0Ev, ptr @_ZNK27btSoftClusterCollisionShape7getAabbERK11btTransformR9btVector3S4_, ptr @_ZNK16btCollisionShape17getBoundingSphereER9btVector3Rf, ptr @_ZNK16btCollisionShape20getAngularMotionDiscEv, ptr @_ZNK16btCollisionShape27getContactBreakingThresholdEv, ptr @_ZN21btConvexInternalShape15setLocalScalingERK9btVector3, ptr @_ZNK21btConvexInternalShape15getLocalScalingEv, ptr @_ZNK27btSoftClusterCollisionShape21calculateLocalInertiaEfR9btVector3, ptr @_ZNK27btSoftClusterCollisionShape7getNameEv, ptr @_ZN27btSoftClusterCollisionShape9setMarginEf, ptr @_ZNK27btSoftClusterCollisionShape9getMarginEv, ptr @_ZNK27btSoftClusterCollisionShape24localGetSupportingVertexERK9btVector3, ptr @_ZNK27btSoftClusterCollisionShape37localGetSupportingVertexWithoutMarginERK9btVector3, ptr @_ZNK27btSoftClusterCollisionShape49batchedUnitVectorGetSupportingVertexWithoutMarginEPK9btVector3PS0_i, ptr @_ZNK21btConvexInternalShape11getAabbSlowERK11btTransformR9btVector3S4_, ptr @_ZNK21btConvexInternalShape36getNumPreferredPenetrationDirectionsEv, ptr @_ZNK21btConvexInternalShape32getPreferredPenetrationDirectionEiR9btVector3, ptr @_ZNK27btSoftClusterCollisionShape12getShapeTypeEv] }, comdat, align 8
@_ZTS27btSoftClusterCollisionShape = linkonce_odr dso_local constant [30 x i8] c"27btSoftClusterCollisionShape\00", comdat, align 1
@_ZTI21btConvexInternalShape = external constant ptr
@_ZTI27btSoftClusterCollisionShape = linkonce_odr dso_local constant { ptr, ptr, ptr } { ptr getelementptr inbounds (ptr, ptr @_ZTVN10__cxxabiv120__si_class_type_infoE, i64 2), ptr @_ZTS27btSoftClusterCollisionShape, ptr @_ZTI21btConvexInternalShape }, comdat, align 8
@.str.4 = private unnamed_addr constant [12 x i8] c"SOFTCLUSTER\00", align 1
@_ZTVN15btSoftColliders12CollideCL_SSE = linkonce_odr dso_local unnamed_addr constant { [9 x ptr] } { [9 x ptr] [ptr null, ptr @_ZTIN15btSoftColliders12CollideCL_SSE, ptr @_ZN6btDbvt8ICollideD2Ev, ptr @_ZN15btSoftColliders12CollideCL_SSD0Ev, ptr @_ZN15btSoftColliders12CollideCL_SS7ProcessEPK10btDbvtNodeS3_, ptr @_ZN6btDbvt8ICollide7ProcessEPK10btDbvtNode, ptr @_ZN6btDbvt8ICollide7ProcessEPK10btDbvtNodef, ptr @_ZN6btDbvt8ICollide7DescentEPK10btDbvtNode, ptr @_ZN6btDbvt8ICollide9AllLeavesEPK10btDbvtNode] }, comdat, align 8
@_ZTSN15btSoftColliders12CollideCL_SSE = linkonce_odr dso_local constant [34 x i8] c"N15btSoftColliders12CollideCL_SSE\00", comdat, align 1
@_ZTIN15btSoftColliders12CollideCL_SSE = linkonce_odr dso_local constant { ptr, ptr, ptr } { ptr getelementptr inbounds (ptr, ptr @_ZTVN10__cxxabiv120__si_class_type_infoE, i64 2), ptr @_ZTSN15btSoftColliders12CollideCL_SSE, ptr @_ZTIN15btSoftColliders11ClusterBaseE }, comdat, align 8
@_ZZN15btSoftColliders12CollideCL_SS7ProcessEPK10btDbvtNodeS3_E5count = linkonce_odr dso_local local_unnamed_addr global i32 0, comdat, align 4
@_ZTVN15btSoftColliders12CollideVF_SSE = linkonce_odr dso_local unnamed_addr constant { [9 x ptr] } { [9 x ptr] [ptr null, ptr @_ZTIN15btSoftColliders12CollideVF_SSE, ptr @_ZN6btDbvt8ICollideD2Ev, ptr @_ZN15btSoftColliders12CollideVF_SSD0Ev, ptr @_ZN15btSoftColliders12CollideVF_SS7ProcessEPK10btDbvtNodeS3_, ptr @_ZN6btDbvt8ICollide7ProcessEPK10btDbvtNode, ptr @_ZN6btDbvt8ICollide7ProcessEPK10btDbvtNodef, ptr @_ZN6btDbvt8ICollide7DescentEPK10btDbvtNode, ptr @_ZN6btDbvt8ICollide9AllLeavesEPK10btDbvtNode] }, comdat, align 8
@_ZTSN15btSoftColliders12CollideVF_SSE = linkonce_odr dso_local constant [34 x i8] c"N15btSoftColliders12CollideVF_SSE\00", comdat, align 1
@_ZTIN15btSoftColliders12CollideVF_SSE = linkonce_odr dso_local constant { ptr, ptr, ptr } { ptr getelementptr inbounds (ptr, ptr @_ZTVN10__cxxabiv120__si_class_type_infoE, i64 2), ptr @_ZTSN15btSoftColliders12CollideVF_SSE, ptr @_ZTIN6btDbvt8ICollideE }, comdat, align 8
@_ZZL14ZeroInitializeIN10btSoftBody4NodeEEvRT_E9zerodummy = internal global %"struct.btSoftBody::Node" zeroinitializer, align 8
@_ZGVZL14ZeroInitializeIN10btSoftBody4NodeEEvRT_E9zerodummy = internal global i64 0, align 8
@_ZZL14ZeroInitializeIN10btSoftBody8MaterialEEvRT_E9zerodummy = internal global %"struct.btSoftBody::Material" zeroinitializer, align 8
@_ZGVZL14ZeroInitializeIN10btSoftBody8MaterialEEvRT_E9zerodummy = internal global i64 0, align 8
@_ZZL14ZeroInitializeIN10btSoftBody4NoteEEvRT_E9zerodummy = internal global %"struct.btSoftBody::Note" zeroinitializer, align 8
@_ZGVZL14ZeroInitializeIN10btSoftBody4NoteEEvRT_E9zerodummy = internal global i64 0, align 8
@_ZZL14ZeroInitializeIN10btSoftBody4LinkEEvRT_E9zerodummy = internal global %"struct.btSoftBody::Link" zeroinitializer, align 8
@_ZGVZL14ZeroInitializeIN10btSoftBody4LinkEEvRT_E9zerodummy = internal global i64 0, align 8
@_ZZL14ZeroInitializeIN10btSoftBody4FaceEEvRT_E9zerodummy = internal global %"struct.btSoftBody::Face" zeroinitializer, align 8
@_ZGVZL14ZeroInitializeIN10btSoftBody4FaceEEvRT_E9zerodummy = internal global i64 0, align 8
@_ZZL14ZeroInitializeIN10btSoftBody5TetraEEvRT_E9zerodummy = internal global %"struct.btSoftBody::Tetra" zeroinitializer, align 8
@_ZGVZL14ZeroInitializeIN10btSoftBody5TetraEEvRT_E9zerodummy = internal global i64 0, align 8
@switch.table._ZN10btSoftBody11staticSolveEi = private unnamed_addr constant [4 x ptr] [ptr @_ZN10btSoftBody12PSolve_LinksEPS_ff, ptr @_ZN10btSoftBody14PSolve_AnchorsEPS_ff, ptr @_ZN10btSoftBody16PSolve_RContactsEPS_ff, ptr @_ZN10btSoftBody16PSolve_SContactsEPS_ff], align 8

@_ZN10btSoftBodyC1EP19btSoftBodyWorldInfoiPK9btVector3PKf = dso_local unnamed_addr alias void (ptr, ptr, i32, ptr, ptr), ptr @_ZN10btSoftBodyC2EP19btSoftBodyWorldInfoiPK9btVector3PKf
@_ZN10btSoftBodyD1Ev = dso_local unnamed_addr alias void (ptr), ptr @_ZN10btSoftBodyD2Ev
@_ZN10btSoftBody15RayFromToCasterC1ERK9btVector3S3_f = dso_local unnamed_addr alias void (ptr, ptr, ptr, float), ptr @_ZN10btSoftBody15RayFromToCasterC2ERK9btVector3S3_f

; Function Attrs: uwtable
define dso_local void @_ZN10btSoftBodyC2EP19btSoftBodyWorldInfoiPK9btVector3PKf(ptr noundef nonnull align 8 dereferenceable(1496) %this, ptr noundef %worldInfo, i32 noundef %node_count, ptr noundef readonly %x, ptr noundef readonly %m) unnamed_addr #0 align 2 personality ptr @__gxx_personality_v0 {
entry:
  %ref.tmp143 = alloca %struct.btDbvtAabbMm, align 8
  tail call void @_ZN17btCollisionObjectC2Ev(ptr noundef nonnull align 8 dereferenceable(280) %this)
  store ptr getelementptr inbounds ({ [7 x ptr] }, ptr @_ZTV10btSoftBody, i64 0, inrange i32 0, i64 2), ptr %this, align 8, !tbaa !5
  %m_ownsMemory.i.i = getelementptr inbounds %class.btSoftBody, ptr %this, i64 0, i32 1, i32 6
  store i8 1, ptr %m_ownsMemory.i.i, align 8, !tbaa !8
  %m_data.i.i = getelementptr inbounds %class.btSoftBody, ptr %this, i64 0, i32 1, i32 5
  store ptr null, ptr %m_data.i.i, align 8, !tbaa !15
  %m_size.i.i = getelementptr inbounds %class.btSoftBody, ptr %this, i64 0, i32 1, i32 2
  store i32 0, ptr %m_size.i.i, align 4, !tbaa !16
  %m_capacity.i.i = getelementptr inbounds %class.btSoftBody, ptr %this, i64 0, i32 1, i32 3
  store i32 0, ptr %m_capacity.i.i, align 8, !tbaa !17
  %m_ownsMemory.i.i.i = getelementptr inbounds %class.btSoftBody, ptr %this, i64 0, i32 2, i32 26, i32 6
  store i8 1, ptr %m_ownsMemory.i.i.i, align 8, !tbaa !18
  %m_data.i.i.i = getelementptr inbounds %class.btSoftBody, ptr %this, i64 0, i32 2, i32 26, i32 5
  store ptr null, ptr %m_data.i.i.i, align 8, !tbaa !21
  %m_size.i.i.i = getelementptr inbounds %class.btSoftBody, ptr %this, i64 0, i32 2, i32 26, i32 2
  store i32 0, ptr %m_size.i.i.i, align 4, !tbaa !22
  %m_capacity.i.i.i = getelementptr inbounds %class.btSoftBody, ptr %this, i64 0, i32 2, i32 26, i32 3
  store i32 0, ptr %m_capacity.i.i.i, align 8, !tbaa !23
  %m_ownsMemory.i.i7.i = getelementptr inbounds %class.btSoftBody, ptr %this, i64 0, i32 2, i32 27, i32 6
  store i8 1, ptr %m_ownsMemory.i.i7.i, align 8, !tbaa !24
  %m_data.i.i8.i = getelementptr inbounds %class.btSoftBody, ptr %this, i64 0, i32 2, i32 27, i32 5
  store ptr null, ptr %m_data.i.i8.i, align 8, !tbaa !27
  %m_size.i.i9.i = getelementptr inbounds %class.btSoftBody, ptr %this, i64 0, i32 2, i32 27, i32 2
  store i32 0, ptr %m_size.i.i9.i, align 4, !tbaa !28
  %m_capacity.i.i10.i = getelementptr inbounds %class.btSoftBody, ptr %this, i64 0, i32 2, i32 27, i32 3
  store i32 0, ptr %m_capacity.i.i10.i, align 8, !tbaa !29
  %m_ownsMemory.i.i11.i = getelementptr inbounds %class.btSoftBody, ptr %this, i64 0, i32 2, i32 28, i32 6
  store i8 1, ptr %m_ownsMemory.i.i11.i, align 8, !tbaa !24
  %m_data.i.i12.i = getelementptr inbounds %class.btSoftBody, ptr %this, i64 0, i32 2, i32 28, i32 5
  store ptr null, ptr %m_data.i.i12.i, align 8, !tbaa !27
  %m_size.i.i13.i = getelementptr inbounds %class.btSoftBody, ptr %this, i64 0, i32 2, i32 28, i32 2
  store i32 0, ptr %m_size.i.i13.i, align 4, !tbaa !28
  %m_capacity.i.i14.i = getelementptr inbounds %class.btSoftBody, ptr %this, i64 0, i32 2, i32 28, i32 3
  store i32 0, ptr %m_capacity.i.i14.i, align 8, !tbaa !29
  %m_ownsMemory.i.i.i217 = getelementptr inbounds %class.btSoftBody, ptr %this, i64 0, i32 5, i32 3, i32 6
  store i8 1, ptr %m_ownsMemory.i.i.i217, align 8, !tbaa !30
  %m_data.i.i.i218 = getelementptr inbounds %class.btSoftBody, ptr %this, i64 0, i32 5, i32 3, i32 5
  store ptr null, ptr %m_data.i.i.i218, align 8, !tbaa !33
  %m_size.i.i.i219 = getelementptr inbounds %class.btSoftBody, ptr %this, i64 0, i32 5, i32 3, i32 2
  store i32 0, ptr %m_size.i.i.i219, align 4, !tbaa !34
  %m_capacity.i.i.i220 = getelementptr inbounds %class.btSoftBody, ptr %this, i64 0, i32 5, i32 3, i32 3
  store i32 0, ptr %m_capacity.i.i.i220, align 8, !tbaa !35
  %m_ownsMemory.i.i10.i = getelementptr inbounds %class.btSoftBody, ptr %this, i64 0, i32 5, i32 4, i32 6
  store i8 1, ptr %m_ownsMemory.i.i10.i, align 8, !tbaa !36
  %m_data.i.i11.i = getelementptr inbounds %class.btSoftBody, ptr %this, i64 0, i32 5, i32 4, i32 5
  store ptr null, ptr %m_data.i.i11.i, align 8, !tbaa !39
  %m_size.i.i12.i = getelementptr inbounds %class.btSoftBody, ptr %this, i64 0, i32 5, i32 4, i32 2
  store i32 0, ptr %m_size.i.i12.i, align 4, !tbaa !40
  %m_capacity.i.i13.i = getelementptr inbounds %class.btSoftBody, ptr %this, i64 0, i32 5, i32 4, i32 3
  store i32 0, ptr %m_capacity.i.i13.i, align 8, !tbaa !41
  %m_worldInfo = getelementptr inbounds %class.btSoftBody, ptr %this, i64 0, i32 7
  store ptr %worldInfo, ptr %m_worldInfo, align 8, !tbaa !42
  %m_ownsMemory.i.i221 = getelementptr inbounds %class.btSoftBody, ptr %this, i64 0, i32 8, i32 6
  store i8 1, ptr %m_ownsMemory.i.i221, align 8, !tbaa !82
  %m_data.i.i222 = getelementptr inbounds %class.btSoftBody, ptr %this, i64 0, i32 8, i32 5
  store ptr null, ptr %m_data.i.i222, align 8, !tbaa !83
  %m_size.i.i223 = getelementptr inbounds %class.btSoftBody, ptr %this, i64 0, i32 8, i32 2
  store i32 0, ptr %m_size.i.i223, align 4, !tbaa !84
  %m_capacity.i.i224 = getelementptr inbounds %class.btSoftBody, ptr %this, i64 0, i32 8, i32 3
  store i32 0, ptr %m_capacity.i.i224, align 8, !tbaa !85
  %m_ownsMemory.i.i225 = getelementptr inbounds %class.btSoftBody, ptr %this, i64 0, i32 9, i32 6
  store i8 1, ptr %m_ownsMemory.i.i225, align 8, !tbaa !86
  %m_data.i.i226 = getelementptr inbounds %class.btSoftBody, ptr %this, i64 0, i32 9, i32 5
  store ptr null, ptr %m_data.i.i226, align 8, !tbaa !87
  %m_size.i.i227 = getelementptr inbounds %class.btSoftBody, ptr %this, i64 0, i32 9, i32 2
  store i32 0, ptr %m_size.i.i227, align 4, !tbaa !88
  %m_capacity.i.i228 = getelementptr inbounds %class.btSoftBody, ptr %this, i64 0, i32 9, i32 3
  store i32 0, ptr %m_capacity.i.i228, align 8, !tbaa !89
  %m_ownsMemory.i.i229 = getelementptr inbounds %class.btSoftBody, ptr %this, i64 0, i32 10, i32 6
  store i8 1, ptr %m_ownsMemory.i.i229, align 8, !tbaa !90
  %m_data.i.i230 = getelementptr inbounds %class.btSoftBody, ptr %this, i64 0, i32 10, i32 5
  store ptr null, ptr %m_data.i.i230, align 8, !tbaa !91
  %m_size.i.i231 = getelementptr inbounds %class.btSoftBody, ptr %this, i64 0, i32 10, i32 2
  store i32 0, ptr %m_size.i.i231, align 4, !tbaa !92
  %m_capacity.i.i232 = getelementptr inbounds %class.btSoftBody, ptr %this, i64 0, i32 10, i32 3
  store i32 0, ptr %m_capacity.i.i232, align 8, !tbaa !93
  %m_ownsMemory.i.i233 = getelementptr inbounds %class.btSoftBody, ptr %this, i64 0, i32 11, i32 6
  store i8 1, ptr %m_ownsMemory.i.i233, align 8, !tbaa !94
  %m_data.i.i234 = getelementptr inbounds %class.btSoftBody, ptr %this, i64 0, i32 11, i32 5
  store ptr null, ptr %m_data.i.i234, align 8, !tbaa !95
  %m_size.i.i235 = getelementptr inbounds %class.btSoftBody, ptr %this, i64 0, i32 11, i32 2
  store i32 0, ptr %m_size.i.i235, align 4, !tbaa !96
  %m_capacity.i.i236 = getelementptr inbounds %class.btSoftBody, ptr %this, i64 0, i32 11, i32 3
  store i32 0, ptr %m_capacity.i.i236, align 8, !tbaa !97
  %m_ownsMemory.i.i237 = getelementptr inbounds %class.btSoftBody, ptr %this, i64 0, i32 12, i32 6
  store i8 1, ptr %m_ownsMemory.i.i237, align 8, !tbaa !98
  %m_data.i.i238 = getelementptr inbounds %class.btSoftBody, ptr %this, i64 0, i32 12, i32 5
  store ptr null, ptr %m_data.i.i238, align 8, !tbaa !99
  %m_size.i.i239 = getelementptr inbounds %class.btSoftBody, ptr %this, i64 0, i32 12, i32 2
  store i32 0, ptr %m_size.i.i239, align 4, !tbaa !100
  %m_capacity.i.i240 = getelementptr inbounds %class.btSoftBody, ptr %this, i64 0, i32 12, i32 3
  store i32 0, ptr %m_capacity.i.i240, align 8, !tbaa !101
  %m_ownsMemory.i.i241 = getelementptr inbounds %class.btSoftBody, ptr %this, i64 0, i32 13, i32 6
  store i8 1, ptr %m_ownsMemory.i.i241, align 8, !tbaa !102
  %m_data.i.i242 = getelementptr inbounds %class.btSoftBody, ptr %this, i64 0, i32 13, i32 5
  store ptr null, ptr %m_data.i.i242, align 8, !tbaa !103
  %m_size.i.i243 = getelementptr inbounds %class.btSoftBody, ptr %this, i64 0, i32 13, i32 2
  store i32 0, ptr %m_size.i.i243, align 4, !tbaa !104
  %m_capacity.i.i244 = getelementptr inbounds %class.btSoftBody, ptr %this, i64 0, i32 13, i32 3
  store i32 0, ptr %m_capacity.i.i244, align 8, !tbaa !105
  %m_ownsMemory.i.i245 = getelementptr inbounds %class.btSoftBody, ptr %this, i64 0, i32 14, i32 6
  store i8 1, ptr %m_ownsMemory.i.i245, align 8, !tbaa !106
  %m_data.i.i246 = getelementptr inbounds %class.btSoftBody, ptr %this, i64 0, i32 14, i32 5
  store ptr null, ptr %m_data.i.i246, align 8, !tbaa !107
  %m_size.i.i247 = getelementptr inbounds %class.btSoftBody, ptr %this, i64 0, i32 14, i32 2
  store i32 0, ptr %m_size.i.i247, align 4, !tbaa !108
  %m_capacity.i.i248 = getelementptr inbounds %class.btSoftBody, ptr %this, i64 0, i32 14, i32 3
  store i32 0, ptr %m_capacity.i.i248, align 8, !tbaa !109
  %m_ownsMemory.i.i249 = getelementptr inbounds %class.btSoftBody, ptr %this, i64 0, i32 15, i32 6
  store i8 1, ptr %m_ownsMemory.i.i249, align 8, !tbaa !110
  %m_data.i.i250 = getelementptr inbounds %class.btSoftBody, ptr %this, i64 0, i32 15, i32 5
  store ptr null, ptr %m_data.i.i250, align 8, !tbaa !111
  %m_size.i.i251 = getelementptr inbounds %class.btSoftBody, ptr %this, i64 0, i32 15, i32 2
  store i32 0, ptr %m_size.i.i251, align 4, !tbaa !112
  %m_capacity.i.i252 = getelementptr inbounds %class.btSoftBody, ptr %this, i64 0, i32 15, i32 3
  store i32 0, ptr %m_capacity.i.i252, align 8, !tbaa !113
  %m_ownsMemory.i.i253 = getelementptr inbounds %class.btSoftBody, ptr %this, i64 0, i32 16, i32 6
  store i8 1, ptr %m_ownsMemory.i.i253, align 8, !tbaa !114
  %m_data.i.i254 = getelementptr inbounds %class.btSoftBody, ptr %this, i64 0, i32 16, i32 5
  store ptr null, ptr %m_data.i.i254, align 8, !tbaa !115
  %m_size.i.i255 = getelementptr inbounds %class.btSoftBody, ptr %this, i64 0, i32 16, i32 2
  store i32 0, ptr %m_size.i.i255, align 4, !tbaa !116
  %m_capacity.i.i256 = getelementptr inbounds %class.btSoftBody, ptr %this, i64 0, i32 16, i32 3
  store i32 0, ptr %m_capacity.i.i256, align 8, !tbaa !117
  %m_ownsMemory.i.i257 = getelementptr inbounds %class.btSoftBody, ptr %this, i64 0, i32 17, i32 6
  store i8 1, ptr %m_ownsMemory.i.i257, align 8, !tbaa !118
  %m_data.i.i258 = getelementptr inbounds %class.btSoftBody, ptr %this, i64 0, i32 17, i32 5
  store ptr null, ptr %m_data.i.i258, align 8, !tbaa !119
  %m_size.i.i259 = getelementptr inbounds %class.btSoftBody, ptr %this, i64 0, i32 17, i32 2
  store i32 0, ptr %m_size.i.i259, align 4, !tbaa !120
  %m_capacity.i.i260 = getelementptr inbounds %class.btSoftBody, ptr %this, i64 0, i32 17, i32 3
  store i32 0, ptr %m_capacity.i.i260, align 8, !tbaa !121
  %m_bounds = getelementptr inbounds %class.btSoftBody, ptr %this, i64 0, i32 19
  %m_collisionDisabledObjects = getelementptr inbounds %class.btSoftBody, ptr %this, i64 0, i32 1
  %m_cfg = getelementptr inbounds %class.btSoftBody, ptr %this, i64 0, i32 2
  %m_pose = getelementptr inbounds %class.btSoftBody, ptr %this, i64 0, i32 5
  %m_notes = getelementptr inbounds %class.btSoftBody, ptr %this, i64 0, i32 8
  %m_nodes = getelementptr inbounds %class.btSoftBody, ptr %this, i64 0, i32 9
  %m_links = getelementptr inbounds %class.btSoftBody, ptr %this, i64 0, i32 10
  %m_faces = getelementptr inbounds %class.btSoftBody, ptr %this, i64 0, i32 11
  %m_tetras = getelementptr inbounds %class.btSoftBody, ptr %this, i64 0, i32 12
  %m_anchors = getelementptr inbounds %class.btSoftBody, ptr %this, i64 0, i32 13
  %m_rcontacts = getelementptr inbounds %class.btSoftBody, ptr %this, i64 0, i32 14
  %m_scontacts = getelementptr inbounds %class.btSoftBody, ptr %this, i64 0, i32 15
  %m_joints = getelementptr inbounds %class.btSoftBody, ptr %this, i64 0, i32 16
  %m_materials = getelementptr inbounds %class.btSoftBody, ptr %this, i64 0, i32 17
  %arrayctor.end = getelementptr inbounds %class.btSoftBody, ptr %this, i64 0, i32 20
  %m_ndbvt = getelementptr inbounds %class.btSoftBody, ptr %this, i64 0, i32 21
  invoke void @_ZN6btDbvtC1Ev(ptr noundef nonnull align 8 dereferenceable(64) %m_ndbvt)
          to label %invoke.cont28 unwind label %lpad26

invoke.cont28:                                    ; preds = %entry
  %m_fdbvt = getelementptr inbounds %class.btSoftBody, ptr %this, i64 0, i32 22
  invoke void @_ZN6btDbvtC1Ev(ptr noundef nonnull align 8 dereferenceable(64) %m_fdbvt)
          to label %invoke.cont30 unwind label %lpad29

invoke.cont30:                                    ; preds = %invoke.cont28
  %m_cdbvt = getelementptr inbounds %class.btSoftBody, ptr %this, i64 0, i32 23
  invoke void @_ZN6btDbvtC1Ev(ptr noundef nonnull align 8 dereferenceable(64) %m_cdbvt)
          to label %invoke.cont32 unwind label %lpad31

invoke.cont32:                                    ; preds = %invoke.cont30
  %m_clusters = getelementptr inbounds %class.btSoftBody, ptr %this, i64 0, i32 24
  %m_ownsMemory.i.i261 = getelementptr inbounds %class.btSoftBody, ptr %this, i64 0, i32 24, i32 6
  store i8 1, ptr %m_ownsMemory.i.i261, align 8, !tbaa !122
  %m_data.i.i262 = getelementptr inbounds %class.btSoftBody, ptr %this, i64 0, i32 24, i32 5
  store ptr null, ptr %m_data.i.i262, align 8, !tbaa !123
  %m_size.i.i263 = getelementptr inbounds %class.btSoftBody, ptr %this, i64 0, i32 24, i32 2
  store i32 0, ptr %m_size.i.i263, align 4, !tbaa !124
  %m_capacity.i.i264 = getelementptr inbounds %class.btSoftBody, ptr %this, i64 0, i32 24, i32 3
  store i32 0, ptr %m_capacity.i.i264, align 8, !tbaa !125
  %m_clusterConnectivity = getelementptr inbounds %class.btSoftBody, ptr %this, i64 0, i32 25
  %m_ownsMemory.i.i265 = getelementptr inbounds %class.btSoftBody, ptr %this, i64 0, i32 25, i32 6
  store i8 1, ptr %m_ownsMemory.i.i265, align 8, !tbaa !126
  %m_data.i.i266 = getelementptr inbounds %class.btSoftBody, ptr %this, i64 0, i32 25, i32 5
  store ptr null, ptr %m_data.i.i266, align 8, !tbaa !127
  %m_size.i.i267 = getelementptr inbounds %class.btSoftBody, ptr %this, i64 0, i32 25, i32 2
  store i32 0, ptr %m_size.i.i267, align 4, !tbaa !128
  %m_capacity.i.i268 = getelementptr inbounds %class.btSoftBody, ptr %this, i64 0, i32 25, i32 3
  store i32 0, ptr %m_capacity.i.i268, align 8, !tbaa !129
  %m_userIndexMapping = getelementptr inbounds %class.btSoftBody, ptr %this, i64 0, i32 27
  %m_ownsMemory.i.i269 = getelementptr inbounds %class.btSoftBody, ptr %this, i64 0, i32 27, i32 6
  store i8 1, ptr %m_ownsMemory.i.i269, align 8, !tbaa !130
  %m_data.i.i270 = getelementptr inbounds %class.btSoftBody, ptr %this, i64 0, i32 27, i32 5
  store ptr null, ptr %m_data.i.i270, align 8, !tbaa !131
  %m_size.i.i271 = getelementptr inbounds %class.btSoftBody, ptr %this, i64 0, i32 27, i32 2
  store i32 0, ptr %m_size.i.i271, align 4, !tbaa !132
  %m_capacity.i.i272 = getelementptr inbounds %class.btSoftBody, ptr %this, i64 0, i32 27, i32 3
  store i32 0, ptr %m_capacity.i.i272, align 8, !tbaa !133
  %m_internalType = getelementptr inbounds %class.btCollisionObject, ptr %this, i64 0, i32 19
  store i32 4, ptr %m_internalType, align 8, !tbaa !134
  store i32 0, ptr %m_cfg, align 8, !tbaa !135
  %kVCF = getelementptr inbounds %class.btSoftBody, ptr %this, i64 0, i32 2, i32 1
  store float 1.000000e+00, ptr %kVCF, align 4, !tbaa !136
  %kDP = getelementptr inbounds %class.btSoftBody, ptr %this, i64 0, i32 2, i32 2
  %kDF = getelementptr inbounds %class.btSoftBody, ptr %this, i64 0, i32 2, i32 7
  tail call void @llvm.memset.p0.i64(ptr noundef nonnull align 8 dereferenceable(20) %kDP, i8 0, i64 20, i1 false)
  store <2 x float> <float 0x3FC99999A0000000, float 0.000000e+00>, ptr %kDF, align 4, !tbaa !137
  %kCHR = getelementptr inbounds %class.btSoftBody, ptr %this, i64 0, i32 2, i32 9
  store float 1.000000e+00, ptr %kCHR, align 4, !tbaa !138
  %kKHR = getelementptr inbounds %class.btSoftBody, ptr %this, i64 0, i32 2, i32 10
  store <4 x float> <float 0x3FB99999A0000000, float 1.000000e+00, float 0x3FE6666660000000, float 0x3FB99999A0000000>, ptr %kKHR, align 8, !tbaa !137
  %kSKHR_CL = getelementptr inbounds %class.btSoftBody, ptr %this, i64 0, i32 2, i32 14
  store <4 x float> <float 1.000000e+00, float 5.000000e-01, float 5.000000e-01, float 5.000000e-01>, ptr %kSKHR_CL, align 8, !tbaa !137
  %kSS_SPLT_CL = getelementptr inbounds %class.btSoftBody, ptr %this, i64 0, i32 2, i32 18
  store <2 x float> <float 5.000000e-01, float 1.000000e+00>, ptr %kSS_SPLT_CL, align 8, !tbaa !137
  %timescale = getelementptr inbounds %class.btSoftBody, ptr %this, i64 0, i32 2, i32 20
  store float 1.000000e+00, ptr %timescale, align 8, !tbaa !139
  %viterations = getelementptr inbounds %class.btSoftBody, ptr %this, i64 0, i32 2, i32 21
  store <4 x i32> <i32 0, i32 1, i32 0, i32 4>, ptr %viterations, align 4, !tbaa !140
  %collisions = getelementptr inbounds %class.btSoftBody, ptr %this, i64 0, i32 2, i32 25
  store i32 1, ptr %collisions, align 4, !tbaa !141
  store i8 0, ptr %m_pose, align 8, !tbaa !142
  %m_bframe = getelementptr inbounds %class.btSoftBody, ptr %this, i64 0, i32 5, i32 1
  store i8 0, ptr %m_bframe, align 1, !tbaa !143
  %m_volume = getelementptr inbounds %class.btSoftBody, ptr %this, i64 0, i32 5, i32 2
  store float 0.000000e+00, ptr %m_volume, align 4, !tbaa !144
  %m_com = getelementptr inbounds %class.btSoftBody, ptr %this, i64 0, i32 5, i32 5
  %m_rot = getelementptr inbounds %class.btSoftBody, ptr %this, i64 0, i32 5, i32 6
  tail call void @llvm.memset.p0.i64(ptr noundef nonnull align 8 dereferenceable(16) %m_com, i8 0, i64 16, i1 false)
  store float 1.000000e+00, ptr %m_rot, align 8, !tbaa !137
  %arrayidx3.i.i.i = getelementptr inbounds %class.btSoftBody, ptr %this, i64 0, i32 5, i32 6, i32 0, i64 0, i32 0, i64 1
  %arrayidx3.i6.i.i = getelementptr inbounds %class.btSoftBody, ptr %this, i64 0, i32 5, i32 6, i32 0, i64 1, i32 0, i64 1
  tail call void @llvm.memset.p0.i64(ptr noundef nonnull align 4 dereferenceable(16) %arrayidx3.i.i.i, i8 0, i64 16, i1 false)
  store float 1.000000e+00, ptr %arrayidx3.i6.i.i, align 4, !tbaa !137
  %arrayidx5.i7.i.i = getelementptr inbounds %class.btSoftBody, ptr %this, i64 0, i32 5, i32 6, i32 0, i64 1, i32 0, i64 2
  %arrayidx5.i10.i.i = getelementptr inbounds %class.btSoftBody, ptr %this, i64 0, i32 5, i32 6, i32 0, i64 2, i32 0, i64 2
  tail call void @llvm.memset.p0.i64(ptr noundef nonnull align 8 dereferenceable(16) %arrayidx5.i7.i.i, i8 0, i64 16, i1 false)
  store <2 x float> <float 1.000000e+00, float 0.000000e+00>, ptr %arrayidx5.i10.i.i, align 8, !tbaa !137
  %m_scl = getelementptr inbounds %class.btSoftBody, ptr %this, i64 0, i32 5, i32 7
  store float 1.000000e+00, ptr %m_scl, align 8, !tbaa !137
  %arrayidx3.i.i.i273 = getelementptr inbounds %class.btSoftBody, ptr %this, i64 0, i32 5, i32 7, i32 0, i64 0, i32 0, i64 1
  %arrayidx3.i6.i.i274 = getelementptr inbounds %class.btSoftBody, ptr %this, i64 0, i32 5, i32 7, i32 0, i64 1, i32 0, i64 1
  tail call void @llvm.memset.p0.i64(ptr noundef nonnull align 4 dereferenceable(16) %arrayidx3.i.i.i273, i8 0, i64 16, i1 false)
  store float 1.000000e+00, ptr %arrayidx3.i6.i.i274, align 4, !tbaa !137
  %arrayidx5.i7.i.i275 = getelementptr inbounds %class.btSoftBody, ptr %this, i64 0, i32 5, i32 7, i32 0, i64 1, i32 0, i64 2
  %arrayidx5.i10.i.i276 = getelementptr inbounds %class.btSoftBody, ptr %this, i64 0, i32 5, i32 7, i32 0, i64 2, i32 0, i64 2
  tail call void @llvm.memset.p0.i64(ptr noundef nonnull align 8 dereferenceable(16) %arrayidx5.i7.i.i275, i8 0, i64 16, i1 false)
  store <2 x float> <float 1.000000e+00, float 0.000000e+00>, ptr %arrayidx5.i10.i.i276, align 8, !tbaa !137
  %m_tag = getelementptr inbounds %class.btSoftBody, ptr %this, i64 0, i32 6
  store ptr null, ptr %m_tag, align 8, !tbaa !145
  %m_timeacc = getelementptr inbounds %class.btSoftBody, ptr %this, i64 0, i32 18
  store float 0.000000e+00, ptr %m_timeacc, align 8, !tbaa !146
  store i8 1, ptr %arrayctor.end, align 4, !tbaa !147
  %ref.tmp80.sroa.5.0.m_bounds.sroa_idx = getelementptr inbounds %class.btSoftBody, ptr %this, i64 0, i32 19, i64 0, i32 0, i64 2
  %arrayidx94 = getelementptr inbounds %class.btSoftBody, ptr %this, i64 0, i32 19, i64 1
  %ref.tmp87.sroa.5.0.arrayidx94.sroa_idx = getelementptr inbounds %class.btSoftBody, ptr %this, i64 0, i32 19, i64 1, i32 0, i64 2
  %m_worldTransform = getelementptr inbounds %class.btCollisionObject, ptr %this, i64 0, i32 1
  tail call void @llvm.memset.p0.i64(ptr noundef nonnull align 4 dereferenceable(32) %m_bounds, i8 0, i64 32, i1 false)
  store float 1.000000e+00, ptr %m_worldTransform, align 8, !tbaa !137
  %arrayidx3.i.i.i.i = getelementptr inbounds %class.btCollisionObject, ptr %this, i64 0, i32 1, i32 0, i32 0, i64 0, i32 0, i64 1
  %arrayidx3.i6.i.i.i = getelementptr inbounds %class.btCollisionObject, ptr %this, i64 0, i32 1, i32 0, i32 0, i64 1, i32 0, i64 1
  tail call void @llvm.memset.p0.i64(ptr noundef nonnull align 4 dereferenceable(16) %arrayidx3.i.i.i.i, i8 0, i64 16, i1 false)
  store float 1.000000e+00, ptr %arrayidx3.i6.i.i.i, align 4, !tbaa !137
  %arrayidx5.i7.i.i.i = getelementptr inbounds %class.btCollisionObject, ptr %this, i64 0, i32 1, i32 0, i32 0, i64 1, i32 0, i64 2
  %arrayidx5.i10.i.i.i = getelementptr inbounds %class.btCollisionObject, ptr %this, i64 0, i32 1, i32 0, i32 0, i64 2, i32 0, i64 2
  tail call void @llvm.memset.p0.i64(ptr noundef nonnull align 8 dereferenceable(16) %arrayidx5.i7.i.i.i, i8 0, i64 16, i1 false)
  store float 1.000000e+00, ptr %arrayidx5.i10.i.i.i, align 8, !tbaa !137
  %arrayidx7.i11.i.i.i = getelementptr inbounds %class.btCollisionObject, ptr %this, i64 0, i32 1, i32 0, i32 0, i64 2, i32 0, i64 3
  tail call void @llvm.memset.p0.i64(ptr noundef nonnull align 4 dereferenceable(20) %arrayidx7.i11.i.i.i, i8 0, i64 20, i1 false)
  invoke void @_ZN10btSoftBody9setSolverENS_14eSolverPresets1_E(ptr noundef nonnull align 8 dereferenceable(1496) %this, i32 noundef 0)
          to label %invoke.cont96 unwind label %lpad76

invoke.cont96:                                    ; preds = %invoke.cont32
  %call = invoke noundef ptr @_ZN10btSoftBody14appendMaterialEv(ptr noundef nonnull align 8 dereferenceable(1496) %this)
          to label %invoke.cont98 unwind label %lpad97

invoke.cont98:                                    ; preds = %invoke.cont96
  %m_kLST = getelementptr inbounds %"struct.btSoftBody::Material", ptr %call, i64 0, i32 1
  store <2 x float> <float 1.000000e+00, float 1.000000e+00>, ptr %m_kLST, align 8, !tbaa !137
  %m_kVST = getelementptr inbounds %"struct.btSoftBody::Material", ptr %call, i64 0, i32 3
  store float 1.000000e+00, ptr %m_kVST, align 8, !tbaa !148
  %m_flags = getelementptr inbounds %"struct.btSoftBody::Material", ptr %call, i64 0, i32 4
  store i32 1, ptr %m_flags, align 4, !tbaa !151
  %call100 = invoke noalias noundef nonnull dereferenceable(40) ptr @_Znwm(i64 noundef 40) #36
          to label %invoke.cont99 unwind label %lpad97

invoke.cont99:                                    ; preds = %invoke.cont98
  invoke void @_ZN14btConcaveShapeC2Ev(ptr noundef nonnull align 8 dereferenceable(28) %call100)
          to label %_ZN24btSoftBodyCollisionShapeC2EP10btSoftBody.exit unwind label %lpad101

_ZN24btSoftBodyCollisionShapeC2EP10btSoftBody.exit: ; preds = %invoke.cont99
  store ptr getelementptr inbounds ({ [15 x ptr] }, ptr @_ZTV24btSoftBodyCollisionShape, i64 0, inrange i32 0, i64 2), ptr %call100, align 8, !tbaa !5
  %m_shapeType.i = getelementptr inbounds %class.btCollisionShape, ptr %call100, i64 0, i32 1
  store i32 32, ptr %m_shapeType.i, align 8, !tbaa !152
  %m_body.i = getelementptr inbounds %class.btSoftBodyCollisionShape, ptr %call100, i64 0, i32 1
  store ptr %this, ptr %m_body.i, align 8, !tbaa !154
  %m_collisionShape = getelementptr inbounds %class.btCollisionObject, ptr %this, i64 0, i32 9
  store ptr %call100, ptr %m_collisionShape, align 8, !tbaa !157
  %m_collisionMargin.i = getelementptr inbounds %class.btConcaveShape, ptr %call100, i64 0, i32 1
  store float 2.500000e-01, ptr %m_collisionMargin.i, align 8, !tbaa !158
  %0 = load i32, ptr %m_size.i.i227, align 4, !tbaa !88
  %cmp4.i = icmp slt i32 %0, %node_count
  br i1 %cmp4.i, label %if.then5.i, label %_ZN20btAlignedObjectArrayIN10btSoftBody4NodeEE6resizeEiRKS1_.exit

if.then5.i:                                       ; preds = %_ZN24btSoftBodyCollisionShapeC2EP10btSoftBody.exit
  %1 = load i32, ptr %m_capacity.i.i228, align 8, !tbaa !89
  %cmp.i.i = icmp slt i32 %1, %node_count
  br i1 %cmp.i.i, label %if.then.i.i, label %for.body10.lr.ph.i

if.then.i.i:                                      ; preds = %if.then5.i
  %tobool.not.i.i.i = icmp eq i32 %node_count, 0
  br i1 %tobool.not.i.i.i, label %_ZN20btAlignedObjectArrayIN10btSoftBody4NodeEE8allocateEi.exit.i.i, label %if.then.i.i.i

if.then.i.i.i:                                    ; preds = %if.then.i.i
  %conv.i.i.i.i = sext i32 %node_count to i64
  %mul.i.i.i.i = mul nsw i64 %conv.i.i.i.i, 120
  %call.i.i.i.i289 = invoke noundef ptr @_Z22btAlignedAllocInternalmi(i64 noundef %mul.i.i.i.i, i32 noundef 16)
          to label %call.i.i.i.i.noexc unwind label %lpad114

call.i.i.i.i.noexc:                               ; preds = %if.then.i.i.i
  %.pre.i = load i32, ptr %m_size.i.i227, align 4, !tbaa !88
  br label %_ZN20btAlignedObjectArrayIN10btSoftBody4NodeEE8allocateEi.exit.i.i

_ZN20btAlignedObjectArrayIN10btSoftBody4NodeEE8allocateEi.exit.i.i: ; preds = %call.i.i.i.i.noexc, %if.then.i.i
  %2 = phi i32 [ %.pre.i, %call.i.i.i.i.noexc ], [ %0, %if.then.i.i ]
  %retval.0.i.i.i = phi ptr [ %call.i.i.i.i289, %call.i.i.i.i.noexc ], [ null, %if.then.i.i ]
  %cmp7.i.i.i = icmp sgt i32 %2, 0
  br i1 %cmp7.i.i.i, label %for.body.lr.ph.i.i.i, label %_ZNK20btAlignedObjectArrayIN10btSoftBody4NodeEE4copyEiiPS1_.exit.i.i

for.body.lr.ph.i.i.i:                             ; preds = %_ZN20btAlignedObjectArrayIN10btSoftBody4NodeEE8allocateEi.exit.i.i
  %wide.trip.count.i.i.i = zext i32 %2 to i64
  %xtraiter = and i64 %wide.trip.count.i.i.i, 1
  %3 = icmp eq i32 %2, 1
  br i1 %3, label %_ZNK20btAlignedObjectArrayIN10btSoftBody4NodeEE4copyEiiPS1_.exit.i.i.loopexit.unr-lcssa, label %for.body.lr.ph.i.i.i.new

for.body.lr.ph.i.i.i.new:                         ; preds = %for.body.lr.ph.i.i.i
  %unroll_iter = and i64 %wide.trip.count.i.i.i, 4294967294
  br label %for.body.i.i.i

for.body.i.i.i:                                   ; preds = %for.body.i.i.i, %for.body.lr.ph.i.i.i.new
  %indvars.iv.i.i.i = phi i64 [ 0, %for.body.lr.ph.i.i.i.new ], [ %indvars.iv.next.i.i.i.1, %for.body.i.i.i ]
  %niter = phi i64 [ 0, %for.body.lr.ph.i.i.i.new ], [ %niter.next.1, %for.body.i.i.i ]
  %arrayidx.i.i.i = getelementptr inbounds %"struct.btSoftBody::Node", ptr %retval.0.i.i.i, i64 %indvars.iv.i.i.i
  %4 = load ptr, ptr %m_data.i.i226, align 8, !tbaa !87
  %arrayidx3.i.i.i287 = getelementptr inbounds %"struct.btSoftBody::Node", ptr %4, i64 %indvars.iv.i.i.i
  tail call void @llvm.memcpy.p0.p0.i64(ptr noundef nonnull align 8 dereferenceable(120) %arrayidx.i.i.i, ptr noundef nonnull align 8 dereferenceable(120) %arrayidx3.i.i.i287, i64 120, i1 false)
  %indvars.iv.next.i.i.i = or i64 %indvars.iv.i.i.i, 1
  %arrayidx.i.i.i.1 = getelementptr inbounds %"struct.btSoftBody::Node", ptr %retval.0.i.i.i, i64 %indvars.iv.next.i.i.i
  %5 = load ptr, ptr %m_data.i.i226, align 8, !tbaa !87
  %arrayidx3.i.i.i287.1 = getelementptr inbounds %"struct.btSoftBody::Node", ptr %5, i64 %indvars.iv.next.i.i.i
  tail call void @llvm.memcpy.p0.p0.i64(ptr noundef nonnull align 8 dereferenceable(120) %arrayidx.i.i.i.1, ptr noundef nonnull align 8 dereferenceable(120) %arrayidx3.i.i.i287.1, i64 120, i1 false)
  %indvars.iv.next.i.i.i.1 = add nuw nsw i64 %indvars.iv.i.i.i, 2
  %niter.next.1 = add i64 %niter, 2
  %niter.ncmp.1 = icmp eq i64 %niter.next.1, %unroll_iter
  br i1 %niter.ncmp.1, label %_ZNK20btAlignedObjectArrayIN10btSoftBody4NodeEE4copyEiiPS1_.exit.i.i.loopexit.unr-lcssa, label %for.body.i.i.i

_ZNK20btAlignedObjectArrayIN10btSoftBody4NodeEE4copyEiiPS1_.exit.i.i.loopexit.unr-lcssa: ; preds = %for.body.i.i.i, %for.body.lr.ph.i.i.i
  %indvars.iv.i.i.i.unr = phi i64 [ 0, %for.body.lr.ph.i.i.i ], [ %indvars.iv.next.i.i.i.1, %for.body.i.i.i ]
  %lcmp.mod.not = icmp eq i64 %xtraiter, 0
  br i1 %lcmp.mod.not, label %_ZNK20btAlignedObjectArrayIN10btSoftBody4NodeEE4copyEiiPS1_.exit.i.i, label %for.body.i.i.i.epil

for.body.i.i.i.epil:                              ; preds = %_ZNK20btAlignedObjectArrayIN10btSoftBody4NodeEE4copyEiiPS1_.exit.i.i.loopexit.unr-lcssa
  %arrayidx.i.i.i.epil = getelementptr inbounds %"struct.btSoftBody::Node", ptr %retval.0.i.i.i, i64 %indvars.iv.i.i.i.unr
  %6 = load ptr, ptr %m_data.i.i226, align 8, !tbaa !87
  %arrayidx3.i.i.i287.epil = getelementptr inbounds %"struct.btSoftBody::Node", ptr %6, i64 %indvars.iv.i.i.i.unr
  tail call void @llvm.memcpy.p0.p0.i64(ptr noundef nonnull align 8 dereferenceable(120) %arrayidx.i.i.i.epil, ptr noundef nonnull align 8 dereferenceable(120) %arrayidx3.i.i.i287.epil, i64 120, i1 false)
  br label %_ZNK20btAlignedObjectArrayIN10btSoftBody4NodeEE4copyEiiPS1_.exit.i.i

_ZNK20btAlignedObjectArrayIN10btSoftBody4NodeEE4copyEiiPS1_.exit.i.i: ; preds = %for.body.i.i.i.epil, %_ZNK20btAlignedObjectArrayIN10btSoftBody4NodeEE4copyEiiPS1_.exit.i.i.loopexit.unr-lcssa, %_ZN20btAlignedObjectArrayIN10btSoftBody4NodeEE8allocateEi.exit.i.i
  %7 = load ptr, ptr %m_data.i.i226, align 8, !tbaa !87
  %tobool.not.i10.i.i = icmp eq ptr %7, null
  %8 = load i8, ptr %m_ownsMemory.i.i225, align 8, !range !159
  %tobool2.not.i.i.i = icmp eq i8 %8, 0
  %or.cond.i.i = select i1 %tobool.not.i10.i.i, i1 true, i1 %tobool2.not.i.i.i
  br i1 %or.cond.i.i, label %if.end.i, label %if.then3.i.i.i

if.then3.i.i.i:                                   ; preds = %_ZNK20btAlignedObjectArrayIN10btSoftBody4NodeEE4copyEiiPS1_.exit.i.i
  invoke void @_Z21btAlignedFreeInternalPv(ptr noundef nonnull %7)
          to label %if.end.i unwind label %lpad114

if.end.i:                                         ; preds = %if.then3.i.i.i, %_ZNK20btAlignedObjectArrayIN10btSoftBody4NodeEE4copyEiiPS1_.exit.i.i
  store i8 1, ptr %m_ownsMemory.i.i225, align 8, !tbaa !86
  store ptr %retval.0.i.i.i, ptr %m_data.i.i226, align 8, !tbaa !87
  store i32 %node_count, ptr %m_capacity.i.i228, align 8, !tbaa !89
  br label %for.body10.lr.ph.i

for.body10.lr.ph.i:                               ; preds = %if.end.i, %if.then5.i
  %9 = sext i32 %0 to i64
  %wide.trip.count.i = sext i32 %node_count to i64
  %10 = sub nsw i64 %wide.trip.count.i, %9
  %11 = xor i64 %9, -1
  %12 = add nsw i64 %11, %wide.trip.count.i
  %xtraiter319 = and i64 %10, 3
  %lcmp.mod320.not = icmp eq i64 %xtraiter319, 0
  br i1 %lcmp.mod320.not, label %for.body10.i.prol.loopexit, label %for.body10.i.prol

for.body10.i.prol:                                ; preds = %for.body10.lr.ph.i, %for.body10.i.prol
  %indvars.iv.i.prol = phi i64 [ %indvars.iv.next.i.prol, %for.body10.i.prol ], [ %9, %for.body10.lr.ph.i ]
  %prol.iter = phi i64 [ %prol.iter.next, %for.body10.i.prol ], [ 0, %for.body10.lr.ph.i ]
  %13 = load ptr, ptr %m_data.i.i226, align 8, !tbaa !87
  %arrayidx13.i.prol = getelementptr inbounds %"struct.btSoftBody::Node", ptr %13, i64 %indvars.iv.i.prol
  store ptr null, ptr %arrayidx13.i.prol, align 8
  %indvars.iv.next.i.prol = add nsw i64 %indvars.iv.i.prol, 1
  %prol.iter.next = add i64 %prol.iter, 1
  %prol.iter.cmp.not = icmp eq i64 %prol.iter.next, %xtraiter319
  br i1 %prol.iter.cmp.not, label %for.body10.i.prol.loopexit, label %for.body10.i.prol, !llvm.loop !160

for.body10.i.prol.loopexit:                       ; preds = %for.body10.i.prol, %for.body10.lr.ph.i
  %indvars.iv.i.unr = phi i64 [ %9, %for.body10.lr.ph.i ], [ %indvars.iv.next.i.prol, %for.body10.i.prol ]
  %14 = icmp ult i64 %12, 3
  br i1 %14, label %_ZN20btAlignedObjectArrayIN10btSoftBody4NodeEE6resizeEiRKS1_.exit, label %for.body10.i

for.body10.i:                                     ; preds = %for.body10.i.prol.loopexit, %for.body10.i
  %indvars.iv.i = phi i64 [ %indvars.iv.next.i.3, %for.body10.i ], [ %indvars.iv.i.unr, %for.body10.i.prol.loopexit ]
  %15 = load ptr, ptr %m_data.i.i226, align 8, !tbaa !87
  %arrayidx13.i = getelementptr inbounds %"struct.btSoftBody::Node", ptr %15, i64 %indvars.iv.i
  store ptr null, ptr %arrayidx13.i, align 8
  %indvars.iv.next.i = add nsw i64 %indvars.iv.i, 1
  %16 = load ptr, ptr %m_data.i.i226, align 8, !tbaa !87
  %arrayidx13.i.1 = getelementptr inbounds %"struct.btSoftBody::Node", ptr %16, i64 %indvars.iv.next.i
  store ptr null, ptr %arrayidx13.i.1, align 8
  %indvars.iv.next.i.1 = add nsw i64 %indvars.iv.i, 2
  %17 = load ptr, ptr %m_data.i.i226, align 8, !tbaa !87
  %arrayidx13.i.2 = getelementptr inbounds %"struct.btSoftBody::Node", ptr %17, i64 %indvars.iv.next.i.1
  store ptr null, ptr %arrayidx13.i.2, align 8
  %indvars.iv.next.i.2 = add nsw i64 %indvars.iv.i, 3
  %18 = load ptr, ptr %m_data.i.i226, align 8, !tbaa !87
  %arrayidx13.i.3 = getelementptr inbounds %"struct.btSoftBody::Node", ptr %18, i64 %indvars.iv.next.i.2
  store ptr null, ptr %arrayidx13.i.3, align 8
  %indvars.iv.next.i.3 = add nsw i64 %indvars.iv.i, 4
  %exitcond.not.i.3 = icmp eq i64 %indvars.iv.next.i.3, %wide.trip.count.i
  br i1 %exitcond.not.i.3, label %_ZN20btAlignedObjectArrayIN10btSoftBody4NodeEE6resizeEiRKS1_.exit, label %for.body10.i

_ZN20btAlignedObjectArrayIN10btSoftBody4NodeEE6resizeEiRKS1_.exit: ; preds = %for.body10.i.prol.loopexit, %for.body10.i, %_ZN24btSoftBodyCollisionShapeC2EP10btSoftBody.exit
  store i32 %node_count, ptr %m_size.i.i227, align 4, !tbaa !88
  %cmp313 = icmp sgt i32 %node_count, 0
  br i1 %cmp313, label %for.body.lr.ph, label %for.cond.cleanup

for.body.lr.ph:                                   ; preds = %_ZN20btAlignedObjectArrayIN10btSoftBody4NodeEE6resizeEiRKS1_.exit
  %ref.tmp.sroa.4.0.mi.sroa_idx.i.i = getelementptr inbounds i8, ptr %ref.tmp143, i64 8
  %mx.i.i297 = getelementptr inbounds %struct.btDbvtAabbMm, ptr %ref.tmp143, i64 0, i32 1
  %ref.tmp1.sroa.4.0.mx.sroa_idx.i.i = getelementptr inbounds %struct.btDbvtAabbMm, ptr %ref.tmp143, i64 0, i32 1, i32 0, i64 2
  %wide.trip.count = zext i32 %node_count to i64
  br label %for.body

for.cond.cleanup:                                 ; preds = %invoke.cont147, %_ZN20btAlignedObjectArrayIN10btSoftBody4NodeEE6resizeEiRKS1_.exit
  %19 = load ptr, ptr %m_ndbvt, align 8, !tbaa !162
  %tobool.not.i = icmp eq ptr %19, null
  br i1 %tobool.not.i, label %if.else.i290, label %if.then.i

if.then.i:                                        ; preds = %for.cond.cleanup
  %20 = load ptr, ptr %m_collisionShape, align 8, !tbaa !157
  %vtable.i = load ptr, ptr %20, align 8, !tbaa !5
  %vfn.i = getelementptr inbounds ptr, ptr %vtable.i, i64 11
  %21 = load ptr, ptr %vfn.i, align 8
  %call9.i291 = invoke noundef float %21(ptr noundef nonnull align 8 dereferenceable(24) %20)
          to label %call9.i.noexc unwind label %lpad105

call9.i.noexc:                                    ; preds = %if.then.i
  %mx.i.i = getelementptr inbounds %struct.btDbvtAabbMm, ptr %19, i64 0, i32 1
  %22 = load <2 x float>, ptr %19, align 4, !tbaa !137
  %23 = insertelement <2 x float> poison, float %call9.i291, i64 0
  %24 = shufflevector <2 x float> %23, <2 x float> poison, <2 x i32> zeroinitializer
  %25 = fsub <2 x float> %22, %24
  %arrayidx11.i.i = getelementptr inbounds [4 x float], ptr %19, i64 0, i64 2
  %26 = load float, ptr %arrayidx11.i.i, align 4, !tbaa !137
  %sub14.i.i = fsub float %26, %call9.i291
  %retval.sroa.3.12.vec.insert.i45.i = insertelement <2 x float> <float poison, float 0.000000e+00>, float %sub14.i.i, i64 0
  store <2 x float> %25, ptr %m_bounds, align 4, !tbaa.struct !163
  store <2 x float> %retval.sroa.3.12.vec.insert.i45.i, ptr %ref.tmp80.sroa.5.0.m_bounds.sroa_idx, align 4, !tbaa.struct !165
  %27 = load <2 x float>, ptr %mx.i.i, align 4, !tbaa !137
  %28 = fadd <2 x float> %24, %27
  %arrayidx11.i50.i = getelementptr inbounds %struct.btDbvtAabbMm, ptr %19, i64 0, i32 1, i32 0, i64 2
  %29 = load float, ptr %arrayidx11.i50.i, align 4, !tbaa !137
  %add14.i.i = fadd float %call9.i291, %29
  %retval.sroa.3.12.vec.insert.i54.i = insertelement <2 x float> <float poison, float 0.000000e+00>, float %add14.i.i, i64 0
  store <2 x float> %28, ptr %arrayidx94, align 4, !tbaa.struct !163
  store <2 x float> %retval.sroa.3.12.vec.insert.i54.i, ptr %ref.tmp87.sroa.5.0.arrayidx94.sroa_idx, align 4, !tbaa.struct !165
  %m_broadphaseHandle.i.i = getelementptr inbounds %class.btCollisionObject, ptr %this, i64 0, i32 8
  %30 = load ptr, ptr %m_broadphaseHandle.i.i, align 8, !tbaa !166
  %cmp.not.i = icmp eq ptr %30, null
  br i1 %cmp.not.i, label %invoke.cont151, label %if.then21.i

if.then21.i:                                      ; preds = %call9.i.noexc
  %31 = load ptr, ptr %m_worldInfo, align 8, !tbaa !42
  %m_broadphase.i = getelementptr inbounds %struct.btSoftBodyWorldInfo, ptr %31, i64 0, i32 4
  %32 = load ptr, ptr %m_broadphase.i, align 8, !tbaa !167
  %m_dispatcher.i = getelementptr inbounds %struct.btSoftBodyWorldInfo, ptr %31, i64 0, i32 5
  %33 = load ptr, ptr %m_dispatcher.i, align 8, !tbaa !172
  %vtable28.i = load ptr, ptr %32, align 8, !tbaa !5
  %vfn29.i = getelementptr inbounds ptr, ptr %vtable28.i, i64 4
  %34 = load ptr, ptr %vfn29.i, align 8
  invoke void %34(ptr noundef nonnull align 8 dereferenceable(8) %32, ptr noundef nonnull %30, ptr noundef nonnull align 4 dereferenceable(16) %m_bounds, ptr noundef nonnull align 4 dereferenceable(16) %arrayidx94, ptr noundef %33)
          to label %invoke.cont151 unwind label %lpad105

if.else.i290:                                     ; preds = %for.cond.cleanup
  call void @llvm.memset.p0.i64(ptr noundef nonnull align 4 dereferenceable(32) %m_bounds, i8 0, i64 32, i1 false)
  br label %invoke.cont151

lpad26:                                           ; preds = %entry
  %35 = landingpad { ptr, i32 }
          cleanup
  br label %ehcleanup168

lpad29:                                           ; preds = %invoke.cont28
  %36 = landingpad { ptr, i32 }
          cleanup
  br label %ehcleanup166

lpad31:                                           ; preds = %invoke.cont30
  %37 = landingpad { ptr, i32 }
          cleanup
  br label %ehcleanup164

lpad76:                                           ; preds = %invoke.cont32
  %38 = landingpad { ptr, i32 }
          cleanup
  br label %ehcleanup156

lpad97:                                           ; preds = %invoke.cont98, %invoke.cont96
  %39 = landingpad { ptr, i32 }
          cleanup
  br label %ehcleanup156

lpad101:                                          ; preds = %invoke.cont99
  %40 = landingpad { ptr, i32 }
          cleanup
  tail call void @_ZdlPv(ptr noundef nonnull %call100) #37
  br label %ehcleanup156

lpad105:                                          ; preds = %if.then21.i, %if.then.i
  %41 = landingpad { ptr, i32 }
          cleanup
  br label %ehcleanup156

lpad114:                                          ; preds = %if.then3.i.i.i, %if.then.i.i.i
  %42 = landingpad { ptr, i32 }
          cleanup
  br label %ehcleanup156

for.body:                                         ; preds = %for.body.lr.ph, %invoke.cont147
  %indvars.iv = phi i64 [ 0, %for.body.lr.ph ], [ %indvars.iv.next, %invoke.cont147 ]
  %x.addr.0316 = phi ptr [ %x, %for.body.lr.ph ], [ %x.addr.1, %invoke.cont147 ]
  %m.addr.0315 = phi ptr [ %m, %for.body.lr.ph ], [ %m.addr.1, %invoke.cont147 ]
  %43 = load ptr, ptr %m_data.i.i226, align 8, !tbaa !87
  %arrayidx.i = getelementptr inbounds %"struct.btSoftBody::Node", ptr %43, i64 %indvars.iv
  %44 = load atomic i8, ptr @_ZGVZL14ZeroInitializeIN10btSoftBody4NodeEEvRT_E9zerodummy acquire, align 8
  %guard.uninitialized.i = icmp eq i8 %44, 0
  br i1 %guard.uninitialized.i, label %init.check.i, label %_ZL14ZeroInitializeIN10btSoftBody4NodeEEvRT_.exit, !prof !173

init.check.i:                                     ; preds = %for.body
  %45 = call i32 @__cxa_guard_acquire(ptr nonnull @_ZGVZL14ZeroInitializeIN10btSoftBody4NodeEEvRT_E9zerodummy) #38
  %tobool.not.i293 = icmp eq i32 %45, 0
  br i1 %tobool.not.i293, label %_ZL14ZeroInitializeIN10btSoftBody4NodeEEvRT_.exit, label %init.i

init.i:                                           ; preds = %init.check.i
  store ptr null, ptr @_ZZL14ZeroInitializeIN10btSoftBody4NodeEEvRT_E9zerodummy, align 8, !tbaa !174
  %46 = call ptr @llvm.invariant.start.p0(i64 120, ptr nonnull @_ZZL14ZeroInitializeIN10btSoftBody4NodeEEvRT_E9zerodummy)
  call void @__cxa_guard_release(ptr nonnull @_ZGVZL14ZeroInitializeIN10btSoftBody4NodeEEvRT_E9zerodummy) #38
  br label %_ZL14ZeroInitializeIN10btSoftBody4NodeEEvRT_.exit

_ZL14ZeroInitializeIN10btSoftBody4NodeEEvRT_.exit: ; preds = %for.body, %init.check.i, %init.i
  call void @llvm.memcpy.p0.p0.i64(ptr noundef nonnull align 8 dereferenceable(113) %arrayidx.i, ptr noundef nonnull align 8 dereferenceable(113) @_ZZL14ZeroInitializeIN10btSoftBody4NodeEEvRT_E9zerodummy, i64 113, i1 false)
  %tobool.not = icmp eq ptr %x.addr.0316, null
  br i1 %tobool.not, label %cond.end, label %cond.true

cond.true:                                        ; preds = %_ZL14ZeroInitializeIN10btSoftBody4NodeEEvRT_.exit
  %incdec.ptr = getelementptr inbounds %class.btVector3, ptr %x.addr.0316, i64 1
  %47 = load <2 x float>, ptr %x.addr.0316, align 4
  %ref.tmp122.sroa.6.0.x.addr.0.sroa_idx = getelementptr inbounds i8, ptr %x.addr.0316, i64 8
  %48 = load <2 x float>, ptr %ref.tmp122.sroa.6.0.x.addr.0.sroa_idx, align 4
  br label %cond.end

cond.end:                                         ; preds = %_ZL14ZeroInitializeIN10btSoftBody4NodeEEvRT_.exit, %cond.true
  %x.addr.1 = phi ptr [ %incdec.ptr, %cond.true ], [ null, %_ZL14ZeroInitializeIN10btSoftBody4NodeEEvRT_.exit ]
  %49 = phi <2 x float> [ %47, %cond.true ], [ zeroinitializer, %_ZL14ZeroInitializeIN10btSoftBody4NodeEEvRT_.exit ]
  %50 = phi <2 x float> [ %48, %cond.true ], [ zeroinitializer, %_ZL14ZeroInitializeIN10btSoftBody4NodeEEvRT_.exit ]
  %m_x = getelementptr inbounds %"struct.btSoftBody::Node", ptr %43, i64 %indvars.iv, i32 1
  store <2 x float> %49, ptr %m_x, align 8
  %ref.tmp122.sroa.6.0.m_x.sroa_idx = getelementptr inbounds i8, ptr %m_x, i64 8
  store <2 x float> %50, ptr %ref.tmp122.sroa.6.0.m_x.sroa_idx, align 8
  %m_q = getelementptr inbounds %"struct.btSoftBody::Node", ptr %43, i64 %indvars.iv, i32 2
  call void @llvm.memcpy.p0.p0.i64(ptr noundef nonnull align 8 dereferenceable(16) %m_q, ptr noundef nonnull align 8 dereferenceable(16) %m_x, i64 16, i1 false), !tbaa.struct !163
  %tobool129.not = icmp eq ptr %m.addr.0315, null
  br i1 %tobool129.not, label %cond.end133, label %cond.true130

cond.true130:                                     ; preds = %cond.end
  %incdec.ptr131 = getelementptr inbounds float, ptr %m.addr.0315, i64 1
  %51 = load float, ptr %m.addr.0315, align 4, !tbaa !137
  br label %cond.end133

cond.end133:                                      ; preds = %cond.end, %cond.true130
  %m.addr.1 = phi ptr [ %incdec.ptr131, %cond.true130 ], [ null, %cond.end ]
  %cond = phi float [ %51, %cond.true130 ], [ 1.000000e+00, %cond.end ]
  %m_im = getelementptr inbounds %"struct.btSoftBody::Node", ptr %43, i64 %indvars.iv, i32 6
  %cmp135 = fcmp ogt float %cond, 0.000000e+00
  %div = fdiv float 1.000000e+00, %cond
  %cond140 = select i1 %cmp135, float %div, float 0.000000e+00
  store float %cond140, ptr %m_im, align 8, !tbaa !175
  call void @llvm.lifetime.start.p0(i64 32, ptr nonnull %ref.tmp143) #38
  %52 = fadd <2 x float> %49, <float -2.500000e-01, float -2.500000e-01>
  %53 = extractelement <2 x float> %50, i64 0
  %sub14.i.i.i = fadd float %53, -2.500000e-01
  %retval.sroa.3.12.vec.insert.i.i.i = insertelement <2 x float> <float poison, float 0.000000e+00>, float %sub14.i.i.i, i64 0
  store <2 x float> %52, ptr %ref.tmp143, align 8, !tbaa.struct !163, !alias.scope !178
  store <2 x float> %retval.sroa.3.12.vec.insert.i.i.i, ptr %ref.tmp.sroa.4.0.mi.sroa_idx.i.i, align 8, !tbaa.struct !165, !alias.scope !178
  %54 = fadd <2 x float> %49, <float 2.500000e-01, float 2.500000e-01>
  %add14.i.i.i = fadd float %53, 2.500000e-01
  %retval.sroa.3.12.vec.insert.i12.i.i = insertelement <2 x float> <float poison, float 0.000000e+00>, float %add14.i.i.i, i64 0
  store <2 x float> %54, ptr %mx.i.i297, align 8, !tbaa.struct !163, !alias.scope !178
  store <2 x float> %retval.sroa.3.12.vec.insert.i12.i.i, ptr %ref.tmp1.sroa.4.0.mx.sroa_idx.i.i, align 8, !tbaa.struct !165, !alias.scope !178
  %call148 = invoke noundef ptr @_ZN6btDbvt6insertERK12btDbvtAabbMmPv(ptr noundef nonnull align 8 dereferenceable(64) %m_ndbvt, ptr noundef nonnull align 4 dereferenceable(32) %ref.tmp143, ptr noundef nonnull %arrayidx.i)
          to label %invoke.cont147 unwind label %lpad145

invoke.cont147:                                   ; preds = %cond.end133
  %m_leaf = getelementptr inbounds %"struct.btSoftBody::Node", ptr %43, i64 %indvars.iv, i32 8
  store ptr %call148, ptr %m_leaf, align 8, !tbaa !183
  call void @llvm.lifetime.end.p0(i64 32, ptr nonnull %ref.tmp143) #38
  %m_material = getelementptr inbounds %"struct.btSoftBody::Feature", ptr %arrayidx.i, i64 0, i32 1
  store ptr %call, ptr %m_material, align 8, !tbaa !184
  %indvars.iv.next = add nuw nsw i64 %indvars.iv, 1
  %exitcond.not = icmp eq i64 %indvars.iv.next, %wide.trip.count
  br i1 %exitcond.not, label %for.cond.cleanup, label %for.body

lpad145:                                          ; preds = %cond.end133
  %55 = landingpad { ptr, i32 }
          cleanup
  call void @llvm.lifetime.end.p0(i64 32, ptr nonnull %ref.tmp143) #38
  br label %ehcleanup156

invoke.cont151:                                   ; preds = %if.else.i290, %call9.i.noexc, %if.then21.i
  %m_initialWorldTransform = getelementptr inbounds %class.btSoftBody, ptr %this, i64 0, i32 26
  store float 1.000000e+00, ptr %m_initialWorldTransform, align 8, !tbaa !137
  %arrayidx3.i.i.i.i298 = getelementptr inbounds %class.btSoftBody, ptr %this, i64 0, i32 26, i32 0, i32 0, i64 0, i32 0, i64 1
  %arrayidx3.i6.i.i.i299 = getelementptr inbounds %class.btSoftBody, ptr %this, i64 0, i32 26, i32 0, i32 0, i64 1, i32 0, i64 1
  call void @llvm.memset.p0.i64(ptr noundef nonnull align 4 dereferenceable(16) %arrayidx3.i.i.i.i298, i8 0, i64 16, i1 false)
  store float 1.000000e+00, ptr %arrayidx3.i6.i.i.i299, align 4, !tbaa !137
  %arrayidx5.i7.i.i.i300 = getelementptr inbounds %class.btSoftBody, ptr %this, i64 0, i32 26, i32 0, i32 0, i64 1, i32 0, i64 2
  %arrayidx5.i10.i.i.i301 = getelementptr inbounds %class.btSoftBody, ptr %this, i64 0, i32 26, i32 0, i32 0, i64 2, i32 0, i64 2
  call void @llvm.memset.p0.i64(ptr noundef nonnull align 8 dereferenceable(16) %arrayidx5.i7.i.i.i300, i8 0, i64 16, i1 false)
  store float 1.000000e+00, ptr %arrayidx5.i10.i.i.i301, align 8, !tbaa !137
  %arrayidx7.i11.i.i.i302 = getelementptr inbounds %class.btSoftBody, ptr %this, i64 0, i32 26, i32 0, i32 0, i64 2, i32 0, i64 3
  call void @llvm.memset.p0.i64(ptr noundef nonnull align 4 dereferenceable(20) %arrayidx7.i11.i.i.i302, i8 0, i64 20, i1 false)
  ret void

ehcleanup156:                                     ; preds = %lpad97, %lpad101, %lpad145, %lpad114, %lpad105, %lpad76
  %.pn.pn.pn = phi { ptr, i32 } [ %38, %lpad76 ], [ %39, %lpad97 ], [ %40, %lpad101 ], [ %55, %lpad145 ], [ %41, %lpad105 ], [ %42, %lpad114 ]
  invoke void @_ZN20btAlignedObjectArrayIiED2Ev(ptr noundef nonnull align 8 dereferenceable(25) %m_userIndexMapping)
          to label %ehcleanup158 unwind label %terminate.lpad

ehcleanup158:                                     ; preds = %ehcleanup156
  invoke void @_ZN20btAlignedObjectArrayIbED2Ev(ptr noundef nonnull align 8 dereferenceable(25) %m_clusterConnectivity)
          to label %ehcleanup160 unwind label %terminate.lpad

ehcleanup160:                                     ; preds = %ehcleanup158
  invoke void @_ZN20btAlignedObjectArrayIPN10btSoftBody7ClusterEED2Ev(ptr noundef nonnull align 8 dereferenceable(25) %m_clusters)
          to label %ehcleanup162 unwind label %terminate.lpad

ehcleanup162:                                     ; preds = %ehcleanup160
  invoke void @_ZN6btDbvtD1Ev(ptr noundef nonnull align 8 dereferenceable(64) %m_cdbvt)
          to label %ehcleanup164 unwind label %terminate.lpad

ehcleanup164:                                     ; preds = %ehcleanup162, %lpad31
  %.pn.pn.pn.pn = phi { ptr, i32 } [ %.pn.pn.pn, %ehcleanup162 ], [ %37, %lpad31 ]
  invoke void @_ZN6btDbvtD1Ev(ptr noundef nonnull align 8 dereferenceable(64) %m_fdbvt)
          to label %ehcleanup166 unwind label %terminate.lpad

ehcleanup166:                                     ; preds = %ehcleanup164, %lpad29
  %.pn.pn.pn.pn.pn = phi { ptr, i32 } [ %.pn.pn.pn.pn, %ehcleanup164 ], [ %36, %lpad29 ]
  invoke void @_ZN6btDbvtD1Ev(ptr noundef nonnull align 8 dereferenceable(64) %m_ndbvt)
          to label %ehcleanup168 unwind label %terminate.lpad

ehcleanup168:                                     ; preds = %ehcleanup166, %lpad26
  %.pn.pn.pn.pn.pn.pn = phi { ptr, i32 } [ %.pn.pn.pn.pn.pn, %ehcleanup166 ], [ %35, %lpad26 ]
  invoke void @_ZN20btAlignedObjectArrayIPN10btSoftBody8MaterialEED2Ev(ptr noundef nonnull align 8 dereferenceable(25) %m_materials)
          to label %ehcleanup170 unwind label %terminate.lpad

ehcleanup170:                                     ; preds = %ehcleanup168
  invoke void @_ZN20btAlignedObjectArrayIPN10btSoftBody5JointEED2Ev(ptr noundef nonnull align 8 dereferenceable(25) %m_joints)
          to label %ehcleanup172 unwind label %terminate.lpad

ehcleanup172:                                     ; preds = %ehcleanup170
  invoke void @_ZN20btAlignedObjectArrayIN10btSoftBody8SContactEED2Ev(ptr noundef nonnull align 8 dereferenceable(25) %m_scontacts)
          to label %ehcleanup174 unwind label %terminate.lpad

ehcleanup174:                                     ; preds = %ehcleanup172
  invoke void @_ZN20btAlignedObjectArrayIN10btSoftBody8RContactEED2Ev(ptr noundef nonnull align 8 dereferenceable(25) %m_rcontacts)
          to label %ehcleanup176 unwind label %terminate.lpad

ehcleanup176:                                     ; preds = %ehcleanup174
  invoke void @_ZN20btAlignedObjectArrayIN10btSoftBody6AnchorEED2Ev(ptr noundef nonnull align 8 dereferenceable(25) %m_anchors)
          to label %ehcleanup178 unwind label %terminate.lpad

ehcleanup178:                                     ; preds = %ehcleanup176
  invoke void @_ZN20btAlignedObjectArrayIN10btSoftBody5TetraEED2Ev(ptr noundef nonnull align 8 dereferenceable(25) %m_tetras)
          to label %ehcleanup180 unwind label %terminate.lpad

ehcleanup180:                                     ; preds = %ehcleanup178
  invoke void @_ZN20btAlignedObjectArrayIN10btSoftBody4FaceEED2Ev(ptr noundef nonnull align 8 dereferenceable(25) %m_faces)
          to label %ehcleanup182 unwind label %terminate.lpad

ehcleanup182:                                     ; preds = %ehcleanup180
  invoke void @_ZN20btAlignedObjectArrayIN10btSoftBody4LinkEED2Ev(ptr noundef nonnull align 8 dereferenceable(25) %m_links)
          to label %ehcleanup184 unwind label %terminate.lpad

ehcleanup184:                                     ; preds = %ehcleanup182
  invoke void @_ZN20btAlignedObjectArrayIN10btSoftBody4NodeEED2Ev(ptr noundef nonnull align 8 dereferenceable(25) %m_nodes)
          to label %ehcleanup186 unwind label %terminate.lpad

ehcleanup186:                                     ; preds = %ehcleanup184
  invoke void @_ZN20btAlignedObjectArrayIN10btSoftBody4NoteEED2Ev(ptr noundef nonnull align 8 dereferenceable(25) %m_notes)
          to label %ehcleanup188 unwind label %terminate.lpad

ehcleanup188:                                     ; preds = %ehcleanup186
  invoke void @_ZN10btSoftBody4PoseD2Ev(ptr noundef nonnull align 8 dereferenceable(232) %m_pose)
          to label %ehcleanup190 unwind label %terminate.lpad

ehcleanup190:                                     ; preds = %ehcleanup188
  invoke void @_ZN10btSoftBody6ConfigD2Ev(ptr noundef nonnull align 8 dereferenceable(200) %m_cfg)
          to label %ehcleanup192 unwind label %terminate.lpad

ehcleanup192:                                     ; preds = %ehcleanup190
  invoke void @_ZN20btAlignedObjectArrayIP17btCollisionObjectED2Ev(ptr noundef nonnull align 8 dereferenceable(25) %m_collisionDisabledObjects)
          to label %ehcleanup194 unwind label %terminate.lpad

ehcleanup194:                                     ; preds = %ehcleanup192
  invoke void @_ZN17btCollisionObjectD2Ev(ptr noundef nonnull align 8 dereferenceable(280) %this)
          to label %eh.resume unwind label %terminate.lpad

eh.resume:                                        ; preds = %ehcleanup194
  resume { ptr, i32 } %.pn.pn.pn.pn.pn.pn

terminate.lpad:                                   ; preds = %ehcleanup194, %ehcleanup192, %ehcleanup190, %ehcleanup188, %ehcleanup186, %ehcleanup184, %ehcleanup182, %ehcleanup180, %ehcleanup178, %ehcleanup176, %ehcleanup174, %ehcleanup172, %ehcleanup170, %ehcleanup168, %ehcleanup166, %ehcleanup164, %ehcleanup162, %ehcleanup160, %ehcleanup158, %ehcleanup156
  %56 = landingpad { ptr, i32 }
          catch ptr null
  %57 = extractvalue { ptr, i32 } %56, 0
  call void @__clang_call_terminate(ptr %57) #39
  unreachable
}

declare void @_ZN17btCollisionObjectC2Ev(ptr noundef nonnull align 8 dereferenceable(280)) unnamed_addr #1

declare i32 @__gxx_personality_v0(...)

declare void @_ZN6btDbvtC1Ev(ptr noundef nonnull align 8 dereferenceable(64)) unnamed_addr #1

; Function Attrs: mustprogress nocallback nofree nosync nounwind willreturn memory(argmem: readwrite)
declare void @llvm.lifetime.start.p0(i64 immarg, ptr nocapture) #2

; Function Attrs: mustprogress nocallback nofree nounwind willreturn memory(argmem: readwrite)
declare void @llvm.memcpy.p0.p0.i64(ptr noalias nocapture writeonly, ptr noalias nocapture readonly, i64, i1 immarg) #3

; Function Attrs: mustprogress nocallback nofree nosync nounwind willreturn memory(argmem: readwrite)
declare void @llvm.lifetime.end.p0(i64 immarg, ptr nocapture) #2

; Function Attrs: uwtable
define dso_local void @_ZN10btSoftBody9setSolverENS_14eSolverPresets1_E(ptr noundef nonnull align 8 dereferenceable(1496) %this, i32 noundef %preset) local_unnamed_addr #4 align 2 {
entry:
  %m_data.i.i = getelementptr inbounds %class.btSoftBody, ptr %this, i64 0, i32 2, i32 26, i32 5
  %0 = load ptr, ptr %m_data.i.i, align 8, !tbaa !21
  %tobool.not.i.i = icmp eq ptr %0, null
  %m_ownsMemory.i.i = getelementptr inbounds %class.btSoftBody, ptr %this, i64 0, i32 2, i32 26, i32 6
  %1 = load i8, ptr %m_ownsMemory.i.i, align 8, !range !159
  %tobool2.not.i.i = icmp eq i8 %1, 0
  %or.cond.i = select i1 %tobool.not.i.i, i1 true, i1 %tobool2.not.i.i
  br i1 %or.cond.i, label %_ZN20btAlignedObjectArrayIN10btSoftBody8eVSolver1_EE5clearEv.exit, label %if.then3.i.i

if.then3.i.i:                                     ; preds = %entry
  tail call void @_Z21btAlignedFreeInternalPv(ptr noundef nonnull %0)
  br label %_ZN20btAlignedObjectArrayIN10btSoftBody8eVSolver1_EE5clearEv.exit

_ZN20btAlignedObjectArrayIN10btSoftBody8eVSolver1_EE5clearEv.exit: ; preds = %entry, %if.then3.i.i
  store i8 1, ptr %m_ownsMemory.i.i, align 8, !tbaa !18
  store ptr null, ptr %m_data.i.i, align 8, !tbaa !21
  %m_size.i4.i = getelementptr inbounds %class.btSoftBody, ptr %this, i64 0, i32 2, i32 26, i32 2
  store i32 0, ptr %m_size.i4.i, align 4, !tbaa !22
  %m_capacity.i.i = getelementptr inbounds %class.btSoftBody, ptr %this, i64 0, i32 2, i32 26, i32 3
  store i32 0, ptr %m_capacity.i.i, align 8, !tbaa !23
  %m_data.i.i31 = getelementptr inbounds %class.btSoftBody, ptr %this, i64 0, i32 2, i32 27, i32 5
  %2 = load ptr, ptr %m_data.i.i31, align 8, !tbaa !27
  %tobool.not.i.i32 = icmp eq ptr %2, null
  %m_ownsMemory.i.i33 = getelementptr inbounds %class.btSoftBody, ptr %this, i64 0, i32 2, i32 27, i32 6
  %3 = load i8, ptr %m_ownsMemory.i.i33, align 8, !range !159
  %tobool2.not.i.i34 = icmp eq i8 %3, 0
  %or.cond.i35 = select i1 %tobool.not.i.i32, i1 true, i1 %tobool2.not.i.i34
  br i1 %or.cond.i35, label %_ZN20btAlignedObjectArrayIN10btSoftBody8ePSolver1_EE5clearEv.exit, label %if.then3.i.i36

if.then3.i.i36:                                   ; preds = %_ZN20btAlignedObjectArrayIN10btSoftBody8eVSolver1_EE5clearEv.exit
  tail call void @_Z21btAlignedFreeInternalPv(ptr noundef nonnull %2)
  br label %_ZN20btAlignedObjectArrayIN10btSoftBody8ePSolver1_EE5clearEv.exit

_ZN20btAlignedObjectArrayIN10btSoftBody8ePSolver1_EE5clearEv.exit: ; preds = %_ZN20btAlignedObjectArrayIN10btSoftBody8eVSolver1_EE5clearEv.exit, %if.then3.i.i36
  store i8 1, ptr %m_ownsMemory.i.i33, align 8, !tbaa !24
  store ptr null, ptr %m_data.i.i31, align 8, !tbaa !27
  %m_size.i4.i38 = getelementptr inbounds %class.btSoftBody, ptr %this, i64 0, i32 2, i32 27, i32 2
  store i32 0, ptr %m_size.i4.i38, align 4, !tbaa !28
  %m_capacity.i.i39 = getelementptr inbounds %class.btSoftBody, ptr %this, i64 0, i32 2, i32 27, i32 3
  store i32 0, ptr %m_capacity.i.i39, align 8, !tbaa !29
  %m_data.i.i40 = getelementptr inbounds %class.btSoftBody, ptr %this, i64 0, i32 2, i32 28, i32 5
  %4 = load ptr, ptr %m_data.i.i40, align 8, !tbaa !27
  %tobool.not.i.i41 = icmp eq ptr %4, null
  %m_ownsMemory.i.i42 = getelementptr inbounds %class.btSoftBody, ptr %this, i64 0, i32 2, i32 28, i32 6
  %5 = load i8, ptr %m_ownsMemory.i.i42, align 8, !range !159
  %tobool2.not.i.i43 = icmp eq i8 %5, 0
  %or.cond.i44 = select i1 %tobool.not.i.i41, i1 true, i1 %tobool2.not.i.i43
  br i1 %or.cond.i44, label %_ZN20btAlignedObjectArrayIN10btSoftBody8ePSolver1_EE5clearEv.exit49, label %if.then3.i.i45

if.then3.i.i45:                                   ; preds = %_ZN20btAlignedObjectArrayIN10btSoftBody8ePSolver1_EE5clearEv.exit
  tail call void @_Z21btAlignedFreeInternalPv(ptr noundef nonnull %4)
  br label %_ZN20btAlignedObjectArrayIN10btSoftBody8ePSolver1_EE5clearEv.exit49

_ZN20btAlignedObjectArrayIN10btSoftBody8ePSolver1_EE5clearEv.exit49: ; preds = %_ZN20btAlignedObjectArrayIN10btSoftBody8ePSolver1_EE5clearEv.exit, %if.then3.i.i45
  store i8 1, ptr %m_ownsMemory.i.i42, align 8, !tbaa !24
  store ptr null, ptr %m_data.i.i40, align 8, !tbaa !27
  %m_size.i4.i47 = getelementptr inbounds %class.btSoftBody, ptr %this, i64 0, i32 2, i32 28, i32 2
  store i32 0, ptr %m_size.i4.i47, align 4, !tbaa !28
  %m_capacity.i.i48 = getelementptr inbounds %class.btSoftBody, ptr %this, i64 0, i32 2, i32 28, i32 3
  store i32 0, ptr %m_capacity.i.i48, align 8, !tbaa !29
  switch i32 %preset, label %sw.epilog [
    i32 0, label %sw.bb
    i32 1, label %sw.bb15
  ]

sw.bb:                                            ; preds = %_ZN20btAlignedObjectArrayIN10btSoftBody8ePSolver1_EE5clearEv.exit49
  %6 = load i32, ptr %m_size.i4.i38, align 4, !tbaa !28
  %7 = load i32, ptr %m_capacity.i.i39, align 8, !tbaa !29
  %cmp.i = icmp eq i32 %6, %7
  br i1 %cmp.i, label %if.then.i, label %_ZN20btAlignedObjectArrayIN10btSoftBody8ePSolver1_EE9push_backERKS2_.exit

if.then.i:                                        ; preds = %sw.bb
  %tobool.not.i.i51 = icmp eq i32 %6, 0
  %mul.i.i = shl nsw i32 %6, 1
  %cond.i.i = select i1 %tobool.not.i.i51, i32 1, i32 %mul.i.i
  %cmp.i.i = icmp slt i32 %6, %cond.i.i
  br i1 %cmp.i.i, label %if.then.i.i, label %_ZN20btAlignedObjectArrayIN10btSoftBody8ePSolver1_EE9push_backERKS2_.exit

if.then.i.i:                                      ; preds = %if.then.i
  %tobool.not.i.i.i = icmp eq i32 %cond.i.i, 0
  br i1 %tobool.not.i.i.i, label %_ZN20btAlignedObjectArrayIN10btSoftBody8ePSolver1_EE8allocateEi.exit.i.i, label %if.then.i.i.i

if.then.i.i.i:                                    ; preds = %if.then.i.i
  %conv.i.i.i.i = sext i32 %cond.i.i to i64
  %mul.i.i.i.i = shl nsw i64 %conv.i.i.i.i, 2
  %call.i.i.i.i = tail call noundef ptr @_Z22btAlignedAllocInternalmi(i64 noundef %mul.i.i.i.i, i32 noundef 16)
  %.pre.i = load i32, ptr %m_size.i4.i38, align 4, !tbaa !28
  br label %_ZN20btAlignedObjectArrayIN10btSoftBody8ePSolver1_EE8allocateEi.exit.i.i

_ZN20btAlignedObjectArrayIN10btSoftBody8ePSolver1_EE8allocateEi.exit.i.i: ; preds = %if.then.i.i.i, %if.then.i.i
  %8 = phi i32 [ %.pre.i, %if.then.i.i.i ], [ %6, %if.then.i.i ]
  %retval.0.i.i.i = phi ptr [ %call.i.i.i.i, %if.then.i.i.i ], [ null, %if.then.i.i ]
  %cmp7.i.i.i = icmp sgt i32 %8, 0
  %9 = load ptr, ptr %m_data.i.i31, align 8, !tbaa !27
  br i1 %cmp7.i.i.i, label %for.body.lr.ph.i.i.i, label %_ZNK20btAlignedObjectArrayIN10btSoftBody8ePSolver1_EE4copyEiiPS2_.exit.i.i

for.body.lr.ph.i.i.i:                             ; preds = %_ZN20btAlignedObjectArrayIN10btSoftBody8ePSolver1_EE8allocateEi.exit.i.i
  %10 = ptrtoint ptr %9 to i64
  %retval.0.i.i.i491 = ptrtoint ptr %retval.0.i.i.i to i64
  %wide.trip.count.i.i.i = zext i32 %8 to i64
  %min.iters.check495 = icmp ult i32 %8, 8
  %11 = sub i64 %retval.0.i.i.i491, %10
  %diff.check492 = icmp ult i64 %11, 32
  %or.cond = select i1 %min.iters.check495, i1 true, i1 %diff.check492
  br i1 %or.cond, label %for.body.i.i.i.preheader, label %vector.ph496

vector.ph496:                                     ; preds = %for.body.lr.ph.i.i.i
  %n.vec498 = and i64 %wide.trip.count.i.i.i, 4294967288
  br label %vector.body501

vector.body501:                                   ; preds = %vector.body501, %vector.ph496
  %index502 = phi i64 [ 0, %vector.ph496 ], [ %index.next505, %vector.body501 ]
  %12 = getelementptr inbounds i32, ptr %retval.0.i.i.i, i64 %index502
  %13 = getelementptr inbounds i32, ptr %9, i64 %index502
  %wide.load503 = load <4 x i32>, ptr %13, align 4, !tbaa !185
  %14 = getelementptr inbounds i32, ptr %13, i64 4
  %wide.load504 = load <4 x i32>, ptr %14, align 4, !tbaa !185
  store <4 x i32> %wide.load503, ptr %12, align 4, !tbaa !185
  %15 = getelementptr inbounds i32, ptr %12, i64 4
  store <4 x i32> %wide.load504, ptr %15, align 4, !tbaa !185
  %index.next505 = add nuw i64 %index502, 8
  %16 = icmp eq i64 %index.next505, %n.vec498
  br i1 %16, label %middle.block493, label %vector.body501, !llvm.loop !187

middle.block493:                                  ; preds = %vector.body501
  %cmp.n500 = icmp eq i64 %n.vec498, %wide.trip.count.i.i.i
  br i1 %cmp.n500, label %if.then.i11.i.i, label %for.body.i.i.i.preheader

for.body.i.i.i.preheader:                         ; preds = %for.body.lr.ph.i.i.i, %middle.block493
  %indvars.iv.i.i.i.ph = phi i64 [ 0, %for.body.lr.ph.i.i.i ], [ %n.vec498, %middle.block493 ]
  %17 = xor i64 %indvars.iv.i.i.i.ph, -1
  %18 = add nsw i64 %17, %wide.trip.count.i.i.i
  %xtraiter574 = and i64 %wide.trip.count.i.i.i, 3
  %lcmp.mod575.not = icmp eq i64 %xtraiter574, 0
  br i1 %lcmp.mod575.not, label %for.body.i.i.i.prol.loopexit, label %for.body.i.i.i.prol

for.body.i.i.i.prol:                              ; preds = %for.body.i.i.i.preheader, %for.body.i.i.i.prol
  %indvars.iv.i.i.i.prol = phi i64 [ %indvars.iv.next.i.i.i.prol, %for.body.i.i.i.prol ], [ %indvars.iv.i.i.i.ph, %for.body.i.i.i.preheader ]
  %prol.iter576 = phi i64 [ %prol.iter576.next, %for.body.i.i.i.prol ], [ 0, %for.body.i.i.i.preheader ]
  %arrayidx.i.i.i.prol = getelementptr inbounds i32, ptr %retval.0.i.i.i, i64 %indvars.iv.i.i.i.prol
  %arrayidx3.i.i.i.prol = getelementptr inbounds i32, ptr %9, i64 %indvars.iv.i.i.i.prol
  %19 = load i32, ptr %arrayidx3.i.i.i.prol, align 4, !tbaa !185
  store i32 %19, ptr %arrayidx.i.i.i.prol, align 4, !tbaa !185
  %indvars.iv.next.i.i.i.prol = add nuw nsw i64 %indvars.iv.i.i.i.prol, 1
  %prol.iter576.next = add i64 %prol.iter576, 1
  %prol.iter576.cmp.not = icmp eq i64 %prol.iter576.next, %xtraiter574
  br i1 %prol.iter576.cmp.not, label %for.body.i.i.i.prol.loopexit, label %for.body.i.i.i.prol, !llvm.loop !190

for.body.i.i.i.prol.loopexit:                     ; preds = %for.body.i.i.i.prol, %for.body.i.i.i.preheader
  %indvars.iv.i.i.i.unr = phi i64 [ %indvars.iv.i.i.i.ph, %for.body.i.i.i.preheader ], [ %indvars.iv.next.i.i.i.prol, %for.body.i.i.i.prol ]
  %20 = icmp ult i64 %18, 3
  br i1 %20, label %if.then.i11.i.i, label %for.body.i.i.i

for.body.i.i.i:                                   ; preds = %for.body.i.i.i.prol.loopexit, %for.body.i.i.i
  %indvars.iv.i.i.i = phi i64 [ %indvars.iv.next.i.i.i.3, %for.body.i.i.i ], [ %indvars.iv.i.i.i.unr, %for.body.i.i.i.prol.loopexit ]
  %arrayidx.i.i.i = getelementptr inbounds i32, ptr %retval.0.i.i.i, i64 %indvars.iv.i.i.i
  %arrayidx3.i.i.i = getelementptr inbounds i32, ptr %9, i64 %indvars.iv.i.i.i
  %21 = load i32, ptr %arrayidx3.i.i.i, align 4, !tbaa !185
  store i32 %21, ptr %arrayidx.i.i.i, align 4, !tbaa !185
  %indvars.iv.next.i.i.i = add nuw nsw i64 %indvars.iv.i.i.i, 1
  %arrayidx.i.i.i.1 = getelementptr inbounds i32, ptr %retval.0.i.i.i, i64 %indvars.iv.next.i.i.i
  %arrayidx3.i.i.i.1 = getelementptr inbounds i32, ptr %9, i64 %indvars.iv.next.i.i.i
  %22 = load i32, ptr %arrayidx3.i.i.i.1, align 4, !tbaa !185
  store i32 %22, ptr %arrayidx.i.i.i.1, align 4, !tbaa !185
  %indvars.iv.next.i.i.i.1 = add nuw nsw i64 %indvars.iv.i.i.i, 2
  %arrayidx.i.i.i.2 = getelementptr inbounds i32, ptr %retval.0.i.i.i, i64 %indvars.iv.next.i.i.i.1
  %arrayidx3.i.i.i.2 = getelementptr inbounds i32, ptr %9, i64 %indvars.iv.next.i.i.i.1
  %23 = load i32, ptr %arrayidx3.i.i.i.2, align 4, !tbaa !185
  store i32 %23, ptr %arrayidx.i.i.i.2, align 4, !tbaa !185
  %indvars.iv.next.i.i.i.2 = add nuw nsw i64 %indvars.iv.i.i.i, 3
  %arrayidx.i.i.i.3 = getelementptr inbounds i32, ptr %retval.0.i.i.i, i64 %indvars.iv.next.i.i.i.2
  %arrayidx3.i.i.i.3 = getelementptr inbounds i32, ptr %9, i64 %indvars.iv.next.i.i.i.2
  %24 = load i32, ptr %arrayidx3.i.i.i.3, align 4, !tbaa !185
  store i32 %24, ptr %arrayidx.i.i.i.3, align 4, !tbaa !185
  %indvars.iv.next.i.i.i.3 = add nuw nsw i64 %indvars.iv.i.i.i, 4
  %exitcond.not.i.i.i.3 = icmp eq i64 %indvars.iv.next.i.i.i.3, %wide.trip.count.i.i.i
  br i1 %exitcond.not.i.i.i.3, label %if.then.i11.i.i, label %for.body.i.i.i, !llvm.loop !191

_ZNK20btAlignedObjectArrayIN10btSoftBody8ePSolver1_EE4copyEiiPS2_.exit.i.i: ; preds = %_ZN20btAlignedObjectArrayIN10btSoftBody8ePSolver1_EE8allocateEi.exit.i.i
  %tobool.not.i10.i.i = icmp eq ptr %9, null
  %25 = load i8, ptr %m_ownsMemory.i.i33, align 8, !range !159
  %tobool2.not.i.i.i = icmp eq i8 %25, 0
  %or.cond.i52 = select i1 %tobool.not.i10.i.i, i1 true, i1 %tobool2.not.i.i.i
  br i1 %or.cond.i52, label %_ZN20btAlignedObjectArrayIN10btSoftBody8ePSolver1_EE10deallocateEv.exit.i.i, label %if.then3.i.i.i

if.then.i11.i.i:                                  ; preds = %for.body.i.i.i.prol.loopexit, %for.body.i.i.i, %middle.block493
  %.old.i = load i8, ptr %m_ownsMemory.i.i33, align 8, !tbaa !24, !range !159, !noundef !192
  %tobool2.not.i.i.old.i = icmp eq i8 %.old.i, 0
  br i1 %tobool2.not.i.i.old.i, label %_ZN20btAlignedObjectArrayIN10btSoftBody8ePSolver1_EE10deallocateEv.exit.i.i, label %if.then3.i.i.i

if.then3.i.i.i:                                   ; preds = %if.then.i11.i.i, %_ZNK20btAlignedObjectArrayIN10btSoftBody8ePSolver1_EE4copyEiiPS2_.exit.i.i
  tail call void @_Z21btAlignedFreeInternalPv(ptr noundef nonnull %9)
  %.pre7.pre.pre.i = load i32, ptr %m_size.i4.i38, align 4, !tbaa !28
  br label %_ZN20btAlignedObjectArrayIN10btSoftBody8ePSolver1_EE10deallocateEv.exit.i.i

_ZN20btAlignedObjectArrayIN10btSoftBody8ePSolver1_EE10deallocateEv.exit.i.i: ; preds = %if.then3.i.i.i, %if.then.i11.i.i, %_ZNK20btAlignedObjectArrayIN10btSoftBody8ePSolver1_EE4copyEiiPS2_.exit.i.i
  %.pre7.i = phi i32 [ %8, %_ZNK20btAlignedObjectArrayIN10btSoftBody8ePSolver1_EE4copyEiiPS2_.exit.i.i ], [ %.pre7.pre.pre.i, %if.then3.i.i.i ], [ %8, %if.then.i11.i.i ]
  store i8 1, ptr %m_ownsMemory.i.i33, align 8, !tbaa !24
  store ptr %retval.0.i.i.i, ptr %m_data.i.i31, align 8, !tbaa !27
  store i32 %cond.i.i, ptr %m_capacity.i.i39, align 8, !tbaa !29
  br label %_ZN20btAlignedObjectArrayIN10btSoftBody8ePSolver1_EE9push_backERKS2_.exit

_ZN20btAlignedObjectArrayIN10btSoftBody8ePSolver1_EE9push_backERKS2_.exit: ; preds = %sw.bb, %if.then.i, %_ZN20btAlignedObjectArrayIN10btSoftBody8ePSolver1_EE10deallocateEv.exit.i.i
  %26 = phi i32 [ %cond.i.i, %_ZN20btAlignedObjectArrayIN10btSoftBody8ePSolver1_EE10deallocateEv.exit.i.i ], [ %6, %if.then.i ], [ %7, %sw.bb ]
  %27 = phi i32 [ %.pre7.i, %_ZN20btAlignedObjectArrayIN10btSoftBody8ePSolver1_EE10deallocateEv.exit.i.i ], [ %6, %if.then.i ], [ %6, %sw.bb ]
  %28 = load ptr, ptr %m_data.i.i31, align 8, !tbaa !27
  %idxprom.i = sext i32 %27 to i64
  %arrayidx.i = getelementptr inbounds i32, ptr %28, i64 %idxprom.i
  store i32 1, ptr %arrayidx.i, align 4, !tbaa !185
  %inc.i = add nsw i32 %27, 1
  store i32 %inc.i, ptr %m_size.i4.i38, align 4, !tbaa !28
  %cmp.i56 = icmp eq i32 %inc.i, %26
  br i1 %cmp.i56, label %if.then.i61, label %_ZN20btAlignedObjectArrayIN10btSoftBody8ePSolver1_EE9push_backERKS2_.exit99

if.then.i61:                                      ; preds = %_ZN20btAlignedObjectArrayIN10btSoftBody8ePSolver1_EE9push_backERKS2_.exit
  %tobool.not.i.i57 = icmp eq i32 %26, 0
  %mul.i.i58 = shl nsw i32 %26, 1
  %cond.i.i59 = select i1 %tobool.not.i.i57, i32 1, i32 %mul.i.i58
  %cmp.i.i60 = icmp slt i32 %26, %cond.i.i59
  br i1 %cmp.i.i60, label %if.then.i.i63, label %_ZN20btAlignedObjectArrayIN10btSoftBody8ePSolver1_EE9push_backERKS2_.exit99

if.then.i.i63:                                    ; preds = %if.then.i61
  %tobool.not.i.i.i62 = icmp eq i32 %cond.i.i59, 0
  br i1 %tobool.not.i.i.i62, label %_ZN20btAlignedObjectArrayIN10btSoftBody8ePSolver1_EE8allocateEi.exit.i.i72, label %if.then.i.i.i68

if.then.i.i.i68:                                  ; preds = %if.then.i.i63
  %conv.i.i.i.i64 = sext i32 %cond.i.i59 to i64
  %mul.i.i.i.i65 = shl nsw i64 %conv.i.i.i.i64, 2
  %call.i.i.i.i66 = tail call noundef ptr @_Z22btAlignedAllocInternalmi(i64 noundef %mul.i.i.i.i65, i32 noundef 16)
  %.pre.i67 = load i32, ptr %m_size.i4.i38, align 4, !tbaa !28
  %.pre419 = load ptr, ptr %m_data.i.i31, align 8, !tbaa !27
  br label %_ZN20btAlignedObjectArrayIN10btSoftBody8ePSolver1_EE8allocateEi.exit.i.i72

_ZN20btAlignedObjectArrayIN10btSoftBody8ePSolver1_EE8allocateEi.exit.i.i72: ; preds = %if.then.i.i.i68, %if.then.i.i63
  %29 = phi ptr [ %.pre419, %if.then.i.i.i68 ], [ %28, %if.then.i.i63 ]
  %30 = phi i32 [ %.pre.i67, %if.then.i.i.i68 ], [ %26, %if.then.i.i63 ]
  %retval.0.i.i.i69 = phi ptr [ %call.i.i.i.i66, %if.then.i.i.i68 ], [ null, %if.then.i.i63 ]
  %cmp7.i.i.i70 = icmp sgt i32 %30, 0
  br i1 %cmp7.i.i.i70, label %for.body.lr.ph.i.i.i74, label %_ZNK20btAlignedObjectArrayIN10btSoftBody8ePSolver1_EE4copyEiiPS2_.exit.i.i85

for.body.lr.ph.i.i.i74:                           ; preds = %_ZN20btAlignedObjectArrayIN10btSoftBody8ePSolver1_EE8allocateEi.exit.i.i72
  %31 = ptrtoint ptr %29 to i64
  %retval.0.i.i.i69507 = ptrtoint ptr %retval.0.i.i.i69 to i64
  %wide.trip.count.i.i.i73 = zext i32 %30 to i64
  %min.iters.check511 = icmp ult i32 %30, 8
  %32 = sub i64 %retval.0.i.i.i69507, %31
  %diff.check508 = icmp ult i64 %32, 32
  %or.cond554 = select i1 %min.iters.check511, i1 true, i1 %diff.check508
  br i1 %or.cond554, label %for.body.i.i.i80.preheader, label %vector.ph512

vector.ph512:                                     ; preds = %for.body.lr.ph.i.i.i74
  %n.vec514 = and i64 %wide.trip.count.i.i.i73, 4294967288
  br label %vector.body517

vector.body517:                                   ; preds = %vector.body517, %vector.ph512
  %index518 = phi i64 [ 0, %vector.ph512 ], [ %index.next521, %vector.body517 ]
  %33 = getelementptr inbounds i32, ptr %retval.0.i.i.i69, i64 %index518
  %34 = getelementptr inbounds i32, ptr %29, i64 %index518
  %wide.load519 = load <4 x i32>, ptr %34, align 4, !tbaa !185
  %35 = getelementptr inbounds i32, ptr %34, i64 4
  %wide.load520 = load <4 x i32>, ptr %35, align 4, !tbaa !185
  store <4 x i32> %wide.load519, ptr %33, align 4, !tbaa !185
  %36 = getelementptr inbounds i32, ptr %33, i64 4
  store <4 x i32> %wide.load520, ptr %36, align 4, !tbaa !185
  %index.next521 = add nuw i64 %index518, 8
  %37 = icmp eq i64 %index.next521, %n.vec514
  br i1 %37, label %middle.block509, label %vector.body517, !llvm.loop !193

middle.block509:                                  ; preds = %vector.body517
  %cmp.n516 = icmp eq i64 %n.vec514, %wide.trip.count.i.i.i73
  br i1 %cmp.n516, label %if.then.i11.i.i89, label %for.body.i.i.i80.preheader

for.body.i.i.i80.preheader:                       ; preds = %for.body.lr.ph.i.i.i74, %middle.block509
  %indvars.iv.i.i.i75.ph = phi i64 [ 0, %for.body.lr.ph.i.i.i74 ], [ %n.vec514, %middle.block509 ]
  %38 = xor i64 %indvars.iv.i.i.i75.ph, -1
  %39 = add nsw i64 %38, %wide.trip.count.i.i.i73
  %xtraiter577 = and i64 %wide.trip.count.i.i.i73, 3
  %lcmp.mod578.not = icmp eq i64 %xtraiter577, 0
  br i1 %lcmp.mod578.not, label %for.body.i.i.i80.prol.loopexit, label %for.body.i.i.i80.prol

for.body.i.i.i80.prol:                            ; preds = %for.body.i.i.i80.preheader, %for.body.i.i.i80.prol
  %indvars.iv.i.i.i75.prol = phi i64 [ %indvars.iv.next.i.i.i78.prol, %for.body.i.i.i80.prol ], [ %indvars.iv.i.i.i75.ph, %for.body.i.i.i80.preheader ]
  %prol.iter579 = phi i64 [ %prol.iter579.next, %for.body.i.i.i80.prol ], [ 0, %for.body.i.i.i80.preheader ]
  %arrayidx.i.i.i76.prol = getelementptr inbounds i32, ptr %retval.0.i.i.i69, i64 %indvars.iv.i.i.i75.prol
  %arrayidx3.i.i.i77.prol = getelementptr inbounds i32, ptr %29, i64 %indvars.iv.i.i.i75.prol
  %40 = load i32, ptr %arrayidx3.i.i.i77.prol, align 4, !tbaa !185
  store i32 %40, ptr %arrayidx.i.i.i76.prol, align 4, !tbaa !185
  %indvars.iv.next.i.i.i78.prol = add nuw nsw i64 %indvars.iv.i.i.i75.prol, 1
  %prol.iter579.next = add i64 %prol.iter579, 1
  %prol.iter579.cmp.not = icmp eq i64 %prol.iter579.next, %xtraiter577
  br i1 %prol.iter579.cmp.not, label %for.body.i.i.i80.prol.loopexit, label %for.body.i.i.i80.prol, !llvm.loop !194

for.body.i.i.i80.prol.loopexit:                   ; preds = %for.body.i.i.i80.prol, %for.body.i.i.i80.preheader
  %indvars.iv.i.i.i75.unr = phi i64 [ %indvars.iv.i.i.i75.ph, %for.body.i.i.i80.preheader ], [ %indvars.iv.next.i.i.i78.prol, %for.body.i.i.i80.prol ]
  %41 = icmp ult i64 %39, 3
  br i1 %41, label %if.then.i11.i.i89, label %for.body.i.i.i80

for.body.i.i.i80:                                 ; preds = %for.body.i.i.i80.prol.loopexit, %for.body.i.i.i80
  %indvars.iv.i.i.i75 = phi i64 [ %indvars.iv.next.i.i.i78.3, %for.body.i.i.i80 ], [ %indvars.iv.i.i.i75.unr, %for.body.i.i.i80.prol.loopexit ]
  %arrayidx.i.i.i76 = getelementptr inbounds i32, ptr %retval.0.i.i.i69, i64 %indvars.iv.i.i.i75
  %arrayidx3.i.i.i77 = getelementptr inbounds i32, ptr %29, i64 %indvars.iv.i.i.i75
  %42 = load i32, ptr %arrayidx3.i.i.i77, align 4, !tbaa !185
  store i32 %42, ptr %arrayidx.i.i.i76, align 4, !tbaa !185
  %indvars.iv.next.i.i.i78 = add nuw nsw i64 %indvars.iv.i.i.i75, 1
  %arrayidx.i.i.i76.1 = getelementptr inbounds i32, ptr %retval.0.i.i.i69, i64 %indvars.iv.next.i.i.i78
  %arrayidx3.i.i.i77.1 = getelementptr inbounds i32, ptr %29, i64 %indvars.iv.next.i.i.i78
  %43 = load i32, ptr %arrayidx3.i.i.i77.1, align 4, !tbaa !185
  store i32 %43, ptr %arrayidx.i.i.i76.1, align 4, !tbaa !185
  %indvars.iv.next.i.i.i78.1 = add nuw nsw i64 %indvars.iv.i.i.i75, 2
  %arrayidx.i.i.i76.2 = getelementptr inbounds i32, ptr %retval.0.i.i.i69, i64 %indvars.iv.next.i.i.i78.1
  %arrayidx3.i.i.i77.2 = getelementptr inbounds i32, ptr %29, i64 %indvars.iv.next.i.i.i78.1
  %44 = load i32, ptr %arrayidx3.i.i.i77.2, align 4, !tbaa !185
  store i32 %44, ptr %arrayidx.i.i.i76.2, align 4, !tbaa !185
  %indvars.iv.next.i.i.i78.2 = add nuw nsw i64 %indvars.iv.i.i.i75, 3
  %arrayidx.i.i.i76.3 = getelementptr inbounds i32, ptr %retval.0.i.i.i69, i64 %indvars.iv.next.i.i.i78.2
  %arrayidx3.i.i.i77.3 = getelementptr inbounds i32, ptr %29, i64 %indvars.iv.next.i.i.i78.2
  %45 = load i32, ptr %arrayidx3.i.i.i77.3, align 4, !tbaa !185
  store i32 %45, ptr %arrayidx.i.i.i76.3, align 4, !tbaa !185
  %indvars.iv.next.i.i.i78.3 = add nuw nsw i64 %indvars.iv.i.i.i75, 4
  %exitcond.not.i.i.i79.3 = icmp eq i64 %indvars.iv.next.i.i.i78.3, %wide.trip.count.i.i.i73
  br i1 %exitcond.not.i.i.i79.3, label %if.then.i11.i.i89, label %for.body.i.i.i80, !llvm.loop !195

_ZNK20btAlignedObjectArrayIN10btSoftBody8ePSolver1_EE4copyEiiPS2_.exit.i.i85: ; preds = %_ZN20btAlignedObjectArrayIN10btSoftBody8ePSolver1_EE8allocateEi.exit.i.i72
  %tobool.not.i10.i.i81 = icmp eq ptr %29, null
  %46 = load i8, ptr %m_ownsMemory.i.i33, align 8, !range !159
  %tobool2.not.i.i.i83 = icmp eq i8 %46, 0
  %or.cond.i84 = select i1 %tobool.not.i10.i.i81, i1 true, i1 %tobool2.not.i.i.i83
  br i1 %or.cond.i84, label %_ZN20btAlignedObjectArrayIN10btSoftBody8ePSolver1_EE10deallocateEv.exit.i.i94, label %if.then3.i.i.i91

if.then.i11.i.i89:                                ; preds = %for.body.i.i.i80.prol.loopexit, %for.body.i.i.i80, %middle.block509
  %.old.i87 = load i8, ptr %m_ownsMemory.i.i33, align 8, !tbaa !24, !range !159, !noundef !192
  %tobool2.not.i.i.old.i88 = icmp eq i8 %.old.i87, 0
  br i1 %tobool2.not.i.i.old.i88, label %_ZN20btAlignedObjectArrayIN10btSoftBody8ePSolver1_EE10deallocateEv.exit.i.i94, label %if.then3.i.i.i91

if.then3.i.i.i91:                                 ; preds = %if.then.i11.i.i89, %_ZNK20btAlignedObjectArrayIN10btSoftBody8ePSolver1_EE4copyEiiPS2_.exit.i.i85
  tail call void @_Z21btAlignedFreeInternalPv(ptr noundef nonnull %29)
  %.pre7.pre.pre.i90 = load i32, ptr %m_size.i4.i38, align 4, !tbaa !28
  br label %_ZN20btAlignedObjectArrayIN10btSoftBody8ePSolver1_EE10deallocateEv.exit.i.i94

_ZN20btAlignedObjectArrayIN10btSoftBody8ePSolver1_EE10deallocateEv.exit.i.i94: ; preds = %if.then3.i.i.i91, %if.then.i11.i.i89, %_ZNK20btAlignedObjectArrayIN10btSoftBody8ePSolver1_EE4copyEiiPS2_.exit.i.i85
  %.pre7.i92 = phi i32 [ %30, %_ZNK20btAlignedObjectArrayIN10btSoftBody8ePSolver1_EE4copyEiiPS2_.exit.i.i85 ], [ %.pre7.pre.pre.i90, %if.then3.i.i.i91 ], [ %30, %if.then.i11.i.i89 ]
  store i8 1, ptr %m_ownsMemory.i.i33, align 8, !tbaa !24
  store ptr %retval.0.i.i.i69, ptr %m_data.i.i31, align 8, !tbaa !27
  store i32 %cond.i.i59, ptr %m_capacity.i.i39, align 8, !tbaa !29
  br label %_ZN20btAlignedObjectArrayIN10btSoftBody8ePSolver1_EE9push_backERKS2_.exit99

_ZN20btAlignedObjectArrayIN10btSoftBody8ePSolver1_EE9push_backERKS2_.exit99: ; preds = %_ZN20btAlignedObjectArrayIN10btSoftBody8ePSolver1_EE9push_backERKS2_.exit, %if.then.i61, %_ZN20btAlignedObjectArrayIN10btSoftBody8ePSolver1_EE10deallocateEv.exit.i.i94
  %47 = phi i32 [ %cond.i.i59, %_ZN20btAlignedObjectArrayIN10btSoftBody8ePSolver1_EE10deallocateEv.exit.i.i94 ], [ %26, %if.then.i61 ], [ %26, %_ZN20btAlignedObjectArrayIN10btSoftBody8ePSolver1_EE9push_backERKS2_.exit ]
  %48 = phi ptr [ %retval.0.i.i.i69, %_ZN20btAlignedObjectArrayIN10btSoftBody8ePSolver1_EE10deallocateEv.exit.i.i94 ], [ %28, %if.then.i61 ], [ %28, %_ZN20btAlignedObjectArrayIN10btSoftBody8ePSolver1_EE9push_backERKS2_.exit ]
  %49 = phi i32 [ %.pre7.i92, %_ZN20btAlignedObjectArrayIN10btSoftBody8ePSolver1_EE10deallocateEv.exit.i.i94 ], [ %26, %if.then.i61 ], [ %inc.i, %_ZN20btAlignedObjectArrayIN10btSoftBody8ePSolver1_EE9push_backERKS2_.exit ]
  %idxprom.i96 = sext i32 %49 to i64
  %arrayidx.i97 = getelementptr inbounds i32, ptr %48, i64 %idxprom.i96
  store i32 2, ptr %arrayidx.i97, align 4, !tbaa !185
  %inc.i98 = add nsw i32 %49, 1
  store i32 %inc.i98, ptr %m_size.i4.i38, align 4, !tbaa !28
  %cmp.i102 = icmp eq i32 %inc.i98, %47
  br i1 %cmp.i102, label %if.then.i107, label %_ZN20btAlignedObjectArrayIN10btSoftBody8ePSolver1_EE9push_backERKS2_.exit145

if.then.i107:                                     ; preds = %_ZN20btAlignedObjectArrayIN10btSoftBody8ePSolver1_EE9push_backERKS2_.exit99
  %tobool.not.i.i103 = icmp eq i32 %47, 0
  %mul.i.i104 = shl nsw i32 %47, 1
  %cond.i.i105 = select i1 %tobool.not.i.i103, i32 1, i32 %mul.i.i104
  %cmp.i.i106 = icmp slt i32 %47, %cond.i.i105
  br i1 %cmp.i.i106, label %if.then.i.i109, label %_ZN20btAlignedObjectArrayIN10btSoftBody8ePSolver1_EE9push_backERKS2_.exit145

if.then.i.i109:                                   ; preds = %if.then.i107
  %tobool.not.i.i.i108 = icmp eq i32 %cond.i.i105, 0
  br i1 %tobool.not.i.i.i108, label %_ZN20btAlignedObjectArrayIN10btSoftBody8ePSolver1_EE8allocateEi.exit.i.i118, label %if.then.i.i.i114

if.then.i.i.i114:                                 ; preds = %if.then.i.i109
  %conv.i.i.i.i110 = sext i32 %cond.i.i105 to i64
  %mul.i.i.i.i111 = shl nsw i64 %conv.i.i.i.i110, 2
  %call.i.i.i.i112 = tail call noundef ptr @_Z22btAlignedAllocInternalmi(i64 noundef %mul.i.i.i.i111, i32 noundef 16)
  %.pre.i113 = load i32, ptr %m_size.i4.i38, align 4, !tbaa !28
  %.pre420 = load ptr, ptr %m_data.i.i31, align 8, !tbaa !27
  br label %_ZN20btAlignedObjectArrayIN10btSoftBody8ePSolver1_EE8allocateEi.exit.i.i118

_ZN20btAlignedObjectArrayIN10btSoftBody8ePSolver1_EE8allocateEi.exit.i.i118: ; preds = %if.then.i.i.i114, %if.then.i.i109
  %50 = phi ptr [ %.pre420, %if.then.i.i.i114 ], [ %48, %if.then.i.i109 ]
  %51 = phi i32 [ %.pre.i113, %if.then.i.i.i114 ], [ %47, %if.then.i.i109 ]
  %retval.0.i.i.i115 = phi ptr [ %call.i.i.i.i112, %if.then.i.i.i114 ], [ null, %if.then.i.i109 ]
  %cmp7.i.i.i116 = icmp sgt i32 %51, 0
  br i1 %cmp7.i.i.i116, label %for.body.lr.ph.i.i.i120, label %_ZNK20btAlignedObjectArrayIN10btSoftBody8ePSolver1_EE4copyEiiPS2_.exit.i.i131

for.body.lr.ph.i.i.i120:                          ; preds = %_ZN20btAlignedObjectArrayIN10btSoftBody8ePSolver1_EE8allocateEi.exit.i.i118
  %52 = ptrtoint ptr %50 to i64
  %retval.0.i.i.i115523 = ptrtoint ptr %retval.0.i.i.i115 to i64
  %wide.trip.count.i.i.i119 = zext i32 %51 to i64
  %min.iters.check527 = icmp ult i32 %51, 8
  %53 = sub i64 %retval.0.i.i.i115523, %52
  %diff.check524 = icmp ult i64 %53, 32
  %or.cond555 = select i1 %min.iters.check527, i1 true, i1 %diff.check524
  br i1 %or.cond555, label %for.body.i.i.i126.preheader, label %vector.ph528

vector.ph528:                                     ; preds = %for.body.lr.ph.i.i.i120
  %n.vec530 = and i64 %wide.trip.count.i.i.i119, 4294967288
  br label %vector.body533

vector.body533:                                   ; preds = %vector.body533, %vector.ph528
  %index534 = phi i64 [ 0, %vector.ph528 ], [ %index.next537, %vector.body533 ]
  %54 = getelementptr inbounds i32, ptr %retval.0.i.i.i115, i64 %index534
  %55 = getelementptr inbounds i32, ptr %50, i64 %index534
  %wide.load535 = load <4 x i32>, ptr %55, align 4, !tbaa !185
  %56 = getelementptr inbounds i32, ptr %55, i64 4
  %wide.load536 = load <4 x i32>, ptr %56, align 4, !tbaa !185
  store <4 x i32> %wide.load535, ptr %54, align 4, !tbaa !185
  %57 = getelementptr inbounds i32, ptr %54, i64 4
  store <4 x i32> %wide.load536, ptr %57, align 4, !tbaa !185
  %index.next537 = add nuw i64 %index534, 8
  %58 = icmp eq i64 %index.next537, %n.vec530
  br i1 %58, label %middle.block525, label %vector.body533, !llvm.loop !196

middle.block525:                                  ; preds = %vector.body533
  %cmp.n532 = icmp eq i64 %n.vec530, %wide.trip.count.i.i.i119
  br i1 %cmp.n532, label %if.then.i11.i.i135, label %for.body.i.i.i126.preheader

for.body.i.i.i126.preheader:                      ; preds = %for.body.lr.ph.i.i.i120, %middle.block525
  %indvars.iv.i.i.i121.ph = phi i64 [ 0, %for.body.lr.ph.i.i.i120 ], [ %n.vec530, %middle.block525 ]
  %59 = xor i64 %indvars.iv.i.i.i121.ph, -1
  %60 = add nsw i64 %59, %wide.trip.count.i.i.i119
  %xtraiter580 = and i64 %wide.trip.count.i.i.i119, 3
  %lcmp.mod581.not = icmp eq i64 %xtraiter580, 0
  br i1 %lcmp.mod581.not, label %for.body.i.i.i126.prol.loopexit, label %for.body.i.i.i126.prol

for.body.i.i.i126.prol:                           ; preds = %for.body.i.i.i126.preheader, %for.body.i.i.i126.prol
  %indvars.iv.i.i.i121.prol = phi i64 [ %indvars.iv.next.i.i.i124.prol, %for.body.i.i.i126.prol ], [ %indvars.iv.i.i.i121.ph, %for.body.i.i.i126.preheader ]
  %prol.iter582 = phi i64 [ %prol.iter582.next, %for.body.i.i.i126.prol ], [ 0, %for.body.i.i.i126.preheader ]
  %arrayidx.i.i.i122.prol = getelementptr inbounds i32, ptr %retval.0.i.i.i115, i64 %indvars.iv.i.i.i121.prol
  %arrayidx3.i.i.i123.prol = getelementptr inbounds i32, ptr %50, i64 %indvars.iv.i.i.i121.prol
  %61 = load i32, ptr %arrayidx3.i.i.i123.prol, align 4, !tbaa !185
  store i32 %61, ptr %arrayidx.i.i.i122.prol, align 4, !tbaa !185
  %indvars.iv.next.i.i.i124.prol = add nuw nsw i64 %indvars.iv.i.i.i121.prol, 1
  %prol.iter582.next = add i64 %prol.iter582, 1
  %prol.iter582.cmp.not = icmp eq i64 %prol.iter582.next, %xtraiter580
  br i1 %prol.iter582.cmp.not, label %for.body.i.i.i126.prol.loopexit, label %for.body.i.i.i126.prol, !llvm.loop !197

for.body.i.i.i126.prol.loopexit:                  ; preds = %for.body.i.i.i126.prol, %for.body.i.i.i126.preheader
  %indvars.iv.i.i.i121.unr = phi i64 [ %indvars.iv.i.i.i121.ph, %for.body.i.i.i126.preheader ], [ %indvars.iv.next.i.i.i124.prol, %for.body.i.i.i126.prol ]
  %62 = icmp ult i64 %60, 3
  br i1 %62, label %if.then.i11.i.i135, label %for.body.i.i.i126

for.body.i.i.i126:                                ; preds = %for.body.i.i.i126.prol.loopexit, %for.body.i.i.i126
  %indvars.iv.i.i.i121 = phi i64 [ %indvars.iv.next.i.i.i124.3, %for.body.i.i.i126 ], [ %indvars.iv.i.i.i121.unr, %for.body.i.i.i126.prol.loopexit ]
  %arrayidx.i.i.i122 = getelementptr inbounds i32, ptr %retval.0.i.i.i115, i64 %indvars.iv.i.i.i121
  %arrayidx3.i.i.i123 = getelementptr inbounds i32, ptr %50, i64 %indvars.iv.i.i.i121
  %63 = load i32, ptr %arrayidx3.i.i.i123, align 4, !tbaa !185
  store i32 %63, ptr %arrayidx.i.i.i122, align 4, !tbaa !185
  %indvars.iv.next.i.i.i124 = add nuw nsw i64 %indvars.iv.i.i.i121, 1
  %arrayidx.i.i.i122.1 = getelementptr inbounds i32, ptr %retval.0.i.i.i115, i64 %indvars.iv.next.i.i.i124
  %arrayidx3.i.i.i123.1 = getelementptr inbounds i32, ptr %50, i64 %indvars.iv.next.i.i.i124
  %64 = load i32, ptr %arrayidx3.i.i.i123.1, align 4, !tbaa !185
  store i32 %64, ptr %arrayidx.i.i.i122.1, align 4, !tbaa !185
  %indvars.iv.next.i.i.i124.1 = add nuw nsw i64 %indvars.iv.i.i.i121, 2
  %arrayidx.i.i.i122.2 = getelementptr inbounds i32, ptr %retval.0.i.i.i115, i64 %indvars.iv.next.i.i.i124.1
  %arrayidx3.i.i.i123.2 = getelementptr inbounds i32, ptr %50, i64 %indvars.iv.next.i.i.i124.1
  %65 = load i32, ptr %arrayidx3.i.i.i123.2, align 4, !tbaa !185
  store i32 %65, ptr %arrayidx.i.i.i122.2, align 4, !tbaa !185
  %indvars.iv.next.i.i.i124.2 = add nuw nsw i64 %indvars.iv.i.i.i121, 3
  %arrayidx.i.i.i122.3 = getelementptr inbounds i32, ptr %retval.0.i.i.i115, i64 %indvars.iv.next.i.i.i124.2
  %arrayidx3.i.i.i123.3 = getelementptr inbounds i32, ptr %50, i64 %indvars.iv.next.i.i.i124.2
  %66 = load i32, ptr %arrayidx3.i.i.i123.3, align 4, !tbaa !185
  store i32 %66, ptr %arrayidx.i.i.i122.3, align 4, !tbaa !185
  %indvars.iv.next.i.i.i124.3 = add nuw nsw i64 %indvars.iv.i.i.i121, 4
  %exitcond.not.i.i.i125.3 = icmp eq i64 %indvars.iv.next.i.i.i124.3, %wide.trip.count.i.i.i119
  br i1 %exitcond.not.i.i.i125.3, label %if.then.i11.i.i135, label %for.body.i.i.i126, !llvm.loop !198

_ZNK20btAlignedObjectArrayIN10btSoftBody8ePSolver1_EE4copyEiiPS2_.exit.i.i131: ; preds = %_ZN20btAlignedObjectArrayIN10btSoftBody8ePSolver1_EE8allocateEi.exit.i.i118
  %tobool.not.i10.i.i127 = icmp eq ptr %50, null
  %67 = load i8, ptr %m_ownsMemory.i.i33, align 8, !range !159
  %tobool2.not.i.i.i129 = icmp eq i8 %67, 0
  %or.cond.i130 = select i1 %tobool.not.i10.i.i127, i1 true, i1 %tobool2.not.i.i.i129
  br i1 %or.cond.i130, label %_ZN20btAlignedObjectArrayIN10btSoftBody8ePSolver1_EE10deallocateEv.exit.i.i140, label %if.then3.i.i.i137

if.then.i11.i.i135:                               ; preds = %for.body.i.i.i126.prol.loopexit, %for.body.i.i.i126, %middle.block525
  %.old.i133 = load i8, ptr %m_ownsMemory.i.i33, align 8, !tbaa !24, !range !159, !noundef !192
  %tobool2.not.i.i.old.i134 = icmp eq i8 %.old.i133, 0
  br i1 %tobool2.not.i.i.old.i134, label %_ZN20btAlignedObjectArrayIN10btSoftBody8ePSolver1_EE10deallocateEv.exit.i.i140, label %if.then3.i.i.i137

if.then3.i.i.i137:                                ; preds = %if.then.i11.i.i135, %_ZNK20btAlignedObjectArrayIN10btSoftBody8ePSolver1_EE4copyEiiPS2_.exit.i.i131
  tail call void @_Z21btAlignedFreeInternalPv(ptr noundef nonnull %50)
  %.pre7.pre.pre.i136 = load i32, ptr %m_size.i4.i38, align 4, !tbaa !28
  br label %_ZN20btAlignedObjectArrayIN10btSoftBody8ePSolver1_EE10deallocateEv.exit.i.i140

_ZN20btAlignedObjectArrayIN10btSoftBody8ePSolver1_EE10deallocateEv.exit.i.i140: ; preds = %if.then3.i.i.i137, %if.then.i11.i.i135, %_ZNK20btAlignedObjectArrayIN10btSoftBody8ePSolver1_EE4copyEiiPS2_.exit.i.i131
  %.pre7.i138 = phi i32 [ %51, %_ZNK20btAlignedObjectArrayIN10btSoftBody8ePSolver1_EE4copyEiiPS2_.exit.i.i131 ], [ %.pre7.pre.pre.i136, %if.then3.i.i.i137 ], [ %51, %if.then.i11.i.i135 ]
  store i8 1, ptr %m_ownsMemory.i.i33, align 8, !tbaa !24
  store ptr %retval.0.i.i.i115, ptr %m_data.i.i31, align 8, !tbaa !27
  store i32 %cond.i.i105, ptr %m_capacity.i.i39, align 8, !tbaa !29
  br label %_ZN20btAlignedObjectArrayIN10btSoftBody8ePSolver1_EE9push_backERKS2_.exit145

_ZN20btAlignedObjectArrayIN10btSoftBody8ePSolver1_EE9push_backERKS2_.exit145: ; preds = %_ZN20btAlignedObjectArrayIN10btSoftBody8ePSolver1_EE9push_backERKS2_.exit99, %if.then.i107, %_ZN20btAlignedObjectArrayIN10btSoftBody8ePSolver1_EE10deallocateEv.exit.i.i140
  %68 = phi i32 [ %cond.i.i105, %_ZN20btAlignedObjectArrayIN10btSoftBody8ePSolver1_EE10deallocateEv.exit.i.i140 ], [ %47, %if.then.i107 ], [ %47, %_ZN20btAlignedObjectArrayIN10btSoftBody8ePSolver1_EE9push_backERKS2_.exit99 ]
  %69 = phi ptr [ %retval.0.i.i.i115, %_ZN20btAlignedObjectArrayIN10btSoftBody8ePSolver1_EE10deallocateEv.exit.i.i140 ], [ %48, %if.then.i107 ], [ %48, %_ZN20btAlignedObjectArrayIN10btSoftBody8ePSolver1_EE9push_backERKS2_.exit99 ]
  %70 = phi i32 [ %.pre7.i138, %_ZN20btAlignedObjectArrayIN10btSoftBody8ePSolver1_EE10deallocateEv.exit.i.i140 ], [ %47, %if.then.i107 ], [ %inc.i98, %_ZN20btAlignedObjectArrayIN10btSoftBody8ePSolver1_EE9push_backERKS2_.exit99 ]
  %idxprom.i142 = sext i32 %70 to i64
  %arrayidx.i143 = getelementptr inbounds i32, ptr %69, i64 %idxprom.i142
  store i32 3, ptr %arrayidx.i143, align 4, !tbaa !185
  %inc.i144 = add nsw i32 %70, 1
  store i32 %inc.i144, ptr %m_size.i4.i38, align 4, !tbaa !28
  %cmp.i148 = icmp eq i32 %inc.i144, %68
  br i1 %cmp.i148, label %if.then.i153, label %sw.epilog.sink.split

if.then.i153:                                     ; preds = %_ZN20btAlignedObjectArrayIN10btSoftBody8ePSolver1_EE9push_backERKS2_.exit145
  %tobool.not.i.i149 = icmp eq i32 %68, 0
  %mul.i.i150 = shl nsw i32 %68, 1
  %cond.i.i151 = select i1 %tobool.not.i.i149, i32 1, i32 %mul.i.i150
  %cmp.i.i152 = icmp slt i32 %68, %cond.i.i151
  br i1 %cmp.i.i152, label %if.then.i.i155, label %sw.epilog.sink.split

if.then.i.i155:                                   ; preds = %if.then.i153
  %tobool.not.i.i.i154 = icmp eq i32 %cond.i.i151, 0
  br i1 %tobool.not.i.i.i154, label %_ZN20btAlignedObjectArrayIN10btSoftBody8ePSolver1_EE8allocateEi.exit.i.i164, label %if.then.i.i.i160

if.then.i.i.i160:                                 ; preds = %if.then.i.i155
  %conv.i.i.i.i156 = sext i32 %cond.i.i151 to i64
  %mul.i.i.i.i157 = shl nsw i64 %conv.i.i.i.i156, 2
  %call.i.i.i.i158 = tail call noundef ptr @_Z22btAlignedAllocInternalmi(i64 noundef %mul.i.i.i.i157, i32 noundef 16)
  %.pre.i159 = load i32, ptr %m_size.i4.i38, align 4, !tbaa !28
  %.pre421 = load ptr, ptr %m_data.i.i31, align 8, !tbaa !27
  br label %_ZN20btAlignedObjectArrayIN10btSoftBody8ePSolver1_EE8allocateEi.exit.i.i164

_ZN20btAlignedObjectArrayIN10btSoftBody8ePSolver1_EE8allocateEi.exit.i.i164: ; preds = %if.then.i.i.i160, %if.then.i.i155
  %71 = phi ptr [ %.pre421, %if.then.i.i.i160 ], [ %69, %if.then.i.i155 ]
  %72 = phi i32 [ %.pre.i159, %if.then.i.i.i160 ], [ %68, %if.then.i.i155 ]
  %retval.0.i.i.i161 = phi ptr [ %call.i.i.i.i158, %if.then.i.i.i160 ], [ null, %if.then.i.i155 ]
  %cmp7.i.i.i162 = icmp sgt i32 %72, 0
  br i1 %cmp7.i.i.i162, label %for.body.lr.ph.i.i.i166, label %_ZNK20btAlignedObjectArrayIN10btSoftBody8ePSolver1_EE4copyEiiPS2_.exit.i.i177

for.body.lr.ph.i.i.i166:                          ; preds = %_ZN20btAlignedObjectArrayIN10btSoftBody8ePSolver1_EE8allocateEi.exit.i.i164
  %73 = ptrtoint ptr %71 to i64
  %retval.0.i.i.i161539 = ptrtoint ptr %retval.0.i.i.i161 to i64
  %wide.trip.count.i.i.i165 = zext i32 %72 to i64
  %min.iters.check543 = icmp ult i32 %72, 8
  %74 = sub i64 %retval.0.i.i.i161539, %73
  %diff.check540 = icmp ult i64 %74, 32
  %or.cond556 = select i1 %min.iters.check543, i1 true, i1 %diff.check540
  br i1 %or.cond556, label %for.body.i.i.i172.preheader, label %vector.ph544

vector.ph544:                                     ; preds = %for.body.lr.ph.i.i.i166
  %n.vec546 = and i64 %wide.trip.count.i.i.i165, 4294967288
  br label %vector.body549

vector.body549:                                   ; preds = %vector.body549, %vector.ph544
  %index550 = phi i64 [ 0, %vector.ph544 ], [ %index.next553, %vector.body549 ]
  %75 = getelementptr inbounds i32, ptr %retval.0.i.i.i161, i64 %index550
  %76 = getelementptr inbounds i32, ptr %71, i64 %index550
  %wide.load551 = load <4 x i32>, ptr %76, align 4, !tbaa !185
  %77 = getelementptr inbounds i32, ptr %76, i64 4
  %wide.load552 = load <4 x i32>, ptr %77, align 4, !tbaa !185
  store <4 x i32> %wide.load551, ptr %75, align 4, !tbaa !185
  %78 = getelementptr inbounds i32, ptr %75, i64 4
  store <4 x i32> %wide.load552, ptr %78, align 4, !tbaa !185
  %index.next553 = add nuw i64 %index550, 8
  %79 = icmp eq i64 %index.next553, %n.vec546
  br i1 %79, label %middle.block541, label %vector.body549, !llvm.loop !199

middle.block541:                                  ; preds = %vector.body549
  %cmp.n548 = icmp eq i64 %n.vec546, %wide.trip.count.i.i.i165
  br i1 %cmp.n548, label %if.then.i11.i.i181, label %for.body.i.i.i172.preheader

for.body.i.i.i172.preheader:                      ; preds = %for.body.lr.ph.i.i.i166, %middle.block541
  %indvars.iv.i.i.i167.ph = phi i64 [ 0, %for.body.lr.ph.i.i.i166 ], [ %n.vec546, %middle.block541 ]
  %80 = xor i64 %indvars.iv.i.i.i167.ph, -1
  %81 = add nsw i64 %80, %wide.trip.count.i.i.i165
  %xtraiter583 = and i64 %wide.trip.count.i.i.i165, 3
  %lcmp.mod584.not = icmp eq i64 %xtraiter583, 0
  br i1 %lcmp.mod584.not, label %for.body.i.i.i172.prol.loopexit, label %for.body.i.i.i172.prol

for.body.i.i.i172.prol:                           ; preds = %for.body.i.i.i172.preheader, %for.body.i.i.i172.prol
  %indvars.iv.i.i.i167.prol = phi i64 [ %indvars.iv.next.i.i.i170.prol, %for.body.i.i.i172.prol ], [ %indvars.iv.i.i.i167.ph, %for.body.i.i.i172.preheader ]
  %prol.iter585 = phi i64 [ %prol.iter585.next, %for.body.i.i.i172.prol ], [ 0, %for.body.i.i.i172.preheader ]
  %arrayidx.i.i.i168.prol = getelementptr inbounds i32, ptr %retval.0.i.i.i161, i64 %indvars.iv.i.i.i167.prol
  %arrayidx3.i.i.i169.prol = getelementptr inbounds i32, ptr %71, i64 %indvars.iv.i.i.i167.prol
  %82 = load i32, ptr %arrayidx3.i.i.i169.prol, align 4, !tbaa !185
  store i32 %82, ptr %arrayidx.i.i.i168.prol, align 4, !tbaa !185
  %indvars.iv.next.i.i.i170.prol = add nuw nsw i64 %indvars.iv.i.i.i167.prol, 1
  %prol.iter585.next = add i64 %prol.iter585, 1
  %prol.iter585.cmp.not = icmp eq i64 %prol.iter585.next, %xtraiter583
  br i1 %prol.iter585.cmp.not, label %for.body.i.i.i172.prol.loopexit, label %for.body.i.i.i172.prol, !llvm.loop !200

for.body.i.i.i172.prol.loopexit:                  ; preds = %for.body.i.i.i172.prol, %for.body.i.i.i172.preheader
  %indvars.iv.i.i.i167.unr = phi i64 [ %indvars.iv.i.i.i167.ph, %for.body.i.i.i172.preheader ], [ %indvars.iv.next.i.i.i170.prol, %for.body.i.i.i172.prol ]
  %83 = icmp ult i64 %81, 3
  br i1 %83, label %if.then.i11.i.i181, label %for.body.i.i.i172

for.body.i.i.i172:                                ; preds = %for.body.i.i.i172.prol.loopexit, %for.body.i.i.i172
  %indvars.iv.i.i.i167 = phi i64 [ %indvars.iv.next.i.i.i170.3, %for.body.i.i.i172 ], [ %indvars.iv.i.i.i167.unr, %for.body.i.i.i172.prol.loopexit ]
  %arrayidx.i.i.i168 = getelementptr inbounds i32, ptr %retval.0.i.i.i161, i64 %indvars.iv.i.i.i167
  %arrayidx3.i.i.i169 = getelementptr inbounds i32, ptr %71, i64 %indvars.iv.i.i.i167
  %84 = load i32, ptr %arrayidx3.i.i.i169, align 4, !tbaa !185
  store i32 %84, ptr %arrayidx.i.i.i168, align 4, !tbaa !185
  %indvars.iv.next.i.i.i170 = add nuw nsw i64 %indvars.iv.i.i.i167, 1
  %arrayidx.i.i.i168.1 = getelementptr inbounds i32, ptr %retval.0.i.i.i161, i64 %indvars.iv.next.i.i.i170
  %arrayidx3.i.i.i169.1 = getelementptr inbounds i32, ptr %71, i64 %indvars.iv.next.i.i.i170
  %85 = load i32, ptr %arrayidx3.i.i.i169.1, align 4, !tbaa !185
  store i32 %85, ptr %arrayidx.i.i.i168.1, align 4, !tbaa !185
  %indvars.iv.next.i.i.i170.1 = add nuw nsw i64 %indvars.iv.i.i.i167, 2
  %arrayidx.i.i.i168.2 = getelementptr inbounds i32, ptr %retval.0.i.i.i161, i64 %indvars.iv.next.i.i.i170.1
  %arrayidx3.i.i.i169.2 = getelementptr inbounds i32, ptr %71, i64 %indvars.iv.next.i.i.i170.1
  %86 = load i32, ptr %arrayidx3.i.i.i169.2, align 4, !tbaa !185
  store i32 %86, ptr %arrayidx.i.i.i168.2, align 4, !tbaa !185
  %indvars.iv.next.i.i.i170.2 = add nuw nsw i64 %indvars.iv.i.i.i167, 3
  %arrayidx.i.i.i168.3 = getelementptr inbounds i32, ptr %retval.0.i.i.i161, i64 %indvars.iv.next.i.i.i170.2
  %arrayidx3.i.i.i169.3 = getelementptr inbounds i32, ptr %71, i64 %indvars.iv.next.i.i.i170.2
  %87 = load i32, ptr %arrayidx3.i.i.i169.3, align 4, !tbaa !185
  store i32 %87, ptr %arrayidx.i.i.i168.3, align 4, !tbaa !185
  %indvars.iv.next.i.i.i170.3 = add nuw nsw i64 %indvars.iv.i.i.i167, 4
  %exitcond.not.i.i.i171.3 = icmp eq i64 %indvars.iv.next.i.i.i170.3, %wide.trip.count.i.i.i165
  br i1 %exitcond.not.i.i.i171.3, label %if.then.i11.i.i181, label %for.body.i.i.i172, !llvm.loop !201

_ZNK20btAlignedObjectArrayIN10btSoftBody8ePSolver1_EE4copyEiiPS2_.exit.i.i177: ; preds = %_ZN20btAlignedObjectArrayIN10btSoftBody8ePSolver1_EE8allocateEi.exit.i.i164
  %tobool.not.i10.i.i173 = icmp eq ptr %71, null
  %88 = load i8, ptr %m_ownsMemory.i.i33, align 8, !range !159
  %tobool2.not.i.i.i175 = icmp eq i8 %88, 0
  %or.cond.i176 = select i1 %tobool.not.i10.i.i173, i1 true, i1 %tobool2.not.i.i.i175
  br i1 %or.cond.i176, label %_ZN20btAlignedObjectArrayIN10btSoftBody8ePSolver1_EE10deallocateEv.exit.i.i186, label %if.then3.i.i.i183

if.then.i11.i.i181:                               ; preds = %for.body.i.i.i172.prol.loopexit, %for.body.i.i.i172, %middle.block541
  %.old.i179 = load i8, ptr %m_ownsMemory.i.i33, align 8, !tbaa !24, !range !159, !noundef !192
  %tobool2.not.i.i.old.i180 = icmp eq i8 %.old.i179, 0
  br i1 %tobool2.not.i.i.old.i180, label %_ZN20btAlignedObjectArrayIN10btSoftBody8ePSolver1_EE10deallocateEv.exit.i.i186, label %if.then3.i.i.i183

if.then3.i.i.i183:                                ; preds = %if.then.i11.i.i181, %_ZNK20btAlignedObjectArrayIN10btSoftBody8ePSolver1_EE4copyEiiPS2_.exit.i.i177
  tail call void @_Z21btAlignedFreeInternalPv(ptr noundef nonnull %71)
  %.pre7.pre.pre.i182 = load i32, ptr %m_size.i4.i38, align 4, !tbaa !28
  br label %_ZN20btAlignedObjectArrayIN10btSoftBody8ePSolver1_EE10deallocateEv.exit.i.i186

_ZN20btAlignedObjectArrayIN10btSoftBody8ePSolver1_EE10deallocateEv.exit.i.i186: ; preds = %if.then3.i.i.i183, %if.then.i11.i.i181, %_ZNK20btAlignedObjectArrayIN10btSoftBody8ePSolver1_EE4copyEiiPS2_.exit.i.i177
  %.pre7.i184 = phi i32 [ %72, %_ZNK20btAlignedObjectArrayIN10btSoftBody8ePSolver1_EE4copyEiiPS2_.exit.i.i177 ], [ %.pre7.pre.pre.i182, %if.then3.i.i.i183 ], [ %72, %if.then.i11.i.i181 ]
  store i8 1, ptr %m_ownsMemory.i.i33, align 8, !tbaa !24
  store ptr %retval.0.i.i.i161, ptr %m_data.i.i31, align 8, !tbaa !27
  store i32 %cond.i.i151, ptr %m_capacity.i.i39, align 8, !tbaa !29
  br label %sw.epilog.sink.split

sw.bb15:                                          ; preds = %_ZN20btAlignedObjectArrayIN10btSoftBody8ePSolver1_EE5clearEv.exit49
  %89 = load i32, ptr %m_size.i4.i, align 4, !tbaa !22
  %90 = load i32, ptr %m_capacity.i.i, align 8, !tbaa !23
  %cmp.i194 = icmp eq i32 %89, %90
  br i1 %cmp.i194, label %if.then.i199, label %_ZN20btAlignedObjectArrayIN10btSoftBody8eVSolver1_EE9push_backERKS2_.exit

if.then.i199:                                     ; preds = %sw.bb15
  %tobool.not.i.i195 = icmp eq i32 %89, 0
  %mul.i.i196 = shl nsw i32 %89, 1
  %cond.i.i197 = select i1 %tobool.not.i.i195, i32 1, i32 %mul.i.i196
  %cmp.i.i198 = icmp slt i32 %89, %cond.i.i197
  br i1 %cmp.i.i198, label %if.then.i.i201, label %_ZN20btAlignedObjectArrayIN10btSoftBody8eVSolver1_EE9push_backERKS2_.exit

if.then.i.i201:                                   ; preds = %if.then.i199
  %tobool.not.i.i.i200 = icmp eq i32 %cond.i.i197, 0
  br i1 %tobool.not.i.i.i200, label %_ZN20btAlignedObjectArrayIN10btSoftBody8eVSolver1_EE8allocateEi.exit.i.i, label %if.then.i.i.i206

if.then.i.i.i206:                                 ; preds = %if.then.i.i201
  %conv.i.i.i.i202 = sext i32 %cond.i.i197 to i64
  %mul.i.i.i.i203 = shl nsw i64 %conv.i.i.i.i202, 2
  %call.i.i.i.i204 = tail call noundef ptr @_Z22btAlignedAllocInternalmi(i64 noundef %mul.i.i.i.i203, i32 noundef 16)
  %.pre.i205 = load i32, ptr %m_size.i4.i, align 4, !tbaa !22
  br label %_ZN20btAlignedObjectArrayIN10btSoftBody8eVSolver1_EE8allocateEi.exit.i.i

_ZN20btAlignedObjectArrayIN10btSoftBody8eVSolver1_EE8allocateEi.exit.i.i: ; preds = %if.then.i.i.i206, %if.then.i.i201
  %91 = phi i32 [ %.pre.i205, %if.then.i.i.i206 ], [ %89, %if.then.i.i201 ]
  %retval.0.i.i.i207 = phi ptr [ %call.i.i.i.i204, %if.then.i.i.i206 ], [ null, %if.then.i.i201 ]
  %cmp7.i.i.i208 = icmp sgt i32 %91, 0
  %92 = load ptr, ptr %m_data.i.i, align 8, !tbaa !21
  br i1 %cmp7.i.i.i208, label %for.body.lr.ph.i.i.i211, label %_ZNK20btAlignedObjectArrayIN10btSoftBody8eVSolver1_EE4copyEiiPS2_.exit.i.i

for.body.lr.ph.i.i.i211:                          ; preds = %_ZN20btAlignedObjectArrayIN10btSoftBody8eVSolver1_EE8allocateEi.exit.i.i
  %93 = ptrtoint ptr %92 to i64
  %retval.0.i.i.i207424 = ptrtoint ptr %retval.0.i.i.i207 to i64
  %wide.trip.count.i.i.i210 = zext i32 %91 to i64
  %min.iters.check = icmp ult i32 %91, 8
  %94 = sub i64 %retval.0.i.i.i207424, %93
  %diff.check = icmp ult i64 %94, 32
  %or.cond557 = select i1 %min.iters.check, i1 true, i1 %diff.check
  br i1 %or.cond557, label %for.body.i.i.i217.preheader, label %vector.ph

vector.ph:                                        ; preds = %for.body.lr.ph.i.i.i211
  %n.vec = and i64 %wide.trip.count.i.i.i210, 4294967288
  br label %vector.body

vector.body:                                      ; preds = %vector.body, %vector.ph
  %index = phi i64 [ 0, %vector.ph ], [ %index.next, %vector.body ]
  %95 = getelementptr inbounds i32, ptr %retval.0.i.i.i207, i64 %index
  %96 = getelementptr inbounds i32, ptr %92, i64 %index
  %wide.load = load <4 x i32>, ptr %96, align 4, !tbaa !202
  %97 = getelementptr inbounds i32, ptr %96, i64 4
  %wide.load425 = load <4 x i32>, ptr %97, align 4, !tbaa !202
  store <4 x i32> %wide.load, ptr %95, align 4, !tbaa !202
  %98 = getelementptr inbounds i32, ptr %95, i64 4
  store <4 x i32> %wide.load425, ptr %98, align 4, !tbaa !202
  %index.next = add nuw i64 %index, 8
  %99 = icmp eq i64 %index.next, %n.vec
  br i1 %99, label %middle.block, label %vector.body, !llvm.loop !204

middle.block:                                     ; preds = %vector.body
  %cmp.n = icmp eq i64 %n.vec, %wide.trip.count.i.i.i210
  br i1 %cmp.n, label %if.then.i11.i.i225, label %for.body.i.i.i217.preheader

for.body.i.i.i217.preheader:                      ; preds = %for.body.lr.ph.i.i.i211, %middle.block
  %indvars.iv.i.i.i212.ph = phi i64 [ 0, %for.body.lr.ph.i.i.i211 ], [ %n.vec, %middle.block ]
  %100 = xor i64 %indvars.iv.i.i.i212.ph, -1
  %101 = add nsw i64 %100, %wide.trip.count.i.i.i210
  %xtraiter = and i64 %wide.trip.count.i.i.i210, 3
  %lcmp.mod.not = icmp eq i64 %xtraiter, 0
  br i1 %lcmp.mod.not, label %for.body.i.i.i217.prol.loopexit, label %for.body.i.i.i217.prol

for.body.i.i.i217.prol:                           ; preds = %for.body.i.i.i217.preheader, %for.body.i.i.i217.prol
  %indvars.iv.i.i.i212.prol = phi i64 [ %indvars.iv.next.i.i.i215.prol, %for.body.i.i.i217.prol ], [ %indvars.iv.i.i.i212.ph, %for.body.i.i.i217.preheader ]
  %prol.iter = phi i64 [ %prol.iter.next, %for.body.i.i.i217.prol ], [ 0, %for.body.i.i.i217.preheader ]
  %arrayidx.i.i.i213.prol = getelementptr inbounds i32, ptr %retval.0.i.i.i207, i64 %indvars.iv.i.i.i212.prol
  %arrayidx3.i.i.i214.prol = getelementptr inbounds i32, ptr %92, i64 %indvars.iv.i.i.i212.prol
  %102 = load i32, ptr %arrayidx3.i.i.i214.prol, align 4, !tbaa !202
  store i32 %102, ptr %arrayidx.i.i.i213.prol, align 4, !tbaa !202
  %indvars.iv.next.i.i.i215.prol = add nuw nsw i64 %indvars.iv.i.i.i212.prol, 1
  %prol.iter.next = add i64 %prol.iter, 1
  %prol.iter.cmp.not = icmp eq i64 %prol.iter.next, %xtraiter
  br i1 %prol.iter.cmp.not, label %for.body.i.i.i217.prol.loopexit, label %for.body.i.i.i217.prol, !llvm.loop !205

for.body.i.i.i217.prol.loopexit:                  ; preds = %for.body.i.i.i217.prol, %for.body.i.i.i217.preheader
  %indvars.iv.i.i.i212.unr = phi i64 [ %indvars.iv.i.i.i212.ph, %for.body.i.i.i217.preheader ], [ %indvars.iv.next.i.i.i215.prol, %for.body.i.i.i217.prol ]
  %103 = icmp ult i64 %101, 3
  br i1 %103, label %if.then.i11.i.i225, label %for.body.i.i.i217

for.body.i.i.i217:                                ; preds = %for.body.i.i.i217.prol.loopexit, %for.body.i.i.i217
  %indvars.iv.i.i.i212 = phi i64 [ %indvars.iv.next.i.i.i215.3, %for.body.i.i.i217 ], [ %indvars.iv.i.i.i212.unr, %for.body.i.i.i217.prol.loopexit ]
  %arrayidx.i.i.i213 = getelementptr inbounds i32, ptr %retval.0.i.i.i207, i64 %indvars.iv.i.i.i212
  %arrayidx3.i.i.i214 = getelementptr inbounds i32, ptr %92, i64 %indvars.iv.i.i.i212
  %104 = load i32, ptr %arrayidx3.i.i.i214, align 4, !tbaa !202
  store i32 %104, ptr %arrayidx.i.i.i213, align 4, !tbaa !202
  %indvars.iv.next.i.i.i215 = add nuw nsw i64 %indvars.iv.i.i.i212, 1
  %arrayidx.i.i.i213.1 = getelementptr inbounds i32, ptr %retval.0.i.i.i207, i64 %indvars.iv.next.i.i.i215
  %arrayidx3.i.i.i214.1 = getelementptr inbounds i32, ptr %92, i64 %indvars.iv.next.i.i.i215
  %105 = load i32, ptr %arrayidx3.i.i.i214.1, align 4, !tbaa !202
  store i32 %105, ptr %arrayidx.i.i.i213.1, align 4, !tbaa !202
  %indvars.iv.next.i.i.i215.1 = add nuw nsw i64 %indvars.iv.i.i.i212, 2
  %arrayidx.i.i.i213.2 = getelementptr inbounds i32, ptr %retval.0.i.i.i207, i64 %indvars.iv.next.i.i.i215.1
  %arrayidx3.i.i.i214.2 = getelementptr inbounds i32, ptr %92, i64 %indvars.iv.next.i.i.i215.1
  %106 = load i32, ptr %arrayidx3.i.i.i214.2, align 4, !tbaa !202
  store i32 %106, ptr %arrayidx.i.i.i213.2, align 4, !tbaa !202
  %indvars.iv.next.i.i.i215.2 = add nuw nsw i64 %indvars.iv.i.i.i212, 3
  %arrayidx.i.i.i213.3 = getelementptr inbounds i32, ptr %retval.0.i.i.i207, i64 %indvars.iv.next.i.i.i215.2
  %arrayidx3.i.i.i214.3 = getelementptr inbounds i32, ptr %92, i64 %indvars.iv.next.i.i.i215.2
  %107 = load i32, ptr %arrayidx3.i.i.i214.3, align 4, !tbaa !202
  store i32 %107, ptr %arrayidx.i.i.i213.3, align 4, !tbaa !202
  %indvars.iv.next.i.i.i215.3 = add nuw nsw i64 %indvars.iv.i.i.i212, 4
  %exitcond.not.i.i.i216.3 = icmp eq i64 %indvars.iv.next.i.i.i215.3, %wide.trip.count.i.i.i210
  br i1 %exitcond.not.i.i.i216.3, label %if.then.i11.i.i225, label %for.body.i.i.i217, !llvm.loop !206

_ZNK20btAlignedObjectArrayIN10btSoftBody8eVSolver1_EE4copyEiiPS2_.exit.i.i: ; preds = %_ZN20btAlignedObjectArrayIN10btSoftBody8eVSolver1_EE8allocateEi.exit.i.i
  %tobool.not.i10.i.i218 = icmp eq ptr %92, null
  %108 = load i8, ptr %m_ownsMemory.i.i, align 8, !range !159
  %tobool2.not.i.i.i220 = icmp eq i8 %108, 0
  %or.cond.i221 = select i1 %tobool.not.i10.i.i218, i1 true, i1 %tobool2.not.i.i.i220
  br i1 %or.cond.i221, label %_ZN20btAlignedObjectArrayIN10btSoftBody8eVSolver1_EE10deallocateEv.exit.i.i, label %if.then3.i.i.i227

if.then.i11.i.i225:                               ; preds = %for.body.i.i.i217.prol.loopexit, %for.body.i.i.i217, %middle.block
  %.old.i223 = load i8, ptr %m_ownsMemory.i.i, align 8, !tbaa !18, !range !159, !noundef !192
  %tobool2.not.i.i.old.i224 = icmp eq i8 %.old.i223, 0
  br i1 %tobool2.not.i.i.old.i224, label %_ZN20btAlignedObjectArrayIN10btSoftBody8eVSolver1_EE10deallocateEv.exit.i.i, label %if.then3.i.i.i227

if.then3.i.i.i227:                                ; preds = %if.then.i11.i.i225, %_ZNK20btAlignedObjectArrayIN10btSoftBody8eVSolver1_EE4copyEiiPS2_.exit.i.i
  tail call void @_Z21btAlignedFreeInternalPv(ptr noundef nonnull %92)
  %.pre7.pre.pre.i226 = load i32, ptr %m_size.i4.i, align 4, !tbaa !22
  br label %_ZN20btAlignedObjectArrayIN10btSoftBody8eVSolver1_EE10deallocateEv.exit.i.i

_ZN20btAlignedObjectArrayIN10btSoftBody8eVSolver1_EE10deallocateEv.exit.i.i: ; preds = %if.then3.i.i.i227, %if.then.i11.i.i225, %_ZNK20btAlignedObjectArrayIN10btSoftBody8eVSolver1_EE4copyEiiPS2_.exit.i.i
  %.pre7.i228 = phi i32 [ %91, %_ZNK20btAlignedObjectArrayIN10btSoftBody8eVSolver1_EE4copyEiiPS2_.exit.i.i ], [ %.pre7.pre.pre.i226, %if.then3.i.i.i227 ], [ %91, %if.then.i11.i.i225 ]
  store i8 1, ptr %m_ownsMemory.i.i, align 8, !tbaa !18
  store ptr %retval.0.i.i.i207, ptr %m_data.i.i, align 8, !tbaa !21
  store i32 %cond.i.i197, ptr %m_capacity.i.i, align 8, !tbaa !23
  br label %_ZN20btAlignedObjectArrayIN10btSoftBody8eVSolver1_EE9push_backERKS2_.exit

_ZN20btAlignedObjectArrayIN10btSoftBody8eVSolver1_EE9push_backERKS2_.exit: ; preds = %sw.bb15, %if.then.i199, %_ZN20btAlignedObjectArrayIN10btSoftBody8eVSolver1_EE10deallocateEv.exit.i.i
  %109 = phi i32 [ %.pre7.i228, %_ZN20btAlignedObjectArrayIN10btSoftBody8eVSolver1_EE10deallocateEv.exit.i.i ], [ %89, %if.then.i199 ], [ %89, %sw.bb15 ]
  %110 = load ptr, ptr %m_data.i.i, align 8, !tbaa !21
  %idxprom.i231 = sext i32 %109 to i64
  %arrayidx.i232 = getelementptr inbounds i32, ptr %110, i64 %idxprom.i231
  store i32 0, ptr %arrayidx.i232, align 4, !tbaa !202
  %inc.i233 = add nsw i32 %109, 1
  store i32 %inc.i233, ptr %m_size.i4.i, align 4, !tbaa !22
  %111 = load i32, ptr %m_size.i4.i38, align 4, !tbaa !28
  %112 = load i32, ptr %m_capacity.i.i39, align 8, !tbaa !29
  %cmp.i236 = icmp eq i32 %111, %112
  br i1 %cmp.i236, label %if.then.i241, label %_ZN20btAlignedObjectArrayIN10btSoftBody8ePSolver1_EE9push_backERKS2_.exit279

if.then.i241:                                     ; preds = %_ZN20btAlignedObjectArrayIN10btSoftBody8eVSolver1_EE9push_backERKS2_.exit
  %tobool.not.i.i237 = icmp eq i32 %111, 0
  %mul.i.i238 = shl nsw i32 %111, 1
  %cond.i.i239 = select i1 %tobool.not.i.i237, i32 1, i32 %mul.i.i238
  %cmp.i.i240 = icmp slt i32 %111, %cond.i.i239
  br i1 %cmp.i.i240, label %if.then.i.i243, label %_ZN20btAlignedObjectArrayIN10btSoftBody8ePSolver1_EE9push_backERKS2_.exit279

if.then.i.i243:                                   ; preds = %if.then.i241
  %tobool.not.i.i.i242 = icmp eq i32 %cond.i.i239, 0
  br i1 %tobool.not.i.i.i242, label %_ZN20btAlignedObjectArrayIN10btSoftBody8ePSolver1_EE8allocateEi.exit.i.i252, label %if.then.i.i.i248

if.then.i.i.i248:                                 ; preds = %if.then.i.i243
  %conv.i.i.i.i244 = sext i32 %cond.i.i239 to i64
  %mul.i.i.i.i245 = shl nsw i64 %conv.i.i.i.i244, 2
  %call.i.i.i.i246 = tail call noundef ptr @_Z22btAlignedAllocInternalmi(i64 noundef %mul.i.i.i.i245, i32 noundef 16)
  %.pre.i247 = load i32, ptr %m_size.i4.i38, align 4, !tbaa !28
  br label %_ZN20btAlignedObjectArrayIN10btSoftBody8ePSolver1_EE8allocateEi.exit.i.i252

_ZN20btAlignedObjectArrayIN10btSoftBody8ePSolver1_EE8allocateEi.exit.i.i252: ; preds = %if.then.i.i.i248, %if.then.i.i243
  %113 = phi i32 [ %.pre.i247, %if.then.i.i.i248 ], [ %111, %if.then.i.i243 ]
  %retval.0.i.i.i249 = phi ptr [ %call.i.i.i.i246, %if.then.i.i.i248 ], [ null, %if.then.i.i243 ]
  %cmp7.i.i.i250 = icmp sgt i32 %113, 0
  %114 = load ptr, ptr %m_data.i.i31, align 8, !tbaa !27
  br i1 %cmp7.i.i.i250, label %for.body.lr.ph.i.i.i254, label %_ZNK20btAlignedObjectArrayIN10btSoftBody8ePSolver1_EE4copyEiiPS2_.exit.i.i265

for.body.lr.ph.i.i.i254:                          ; preds = %_ZN20btAlignedObjectArrayIN10btSoftBody8ePSolver1_EE8allocateEi.exit.i.i252
  %115 = ptrtoint ptr %114 to i64
  %retval.0.i.i.i249427 = ptrtoint ptr %retval.0.i.i.i249 to i64
  %wide.trip.count.i.i.i253 = zext i32 %113 to i64
  %min.iters.check431 = icmp ult i32 %113, 8
  %116 = sub i64 %retval.0.i.i.i249427, %115
  %diff.check428 = icmp ult i64 %116, 32
  %or.cond558 = select i1 %min.iters.check431, i1 true, i1 %diff.check428
  br i1 %or.cond558, label %for.body.i.i.i260.preheader, label %vector.ph432

vector.ph432:                                     ; preds = %for.body.lr.ph.i.i.i254
  %n.vec434 = and i64 %wide.trip.count.i.i.i253, 4294967288
  br label %vector.body437

vector.body437:                                   ; preds = %vector.body437, %vector.ph432
  %index438 = phi i64 [ 0, %vector.ph432 ], [ %index.next441, %vector.body437 ]
  %117 = getelementptr inbounds i32, ptr %retval.0.i.i.i249, i64 %index438
  %118 = getelementptr inbounds i32, ptr %114, i64 %index438
  %wide.load439 = load <4 x i32>, ptr %118, align 4, !tbaa !185
  %119 = getelementptr inbounds i32, ptr %118, i64 4
  %wide.load440 = load <4 x i32>, ptr %119, align 4, !tbaa !185
  store <4 x i32> %wide.load439, ptr %117, align 4, !tbaa !185
  %120 = getelementptr inbounds i32, ptr %117, i64 4
  store <4 x i32> %wide.load440, ptr %120, align 4, !tbaa !185
  %index.next441 = add nuw i64 %index438, 8
  %121 = icmp eq i64 %index.next441, %n.vec434
  br i1 %121, label %middle.block429, label %vector.body437, !llvm.loop !207

middle.block429:                                  ; preds = %vector.body437
  %cmp.n436 = icmp eq i64 %n.vec434, %wide.trip.count.i.i.i253
  br i1 %cmp.n436, label %if.then.i11.i.i269, label %for.body.i.i.i260.preheader

for.body.i.i.i260.preheader:                      ; preds = %for.body.lr.ph.i.i.i254, %middle.block429
  %indvars.iv.i.i.i255.ph = phi i64 [ 0, %for.body.lr.ph.i.i.i254 ], [ %n.vec434, %middle.block429 ]
  %122 = xor i64 %indvars.iv.i.i.i255.ph, -1
  %123 = add nsw i64 %122, %wide.trip.count.i.i.i253
  %xtraiter562 = and i64 %wide.trip.count.i.i.i253, 3
  %lcmp.mod563.not = icmp eq i64 %xtraiter562, 0
  br i1 %lcmp.mod563.not, label %for.body.i.i.i260.prol.loopexit, label %for.body.i.i.i260.prol

for.body.i.i.i260.prol:                           ; preds = %for.body.i.i.i260.preheader, %for.body.i.i.i260.prol
  %indvars.iv.i.i.i255.prol = phi i64 [ %indvars.iv.next.i.i.i258.prol, %for.body.i.i.i260.prol ], [ %indvars.iv.i.i.i255.ph, %for.body.i.i.i260.preheader ]
  %prol.iter564 = phi i64 [ %prol.iter564.next, %for.body.i.i.i260.prol ], [ 0, %for.body.i.i.i260.preheader ]
  %arrayidx.i.i.i256.prol = getelementptr inbounds i32, ptr %retval.0.i.i.i249, i64 %indvars.iv.i.i.i255.prol
  %arrayidx3.i.i.i257.prol = getelementptr inbounds i32, ptr %114, i64 %indvars.iv.i.i.i255.prol
  %124 = load i32, ptr %arrayidx3.i.i.i257.prol, align 4, !tbaa !185
  store i32 %124, ptr %arrayidx.i.i.i256.prol, align 4, !tbaa !185
  %indvars.iv.next.i.i.i258.prol = add nuw nsw i64 %indvars.iv.i.i.i255.prol, 1
  %prol.iter564.next = add i64 %prol.iter564, 1
  %prol.iter564.cmp.not = icmp eq i64 %prol.iter564.next, %xtraiter562
  br i1 %prol.iter564.cmp.not, label %for.body.i.i.i260.prol.loopexit, label %for.body.i.i.i260.prol, !llvm.loop !208

for.body.i.i.i260.prol.loopexit:                  ; preds = %for.body.i.i.i260.prol, %for.body.i.i.i260.preheader
  %indvars.iv.i.i.i255.unr = phi i64 [ %indvars.iv.i.i.i255.ph, %for.body.i.i.i260.preheader ], [ %indvars.iv.next.i.i.i258.prol, %for.body.i.i.i260.prol ]
  %125 = icmp ult i64 %123, 3
  br i1 %125, label %if.then.i11.i.i269, label %for.body.i.i.i260

for.body.i.i.i260:                                ; preds = %for.body.i.i.i260.prol.loopexit, %for.body.i.i.i260
  %indvars.iv.i.i.i255 = phi i64 [ %indvars.iv.next.i.i.i258.3, %for.body.i.i.i260 ], [ %indvars.iv.i.i.i255.unr, %for.body.i.i.i260.prol.loopexit ]
  %arrayidx.i.i.i256 = getelementptr inbounds i32, ptr %retval.0.i.i.i249, i64 %indvars.iv.i.i.i255
  %arrayidx3.i.i.i257 = getelementptr inbounds i32, ptr %114, i64 %indvars.iv.i.i.i255
  %126 = load i32, ptr %arrayidx3.i.i.i257, align 4, !tbaa !185
  store i32 %126, ptr %arrayidx.i.i.i256, align 4, !tbaa !185
  %indvars.iv.next.i.i.i258 = add nuw nsw i64 %indvars.iv.i.i.i255, 1
  %arrayidx.i.i.i256.1 = getelementptr inbounds i32, ptr %retval.0.i.i.i249, i64 %indvars.iv.next.i.i.i258
  %arrayidx3.i.i.i257.1 = getelementptr inbounds i32, ptr %114, i64 %indvars.iv.next.i.i.i258
  %127 = load i32, ptr %arrayidx3.i.i.i257.1, align 4, !tbaa !185
  store i32 %127, ptr %arrayidx.i.i.i256.1, align 4, !tbaa !185
  %indvars.iv.next.i.i.i258.1 = add nuw nsw i64 %indvars.iv.i.i.i255, 2
  %arrayidx.i.i.i256.2 = getelementptr inbounds i32, ptr %retval.0.i.i.i249, i64 %indvars.iv.next.i.i.i258.1
  %arrayidx3.i.i.i257.2 = getelementptr inbounds i32, ptr %114, i64 %indvars.iv.next.i.i.i258.1
  %128 = load i32, ptr %arrayidx3.i.i.i257.2, align 4, !tbaa !185
  store i32 %128, ptr %arrayidx.i.i.i256.2, align 4, !tbaa !185
  %indvars.iv.next.i.i.i258.2 = add nuw nsw i64 %indvars.iv.i.i.i255, 3
  %arrayidx.i.i.i256.3 = getelementptr inbounds i32, ptr %retval.0.i.i.i249, i64 %indvars.iv.next.i.i.i258.2
  %arrayidx3.i.i.i257.3 = getelementptr inbounds i32, ptr %114, i64 %indvars.iv.next.i.i.i258.2
  %129 = load i32, ptr %arrayidx3.i.i.i257.3, align 4, !tbaa !185
  store i32 %129, ptr %arrayidx.i.i.i256.3, align 4, !tbaa !185
  %indvars.iv.next.i.i.i258.3 = add nuw nsw i64 %indvars.iv.i.i.i255, 4
  %exitcond.not.i.i.i259.3 = icmp eq i64 %indvars.iv.next.i.i.i258.3, %wide.trip.count.i.i.i253
  br i1 %exitcond.not.i.i.i259.3, label %if.then.i11.i.i269, label %for.body.i.i.i260, !llvm.loop !209

_ZNK20btAlignedObjectArrayIN10btSoftBody8ePSolver1_EE4copyEiiPS2_.exit.i.i265: ; preds = %_ZN20btAlignedObjectArrayIN10btSoftBody8ePSolver1_EE8allocateEi.exit.i.i252
  %tobool.not.i10.i.i261 = icmp eq ptr %114, null
  %130 = load i8, ptr %m_ownsMemory.i.i33, align 8, !range !159
  %tobool2.not.i.i.i263 = icmp eq i8 %130, 0
  %or.cond.i264 = select i1 %tobool.not.i10.i.i261, i1 true, i1 %tobool2.not.i.i.i263
  br i1 %or.cond.i264, label %_ZN20btAlignedObjectArrayIN10btSoftBody8ePSolver1_EE10deallocateEv.exit.i.i274, label %if.then3.i.i.i271

if.then.i11.i.i269:                               ; preds = %for.body.i.i.i260.prol.loopexit, %for.body.i.i.i260, %middle.block429
  %.old.i267 = load i8, ptr %m_ownsMemory.i.i33, align 8, !tbaa !24, !range !159, !noundef !192
  %tobool2.not.i.i.old.i268 = icmp eq i8 %.old.i267, 0
  br i1 %tobool2.not.i.i.old.i268, label %_ZN20btAlignedObjectArrayIN10btSoftBody8ePSolver1_EE10deallocateEv.exit.i.i274, label %if.then3.i.i.i271

if.then3.i.i.i271:                                ; preds = %if.then.i11.i.i269, %_ZNK20btAlignedObjectArrayIN10btSoftBody8ePSolver1_EE4copyEiiPS2_.exit.i.i265
  tail call void @_Z21btAlignedFreeInternalPv(ptr noundef nonnull %114)
  %.pre7.pre.pre.i270 = load i32, ptr %m_size.i4.i38, align 4, !tbaa !28
  br label %_ZN20btAlignedObjectArrayIN10btSoftBody8ePSolver1_EE10deallocateEv.exit.i.i274

_ZN20btAlignedObjectArrayIN10btSoftBody8ePSolver1_EE10deallocateEv.exit.i.i274: ; preds = %if.then3.i.i.i271, %if.then.i11.i.i269, %_ZNK20btAlignedObjectArrayIN10btSoftBody8ePSolver1_EE4copyEiiPS2_.exit.i.i265
  %.pre7.i272 = phi i32 [ %113, %_ZNK20btAlignedObjectArrayIN10btSoftBody8ePSolver1_EE4copyEiiPS2_.exit.i.i265 ], [ %.pre7.pre.pre.i270, %if.then3.i.i.i271 ], [ %113, %if.then.i11.i.i269 ]
  store i8 1, ptr %m_ownsMemory.i.i33, align 8, !tbaa !24
  store ptr %retval.0.i.i.i249, ptr %m_data.i.i31, align 8, !tbaa !27
  store i32 %cond.i.i239, ptr %m_capacity.i.i39, align 8, !tbaa !29
  br label %_ZN20btAlignedObjectArrayIN10btSoftBody8ePSolver1_EE9push_backERKS2_.exit279

_ZN20btAlignedObjectArrayIN10btSoftBody8ePSolver1_EE9push_backERKS2_.exit279: ; preds = %_ZN20btAlignedObjectArrayIN10btSoftBody8eVSolver1_EE9push_backERKS2_.exit, %if.then.i241, %_ZN20btAlignedObjectArrayIN10btSoftBody8ePSolver1_EE10deallocateEv.exit.i.i274
  %131 = phi i32 [ %cond.i.i239, %_ZN20btAlignedObjectArrayIN10btSoftBody8ePSolver1_EE10deallocateEv.exit.i.i274 ], [ %111, %if.then.i241 ], [ %112, %_ZN20btAlignedObjectArrayIN10btSoftBody8eVSolver1_EE9push_backERKS2_.exit ]
  %132 = phi i32 [ %.pre7.i272, %_ZN20btAlignedObjectArrayIN10btSoftBody8ePSolver1_EE10deallocateEv.exit.i.i274 ], [ %111, %if.then.i241 ], [ %111, %_ZN20btAlignedObjectArrayIN10btSoftBody8eVSolver1_EE9push_backERKS2_.exit ]
  %133 = load ptr, ptr %m_data.i.i31, align 8, !tbaa !27
  %idxprom.i276 = sext i32 %132 to i64
  %arrayidx.i277 = getelementptr inbounds i32, ptr %133, i64 %idxprom.i276
  store i32 1, ptr %arrayidx.i277, align 4, !tbaa !185
  %inc.i278 = add nsw i32 %132, 1
  store i32 %inc.i278, ptr %m_size.i4.i38, align 4, !tbaa !28
  %cmp.i282 = icmp eq i32 %inc.i278, %131
  br i1 %cmp.i282, label %if.then.i287, label %_ZN20btAlignedObjectArrayIN10btSoftBody8ePSolver1_EE9push_backERKS2_.exit325

if.then.i287:                                     ; preds = %_ZN20btAlignedObjectArrayIN10btSoftBody8ePSolver1_EE9push_backERKS2_.exit279
  %tobool.not.i.i283 = icmp eq i32 %131, 0
  %mul.i.i284 = shl nsw i32 %131, 1
  %cond.i.i285 = select i1 %tobool.not.i.i283, i32 1, i32 %mul.i.i284
  %cmp.i.i286 = icmp slt i32 %131, %cond.i.i285
  br i1 %cmp.i.i286, label %if.then.i.i289, label %_ZN20btAlignedObjectArrayIN10btSoftBody8ePSolver1_EE9push_backERKS2_.exit325

if.then.i.i289:                                   ; preds = %if.then.i287
  %tobool.not.i.i.i288 = icmp eq i32 %cond.i.i285, 0
  br i1 %tobool.not.i.i.i288, label %_ZN20btAlignedObjectArrayIN10btSoftBody8ePSolver1_EE8allocateEi.exit.i.i298, label %if.then.i.i.i294

if.then.i.i.i294:                                 ; preds = %if.then.i.i289
  %conv.i.i.i.i290 = sext i32 %cond.i.i285 to i64
  %mul.i.i.i.i291 = shl nsw i64 %conv.i.i.i.i290, 2
  %call.i.i.i.i292 = tail call noundef ptr @_Z22btAlignedAllocInternalmi(i64 noundef %mul.i.i.i.i291, i32 noundef 16)
  %.pre.i293 = load i32, ptr %m_size.i4.i38, align 4, !tbaa !28
  %.pre = load ptr, ptr %m_data.i.i31, align 8, !tbaa !27
  br label %_ZN20btAlignedObjectArrayIN10btSoftBody8ePSolver1_EE8allocateEi.exit.i.i298

_ZN20btAlignedObjectArrayIN10btSoftBody8ePSolver1_EE8allocateEi.exit.i.i298: ; preds = %if.then.i.i.i294, %if.then.i.i289
  %134 = phi ptr [ %.pre, %if.then.i.i.i294 ], [ %133, %if.then.i.i289 ]
  %135 = phi i32 [ %.pre.i293, %if.then.i.i.i294 ], [ %131, %if.then.i.i289 ]
  %retval.0.i.i.i295 = phi ptr [ %call.i.i.i.i292, %if.then.i.i.i294 ], [ null, %if.then.i.i289 ]
  %cmp7.i.i.i296 = icmp sgt i32 %135, 0
  br i1 %cmp7.i.i.i296, label %for.body.lr.ph.i.i.i300, label %_ZNK20btAlignedObjectArrayIN10btSoftBody8ePSolver1_EE4copyEiiPS2_.exit.i.i311

for.body.lr.ph.i.i.i300:                          ; preds = %_ZN20btAlignedObjectArrayIN10btSoftBody8ePSolver1_EE8allocateEi.exit.i.i298
  %136 = ptrtoint ptr %134 to i64
  %retval.0.i.i.i295443 = ptrtoint ptr %retval.0.i.i.i295 to i64
  %wide.trip.count.i.i.i299 = zext i32 %135 to i64
  %min.iters.check447 = icmp ult i32 %135, 8
  %137 = sub i64 %retval.0.i.i.i295443, %136
  %diff.check444 = icmp ult i64 %137, 32
  %or.cond559 = select i1 %min.iters.check447, i1 true, i1 %diff.check444
  br i1 %or.cond559, label %for.body.i.i.i306.preheader, label %vector.ph448

vector.ph448:                                     ; preds = %for.body.lr.ph.i.i.i300
  %n.vec450 = and i64 %wide.trip.count.i.i.i299, 4294967288
  br label %vector.body453

vector.body453:                                   ; preds = %vector.body453, %vector.ph448
  %index454 = phi i64 [ 0, %vector.ph448 ], [ %index.next457, %vector.body453 ]
  %138 = getelementptr inbounds i32, ptr %retval.0.i.i.i295, i64 %index454
  %139 = getelementptr inbounds i32, ptr %134, i64 %index454
  %wide.load455 = load <4 x i32>, ptr %139, align 4, !tbaa !185
  %140 = getelementptr inbounds i32, ptr %139, i64 4
  %wide.load456 = load <4 x i32>, ptr %140, align 4, !tbaa !185
  store <4 x i32> %wide.load455, ptr %138, align 4, !tbaa !185
  %141 = getelementptr inbounds i32, ptr %138, i64 4
  store <4 x i32> %wide.load456, ptr %141, align 4, !tbaa !185
  %index.next457 = add nuw i64 %index454, 8
  %142 = icmp eq i64 %index.next457, %n.vec450
  br i1 %142, label %middle.block445, label %vector.body453, !llvm.loop !210

middle.block445:                                  ; preds = %vector.body453
  %cmp.n452 = icmp eq i64 %n.vec450, %wide.trip.count.i.i.i299
  br i1 %cmp.n452, label %if.then.i11.i.i315, label %for.body.i.i.i306.preheader

for.body.i.i.i306.preheader:                      ; preds = %for.body.lr.ph.i.i.i300, %middle.block445
  %indvars.iv.i.i.i301.ph = phi i64 [ 0, %for.body.lr.ph.i.i.i300 ], [ %n.vec450, %middle.block445 ]
  %143 = xor i64 %indvars.iv.i.i.i301.ph, -1
  %144 = add nsw i64 %143, %wide.trip.count.i.i.i299
  %xtraiter565 = and i64 %wide.trip.count.i.i.i299, 3
  %lcmp.mod566.not = icmp eq i64 %xtraiter565, 0
  br i1 %lcmp.mod566.not, label %for.body.i.i.i306.prol.loopexit, label %for.body.i.i.i306.prol

for.body.i.i.i306.prol:                           ; preds = %for.body.i.i.i306.preheader, %for.body.i.i.i306.prol
  %indvars.iv.i.i.i301.prol = phi i64 [ %indvars.iv.next.i.i.i304.prol, %for.body.i.i.i306.prol ], [ %indvars.iv.i.i.i301.ph, %for.body.i.i.i306.preheader ]
  %prol.iter567 = phi i64 [ %prol.iter567.next, %for.body.i.i.i306.prol ], [ 0, %for.body.i.i.i306.preheader ]
  %arrayidx.i.i.i302.prol = getelementptr inbounds i32, ptr %retval.0.i.i.i295, i64 %indvars.iv.i.i.i301.prol
  %arrayidx3.i.i.i303.prol = getelementptr inbounds i32, ptr %134, i64 %indvars.iv.i.i.i301.prol
  %145 = load i32, ptr %arrayidx3.i.i.i303.prol, align 4, !tbaa !185
  store i32 %145, ptr %arrayidx.i.i.i302.prol, align 4, !tbaa !185
  %indvars.iv.next.i.i.i304.prol = add nuw nsw i64 %indvars.iv.i.i.i301.prol, 1
  %prol.iter567.next = add i64 %prol.iter567, 1
  %prol.iter567.cmp.not = icmp eq i64 %prol.iter567.next, %xtraiter565
  br i1 %prol.iter567.cmp.not, label %for.body.i.i.i306.prol.loopexit, label %for.body.i.i.i306.prol, !llvm.loop !211

for.body.i.i.i306.prol.loopexit:                  ; preds = %for.body.i.i.i306.prol, %for.body.i.i.i306.preheader
  %indvars.iv.i.i.i301.unr = phi i64 [ %indvars.iv.i.i.i301.ph, %for.body.i.i.i306.preheader ], [ %indvars.iv.next.i.i.i304.prol, %for.body.i.i.i306.prol ]
  %146 = icmp ult i64 %144, 3
  br i1 %146, label %if.then.i11.i.i315, label %for.body.i.i.i306

for.body.i.i.i306:                                ; preds = %for.body.i.i.i306.prol.loopexit, %for.body.i.i.i306
  %indvars.iv.i.i.i301 = phi i64 [ %indvars.iv.next.i.i.i304.3, %for.body.i.i.i306 ], [ %indvars.iv.i.i.i301.unr, %for.body.i.i.i306.prol.loopexit ]
  %arrayidx.i.i.i302 = getelementptr inbounds i32, ptr %retval.0.i.i.i295, i64 %indvars.iv.i.i.i301
  %arrayidx3.i.i.i303 = getelementptr inbounds i32, ptr %134, i64 %indvars.iv.i.i.i301
  %147 = load i32, ptr %arrayidx3.i.i.i303, align 4, !tbaa !185
  store i32 %147, ptr %arrayidx.i.i.i302, align 4, !tbaa !185
  %indvars.iv.next.i.i.i304 = add nuw nsw i64 %indvars.iv.i.i.i301, 1
  %arrayidx.i.i.i302.1 = getelementptr inbounds i32, ptr %retval.0.i.i.i295, i64 %indvars.iv.next.i.i.i304
  %arrayidx3.i.i.i303.1 = getelementptr inbounds i32, ptr %134, i64 %indvars.iv.next.i.i.i304
  %148 = load i32, ptr %arrayidx3.i.i.i303.1, align 4, !tbaa !185
  store i32 %148, ptr %arrayidx.i.i.i302.1, align 4, !tbaa !185
  %indvars.iv.next.i.i.i304.1 = add nuw nsw i64 %indvars.iv.i.i.i301, 2
  %arrayidx.i.i.i302.2 = getelementptr inbounds i32, ptr %retval.0.i.i.i295, i64 %indvars.iv.next.i.i.i304.1
  %arrayidx3.i.i.i303.2 = getelementptr inbounds i32, ptr %134, i64 %indvars.iv.next.i.i.i304.1
  %149 = load i32, ptr %arrayidx3.i.i.i303.2, align 4, !tbaa !185
  store i32 %149, ptr %arrayidx.i.i.i302.2, align 4, !tbaa !185
  %indvars.iv.next.i.i.i304.2 = add nuw nsw i64 %indvars.iv.i.i.i301, 3
  %arrayidx.i.i.i302.3 = getelementptr inbounds i32, ptr %retval.0.i.i.i295, i64 %indvars.iv.next.i.i.i304.2
  %arrayidx3.i.i.i303.3 = getelementptr inbounds i32, ptr %134, i64 %indvars.iv.next.i.i.i304.2
  %150 = load i32, ptr %arrayidx3.i.i.i303.3, align 4, !tbaa !185
  store i32 %150, ptr %arrayidx.i.i.i302.3, align 4, !tbaa !185
  %indvars.iv.next.i.i.i304.3 = add nuw nsw i64 %indvars.iv.i.i.i301, 4
  %exitcond.not.i.i.i305.3 = icmp eq i64 %indvars.iv.next.i.i.i304.3, %wide.trip.count.i.i.i299
  br i1 %exitcond.not.i.i.i305.3, label %if.then.i11.i.i315, label %for.body.i.i.i306, !llvm.loop !212

_ZNK20btAlignedObjectArrayIN10btSoftBody8ePSolver1_EE4copyEiiPS2_.exit.i.i311: ; preds = %_ZN20btAlignedObjectArrayIN10btSoftBody8ePSolver1_EE8allocateEi.exit.i.i298
  %tobool.not.i10.i.i307 = icmp eq ptr %134, null
  %151 = load i8, ptr %m_ownsMemory.i.i33, align 8, !range !159
  %tobool2.not.i.i.i309 = icmp eq i8 %151, 0
  %or.cond.i310 = select i1 %tobool.not.i10.i.i307, i1 true, i1 %tobool2.not.i.i.i309
  br i1 %or.cond.i310, label %_ZN20btAlignedObjectArrayIN10btSoftBody8ePSolver1_EE10deallocateEv.exit.i.i320, label %if.then3.i.i.i317

if.then.i11.i.i315:                               ; preds = %for.body.i.i.i306.prol.loopexit, %for.body.i.i.i306, %middle.block445
  %.old.i313 = load i8, ptr %m_ownsMemory.i.i33, align 8, !tbaa !24, !range !159, !noundef !192
  %tobool2.not.i.i.old.i314 = icmp eq i8 %.old.i313, 0
  br i1 %tobool2.not.i.i.old.i314, label %_ZN20btAlignedObjectArrayIN10btSoftBody8ePSolver1_EE10deallocateEv.exit.i.i320, label %if.then3.i.i.i317

if.then3.i.i.i317:                                ; preds = %if.then.i11.i.i315, %_ZNK20btAlignedObjectArrayIN10btSoftBody8ePSolver1_EE4copyEiiPS2_.exit.i.i311
  tail call void @_Z21btAlignedFreeInternalPv(ptr noundef nonnull %134)
  %.pre7.pre.pre.i316 = load i32, ptr %m_size.i4.i38, align 4, !tbaa !28
  br label %_ZN20btAlignedObjectArrayIN10btSoftBody8ePSolver1_EE10deallocateEv.exit.i.i320

_ZN20btAlignedObjectArrayIN10btSoftBody8ePSolver1_EE10deallocateEv.exit.i.i320: ; preds = %if.then3.i.i.i317, %if.then.i11.i.i315, %_ZNK20btAlignedObjectArrayIN10btSoftBody8ePSolver1_EE4copyEiiPS2_.exit.i.i311
  %.pre7.i318 = phi i32 [ %135, %_ZNK20btAlignedObjectArrayIN10btSoftBody8ePSolver1_EE4copyEiiPS2_.exit.i.i311 ], [ %.pre7.pre.pre.i316, %if.then3.i.i.i317 ], [ %135, %if.then.i11.i.i315 ]
  store i8 1, ptr %m_ownsMemory.i.i33, align 8, !tbaa !24
  store ptr %retval.0.i.i.i295, ptr %m_data.i.i31, align 8, !tbaa !27
  store i32 %cond.i.i285, ptr %m_capacity.i.i39, align 8, !tbaa !29
  br label %_ZN20btAlignedObjectArrayIN10btSoftBody8ePSolver1_EE9push_backERKS2_.exit325

_ZN20btAlignedObjectArrayIN10btSoftBody8ePSolver1_EE9push_backERKS2_.exit325: ; preds = %_ZN20btAlignedObjectArrayIN10btSoftBody8ePSolver1_EE9push_backERKS2_.exit279, %if.then.i287, %_ZN20btAlignedObjectArrayIN10btSoftBody8ePSolver1_EE10deallocateEv.exit.i.i320
  %152 = phi i32 [ %cond.i.i285, %_ZN20btAlignedObjectArrayIN10btSoftBody8ePSolver1_EE10deallocateEv.exit.i.i320 ], [ %131, %if.then.i287 ], [ %131, %_ZN20btAlignedObjectArrayIN10btSoftBody8ePSolver1_EE9push_backERKS2_.exit279 ]
  %153 = phi ptr [ %retval.0.i.i.i295, %_ZN20btAlignedObjectArrayIN10btSoftBody8ePSolver1_EE10deallocateEv.exit.i.i320 ], [ %133, %if.then.i287 ], [ %133, %_ZN20btAlignedObjectArrayIN10btSoftBody8ePSolver1_EE9push_backERKS2_.exit279 ]
  %154 = phi i32 [ %.pre7.i318, %_ZN20btAlignedObjectArrayIN10btSoftBody8ePSolver1_EE10deallocateEv.exit.i.i320 ], [ %131, %if.then.i287 ], [ %inc.i278, %_ZN20btAlignedObjectArrayIN10btSoftBody8ePSolver1_EE9push_backERKS2_.exit279 ]
  %idxprom.i322 = sext i32 %154 to i64
  %arrayidx.i323 = getelementptr inbounds i32, ptr %153, i64 %idxprom.i322
  store i32 2, ptr %arrayidx.i323, align 4, !tbaa !185
  %inc.i324 = add nsw i32 %154, 1
  store i32 %inc.i324, ptr %m_size.i4.i38, align 4, !tbaa !28
  %cmp.i328 = icmp eq i32 %inc.i324, %152
  br i1 %cmp.i328, label %if.then.i333, label %_ZN20btAlignedObjectArrayIN10btSoftBody8ePSolver1_EE9push_backERKS2_.exit371

if.then.i333:                                     ; preds = %_ZN20btAlignedObjectArrayIN10btSoftBody8ePSolver1_EE9push_backERKS2_.exit325
  %tobool.not.i.i329 = icmp eq i32 %152, 0
  %mul.i.i330 = shl nsw i32 %152, 1
  %cond.i.i331 = select i1 %tobool.not.i.i329, i32 1, i32 %mul.i.i330
  %cmp.i.i332 = icmp slt i32 %152, %cond.i.i331
  br i1 %cmp.i.i332, label %if.then.i.i335, label %_ZN20btAlignedObjectArrayIN10btSoftBody8ePSolver1_EE9push_backERKS2_.exit371

if.then.i.i335:                                   ; preds = %if.then.i333
  %tobool.not.i.i.i334 = icmp eq i32 %cond.i.i331, 0
  br i1 %tobool.not.i.i.i334, label %_ZN20btAlignedObjectArrayIN10btSoftBody8ePSolver1_EE8allocateEi.exit.i.i344, label %if.then.i.i.i340

if.then.i.i.i340:                                 ; preds = %if.then.i.i335
  %conv.i.i.i.i336 = sext i32 %cond.i.i331 to i64
  %mul.i.i.i.i337 = shl nsw i64 %conv.i.i.i.i336, 2
  %call.i.i.i.i338 = tail call noundef ptr @_Z22btAlignedAllocInternalmi(i64 noundef %mul.i.i.i.i337, i32 noundef 16)
  %.pre.i339 = load i32, ptr %m_size.i4.i38, align 4, !tbaa !28
  %.pre418 = load ptr, ptr %m_data.i.i31, align 8, !tbaa !27
  br label %_ZN20btAlignedObjectArrayIN10btSoftBody8ePSolver1_EE8allocateEi.exit.i.i344

_ZN20btAlignedObjectArrayIN10btSoftBody8ePSolver1_EE8allocateEi.exit.i.i344: ; preds = %if.then.i.i.i340, %if.then.i.i335
  %155 = phi ptr [ %.pre418, %if.then.i.i.i340 ], [ %153, %if.then.i.i335 ]
  %156 = phi i32 [ %.pre.i339, %if.then.i.i.i340 ], [ %152, %if.then.i.i335 ]
  %retval.0.i.i.i341 = phi ptr [ %call.i.i.i.i338, %if.then.i.i.i340 ], [ null, %if.then.i.i335 ]
  %cmp7.i.i.i342 = icmp sgt i32 %156, 0
  br i1 %cmp7.i.i.i342, label %for.body.lr.ph.i.i.i346, label %_ZNK20btAlignedObjectArrayIN10btSoftBody8ePSolver1_EE4copyEiiPS2_.exit.i.i357

for.body.lr.ph.i.i.i346:                          ; preds = %_ZN20btAlignedObjectArrayIN10btSoftBody8ePSolver1_EE8allocateEi.exit.i.i344
  %157 = ptrtoint ptr %155 to i64
  %retval.0.i.i.i341459 = ptrtoint ptr %retval.0.i.i.i341 to i64
  %wide.trip.count.i.i.i345 = zext i32 %156 to i64
  %min.iters.check463 = icmp ult i32 %156, 8
  %158 = sub i64 %retval.0.i.i.i341459, %157
  %diff.check460 = icmp ult i64 %158, 32
  %or.cond560 = select i1 %min.iters.check463, i1 true, i1 %diff.check460
  br i1 %or.cond560, label %for.body.i.i.i352.preheader, label %vector.ph464

vector.ph464:                                     ; preds = %for.body.lr.ph.i.i.i346
  %n.vec466 = and i64 %wide.trip.count.i.i.i345, 4294967288
  br label %vector.body469

vector.body469:                                   ; preds = %vector.body469, %vector.ph464
  %index470 = phi i64 [ 0, %vector.ph464 ], [ %index.next473, %vector.body469 ]
  %159 = getelementptr inbounds i32, ptr %retval.0.i.i.i341, i64 %index470
  %160 = getelementptr inbounds i32, ptr %155, i64 %index470
  %wide.load471 = load <4 x i32>, ptr %160, align 4, !tbaa !185
  %161 = getelementptr inbounds i32, ptr %160, i64 4
  %wide.load472 = load <4 x i32>, ptr %161, align 4, !tbaa !185
  store <4 x i32> %wide.load471, ptr %159, align 4, !tbaa !185
  %162 = getelementptr inbounds i32, ptr %159, i64 4
  store <4 x i32> %wide.load472, ptr %162, align 4, !tbaa !185
  %index.next473 = add nuw i64 %index470, 8
  %163 = icmp eq i64 %index.next473, %n.vec466
  br i1 %163, label %middle.block461, label %vector.body469, !llvm.loop !213

middle.block461:                                  ; preds = %vector.body469
  %cmp.n468 = icmp eq i64 %n.vec466, %wide.trip.count.i.i.i345
  br i1 %cmp.n468, label %if.then.i11.i.i361, label %for.body.i.i.i352.preheader

for.body.i.i.i352.preheader:                      ; preds = %for.body.lr.ph.i.i.i346, %middle.block461
  %indvars.iv.i.i.i347.ph = phi i64 [ 0, %for.body.lr.ph.i.i.i346 ], [ %n.vec466, %middle.block461 ]
  %164 = xor i64 %indvars.iv.i.i.i347.ph, -1
  %165 = add nsw i64 %164, %wide.trip.count.i.i.i345
  %xtraiter568 = and i64 %wide.trip.count.i.i.i345, 3
  %lcmp.mod569.not = icmp eq i64 %xtraiter568, 0
  br i1 %lcmp.mod569.not, label %for.body.i.i.i352.prol.loopexit, label %for.body.i.i.i352.prol

for.body.i.i.i352.prol:                           ; preds = %for.body.i.i.i352.preheader, %for.body.i.i.i352.prol
  %indvars.iv.i.i.i347.prol = phi i64 [ %indvars.iv.next.i.i.i350.prol, %for.body.i.i.i352.prol ], [ %indvars.iv.i.i.i347.ph, %for.body.i.i.i352.preheader ]
  %prol.iter570 = phi i64 [ %prol.iter570.next, %for.body.i.i.i352.prol ], [ 0, %for.body.i.i.i352.preheader ]
  %arrayidx.i.i.i348.prol = getelementptr inbounds i32, ptr %retval.0.i.i.i341, i64 %indvars.iv.i.i.i347.prol
  %arrayidx3.i.i.i349.prol = getelementptr inbounds i32, ptr %155, i64 %indvars.iv.i.i.i347.prol
  %166 = load i32, ptr %arrayidx3.i.i.i349.prol, align 4, !tbaa !185
  store i32 %166, ptr %arrayidx.i.i.i348.prol, align 4, !tbaa !185
  %indvars.iv.next.i.i.i350.prol = add nuw nsw i64 %indvars.iv.i.i.i347.prol, 1
  %prol.iter570.next = add i64 %prol.iter570, 1
  %prol.iter570.cmp.not = icmp eq i64 %prol.iter570.next, %xtraiter568
  br i1 %prol.iter570.cmp.not, label %for.body.i.i.i352.prol.loopexit, label %for.body.i.i.i352.prol, !llvm.loop !214

for.body.i.i.i352.prol.loopexit:                  ; preds = %for.body.i.i.i352.prol, %for.body.i.i.i352.preheader
  %indvars.iv.i.i.i347.unr = phi i64 [ %indvars.iv.i.i.i347.ph, %for.body.i.i.i352.preheader ], [ %indvars.iv.next.i.i.i350.prol, %for.body.i.i.i352.prol ]
  %167 = icmp ult i64 %165, 3
  br i1 %167, label %if.then.i11.i.i361, label %for.body.i.i.i352

for.body.i.i.i352:                                ; preds = %for.body.i.i.i352.prol.loopexit, %for.body.i.i.i352
  %indvars.iv.i.i.i347 = phi i64 [ %indvars.iv.next.i.i.i350.3, %for.body.i.i.i352 ], [ %indvars.iv.i.i.i347.unr, %for.body.i.i.i352.prol.loopexit ]
  %arrayidx.i.i.i348 = getelementptr inbounds i32, ptr %retval.0.i.i.i341, i64 %indvars.iv.i.i.i347
  %arrayidx3.i.i.i349 = getelementptr inbounds i32, ptr %155, i64 %indvars.iv.i.i.i347
  %168 = load i32, ptr %arrayidx3.i.i.i349, align 4, !tbaa !185
  store i32 %168, ptr %arrayidx.i.i.i348, align 4, !tbaa !185
  %indvars.iv.next.i.i.i350 = add nuw nsw i64 %indvars.iv.i.i.i347, 1
  %arrayidx.i.i.i348.1 = getelementptr inbounds i32, ptr %retval.0.i.i.i341, i64 %indvars.iv.next.i.i.i350
  %arrayidx3.i.i.i349.1 = getelementptr inbounds i32, ptr %155, i64 %indvars.iv.next.i.i.i350
  %169 = load i32, ptr %arrayidx3.i.i.i349.1, align 4, !tbaa !185
  store i32 %169, ptr %arrayidx.i.i.i348.1, align 4, !tbaa !185
  %indvars.iv.next.i.i.i350.1 = add nuw nsw i64 %indvars.iv.i.i.i347, 2
  %arrayidx.i.i.i348.2 = getelementptr inbounds i32, ptr %retval.0.i.i.i341, i64 %indvars.iv.next.i.i.i350.1
  %arrayidx3.i.i.i349.2 = getelementptr inbounds i32, ptr %155, i64 %indvars.iv.next.i.i.i350.1
  %170 = load i32, ptr %arrayidx3.i.i.i349.2, align 4, !tbaa !185
  store i32 %170, ptr %arrayidx.i.i.i348.2, align 4, !tbaa !185
  %indvars.iv.next.i.i.i350.2 = add nuw nsw i64 %indvars.iv.i.i.i347, 3
  %arrayidx.i.i.i348.3 = getelementptr inbounds i32, ptr %retval.0.i.i.i341, i64 %indvars.iv.next.i.i.i350.2
  %arrayidx3.i.i.i349.3 = getelementptr inbounds i32, ptr %155, i64 %indvars.iv.next.i.i.i350.2
  %171 = load i32, ptr %arrayidx3.i.i.i349.3, align 4, !tbaa !185
  store i32 %171, ptr %arrayidx.i.i.i348.3, align 4, !tbaa !185
  %indvars.iv.next.i.i.i350.3 = add nuw nsw i64 %indvars.iv.i.i.i347, 4
  %exitcond.not.i.i.i351.3 = icmp eq i64 %indvars.iv.next.i.i.i350.3, %wide.trip.count.i.i.i345
  br i1 %exitcond.not.i.i.i351.3, label %if.then.i11.i.i361, label %for.body.i.i.i352, !llvm.loop !215

_ZNK20btAlignedObjectArrayIN10btSoftBody8ePSolver1_EE4copyEiiPS2_.exit.i.i357: ; preds = %_ZN20btAlignedObjectArrayIN10btSoftBody8ePSolver1_EE8allocateEi.exit.i.i344
  %tobool.not.i10.i.i353 = icmp eq ptr %155, null
  %172 = load i8, ptr %m_ownsMemory.i.i33, align 8, !range !159
  %tobool2.not.i.i.i355 = icmp eq i8 %172, 0
  %or.cond.i356 = select i1 %tobool.not.i10.i.i353, i1 true, i1 %tobool2.not.i.i.i355
  br i1 %or.cond.i356, label %_ZN20btAlignedObjectArrayIN10btSoftBody8ePSolver1_EE10deallocateEv.exit.i.i366, label %if.then3.i.i.i363

if.then.i11.i.i361:                               ; preds = %for.body.i.i.i352.prol.loopexit, %for.body.i.i.i352, %middle.block461
  %.old.i359 = load i8, ptr %m_ownsMemory.i.i33, align 8, !tbaa !24, !range !159, !noundef !192
  %tobool2.not.i.i.old.i360 = icmp eq i8 %.old.i359, 0
  br i1 %tobool2.not.i.i.old.i360, label %_ZN20btAlignedObjectArrayIN10btSoftBody8ePSolver1_EE10deallocateEv.exit.i.i366, label %if.then3.i.i.i363

if.then3.i.i.i363:                                ; preds = %if.then.i11.i.i361, %_ZNK20btAlignedObjectArrayIN10btSoftBody8ePSolver1_EE4copyEiiPS2_.exit.i.i357
  tail call void @_Z21btAlignedFreeInternalPv(ptr noundef nonnull %155)
  %.pre7.pre.pre.i362 = load i32, ptr %m_size.i4.i38, align 4, !tbaa !28
  br label %_ZN20btAlignedObjectArrayIN10btSoftBody8ePSolver1_EE10deallocateEv.exit.i.i366

_ZN20btAlignedObjectArrayIN10btSoftBody8ePSolver1_EE10deallocateEv.exit.i.i366: ; preds = %if.then3.i.i.i363, %if.then.i11.i.i361, %_ZNK20btAlignedObjectArrayIN10btSoftBody8ePSolver1_EE4copyEiiPS2_.exit.i.i357
  %.pre7.i364 = phi i32 [ %156, %_ZNK20btAlignedObjectArrayIN10btSoftBody8ePSolver1_EE4copyEiiPS2_.exit.i.i357 ], [ %.pre7.pre.pre.i362, %if.then3.i.i.i363 ], [ %156, %if.then.i11.i.i361 ]
  store i8 1, ptr %m_ownsMemory.i.i33, align 8, !tbaa !24
  store ptr %retval.0.i.i.i341, ptr %m_data.i.i31, align 8, !tbaa !27
  store i32 %cond.i.i331, ptr %m_capacity.i.i39, align 8, !tbaa !29
  br label %_ZN20btAlignedObjectArrayIN10btSoftBody8ePSolver1_EE9push_backERKS2_.exit371

_ZN20btAlignedObjectArrayIN10btSoftBody8ePSolver1_EE9push_backERKS2_.exit371: ; preds = %_ZN20btAlignedObjectArrayIN10btSoftBody8ePSolver1_EE9push_backERKS2_.exit325, %if.then.i333, %_ZN20btAlignedObjectArrayIN10btSoftBody8ePSolver1_EE10deallocateEv.exit.i.i366
  %173 = phi ptr [ %retval.0.i.i.i341, %_ZN20btAlignedObjectArrayIN10btSoftBody8ePSolver1_EE10deallocateEv.exit.i.i366 ], [ %153, %if.then.i333 ], [ %153, %_ZN20btAlignedObjectArrayIN10btSoftBody8ePSolver1_EE9push_backERKS2_.exit325 ]
  %174 = phi i32 [ %.pre7.i364, %_ZN20btAlignedObjectArrayIN10btSoftBody8ePSolver1_EE10deallocateEv.exit.i.i366 ], [ %152, %if.then.i333 ], [ %inc.i324, %_ZN20btAlignedObjectArrayIN10btSoftBody8ePSolver1_EE9push_backERKS2_.exit325 ]
  %idxprom.i368 = sext i32 %174 to i64
  %arrayidx.i369 = getelementptr inbounds i32, ptr %173, i64 %idxprom.i368
  store i32 3, ptr %arrayidx.i369, align 4, !tbaa !185
  %inc.i370 = add nsw i32 %174, 1
  store i32 %inc.i370, ptr %m_size.i4.i38, align 4, !tbaa !28
  %175 = load i32, ptr %m_size.i4.i47, align 4, !tbaa !28
  %176 = load i32, ptr %m_capacity.i.i48, align 8, !tbaa !29
  %cmp.i374 = icmp eq i32 %175, %176
  br i1 %cmp.i374, label %if.then.i379, label %_ZN20btAlignedObjectArrayIN10btSoftBody8ePSolver1_EE9push_backERKS2_.exit417

if.then.i379:                                     ; preds = %_ZN20btAlignedObjectArrayIN10btSoftBody8ePSolver1_EE9push_backERKS2_.exit371
  %tobool.not.i.i375 = icmp eq i32 %175, 0
  %mul.i.i376 = shl nsw i32 %175, 1
  %cond.i.i377 = select i1 %tobool.not.i.i375, i32 1, i32 %mul.i.i376
  %cmp.i.i378 = icmp slt i32 %175, %cond.i.i377
  br i1 %cmp.i.i378, label %if.then.i.i381, label %_ZN20btAlignedObjectArrayIN10btSoftBody8ePSolver1_EE9push_backERKS2_.exit417

if.then.i.i381:                                   ; preds = %if.then.i379
  %tobool.not.i.i.i380 = icmp eq i32 %cond.i.i377, 0
  br i1 %tobool.not.i.i.i380, label %_ZN20btAlignedObjectArrayIN10btSoftBody8ePSolver1_EE8allocateEi.exit.i.i390, label %if.then.i.i.i386

if.then.i.i.i386:                                 ; preds = %if.then.i.i381
  %conv.i.i.i.i382 = sext i32 %cond.i.i377 to i64
  %mul.i.i.i.i383 = shl nsw i64 %conv.i.i.i.i382, 2
  %call.i.i.i.i384 = tail call noundef ptr @_Z22btAlignedAllocInternalmi(i64 noundef %mul.i.i.i.i383, i32 noundef 16)
  %.pre.i385 = load i32, ptr %m_size.i4.i47, align 4, !tbaa !28
  br label %_ZN20btAlignedObjectArrayIN10btSoftBody8ePSolver1_EE8allocateEi.exit.i.i390

_ZN20btAlignedObjectArrayIN10btSoftBody8ePSolver1_EE8allocateEi.exit.i.i390: ; preds = %if.then.i.i.i386, %if.then.i.i381
  %177 = phi i32 [ %.pre.i385, %if.then.i.i.i386 ], [ %175, %if.then.i.i381 ]
  %retval.0.i.i.i387 = phi ptr [ %call.i.i.i.i384, %if.then.i.i.i386 ], [ null, %if.then.i.i381 ]
  %cmp7.i.i.i388 = icmp sgt i32 %177, 0
  %178 = load ptr, ptr %m_data.i.i40, align 8, !tbaa !27
  br i1 %cmp7.i.i.i388, label %for.body.lr.ph.i.i.i392, label %_ZNK20btAlignedObjectArrayIN10btSoftBody8ePSolver1_EE4copyEiiPS2_.exit.i.i403

for.body.lr.ph.i.i.i392:                          ; preds = %_ZN20btAlignedObjectArrayIN10btSoftBody8ePSolver1_EE8allocateEi.exit.i.i390
  %179 = ptrtoint ptr %178 to i64
  %retval.0.i.i.i387475 = ptrtoint ptr %retval.0.i.i.i387 to i64
  %wide.trip.count.i.i.i391 = zext i32 %177 to i64
  %min.iters.check479 = icmp ult i32 %177, 8
  %180 = sub i64 %retval.0.i.i.i387475, %179
  %diff.check476 = icmp ult i64 %180, 32
  %or.cond561 = select i1 %min.iters.check479, i1 true, i1 %diff.check476
  br i1 %or.cond561, label %for.body.i.i.i398.preheader, label %vector.ph480

vector.ph480:                                     ; preds = %for.body.lr.ph.i.i.i392
  %n.vec482 = and i64 %wide.trip.count.i.i.i391, 4294967288
  br label %vector.body485

vector.body485:                                   ; preds = %vector.body485, %vector.ph480
  %index486 = phi i64 [ 0, %vector.ph480 ], [ %index.next489, %vector.body485 ]
  %181 = getelementptr inbounds i32, ptr %retval.0.i.i.i387, i64 %index486
  %182 = getelementptr inbounds i32, ptr %178, i64 %index486
  %wide.load487 = load <4 x i32>, ptr %182, align 4, !tbaa !185
  %183 = getelementptr inbounds i32, ptr %182, i64 4
  %wide.load488 = load <4 x i32>, ptr %183, align 4, !tbaa !185
  store <4 x i32> %wide.load487, ptr %181, align 4, !tbaa !185
  %184 = getelementptr inbounds i32, ptr %181, i64 4
  store <4 x i32> %wide.load488, ptr %184, align 4, !tbaa !185
  %index.next489 = add nuw i64 %index486, 8
  %185 = icmp eq i64 %index.next489, %n.vec482
  br i1 %185, label %middle.block477, label %vector.body485, !llvm.loop !216

middle.block477:                                  ; preds = %vector.body485
  %cmp.n484 = icmp eq i64 %n.vec482, %wide.trip.count.i.i.i391
  br i1 %cmp.n484, label %if.then.i11.i.i407, label %for.body.i.i.i398.preheader

for.body.i.i.i398.preheader:                      ; preds = %for.body.lr.ph.i.i.i392, %middle.block477
  %indvars.iv.i.i.i393.ph = phi i64 [ 0, %for.body.lr.ph.i.i.i392 ], [ %n.vec482, %middle.block477 ]
  %186 = xor i64 %indvars.iv.i.i.i393.ph, -1
  %187 = add nsw i64 %186, %wide.trip.count.i.i.i391
  %xtraiter571 = and i64 %wide.trip.count.i.i.i391, 3
  %lcmp.mod572.not = icmp eq i64 %xtraiter571, 0
  br i1 %lcmp.mod572.not, label %for.body.i.i.i398.prol.loopexit, label %for.body.i.i.i398.prol

for.body.i.i.i398.prol:                           ; preds = %for.body.i.i.i398.preheader, %for.body.i.i.i398.prol
  %indvars.iv.i.i.i393.prol = phi i64 [ %indvars.iv.next.i.i.i396.prol, %for.body.i.i.i398.prol ], [ %indvars.iv.i.i.i393.ph, %for.body.i.i.i398.preheader ]
  %prol.iter573 = phi i64 [ %prol.iter573.next, %for.body.i.i.i398.prol ], [ 0, %for.body.i.i.i398.preheader ]
  %arrayidx.i.i.i394.prol = getelementptr inbounds i32, ptr %retval.0.i.i.i387, i64 %indvars.iv.i.i.i393.prol
  %arrayidx3.i.i.i395.prol = getelementptr inbounds i32, ptr %178, i64 %indvars.iv.i.i.i393.prol
  %188 = load i32, ptr %arrayidx3.i.i.i395.prol, align 4, !tbaa !185
  store i32 %188, ptr %arrayidx.i.i.i394.prol, align 4, !tbaa !185
  %indvars.iv.next.i.i.i396.prol = add nuw nsw i64 %indvars.iv.i.i.i393.prol, 1
  %prol.iter573.next = add i64 %prol.iter573, 1
  %prol.iter573.cmp.not = icmp eq i64 %prol.iter573.next, %xtraiter571
  br i1 %prol.iter573.cmp.not, label %for.body.i.i.i398.prol.loopexit, label %for.body.i.i.i398.prol, !llvm.loop !217

for.body.i.i.i398.prol.loopexit:                  ; preds = %for.body.i.i.i398.prol, %for.body.i.i.i398.preheader
  %indvars.iv.i.i.i393.unr = phi i64 [ %indvars.iv.i.i.i393.ph, %for.body.i.i.i398.preheader ], [ %indvars.iv.next.i.i.i396.prol, %for.body.i.i.i398.prol ]
  %189 = icmp ult i64 %187, 3
  br i1 %189, label %if.then.i11.i.i407, label %for.body.i.i.i398

for.body.i.i.i398:                                ; preds = %for.body.i.i.i398.prol.loopexit, %for.body.i.i.i398
  %indvars.iv.i.i.i393 = phi i64 [ %indvars.iv.next.i.i.i396.3, %for.body.i.i.i398 ], [ %indvars.iv.i.i.i393.unr, %for.body.i.i.i398.prol.loopexit ]
  %arrayidx.i.i.i394 = getelementptr inbounds i32, ptr %retval.0.i.i.i387, i64 %indvars.iv.i.i.i393
  %arrayidx3.i.i.i395 = getelementptr inbounds i32, ptr %178, i64 %indvars.iv.i.i.i393
  %190 = load i32, ptr %arrayidx3.i.i.i395, align 4, !tbaa !185
  store i32 %190, ptr %arrayidx.i.i.i394, align 4, !tbaa !185
  %indvars.iv.next.i.i.i396 = add nuw nsw i64 %indvars.iv.i.i.i393, 1
  %arrayidx.i.i.i394.1 = getelementptr inbounds i32, ptr %retval.0.i.i.i387, i64 %indvars.iv.next.i.i.i396
  %arrayidx3.i.i.i395.1 = getelementptr inbounds i32, ptr %178, i64 %indvars.iv.next.i.i.i396
  %191 = load i32, ptr %arrayidx3.i.i.i395.1, align 4, !tbaa !185
  store i32 %191, ptr %arrayidx.i.i.i394.1, align 4, !tbaa !185
  %indvars.iv.next.i.i.i396.1 = add nuw nsw i64 %indvars.iv.i.i.i393, 2
  %arrayidx.i.i.i394.2 = getelementptr inbounds i32, ptr %retval.0.i.i.i387, i64 %indvars.iv.next.i.i.i396.1
  %arrayidx3.i.i.i395.2 = getelementptr inbounds i32, ptr %178, i64 %indvars.iv.next.i.i.i396.1
  %192 = load i32, ptr %arrayidx3.i.i.i395.2, align 4, !tbaa !185
  store i32 %192, ptr %arrayidx.i.i.i394.2, align 4, !tbaa !185
  %indvars.iv.next.i.i.i396.2 = add nuw nsw i64 %indvars.iv.i.i.i393, 3
  %arrayidx.i.i.i394.3 = getelementptr inbounds i32, ptr %retval.0.i.i.i387, i64 %indvars.iv.next.i.i.i396.2
  %arrayidx3.i.i.i395.3 = getelementptr inbounds i32, ptr %178, i64 %indvars.iv.next.i.i.i396.2
  %193 = load i32, ptr %arrayidx3.i.i.i395.3, align 4, !tbaa !185
  store i32 %193, ptr %arrayidx.i.i.i394.3, align 4, !tbaa !185
  %indvars.iv.next.i.i.i396.3 = add nuw nsw i64 %indvars.iv.i.i.i393, 4
  %exitcond.not.i.i.i397.3 = icmp eq i64 %indvars.iv.next.i.i.i396.3, %wide.trip.count.i.i.i391
  br i1 %exitcond.not.i.i.i397.3, label %if.then.i11.i.i407, label %for.body.i.i.i398, !llvm.loop !218

_ZNK20btAlignedObjectArrayIN10btSoftBody8ePSolver1_EE4copyEiiPS2_.exit.i.i403: ; preds = %_ZN20btAlignedObjectArrayIN10btSoftBody8ePSolver1_EE8allocateEi.exit.i.i390
  %tobool.not.i10.i.i399 = icmp eq ptr %178, null
  %194 = load i8, ptr %m_ownsMemory.i.i42, align 8, !range !159
  %tobool2.not.i.i.i401 = icmp eq i8 %194, 0
  %or.cond.i402 = select i1 %tobool.not.i10.i.i399, i1 true, i1 %tobool2.not.i.i.i401
  br i1 %or.cond.i402, label %_ZN20btAlignedObjectArrayIN10btSoftBody8ePSolver1_EE10deallocateEv.exit.i.i412, label %if.then3.i.i.i409

if.then.i11.i.i407:                               ; preds = %for.body.i.i.i398.prol.loopexit, %for.body.i.i.i398, %middle.block477
  %.old.i405 = load i8, ptr %m_ownsMemory.i.i42, align 8, !tbaa !24, !range !159, !noundef !192
  %tobool2.not.i.i.old.i406 = icmp eq i8 %.old.i405, 0
  br i1 %tobool2.not.i.i.old.i406, label %_ZN20btAlignedObjectArrayIN10btSoftBody8ePSolver1_EE10deallocateEv.exit.i.i412, label %if.then3.i.i.i409

if.then3.i.i.i409:                                ; preds = %if.then.i11.i.i407, %_ZNK20btAlignedObjectArrayIN10btSoftBody8ePSolver1_EE4copyEiiPS2_.exit.i.i403
  tail call void @_Z21btAlignedFreeInternalPv(ptr noundef nonnull %178)
  %.pre7.pre.pre.i408 = load i32, ptr %m_size.i4.i47, align 4, !tbaa !28
  br label %_ZN20btAlignedObjectArrayIN10btSoftBody8ePSolver1_EE10deallocateEv.exit.i.i412

_ZN20btAlignedObjectArrayIN10btSoftBody8ePSolver1_EE10deallocateEv.exit.i.i412: ; preds = %if.then3.i.i.i409, %if.then.i11.i.i407, %_ZNK20btAlignedObjectArrayIN10btSoftBody8ePSolver1_EE4copyEiiPS2_.exit.i.i403
  %.pre7.i410 = phi i32 [ %177, %_ZNK20btAlignedObjectArrayIN10btSoftBody8ePSolver1_EE4copyEiiPS2_.exit.i.i403 ], [ %.pre7.pre.pre.i408, %if.then3.i.i.i409 ], [ %177, %if.then.i11.i.i407 ]
  store i8 1, ptr %m_ownsMemory.i.i42, align 8, !tbaa !24
  store ptr %retval.0.i.i.i387, ptr %m_data.i.i40, align 8, !tbaa !27
  store i32 %cond.i.i377, ptr %m_capacity.i.i48, align 8, !tbaa !29
  br label %_ZN20btAlignedObjectArrayIN10btSoftBody8ePSolver1_EE9push_backERKS2_.exit417

_ZN20btAlignedObjectArrayIN10btSoftBody8ePSolver1_EE9push_backERKS2_.exit417: ; preds = %_ZN20btAlignedObjectArrayIN10btSoftBody8ePSolver1_EE9push_backERKS2_.exit371, %if.then.i379, %_ZN20btAlignedObjectArrayIN10btSoftBody8ePSolver1_EE10deallocateEv.exit.i.i412
  %195 = phi i32 [ %.pre7.i410, %_ZN20btAlignedObjectArrayIN10btSoftBody8ePSolver1_EE10deallocateEv.exit.i.i412 ], [ %175, %if.then.i379 ], [ %175, %_ZN20btAlignedObjectArrayIN10btSoftBody8ePSolver1_EE9push_backERKS2_.exit371 ]
  %196 = load ptr, ptr %m_data.i.i40, align 8, !tbaa !27
  br label %sw.epilog.sink.split

sw.epilog.sink.split:                             ; preds = %_ZN20btAlignedObjectArrayIN10btSoftBody8ePSolver1_EE10deallocateEv.exit.i.i186, %if.then.i153, %_ZN20btAlignedObjectArrayIN10btSoftBody8ePSolver1_EE9push_backERKS2_.exit145, %_ZN20btAlignedObjectArrayIN10btSoftBody8ePSolver1_EE9push_backERKS2_.exit417
  %.sink423 = phi i32 [ %195, %_ZN20btAlignedObjectArrayIN10btSoftBody8ePSolver1_EE9push_backERKS2_.exit417 ], [ %.pre7.i184, %_ZN20btAlignedObjectArrayIN10btSoftBody8ePSolver1_EE10deallocateEv.exit.i.i186 ], [ %68, %if.then.i153 ], [ %inc.i144, %_ZN20btAlignedObjectArrayIN10btSoftBody8ePSolver1_EE9push_backERKS2_.exit145 ]
  %.sink422 = phi ptr [ %196, %_ZN20btAlignedObjectArrayIN10btSoftBody8ePSolver1_EE9push_backERKS2_.exit417 ], [ %retval.0.i.i.i161, %_ZN20btAlignedObjectArrayIN10btSoftBody8ePSolver1_EE10deallocateEv.exit.i.i186 ], [ %69, %if.then.i153 ], [ %69, %_ZN20btAlignedObjectArrayIN10btSoftBody8ePSolver1_EE9push_backERKS2_.exit145 ]
  %m_size.i4.i47.sink = phi ptr [ %m_size.i4.i47, %_ZN20btAlignedObjectArrayIN10btSoftBody8ePSolver1_EE9push_backERKS2_.exit417 ], [ %m_size.i4.i38, %_ZN20btAlignedObjectArrayIN10btSoftBody8ePSolver1_EE10deallocateEv.exit.i.i186 ], [ %m_size.i4.i38, %if.then.i153 ], [ %m_size.i4.i38, %_ZN20btAlignedObjectArrayIN10btSoftBody8ePSolver1_EE9push_backERKS2_.exit145 ]
  %idxprom.i414 = sext i32 %.sink423 to i64
  %arrayidx.i415 = getelementptr inbounds i32, ptr %.sink422, i64 %idxprom.i414
  store i32 0, ptr %arrayidx.i415, align 4, !tbaa !185
  %inc.i416 = add nsw i32 %.sink423, 1
  store i32 %inc.i416, ptr %m_size.i4.i47.sink, align 4, !tbaa !28
  br label %sw.epilog

sw.epilog:                                        ; preds = %sw.epilog.sink.split, %_ZN20btAlignedObjectArrayIN10btSoftBody8ePSolver1_EE5clearEv.exit49
  ret void
}

; Function Attrs: uwtable
define dso_local noundef ptr @_ZN10btSoftBody14appendMaterialEv(ptr nocapture noundef nonnull align 8 dereferenceable(1496) %this) local_unnamed_addr #4 align 2 personality ptr @__gxx_personality_v0 {
entry:
  %call = tail call noundef ptr @_Z22btAlignedAllocInternalmi(i64 noundef 24, i32 noundef 16)
  store ptr null, ptr %call, align 8, !tbaa !174
  %m_size.i = getelementptr inbounds %class.btSoftBody, ptr %this, i64 0, i32 17, i32 2
  %0 = load i32, ptr %m_size.i, align 4, !tbaa !120
  %cmp = icmp sgt i32 %0, 0
  br i1 %cmp, label %if.then, label %if.else

if.then:                                          ; preds = %entry
  %m_data.i = getelementptr inbounds %class.btSoftBody, ptr %this, i64 0, i32 17, i32 5
  %1 = load ptr, ptr %m_data.i, align 8, !tbaa !119
  %2 = load ptr, ptr %1, align 8, !tbaa !219
  tail call void @llvm.memcpy.p0.p0.i64(ptr noundef nonnull align 8 dereferenceable(24) %call, ptr noundef nonnull align 8 dereferenceable(24) %2, i64 24, i1 false)
  br label %if.end

if.else:                                          ; preds = %entry
  %3 = load atomic i8, ptr @_ZGVZL14ZeroInitializeIN10btSoftBody8MaterialEEvRT_E9zerodummy acquire, align 8
  %guard.uninitialized.i = icmp eq i8 %3, 0
  br i1 %guard.uninitialized.i, label %init.check.i, label %_ZL14ZeroInitializeIN10btSoftBody8MaterialEEvRT_.exit, !prof !173

init.check.i:                                     ; preds = %if.else
  %4 = tail call i32 @__cxa_guard_acquire(ptr nonnull @_ZGVZL14ZeroInitializeIN10btSoftBody8MaterialEEvRT_E9zerodummy) #38
  %tobool.not.i = icmp eq i32 %4, 0
  br i1 %tobool.not.i, label %_ZL14ZeroInitializeIN10btSoftBody8MaterialEEvRT_.exit, label %init.i

init.i:                                           ; preds = %init.check.i
  store ptr null, ptr @_ZZL14ZeroInitializeIN10btSoftBody8MaterialEEvRT_E9zerodummy, align 8, !tbaa !174
  %5 = tail call ptr @llvm.invariant.start.p0(i64 24, ptr nonnull @_ZZL14ZeroInitializeIN10btSoftBody8MaterialEEvRT_E9zerodummy)
  tail call void @__cxa_guard_release(ptr nonnull @_ZGVZL14ZeroInitializeIN10btSoftBody8MaterialEEvRT_E9zerodummy) #38
  br label %_ZL14ZeroInitializeIN10btSoftBody8MaterialEEvRT_.exit

_ZL14ZeroInitializeIN10btSoftBody8MaterialEEvRT_.exit: ; preds = %if.else, %init.check.i, %init.i
  tail call void @llvm.memcpy.p0.p0.i64(ptr noundef nonnull align 8 dereferenceable(24) %call, ptr noundef nonnull align 8 dereferenceable(24) @_ZZL14ZeroInitializeIN10btSoftBody8MaterialEEvRT_E9zerodummy, i64 24, i1 false)
  br label %if.end

if.end:                                           ; preds = %_ZL14ZeroInitializeIN10btSoftBody8MaterialEEvRT_.exit, %if.then
  %6 = load i32, ptr %m_size.i, align 4, !tbaa !120
  %m_capacity.i.i = getelementptr inbounds %class.btSoftBody, ptr %this, i64 0, i32 17, i32 3
  %7 = load i32, ptr %m_capacity.i.i, align 8, !tbaa !121
  %cmp.i = icmp eq i32 %6, %7
  br i1 %cmp.i, label %if.then.i, label %_ZN20btAlignedObjectArrayIPN10btSoftBody8MaterialEE9push_backERKS2_.exit

if.then.i:                                        ; preds = %if.end
  %tobool.not.i.i = icmp eq i32 %6, 0
  %mul.i.i = shl nsw i32 %6, 1
  %cond.i.i = select i1 %tobool.not.i.i, i32 1, i32 %mul.i.i
  %cmp.i.i = icmp slt i32 %6, %cond.i.i
  br i1 %cmp.i.i, label %if.then.i.i, label %_ZN20btAlignedObjectArrayIPN10btSoftBody8MaterialEE9push_backERKS2_.exit

if.then.i.i:                                      ; preds = %if.then.i
  %tobool.not.i.i.i = icmp eq i32 %cond.i.i, 0
  br i1 %tobool.not.i.i.i, label %_ZN20btAlignedObjectArrayIPN10btSoftBody8MaterialEE8allocateEi.exit.i.i, label %if.then.i.i.i

if.then.i.i.i:                                    ; preds = %if.then.i.i
  %conv.i.i.i.i = sext i32 %cond.i.i to i64
  %mul.i.i.i.i = shl nsw i64 %conv.i.i.i.i, 3
  %call.i.i.i.i = tail call noundef ptr @_Z22btAlignedAllocInternalmi(i64 noundef %mul.i.i.i.i, i32 noundef 16)
  %.pre.i = load i32, ptr %m_size.i, align 4, !tbaa !120
  br label %_ZN20btAlignedObjectArrayIPN10btSoftBody8MaterialEE8allocateEi.exit.i.i

_ZN20btAlignedObjectArrayIPN10btSoftBody8MaterialEE8allocateEi.exit.i.i: ; preds = %if.then.i.i.i, %if.then.i.i
  %8 = phi i32 [ %.pre.i, %if.then.i.i.i ], [ %6, %if.then.i.i ]
  %retval.0.i.i.i = phi ptr [ %call.i.i.i.i, %if.then.i.i.i ], [ null, %if.then.i.i ]
  %cmp7.i.i.i = icmp sgt i32 %8, 0
  br i1 %cmp7.i.i.i, label %for.body.lr.ph.i.i.i, label %_ZNK20btAlignedObjectArrayIPN10btSoftBody8MaterialEE4copyEiiPS2_.exit.i.i

for.body.lr.ph.i.i.i:                             ; preds = %_ZN20btAlignedObjectArrayIPN10btSoftBody8MaterialEE8allocateEi.exit.i.i
  %m_data.i.i.i = getelementptr inbounds %class.btSoftBody, ptr %this, i64 0, i32 17, i32 5
  %wide.trip.count.i.i.i = zext i32 %8 to i64
  %xtraiter = and i64 %wide.trip.count.i.i.i, 3
  %9 = icmp ult i32 %8, 4
  br i1 %9, label %_ZNK20btAlignedObjectArrayIPN10btSoftBody8MaterialEE4copyEiiPS2_.exit.i.i.loopexit.unr-lcssa, label %for.body.lr.ph.i.i.i.new

for.body.lr.ph.i.i.i.new:                         ; preds = %for.body.lr.ph.i.i.i
  %unroll_iter = and i64 %wide.trip.count.i.i.i, 4294967292
  br label %for.body.i.i.i

for.body.i.i.i:                                   ; preds = %for.body.i.i.i, %for.body.lr.ph.i.i.i.new
  %indvars.iv.i.i.i = phi i64 [ 0, %for.body.lr.ph.i.i.i.new ], [ %indvars.iv.next.i.i.i.3, %for.body.i.i.i ]
  %niter = phi i64 [ 0, %for.body.lr.ph.i.i.i.new ], [ %niter.next.3, %for.body.i.i.i ]
  %arrayidx.i.i.i = getelementptr inbounds ptr, ptr %retval.0.i.i.i, i64 %indvars.iv.i.i.i
  %10 = load ptr, ptr %m_data.i.i.i, align 8, !tbaa !119
  %arrayidx3.i.i.i = getelementptr inbounds ptr, ptr %10, i64 %indvars.iv.i.i.i
  %11 = load ptr, ptr %arrayidx3.i.i.i, align 8, !tbaa !219
  store ptr %11, ptr %arrayidx.i.i.i, align 8, !tbaa !219
  %indvars.iv.next.i.i.i = or i64 %indvars.iv.i.i.i, 1
  %arrayidx.i.i.i.1 = getelementptr inbounds ptr, ptr %retval.0.i.i.i, i64 %indvars.iv.next.i.i.i
  %12 = load ptr, ptr %m_data.i.i.i, align 8, !tbaa !119
  %arrayidx3.i.i.i.1 = getelementptr inbounds ptr, ptr %12, i64 %indvars.iv.next.i.i.i
  %13 = load ptr, ptr %arrayidx3.i.i.i.1, align 8, !tbaa !219
  store ptr %13, ptr %arrayidx.i.i.i.1, align 8, !tbaa !219
  %indvars.iv.next.i.i.i.1 = or i64 %indvars.iv.i.i.i, 2
  %arrayidx.i.i.i.2 = getelementptr inbounds ptr, ptr %retval.0.i.i.i, i64 %indvars.iv.next.i.i.i.1
  %14 = load ptr, ptr %m_data.i.i.i, align 8, !tbaa !119
  %arrayidx3.i.i.i.2 = getelementptr inbounds ptr, ptr %14, i64 %indvars.iv.next.i.i.i.1
  %15 = load ptr, ptr %arrayidx3.i.i.i.2, align 8, !tbaa !219
  store ptr %15, ptr %arrayidx.i.i.i.2, align 8, !tbaa !219
  %indvars.iv.next.i.i.i.2 = or i64 %indvars.iv.i.i.i, 3
  %arrayidx.i.i.i.3 = getelementptr inbounds ptr, ptr %retval.0.i.i.i, i64 %indvars.iv.next.i.i.i.2
  %16 = load ptr, ptr %m_data.i.i.i, align 8, !tbaa !119
  %arrayidx3.i.i.i.3 = getelementptr inbounds ptr, ptr %16, i64 %indvars.iv.next.i.i.i.2
  %17 = load ptr, ptr %arrayidx3.i.i.i.3, align 8, !tbaa !219
  store ptr %17, ptr %arrayidx.i.i.i.3, align 8, !tbaa !219
  %indvars.iv.next.i.i.i.3 = add nuw nsw i64 %indvars.iv.i.i.i, 4
  %niter.next.3 = add i64 %niter, 4
  %niter.ncmp.3 = icmp eq i64 %niter.next.3, %unroll_iter
  br i1 %niter.ncmp.3, label %_ZNK20btAlignedObjectArrayIPN10btSoftBody8MaterialEE4copyEiiPS2_.exit.i.i.loopexit.unr-lcssa, label %for.body.i.i.i

_ZNK20btAlignedObjectArrayIPN10btSoftBody8MaterialEE4copyEiiPS2_.exit.i.i.loopexit.unr-lcssa: ; preds = %for.body.i.i.i, %for.body.lr.ph.i.i.i
  %indvars.iv.i.i.i.unr = phi i64 [ 0, %for.body.lr.ph.i.i.i ], [ %indvars.iv.next.i.i.i.3, %for.body.i.i.i ]
  %lcmp.mod.not = icmp eq i64 %xtraiter, 0
  br i1 %lcmp.mod.not, label %_ZNK20btAlignedObjectArrayIPN10btSoftBody8MaterialEE4copyEiiPS2_.exit.i.i, label %for.body.i.i.i.epil

for.body.i.i.i.epil:                              ; preds = %_ZNK20btAlignedObjectArrayIPN10btSoftBody8MaterialEE4copyEiiPS2_.exit.i.i.loopexit.unr-lcssa, %for.body.i.i.i.epil
  %indvars.iv.i.i.i.epil = phi i64 [ %indvars.iv.next.i.i.i.epil, %for.body.i.i.i.epil ], [ %indvars.iv.i.i.i.unr, %_ZNK20btAlignedObjectArrayIPN10btSoftBody8MaterialEE4copyEiiPS2_.exit.i.i.loopexit.unr-lcssa ]
  %epil.iter = phi i64 [ %epil.iter.next, %for.body.i.i.i.epil ], [ 0, %_ZNK20btAlignedObjectArrayIPN10btSoftBody8MaterialEE4copyEiiPS2_.exit.i.i.loopexit.unr-lcssa ]
  %arrayidx.i.i.i.epil = getelementptr inbounds ptr, ptr %retval.0.i.i.i, i64 %indvars.iv.i.i.i.epil
  %18 = load ptr, ptr %m_data.i.i.i, align 8, !tbaa !119
  %arrayidx3.i.i.i.epil = getelementptr inbounds ptr, ptr %18, i64 %indvars.iv.i.i.i.epil
  %19 = load ptr, ptr %arrayidx3.i.i.i.epil, align 8, !tbaa !219
  store ptr %19, ptr %arrayidx.i.i.i.epil, align 8, !tbaa !219
  %indvars.iv.next.i.i.i.epil = add nuw nsw i64 %indvars.iv.i.i.i.epil, 1
  %epil.iter.next = add i64 %epil.iter, 1
  %epil.iter.cmp.not = icmp eq i64 %epil.iter.next, %xtraiter
  br i1 %epil.iter.cmp.not, label %_ZNK20btAlignedObjectArrayIPN10btSoftBody8MaterialEE4copyEiiPS2_.exit.i.i, label %for.body.i.i.i.epil, !llvm.loop !220

_ZNK20btAlignedObjectArrayIPN10btSoftBody8MaterialEE4copyEiiPS2_.exit.i.i: ; preds = %_ZNK20btAlignedObjectArrayIPN10btSoftBody8MaterialEE4copyEiiPS2_.exit.i.i.loopexit.unr-lcssa, %for.body.i.i.i.epil, %_ZN20btAlignedObjectArrayIPN10btSoftBody8MaterialEE8allocateEi.exit.i.i
  %m_data.i9.i.i = getelementptr inbounds %class.btSoftBody, ptr %this, i64 0, i32 17, i32 5
  %20 = load ptr, ptr %m_data.i9.i.i, align 8, !tbaa !119
  %tobool.not.i10.i.i = icmp eq ptr %20, null
  %m_ownsMemory.i.i.i = getelementptr inbounds %class.btSoftBody, ptr %this, i64 0, i32 17, i32 6
  %21 = load i8, ptr %m_ownsMemory.i.i.i, align 8, !range !159
  %tobool2.not.i.i.i = icmp eq i8 %21, 0
  %or.cond.i.i = select i1 %tobool.not.i10.i.i, i1 true, i1 %tobool2.not.i.i.i
  br i1 %or.cond.i.i, label %_ZN20btAlignedObjectArrayIPN10btSoftBody8MaterialEE10deallocateEv.exit.i.i, label %if.then3.i.i.i

if.then3.i.i.i:                                   ; preds = %_ZNK20btAlignedObjectArrayIPN10btSoftBody8MaterialEE4copyEiiPS2_.exit.i.i
  tail call void @_Z21btAlignedFreeInternalPv(ptr noundef nonnull %20)
  %.pre7.pre.i = load i32, ptr %m_size.i, align 4, !tbaa !120
  br label %_ZN20btAlignedObjectArrayIPN10btSoftBody8MaterialEE10deallocateEv.exit.i.i

_ZN20btAlignedObjectArrayIPN10btSoftBody8MaterialEE10deallocateEv.exit.i.i: ; preds = %if.then3.i.i.i, %_ZNK20btAlignedObjectArrayIPN10btSoftBody8MaterialEE4copyEiiPS2_.exit.i.i
  %.pre7.i = phi i32 [ %.pre7.pre.i, %if.then3.i.i.i ], [ %8, %_ZNK20btAlignedObjectArrayIPN10btSoftBody8MaterialEE4copyEiiPS2_.exit.i.i ]
  store i8 1, ptr %m_ownsMemory.i.i.i, align 8, !tbaa !118
  store ptr %retval.0.i.i.i, ptr %m_data.i9.i.i, align 8, !tbaa !119
  store i32 %cond.i.i, ptr %m_capacity.i.i, align 8, !tbaa !121
  br label %_ZN20btAlignedObjectArrayIPN10btSoftBody8MaterialEE9push_backERKS2_.exit

_ZN20btAlignedObjectArrayIPN10btSoftBody8MaterialEE9push_backERKS2_.exit: ; preds = %if.end, %if.then.i, %_ZN20btAlignedObjectArrayIPN10btSoftBody8MaterialEE10deallocateEv.exit.i.i
  %22 = phi i32 [ %.pre7.i, %_ZN20btAlignedObjectArrayIPN10btSoftBody8MaterialEE10deallocateEv.exit.i.i ], [ %6, %if.then.i ], [ %6, %if.end ]
  %m_data.i6 = getelementptr inbounds %class.btSoftBody, ptr %this, i64 0, i32 17, i32 5
  %23 = load ptr, ptr %m_data.i6, align 8, !tbaa !119
  %idxprom.i = sext i32 %22 to i64
  %arrayidx.i = getelementptr inbounds ptr, ptr %23, i64 %idxprom.i
  store ptr %call, ptr %arrayidx.i, align 8, !tbaa !219
  %inc.i = add nsw i32 %22, 1
  store i32 %inc.i, ptr %m_size.i, align 4, !tbaa !120
  ret ptr %call
}

; Function Attrs: nobuiltin allocsize(0)
declare noundef nonnull ptr @_Znwm(i64 noundef) local_unnamed_addr #5

; Function Attrs: nobuiltin nounwind
declare void @_ZdlPv(ptr noundef) local_unnamed_addr #6

declare noundef ptr @_ZN6btDbvt6insertERK12btDbvtAabbMmPv(ptr noundef nonnull align 8 dereferenceable(64), ptr noundef nonnull align 4 dereferenceable(32), ptr noundef) local_unnamed_addr #1

; Function Attrs: uwtable
define dso_local void @_ZN10btSoftBody12updateBoundsEv(ptr noundef nonnull align 8 dereferenceable(1496) %this) local_unnamed_addr #0 align 2 {
entry:
  %m_ndbvt = getelementptr inbounds %class.btSoftBody, ptr %this, i64 0, i32 21
  %0 = load ptr, ptr %m_ndbvt, align 8, !tbaa !162
  %tobool.not = icmp eq ptr %0, null
  br i1 %tobool.not, label %if.else, label %if.then

if.then:                                          ; preds = %entry
  %mx.i = getelementptr inbounds %struct.btDbvtAabbMm, ptr %0, i64 0, i32 1
  %m_collisionShape.i = getelementptr inbounds %class.btCollisionObject, ptr %this, i64 0, i32 9
  %1 = load ptr, ptr %m_collisionShape.i, align 8, !tbaa !157
  %vtable = load ptr, ptr %1, align 8, !tbaa !5
  %vfn = getelementptr inbounds ptr, ptr %vtable, i64 11
  %2 = load ptr, ptr %vfn, align 8
  %call9 = tail call noundef float %2(ptr noundef nonnull align 8 dereferenceable(24) %1)
  %3 = load <2 x float>, ptr %0, align 4, !tbaa !137
  %4 = insertelement <2 x float> poison, float %call9, i64 0
  %5 = shufflevector <2 x float> %4, <2 x float> poison, <2 x i32> zeroinitializer
  %6 = fsub <2 x float> %3, %5
  %arrayidx11.i = getelementptr inbounds [4 x float], ptr %0, i64 0, i64 2
  %7 = load float, ptr %arrayidx11.i, align 4, !tbaa !137
  %sub14.i = fsub float %7, %call9
  %retval.sroa.3.12.vec.insert.i45 = insertelement <2 x float> <float poison, float 0.000000e+00>, float %sub14.i, i64 0
  %m_bounds = getelementptr inbounds %class.btSoftBody, ptr %this, i64 0, i32 19
  store <2 x float> %6, ptr %m_bounds, align 4, !tbaa.struct !163
  %ref.tmp12.sroa.4.0.arrayidx.sroa_idx = getelementptr inbounds %class.btSoftBody, ptr %this, i64 0, i32 19, i64 0, i32 0, i64 2
  store <2 x float> %retval.sroa.3.12.vec.insert.i45, ptr %ref.tmp12.sroa.4.0.arrayidx.sroa_idx, align 4, !tbaa.struct !165
  %8 = load <2 x float>, ptr %mx.i, align 4, !tbaa !137
  %9 = fadd <2 x float> %5, %8
  %arrayidx11.i50 = getelementptr inbounds %struct.btDbvtAabbMm, ptr %0, i64 0, i32 1, i32 0, i64 2
  %10 = load float, ptr %arrayidx11.i50, align 4, !tbaa !137
  %add14.i = fadd float %call9, %10
  %retval.sroa.3.12.vec.insert.i54 = insertelement <2 x float> <float poison, float 0.000000e+00>, float %add14.i, i64 0
  %arrayidx19 = getelementptr inbounds %class.btSoftBody, ptr %this, i64 0, i32 19, i64 1
  store <2 x float> %9, ptr %arrayidx19, align 4, !tbaa.struct !163
  %ref.tmp15.sroa.4.0.arrayidx19.sroa_idx = getelementptr inbounds %class.btSoftBody, ptr %this, i64 0, i32 19, i64 1, i32 0, i64 2
  store <2 x float> %retval.sroa.3.12.vec.insert.i54, ptr %ref.tmp15.sroa.4.0.arrayidx19.sroa_idx, align 4, !tbaa.struct !165
  %m_broadphaseHandle.i = getelementptr inbounds %class.btCollisionObject, ptr %this, i64 0, i32 8
  %11 = load ptr, ptr %m_broadphaseHandle.i, align 8, !tbaa !166
  %cmp.not = icmp eq ptr %11, null
  br i1 %cmp.not, label %if.end38, label %if.then21

if.then21:                                        ; preds = %if.then
  %m_worldInfo = getelementptr inbounds %class.btSoftBody, ptr %this, i64 0, i32 7
  %12 = load ptr, ptr %m_worldInfo, align 8, !tbaa !42
  %m_broadphase = getelementptr inbounds %struct.btSoftBodyWorldInfo, ptr %12, i64 0, i32 4
  %13 = load ptr, ptr %m_broadphase, align 8, !tbaa !167
  %m_dispatcher = getelementptr inbounds %struct.btSoftBodyWorldInfo, ptr %12, i64 0, i32 5
  %14 = load ptr, ptr %m_dispatcher, align 8, !tbaa !172
  %vtable28 = load ptr, ptr %13, align 8, !tbaa !5
  %vfn29 = getelementptr inbounds ptr, ptr %vtable28, i64 4
  %15 = load ptr, ptr %vfn29, align 8
  tail call void %15(ptr noundef nonnull align 8 dereferenceable(8) %13, ptr noundef nonnull %11, ptr noundef nonnull align 4 dereferenceable(16) %m_bounds, ptr noundef nonnull align 4 dereferenceable(16) %arrayidx19, ptr noundef %14)
  br label %if.end38

if.else:                                          ; preds = %entry
  %m_bounds34 = getelementptr inbounds %class.btSoftBody, ptr %this, i64 0, i32 19
  tail call void @llvm.memset.p0.i64(ptr noundef nonnull align 4 dereferenceable(32) %m_bounds34, i8 0, i64 32, i1 false)
  br label %if.end38

if.end38:                                         ; preds = %if.then, %if.then21, %if.else
  ret void
}

; Function Attrs: uwtable
define linkonce_odr dso_local void @_ZN20btAlignedObjectArrayIiED2Ev(ptr noundef nonnull align 8 dereferenceable(25) %this) unnamed_addr #4 comdat align 2 {
entry:
  %m_data.i.i = getelementptr inbounds %class.btAlignedObjectArray.80, ptr %this, i64 0, i32 5
  %0 = load ptr, ptr %m_data.i.i, align 8, !tbaa !131
  %tobool.not.i.i = icmp eq ptr %0, null
  %m_ownsMemory.i.i = getelementptr inbounds %class.btAlignedObjectArray.80, ptr %this, i64 0, i32 6
  %1 = load i8, ptr %m_ownsMemory.i.i, align 8, !range !159
  %tobool2.not.i.i = icmp eq i8 %1, 0
  %or.cond.i = select i1 %tobool.not.i.i, i1 true, i1 %tobool2.not.i.i
  br i1 %or.cond.i, label %_ZN20btAlignedObjectArrayIiE5clearEv.exit, label %if.then3.i.i

if.then3.i.i:                                     ; preds = %entry
  tail call void @_Z21btAlignedFreeInternalPv(ptr noundef nonnull %0)
  br label %_ZN20btAlignedObjectArrayIiE5clearEv.exit

_ZN20btAlignedObjectArrayIiE5clearEv.exit:        ; preds = %entry, %if.then3.i.i
  store i8 1, ptr %m_ownsMemory.i.i, align 8, !tbaa !130
  store ptr null, ptr %m_data.i.i, align 8, !tbaa !131
  %m_size.i4.i = getelementptr inbounds %class.btAlignedObjectArray.80, ptr %this, i64 0, i32 2
  store i32 0, ptr %m_size.i4.i, align 4, !tbaa !132
  %m_capacity.i.i = getelementptr inbounds %class.btAlignedObjectArray.80, ptr %this, i64 0, i32 3
  store i32 0, ptr %m_capacity.i.i, align 8, !tbaa !133
  ret void
}

; Function Attrs: noinline noreturn nounwind
define linkonce_odr hidden void @__clang_call_terminate(ptr noundef %0) local_unnamed_addr #7 comdat {
  %2 = tail call ptr @__cxa_begin_catch(ptr %0) #38
  tail call void @_ZSt9terminatev() #39
  unreachable
}

declare ptr @__cxa_begin_catch(ptr) local_unnamed_addr

declare void @_ZSt9terminatev() local_unnamed_addr

; Function Attrs: uwtable
define linkonce_odr dso_local void @_ZN20btAlignedObjectArrayIbED2Ev(ptr noundef nonnull align 8 dereferenceable(25) %this) unnamed_addr #4 comdat align 2 {
entry:
  %m_data.i.i = getelementptr inbounds %class.btAlignedObjectArray.76, ptr %this, i64 0, i32 5
  %0 = load ptr, ptr %m_data.i.i, align 8, !tbaa !127
  %tobool.not.i.i = icmp eq ptr %0, null
  %m_ownsMemory.i.i = getelementptr inbounds %class.btAlignedObjectArray.76, ptr %this, i64 0, i32 6
  %1 = load i8, ptr %m_ownsMemory.i.i, align 8, !range !159
  %tobool2.not.i.i = icmp eq i8 %1, 0
  %or.cond.i = select i1 %tobool.not.i.i, i1 true, i1 %tobool2.not.i.i
  br i1 %or.cond.i, label %_ZN20btAlignedObjectArrayIbE5clearEv.exit, label %if.then3.i.i

if.then3.i.i:                                     ; preds = %entry
  tail call void @_Z21btAlignedFreeInternalPv(ptr noundef nonnull %0)
  br label %_ZN20btAlignedObjectArrayIbE5clearEv.exit

_ZN20btAlignedObjectArrayIbE5clearEv.exit:        ; preds = %entry, %if.then3.i.i
  store i8 1, ptr %m_ownsMemory.i.i, align 8, !tbaa !126
  store ptr null, ptr %m_data.i.i, align 8, !tbaa !127
  %m_size.i4.i = getelementptr inbounds %class.btAlignedObjectArray.76, ptr %this, i64 0, i32 2
  store i32 0, ptr %m_size.i4.i, align 4, !tbaa !128
  %m_capacity.i.i = getelementptr inbounds %class.btAlignedObjectArray.76, ptr %this, i64 0, i32 3
  store i32 0, ptr %m_capacity.i.i, align 8, !tbaa !129
  ret void
}

; Function Attrs: uwtable
define linkonce_odr dso_local void @_ZN20btAlignedObjectArrayIPN10btSoftBody7ClusterEED2Ev(ptr noundef nonnull align 8 dereferenceable(25) %this) unnamed_addr #4 comdat align 2 {
entry:
  %m_data.i.i = getelementptr inbounds %class.btAlignedObjectArray.72, ptr %this, i64 0, i32 5
  %0 = load ptr, ptr %m_data.i.i, align 8, !tbaa !123
  %tobool.not.i.i = icmp eq ptr %0, null
  %m_ownsMemory.i.i = getelementptr inbounds %class.btAlignedObjectArray.72, ptr %this, i64 0, i32 6
  %1 = load i8, ptr %m_ownsMemory.i.i, align 8, !range !159
  %tobool2.not.i.i = icmp eq i8 %1, 0
  %or.cond.i = select i1 %tobool.not.i.i, i1 true, i1 %tobool2.not.i.i
  br i1 %or.cond.i, label %_ZN20btAlignedObjectArrayIPN10btSoftBody7ClusterEE5clearEv.exit, label %if.then3.i.i

if.then3.i.i:                                     ; preds = %entry
  tail call void @_Z21btAlignedFreeInternalPv(ptr noundef nonnull %0)
  br label %_ZN20btAlignedObjectArrayIPN10btSoftBody7ClusterEE5clearEv.exit

_ZN20btAlignedObjectArrayIPN10btSoftBody7ClusterEE5clearEv.exit: ; preds = %entry, %if.then3.i.i
  store i8 1, ptr %m_ownsMemory.i.i, align 8, !tbaa !122
  store ptr null, ptr %m_data.i.i, align 8, !tbaa !123
  %m_size.i4.i = getelementptr inbounds %class.btAlignedObjectArray.72, ptr %this, i64 0, i32 2
  store i32 0, ptr %m_size.i4.i, align 4, !tbaa !124
  %m_capacity.i.i = getelementptr inbounds %class.btAlignedObjectArray.72, ptr %this, i64 0, i32 3
  store i32 0, ptr %m_capacity.i.i, align 8, !tbaa !125
  ret void
}

declare void @_ZN6btDbvtD1Ev(ptr noundef nonnull align 8 dereferenceable(64)) unnamed_addr #1

; Function Attrs: uwtable
define linkonce_odr dso_local void @_ZN20btAlignedObjectArrayIPN10btSoftBody8MaterialEED2Ev(ptr noundef nonnull align 8 dereferenceable(25) %this) unnamed_addr #4 comdat align 2 {
entry:
  %m_data.i.i = getelementptr inbounds %class.btAlignedObjectArray.64, ptr %this, i64 0, i32 5
  %0 = load ptr, ptr %m_data.i.i, align 8, !tbaa !119
  %tobool.not.i.i = icmp eq ptr %0, null
  %m_ownsMemory.i.i = getelementptr inbounds %class.btAlignedObjectArray.64, ptr %this, i64 0, i32 6
  %1 = load i8, ptr %m_ownsMemory.i.i, align 8, !range !159
  %tobool2.not.i.i = icmp eq i8 %1, 0
  %or.cond.i = select i1 %tobool.not.i.i, i1 true, i1 %tobool2.not.i.i
  br i1 %or.cond.i, label %_ZN20btAlignedObjectArrayIPN10btSoftBody8MaterialEE5clearEv.exit, label %if.then3.i.i

if.then3.i.i:                                     ; preds = %entry
  tail call void @_Z21btAlignedFreeInternalPv(ptr noundef nonnull %0)
  br label %_ZN20btAlignedObjectArrayIPN10btSoftBody8MaterialEE5clearEv.exit

_ZN20btAlignedObjectArrayIPN10btSoftBody8MaterialEE5clearEv.exit: ; preds = %entry, %if.then3.i.i
  store i8 1, ptr %m_ownsMemory.i.i, align 8, !tbaa !118
  store ptr null, ptr %m_data.i.i, align 8, !tbaa !119
  %m_size.i4.i = getelementptr inbounds %class.btAlignedObjectArray.64, ptr %this, i64 0, i32 2
  store i32 0, ptr %m_size.i4.i, align 4, !tbaa !120
  %m_capacity.i.i = getelementptr inbounds %class.btAlignedObjectArray.64, ptr %this, i64 0, i32 3
  store i32 0, ptr %m_capacity.i.i, align 8, !tbaa !121
  ret void
}

; Function Attrs: uwtable
define linkonce_odr dso_local void @_ZN20btAlignedObjectArrayIPN10btSoftBody5JointEED2Ev(ptr noundef nonnull align 8 dereferenceable(25) %this) unnamed_addr #4 comdat align 2 {
entry:
  %m_data.i.i = getelementptr inbounds %class.btAlignedObjectArray.56, ptr %this, i64 0, i32 5
  %0 = load ptr, ptr %m_data.i.i, align 8, !tbaa !115
  %tobool.not.i.i = icmp eq ptr %0, null
  %m_ownsMemory.i.i = getelementptr inbounds %class.btAlignedObjectArray.56, ptr %this, i64 0, i32 6
  %1 = load i8, ptr %m_ownsMemory.i.i, align 8, !range !159
  %tobool2.not.i.i = icmp eq i8 %1, 0
  %or.cond.i = select i1 %tobool.not.i.i, i1 true, i1 %tobool2.not.i.i
  br i1 %or.cond.i, label %_ZN20btAlignedObjectArrayIPN10btSoftBody5JointEE5clearEv.exit, label %if.then3.i.i

if.then3.i.i:                                     ; preds = %entry
  tail call void @_Z21btAlignedFreeInternalPv(ptr noundef nonnull %0)
  br label %_ZN20btAlignedObjectArrayIPN10btSoftBody5JointEE5clearEv.exit

_ZN20btAlignedObjectArrayIPN10btSoftBody5JointEE5clearEv.exit: ; preds = %entry, %if.then3.i.i
  store i8 1, ptr %m_ownsMemory.i.i, align 8, !tbaa !114
  store ptr null, ptr %m_data.i.i, align 8, !tbaa !115
  %m_size.i4.i = getelementptr inbounds %class.btAlignedObjectArray.56, ptr %this, i64 0, i32 2
  store i32 0, ptr %m_size.i4.i, align 4, !tbaa !116
  %m_capacity.i.i = getelementptr inbounds %class.btAlignedObjectArray.56, ptr %this, i64 0, i32 3
  store i32 0, ptr %m_capacity.i.i, align 8, !tbaa !117
  ret void
}

; Function Attrs: uwtable
define linkonce_odr dso_local void @_ZN20btAlignedObjectArrayIN10btSoftBody8SContactEED2Ev(ptr noundef nonnull align 8 dereferenceable(25) %this) unnamed_addr #4 comdat align 2 {
entry:
  %m_data.i.i = getelementptr inbounds %class.btAlignedObjectArray.52, ptr %this, i64 0, i32 5
  %0 = load ptr, ptr %m_data.i.i, align 8, !tbaa !111
  %tobool.not.i.i = icmp eq ptr %0, null
  %m_ownsMemory.i.i = getelementptr inbounds %class.btAlignedObjectArray.52, ptr %this, i64 0, i32 6
  %1 = load i8, ptr %m_ownsMemory.i.i, align 8, !range !159
  %tobool2.not.i.i = icmp eq i8 %1, 0
  %or.cond.i = select i1 %tobool.not.i.i, i1 true, i1 %tobool2.not.i.i
  br i1 %or.cond.i, label %_ZN20btAlignedObjectArrayIN10btSoftBody8SContactEE5clearEv.exit, label %if.then3.i.i

if.then3.i.i:                                     ; preds = %entry
  tail call void @_Z21btAlignedFreeInternalPv(ptr noundef nonnull %0)
  br label %_ZN20btAlignedObjectArrayIN10btSoftBody8SContactEE5clearEv.exit

_ZN20btAlignedObjectArrayIN10btSoftBody8SContactEE5clearEv.exit: ; preds = %entry, %if.then3.i.i
  store i8 1, ptr %m_ownsMemory.i.i, align 8, !tbaa !110
  store ptr null, ptr %m_data.i.i, align 8, !tbaa !111
  %m_size.i4.i = getelementptr inbounds %class.btAlignedObjectArray.52, ptr %this, i64 0, i32 2
  store i32 0, ptr %m_size.i4.i, align 4, !tbaa !112
  %m_capacity.i.i = getelementptr inbounds %class.btAlignedObjectArray.52, ptr %this, i64 0, i32 3
  store i32 0, ptr %m_capacity.i.i, align 8, !tbaa !113
  ret void
}

; Function Attrs: uwtable
define linkonce_odr dso_local void @_ZN20btAlignedObjectArrayIN10btSoftBody8RContactEED2Ev(ptr noundef nonnull align 8 dereferenceable(25) %this) unnamed_addr #4 comdat align 2 {
entry:
  %m_data.i.i = getelementptr inbounds %class.btAlignedObjectArray.48, ptr %this, i64 0, i32 5
  %0 = load ptr, ptr %m_data.i.i, align 8, !tbaa !107
  %tobool.not.i.i = icmp eq ptr %0, null
  %m_ownsMemory.i.i = getelementptr inbounds %class.btAlignedObjectArray.48, ptr %this, i64 0, i32 6
  %1 = load i8, ptr %m_ownsMemory.i.i, align 8, !range !159
  %tobool2.not.i.i = icmp eq i8 %1, 0
  %or.cond.i = select i1 %tobool.not.i.i, i1 true, i1 %tobool2.not.i.i
  br i1 %or.cond.i, label %_ZN20btAlignedObjectArrayIN10btSoftBody8RContactEE5clearEv.exit, label %if.then3.i.i

if.then3.i.i:                                     ; preds = %entry
  tail call void @_Z21btAlignedFreeInternalPv(ptr noundef nonnull %0)
  br label %_ZN20btAlignedObjectArrayIN10btSoftBody8RContactEE5clearEv.exit

_ZN20btAlignedObjectArrayIN10btSoftBody8RContactEE5clearEv.exit: ; preds = %entry, %if.then3.i.i
  store i8 1, ptr %m_ownsMemory.i.i, align 8, !tbaa !106
  store ptr null, ptr %m_data.i.i, align 8, !tbaa !107
  %m_size.i4.i = getelementptr inbounds %class.btAlignedObjectArray.48, ptr %this, i64 0, i32 2
  store i32 0, ptr %m_size.i4.i, align 4, !tbaa !108
  %m_capacity.i.i = getelementptr inbounds %class.btAlignedObjectArray.48, ptr %this, i64 0, i32 3
  store i32 0, ptr %m_capacity.i.i, align 8, !tbaa !109
  ret void
}

; Function Attrs: uwtable
define linkonce_odr dso_local void @_ZN20btAlignedObjectArrayIN10btSoftBody6AnchorEED2Ev(ptr noundef nonnull align 8 dereferenceable(25) %this) unnamed_addr #4 comdat align 2 {
entry:
  %m_data.i.i = getelementptr inbounds %class.btAlignedObjectArray.40, ptr %this, i64 0, i32 5
  %0 = load ptr, ptr %m_data.i.i, align 8, !tbaa !103
  %tobool.not.i.i = icmp eq ptr %0, null
  %m_ownsMemory.i.i = getelementptr inbounds %class.btAlignedObjectArray.40, ptr %this, i64 0, i32 6
  %1 = load i8, ptr %m_ownsMemory.i.i, align 8, !range !159
  %tobool2.not.i.i = icmp eq i8 %1, 0
  %or.cond.i = select i1 %tobool.not.i.i, i1 true, i1 %tobool2.not.i.i
  br i1 %or.cond.i, label %_ZN20btAlignedObjectArrayIN10btSoftBody6AnchorEE5clearEv.exit, label %if.then3.i.i

if.then3.i.i:                                     ; preds = %entry
  tail call void @_Z21btAlignedFreeInternalPv(ptr noundef nonnull %0)
  br label %_ZN20btAlignedObjectArrayIN10btSoftBody6AnchorEE5clearEv.exit

_ZN20btAlignedObjectArrayIN10btSoftBody6AnchorEE5clearEv.exit: ; preds = %entry, %if.then3.i.i
  store i8 1, ptr %m_ownsMemory.i.i, align 8, !tbaa !102
  store ptr null, ptr %m_data.i.i, align 8, !tbaa !103
  %m_size.i4.i = getelementptr inbounds %class.btAlignedObjectArray.40, ptr %this, i64 0, i32 2
  store i32 0, ptr %m_size.i4.i, align 4, !tbaa !104
  %m_capacity.i.i = getelementptr inbounds %class.btAlignedObjectArray.40, ptr %this, i64 0, i32 3
  store i32 0, ptr %m_capacity.i.i, align 8, !tbaa !105
  ret void
}

; Function Attrs: uwtable
define linkonce_odr dso_local void @_ZN20btAlignedObjectArrayIN10btSoftBody5TetraEED2Ev(ptr noundef nonnull align 8 dereferenceable(25) %this) unnamed_addr #4 comdat align 2 {
entry:
  %m_data.i.i = getelementptr inbounds %class.btAlignedObjectArray.36, ptr %this, i64 0, i32 5
  %0 = load ptr, ptr %m_data.i.i, align 8, !tbaa !99
  %tobool.not.i.i = icmp eq ptr %0, null
  %m_ownsMemory.i.i = getelementptr inbounds %class.btAlignedObjectArray.36, ptr %this, i64 0, i32 6
  %1 = load i8, ptr %m_ownsMemory.i.i, align 8, !range !159
  %tobool2.not.i.i = icmp eq i8 %1, 0
  %or.cond.i = select i1 %tobool.not.i.i, i1 true, i1 %tobool2.not.i.i
  br i1 %or.cond.i, label %_ZN20btAlignedObjectArrayIN10btSoftBody5TetraEE5clearEv.exit, label %if.then3.i.i

if.then3.i.i:                                     ; preds = %entry
  tail call void @_Z21btAlignedFreeInternalPv(ptr noundef nonnull %0)
  br label %_ZN20btAlignedObjectArrayIN10btSoftBody5TetraEE5clearEv.exit

_ZN20btAlignedObjectArrayIN10btSoftBody5TetraEE5clearEv.exit: ; preds = %entry, %if.then3.i.i
  store i8 1, ptr %m_ownsMemory.i.i, align 8, !tbaa !98
  store ptr null, ptr %m_data.i.i, align 8, !tbaa !99
  %m_size.i4.i = getelementptr inbounds %class.btAlignedObjectArray.36, ptr %this, i64 0, i32 2
  store i32 0, ptr %m_size.i4.i, align 4, !tbaa !100
  %m_capacity.i.i = getelementptr inbounds %class.btAlignedObjectArray.36, ptr %this, i64 0, i32 3
  store i32 0, ptr %m_capacity.i.i, align 8, !tbaa !101
  ret void
}

; Function Attrs: uwtable
define linkonce_odr dso_local void @_ZN20btAlignedObjectArrayIN10btSoftBody4FaceEED2Ev(ptr noundef nonnull align 8 dereferenceable(25) %this) unnamed_addr #4 comdat align 2 {
entry:
  %m_data.i.i = getelementptr inbounds %class.btAlignedObjectArray.32, ptr %this, i64 0, i32 5
  %0 = load ptr, ptr %m_data.i.i, align 8, !tbaa !95
  %tobool.not.i.i = icmp eq ptr %0, null
  %m_ownsMemory.i.i = getelementptr inbounds %class.btAlignedObjectArray.32, ptr %this, i64 0, i32 6
  %1 = load i8, ptr %m_ownsMemory.i.i, align 8, !range !159
  %tobool2.not.i.i = icmp eq i8 %1, 0
  %or.cond.i = select i1 %tobool.not.i.i, i1 true, i1 %tobool2.not.i.i
  br i1 %or.cond.i, label %_ZN20btAlignedObjectArrayIN10btSoftBody4FaceEE5clearEv.exit, label %if.then3.i.i

if.then3.i.i:                                     ; preds = %entry
  tail call void @_Z21btAlignedFreeInternalPv(ptr noundef nonnull %0)
  br label %_ZN20btAlignedObjectArrayIN10btSoftBody4FaceEE5clearEv.exit

_ZN20btAlignedObjectArrayIN10btSoftBody4FaceEE5clearEv.exit: ; preds = %entry, %if.then3.i.i
  store i8 1, ptr %m_ownsMemory.i.i, align 8, !tbaa !94
  store ptr null, ptr %m_data.i.i, align 8, !tbaa !95
  %m_size.i4.i = getelementptr inbounds %class.btAlignedObjectArray.32, ptr %this, i64 0, i32 2
  store i32 0, ptr %m_size.i4.i, align 4, !tbaa !96
  %m_capacity.i.i = getelementptr inbounds %class.btAlignedObjectArray.32, ptr %this, i64 0, i32 3
  store i32 0, ptr %m_capacity.i.i, align 8, !tbaa !97
  ret void
}

; Function Attrs: uwtable
define linkonce_odr dso_local void @_ZN20btAlignedObjectArrayIN10btSoftBody4LinkEED2Ev(ptr noundef nonnull align 8 dereferenceable(25) %this) unnamed_addr #4 comdat align 2 {
entry:
  %m_data.i.i = getelementptr inbounds %class.btAlignedObjectArray.28, ptr %this, i64 0, i32 5
  %0 = load ptr, ptr %m_data.i.i, align 8, !tbaa !91
  %tobool.not.i.i = icmp eq ptr %0, null
  %m_ownsMemory.i.i = getelementptr inbounds %class.btAlignedObjectArray.28, ptr %this, i64 0, i32 6
  %1 = load i8, ptr %m_ownsMemory.i.i, align 8, !range !159
  %tobool2.not.i.i = icmp eq i8 %1, 0
  %or.cond.i = select i1 %tobool.not.i.i, i1 true, i1 %tobool2.not.i.i
  br i1 %or.cond.i, label %_ZN20btAlignedObjectArrayIN10btSoftBody4LinkEE5clearEv.exit, label %if.then3.i.i

if.then3.i.i:                                     ; preds = %entry
  tail call void @_Z21btAlignedFreeInternalPv(ptr noundef nonnull %0)
  br label %_ZN20btAlignedObjectArrayIN10btSoftBody4LinkEE5clearEv.exit

_ZN20btAlignedObjectArrayIN10btSoftBody4LinkEE5clearEv.exit: ; preds = %entry, %if.then3.i.i
  store i8 1, ptr %m_ownsMemory.i.i, align 8, !tbaa !90
  store ptr null, ptr %m_data.i.i, align 8, !tbaa !91
  %m_size.i4.i = getelementptr inbounds %class.btAlignedObjectArray.28, ptr %this, i64 0, i32 2
  store i32 0, ptr %m_size.i4.i, align 4, !tbaa !92
  %m_capacity.i.i = getelementptr inbounds %class.btAlignedObjectArray.28, ptr %this, i64 0, i32 3
  store i32 0, ptr %m_capacity.i.i, align 8, !tbaa !93
  ret void
}

; Function Attrs: uwtable
define linkonce_odr dso_local void @_ZN20btAlignedObjectArrayIN10btSoftBody4NodeEED2Ev(ptr noundef nonnull align 8 dereferenceable(25) %this) unnamed_addr #4 comdat align 2 {
entry:
  %m_data.i.i = getelementptr inbounds %class.btAlignedObjectArray.24, ptr %this, i64 0, i32 5
  %0 = load ptr, ptr %m_data.i.i, align 8, !tbaa !87
  %tobool.not.i.i = icmp eq ptr %0, null
  %m_ownsMemory.i.i = getelementptr inbounds %class.btAlignedObjectArray.24, ptr %this, i64 0, i32 6
  %1 = load i8, ptr %m_ownsMemory.i.i, align 8, !range !159
  %tobool2.not.i.i = icmp eq i8 %1, 0
  %or.cond.i = select i1 %tobool.not.i.i, i1 true, i1 %tobool2.not.i.i
  br i1 %or.cond.i, label %_ZN20btAlignedObjectArrayIN10btSoftBody4NodeEE5clearEv.exit, label %if.then3.i.i

if.then3.i.i:                                     ; preds = %entry
  tail call void @_Z21btAlignedFreeInternalPv(ptr noundef nonnull %0)
  br label %_ZN20btAlignedObjectArrayIN10btSoftBody4NodeEE5clearEv.exit

_ZN20btAlignedObjectArrayIN10btSoftBody4NodeEE5clearEv.exit: ; preds = %entry, %if.then3.i.i
  store i8 1, ptr %m_ownsMemory.i.i, align 8, !tbaa !86
  store ptr null, ptr %m_data.i.i, align 8, !tbaa !87
  %m_size.i4.i = getelementptr inbounds %class.btAlignedObjectArray.24, ptr %this, i64 0, i32 2
  store i32 0, ptr %m_size.i4.i, align 4, !tbaa !88
  %m_capacity.i.i = getelementptr inbounds %class.btAlignedObjectArray.24, ptr %this, i64 0, i32 3
  store i32 0, ptr %m_capacity.i.i, align 8, !tbaa !89
  ret void
}

; Function Attrs: uwtable
define linkonce_odr dso_local void @_ZN20btAlignedObjectArrayIN10btSoftBody4NoteEED2Ev(ptr noundef nonnull align 8 dereferenceable(25) %this) unnamed_addr #4 comdat align 2 {
entry:
  %m_data.i.i = getelementptr inbounds %class.btAlignedObjectArray.20, ptr %this, i64 0, i32 5
  %0 = load ptr, ptr %m_data.i.i, align 8, !tbaa !83
  %tobool.not.i.i = icmp eq ptr %0, null
  %m_ownsMemory.i.i = getelementptr inbounds %class.btAlignedObjectArray.20, ptr %this, i64 0, i32 6
  %1 = load i8, ptr %m_ownsMemory.i.i, align 8, !range !159
  %tobool2.not.i.i = icmp eq i8 %1, 0
  %or.cond.i = select i1 %tobool.not.i.i, i1 true, i1 %tobool2.not.i.i
  br i1 %or.cond.i, label %_ZN20btAlignedObjectArrayIN10btSoftBody4NoteEE5clearEv.exit, label %if.then3.i.i

if.then3.i.i:                                     ; preds = %entry
  tail call void @_Z21btAlignedFreeInternalPv(ptr noundef nonnull %0)
  br label %_ZN20btAlignedObjectArrayIN10btSoftBody4NoteEE5clearEv.exit

_ZN20btAlignedObjectArrayIN10btSoftBody4NoteEE5clearEv.exit: ; preds = %entry, %if.then3.i.i
  store i8 1, ptr %m_ownsMemory.i.i, align 8, !tbaa !82
  store ptr null, ptr %m_data.i.i, align 8, !tbaa !83
  %m_size.i4.i = getelementptr inbounds %class.btAlignedObjectArray.20, ptr %this, i64 0, i32 2
  store i32 0, ptr %m_size.i4.i, align 4, !tbaa !84
  %m_capacity.i.i = getelementptr inbounds %class.btAlignedObjectArray.20, ptr %this, i64 0, i32 3
  store i32 0, ptr %m_capacity.i.i, align 8, !tbaa !85
  ret void
}

; Function Attrs: inlinehint uwtable
define linkonce_odr dso_local void @_ZN10btSoftBody4PoseD2Ev(ptr noundef nonnull align 8 dereferenceable(232) %this) unnamed_addr #8 comdat align 2 personality ptr @__gxx_personality_v0 {
entry:
  %m_data.i.i.i = getelementptr inbounds %"struct.btSoftBody::Pose", ptr %this, i64 0, i32 4, i32 5
  %0 = load ptr, ptr %m_data.i.i.i, align 8, !tbaa !39
  %tobool.not.i.i.i = icmp eq ptr %0, null
  %m_ownsMemory.i.i.i = getelementptr inbounds %"struct.btSoftBody::Pose", ptr %this, i64 0, i32 4, i32 6
  %1 = load i8, ptr %m_ownsMemory.i.i.i, align 8, !range !159
  %tobool2.not.i.i.i = icmp eq i8 %1, 0
  %or.cond.i.i = select i1 %tobool.not.i.i.i, i1 true, i1 %tobool2.not.i.i.i
  br i1 %or.cond.i.i, label %_ZN20btAlignedObjectArrayIfED2Ev.exit, label %if.then3.i.i.i

if.then3.i.i.i:                                   ; preds = %entry
  invoke void @_Z21btAlignedFreeInternalPv(ptr noundef nonnull %0)
          to label %_ZN20btAlignedObjectArrayIfED2Ev.exit unwind label %lpad

_ZN20btAlignedObjectArrayIfED2Ev.exit:            ; preds = %if.then3.i.i.i, %entry
  store i8 1, ptr %m_ownsMemory.i.i.i, align 8, !tbaa !36
  store ptr null, ptr %m_data.i.i.i, align 8, !tbaa !39
  %m_size.i4.i.i = getelementptr inbounds %"struct.btSoftBody::Pose", ptr %this, i64 0, i32 4, i32 2
  store i32 0, ptr %m_size.i4.i.i, align 4, !tbaa !40
  %m_capacity.i.i.i = getelementptr inbounds %"struct.btSoftBody::Pose", ptr %this, i64 0, i32 4, i32 3
  store i32 0, ptr %m_capacity.i.i.i, align 8, !tbaa !41
  %m_data.i.i.i5 = getelementptr inbounds %"struct.btSoftBody::Pose", ptr %this, i64 0, i32 3, i32 5
  %2 = load ptr, ptr %m_data.i.i.i5, align 8, !tbaa !33
  %tobool.not.i.i.i6 = icmp eq ptr %2, null
  %m_ownsMemory.i.i.i7 = getelementptr inbounds %"struct.btSoftBody::Pose", ptr %this, i64 0, i32 3, i32 6
  %3 = load i8, ptr %m_ownsMemory.i.i.i7, align 8, !range !159
  %tobool2.not.i.i.i8 = icmp eq i8 %3, 0
  %or.cond.i.i9 = select i1 %tobool.not.i.i.i6, i1 true, i1 %tobool2.not.i.i.i8
  br i1 %or.cond.i.i9, label %_ZN20btAlignedObjectArrayI9btVector3ED2Ev.exit, label %if.then3.i.i.i10

if.then3.i.i.i10:                                 ; preds = %_ZN20btAlignedObjectArrayIfED2Ev.exit
  tail call void @_Z21btAlignedFreeInternalPv(ptr noundef nonnull %2)
  br label %_ZN20btAlignedObjectArrayI9btVector3ED2Ev.exit

_ZN20btAlignedObjectArrayI9btVector3ED2Ev.exit:   ; preds = %_ZN20btAlignedObjectArrayIfED2Ev.exit, %if.then3.i.i.i10
  store i8 1, ptr %m_ownsMemory.i.i.i7, align 8, !tbaa !30
  store ptr null, ptr %m_data.i.i.i5, align 8, !tbaa !33
  %m_size.i4.i.i11 = getelementptr inbounds %"struct.btSoftBody::Pose", ptr %this, i64 0, i32 3, i32 2
  store i32 0, ptr %m_size.i4.i.i11, align 4, !tbaa !34
  %m_capacity.i.i.i12 = getelementptr inbounds %"struct.btSoftBody::Pose", ptr %this, i64 0, i32 3, i32 3
  store i32 0, ptr %m_capacity.i.i.i12, align 8, !tbaa !35
  ret void

lpad:                                             ; preds = %if.then3.i.i.i
  %4 = landingpad { ptr, i32 }
          cleanup
  %m_pos2 = getelementptr inbounds %"struct.btSoftBody::Pose", ptr %this, i64 0, i32 3
  invoke void @_ZN20btAlignedObjectArrayI9btVector3ED2Ev(ptr noundef nonnull align 8 dereferenceable(25) %m_pos2)
          to label %eh.resume unwind label %terminate.lpad

eh.resume:                                        ; preds = %lpad
  resume { ptr, i32 } %4

terminate.lpad:                                   ; preds = %lpad
  %5 = landingpad { ptr, i32 }
          catch ptr null
  %6 = extractvalue { ptr, i32 } %5, 0
  tail call void @__clang_call_terminate(ptr %6) #39
  unreachable
}

; Function Attrs: inlinehint uwtable
define linkonce_odr dso_local void @_ZN10btSoftBody6ConfigD2Ev(ptr noundef nonnull align 8 dereferenceable(200) %this) unnamed_addr #8 comdat align 2 personality ptr @__gxx_personality_v0 {
entry:
  %m_data.i.i.i = getelementptr inbounds %"struct.btSoftBody::Config", ptr %this, i64 0, i32 28, i32 5
  %0 = load ptr, ptr %m_data.i.i.i, align 8, !tbaa !27
  %tobool.not.i.i.i = icmp eq ptr %0, null
  %m_ownsMemory.i.i.i = getelementptr inbounds %"struct.btSoftBody::Config", ptr %this, i64 0, i32 28, i32 6
  %1 = load i8, ptr %m_ownsMemory.i.i.i, align 8, !range !159
  %tobool2.not.i.i.i = icmp eq i8 %1, 0
  %or.cond.i.i = select i1 %tobool.not.i.i.i, i1 true, i1 %tobool2.not.i.i.i
  br i1 %or.cond.i.i, label %_ZN20btAlignedObjectArrayIN10btSoftBody8ePSolver1_EED2Ev.exit, label %if.then3.i.i.i

if.then3.i.i.i:                                   ; preds = %entry
  invoke void @_Z21btAlignedFreeInternalPv(ptr noundef nonnull %0)
          to label %_ZN20btAlignedObjectArrayIN10btSoftBody8ePSolver1_EED2Ev.exit unwind label %lpad

_ZN20btAlignedObjectArrayIN10btSoftBody8ePSolver1_EED2Ev.exit: ; preds = %if.then3.i.i.i, %entry
  store i8 1, ptr %m_ownsMemory.i.i.i, align 8, !tbaa !24
  store ptr null, ptr %m_data.i.i.i, align 8, !tbaa !27
  %m_size.i4.i.i = getelementptr inbounds %"struct.btSoftBody::Config", ptr %this, i64 0, i32 28, i32 2
  store i32 0, ptr %m_size.i4.i.i, align 4, !tbaa !28
  %m_capacity.i.i.i = getelementptr inbounds %"struct.btSoftBody::Config", ptr %this, i64 0, i32 28, i32 3
  store i32 0, ptr %m_capacity.i.i.i, align 8, !tbaa !29
  %m_data.i.i.i9 = getelementptr inbounds %"struct.btSoftBody::Config", ptr %this, i64 0, i32 27, i32 5
  %2 = load ptr, ptr %m_data.i.i.i9, align 8, !tbaa !27
  %tobool.not.i.i.i10 = icmp eq ptr %2, null
  %m_ownsMemory.i.i.i11 = getelementptr inbounds %"struct.btSoftBody::Config", ptr %this, i64 0, i32 27, i32 6
  %3 = load i8, ptr %m_ownsMemory.i.i.i11, align 8, !range !159
  %tobool2.not.i.i.i12 = icmp eq i8 %3, 0
  %or.cond.i.i13 = select i1 %tobool.not.i.i.i10, i1 true, i1 %tobool2.not.i.i.i12
  br i1 %or.cond.i.i13, label %_ZN20btAlignedObjectArrayIN10btSoftBody8ePSolver1_EED2Ev.exit18, label %if.then3.i.i.i14

if.then3.i.i.i14:                                 ; preds = %_ZN20btAlignedObjectArrayIN10btSoftBody8ePSolver1_EED2Ev.exit
  invoke void @_Z21btAlignedFreeInternalPv(ptr noundef nonnull %2)
          to label %_ZN20btAlignedObjectArrayIN10btSoftBody8ePSolver1_EED2Ev.exit18 unwind label %lpad2

_ZN20btAlignedObjectArrayIN10btSoftBody8ePSolver1_EED2Ev.exit18: ; preds = %if.then3.i.i.i14, %_ZN20btAlignedObjectArrayIN10btSoftBody8ePSolver1_EED2Ev.exit
  store i8 1, ptr %m_ownsMemory.i.i.i11, align 8, !tbaa !24
  store ptr null, ptr %m_data.i.i.i9, align 8, !tbaa !27
  %m_size.i4.i.i15 = getelementptr inbounds %"struct.btSoftBody::Config", ptr %this, i64 0, i32 27, i32 2
  store i32 0, ptr %m_size.i4.i.i15, align 4, !tbaa !28
  %m_capacity.i.i.i16 = getelementptr inbounds %"struct.btSoftBody::Config", ptr %this, i64 0, i32 27, i32 3
  store i32 0, ptr %m_capacity.i.i.i16, align 8, !tbaa !29
  %m_data.i.i.i19 = getelementptr inbounds %"struct.btSoftBody::Config", ptr %this, i64 0, i32 26, i32 5
  %4 = load ptr, ptr %m_data.i.i.i19, align 8, !tbaa !21
  %tobool.not.i.i.i20 = icmp eq ptr %4, null
  %m_ownsMemory.i.i.i21 = getelementptr inbounds %"struct.btSoftBody::Config", ptr %this, i64 0, i32 26, i32 6
  %5 = load i8, ptr %m_ownsMemory.i.i.i21, align 8, !range !159
  %tobool2.not.i.i.i22 = icmp eq i8 %5, 0
  %or.cond.i.i23 = select i1 %tobool.not.i.i.i20, i1 true, i1 %tobool2.not.i.i.i22
  br i1 %or.cond.i.i23, label %_ZN20btAlignedObjectArrayIN10btSoftBody8eVSolver1_EED2Ev.exit, label %if.then3.i.i.i24

if.then3.i.i.i24:                                 ; preds = %_ZN20btAlignedObjectArrayIN10btSoftBody8ePSolver1_EED2Ev.exit18
  tail call void @_Z21btAlignedFreeInternalPv(ptr noundef nonnull %4)
  br label %_ZN20btAlignedObjectArrayIN10btSoftBody8eVSolver1_EED2Ev.exit

_ZN20btAlignedObjectArrayIN10btSoftBody8eVSolver1_EED2Ev.exit: ; preds = %_ZN20btAlignedObjectArrayIN10btSoftBody8ePSolver1_EED2Ev.exit18, %if.then3.i.i.i24
  store i8 1, ptr %m_ownsMemory.i.i.i21, align 8, !tbaa !18
  store ptr null, ptr %m_data.i.i.i19, align 8, !tbaa !21
  %m_size.i4.i.i25 = getelementptr inbounds %"struct.btSoftBody::Config", ptr %this, i64 0, i32 26, i32 2
  store i32 0, ptr %m_size.i4.i.i25, align 4, !tbaa !22
  %m_capacity.i.i.i26 = getelementptr inbounds %"struct.btSoftBody::Config", ptr %this, i64 0, i32 26, i32 3
  store i32 0, ptr %m_capacity.i.i.i26, align 8, !tbaa !23
  ret void

lpad:                                             ; preds = %if.then3.i.i.i
  %6 = landingpad { ptr, i32 }
          cleanup
  %m_psequence4 = getelementptr inbounds %"struct.btSoftBody::Config", ptr %this, i64 0, i32 27
  invoke void @_ZN20btAlignedObjectArrayIN10btSoftBody8ePSolver1_EED2Ev(ptr noundef nonnull align 8 dereferenceable(25) %m_psequence4)
          to label %ehcleanup unwind label %terminate.lpad

lpad2:                                            ; preds = %if.then3.i.i.i14
  %7 = landingpad { ptr, i32 }
          cleanup
  br label %ehcleanup

ehcleanup:                                        ; preds = %lpad, %lpad2
  %.pn = phi { ptr, i32 } [ %7, %lpad2 ], [ %6, %lpad ]
  %m_vsequence6 = getelementptr inbounds %"struct.btSoftBody::Config", ptr %this, i64 0, i32 26
  invoke void @_ZN20btAlignedObjectArrayIN10btSoftBody8eVSolver1_EED2Ev(ptr noundef nonnull align 8 dereferenceable(25) %m_vsequence6)
          to label %eh.resume unwind label %terminate.lpad

eh.resume:                                        ; preds = %ehcleanup
  resume { ptr, i32 } %.pn

terminate.lpad:                                   ; preds = %ehcleanup, %lpad
  %8 = landingpad { ptr, i32 }
          catch ptr null
  %9 = extractvalue { ptr, i32 } %8, 0
  tail call void @__clang_call_terminate(ptr %9) #39
  unreachable
}

; Function Attrs: uwtable
define linkonce_odr dso_local void @_ZN20btAlignedObjectArrayIP17btCollisionObjectED2Ev(ptr noundef nonnull align 8 dereferenceable(25) %this) unnamed_addr #4 comdat align 2 {
entry:
  %m_data.i.i = getelementptr inbounds %class.btAlignedObjectArray, ptr %this, i64 0, i32 5
  %0 = load ptr, ptr %m_data.i.i, align 8, !tbaa !15
  %tobool.not.i.i = icmp eq ptr %0, null
  %m_ownsMemory.i.i = getelementptr inbounds %class.btAlignedObjectArray, ptr %this, i64 0, i32 6
  %1 = load i8, ptr %m_ownsMemory.i.i, align 8, !range !159
  %tobool2.not.i.i = icmp eq i8 %1, 0
  %or.cond.i = select i1 %tobool.not.i.i, i1 true, i1 %tobool2.not.i.i
  br i1 %or.cond.i, label %_ZN20btAlignedObjectArrayIP17btCollisionObjectE5clearEv.exit, label %if.then3.i.i

if.then3.i.i:                                     ; preds = %entry
  tail call void @_Z21btAlignedFreeInternalPv(ptr noundef nonnull %0)
  br label %_ZN20btAlignedObjectArrayIP17btCollisionObjectE5clearEv.exit

_ZN20btAlignedObjectArrayIP17btCollisionObjectE5clearEv.exit: ; preds = %entry, %if.then3.i.i
  store i8 1, ptr %m_ownsMemory.i.i, align 8, !tbaa !8
  store ptr null, ptr %m_data.i.i, align 8, !tbaa !15
  %m_size.i4.i = getelementptr inbounds %class.btAlignedObjectArray, ptr %this, i64 0, i32 2
  store i32 0, ptr %m_size.i4.i, align 4, !tbaa !16
  %m_capacity.i.i = getelementptr inbounds %class.btAlignedObjectArray, ptr %this, i64 0, i32 3
  store i32 0, ptr %m_capacity.i.i, align 8, !tbaa !17
  ret void
}

declare void @_ZN17btCollisionObjectD2Ev(ptr noundef nonnull align 8 dereferenceable(280)) unnamed_addr #1

; Function Attrs: uwtable
define dso_local void @_ZN10btSoftBodyD2Ev(ptr noundef nonnull align 8 dereferenceable(1496) %this) unnamed_addr #4 align 2 personality ptr @__gxx_personality_v0 {
entry:
  store ptr getelementptr inbounds ({ [7 x ptr] }, ptr @_ZTV10btSoftBody, i64 0, inrange i32 0, i64 2), ptr %this, align 8, !tbaa !5
  %m_collisionShape = getelementptr inbounds %class.btCollisionObject, ptr %this, i64 0, i32 9
  %0 = load ptr, ptr %m_collisionShape, align 8, !tbaa !157
  %isnull = icmp eq ptr %0, null
  br i1 %isnull, label %delete.end, label %delete.notnull

delete.notnull:                                   ; preds = %entry
  %vtable = load ptr, ptr %0, align 8, !tbaa !5
  %vfn = getelementptr inbounds ptr, ptr %vtable, i64 1
  %1 = load ptr, ptr %vfn, align 8
  invoke void %1(ptr noundef nonnull align 8 dereferenceable(24) %0)
          to label %delete.end unwind label %lpad

delete.end:                                       ; preds = %delete.notnull, %entry
  %m_size.i.i = getelementptr inbounds %class.btSoftBody, ptr %this, i64 0, i32 24, i32 2
  %2 = load i32, ptr %m_size.i.i, align 4, !tbaa !124
  %cmp3.i = icmp sgt i32 %2, 0
  br i1 %cmp3.i, label %while.body.lr.ph.i, label %invoke.cont3

while.body.lr.ph.i:                               ; preds = %delete.end
  %m_data.i.i.i = getelementptr inbounds %class.btSoftBody, ptr %this, i64 0, i32 24, i32 5
  %m_cdbvt.i.i = getelementptr inbounds %class.btSoftBody, ptr %this, i64 0, i32 23
  br label %while.body.i

while.body.i:                                     ; preds = %_ZN10btSoftBody14releaseClusterEi.exit.i, %while.body.lr.ph.i
  %3 = load ptr, ptr %m_data.i.i.i, align 8, !tbaa !123
  %4 = load ptr, ptr %3, align 8, !tbaa !219
  %m_leaf.i.i = getelementptr inbounds %"struct.btSoftBody::Cluster", ptr %4, i64 0, i32 15
  %5 = load ptr, ptr %m_leaf.i.i, align 8, !tbaa !221
  %tobool.not.i.i = icmp eq ptr %5, null
  br i1 %tobool.not.i.i, label %if.end.i.i, label %if.then.i.i

if.then.i.i:                                      ; preds = %while.body.i
  invoke void @_ZN6btDbvt6removeEP10btDbvtNode(ptr noundef nonnull align 8 dereferenceable(64) %m_cdbvt.i.i, ptr noundef nonnull %5)
          to label %if.end.i.i unwind label %lpad2.loopexit.split-lp.loopexit.split-lp

if.end.i.i:                                       ; preds = %if.then.i.i, %while.body.i
  invoke void @_ZN10btSoftBody7ClusterD2Ev(ptr noundef nonnull align 8 dereferenceable(424) %4)
          to label %.noexc125 unwind label %lpad2.loopexit.split-lp.loopexit.split-lp

.noexc125:                                        ; preds = %if.end.i.i
  invoke void @_Z21btAlignedFreeInternalPv(ptr noundef nonnull %4)
          to label %.noexc126 unwind label %lpad2.loopexit.split-lp.loopexit.split-lp

.noexc126:                                        ; preds = %.noexc125
  %6 = load i32, ptr %m_size.i.i, align 4, !tbaa !124
  %cmp8.i.i.i.i = icmp sgt i32 %6, 0
  br i1 %cmp8.i.i.i.i, label %for.body.lr.ph.i.i.i.i, label %invoke.cont3

for.body.lr.ph.i.i.i.i:                           ; preds = %.noexc126
  %7 = load ptr, ptr %m_data.i.i.i, align 8, !tbaa !123
  %wide.trip.count.i.i.i.i = zext i32 %6 to i64
  br label %for.body.i.i.i.i

for.body.i.i.i.i:                                 ; preds = %for.inc.i.i.i.i, %for.body.lr.ph.i.i.i.i
  %indvars.iv.i.i.i.i = phi i64 [ 0, %for.body.lr.ph.i.i.i.i ], [ %indvars.iv.next.i.i.i.i, %for.inc.i.i.i.i ]
  %arrayidx.i.i.i.i = getelementptr inbounds ptr, ptr %7, i64 %indvars.iv.i.i.i.i
  %8 = load ptr, ptr %arrayidx.i.i.i.i, align 8, !tbaa !219
  %cmp3.i.i.i.i = icmp eq ptr %8, %4
  br i1 %cmp3.i.i.i.i, label %_ZNK20btAlignedObjectArrayIPN10btSoftBody7ClusterEE16findLinearSearchERKS2_.exit.i.i.i, label %for.inc.i.i.i.i

for.inc.i.i.i.i:                                  ; preds = %for.body.i.i.i.i
  %indvars.iv.next.i.i.i.i = add nuw nsw i64 %indvars.iv.i.i.i.i, 1
  %exitcond.not.i.i.i.i = icmp eq i64 %indvars.iv.next.i.i.i.i, %wide.trip.count.i.i.i.i
  br i1 %exitcond.not.i.i.i.i, label %_ZN10btSoftBody14releaseClusterEi.exit.i, label %for.body.i.i.i.i

_ZNK20btAlignedObjectArrayIPN10btSoftBody7ClusterEE16findLinearSearchERKS2_.exit.i.i.i: ; preds = %for.body.i.i.i.i
  %9 = trunc i64 %indvars.iv.i.i.i.i to i32
  %cmp.i.i.i = icmp sgt i32 %6, %9
  br i1 %cmp.i.i.i, label %if.then.i.i.i, label %_ZN10btSoftBody14releaseClusterEi.exit.i

if.then.i.i.i:                                    ; preds = %_ZNK20btAlignedObjectArrayIPN10btSoftBody7ClusterEE16findLinearSearchERKS2_.exit.i.i.i
  %sub.i.i.i = add nsw i32 %6, -1
  %sext.i.i.i = shl i64 %indvars.iv.i.i.i.i, 32
  %idxprom.i.i.i.i = ashr exact i64 %sext.i.i.i, 32
  %arrayidx.i7.i.i.i = getelementptr inbounds ptr, ptr %7, i64 %idxprom.i.i.i.i
  %10 = load ptr, ptr %arrayidx.i7.i.i.i, align 8, !tbaa !219
  %idxprom3.i.i.i.i = sext i32 %sub.i.i.i to i64
  %arrayidx4.i.i.i.i = getelementptr inbounds ptr, ptr %7, i64 %idxprom3.i.i.i.i
  %11 = load ptr, ptr %arrayidx4.i.i.i.i, align 8, !tbaa !219
  store ptr %11, ptr %arrayidx.i7.i.i.i, align 8, !tbaa !219
  %12 = load ptr, ptr %m_data.i.i.i, align 8, !tbaa !123
  %arrayidx10.i.i.i.i = getelementptr inbounds ptr, ptr %12, i64 %idxprom3.i.i.i.i
  store ptr %10, ptr %arrayidx10.i.i.i.i, align 8, !tbaa !219
  store i32 %sub.i.i.i, ptr %m_size.i.i, align 4, !tbaa !124
  br label %_ZN10btSoftBody14releaseClusterEi.exit.i

_ZN10btSoftBody14releaseClusterEi.exit.i:         ; preds = %for.inc.i.i.i.i, %if.then.i.i.i, %_ZNK20btAlignedObjectArrayIPN10btSoftBody7ClusterEE16findLinearSearchERKS2_.exit.i.i.i
  %13 = phi i32 [ %6, %_ZNK20btAlignedObjectArrayIPN10btSoftBody7ClusterEE16findLinearSearchERKS2_.exit.i.i.i ], [ %sub.i.i.i, %if.then.i.i.i ], [ %6, %for.inc.i.i.i.i ]
  %cmp.i = icmp sgt i32 %13, 0
  br i1 %cmp.i, label %while.body.i, label %invoke.cont3

invoke.cont3:                                     ; preds = %_ZN10btSoftBody14releaseClusterEi.exit.i, %.noexc126, %delete.end
  %m_size.i = getelementptr inbounds %class.btSoftBody, ptr %this, i64 0, i32 17, i32 2
  %14 = load i32, ptr %m_size.i, align 4, !tbaa !120
  %cmp277 = icmp sgt i32 %14, 0
  br i1 %cmp277, label %for.body.lr.ph, label %for.cond9.preheader

for.body.lr.ph:                                   ; preds = %invoke.cont3
  %m_data.i = getelementptr inbounds %class.btSoftBody, ptr %this, i64 0, i32 17, i32 5
  br label %for.body

for.cond9.preheader:                              ; preds = %for.inc, %invoke.cont3
  %m_size.i127 = getelementptr inbounds %class.btSoftBody, ptr %this, i64 0, i32 16, i32 2
  %15 = load i32, ptr %m_size.i127, align 4, !tbaa !116
  %cmp12279 = icmp sgt i32 %15, 0
  br i1 %cmp12279, label %for.body13.lr.ph, label %for.end20

for.body13.lr.ph:                                 ; preds = %for.cond9.preheader
  %m_data.i128 = getelementptr inbounds %class.btSoftBody, ptr %this, i64 0, i32 16, i32 5
  br label %for.body13

for.body:                                         ; preds = %for.body.lr.ph, %for.inc
  %indvars.iv = phi i64 [ 0, %for.body.lr.ph ], [ %indvars.iv.next, %for.inc ]
  %16 = load ptr, ptr %m_data.i, align 8, !tbaa !119
  %arrayidx.i = getelementptr inbounds ptr, ptr %16, i64 %indvars.iv
  %17 = load ptr, ptr %arrayidx.i, align 8, !tbaa !219
  invoke void @_Z21btAlignedFreeInternalPv(ptr noundef %17)
          to label %for.inc unwind label %lpad2.loopexit.split-lp.loopexit

for.inc:                                          ; preds = %for.body
  %indvars.iv.next = add nuw nsw i64 %indvars.iv, 1
  %18 = load i32, ptr %m_size.i, align 4, !tbaa !120
  %19 = sext i32 %18 to i64
  %cmp = icmp slt i64 %indvars.iv.next, %19
  br i1 %cmp, label %for.body, label %for.cond9.preheader

lpad:                                             ; preds = %delete.notnull
  %20 = landingpad { ptr, i32 }
          cleanup
  br label %ehcleanup

lpad2.loopexit:                                   ; preds = %for.body13
  %lpad.loopexit = landingpad { ptr, i32 }
          cleanup
  br label %ehcleanup

lpad2.loopexit.split-lp.loopexit:                 ; preds = %for.body
  %lpad.loopexit271 = landingpad { ptr, i32 }
          cleanup
  br label %ehcleanup

lpad2.loopexit.split-lp.loopexit.split-lp:        ; preds = %.noexc125, %if.end.i.i, %if.then.i.i
  %lpad.loopexit.split-lp272 = landingpad { ptr, i32 }
          cleanup
  br label %ehcleanup

for.body13:                                       ; preds = %for.body13.lr.ph, %for.inc18
  %indvars.iv283 = phi i64 [ 0, %for.body13.lr.ph ], [ %indvars.iv.next284, %for.inc18 ]
  %21 = load ptr, ptr %m_data.i128, align 8, !tbaa !115
  %arrayidx.i130 = getelementptr inbounds ptr, ptr %21, i64 %indvars.iv283
  %22 = load ptr, ptr %arrayidx.i130, align 8, !tbaa !219
  invoke void @_Z21btAlignedFreeInternalPv(ptr noundef %22)
          to label %for.inc18 unwind label %lpad2.loopexit

for.inc18:                                        ; preds = %for.body13
  %indvars.iv.next284 = add nuw nsw i64 %indvars.iv283, 1
  %23 = load i32, ptr %m_size.i127, align 4, !tbaa !116
  %24 = sext i32 %23 to i64
  %cmp12 = icmp slt i64 %indvars.iv.next284, %24
  br i1 %cmp12, label %for.body13, label %for.end20

for.end20:                                        ; preds = %for.inc18, %for.cond9.preheader
  %m_data.i.i.i131 = getelementptr inbounds %class.btSoftBody, ptr %this, i64 0, i32 27, i32 5
  %25 = load ptr, ptr %m_data.i.i.i131, align 8, !tbaa !131
  %tobool.not.i.i.i = icmp eq ptr %25, null
  %m_ownsMemory.i.i.i = getelementptr inbounds %class.btSoftBody, ptr %this, i64 0, i32 27, i32 6
  %26 = load i8, ptr %m_ownsMemory.i.i.i, align 8, !range !159
  %tobool2.not.i.i.i = icmp eq i8 %26, 0
  %or.cond.i.i = select i1 %tobool.not.i.i.i, i1 true, i1 %tobool2.not.i.i.i
  br i1 %or.cond.i.i, label %_ZN20btAlignedObjectArrayIiED2Ev.exit, label %if.then3.i.i.i

if.then3.i.i.i:                                   ; preds = %for.end20
  invoke void @_Z21btAlignedFreeInternalPv(ptr noundef nonnull %25)
          to label %_ZN20btAlignedObjectArrayIiED2Ev.exit unwind label %lpad21

_ZN20btAlignedObjectArrayIiED2Ev.exit:            ; preds = %if.then3.i.i.i, %for.end20
  store i8 1, ptr %m_ownsMemory.i.i.i, align 8, !tbaa !130
  store ptr null, ptr %m_data.i.i.i131, align 8, !tbaa !131
  %m_size.i4.i.i = getelementptr inbounds %class.btSoftBody, ptr %this, i64 0, i32 27, i32 2
  store i32 0, ptr %m_size.i4.i.i, align 4, !tbaa !132
  %m_capacity.i.i.i = getelementptr inbounds %class.btSoftBody, ptr %this, i64 0, i32 27, i32 3
  store i32 0, ptr %m_capacity.i.i.i, align 8, !tbaa !133
  %m_data.i.i.i133 = getelementptr inbounds %class.btSoftBody, ptr %this, i64 0, i32 25, i32 5
  %27 = load ptr, ptr %m_data.i.i.i133, align 8, !tbaa !127
  %tobool.not.i.i.i134 = icmp eq ptr %27, null
  %m_ownsMemory.i.i.i135 = getelementptr inbounds %class.btSoftBody, ptr %this, i64 0, i32 25, i32 6
  %28 = load i8, ptr %m_ownsMemory.i.i.i135, align 8, !range !159
  %tobool2.not.i.i.i136 = icmp eq i8 %28, 0
  %or.cond.i.i137 = select i1 %tobool.not.i.i.i134, i1 true, i1 %tobool2.not.i.i.i136
  br i1 %or.cond.i.i137, label %_ZN20btAlignedObjectArrayIbED2Ev.exit, label %if.then3.i.i.i138

if.then3.i.i.i138:                                ; preds = %_ZN20btAlignedObjectArrayIiED2Ev.exit
  invoke void @_Z21btAlignedFreeInternalPv(ptr noundef nonnull %27)
          to label %_ZN20btAlignedObjectArrayIbED2Ev.exit unwind label %lpad25

_ZN20btAlignedObjectArrayIbED2Ev.exit:            ; preds = %if.then3.i.i.i138, %_ZN20btAlignedObjectArrayIiED2Ev.exit
  store i8 1, ptr %m_ownsMemory.i.i.i135, align 8, !tbaa !126
  store ptr null, ptr %m_data.i.i.i133, align 8, !tbaa !127
