; ModuleID = '/usr/local/google/home/aeubanks/repos/test-suite/MicroBenchmarks/libs/benchmark/src/benchmark_register.cc'
source_filename = "/usr/local/google/home/aeubanks/repos/test-suite/MicroBenchmarks/libs/benchmark/src/benchmark_register.cc"
target datalayout = "e-m:e-p270:32:32-p271:32:32-p272:64:64-i64:64-f80:128-n8:16:32:64-S128"
target triple = "x86_64-unknown-linux-gnu"

%"class.std::ios_base::Init" = type { i8 }
%"class.benchmark::internal::BenchmarkFamilies" = type { %"class.std::vector", %"class.benchmark::Mutex" }
%"class.std::vector" = type { %"struct.std::_Vector_base" }
%"struct.std::_Vector_base" = type { %"struct.std::_Vector_base<std::unique_ptr<benchmark::internal::Benchmark>, std::allocator<std::unique_ptr<benchmark::internal::Benchmark>>>::_Vector_impl" }
%"struct.std::_Vector_base<std::unique_ptr<benchmark::internal::Benchmark>, std::allocator<std::unique_ptr<benchmark::internal::Benchmark>>>::_Vector_impl" = type { %"struct.std::_Vector_base<std::unique_ptr<benchmark::internal::Benchmark>, std::allocator<std::unique_ptr<benchmark::internal::Benchmark>>>::_Vector_impl_data" }
%"struct.std::_Vector_base<std::unique_ptr<benchmark::internal::Benchmark>, std::allocator<std::unique_ptr<benchmark::internal::Benchmark>>>::_Vector_impl_data" = type { ptr, ptr, ptr }
%"class.benchmark::Mutex" = type { %"class.std::mutex" }
%"class.std::mutex" = type { %"class.std::__mutex_base" }
%"class.std::__mutex_base" = type { %union.pthread_mutex_t }
%union.pthread_mutex_t = type { %struct.__pthread_mutex_s }
%struct.__pthread_mutex_s = type { i32, i32, i32, i32, i32, i16, i16, %struct.__pthread_internal_list }
%struct.__pthread_internal_list = type { ptr, ptr }
%"class.benchmark::internal::LogType" = type { ptr }
%"class.std::locale::id" = type { i64 }
%"class.std::unique_ptr" = type { %"struct.std::__uniq_ptr_data" }
%"struct.std::__uniq_ptr_data" = type { %"class.std::__uniq_ptr_impl" }
%"class.std::__uniq_ptr_impl" = type { %"class.std::tuple" }
%"class.std::tuple" = type { %"struct.std::_Tuple_impl" }
%"struct.std::_Tuple_impl" = type { %"struct.std::_Head_base.1" }
%"struct.std::_Head_base.1" = type { ptr }
%"class.std::__cxx11::match_results" = type { %"class.std::vector.190", %"class.__gnu_cxx::__normal_iterator.189" }
%"class.std::vector.190" = type { %"struct.std::_Vector_base.191" }
%"struct.std::_Vector_base.191" = type { %"struct.std::_Vector_base<std::__cxx11::sub_match<__gnu_cxx::__normal_iterator<const char *, std::__cxx11::basic_string<char>>>, std::allocator<std::__cxx11::sub_match<__gnu_cxx::__normal_iterator<const char *, std::__cxx11::basic_string<char>>>>>::_Vector_impl" }
%"struct.std::_Vector_base<std::__cxx11::sub_match<__gnu_cxx::__normal_iterator<const char *, std::__cxx11::basic_string<char>>>, std::allocator<std::__cxx11::sub_match<__gnu_cxx::__normal_iterator<const char *, std::__cxx11::basic_string<char>>>>>::_Vector_impl" = type { %"struct.std::_Vector_base<std::__cxx11::sub_match<__gnu_cxx::__normal_iterator<const char *, std::__cxx11::basic_string<char>>>, std::allocator<std::__cxx11::sub_match<__gnu_cxx::__normal_iterator<const char *, std::__cxx11::basic_string<char>>>>>::_Vector_impl_data" }
%"struct.std::_Vector_base<std::__cxx11::sub_match<__gnu_cxx::__normal_iterator<const char *, std::__cxx11::basic_string<char>>>, std::allocator<std::__cxx11::sub_match<__gnu_cxx::__normal_iterator<const char *, std::__cxx11::basic_string<char>>>>>::_Vector_impl_data" = type { ptr, ptr, ptr }
%"class.__gnu_cxx::__normal_iterator.189" = type { ptr }
%"class.std::__cxx11::basic_string" = type { %"struct.std::__cxx11::basic_string<char>::_Alloc_hider", i64, %union.anon }
%"struct.std::__cxx11::basic_string<char>::_Alloc_hider" = type { ptr }
%union.anon = type { i64, [8 x i8] }
%"class.benchmark::Regex" = type { i8, %"class.std::__cxx11::basic_regex" }
%"class.std::__cxx11::basic_regex" = type { i32, %"class.std::locale", %"class.std::shared_ptr" }
%"class.std::locale" = type { ptr }
%"class.std::shared_ptr" = type { %"class.std::__shared_ptr" }
%"class.std::__shared_ptr" = type { ptr, %"class.std::__shared_count" }
%"class.std::__shared_count" = type { ptr }
%"class.std::vector.15" = type { %"struct.std::_Vector_base.16" }
%"struct.std::_Vector_base.16" = type { %"struct.std::_Vector_base<long, std::allocator<long>>::_Vector_impl" }
%"struct.std::_Vector_base<long, std::allocator<long>>::_Vector_impl" = type { %"struct.std::_Vector_base<long, std::allocator<long>>::_Vector_impl_data" }
%"struct.std::_Vector_base<long, std::allocator<long>>::_Vector_impl_data" = type { ptr, ptr, ptr }
%"class.benchmark::internal::BenchmarkInstance" = type { %"struct.benchmark::BenchmarkName", ptr, i32, i32, i32, ptr, i32, i8, i8, i8, i32, ptr, %"class.std::map", ptr, i32, double, i64, i32, ptr, ptr }
%"struct.benchmark::BenchmarkName" = type { %"class.std::__cxx11::basic_string", %"class.std::__cxx11::basic_string", %"class.std::__cxx11::basic_string", %"class.std::__cxx11::basic_string", %"class.std::__cxx11::basic_string", %"class.std::__cxx11::basic_string", %"class.std::__cxx11::basic_string" }
%"class.std::map" = type { %"class.std::_Rb_tree" }
%"class.std::_Rb_tree" = type { %"struct.std::_Rb_tree<std::__cxx11::basic_string<char>, std::pair<const std::__cxx11::basic_string<char>, benchmark::Counter>, std::_Select1st<std::pair<const std::__cxx11::basic_string<char>, benchmark::Counter>>, std::less<std::__cxx11::basic_string<char>>>::_Rb_tree_impl" }
%"struct.std::_Rb_tree<std::__cxx11::basic_string<char>, std::pair<const std::__cxx11::basic_string<char>, benchmark::Counter>, std::_Select1st<std::pair<const std::__cxx11::basic_string<char>, benchmark::Counter>>, std::less<std::__cxx11::basic_string<char>>>::_Rb_tree_impl" = type { %"struct.std::_Rb_tree_key_compare", %"struct.std::_Rb_tree_header" }
%"struct.std::_Rb_tree_key_compare" = type { %"struct.std::less" }
%"struct.std::less" = type { i8 }
%"struct.std::_Rb_tree_header" = type { %"struct.std::_Rb_tree_node_base", i64 }
%"struct.std::_Rb_tree_node_base" = type { i32, ptr, ptr, ptr }
%"class.std::basic_ios" = type { %"class.std::ios_base", ptr, i8, i8, ptr, ptr, ptr, ptr }
%"class.std::ios_base" = type { ptr, i64, i64, i32, i32, i32, ptr, %"struct.std::ios_base::_Words", [8 x %"struct.std::ios_base::_Words"], i32, ptr, %"class.std::locale" }
%"struct.std::ios_base::_Words" = type { ptr, i64 }
%"class.std::ctype" = type <{ %"class.std::locale::facet.base", [4 x i8], ptr, i8, [7 x i8], ptr, ptr, ptr, i8, [256 x i8], [256 x i8], i8, [6 x i8] }>
%"class.std::locale::facet.base" = type <{ ptr, i32 }>
%"struct.std::_Vector_base<benchmark::internal::BenchmarkInstance, std::allocator<benchmark::internal::BenchmarkInstance>>::_Vector_impl_data" = type { ptr, ptr, ptr }
%"class.benchmark::internal::Benchmark" = type { ptr, %"class.std::__cxx11::basic_string", i32, %"class.std::vector.5", %"class.std::vector.10", i32, i8, i32, double, i64, i32, i8, i8, i8, i32, ptr, %"class.std::vector.20", %"class.std::vector.30", ptr, ptr }
%"class.std::vector.5" = type { %"struct.std::_Vector_base.6" }
%"struct.std::_Vector_base.6" = type { %"struct.std::_Vector_base<std::__cxx11::basic_string<char>, std::allocator<std::__cxx11::basic_string<char>>>::_Vector_impl" }
%"struct.std::_Vector_base<std::__cxx11::basic_string<char>, std::allocator<std::__cxx11::basic_string<char>>>::_Vector_impl" = type { %"struct.std::_Vector_base<std::__cxx11::basic_string<char>, std::allocator<std::__cxx11::basic_string<char>>>::_Vector_impl_data" }
%"struct.std::_Vector_base<std::__cxx11::basic_string<char>, std::allocator<std::__cxx11::basic_string<char>>>::_Vector_impl_data" = type { ptr, ptr, ptr }
%"class.std::vector.10" = type { %"struct.std::_Vector_base.11" }
%"struct.std::_Vector_base.11" = type { %"struct.std::_Vector_base<std::vector<long>, std::allocator<std::vector<long>>>::_Vector_impl" }
%"struct.std::_Vector_base<std::vector<long>, std::allocator<std::vector<long>>>::_Vector_impl" = type { %"struct.std::_Vector_base<std::vector<long>, std::allocator<std::vector<long>>>::_Vector_impl_data" }
%"struct.std::_Vector_base<std::vector<long>, std::allocator<std::vector<long>>>::_Vector_impl_data" = type { ptr, ptr, ptr }
%"class.std::vector.20" = type { %"struct.std::_Vector_base.21" }
%"struct.std::_Vector_base.21" = type { %"struct.std::_Vector_base<benchmark::internal::Statistics, std::allocator<benchmark::internal::Statistics>>::_Vector_impl" }
%"struct.std::_Vector_base<benchmark::internal::Statistics, std::allocator<benchmark::internal::Statistics>>::_Vector_impl" = type { %"struct.std::_Vector_base<benchmark::internal::Statistics, std::allocator<benchmark::internal::Statistics>>::_Vector_impl_data" }
%"struct.std::_Vector_base<benchmark::internal::Statistics, std::allocator<benchmark::internal::Statistics>>::_Vector_impl_data" = type { ptr, ptr, ptr }
%"class.std::vector.30" = type { %"struct.std::_Vector_base.31" }
%"struct.std::_Vector_base.31" = type { %"struct.std::_Vector_base<int, std::allocator<int>>::_Vector_impl" }
%"struct.std::_Vector_base<int, std::allocator<int>>::_Vector_impl" = type { %"struct.std::_Vector_base<int, std::allocator<int>>::_Vector_impl_data" }
%"struct.std::_Vector_base<int, std::allocator<int>>::_Vector_impl_data" = type { ptr, ptr, ptr }
%"class.std::_Sp_counted_base" = type { ptr, i32, i32 }
%"struct.benchmark::internal::Statistics" = type <{ %"class.std::__cxx11::basic_string", ptr, i32, [4 x i8] }>
%"struct.std::_Vector_base<std::pair<long, long>, std::allocator<std::pair<long, long>>>::_Vector_impl_data" = type { ptr, ptr, ptr }
%"struct.std::pair" = type { i64, i64 }
%"class.benchmark::internal::FunctionBenchmark" = type { %"class.benchmark::internal::Benchmark", ptr }
%"class.std::__detail::_Compiler" = type { i32, %"class.std::__detail::_Scanner", %"class.std::shared_ptr.75", %"class.std::__cxx11::basic_string", %"class.std::stack", ptr, ptr }
%"class.std::__detail::_Scanner" = type { %"struct.std::__detail::_ScannerBase.base", ptr, ptr, ptr, %"class.std::__cxx11::basic_string", { i64, i64 } }
%"struct.std::__detail::_ScannerBase.base" = type <{ [9 x %"struct.std::pair.71"], [8 x %"struct.std::pair.73"], [11 x %"struct.std::pair.73"], [2 x i8], ptr, ptr, ptr, i32, i32, i32, [4 x i8], ptr, ptr, i8 }>
%"struct.std::pair.71" = type { i8, i32 }
%"struct.std::pair.73" = type { i8, i8 }
%"class.std::shared_ptr.75" = type { %"class.std::__shared_ptr.76" }
%"class.std::__shared_ptr.76" = type { ptr, %"class.std::__shared_count" }
%"class.std::stack" = type { %"class.std::deque" }
%"class.std::deque" = type { %"class.std::_Deque_base" }
%"class.std::_Deque_base" = type { %"struct.std::_Deque_base<std::__detail::_StateSeq<std::__cxx11::regex_traits<char>>, std::allocator<std::__detail::_StateSeq<std::__cxx11::regex_traits<char>>>>::_Deque_impl" }
%"struct.std::_Deque_base<std::__detail::_StateSeq<std::__cxx11::regex_traits<char>>, std::allocator<std::__detail::_StateSeq<std::__cxx11::regex_traits<char>>>>::_Deque_impl" = type { %"struct.std::_Deque_base<std::__detail::_StateSeq<std::__cxx11::regex_traits<char>>, std::allocator<std::__detail::_StateSeq<std::__cxx11::regex_traits<char>>>>::_Deque_impl_data" }
%"struct.std::_Deque_base<std::__detail::_StateSeq<std::__cxx11::regex_traits<char>>, std::allocator<std::__detail::_StateSeq<std::__cxx11::regex_traits<char>>>>::_Deque_impl_data" = type { ptr, i64, %"struct.std::_Deque_iterator", %"struct.std::_Deque_iterator" }
%"struct.std::_Deque_iterator" = type { ptr, ptr, ptr, ptr }
%"class.std::allocator.81" = type { i8 }
%"struct.std::__detail::_NFA" = type { %"struct.std::__detail::_NFA_base.base", %"class.std::vector.64", %"class.std::__cxx11::regex_traits" }
%"struct.std::__detail::_NFA_base.base" = type <{ %"class.std::vector.52", i32, [4 x i8], i64, i64, i8 }>
%"class.std::vector.52" = type { %"struct.std::_Vector_base.53" }
%"struct.std::_Vector_base.53" = type { %"struct.std::_Vector_base<unsigned long, std::allocator<unsigned long>>::_Vector_impl" }
%"struct.std::_Vector_base<unsigned long, std::allocator<unsigned long>>::_Vector_impl" = type { %"struct.std::_Vector_base<unsigned long, std::allocator<unsigned long>>::_Vector_impl_data" }
%"struct.std::_Vector_base<unsigned long, std::allocator<unsigned long>>::_Vector_impl_data" = type { ptr, ptr, ptr }
%"class.std::vector.64" = type { %"struct.std::_Vector_base.65" }
%"struct.std::_Vector_base.65" = type { %"struct.std::_Vector_base<std::__detail::_State<char>, std::allocator<std::__detail::_State<char>>>::_Vector_impl" }
%"struct.std::_Vector_base<std::__detail::_State<char>, std::allocator<std::__detail::_State<char>>>::_Vector_impl" = type { %"struct.std::_Vector_base<std::__detail::_State<char>, std::allocator<std::__detail::_State<char>>>::_Vector_impl_data" }
%"struct.std::_Vector_base<std::__detail::_State<char>, std::allocator<std::__detail::_State<char>>>::_Vector_impl_data" = type { ptr, ptr, ptr }
%"class.std::__cxx11::regex_traits" = type { %"class.std::locale" }
%"struct.std::__detail::_NFA_base" = type <{ %"class.std::vector.52", i32, [4 x i8], i64, i64, i8, [7 x i8] }>
%"struct.std::__detail::_State" = type { %"struct.std::__detail::_State_base" }
%"struct.std::__detail::_State_base" = type { i32, i64, %union.anon.69 }
%union.anon.69 = type { %struct.anon, [16 x i8] }
%struct.anon = type { i64, i8 }
%"class.std::__detail::_StateSeq" = type { ptr, i64, i64 }
%"class.std::locale::_Impl" = type { i32, ptr, i64, ptr, ptr }
%"struct.std::__detail::_ScannerBase" = type <{ [9 x %"struct.std::pair.71"], [8 x %"struct.std::pair.73"], [11 x %"struct.std::pair.73"], [2 x i8], ptr, ptr, ptr, i32, i32, i32, [4 x i8], ptr, ptr, i8, [7 x i8] }>
%"class.std::regex_error" = type <{ %"class.std::runtime_error", i32, [4 x i8] }>
%"class.std::runtime_error" = type { %"class.std::exception", %"struct.std::__cow_string" }
%"class.std::exception" = type { ptr }
%"struct.std::__cow_string" = type { %union.anon.70 }
%union.anon.70 = type { ptr }
%"class.std::_Sp_counted_ptr_inplace" = type { %"class.std::_Sp_counted_base", %"class.std::_Sp_counted_ptr_inplace<std::__detail::_NFA<std::__cxx11::regex_traits<char>>, std::allocator<void>, __gnu_cxx::_S_atomic>::_Impl" }
%"class.std::_Sp_counted_ptr_inplace<std::__detail::_NFA<std::__cxx11::regex_traits<char>>, std::allocator<void>, __gnu_cxx::_S_atomic>::_Impl" = type { %"struct.__gnu_cxx::__aligned_buffer" }
%"struct.__gnu_cxx::__aligned_buffer" = type { %"union.std::aligned_storage<88, 8>::type" }
%"union.std::aligned_storage<88, 8>::type" = type { [88 x i8] }
%"class.std::type_info" = type { ptr, ptr }
%"class.std::stack.163" = type { %"class.std::deque.164" }
%"class.std::deque.164" = type { %"class.std::_Deque_base.165" }
%"class.std::_Deque_base.165" = type { %"struct.std::_Deque_base<long, std::allocator<long>>::_Deque_impl" }
%"struct.std::_Deque_base<long, std::allocator<long>>::_Deque_impl" = type { %"struct.std::_Deque_base<long, std::allocator<long>>::_Deque_impl_data" }
%"struct.std::_Deque_base<long, std::allocator<long>>::_Deque_impl_data" = type { ptr, i64, %"struct.std::_Deque_iterator.166", %"struct.std::_Deque_iterator.166" }
%"struct.std::_Deque_iterator.166" = type { ptr, ptr, ptr, ptr }
%"class.std::function" = type { %"class.std::_Function_base", ptr }
%"class.std::_Function_base" = type { %"union.std::_Any_data", ptr }
%"union.std::_Any_data" = type { %"union.std::_Nocopy_types" }
%"union.std::_Nocopy_types" = type { { i64, i64 } }
%"struct.std::__detail::_BracketMatcher" = type { %"class.std::vector.108", %"class.std::vector.5", %"class.std::vector.110", %"class.std::vector.115", %"struct.std::__cxx11::regex_traits<char>::_RegexMask", %"class.std::__detail::_RegexTranslator", ptr, i8, %"class.std::bitset" }
%"class.std::vector.108" = type { %"struct.std::_Vector_base.109" }
%"struct.std::_Vector_base.109" = type { %"struct.std::_Vector_base<char, std::allocator<char>>::_Vector_impl" }
%"struct.std::_Vector_base<char, std::allocator<char>>::_Vector_impl" = type { %"struct.std::_Vector_base<char, std::allocator<char>>::_Vector_impl_data" }
%"struct.std::_Vector_base<char, std::allocator<char>>::_Vector_impl_data" = type { ptr, ptr, ptr }
%"class.std::vector.110" = type { %"struct.std::_Vector_base.111" }
%"struct.std::_Vector_base.111" = type { %"struct.std::_Vector_base<std::pair<char, char>, std::allocator<std::pair<char, char>>>::_Vector_impl" }
%"struct.std::_Vector_base<std::pair<char, char>, std::allocator<std::pair<char, char>>>::_Vector_impl" = type { %"struct.std::_Vector_base<std::pair<char, char>, std::allocator<std::pair<char, char>>>::_Vector_impl_data" }
%"struct.std::_Vector_base<std::pair<char, char>, std::allocator<std::pair<char, char>>>::_Vector_impl_data" = type { ptr, ptr, ptr }
%"class.std::vector.115" = type { %"struct.std::_Vector_base.116" }
%"struct.std::_Vector_base.116" = type { %"struct.std::_Vector_base<std::__cxx11::regex_traits<char>::_RegexMask, std::allocator<std::__cxx11::regex_traits<char>::_RegexMask>>::_Vector_impl" }
%"struct.std::_Vector_base<std::__cxx11::regex_traits<char>::_RegexMask, std::allocator<std::__cxx11::regex_traits<char>::_RegexMask>>::_Vector_impl" = type { %"struct.std::_Vector_base<std::__cxx11::regex_traits<char>::_RegexMask, std::allocator<std::__cxx11::regex_traits<char>::_RegexMask>>::_Vector_impl_data" }
%"struct.std::_Vector_base<std::__cxx11::regex_traits<char>::_RegexMask, std::allocator<std::__cxx11::regex_traits<char>::_RegexMask>>::_Vector_impl_data" = type { ptr, ptr, ptr }
%"struct.std::__cxx11::regex_traits<char>::_RegexMask" = type <{ i16, i8, i8 }>
%"class.std::__detail::_RegexTranslator" = type { i8 }
%"class.std::bitset" = type { %"struct.std::_Base_bitset" }
%"struct.std::_Base_bitset" = type { [4 x i64] }
%"struct.std::__detail::_BracketMatcher.132" = type { %"class.std::vector.108", %"class.std::vector.5", %"class.std::vector.133", %"class.std::vector.115", %"struct.std::__cxx11::regex_traits<char>::_RegexMask", %"class.std::__detail::_RegexTranslator.92", ptr, i8, %"class.std::bitset" }
%"class.std::vector.133" = type { %"struct.std::_Vector_base.134" }
%"struct.std::_Vector_base.134" = type { %"struct.std::_Vector_base<std::pair<std::__cxx11::basic_string<char>, std::__cxx11::basic_string<char>>, std::allocator<std::pair<std::__cxx11::basic_string<char>, std::__cxx11::basic_string<char>>>>::_Vector_impl" }
%"struct.std::_Vector_base<std::pair<std::__cxx11::basic_string<char>, std::__cxx11::basic_string<char>>, std::allocator<std::pair<std::__cxx11::basic_string<char>, std::__cxx11::basic_string<char>>>>::_Vector_impl" = type { %"struct.std::_Vector_base<std::pair<std::__cxx11::basic_string<char>, std::__cxx11::basic_string<char>>, std::allocator<std::pair<std::__cxx11::basic_string<char>, std::__cxx11::basic_string<char>>>>::_Vector_impl_data" }
%"struct.std::_Vector_base<std::pair<std::__cxx11::basic_string<char>, std::__cxx11::basic_string<char>>, std::allocator<std::pair<std::__cxx11::basic_string<char>, std::__cxx11::basic_string<char>>>>::_Vector_impl_data" = type { ptr, ptr, ptr }
%"class.std::__detail::_RegexTranslator.92" = type { %"class.std::__detail::_RegexTranslatorBase" }
%"class.std::__detail::_RegexTranslatorBase" = type { ptr }
%"struct.std::__detail::_BracketMatcher.145" = type { %"class.std::vector.108", %"class.std::vector.5", %"class.std::vector.110", %"class.std::vector.115", %"struct.std::__cxx11::regex_traits<char>::_RegexMask", %"class.std::__detail::_RegexTranslator.94", ptr, i8, %"class.std::bitset" }
%"class.std::__detail::_RegexTranslator.94" = type { %"class.std::__detail::_RegexTranslatorBase.95" }
%"class.std::__detail::_RegexTranslatorBase.95" = type { ptr }
%"struct.std::__detail::_BracketMatcher.148" = type { %"class.std::vector.108", %"class.std::vector.5", %"class.std::vector.133", %"class.std::vector.115", %"struct.std::__cxx11::regex_traits<char>::_RegexMask", %"class.std::__detail::_RegexTranslator.97", ptr, i8, %"class.std::bitset" }
%"class.std::__detail::_RegexTranslator.97" = type { %"class.std::__detail::_RegexTranslatorBase.98" }
%"class.std::__detail::_RegexTranslatorBase.98" = type { ptr }
%"struct.std::__detail::_CharMatcher" = type { %"class.std::__detail::_RegexTranslator", i8 }
%"struct.std::__detail::_CharMatcher.103" = type <{ %"class.std::__detail::_RegexTranslator.92", i8, [7 x i8] }>
%"struct.std::__detail::_CharMatcher.104" = type <{ %"class.std::__detail::_RegexTranslator.94", i8, [7 x i8] }>
%"struct.std::__detail::_CharMatcher.106" = type <{ %"class.std::__detail::_RegexTranslator.97", i8, [7 x i8] }>
%"class.std::__cxx11::basic_istringstream" = type { %"class.std::basic_istream.base", %"class.std::__cxx11::basic_stringbuf", %"class.std::basic_ios" }
%"class.std::basic_istream.base" = type { ptr, i64 }
%"class.std::__cxx11::basic_stringbuf" = type { %"class.std::basic_streambuf", i32, %"class.std::__cxx11::basic_string" }
%"class.std::basic_streambuf" = type { ptr, ptr, ptr, ptr, ptr, ptr, ptr, %"class.std::locale" }
%"class.std::basic_istream" = type { ptr, i64, %"class.std::basic_ios" }
%class.anon.126 = type <{ ptr, i8, [7 x i8] }>
%"struct.std::pair.120" = type <{ ptr, %"struct.std::__cxx11::regex_traits<char>::_RegexMask", [4 x i8] }>
%"struct.__gnu_cxx::__ops::_Iter_less_iter" = type { i8 }
%class.anon.140 = type <{ ptr, i8, [7 x i8] }>
%"struct.std::pair.138" = type { %"class.std::__cxx11::basic_string", %"class.std::__cxx11::basic_string" }
%class.anon.146 = type <{ ptr, i8, [7 x i8] }>
%class.anon.149 = type <{ ptr, i8, [7 x i8] }>
%"struct.std::__detail::_Compiler<std::__cxx11::regex_traits<char>>::_BracketState" = type { i8, i8 }
%class.anon.151 = type { ptr, ptr }
%class.anon.152 = type { ptr, ptr }
%class.anon.155 = type { ptr, ptr }
%class.anon.156 = type { ptr, ptr }
%"class.std::map.167" = type { %"class.std::_Rb_tree.168" }
%"class.std::_Rb_tree.168" = type { %"struct.std::_Rb_tree<long, std::pair<const long, long>, std::_Select1st<std::pair<const long, long>>, std::less<long>>::_Rb_tree_impl" }
%"struct.std::_Rb_tree<long, std::pair<const long, long>, std::_Select1st<std::pair<const long, long>>, std::less<long>>::_Rb_tree_impl" = type { %"struct.std::_Rb_tree_key_compare.172", %"struct.std::_Rb_tree_header" }
%"struct.std::_Rb_tree_key_compare.172" = type { %"struct.std::less.173" }
%"struct.std::less.173" = type { i8 }
%"struct.std::_Rb_tree_node" = type { %"struct.std::_Rb_tree_node_base", %"struct.__gnu_cxx::__aligned_membuf.181" }
%"struct.__gnu_cxx::__aligned_membuf.181" = type { [16 x i8] }
%"class.std::__cxx11::sub_match" = type <{ %"struct.std::pair.195", i8, [7 x i8] }>
%"struct.std::pair.195" = type { %"class.__gnu_cxx::__normal_iterator.189", %"class.__gnu_cxx::__normal_iterator.189" }
%"class.std::__detail::_Executor" = type <{ %"class.std::vector.190", %"class.__gnu_cxx::__normal_iterator.189", %"class.__gnu_cxx::__normal_iterator.189", %"class.__gnu_cxx::__normal_iterator.189", ptr, ptr, ptr, %"class.std::vector.197", %"struct.std::__detail::_Executor<__gnu_cxx::__normal_iterator<const char *, std::__cxx11::basic_string<char>>, std::allocator<std::__cxx11::sub_match<__gnu_cxx::__normal_iterator<const char *, std::__cxx11::basic_string<char>>>>, std::__cxx11::regex_traits<char>, false>::_State_info", i32, i8, [3 x i8] }>
%"class.std::vector.197" = type { %"struct.std::_Vector_base.198" }
%"struct.std::_Vector_base.198" = type { %"struct.std::_Vector_base<std::pair<__gnu_cxx::__normal_iterator<const char *, std::__cxx11::basic_string<char>>, int>, std::allocator<std::pair<__gnu_cxx::__normal_iterator<const char *, std::__cxx11::basic_string<char>>, int>>>::_Vector_impl" }
%"struct.std::_Vector_base<std::pair<__gnu_cxx::__normal_iterator<const char *, std::__cxx11::basic_string<char>>, int>, std::allocator<std::pair<__gnu_cxx::__normal_iterator<const char *, std::__cxx11::basic_string<char>>, int>>>::_Vector_impl" = type { %"struct.std::_Vector_base<std::pair<__gnu_cxx::__normal_iterator<const char *, std::__cxx11::basic_string<char>>, int>, std::allocator<std::pair<__gnu_cxx::__normal_iterator<const char *, std::__cxx11::basic_string<char>>, int>>>::_Vector_impl_data" }
%"struct.std::_Vector_base<std::pair<__gnu_cxx::__normal_iterator<const char *, std::__cxx11::basic_string<char>>, int>, std::allocator<std::pair<__gnu_cxx::__normal_iterator<const char *, std::__cxx11::basic_string<char>>, int>>>::_Vector_impl_data" = type { ptr, ptr, ptr }
%"struct.std::__detail::_Executor<__gnu_cxx::__normal_iterator<const char *, std::__cxx11::basic_string<char>>, std::allocator<std::__cxx11::sub_match<__gnu_cxx::__normal_iterator<const char *, std::__cxx11::basic_string<char>>>>, std::__cxx11::regex_traits<char>, false>::_State_info" = type { %"class.std::vector.205", ptr, i64 }
%"class.std::vector.205" = type { %"struct.std::_Vector_base.206" }
%"struct.std::_Vector_base.206" = type { %"struct.std::_Vector_base<std::pair<long, std::vector<std::__cxx11::sub_match<__gnu_cxx::__normal_iterator<const char *, std::__cxx11::basic_string<char>>>>>, std::allocator<std::pair<long, std::vector<std::__cxx11::sub_match<__gnu_cxx::__normal_iterator<const char *, std::__cxx11::basic_string<char>>>>>>>::_Vector_impl" }
%"struct.std::_Vector_base<std::pair<long, std::vector<std::__cxx11::sub_match<__gnu_cxx::__normal_iterator<const char *, std::__cxx11::basic_string<char>>>>>, std::allocator<std::pair<long, std::vector<std::__cxx11::sub_match<__gnu_cxx::__normal_iterator<const char *, std::__cxx11::basic_string<char>>>>>>>::_Vector_impl" = type { %"struct.std::_Vector_base<std::pair<long, std::vector<std::__cxx11::sub_match<__gnu_cxx::__normal_iterator<const char *, std::__cxx11::basic_string<char>>>>>, std::allocator<std::pair<long, std::vector<std::__cxx11::sub_match<__gnu_cxx::__normal_iterator<const char *, std::__cxx11::basic_string<char>>>>>>>::_Vector_impl_data" }
%"struct.std::_Vector_base<std::pair<long, std::vector<std::__cxx11::sub_match<__gnu_cxx::__normal_iterator<const char *, std::__cxx11::basic_string<char>>>>>, std::allocator<std::pair<long, std::vector<std::__cxx11::sub_match<__gnu_cxx::__normal_iterator<const char *, std::__cxx11::basic_string<char>>>>>>>::_Vector_impl_data" = type { ptr, ptr, ptr }
%"class.std::__detail::_Executor.212" = type <{ %"class.std::vector.190", %"class.__gnu_cxx::__normal_iterator.189", %"class.__gnu_cxx::__normal_iterator.189", %"class.__gnu_cxx::__normal_iterator.189", ptr, ptr, ptr, %"class.std::vector.197", %"struct.std::__detail::_Executor<__gnu_cxx::__normal_iterator<const char *, std::__cxx11::basic_string<char>>, std::allocator<std::__cxx11::sub_match<__gnu_cxx::__normal_iterator<const char *, std::__cxx11::basic_string<char>>>>, std::__cxx11::regex_traits<char>, true>::_State_info", i32, i8, [3 x i8] }>
%"struct.std::__detail::_Executor<__gnu_cxx::__normal_iterator<const char *, std::__cxx11::basic_string<char>>, std::allocator<std::__cxx11::sub_match<__gnu_cxx::__normal_iterator<const char *, std::__cxx11::basic_string<char>>>>, std::__cxx11::regex_traits<char>, true>::_State_info" = type { i64, %"class.__gnu_cxx::__normal_iterator.189" }
%"struct.std::pair.210" = type { i64, %"class.std::vector.190" }
%"struct.std::pair.202" = type <{ %"class.__gnu_cxx::__normal_iterator.189", i32, [4 x i8] }>
%"struct.std::__detail::_Backref_matcher" = type { i8, ptr }
%"struct.std::_Rb_tree_node.219" = type { %"struct.std::_Rb_tree_node_base", %"struct.__gnu_cxx::__aligned_membuf.220" }
%"struct.__gnu_cxx::__aligned_membuf.220" = type { [48 x i8] }

$_ZN9benchmark8internal17BenchmarkFamiliesD2Ev = comdat any

$_ZN9benchmark5Regex4InitERKNSt7__cxx1112basic_stringIcSt11char_traitsIcESaIcEEEPS6_ = comdat any

$_ZNSt6vectorIN9benchmark8internal17BenchmarkInstanceESaIS2_EE7reserveEm = comdat any

$_ZN9benchmark8internal17BenchmarkInstanceD2Ev = comdat any

$_ZNSt6vectorIN9benchmark8internal10StatisticsESaIS2_EED2Ev = comdat any

$_ZNSt6vectorIS_IlSaIlEESaIS1_EED2Ev = comdat any

$_ZNSt6vectorINSt7__cxx1112basic_stringIcSt11char_traitsIcESaIcEEESaIS5_EED2Ev = comdat any

$_ZN9benchmark8internal8AddRangeIlEEvPSt6vectorIT_SaIS3_EES3_S3_i = comdat any

$_ZNSt6vectorINSt7__cxx1112basic_stringIcSt11char_traitsIcESaIcEEESaIS5_EEaSERKS7_ = comdat any

$_ZN9benchmark8internal8AddRangeIiEEvPSt6vectorIT_SaIS3_EES3_S3_i = comdat any

$_ZN9benchmark8internal17FunctionBenchmarkD0Ev = comdat any

$__clang_call_terminate = comdat any

$_ZNSt7__cxx1111basic_regexIcNS_12regex_traitsIcEEE10_M_compileEPKcS5_NSt15regex_constants18syntax_option_typeE = comdat any

$_ZNSt12__shared_ptrIKNSt8__detail4_NFAINSt7__cxx1112regex_traitsIcEEEELN9__gnu_cxx12_Lock_policyE2EED2Ev = comdat any

$_ZNSt8__detail9_CompilerINSt7__cxx1112regex_traitsIcEEEC2EPKcS6_RKSt6localeNSt15regex_constants18syntax_option_typeE = comdat any

$_ZNSt8__detail8_ScannerIcEC2EPKcS3_NSt15regex_constants18syntax_option_typeESt6locale = comdat any

$_ZNSt8__detail4_NFAINSt7__cxx1112regex_traitsIcEEE23_M_insert_subexpr_beginEv = comdat any

$_ZNSt8__detail9_CompilerINSt7__cxx1112regex_traitsIcEEE14_M_disjunctionEv = comdat any

$_ZNSt8__detail9_CompilerINSt7__cxx1112regex_traitsIcEEE14_M_match_tokenENS_12_ScannerBase7_TokenTE = comdat any

$_ZNSt8__detail4_NFAINSt7__cxx1112regex_traitsIcEEE21_M_insert_subexpr_endEv = comdat any

$_ZNSt8__detail4_NFAINSt7__cxx1112regex_traitsIcEEE16_M_insert_acceptEv = comdat any

$_ZNSt5stackINSt8__detail9_StateSeqINSt7__cxx1112regex_traitsIcEEEESt5dequeIS5_SaIS5_EEED2Ev = comdat any

$_ZNSt12__shared_ptrINSt8__detail4_NFAINSt7__cxx1112regex_traitsIcEEEELN9__gnu_cxx12_Lock_policyE2EED2Ev = comdat any

$_ZSt19__throw_regex_errorNSt15regex_constants10error_typeEPKc = comdat any

$_ZNSt11regex_errorC2ENSt15regex_constants10error_typeEPKc = comdat any

$_ZNSt8__detail12_ScannerBaseC2ENSt15regex_constants18syntax_option_typeE = comdat any

$_ZNSt8__detail8_ScannerIcE18_M_eat_escape_ecmaEv = comdat any

$_ZNSt8__detail8_ScannerIcE19_M_eat_escape_posixEv = comdat any

$_ZNSt8__detail8_ScannerIcE17_M_eat_escape_awkEv = comdat any

$_ZNSt8__detail8_ScannerIcE14_M_scan_normalEv = comdat any

$_ZNSt8__detail8_ScannerIcE18_M_scan_in_bracketEv = comdat any

$_ZNSt8__detail8_ScannerIcE16_M_scan_in_braceEv = comdat any

$_ZNSt8__detail8_ScannerIcE12_M_eat_classEc = comdat any

$_ZNSt14__shared_countILN9__gnu_cxx12_Lock_policyE2EEC2INSt8__detail4_NFAINSt7__cxx1112regex_traitsIcEEEESaIvEJRKSt6localeRNSt15regex_constants18syntax_option_typeEEEERPT_St20_Sp_alloc_shared_tagIT0_EDpOT1_ = comdat any

$_ZNSt16_Sp_counted_baseILN9__gnu_cxx12_Lock_policyE2EED2Ev = comdat any

$_ZNSt23_Sp_counted_ptr_inplaceINSt8__detail4_NFAINSt7__cxx1112regex_traitsIcEEEESaIvELN9__gnu_cxx12_Lock_policyE2EED0Ev = comdat any

$_ZNSt23_Sp_counted_ptr_inplaceINSt8__detail4_NFAINSt7__cxx1112regex_traitsIcEEEESaIvELN9__gnu_cxx12_Lock_policyE2EE10_M_disposeEv = comdat any

$_ZNSt23_Sp_counted_ptr_inplaceINSt8__detail4_NFAINSt7__cxx1112regex_traitsIcEEEESaIvELN9__gnu_cxx12_Lock_policyE2EE10_M_destroyEv = comdat any

$_ZNSt23_Sp_counted_ptr_inplaceINSt8__detail4_NFAINSt7__cxx1112regex_traitsIcEEEESaIvELN9__gnu_cxx12_Lock_policyE2EE14_M_get_deleterERKSt9type_info = comdat any

$_ZNSt8__detail6_StateIcED2Ev = comdat any

$_ZNSt11_Deque_baseINSt8__detail9_StateSeqINSt7__cxx1112regex_traitsIcEEEESaIS5_EE17_M_initialize_mapEm = comdat any

$_ZNSt6vectorINSt8__detail6_StateIcEESaIS2_EE17_M_realloc_insertIJS2_EEEvN9__gnu_cxx17__normal_iteratorIPS2_S4_EEDpOT_ = comdat any

$_ZNSt8__detail9_CompilerINSt7__cxx1112regex_traitsIcEEE14_M_alternativeEv = comdat any

$_ZNSt8__detail4_NFAINSt7__cxx1112regex_traitsIcEEE15_M_insert_dummyEv = comdat any

$_ZNSt8__detail4_NFAINSt7__cxx1112regex_traitsIcEEE13_M_insert_altEllb = comdat any

$_ZNSt8__detail9_CompilerINSt7__cxx1112regex_traitsIcEEE12_M_assertionEv = comdat any

$_ZNSt8__detail9_CompilerINSt7__cxx1112regex_traitsIcEEE7_M_atomEv = comdat any

$_ZNSt8__detail9_CompilerINSt7__cxx1112regex_traitsIcEEE13_M_quantifierEv = comdat any

$_ZNSt8__detail4_NFAINSt7__cxx1112regex_traitsIcEEE20_M_insert_line_beginEv = comdat any

$_ZNSt8__detail4_NFAINSt7__cxx1112regex_traitsIcEEE18_M_insert_line_endEv = comdat any

$_ZNSt8__detail4_NFAINSt7__cxx1112regex_traitsIcEEE20_M_insert_word_boundEb = comdat any

$_ZNSt8__detail4_NFAINSt7__cxx1112regex_traitsIcEEE19_M_insert_lookaheadElb = comdat any

$_ZNSt8__detail9_CompilerINSt7__cxx1112regex_traitsIcEEE27_M_insert_any_matcher_posixILb0ELb0EEEvv = comdat any

$_ZNSt8__detail9_CompilerINSt7__cxx1112regex_traitsIcEEE27_M_insert_any_matcher_posixILb0ELb1EEEvv = comdat any

$_ZNSt8__detail9_CompilerINSt7__cxx1112regex_traitsIcEEE27_M_insert_any_matcher_posixILb1ELb0EEEvv = comdat any

$_ZNSt8__detail9_CompilerINSt7__cxx1112regex_traitsIcEEE27_M_insert_any_matcher_posixILb1ELb1EEEvv = comdat any

$_ZNSt8__detail9_CompilerINSt7__cxx1112regex_traitsIcEEE26_M_insert_any_matcher_ecmaILb0ELb0EEEvv = comdat any

$_ZNSt8__detail9_CompilerINSt7__cxx1112regex_traitsIcEEE26_M_insert_any_matcher_ecmaILb0ELb1EEEvv = comdat any

$_ZNSt8__detail9_CompilerINSt7__cxx1112regex_traitsIcEEE26_M_insert_any_matcher_ecmaILb1ELb0EEEvv = comdat any

$_ZNSt8__detail9_CompilerINSt7__cxx1112regex_traitsIcEEE26_M_insert_any_matcher_ecmaILb1ELb1EEEvv = comdat any

$_ZNSt8__detail9_CompilerINSt7__cxx1112regex_traitsIcEEE11_M_try_charEv = comdat any

$_ZNSt8__detail9_CompilerINSt7__cxx1112regex_traitsIcEEE22_M_insert_char_matcherILb0ELb0EEEvv = comdat any

$_ZNSt8__detail9_CompilerINSt7__cxx1112regex_traitsIcEEE22_M_insert_char_matcherILb0ELb1EEEvv = comdat any

$_ZNSt8__detail9_CompilerINSt7__cxx1112regex_traitsIcEEE22_M_insert_char_matcherILb1ELb0EEEvv = comdat any

$_ZNSt8__detail9_CompilerINSt7__cxx1112regex_traitsIcEEE22_M_insert_char_matcherILb1ELb1EEEvv = comdat any

$_ZNSt8__detail4_NFAINSt7__cxx1112regex_traitsIcEEE17_M_insert_backrefEm = comdat any

$_ZNSt8__detail9_CompilerINSt7__cxx1112regex_traitsIcEEE16_M_cur_int_valueEi = comdat any

$_ZNSt8__detail9_CompilerINSt7__cxx1112regex_traitsIcEEE33_M_insert_character_class_matcherILb0ELb0EEEvv = comdat any

$_ZNSt8__detail9_CompilerINSt7__cxx1112regex_traitsIcEEE33_M_insert_character_class_matcherILb0ELb1EEEvv = comdat any

$_ZNSt8__detail9_CompilerINSt7__cxx1112regex_traitsIcEEE33_M_insert_character_class_matcherILb1ELb0EEEvv = comdat any

$_ZNSt8__detail9_CompilerINSt7__cxx1112regex_traitsIcEEE33_M_insert_character_class_matcherILb1ELb1EEEvv = comdat any

$_ZNSt8__detail9_CompilerINSt7__cxx1112regex_traitsIcEEE21_M_bracket_expressionEv = comdat any

$_ZNSt8__detail4_NFAINSt7__cxx1112regex_traitsIcEEE17_M_insert_matcherESt8functionIFbcEE = comdat any

$_ZNSt17_Function_handlerIFbcENSt8__detail11_AnyMatcherINSt7__cxx1112regex_traitsIcEELb0ELb0ELb0EEEE9_M_invokeERKSt9_Any_dataOc = comdat any

$_ZNSt17_Function_handlerIFbcENSt8__detail11_AnyMatcherINSt7__cxx1112regex_traitsIcEELb0ELb0ELb0EEEE10_M_managerERSt9_Any_dataRKS8_St18_Manager_operation = comdat any

$_ZNSt17_Function_handlerIFbcENSt8__detail11_AnyMatcherINSt7__cxx1112regex_traitsIcEELb0ELb0ELb1EEEE9_M_invokeERKSt9_Any_dataOc = comdat any

$_ZNSt17_Function_handlerIFbcENSt8__detail11_AnyMatcherINSt7__cxx1112regex_traitsIcEELb0ELb0ELb1EEEE10_M_managerERSt9_Any_dataRKS8_St18_Manager_operation = comdat any

$_ZNSt17_Function_handlerIFbcENSt8__detail11_AnyMatcherINSt7__cxx1112regex_traitsIcEELb0ELb1ELb0EEEE9_M_invokeERKSt9_Any_dataOc = comdat any

$_ZNSt17_Function_handlerIFbcENSt8__detail11_AnyMatcherINSt7__cxx1112regex_traitsIcEELb0ELb1ELb0EEEE10_M_managerERSt9_Any_dataRKS8_St18_Manager_operation = comdat any

$_ZSt13__invoke_implIbRNSt8__detail11_AnyMatcherINSt7__cxx1112regex_traitsIcEELb0ELb1ELb0EEEJcEET_St14__invoke_otherOT0_DpOT1_ = comdat any

$_ZNSt17_Function_handlerIFbcENSt8__detail11_AnyMatcherINSt7__cxx1112regex_traitsIcEELb0ELb1ELb1EEEE9_M_invokeERKSt9_Any_dataOc = comdat any

$_ZNSt17_Function_handlerIFbcENSt8__detail11_AnyMatcherINSt7__cxx1112regex_traitsIcEELb0ELb1ELb1EEEE10_M_managerERSt9_Any_dataRKS8_St18_Manager_operation = comdat any

$_ZSt13__invoke_implIbRNSt8__detail11_AnyMatcherINSt7__cxx1112regex_traitsIcEELb0ELb1ELb1EEEJcEET_St14__invoke_otherOT0_DpOT1_ = comdat any

$_ZNSt17_Function_handlerIFbcENSt8__detail11_AnyMatcherINSt7__cxx1112regex_traitsIcEELb1ELb0ELb0EEEE9_M_invokeERKSt9_Any_dataOc = comdat any

$_ZNSt17_Function_handlerIFbcENSt8__detail11_AnyMatcherINSt7__cxx1112regex_traitsIcEELb1ELb0ELb0EEEE10_M_managerERSt9_Any_dataRKS8_St18_Manager_operation = comdat any

$_ZNSt17_Function_handlerIFbcENSt8__detail11_AnyMatcherINSt7__cxx1112regex_traitsIcEELb1ELb0ELb1EEEE9_M_invokeERKSt9_Any_dataOc = comdat any

$_ZNSt17_Function_handlerIFbcENSt8__detail11_AnyMatcherINSt7__cxx1112regex_traitsIcEELb1ELb0ELb1EEEE10_M_managerERSt9_Any_dataRKS8_St18_Manager_operation = comdat any

$_ZNSt17_Function_handlerIFbcENSt8__detail11_AnyMatcherINSt7__cxx1112regex_traitsIcEELb1ELb1ELb0EEEE9_M_invokeERKSt9_Any_dataOc = comdat any

$_ZNSt17_Function_handlerIFbcENSt8__detail11_AnyMatcherINSt7__cxx1112regex_traitsIcEELb1ELb1ELb0EEEE10_M_managerERSt9_Any_dataRKS8_St18_Manager_operation = comdat any

$_ZNSt17_Function_handlerIFbcENSt8__detail11_AnyMatcherINSt7__cxx1112regex_traitsIcEELb1ELb1ELb1EEEE9_M_invokeERKSt9_Any_dataOc = comdat any

$_ZNSt17_Function_handlerIFbcENSt8__detail11_AnyMatcherINSt7__cxx1112regex_traitsIcEELb1ELb1ELb1EEEE10_M_managerERSt9_Any_dataRKS8_St18_Manager_operation = comdat any

$_ZNSt17_Function_handlerIFbcENSt8__detail12_CharMatcherINSt7__cxx1112regex_traitsIcEELb0ELb0EEEE9_M_invokeERKSt9_Any_dataOc = comdat any

$_ZNSt17_Function_handlerIFbcENSt8__detail12_CharMatcherINSt7__cxx1112regex_traitsIcEELb0ELb0EEEE10_M_managerERSt9_Any_dataRKS8_St18_Manager_operation = comdat any

$_ZNSt17_Function_handlerIFbcENSt8__detail12_CharMatcherINSt7__cxx1112regex_traitsIcEELb0ELb1EEEE9_M_invokeERKSt9_Any_dataOc = comdat any

$_ZNSt17_Function_handlerIFbcENSt8__detail12_CharMatcherINSt7__cxx1112regex_traitsIcEELb0ELb1EEEE10_M_managerERSt9_Any_dataRKS8_St18_Manager_operation = comdat any

$_ZNSt17_Function_handlerIFbcENSt8__detail12_CharMatcherINSt7__cxx1112regex_traitsIcEELb1ELb0EEEE9_M_invokeERKSt9_Any_dataOc = comdat any

$_ZNSt17_Function_handlerIFbcENSt8__detail12_CharMatcherINSt7__cxx1112regex_traitsIcEELb1ELb0EEEE10_M_managerERSt9_Any_dataRKS8_St18_Manager_operation = comdat any

$_ZNSt17_Function_handlerIFbcENSt8__detail12_CharMatcherINSt7__cxx1112regex_traitsIcEELb1ELb1EEEE9_M_invokeERKSt9_Any_dataOc = comdat any

$_ZNSt17_Function_handlerIFbcENSt8__detail12_CharMatcherINSt7__cxx1112regex_traitsIcEELb1ELb1EEEE10_M_managerERSt9_Any_dataRKS8_St18_Manager_operation = comdat any

$_ZNKSt7__cxx1112regex_traitsIcE5valueEci = comdat any

$_ZNSt8__detail15_BracketMatcherINSt7__cxx1112regex_traitsIcEELb0ELb0EE22_M_add_character_classERKNS1_12basic_stringIcSt11char_traitsIcESaIcEEEb = comdat any

$_ZNSt8__detail15_BracketMatcherINSt7__cxx1112regex_traitsIcEELb0ELb0EE8_M_readyEv = comdat any

$_ZNSt8__detail15_BracketMatcherINSt7__cxx1112regex_traitsIcEELb0ELb0EED2Ev = comdat any

$_ZNKSt7__cxx1112regex_traitsIcE16lookup_classnameIPKcEENS1_10_RegexMaskET_S6_b = comdat any

$_ZSt16__introsort_loopIN9__gnu_cxx17__normal_iteratorIPcSt6vectorIcSaIcEEEElNS0_5__ops15_Iter_less_iterEEvT_S9_T0_T1_ = comdat any

$_ZSt22__final_insertion_sortIN9__gnu_cxx17__normal_iteratorIPcSt6vectorIcSaIcEEEENS0_5__ops15_Iter_less_iterEEvT_S9_T0_ = comdat any

$_ZSt11__make_heapIN9__gnu_cxx17__normal_iteratorIPcSt6vectorIcSaIcEEEENS0_5__ops15_Iter_less_iterEEvT_S9_RT0_ = comdat any

$_ZZNKSt8__detail15_BracketMatcherINSt7__cxx1112regex_traitsIcEELb0ELb0EE8_M_applyEcSt17integral_constantIbLb0EEENKUlvE_clEv = comdat any

$_ZNKSt7__cxx1112regex_traitsIcE17transform_primaryIPKcEENS_12basic_stringIcSt11char_traitsIcESaIcEEET_SA_ = comdat any

$_ZSt9__find_ifIN9__gnu_cxx17__normal_iteratorIPKNSt7__cxx1112basic_stringIcSt11char_traitsIcESaIcEEESt6vectorIS7_SaIS7_EEEENS0_5__ops16_Iter_equals_valIS8_EEET_SH_SH_T0_St26random_access_iterator_tag = comdat any

$_ZNKSt7__cxx1112regex_traitsIcE9transformIPcEENS_12basic_stringIcSt11char_traitsIcESaIcEEET_S9_ = comdat any

$_ZNSt17_Function_handlerIFbcENSt8__detail15_BracketMatcherINSt7__cxx1112regex_traitsIcEELb0ELb0EEEE9_M_invokeERKSt9_Any_dataOc = comdat any

$_ZNSt17_Function_handlerIFbcENSt8__detail15_BracketMatcherINSt7__cxx1112regex_traitsIcEELb0ELb0EEEE10_M_managerERSt9_Any_dataRKS8_St18_Manager_operation = comdat any

$_ZNSt14_Function_base13_Base_managerINSt8__detail15_BracketMatcherINSt7__cxx1112regex_traitsIcEELb0ELb0EEEE10_M_destroyERSt9_Any_dataSt17integral_constantIbLb0EE = comdat any

$_ZNSt8__detail15_BracketMatcherINSt7__cxx1112regex_traitsIcEELb0ELb0EEC2ERKS4_ = comdat any

$_ZNSt6vectorINSt7__cxx1112basic_stringIcSt11char_traitsIcESaIcEEESaIS5_EEC2ERKS7_ = comdat any

$_ZSt16__do_uninit_copyIN9__gnu_cxx17__normal_iteratorIPKNSt7__cxx1112basic_stringIcSt11char_traitsIcESaIcEEESt6vectorIS7_SaIS7_EEEEPS7_ET0_T_SG_SF_ = comdat any

$_ZNSt8__detail15_BracketMatcherINSt7__cxx1112regex_traitsIcEELb0ELb1EE22_M_add_character_classERKNS1_12basic_stringIcSt11char_traitsIcESaIcEEEb = comdat any

$_ZNSt8__detail15_BracketMatcherINSt7__cxx1112regex_traitsIcEELb0ELb1EE8_M_readyEv = comdat any

$_ZNSt8__detail15_BracketMatcherINSt7__cxx1112regex_traitsIcEELb0ELb1EED2Ev = comdat any

$_ZNSt6vectorISt4pairINSt7__cxx1112basic_stringIcSt11char_traitsIcESaIcEEES6_ESaIS7_EED2Ev = comdat any

$_ZNSt4pairINSt7__cxx1112basic_stringIcSt11char_traitsIcESaIcEEES5_ED2Ev = comdat any

$_ZZNKSt8__detail15_BracketMatcherINSt7__cxx1112regex_traitsIcEELb0ELb1EE8_M_applyEcSt17integral_constantIbLb0EEENKUlvE_clEv = comdat any

$_ZNKSt7__cxx1112regex_traitsIcE9transformIN9__gnu_cxx17__normal_iteratorIPcNS_12basic_stringIcSt11char_traitsIcESaIcEEEEEEESA_T_SC_ = comdat any

$_ZNSt17_Function_handlerIFbcENSt8__detail15_BracketMatcherINSt7__cxx1112regex_traitsIcEELb0ELb1EEEE9_M_invokeERKSt9_Any_dataOc = comdat any

$_ZNSt17_Function_handlerIFbcENSt8__detail15_BracketMatcherINSt7__cxx1112regex_traitsIcEELb0ELb1EEEE10_M_managerERSt9_Any_dataRKS8_St18_Manager_operation = comdat any

$_ZNSt8__detail15_BracketMatcherINSt7__cxx1112regex_traitsIcEELb0ELb1EEC2ERKS4_ = comdat any

$_ZNSt6vectorISt4pairINSt7__cxx1112basic_stringIcSt11char_traitsIcESaIcEEES6_ESaIS7_EEC2ERKS9_ = comdat any

$_ZNSt20__uninitialized_copyILb0EE13__uninit_copyIN9__gnu_cxx17__normal_iteratorIPKSt4pairINSt7__cxx1112basic_stringIcSt11char_traitsIcESaIcEEESA_ESt6vectorISB_SaISB_EEEEPSB_EET0_T_SK_SJ_ = comdat any

$_ZNSt4pairINSt7__cxx1112basic_stringIcSt11char_traitsIcESaIcEEES5_EC2ERKS6_ = comdat any

$_ZNSt8__detail15_BracketMatcherINSt7__cxx1112regex_traitsIcEELb1ELb0EE22_M_add_character_classERKNS1_12basic_stringIcSt11char_traitsIcESaIcEEEb = comdat any

$_ZNSt8__detail15_BracketMatcherINSt7__cxx1112regex_traitsIcEELb1ELb0EE8_M_readyEv = comdat any

$_ZNSt8__detail15_BracketMatcherINSt7__cxx1112regex_traitsIcEELb1ELb0EED2Ev = comdat any

$_ZZNKSt8__detail15_BracketMatcherINSt7__cxx1112regex_traitsIcEELb1ELb0EE8_M_applyEcSt17integral_constantIbLb0EEENKUlvE_clEv = comdat any

$_ZNSt17_Function_handlerIFbcENSt8__detail15_BracketMatcherINSt7__cxx1112regex_traitsIcEELb1ELb0EEEE9_M_invokeERKSt9_Any_dataOc = comdat any

$_ZNSt17_Function_handlerIFbcENSt8__detail15_BracketMatcherINSt7__cxx1112regex_traitsIcEELb1ELb0EEEE10_M_managerERSt9_Any_dataRKS8_St18_Manager_operation = comdat any

$_ZNSt14_Function_base13_Base_managerINSt8__detail15_BracketMatcherINSt7__cxx1112regex_traitsIcEELb1ELb0EEEE10_M_destroyERSt9_Any_dataSt17integral_constantIbLb0EE = comdat any

$_ZNSt8__detail15_BracketMatcherINSt7__cxx1112regex_traitsIcEELb1ELb0EEC2ERKS4_ = comdat any

$_ZNSt8__detail15_BracketMatcherINSt7__cxx1112regex_traitsIcEELb1ELb1EE22_M_add_character_classERKNS1_12basic_stringIcSt11char_traitsIcESaIcEEEb = comdat any

$_ZNSt8__detail15_BracketMatcherINSt7__cxx1112regex_traitsIcEELb1ELb1EE8_M_readyEv = comdat any

$_ZNSt8__detail15_BracketMatcherINSt7__cxx1112regex_traitsIcEELb1ELb1EED2Ev = comdat any

$_ZZNKSt8__detail15_BracketMatcherINSt7__cxx1112regex_traitsIcEELb1ELb1EE8_M_applyEcSt17integral_constantIbLb0EEENKUlvE_clEv = comdat any

$_ZNSt17_Function_handlerIFbcENSt8__detail15_BracketMatcherINSt7__cxx1112regex_traitsIcEELb1ELb1EEEE9_M_invokeERKSt9_Any_dataOc = comdat any

$_ZNSt17_Function_handlerIFbcENSt8__detail15_BracketMatcherINSt7__cxx1112regex_traitsIcEELb1ELb1EEEE10_M_managerERSt9_Any_dataRKS8_St18_Manager_operation = comdat any

$_ZNSt8__detail15_BracketMatcherINSt7__cxx1112regex_traitsIcEELb1ELb1EEC2ERKS4_ = comdat any

$_ZNSt8__detail9_CompilerINSt7__cxx1112regex_traitsIcEEE25_M_insert_bracket_matcherILb0ELb0EEEvb = comdat any

$_ZNSt8__detail9_CompilerINSt7__cxx1112regex_traitsIcEEE25_M_insert_bracket_matcherILb0ELb1EEEvb = comdat any

$_ZNSt8__detail9_CompilerINSt7__cxx1112regex_traitsIcEEE25_M_insert_bracket_matcherILb1ELb0EEEvb = comdat any

$_ZNSt8__detail9_CompilerINSt7__cxx1112regex_traitsIcEEE25_M_insert_bracket_matcherILb1ELb1EEEvb = comdat any

$_ZNSt8__detail9_CompilerINSt7__cxx1112regex_traitsIcEEE18_M_expression_termILb0ELb0EEEbRNS4_13_BracketStateERNS_15_BracketMatcherIS3_XT_EXT0_EEE = comdat any

$_ZNSt8__detail15_BracketMatcherINSt7__cxx1112regex_traitsIcEELb0ELb0EE22_M_add_collate_elementERKNS1_12basic_stringIcSt11char_traitsIcESaIcEEE = comdat any

$_ZZNSt8__detail9_CompilerINSt7__cxx1112regex_traitsIcEEE18_M_expression_termILb0ELb0EEEbRNS4_13_BracketStateERNS_15_BracketMatcherIS3_XT_EXT0_EEEENKUlcE_clEc = comdat any

$_ZZNSt8__detail9_CompilerINSt7__cxx1112regex_traitsIcEEE18_M_expression_termILb0ELb0EEEbRNS4_13_BracketStateERNS_15_BracketMatcherIS3_XT_EXT0_EEEENKUlvE_clEv = comdat any

$_ZNSt8__detail15_BracketMatcherINSt7__cxx1112regex_traitsIcEELb0ELb0EE24_M_add_equivalence_classERKNS1_12basic_stringIcSt11char_traitsIcESaIcEEE = comdat any

$_ZNSt8__detail15_BracketMatcherINSt7__cxx1112regex_traitsIcEELb0ELb0EE13_M_make_rangeEcc = comdat any

$_ZNKSt7__cxx1112regex_traitsIcE18lookup_collatenameIPKcEENS_12basic_stringIcSt11char_traitsIcESaIcEEET_SA_ = comdat any

$_ZNSt6vectorINSt7__cxx1112basic_stringIcSt11char_traitsIcESaIcEEESaIS5_EE17_M_realloc_insertIJRKS5_EEEvN9__gnu_cxx17__normal_iteratorIPS5_S7_EEDpOT_ = comdat any

$_ZNSt8__detail9_CompilerINSt7__cxx1112regex_traitsIcEEE18_M_expression_termILb0ELb1EEEbRNS4_13_BracketStateERNS_15_BracketMatcherIS3_XT_EXT0_EEE = comdat any

$_ZNSt8__detail15_BracketMatcherINSt7__cxx1112regex_traitsIcEELb0ELb1EE22_M_add_collate_elementERKNS1_12basic_stringIcSt11char_traitsIcESaIcEEE = comdat any

$_ZZNSt8__detail9_CompilerINSt7__cxx1112regex_traitsIcEEE18_M_expression_termILb0ELb1EEEbRNS4_13_BracketStateERNS_15_BracketMatcherIS3_XT_EXT0_EEEENKUlcE_clEc = comdat any

$_ZZNSt8__detail9_CompilerINSt7__cxx1112regex_traitsIcEEE18_M_expression_termILb0ELb1EEEbRNS4_13_BracketStateERNS_15_BracketMatcherIS3_XT_EXT0_EEEENKUlvE_clEv = comdat any

$_ZNSt8__detail15_BracketMatcherINSt7__cxx1112regex_traitsIcEELb0ELb1EE24_M_add_equivalence_classERKNS1_12basic_stringIcSt11char_traitsIcESaIcEEE = comdat any

$_ZNSt8__detail15_BracketMatcherINSt7__cxx1112regex_traitsIcEELb0ELb1EE13_M_make_rangeEcc = comdat any

$_ZNSt6vectorISt4pairINSt7__cxx1112basic_stringIcSt11char_traitsIcESaIcEEES6_ESaIS7_EE17_M_realloc_insertIJS7_EEEvN9__gnu_cxx17__normal_iteratorIPS7_S9_EEDpOT_ = comdat any

$_ZNSt8__detail9_CompilerINSt7__cxx1112regex_traitsIcEEE18_M_expression_termILb1ELb0EEEbRNS4_13_BracketStateERNS_15_BracketMatcherIS3_XT_EXT0_EEE = comdat any

$_ZNSt8__detail15_BracketMatcherINSt7__cxx1112regex_traitsIcEELb1ELb0EE11_M_add_charEc = comdat any

$_ZNSt8__detail15_BracketMatcherINSt7__cxx1112regex_traitsIcEELb1ELb0EE22_M_add_collate_elementERKNS1_12basic_stringIcSt11char_traitsIcESaIcEEE = comdat any

$_ZNSt8__detail15_BracketMatcherINSt7__cxx1112regex_traitsIcEELb1ELb0EE24_M_add_equivalence_classERKNS1_12basic_stringIcSt11char_traitsIcESaIcEEE = comdat any

$_ZNSt8__detail15_BracketMatcherINSt7__cxx1112regex_traitsIcEELb1ELb0EE13_M_make_rangeEcc = comdat any

$_ZNSt8__detail9_CompilerINSt7__cxx1112regex_traitsIcEEE18_M_expression_termILb1ELb1EEEbRNS4_13_BracketStateERNS_15_BracketMatcherIS3_XT_EXT0_EEE = comdat any

$_ZNSt8__detail15_BracketMatcherINSt7__cxx1112regex_traitsIcEELb1ELb1EE11_M_add_charEc = comdat any

$_ZNSt8__detail15_BracketMatcherINSt7__cxx1112regex_traitsIcEELb1ELb1EE22_M_add_collate_elementERKNS1_12basic_stringIcSt11char_traitsIcESaIcEEE = comdat any

$_ZNSt8__detail15_BracketMatcherINSt7__cxx1112regex_traitsIcEELb1ELb1EE24_M_add_equivalence_classERKNS1_12basic_stringIcSt11char_traitsIcESaIcEEE = comdat any

$_ZNSt8__detail15_BracketMatcherINSt7__cxx1112regex_traitsIcEELb1ELb1EE13_M_make_rangeEcc = comdat any

$_ZNSt8__detail4_NFAINSt7__cxx1112regex_traitsIcEEE16_M_insert_repeatEllb = comdat any

$_ZNSt8__detail9_StateSeqINSt7__cxx1112regex_traitsIcEEE8_M_cloneEv = comdat any

$_ZNSt5stackIlSt5dequeIlSaIlEEED2Ev = comdat any

$_ZNSt3mapIllSt4lessIlESaISt4pairIKllEEEixERS3_ = comdat any

$_ZNSt3mapIllSt4lessIlESaISt4pairIKllEEED2Ev = comdat any

$_ZNSt8_Rb_treeIlSt4pairIKllESt10_Select1stIS2_ESt4lessIlESaIS2_EE29_M_get_insert_hint_unique_posESt23_Rb_tree_const_iteratorIS2_ERS1_ = comdat any

$_ZNSt8_Rb_treeIlSt4pairIKllESt10_Select1stIS2_ESt4lessIlESaIS2_EE8_M_eraseEPSt13_Rb_tree_nodeIS2_E = comdat any

$_ZNSt11_Deque_baseIlSaIlEE17_M_initialize_mapEm = comdat any

$_ZNSt5dequeIlSaIlEE16_M_push_back_auxIJRKlEEEvDpOT_ = comdat any

$_ZNSt5dequeIlSaIlEE17_M_reallocate_mapEmb = comdat any

$_ZNSt5dequeINSt8__detail9_StateSeqINSt7__cxx1112regex_traitsIcEEEESaIS5_EE16_M_push_back_auxIJRKS5_EEEvDpOT_ = comdat any

$_ZNSt5dequeINSt8__detail9_StateSeqINSt7__cxx1112regex_traitsIcEEEESaIS5_EE17_M_reallocate_mapEmb = comdat any

$_ZNSt5dequeINSt8__detail9_StateSeqINSt7__cxx1112regex_traitsIcEEEESaIS5_EE16_M_push_back_auxIJS5_EEEvDpOT_ = comdat any

$_ZNSt16_Sp_counted_baseILN9__gnu_cxx12_Lock_policyE2EE24_M_release_last_use_coldEv = comdat any

$_ZNSt8__detail17__regex_algo_implIN9__gnu_cxx17__normal_iteratorIPKcNSt7__cxx1112basic_stringIcSt11char_traitsIcESaIcEEEEESaINS5_9sub_matchISB_EEEcNS5_12regex_traitsIcEEEEbT_SH_RNS5_13match_resultsISH_T0_EERKNS5_11basic_regexIT1_T2_EENSt15regex_constants15match_flag_typeENS_20_RegexExecutorPolicyEb = comdat any

$_ZNSt8__detail9_ExecutorIN9__gnu_cxx17__normal_iteratorIPKcNSt7__cxx1112basic_stringIcSt11char_traitsIcESaIcEEEEESaINS5_9sub_matchISB_EEENS5_12regex_traitsIcEELb0EEC2ESB_SB_RSt6vectorISD_SE_ERKNS5_11basic_regexIcSG_EENSt15regex_constants15match_flag_typeE = comdat any

$_ZNSt8__detail9_ExecutorIN9__gnu_cxx17__normal_iteratorIPKcNSt7__cxx1112basic_stringIcSt11char_traitsIcESaIcEEEEESaINS5_9sub_matchISB_EEENS5_12regex_traitsIcEELb0EED2Ev = comdat any

$_ZNSt8__detail9_ExecutorIN9__gnu_cxx17__normal_iteratorIPKcNSt7__cxx1112basic_stringIcSt11char_traitsIcESaIcEEEEESaINS5_9sub_matchISB_EEENS5_12regex_traitsIcEELb1EE9_M_searchEv = comdat any

$_ZNSt8__detail9_ExecutorIN9__gnu_cxx17__normal_iteratorIPKcNSt7__cxx1112basic_stringIcSt11char_traitsIcESaIcEEEEESaINS5_9sub_matchISB_EEENS5_12regex_traitsIcEELb1EED2Ev = comdat any

$_ZNSt6vectorINSt7__cxx119sub_matchIN9__gnu_cxx17__normal_iteratorIPKcNS0_12basic_stringIcSt11char_traitsIcESaIcEEEEEEESaISC_EE14_M_fill_assignEmRKSC_ = comdat any

$_ZNSt6vectorISt4pairIlS_INSt7__cxx119sub_matchIN9__gnu_cxx17__normal_iteratorIPKcNS1_12basic_stringIcSt11char_traitsIcESaIcEEEEEEESaISD_EEESaISG_EED2Ev = comdat any

$_ZNSt8__detail9_ExecutorIN9__gnu_cxx17__normal_iteratorIPKcNSt7__cxx1112basic_stringIcSt11char_traitsIcESaIcEEEEESaINS5_9sub_matchISB_EEENS5_12regex_traitsIcEELb0EE16_M_main_dispatchENSH_11_Match_modeESt17integral_constantIbLb0EE = comdat any

$_ZNSt8__detail9_ExecutorIN9__gnu_cxx17__normal_iteratorIPKcNSt7__cxx1112basic_stringIcSt11char_traitsIcESaIcEEEEESaINS5_9sub_matchISB_EEENS5_12regex_traitsIcEELb0EE6_M_dfsENSH_11_Match_modeEl = comdat any

$_ZNSt6vectorISt4pairIlS_INSt7__cxx119sub_matchIN9__gnu_cxx17__normal_iteratorIPKcNS1_12basic_stringIcSt11char_traitsIcESaIcEEEEEEESaISD_EEESaISG_EE17_M_realloc_insertIJRlRKSF_EEEvNS4_IPSG_SI_EEDpOT_ = comdat any

$_ZNSt8__detail9_ExecutorIN9__gnu_cxx17__normal_iteratorIPKcNSt7__cxx1112basic_stringIcSt11char_traitsIcESaIcEEEEESaINS5_9sub_matchISB_EEENS5_12regex_traitsIcEELb0EE15_M_handle_matchENSH_11_Match_modeEl = comdat any

$_ZNSt8__detail9_ExecutorIN9__gnu_cxx17__normal_iteratorIPKcNSt7__cxx1112basic_stringIcSt11char_traitsIcESaIcEEEEESaINS5_9sub_matchISB_EEENS5_12regex_traitsIcEELb0EE17_M_handle_backrefENSH_11_Match_modeEl = comdat any

$_ZNSt8__detail9_ExecutorIN9__gnu_cxx17__normal_iteratorIPKcNSt7__cxx1112basic_stringIcSt11char_traitsIcESaIcEEEEESaINS5_9sub_matchISB_EEENS5_12regex_traitsIcEELb0EE16_M_rep_once_moreENSH_11_Match_modeEl = comdat any

$_ZNKSt8__detail9_ExecutorIN9__gnu_cxx17__normal_iteratorIPKcNSt7__cxx1112basic_stringIcSt11char_traitsIcESaIcEEEEESaINS5_9sub_matchISB_EEENS5_12regex_traitsIcEELb0EE11_M_at_beginEv = comdat any

$_ZNKSt8__detail9_ExecutorIN9__gnu_cxx17__normal_iteratorIPKcNSt7__cxx1112basic_stringIcSt11char_traitsIcESaIcEEEEESaINS5_9sub_matchISB_EEENS5_12regex_traitsIcEELb0EE9_M_at_endEv = comdat any

$_ZNKSt8__detail9_ExecutorIN9__gnu_cxx17__normal_iteratorIPKcNSt7__cxx1112basic_stringIcSt11char_traitsIcESaIcEEEEESaINS5_9sub_matchISB_EEENS5_12regex_traitsIcEELb0EE16_M_word_boundaryEv = comdat any

$_ZNSt8__detail9_ExecutorIN9__gnu_cxx17__normal_iteratorIPKcNSt7__cxx1112basic_stringIcSt11char_traitsIcESaIcEEEEESaINS5_9sub_matchISB_EEENS5_12regex_traitsIcEELb0EE12_M_lookaheadEl = comdat any

$_ZNSt8__detail16_Backref_matcherIN9__gnu_cxx17__normal_iteratorIPKcNSt7__cxx1112basic_stringIcSt11char_traitsIcESaIcEEEEENS5_12regex_traitsIcEEE8_M_applyESB_SB_SB_SB_ = comdat any

$_ZNSt6vectorINSt7__cxx119sub_matchIN9__gnu_cxx17__normal_iteratorIPKcNS0_12basic_stringIcSt11char_traitsIcESaIcEEEEEEESaISC_EEaSERKSE_ = comdat any

$_ZNSt8__detail9_ExecutorIN9__gnu_cxx17__normal_iteratorIPKcNSt7__cxx1112basic_stringIcSt11char_traitsIcESaIcEEEEESaINS5_9sub_matchISB_EEENS5_12regex_traitsIcEELb1EE6_M_dfsENSH_11_Match_modeEl = comdat any

$_ZNSt8__detail9_ExecutorIN9__gnu_cxx17__normal_iteratorIPKcNSt7__cxx1112basic_stringIcSt11char_traitsIcESaIcEEEEESaINS5_9sub_matchISB_EEENS5_12regex_traitsIcEELb1EE17_M_handle_backrefENSH_11_Match_modeEl = comdat any

$_ZNKSt8__detail9_ExecutorIN9__gnu_cxx17__normal_iteratorIPKcNSt7__cxx1112basic_stringIcSt11char_traitsIcESaIcEEEEESaINS5_9sub_matchISB_EEENS5_12regex_traitsIcEELb1EE11_M_at_beginEv = comdat any

$_ZNKSt8__detail9_ExecutorIN9__gnu_cxx17__normal_iteratorIPKcNSt7__cxx1112basic_stringIcSt11char_traitsIcESaIcEEEEESaINS5_9sub_matchISB_EEENS5_12regex_traitsIcEELb1EE9_M_at_endEv = comdat any

$_ZNKSt8__detail9_ExecutorIN9__gnu_cxx17__normal_iteratorIPKcNSt7__cxx1112basic_stringIcSt11char_traitsIcESaIcEEEEESaINS5_9sub_matchISB_EEENS5_12regex_traitsIcEELb1EE16_M_word_boundaryEv = comdat any

$_ZNSt8__detail9_ExecutorIN9__gnu_cxx17__normal_iteratorIPKcNSt7__cxx1112basic_stringIcSt11char_traitsIcESaIcEEEEESaINS5_9sub_matchISB_EEENS5_12regex_traitsIcEELb1EE12_M_lookaheadEl = comdat any

$_ZNSt8_Rb_treeINSt7__cxx1112basic_stringIcSt11char_traitsIcESaIcEEESt4pairIKS5_N9benchmark7CounterEESt10_Select1stISA_ESt4lessIS5_ESaISA_EE8_M_eraseEPSt13_Rb_tree_nodeISA_E = comdat any

$_ZNSt6vectorISt10unique_ptrIN9benchmark8internal9BenchmarkESt14default_deleteIS3_EESaIS6_EE17_M_realloc_insertIJS6_EEEvN9__gnu_cxx17__normal_iteratorIPS6_S8_EEDpOT_ = comdat any

$_ZNSt19__shrink_to_fit_auxISt6vectorISt10unique_ptrIN9benchmark8internal9BenchmarkESt14default_deleteIS4_EESaIS7_EELb1EE8_S_do_itERS9_ = comdat any

$_ZN9benchmark13BenchmarkNameC2EOS0_ = comdat any

$_ZNSt6vectorIN9benchmark8internal17BenchmarkInstanceESaIS2_EE17_M_realloc_insertIJS2_EEEvN9__gnu_cxx17__normal_iteratorIPS2_S4_EEDpOT_ = comdat any

$_ZNSt6vectorIS_IlSaIlEESaIS1_EE17_M_realloc_insertIJS1_EEEvN9__gnu_cxx17__normal_iteratorIPS1_S3_EEDpOT_ = comdat any

$_ZN9benchmark8internal16AddNegatedPowersIlEEvPSt6vectorIT_SaIS3_EES3_S3_i = comdat any

$_ZN9benchmark8internal9AddPowersIlEENSt6vectorIT_SaIS3_EE8iteratorEPS5_S3_S3_i = comdat any

$_ZNSt6vectorIS_IlSaIlEESaIS1_EE17_M_realloc_insertIJRKS1_EEEvN9__gnu_cxx17__normal_iteratorIPS1_S3_EEDpOT_ = comdat any

$_ZNSt6vectorINSt7__cxx1112basic_stringIcSt11char_traitsIcESaIcEEESaIS5_EE13_M_assign_auxIPKS5_EEvT_SB_St20forward_iterator_tag = comdat any

$_ZNSt6vectorINSt7__cxx1112basic_stringIcSt11char_traitsIcESaIcEEESaIS5_EE20_M_allocate_and_copyIPKS5_EEPS5_mT_SC_ = comdat any

$_ZSt16__do_uninit_copyIPKNSt7__cxx1112basic_stringIcSt11char_traitsIcESaIcEEEPS5_ET0_T_SA_S9_ = comdat any

$_ZNSt6vectorINSt7__cxx1112basic_stringIcSt11char_traitsIcESaIcEEESaIS5_EE20_M_allocate_and_copyIN9__gnu_cxx17__normal_iteratorIPKS5_S7_EEEEPS5_mT_SF_ = comdat any

$_ZSt16__do_uninit_copyIPNSt7__cxx1112basic_stringIcSt11char_traitsIcESaIcEEES6_ET0_T_S8_S7_ = comdat any

$_ZNSt6vectorIN9benchmark8internal10StatisticsESaIS2_EE17_M_realloc_insertIJRKNSt7__cxx1112basic_stringIcSt11char_traitsIcESaIcEEERPFdRKS_IdSaIdEEERNS0_13StatisticUnitEEEEvN9__gnu_cxx17__normal_iteratorIPS2_S4_EEDpOT_ = comdat any

$_ZN9benchmark8internal16AddNegatedPowersIiEEvPSt6vectorIT_SaIS3_EES3_S3_i = comdat any

$_ZN9benchmark8internal9AddPowersIiEENSt6vectorIT_SaIS3_EE8iteratorEPS5_S3_S3_i = comdat any

$_ZZN9benchmark8internal18GetNullLogInstanceEvE3log = comdat any

$_ZGVZN9benchmark8internal18GetNullLogInstanceEvE3log = comdat any

$_ZTVSt23_Sp_counted_ptr_inplaceINSt8__detail4_NFAINSt7__cxx1112regex_traitsIcEEEESaIvELN9__gnu_cxx12_Lock_policyE2EE = comdat any

$_ZTSSt23_Sp_counted_ptr_inplaceINSt8__detail4_NFAINSt7__cxx1112regex_traitsIcEEEESaIvELN9__gnu_cxx12_Lock_policyE2EE = comdat any

$_ZTSSt16_Sp_counted_baseILN9__gnu_cxx12_Lock_policyE2EE = comdat any

$_ZTSSt11_Mutex_baseILN9__gnu_cxx12_Lock_policyE2EE = comdat any

$_ZTISt11_Mutex_baseILN9__gnu_cxx12_Lock_policyE2EE = comdat any

$_ZTISt16_Sp_counted_baseILN9__gnu_cxx12_Lock_policyE2EE = comdat any

$_ZTISt23_Sp_counted_ptr_inplaceINSt8__detail4_NFAINSt7__cxx1112regex_traitsIcEEEESaIvELN9__gnu_cxx12_Lock_policyE2EE = comdat any

$_ZTSSt19_Sp_make_shared_tag = comdat any

$_ZZNSt19_Sp_make_shared_tag5_S_tiEvE5__tag = comdat any

$_ZZNKSt8__detail11_AnyMatcherINSt7__cxx1112regex_traitsIcEELb0ELb0ELb0EEclEcE5__nul = comdat any

$_ZGVZNKSt8__detail11_AnyMatcherINSt7__cxx1112regex_traitsIcEELb0ELb0ELb0EEclEcE5__nul = comdat any

$_ZTSNSt8__detail11_AnyMatcherINSt7__cxx1112regex_traitsIcEELb0ELb0ELb0EEE = comdat any

$_ZTINSt8__detail11_AnyMatcherINSt7__cxx1112regex_traitsIcEELb0ELb0ELb0EEE = comdat any

$_ZZNKSt8__detail11_AnyMatcherINSt7__cxx1112regex_traitsIcEELb0ELb0ELb1EEclEcE5__nul = comdat any

$_ZGVZNKSt8__detail11_AnyMatcherINSt7__cxx1112regex_traitsIcEELb0ELb0ELb1EEclEcE5__nul = comdat any

$_ZTSNSt8__detail11_AnyMatcherINSt7__cxx1112regex_traitsIcEELb0ELb0ELb1EEE = comdat any

$_ZTINSt8__detail11_AnyMatcherINSt7__cxx1112regex_traitsIcEELb0ELb0ELb1EEE = comdat any

$_ZZNKSt8__detail11_AnyMatcherINSt7__cxx1112regex_traitsIcEELb0ELb1ELb0EEclEcE5__nul = comdat any

$_ZGVZNKSt8__detail11_AnyMatcherINSt7__cxx1112regex_traitsIcEELb0ELb1ELb0EEclEcE5__nul = comdat any

$_ZTSNSt8__detail11_AnyMatcherINSt7__cxx1112regex_traitsIcEELb0ELb1ELb0EEE = comdat any

$_ZTINSt8__detail11_AnyMatcherINSt7__cxx1112regex_traitsIcEELb0ELb1ELb0EEE = comdat any

$_ZZNKSt8__detail11_AnyMatcherINSt7__cxx1112regex_traitsIcEELb0ELb1ELb1EEclEcE5__nul = comdat any

$_ZGVZNKSt8__detail11_AnyMatcherINSt7__cxx1112regex_traitsIcEELb0ELb1ELb1EEclEcE5__nul = comdat any

$_ZTSNSt8__detail11_AnyMatcherINSt7__cxx1112regex_traitsIcEELb0ELb1ELb1EEE = comdat any

$_ZTINSt8__detail11_AnyMatcherINSt7__cxx1112regex_traitsIcEELb0ELb1ELb1EEE = comdat any

$_ZTSNSt8__detail11_AnyMatcherINSt7__cxx1112regex_traitsIcEELb1ELb0ELb0EEE = comdat any

$_ZTINSt8__detail11_AnyMatcherINSt7__cxx1112regex_traitsIcEELb1ELb0ELb0EEE = comdat any

$_ZTSNSt8__detail11_AnyMatcherINSt7__cxx1112regex_traitsIcEELb1ELb0ELb1EEE = comdat any

$_ZTINSt8__detail11_AnyMatcherINSt7__cxx1112regex_traitsIcEELb1ELb0ELb1EEE = comdat any

$_ZTSNSt8__detail11_AnyMatcherINSt7__cxx1112regex_traitsIcEELb1ELb1ELb0EEE = comdat any

$_ZTINSt8__detail11_AnyMatcherINSt7__cxx1112regex_traitsIcEELb1ELb1ELb0EEE = comdat any

$_ZTSNSt8__detail11_AnyMatcherINSt7__cxx1112regex_traitsIcEELb1ELb1ELb1EEE = comdat any

$_ZTINSt8__detail11_AnyMatcherINSt7__cxx1112regex_traitsIcEELb1ELb1ELb1EEE = comdat any

$_ZTSNSt8__detail12_CharMatcherINSt7__cxx1112regex_traitsIcEELb0ELb0EEE = comdat any

$_ZTINSt8__detail12_CharMatcherINSt7__cxx1112regex_traitsIcEELb0ELb0EEE = comdat any

$_ZTSNSt8__detail12_CharMatcherINSt7__cxx1112regex_traitsIcEELb0ELb1EEE = comdat any

$_ZTINSt8__detail12_CharMatcherINSt7__cxx1112regex_traitsIcEELb0ELb1EEE = comdat any

$_ZTSNSt8__detail12_CharMatcherINSt7__cxx1112regex_traitsIcEELb1ELb0EEE = comdat any

$_ZTINSt8__detail12_CharMatcherINSt7__cxx1112regex_traitsIcEELb1ELb0EEE = comdat any

$_ZTSNSt8__detail12_CharMatcherINSt7__cxx1112regex_traitsIcEELb1ELb1EEE = comdat any

$_ZTINSt8__detail12_CharMatcherINSt7__cxx1112regex_traitsIcEELb1ELb1EEE = comdat any

$_ZZNKSt7__cxx1112regex_traitsIcE16lookup_classnameIPKcEENS1_10_RegexMaskET_S6_bE12__classnamesB5cxx11 = comdat any

$_ZTSNSt8__detail15_BracketMatcherINSt7__cxx1112regex_traitsIcEELb0ELb0EEE = comdat any

$_ZTINSt8__detail15_BracketMatcherINSt7__cxx1112regex_traitsIcEELb0ELb0EEE = comdat any

$_ZTSNSt8__detail15_BracketMatcherINSt7__cxx1112regex_traitsIcEELb0ELb1EEE = comdat any

$_ZTINSt8__detail15_BracketMatcherINSt7__cxx1112regex_traitsIcEELb0ELb1EEE = comdat any

$_ZTSNSt8__detail15_BracketMatcherINSt7__cxx1112regex_traitsIcEELb1ELb0EEE = comdat any

$_ZTINSt8__detail15_BracketMatcherINSt7__cxx1112regex_traitsIcEELb1ELb0EEE = comdat any

$_ZTSNSt8__detail15_BracketMatcherINSt7__cxx1112regex_traitsIcEELb1ELb1EEE = comdat any

$_ZTINSt8__detail15_BracketMatcherINSt7__cxx1112regex_traitsIcEELb1ELb1EEE = comdat any

$_ZZNKSt7__cxx1112regex_traitsIcE18lookup_collatenameIPKcEENS_12basic_stringIcSt11char_traitsIcESaIcEEET_SA_E14__collatenames = comdat any

$_ZZNKSt8__detail9_ExecutorIN9__gnu_cxx17__normal_iteratorIPKcNSt7__cxx1112basic_stringIcSt11char_traitsIcESaIcEEEEESaINS5_9sub_matchISB_EEENS5_12regex_traitsIcEELb0EE10_M_is_wordEcE3__s = comdat any

$_ZZNKSt8__detail9_ExecutorIN9__gnu_cxx17__normal_iteratorIPKcNSt7__cxx1112basic_stringIcSt11char_traitsIcESaIcEEEEESaINS5_9sub_matchISB_EEENS5_12regex_traitsIcEELb1EE10_M_is_wordEcE3__s = comdat any

@_ZStL8__ioinit = internal global %"class.std::ios_base::Init" zeroinitializer, align 1
@__dso_handle = external hidden global i8
@_ZZN9benchmark8internal17BenchmarkFamilies11GetInstanceEvE8instance = internal global %"class.benchmark::internal::BenchmarkFamilies" zeroinitializer, align 8
@_ZGVZN9benchmark8internal17BenchmarkFamilies11GetInstanceEvE8instance = internal global i64 0, align 8
@.str = private unnamed_addr constant [1 x i8] zeroinitializer, align 1
@.str.2 = private unnamed_addr constant [33 x i8] c"Could not compile benchmark re: \00", align 1
@.str.3 = private unnamed_addr constant [37 x i8] c"The number of inputs is very large. \00", align 1
@.str.4 = private unnamed_addr constant [28 x i8] c" will be repeated at least \00", align 1
@.str.5 = private unnamed_addr constant [9 x i8] c" times.\0A\00", align 1
@.str.6 = private unnamed_addr constant [2 x i8] c".\00", align 1
@_ZTVN9benchmark8internal9BenchmarkE = hidden unnamed_addr constant { [5 x ptr] } { [5 x ptr] [ptr null, ptr @_ZTIN9benchmark8internal9BenchmarkE, ptr @_ZN9benchmark8internal9BenchmarkD2Ev, ptr @_ZN9benchmark8internal9BenchmarkD0Ev, ptr @__cxa_pure_virtual] }, align 8
@.str.8 = private unnamed_addr constant [7 x i8] c"median\00", align 1
@.str.9 = private unnamed_addr constant [7 x i8] c"stddev\00", align 1
@.str.11 = private unnamed_addr constant [57 x i8] c"Cannot set UseRealTime and UseManualTime simultaneously.\00", align 1
@_ZTVN9benchmark8internal17FunctionBenchmarkE = hidden unnamed_addr constant { [5 x ptr] } { [5 x ptr] [ptr null, ptr @_ZTIN9benchmark8internal17FunctionBenchmarkE, ptr @_ZN9benchmark8internal9BenchmarkD2Ev, ptr @_ZN9benchmark8internal17FunctionBenchmarkD0Ev, ptr @_ZN9benchmark8internal17FunctionBenchmark3RunERNS_5StateE] }, align 8
@_ZTVN10__cxxabiv120__si_class_type_infoE = external global ptr
@_ZTSN9benchmark8internal17FunctionBenchmarkE = hidden constant [41 x i8] c"N9benchmark8internal17FunctionBenchmarkE\00", align 1
@_ZTVN10__cxxabiv117__class_type_infoE = external global ptr
@_ZTSN9benchmark8internal9BenchmarkE = hidden constant [32 x i8] c"N9benchmark8internal9BenchmarkE\00", align 1
@_ZTIN9benchmark8internal9BenchmarkE = hidden constant { ptr, ptr } { ptr getelementptr inbounds (ptr, ptr @_ZTVN10__cxxabiv117__class_type_infoE, i64 2), ptr @_ZTSN9benchmark8internal9BenchmarkE }, align 8
@_ZTIN9benchmark8internal17FunctionBenchmarkE = hidden constant { ptr, ptr, ptr } { ptr getelementptr inbounds (ptr, ptr @_ZTVN10__cxxabiv120__si_class_type_infoE, i64 2), ptr @_ZTSN9benchmark8internal17FunctionBenchmarkE, ptr @_ZTIN9benchmark8internal9BenchmarkE }, align 8
@_ZZN9benchmark8internal18GetNullLogInstanceEvE3log = linkonce_odr hidden local_unnamed_addr global %"class.benchmark::internal::LogType" zeroinitializer, comdat, align 8
@_ZGVZN9benchmark8internal18GetNullLogInstanceEvE3log = linkonce_odr hidden global i64 0, comdat, align 8
@_ZTISt11regex_error = external constant ptr
@.str.12 = private unnamed_addr constant [28 x i8] c"conflicting grammar options\00", align 1
@_ZTVSt11regex_error = external unnamed_addr constant { [5 x ptr] }, align 8
@.str.13 = private unnamed_addr constant [15 x i8] c"^$\\.*+?()[]{}|\00", align 1
@.str.14 = private unnamed_addr constant [7 x i8] c".[\\*^$\00", align 1
@.str.15 = private unnamed_addr constant [13 x i8] c".[\\()*+?{|^$\00", align 1
@.str.16 = private unnamed_addr constant [8 x i8] c".[\\*^$\0A\00", align 1
@.str.17 = private unnamed_addr constant [14 x i8] c".[\\()*+?{|^$\0A\00", align 1
@_ZNSt5ctypeIcE2idE = external global %"class.std::locale::id", align 8
@_ZTINSt6locale5facetE = external constant ptr
@_ZTISt5ctypeIcE = external constant ptr
@.str.18 = private unnamed_addr constant [54 x i8] c"invalid '\\cX' control character in regular expression\00", align 1
@.str.19 = private unnamed_addr constant [55 x i8] c"Invalid '\\xNN' control character in regular expression\00", align 1
@.str.20 = private unnamed_addr constant [57 x i8] c"Invalid '\\uNNNN' control character in regular expression\00", align 1
@.str.21 = private unnamed_addr constant [44 x i8] c"Invalid escape at end of regular expression\00", align 1
@.str.22 = private unnamed_addr constant [60 x i8] c"Invalid '(?...)' zero-width assertion in regular expression\00", align 1
@.str.23 = private unnamed_addr constant [54 x i8] c"Incomplete '[[' character class in regular expression\00", align 1
@_ZTVSt23_Sp_counted_ptr_inplaceINSt8__detail4_NFAINSt7__cxx1112regex_traitsIcEEEESaIvELN9__gnu_cxx12_Lock_policyE2EE = linkonce_odr dso_local unnamed_addr constant { [7 x ptr] } { [7 x ptr] [ptr null, ptr @_ZTISt23_Sp_counted_ptr_inplaceINSt8__detail4_NFAINSt7__cxx1112regex_traitsIcEEEESaIvELN9__gnu_cxx12_Lock_policyE2EE, ptr @_ZNSt16_Sp_counted_baseILN9__gnu_cxx12_Lock_policyE2EED2Ev, ptr @_ZNSt23_Sp_counted_ptr_inplaceINSt8__detail4_NFAINSt7__cxx1112regex_traitsIcEEEESaIvELN9__gnu_cxx12_Lock_policyE2EED0Ev, ptr @_ZNSt23_Sp_counted_ptr_inplaceINSt8__detail4_NFAINSt7__cxx1112regex_traitsIcEEEESaIvELN9__gnu_cxx12_Lock_policyE2EE10_M_disposeEv, ptr @_ZNSt23_Sp_counted_ptr_inplaceINSt8__detail4_NFAINSt7__cxx1112regex_traitsIcEEEESaIvELN9__gnu_cxx12_Lock_policyE2EE10_M_destroyEv, ptr @_ZNSt23_Sp_counted_ptr_inplaceINSt8__detail4_NFAINSt7__cxx1112regex_traitsIcEEEESaIvELN9__gnu_cxx12_Lock_policyE2EE14_M_get_deleterERKSt9type_info] }, comdat, align 8
@_ZTSSt23_Sp_counted_ptr_inplaceINSt8__detail4_NFAINSt7__cxx1112regex_traitsIcEEEESaIvELN9__gnu_cxx12_Lock_policyE2EE = linkonce_odr dso_local constant [113 x i8] c"St23_Sp_counted_ptr_inplaceINSt8__detail4_NFAINSt7__cxx1112regex_traitsIcEEEESaIvELN9__gnu_cxx12_Lock_policyE2EE\00", comdat, align 1
@_ZTSSt16_Sp_counted_baseILN9__gnu_cxx12_Lock_policyE2EE = linkonce_odr dso_local constant [52 x i8] c"St16_Sp_counted_baseILN9__gnu_cxx12_Lock_policyE2EE\00", comdat, align 1
@_ZTSSt11_Mutex_baseILN9__gnu_cxx12_Lock_policyE2EE = linkonce_odr dso_local constant [47 x i8] c"St11_Mutex_baseILN9__gnu_cxx12_Lock_policyE2EE\00", comdat, align 1
@_ZTISt11_Mutex_baseILN9__gnu_cxx12_Lock_policyE2EE = linkonce_odr dso_local constant { ptr, ptr } { ptr getelementptr inbounds (ptr, ptr @_ZTVN10__cxxabiv117__class_type_infoE, i64 2), ptr @_ZTSSt11_Mutex_baseILN9__gnu_cxx12_Lock_policyE2EE }, comdat, align 8
@_ZTISt16_Sp_counted_baseILN9__gnu_cxx12_Lock_policyE2EE = linkonce_odr dso_local constant { ptr, ptr, ptr } { ptr getelementptr inbounds (ptr, ptr @_ZTVN10__cxxabiv120__si_class_type_infoE, i64 2), ptr @_ZTSSt16_Sp_counted_baseILN9__gnu_cxx12_Lock_policyE2EE, ptr @_ZTISt11_Mutex_baseILN9__gnu_cxx12_Lock_policyE2EE }, comdat, align 8
@_ZTISt23_Sp_counted_ptr_inplaceINSt8__detail4_NFAINSt7__cxx1112regex_traitsIcEEEESaIvELN9__gnu_cxx12_Lock_policyE2EE = linkonce_odr dso_local constant { ptr, ptr, ptr } { ptr getelementptr inbounds (ptr, ptr @_ZTVN10__cxxabiv120__si_class_type_infoE, i64 2), ptr @_ZTSSt23_Sp_counted_ptr_inplaceINSt8__detail4_NFAINSt7__cxx1112regex_traitsIcEEEESaIvELN9__gnu_cxx12_Lock_policyE2EE, ptr @_ZTISt16_Sp_counted_baseILN9__gnu_cxx12_Lock_policyE2EE }, comdat, align 8
@_ZTSSt19_Sp_make_shared_tag = linkonce_odr dso_local constant [24 x i8] c"St19_Sp_make_shared_tag\00", comdat, align 1
@_ZZNSt19_Sp_make_shared_tag5_S_tiEvE5__tag = linkonce_odr dso_local constant [16 x i8] zeroinitializer, comdat, align 8
@.str.24 = private unnamed_addr constant [26 x i8] c"vector::_M_realloc_insert\00", align 1
@.str.25 = private unnamed_addr constant [145 x i8] c"Number of NFA states exceeds limit. Please use shorter regex string, or use smaller brace expression, or make _GLIBCXX_REGEX_STATE_LIMIT larger.\00", align 1
@_ZZNKSt8__detail11_AnyMatcherINSt7__cxx1112regex_traitsIcEELb0ELb0ELb0EEclEcE5__nul = linkonce_odr dso_local local_unnamed_addr global i8 0, comdat, align 1
@_ZGVZNKSt8__detail11_AnyMatcherINSt7__cxx1112regex_traitsIcEELb0ELb0ELb0EEclEcE5__nul = linkonce_odr dso_local global i64 0, comdat, align 8
@_ZTSNSt8__detail11_AnyMatcherINSt7__cxx1112regex_traitsIcEELb0ELb0ELb0EEE = linkonce_odr dso_local constant [70 x i8] c"NSt8__detail11_AnyMatcherINSt7__cxx1112regex_traitsIcEELb0ELb0ELb0EEE\00", comdat, align 1
@_ZTINSt8__detail11_AnyMatcherINSt7__cxx1112regex_traitsIcEELb0ELb0ELb0EEE = linkonce_odr dso_local constant { ptr, ptr } { ptr getelementptr inbounds (ptr, ptr @_ZTVN10__cxxabiv117__class_type_infoE, i64 2), ptr @_ZTSNSt8__detail11_AnyMatcherINSt7__cxx1112regex_traitsIcEELb0ELb0ELb0EEE }, comdat, align 8
@_ZZNKSt8__detail11_AnyMatcherINSt7__cxx1112regex_traitsIcEELb0ELb0ELb1EEclEcE5__nul = linkonce_odr dso_local local_unnamed_addr global i8 0, comdat, align 1
@_ZGVZNKSt8__detail11_AnyMatcherINSt7__cxx1112regex_traitsIcEELb0ELb0ELb1EEclEcE5__nul = linkonce_odr dso_local global i64 0, comdat, align 8
@_ZTSNSt8__detail11_AnyMatcherINSt7__cxx1112regex_traitsIcEELb0ELb0ELb1EEE = linkonce_odr dso_local constant [70 x i8] c"NSt8__detail11_AnyMatcherINSt7__cxx1112regex_traitsIcEELb0ELb0ELb1EEE\00", comdat, align 1
@_ZTINSt8__detail11_AnyMatcherINSt7__cxx1112regex_traitsIcEELb0ELb0ELb1EEE = linkonce_odr dso_local constant { ptr, ptr } { ptr getelementptr inbounds (ptr, ptr @_ZTVN10__cxxabiv117__class_type_infoE, i64 2), ptr @_ZTSNSt8__detail11_AnyMatcherINSt7__cxx1112regex_traitsIcEELb0ELb0ELb1EEE }, comdat, align 8
@_ZZNKSt8__detail11_AnyMatcherINSt7__cxx1112regex_traitsIcEELb0ELb1ELb0EEclEcE5__nul = linkonce_odr dso_local local_unnamed_addr global i8 0, comdat, align 1
@_ZGVZNKSt8__detail11_AnyMatcherINSt7__cxx1112regex_traitsIcEELb0ELb1ELb0EEclEcE5__nul = linkonce_odr dso_local global i64 0, comdat, align 8
@_ZTSNSt8__detail11_AnyMatcherINSt7__cxx1112regex_traitsIcEELb0ELb1ELb0EEE = linkonce_odr dso_local constant [70 x i8] c"NSt8__detail11_AnyMatcherINSt7__cxx1112regex_traitsIcEELb0ELb1ELb0EEE\00", comdat, align 1
@_ZTINSt8__detail11_AnyMatcherINSt7__cxx1112regex_traitsIcEELb0ELb1ELb0EEE = linkonce_odr dso_local constant { ptr, ptr } { ptr getelementptr inbounds (ptr, ptr @_ZTVN10__cxxabiv117__class_type_infoE, i64 2), ptr @_ZTSNSt8__detail11_AnyMatcherINSt7__cxx1112regex_traitsIcEELb0ELb1ELb0EEE }, comdat, align 8
@_ZZNKSt8__detail11_AnyMatcherINSt7__cxx1112regex_traitsIcEELb0ELb1ELb1EEclEcE5__nul = linkonce_odr dso_local local_unnamed_addr global i8 0, comdat, align 1
@_ZGVZNKSt8__detail11_AnyMatcherINSt7__cxx1112regex_traitsIcEELb0ELb1ELb1EEclEcE5__nul = linkonce_odr dso_local global i64 0, comdat, align 8
@_ZTSNSt8__detail11_AnyMatcherINSt7__cxx1112regex_traitsIcEELb0ELb1ELb1EEE = linkonce_odr dso_local constant [70 x i8] c"NSt8__detail11_AnyMatcherINSt7__cxx1112regex_traitsIcEELb0ELb1ELb1EEE\00", comdat, align 1
@_ZTINSt8__detail11_AnyMatcherINSt7__cxx1112regex_traitsIcEELb0ELb1ELb1EEE = linkonce_odr dso_local constant { ptr, ptr } { ptr getelementptr inbounds (ptr, ptr @_ZTVN10__cxxabiv117__class_type_infoE, i64 2), ptr @_ZTSNSt8__detail11_AnyMatcherINSt7__cxx1112regex_traitsIcEELb0ELb1ELb1EEE }, comdat, align 8
@_ZTSNSt8__detail11_AnyMatcherINSt7__cxx1112regex_traitsIcEELb1ELb0ELb0EEE = linkonce_odr dso_local constant [70 x i8] c"NSt8__detail11_AnyMatcherINSt7__cxx1112regex_traitsIcEELb1ELb0ELb0EEE\00", comdat, align 1
@_ZTINSt8__detail11_AnyMatcherINSt7__cxx1112regex_traitsIcEELb1ELb0ELb0EEE = linkonce_odr dso_local constant { ptr, ptr } { ptr getelementptr inbounds (ptr, ptr @_ZTVN10__cxxabiv117__class_type_infoE, i64 2), ptr @_ZTSNSt8__detail11_AnyMatcherINSt7__cxx1112regex_traitsIcEELb1ELb0ELb0EEE }, comdat, align 8
@_ZTSNSt8__detail11_AnyMatcherINSt7__cxx1112regex_traitsIcEELb1ELb0ELb1EEE = linkonce_odr dso_local constant [70 x i8] c"NSt8__detail11_AnyMatcherINSt7__cxx1112regex_traitsIcEELb1ELb0ELb1EEE\00", comdat, align 1
@_ZTINSt8__detail11_AnyMatcherINSt7__cxx1112regex_traitsIcEELb1ELb0ELb1EEE = linkonce_odr dso_local constant { ptr, ptr } { ptr getelementptr inbounds (ptr, ptr @_ZTVN10__cxxabiv117__class_type_infoE, i64 2), ptr @_ZTSNSt8__detail11_AnyMatcherINSt7__cxx1112regex_traitsIcEELb1ELb0ELb1EEE }, comdat, align 8
@_ZTSNSt8__detail11_AnyMatcherINSt7__cxx1112regex_traitsIcEELb1ELb1ELb0EEE = linkonce_odr dso_local constant [70 x i8] c"NSt8__detail11_AnyMatcherINSt7__cxx1112regex_traitsIcEELb1ELb1ELb0EEE\00", comdat, align 1
@_ZTINSt8__detail11_AnyMatcherINSt7__cxx1112regex_traitsIcEELb1ELb1ELb0EEE = linkonce_odr dso_local constant { ptr, ptr } { ptr getelementptr inbounds (ptr, ptr @_ZTVN10__cxxabiv117__class_type_infoE, i64 2), ptr @_ZTSNSt8__detail11_AnyMatcherINSt7__cxx1112regex_traitsIcEELb1ELb1ELb0EEE }, comdat, align 8
@_ZTSNSt8__detail11_AnyMatcherINSt7__cxx1112regex_traitsIcEELb1ELb1ELb1EEE = linkonce_odr dso_local constant [70 x i8] c"NSt8__detail11_AnyMatcherINSt7__cxx1112regex_traitsIcEELb1ELb1ELb1EEE\00", comdat, align 1
@_ZTINSt8__detail11_AnyMatcherINSt7__cxx1112regex_traitsIcEELb1ELb1ELb1EEE = linkonce_odr dso_local constant { ptr, ptr } { ptr getelementptr inbounds (ptr, ptr @_ZTVN10__cxxabiv117__class_type_infoE, i64 2), ptr @_ZTSNSt8__detail11_AnyMatcherINSt7__cxx1112regex_traitsIcEELb1ELb1ELb1EEE }, comdat, align 8
@_ZTSNSt8__detail12_CharMatcherINSt7__cxx1112regex_traitsIcEELb0ELb0EEE = linkonce_odr dso_local constant [67 x i8] c"NSt8__detail12_CharMatcherINSt7__cxx1112regex_traitsIcEELb0ELb0EEE\00", comdat, align 1
@_ZTINSt8__detail12_CharMatcherINSt7__cxx1112regex_traitsIcEELb0ELb0EEE = linkonce_odr dso_local constant { ptr, ptr } { ptr getelementptr inbounds (ptr, ptr @_ZTVN10__cxxabiv117__class_type_infoE, i64 2), ptr @_ZTSNSt8__detail12_CharMatcherINSt7__cxx1112regex_traitsIcEELb0ELb0EEE }, comdat, align 8
@_ZTSNSt8__detail12_CharMatcherINSt7__cxx1112regex_traitsIcEELb0ELb1EEE = linkonce_odr dso_local constant [67 x i8] c"NSt8__detail12_CharMatcherINSt7__cxx1112regex_traitsIcEELb0ELb1EEE\00", comdat, align 1
@_ZTINSt8__detail12_CharMatcherINSt7__cxx1112regex_traitsIcEELb0ELb1EEE = linkonce_odr dso_local constant { ptr, ptr } { ptr getelementptr inbounds (ptr, ptr @_ZTVN10__cxxabiv117__class_type_infoE, i64 2), ptr @_ZTSNSt8__detail12_CharMatcherINSt7__cxx1112regex_traitsIcEELb0ELb1EEE }, comdat, align 8
@_ZTSNSt8__detail12_CharMatcherINSt7__cxx1112regex_traitsIcEELb1ELb0EEE = linkonce_odr dso_local constant [67 x i8] c"NSt8__detail12_CharMatcherINSt7__cxx1112regex_traitsIcEELb1ELb0EEE\00", comdat, align 1
@_ZTINSt8__detail12_CharMatcherINSt7__cxx1112regex_traitsIcEELb1ELb0EEE = linkonce_odr dso_local constant { ptr, ptr } { ptr getelementptr inbounds (ptr, ptr @_ZTVN10__cxxabiv117__class_type_infoE, i64 2), ptr @_ZTSNSt8__detail12_CharMatcherINSt7__cxx1112regex_traitsIcEELb1ELb0EEE }, comdat, align 8
@_ZTSNSt8__detail12_CharMatcherINSt7__cxx1112regex_traitsIcEELb1ELb1EEE = linkonce_odr dso_local constant [67 x i8] c"NSt8__detail12_CharMatcherINSt7__cxx1112regex_traitsIcEELb1ELb1EEE\00", comdat, align 1
@_ZTINSt8__detail12_CharMatcherINSt7__cxx1112regex_traitsIcEELb1ELb1EEE = linkonce_odr dso_local constant { ptr, ptr } { ptr getelementptr inbounds (ptr, ptr @_ZTVN10__cxxabiv117__class_type_infoE, i64 2), ptr @_ZTSNSt8__detail12_CharMatcherINSt7__cxx1112regex_traitsIcEELb1ELb1EEE }, comdat, align 8
@.str.26 = private unnamed_addr constant [46 x i8] c"Unexpected back-reference in polynomial mode.\00", align 1
@.str.27 = private unnamed_addr constant [59 x i8] c"Back-reference index exceeds current sub-expression count.\00", align 1
@.str.28 = private unnamed_addr constant [53 x i8] c"Back-reference referred to an opened sub-expression.\00", align 1
@_ZTTNSt7__cxx1119basic_istringstreamIcSt11char_traitsIcESaIcEEE = external unnamed_addr constant [4 x ptr], align 8
@_ZTVNSt7__cxx1115basic_stringbufIcSt11char_traitsIcESaIcEEE = external unnamed_addr constant { [16 x ptr] }, align 8
@_ZTVSt15basic_streambufIcSt11char_traitsIcEE = external unnamed_addr constant { [16 x ptr] }, align 8
@.str.29 = private unnamed_addr constant [50 x i8] c"basic_string: construction from null is not valid\00", align 1
@.str.30 = private unnamed_addr constant [25 x i8] c"Invalid character class.\00", align 1
@_ZZNKSt7__cxx1112regex_traitsIcE16lookup_classnameIPKcEENS1_10_RegexMaskET_S6_bE12__classnamesB5cxx11 = linkonce_odr dso_local local_unnamed_addr constant [15 x { ptr, { i16, i8 } }] [{ ptr, { i16, i8 } } { ptr @.str.31, { i16, i8 } { i16 2048, i8 0 } }, { ptr, { i16, i8 } } { ptr @.str.32, { i16, i8 } { i16 3072, i8 1 } }, { ptr, { i16, i8 } } { ptr @.str.33, { i16, i8 } { i16 8192, i8 0 } }, { ptr, { i16, i8 } } { ptr @.str.34, { i16, i8 } { i16 3072, i8 0 } }, { ptr, { i16, i8 } } { ptr @.str.35, { i16, i8 } { i16 1024, i8 0 } }, { ptr, { i16, i8 } } { ptr @.str.36, { i16, i8 } { i16 1, i8 0 } }, { ptr, { i16, i8 } } { ptr @.str.37, { i16, i8 } { i16 2, i8 0 } }, { ptr, { i16, i8 } } { ptr @.str.38, { i16, i8 } { i16 2048, i8 0 } }, { ptr, { i16, i8 } } { ptr @.str.39, { i16, i8 } { i16 3076, i8 0 } }, { ptr, { i16, i8 } } { ptr @.str.40, { i16, i8 } { i16 512, i8 0 } }, { ptr, { i16, i8 } } { ptr @.str.41, { i16, i8 } { i16 16384, i8 0 } }, { ptr, { i16, i8 } } { ptr @.str.42, { i16, i8 } { i16 4, i8 0 } }, { ptr, { i16, i8 } } { ptr @.str.43, { i16, i8 } { i16 8192, i8 0 } }, { ptr, { i16, i8 } } { ptr @.str.44, { i16, i8 } { i16 256, i8 0 } }, { ptr, { i16, i8 } } { ptr @.str.45, { i16, i8 } { i16 4096, i8 0 } }], comdat, align 16
@.str.31 = private unnamed_addr constant [2 x i8] c"d\00", align 1
@.str.32 = private unnamed_addr constant [2 x i8] c"w\00", align 1
@.str.33 = private unnamed_addr constant [2 x i8] c"s\00", align 1
@.str.34 = private unnamed_addr constant [6 x i8] c"alnum\00", align 1
@.str.35 = private unnamed_addr constant [6 x i8] c"alpha\00", align 1
@.str.36 = private unnamed_addr constant [6 x i8] c"blank\00", align 1
@.str.37 = private unnamed_addr constant [6 x i8] c"cntrl\00", align 1
@.str.38 = private unnamed_addr constant [6 x i8] c"digit\00", align 1
@.str.39 = private unnamed_addr constant [6 x i8] c"graph\00", align 1
@.str.40 = private unnamed_addr constant [6 x i8] c"lower\00", align 1
@.str.41 = private unnamed_addr constant [6 x i8] c"print\00", align 1
@.str.42 = private unnamed_addr constant [6 x i8] c"punct\00", align 1
@.str.43 = private unnamed_addr constant [6 x i8] c"space\00", align 1
@.str.44 = private unnamed_addr constant [6 x i8] c"upper\00", align 1
@.str.45 = private unnamed_addr constant [7 x i8] c"xdigit\00", align 1
@.str.46 = private unnamed_addr constant [49 x i8] c"cannot create std::vector larger than max_size()\00", align 1
@_ZTSNSt8__detail15_BracketMatcherINSt7__cxx1112regex_traitsIcEELb0ELb0EEE = linkonce_odr dso_local constant [70 x i8] c"NSt8__detail15_BracketMatcherINSt7__cxx1112regex_traitsIcEELb0ELb0EEE\00", comdat, align 1
@_ZTINSt8__detail15_BracketMatcherINSt7__cxx1112regex_traitsIcEELb0ELb0EEE = linkonce_odr dso_local constant { ptr, ptr } { ptr getelementptr inbounds (ptr, ptr @_ZTVN10__cxxabiv117__class_type_infoE, i64 2), ptr @_ZTSNSt8__detail15_BracketMatcherINSt7__cxx1112regex_traitsIcEELb0ELb0EEE }, comdat, align 8
@_ZTSNSt8__detail15_BracketMatcherINSt7__cxx1112regex_traitsIcEELb0ELb1EEE = linkonce_odr dso_local constant [70 x i8] c"NSt8__detail15_BracketMatcherINSt7__cxx1112regex_traitsIcEELb0ELb1EEE\00", comdat, align 1
@_ZTINSt8__detail15_BracketMatcherINSt7__cxx1112regex_traitsIcEELb0ELb1EEE = linkonce_odr dso_local constant { ptr, ptr } { ptr getelementptr inbounds (ptr, ptr @_ZTVN10__cxxabiv117__class_type_infoE, i64 2), ptr @_ZTSNSt8__detail15_BracketMatcherINSt7__cxx1112regex_traitsIcEELb0ELb1EEE }, comdat, align 8
@_ZTSNSt8__detail15_BracketMatcherINSt7__cxx1112regex_traitsIcEELb1ELb0EEE = linkonce_odr dso_local constant [70 x i8] c"NSt8__detail15_BracketMatcherINSt7__cxx1112regex_traitsIcEELb1ELb0EEE\00", comdat, align 1
@_ZTINSt8__detail15_BracketMatcherINSt7__cxx1112regex_traitsIcEELb1ELb0EEE = linkonce_odr dso_local constant { ptr, ptr } { ptr getelementptr inbounds (ptr, ptr @_ZTVN10__cxxabiv117__class_type_infoE, i64 2), ptr @_ZTSNSt8__detail15_BracketMatcherINSt7__cxx1112regex_traitsIcEELb1ELb0EEE }, comdat, align 8
@_ZTSNSt8__detail15_BracketMatcherINSt7__cxx1112regex_traitsIcEELb1ELb1EEE = linkonce_odr dso_local constant [70 x i8] c"NSt8__detail15_BracketMatcherINSt7__cxx1112regex_traitsIcEELb1ELb1EEE\00", comdat, align 1
@_ZTINSt8__detail15_BracketMatcherINSt7__cxx1112regex_traitsIcEELb1ELb1EEE = linkonce_odr dso_local constant { ptr, ptr } { ptr getelementptr inbounds (ptr, ptr @_ZTVN10__cxxabiv117__class_type_infoE, i64 2), ptr @_ZTSNSt8__detail15_BracketMatcherINSt7__cxx1112regex_traitsIcEELb1ELb1EEE }, comdat, align 8
@.str.47 = private unnamed_addr constant [53 x i8] c"Invalid start of '[x-x]' range in regular expression\00", align 1
@.str.48 = private unnamed_addr constant [51 x i8] c"Invalid end of '[x-x]' range in regular expression\00", align 1
@.str.49 = private unnamed_addr constant [67 x i8] c"Invalid location of '-' within '[...]' in POSIX regular expression\00", align 1
@.str.50 = private unnamed_addr constant [58 x i8] c"Unexpected character within '[...]' in regular expression\00", align 1
@.str.51 = private unnamed_addr constant [25 x i8] c"Invalid collate element.\00", align 1
@_ZZNKSt7__cxx1112regex_traitsIcE18lookup_collatenameIPKcEENS_12basic_stringIcSt11char_traitsIcESaIcEEET_SA_E14__collatenames = linkonce_odr dso_local global [128 x ptr] [ptr @.str.52, ptr @.str.53, ptr @.str.54, ptr @.str.55, ptr @.str.56, ptr @.str.57, ptr @.str.58, ptr @.str.59, ptr @.str.60, ptr @.str.61, ptr @.str.62, ptr @.str.63, ptr @.str.64, ptr @.str.65, ptr @.str.66, ptr @.str.67, ptr @.str.68, ptr @.str.69, ptr @.str.70, ptr @.str.71, ptr @.str.72, ptr @.str.73, ptr @.str.74, ptr @.str.75, ptr @.str.76, ptr @.str.77, ptr @.str.78, ptr @.str.79, ptr @.str.80, ptr @.str.81, ptr @.str.82, ptr @.str.83, ptr @.str.43, ptr @.str.84, ptr @.str.85, ptr @.str.86, ptr @.str.87, ptr @.str.88, ptr @.str.89, ptr @.str.90, ptr @.str.91, ptr @.str.92, ptr @.str.93, ptr @.str.94, ptr @.str.95, ptr @.str.96, ptr @.str.97, ptr @.str.98, ptr @.str.99, ptr @.str.100, ptr @.str.101, ptr @.str.102, ptr @.str.103, ptr @.str.104, ptr @.str.105, ptr @.str.106, ptr @.str.107, ptr @.str.108, ptr @.str.109, ptr @.str.110, ptr @.str.111, ptr @.str.112, ptr @.str.113, ptr @.str.114, ptr @.str.115, ptr @.str.116, ptr @.str.117, ptr @.str.118, ptr @.str.119, ptr @.str.120, ptr @.str.121, ptr @.str.122, ptr @.str.123, ptr @.str.124, ptr @.str.125, ptr @.str.126, ptr @.str.127, ptr @.str.128, ptr @.str.129, ptr @.str.130, ptr @.str.131, ptr @.str.132, ptr @.str.133, ptr @.str.134, ptr @.str.135, ptr @.str.136, ptr @.str.137, ptr @.str.138, ptr @.str.139, ptr @.str.140, ptr @.str.141, ptr @.str.142, ptr @.str.143, ptr @.str.144, ptr @.str.145, ptr @.str.146, ptr @.str.147, ptr @.str.148, ptr @.str.149, ptr @.str.150, ptr @.str.31, ptr @.str.151, ptr @.str.152, ptr @.str.153, ptr @.str.154, ptr @.str.155, ptr @.str.156, ptr @.str.157, ptr @.str.158, ptr @.str.159, ptr @.str.160, ptr @.str.161, ptr @.str.162, ptr @.str.163, ptr @.str.164, ptr @.str.33, ptr @.str.165, ptr @.str.166, ptr @.str.167, ptr @.str.32, ptr @.str.168, ptr @.str.169, ptr @.str.170, ptr @.str.171, ptr @.str.172, ptr @.str.173, ptr @.str.174, ptr @.str.175], comdat, align 16
@.str.52 = private unnamed_addr constant [4 x i8] c"NUL\00", align 1
@.str.53 = private unnamed_addr constant [4 x i8] c"SOH\00", align 1
@.str.54 = private unnamed_addr constant [4 x i8] c"STX\00", align 1
@.str.55 = private unnamed_addr constant [4 x i8] c"ETX\00", align 1
@.str.56 = private unnamed_addr constant [4 x i8] c"EOT\00", align 1
@.str.57 = private unnamed_addr constant [4 x i8] c"ENQ\00", align 1
@.str.58 = private unnamed_addr constant [4 x i8] c"ACK\00", align 1
@.str.59 = private unnamed_addr constant [6 x i8] c"alert\00", align 1
@.str.60 = private unnamed_addr constant [10 x i8] c"backspace\00", align 1
@.str.61 = private unnamed_addr constant [4 x i8] c"tab\00", align 1
@.str.62 = private unnamed_addr constant [8 x i8] c"newline\00", align 1
@.str.63 = private unnamed_addr constant [13 x i8] c"vertical-tab\00", align 1
@.str.64 = private unnamed_addr constant [10 x i8] c"form-feed\00", align 1
@.str.65 = private unnamed_addr constant [16 x i8] c"carriage-return\00", align 1
@.str.66 = private unnamed_addr constant [3 x i8] c"SO\00", align 1
@.str.67 = private unnamed_addr constant [3 x i8] c"SI\00", align 1
@.str.68 = private unnamed_addr constant [4 x i8] c"DLE\00", align 1
@.str.69 = private unnamed_addr constant [4 x i8] c"DC1\00", align 1
@.str.70 = private unnamed_addr constant [4 x i8] c"DC2\00", align 1
@.str.71 = private unnamed_addr constant [4 x i8] c"DC3\00", align 1
@.str.72 = private unnamed_addr constant [4 x i8] c"DC4\00", align 1
@.str.73 = private unnamed_addr constant [4 x i8] c"NAK\00", align 1
@.str.74 = private unnamed_addr constant [4 x i8] c"SYN\00", align 1
@.str.75 = private unnamed_addr constant [4 x i8] c"ETB\00", align 1
@.str.76 = private unnamed_addr constant [4 x i8] c"CAN\00", align 1
@.str.77 = private unnamed_addr constant [3 x i8] c"EM\00", align 1
@.str.78 = private unnamed_addr constant [4 x i8] c"SUB\00", align 1
@.str.79 = private unnamed_addr constant [4 x i8] c"ESC\00", align 1
@.str.80 = private unnamed_addr constant [4 x i8] c"IS4\00", align 1
@.str.81 = private unnamed_addr constant [4 x i8] c"IS3\00", align 1
@.str.82 = private unnamed_addr constant [4 x i8] c"IS2\00", align 1
@.str.83 = private unnamed_addr constant [4 x i8] c"IS1\00", align 1
@.str.84 = private unnamed_addr constant [17 x i8] c"exclamation-mark\00", align 1
@.str.85 = private unnamed_addr constant [15 x i8] c"quotation-mark\00", align 1
@.str.86 = private unnamed_addr constant [12 x i8] c"number-sign\00", align 1
@.str.87 = private unnamed_addr constant [12 x i8] c"dollar-sign\00", align 1
@.str.88 = private unnamed_addr constant [13 x i8] c"percent-sign\00", align 1
@.str.89 = private unnamed_addr constant [10 x i8] c"ampersand\00", align 1
@.str.90 = private unnamed_addr constant [11 x i8] c"apostrophe\00", align 1
@.str.91 = private unnamed_addr constant [17 x i8] c"left-parenthesis\00", align 1
@.str.92 = private unnamed_addr constant [18 x i8] c"right-parenthesis\00", align 1
@.str.93 = private unnamed_addr constant [9 x i8] c"asterisk\00", align 1
@.str.94 = private unnamed_addr constant [10 x i8] c"plus-sign\00", align 1
@.str.95 = private unnamed_addr constant [6 x i8] c"comma\00", align 1
@.str.96 = private unnamed_addr constant [7 x i8] c"hyphen\00", align 1
@.str.97 = private unnamed_addr constant [7 x i8] c"period\00", align 1
@.str.98 = private unnamed_addr constant [6 x i8] c"slash\00", align 1
@.str.99 = private unnamed_addr constant [5 x i8] c"zero\00", align 1
@.str.100 = private unnamed_addr constant [4 x i8] c"one\00", align 1
@.str.101 = private unnamed_addr constant [4 x i8] c"two\00", align 1
@.str.102 = private unnamed_addr constant [6 x i8] c"three\00", align 1
@.str.103 = private unnamed_addr constant [5 x i8] c"four\00", align 1
@.str.104 = private unnamed_addr constant [5 x i8] c"five\00", align 1
@.str.105 = private unnamed_addr constant [4 x i8] c"six\00", align 1
@.str.106 = private unnamed_addr constant [6 x i8] c"seven\00", align 1
@.str.107 = private unnamed_addr constant [6 x i8] c"eight\00", align 1
@.str.108 = private unnamed_addr constant [5 x i8] c"nine\00", align 1
@.str.109 = private unnamed_addr constant [6 x i8] c"colon\00", align 1
@.str.110 = private unnamed_addr constant [10 x i8] c"semicolon\00", align 1
@.str.111 = private unnamed_addr constant [15 x i8] c"less-than-sign\00", align 1
@.str.112 = private unnamed_addr constant [12 x i8] c"equals-sign\00", align 1
@.str.113 = private unnamed_addr constant [18 x i8] c"greater-than-sign\00", align 1
@.str.114 = private unnamed_addr constant [14 x i8] c"question-mark\00", align 1
@.str.115 = private unnamed_addr constant [14 x i8] c"commercial-at\00", align 1
@.str.116 = private unnamed_addr constant [2 x i8] c"A\00", align 1
@.str.117 = private unnamed_addr constant [2 x i8] c"B\00", align 1
@.str.118 = private unnamed_addr constant [2 x i8] c"C\00", align 1
@.str.119 = private unnamed_addr constant [2 x i8] c"D\00", align 1
@.str.120 = private unnamed_addr constant [2 x i8] c"E\00", align 1
@.str.121 = private unnamed_addr constant [2 x i8] c"F\00", align 1
@.str.122 = private unnamed_addr constant [2 x i8] c"G\00", align 1
@.str.123 = private unnamed_addr constant [2 x i8] c"H\00", align 1
@.str.124 = private unnamed_addr constant [2 x i8] c"I\00", align 1
@.str.125 = private unnamed_addr constant [2 x i8] c"J\00", align 1
@.str.126 = private unnamed_addr constant [2 x i8] c"K\00", align 1
@.str.127 = private unnamed_addr constant [2 x i8] c"L\00", align 1
@.str.128 = private unnamed_addr constant [2 x i8] c"M\00", align 1
@.str.129 = private unnamed_addr constant [2 x i8] c"N\00", align 1
@.str.130 = private unnamed_addr constant [2 x i8] c"O\00", align 1
@.str.131 = private unnamed_addr constant [2 x i8] c"P\00", align 1
@.str.132 = private unnamed_addr constant [2 x i8] c"Q\00", align 1
@.str.133 = private unnamed_addr constant [2 x i8] c"R\00", align 1
@.str.134 = private unnamed_addr constant [2 x i8] c"S\00", align 1
@.str.135 = private unnamed_addr constant [2 x i8] c"T\00", align 1
@.str.136 = private unnamed_addr constant [2 x i8] c"U\00", align 1
@.str.137 = private unnamed_addr constant [2 x i8] c"V\00", align 1
@.str.138 = private unnamed_addr constant [2 x i8] c"W\00", align 1
@.str.139 = private unnamed_addr constant [2 x i8] c"X\00", align 1
@.str.140 = private unnamed_addr constant [2 x i8] c"Y\00", align 1
@.str.141 = private unnamed_addr constant [2 x i8] c"Z\00", align 1
@.str.142 = private unnamed_addr constant [20 x i8] c"left-square-bracket\00", align 1
@.str.143 = private unnamed_addr constant [10 x i8] c"backslash\00", align 1
@.str.144 = private unnamed_addr constant [21 x i8] c"right-square-bracket\00", align 1
@.str.145 = private unnamed_addr constant [11 x i8] c"circumflex\00", align 1
@.str.146 = private unnamed_addr constant [11 x i8] c"underscore\00", align 1
@.str.147 = private unnamed_addr constant [13 x i8] c"grave-accent\00", align 1
@.str.148 = private unnamed_addr constant [2 x i8] c"a\00", align 1
@.str.149 = private unnamed_addr constant [2 x i8] c"b\00", align 1
@.str.150 = private unnamed_addr constant [2 x i8] c"c\00", align 1
@.str.151 = private unnamed_addr constant [2 x i8] c"e\00", align 1
@.str.152 = private unnamed_addr constant [2 x i8] c"f\00", align 1
@.str.153 = private unnamed_addr constant [2 x i8] c"g\00", align 1
@.str.154 = private unnamed_addr constant [2 x i8] c"h\00", align 1
@.str.155 = private unnamed_addr constant [2 x i8] c"i\00", align 1
@.str.156 = private unnamed_addr constant [2 x i8] c"j\00", align 1
@.str.157 = private unnamed_addr constant [2 x i8] c"k\00", align 1
@.str.158 = private unnamed_addr constant [2 x i8] c"l\00", align 1
@.str.159 = private unnamed_addr constant [2 x i8] c"m\00", align 1
@.str.160 = private unnamed_addr constant [2 x i8] c"n\00", align 1
@.str.161 = private unnamed_addr constant [2 x i8] c"o\00", align 1
@.str.162 = private unnamed_addr constant [2 x i8] c"p\00", align 1
@.str.163 = private unnamed_addr constant [2 x i8] c"q\00", align 1
@.str.164 = private unnamed_addr constant [2 x i8] c"r\00", align 1
@.str.165 = private unnamed_addr constant [2 x i8] c"t\00", align 1
@.str.166 = private unnamed_addr constant [2 x i8] c"u\00", align 1
@.str.167 = private unnamed_addr constant [2 x i8] c"v\00", align 1
@.str.168 = private unnamed_addr constant [2 x i8] c"x\00", align 1
@.str.169 = private unnamed_addr constant [2 x i8] c"y\00", align 1
@.str.170 = private unnamed_addr constant [2 x i8] c"z\00", align 1
@.str.171 = private unnamed_addr constant [19 x i8] c"left-curly-bracket\00", align 1
@.str.172 = private unnamed_addr constant [14 x i8] c"vertical-line\00", align 1
@.str.173 = private unnamed_addr constant [20 x i8] c"right-curly-bracket\00", align 1
@.str.174 = private unnamed_addr constant [6 x i8] c"tilde\00", align 1
@.str.175 = private unnamed_addr constant [4 x i8] c"DEL\00", align 1
@.str.176 = private unnamed_addr constant [27 x i8] c"Invalid equivalence class.\00", align 1
@.str.177 = private unnamed_addr constant [37 x i8] c"Invalid range in bracket expression.\00", align 1
@.str.178 = private unnamed_addr constant [48 x i8] c"cannot create std::deque larger than max_size()\00", align 1
@__libc_single_threaded = external local_unnamed_addr global i8, align 1
@_ZZNKSt8__detail9_ExecutorIN9__gnu_cxx17__normal_iteratorIPKcNSt7__cxx1112basic_stringIcSt11char_traitsIcESaIcEEEEESaINS5_9sub_matchISB_EEENS5_12regex_traitsIcEELb0EE10_M_is_wordEcE3__s = linkonce_odr dso_local constant [2 x i8] c"w\00", comdat, align 1
@_ZZNKSt8__detail9_ExecutorIN9__gnu_cxx17__normal_iteratorIPKcNSt7__cxx1112basic_stringIcSt11char_traitsIcESaIcEEEEESaINS5_9sub_matchISB_EEENS5_12regex_traitsIcEELb1EE10_M_is_wordEcE3__s = linkonce_odr dso_local constant [2 x i8] c"w\00", comdat, align 1
@.str.181 = private unnamed_addr constant [16 x i8] c"vector::reserve\00", align 1
@llvm.global_ctors = appending global [1 x { i32, ptr, ptr }] [{ i32, ptr, ptr } { i32 65535, ptr @_GLOBAL__sub_I_benchmark_register.cc, ptr null }]

@_ZN9benchmark8internal9BenchmarkD1Ev = hidden unnamed_addr alias void (ptr), ptr @_ZN9benchmark8internal9BenchmarkD2Ev

declare noundef i32 @_ZN9benchmark8internal17InitializeStreamsEv() local_unnamed_addr #0

declare void @_ZNSt8ios_base4InitC1Ev(ptr noundef nonnull align 1 dereferenceable(1)) unnamed_addr #0

; Function Attrs: nounwind
declare void @_ZNSt8ios_base4InitD1Ev(ptr noundef nonnull align 1 dereferenceable(1)) unnamed_addr #1

; Function Attrs: nofree nounwind
declare i32 @__cxa_atexit(ptr, ptr, ptr) local_unnamed_addr #2

; Function Attrs: nofree nounwind uwtable
define hidden noundef nonnull ptr @_ZN9benchmark8internal17BenchmarkFamilies11GetInstanceEv() local_unnamed_addr #3 align 2 personality ptr @__gxx_personality_v0 {
  %1 = load atomic i8, ptr @_ZGVZN9benchmark8internal17BenchmarkFamilies11GetInstanceEvE8instance acquire, align 8
  %2 = icmp eq i8 %1, 0
  br i1 %2, label %3, label %8, !prof !5

3:                                                ; preds = %0
  %4 = tail call i32 @__cxa_guard_acquire(ptr nonnull @_ZGVZN9benchmark8internal17BenchmarkFamilies11GetInstanceEvE8instance) #32
  %5 = icmp eq i32 %4, 0
  br i1 %5, label %8, label %6

6:                                                ; preds = %3
  tail call void @llvm.memset.p0.i64(ptr noundef nonnull align 8 dereferenceable(64) @_ZZN9benchmark8internal17BenchmarkFamilies11GetInstanceEvE8instance, i8 0, i64 64, i1 false)
  %7 = tail call i32 @__cxa_atexit(ptr nonnull @_ZN9benchmark8internal17BenchmarkFamiliesD2Ev, ptr nonnull @_ZZN9benchmark8internal17BenchmarkFamilies11GetInstanceEvE8instance, ptr nonnull @__dso_handle) #32
  tail call void @__cxa_guard_release(ptr nonnull @_ZGVZN9benchmark8internal17BenchmarkFamilies11GetInstanceEvE8instance) #32
  br label %8

8:                                                ; preds = %6, %3, %0
  ret ptr @_ZZN9benchmark8internal17BenchmarkFamilies11GetInstanceEvE8instance
}

; Function Attrs: nofree nounwind
declare i32 @__cxa_guard_acquire(ptr) local_unnamed_addr #2

declare i32 @__gxx_personality_v0(...)

; Function Attrs: inlinehint nounwind uwtable
define linkonce_odr hidden void @_ZN9benchmark8internal17BenchmarkFamiliesD2Ev(ptr noundef nonnull align 8 dereferenceable(64) %0) unnamed_addr #4 comdat align 2 personality ptr @__gxx_personality_v0 {
  %2 = load ptr, ptr %0, align 8, !tbaa !6
  %3 = getelementptr inbounds %"struct.std::_Vector_base<std::unique_ptr<benchmark::internal::Benchmark>, std::allocator<std::unique_ptr<benchmark::internal::Benchmark>>>::_Vector_impl_data", ptr %0, i64 0, i32 1
  %4 = load ptr, ptr %3, align 8, !tbaa !11
  %5 = icmp eq ptr %2, %4
  br i1 %5, label %19, label %6

6:                                                ; preds = %1, %14
  %7 = phi ptr [ %15, %14 ], [ %2, %1 ]
  %8 = load ptr, ptr %7, align 8, !tbaa !12
  %9 = icmp eq ptr %8, null
  br i1 %9, label %14, label %10

10:                                               ; preds = %6
  %11 = load ptr, ptr %8, align 8, !tbaa !13
  %12 = getelementptr inbounds ptr, ptr %11, i64 1
  %13 = load ptr, ptr %12, align 8
  tail call void %13(ptr noundef nonnull align 8 dereferenceable(216) %8) #32
  br label %14

14:                                               ; preds = %10, %6
  store ptr null, ptr %7, align 8, !tbaa !12
  %15 = getelementptr inbounds %"class.std::unique_ptr", ptr %7, i64 1
  %16 = icmp eq ptr %15, %4
  br i1 %16, label %17, label %6, !llvm.loop !15

17:                                               ; preds = %14
  %18 = load ptr, ptr %0, align 8, !tbaa !6
  br label %19

19:                                               ; preds = %17, %1
  %20 = phi ptr [ %18, %17 ], [ %2, %1 ]
  %21 = icmp eq ptr %20, null
  br i1 %21, label %23, label %22

22:                                               ; preds = %19
  tail call void @_ZdlPv(ptr noundef nonnull %20) #33
  br label %23

23:                                               ; preds = %19, %22
  ret void
}

; Function Attrs: nofree nounwind
declare void @__cxa_guard_abort(ptr) local_unnamed_addr #2

; Function Attrs: nofree nounwind
declare void @__cxa_guard_release(ptr) local_unnamed_addr #2

; Function Attrs: uwtable
define hidden noundef i64 @_ZN9benchmark8internal17BenchmarkFamilies12AddBenchmarkESt10unique_ptrINS0_9BenchmarkESt14default_deleteIS3_EE(ptr noundef nonnull align 8 dereferenceable(64) %0, ptr noundef %1) local_unnamed_addr #5 align 2 personality ptr @__gxx_personality_v0 {
  %3 = getelementptr inbounds %"class.benchmark::internal::BenchmarkFamilies", ptr %0, i64 0, i32 1
  %4 = tail call i32 @pthread_mutex_lock(ptr noundef nonnull %3) #32
  %5 = icmp eq i32 %4, 0
  br i1 %5, label %7, label %6

6:                                                ; preds = %2
  tail call void @_ZSt20__throw_system_errori(i32 noundef %4) #34
  unreachable

7:                                                ; preds = %2
  %8 = getelementptr inbounds %"struct.std::_Vector_base<std::unique_ptr<benchmark::internal::Benchmark>, std::allocator<std::unique_ptr<benchmark::internal::Benchmark>>>::_Vector_impl_data", ptr %0, i64 0, i32 1
  %9 = load ptr, ptr %8, align 8, !tbaa !11
  %10 = load ptr, ptr %0, align 8, !tbaa !6
  %11 = getelementptr inbounds %"struct.std::_Vector_base<std::unique_ptr<benchmark::internal::Benchmark>, std::allocator<std::unique_ptr<benchmark::internal::Benchmark>>>::_Vector_impl_data", ptr %0, i64 0, i32 2
  %12 = load ptr, ptr %11, align 8, !tbaa !17
  %13 = icmp eq ptr %9, %12
  br i1 %13, label %18, label %14

14:                                               ; preds = %7
  %15 = load i64, ptr %1, align 8, !tbaa !12
  store i64 %15, ptr %9, align 8, !tbaa !12
  store ptr null, ptr %1, align 8, !tbaa !12
  %16 = load ptr, ptr %8, align 8, !tbaa !11
  %17 = getelementptr inbounds %"class.std::unique_ptr", ptr %16, i64 1
  store ptr %17, ptr %8, align 8, !tbaa !11
  br label %19

18:                                               ; preds = %7
  invoke void @_ZNSt6vectorISt10unique_ptrIN9benchmark8internal9BenchmarkESt14default_deleteIS3_EESaIS6_EE17_M_realloc_insertIJS6_EEEvN9__gnu_cxx17__normal_iteratorIPS6_S8_EEDpOT_(ptr noundef nonnull align 8 dereferenceable(24) %0, ptr %9, ptr noundef nonnull align 8 dereferenceable(8) %1)
          to label %19 unwind label %25

19:                                               ; preds = %14, %18
  %20 = tail call i32 @pthread_mutex_unlock(ptr noundef nonnull %3) #32
  %21 = ptrtoint ptr %9 to i64
  %22 = ptrtoint ptr %10 to i64
  %23 = sub i64 %21, %22
  %24 = ashr exact i64 %23, 3
  ret i64 %24

25:                                               ; preds = %18
  %26 = landingpad { ptr, i32 }
          cleanup
  %27 = tail call i32 @pthread_mutex_unlock(ptr noundef nonnull %3) #32
  resume { ptr, i32 } %26
}

; Function Attrs: mustprogress nocallback nofree nosync nounwind willreturn memory(argmem: readwrite)
declare void @llvm.lifetime.start.p0(i64 immarg, ptr nocapture) #6

; Function Attrs: mustprogress nocallback nofree nosync nounwind willreturn memory(argmem: readwrite)
declare void @llvm.lifetime.end.p0(i64 immarg, ptr nocapture) #6

; Function Attrs: uwtable
define hidden void @_ZN9benchmark8internal17BenchmarkFamilies15ClearBenchmarksEv(ptr noundef nonnull align 8 dereferenceable(64) %0) local_unnamed_addr #5 align 2 personality ptr @__gxx_personality_v0 {
  %2 = getelementptr inbounds %"class.benchmark::internal::BenchmarkFamilies", ptr %0, i64 0, i32 1
  %3 = tail call i32 @pthread_mutex_lock(ptr noundef nonnull %2) #32
  %4 = icmp eq i32 %3, 0
  br i1 %4, label %6, label %5

5:                                                ; preds = %1
  tail call void @_ZSt20__throw_system_errori(i32 noundef %3) #34
  unreachable

6:                                                ; preds = %1
  %7 = load ptr, ptr %0, align 8, !tbaa !6
  %8 = getelementptr inbounds %"struct.std::_Vector_base<std::unique_ptr<benchmark::internal::Benchmark>, std::allocator<std::unique_ptr<benchmark::internal::Benchmark>>>::_Vector_impl_data", ptr %0, i64 0, i32 1
  %9 = load ptr, ptr %8, align 8, !tbaa !11
  %10 = icmp eq ptr %9, %7
  br i1 %10, label %23, label %11

11:                                               ; preds = %6, %19
  %12 = phi ptr [ %20, %19 ], [ %7, %6 ]
  %13 = load ptr, ptr %12, align 8, !tbaa !12
  %14 = icmp eq ptr %13, null
  br i1 %14, label %19, label %15

15:                                               ; preds = %11
  %16 = load ptr, ptr %13, align 8, !tbaa !13
  %17 = getelementptr inbounds ptr, ptr %16, i64 1
  %18 = load ptr, ptr %17, align 8
  tail call void %18(ptr noundef nonnull align 8 dereferenceable(216) %13) #32
  br label %19

19:                                               ; preds = %15, %11
  store ptr null, ptr %12, align 8, !tbaa !12
  %20 = getelementptr inbounds %"class.std::unique_ptr", ptr %12, i64 1
  %21 = icmp eq ptr %20, %9
  br i1 %21, label %22, label %11, !llvm.loop !15

22:                                               ; preds = %19
  store ptr %7, ptr %8, align 8, !tbaa !11
  br label %23

23:                                               ; preds = %6, %22
  %24 = getelementptr inbounds %"struct.std::_Vector_base<std::unique_ptr<benchmark::internal::Benchmark>, std::allocator<std::unique_ptr<benchmark::internal::Benchmark>>>::_Vector_impl_data", ptr %0, i64 0, i32 2
  %25 = load ptr, ptr %24, align 8, !tbaa !17
  %26 = icmp eq ptr %25, %7
  br i1 %26, label %29, label %27

27:                                               ; preds = %23
  %28 = tail call noundef zeroext i1 @_ZNSt19__shrink_to_fit_auxISt6vectorISt10unique_ptrIN9benchmark8internal9BenchmarkESt14default_deleteIS4_EESaIS7_EELb1EE8_S_do_itERS9_(ptr noundef nonnull align 8 dereferenceable(24) %0) #32
  br label %29

29:                                               ; preds = %27, %23
  %30 = tail call i32 @pthread_mutex_unlock(ptr noundef nonnull %2) #32
  ret void
}

; Function Attrs: uwtable
define hidden noundef zeroext i1 @_ZN9benchmark8internal17BenchmarkFamilies14FindBenchmarksENSt7__cxx1112basic_stringIcSt11char_traitsIcESaIcEEEPSt6vectorINS0_17BenchmarkInstanceESaIS9_EEPSo(ptr noundef nonnull align 8 dereferenceable(64) %0, ptr noundef %1, ptr noundef %2, ptr noundef %3) local_unnamed_addr #5 align 2 personality ptr @__gxx_personality_v0 {
  %5 = alloca %"class.std::__cxx11::match_results", align 8
  %6 = alloca %"class.std::__cxx11::match_results", align 8
  %7 = alloca %"class.std::__cxx11::basic_string", align 8
  %8 = alloca %"class.benchmark::Regex", align 8
  %9 = alloca %"class.std::vector.15", align 8
  %10 = alloca %"class.benchmark::internal::BenchmarkInstance", align 8
  %11 = alloca %"class.std::__cxx11::basic_string", align 8
  %12 = load atomic i8, ptr @_ZGVZN9benchmark8internal18GetNullLogInstanceEvE3log acquire, align 8
  %13 = icmp eq i8 %12, 0
  br i1 %13, label %14, label %18, !prof !5

14:                                               ; preds = %4
  %15 = tail call i32 @__cxa_guard_acquire(ptr nonnull @_ZGVZN9benchmark8internal18GetNullLogInstanceEvE3log) #32
  %16 = icmp eq i32 %15, 0
  br i1 %16, label %18, label %17

17:                                               ; preds = %14
  store ptr null, ptr @_ZZN9benchmark8internal18GetNullLogInstanceEvE3log, align 8, !tbaa !18
  tail call void @__cxa_guard_release(ptr nonnull @_ZGVZN9benchmark8internal18GetNullLogInstanceEvE3log) #32
  br label %18

18:                                               ; preds = %4, %14, %17
  call void @llvm.lifetime.start.p0(i64 32, ptr nonnull %7) #32
  %19 = getelementptr inbounds %"class.std::__cxx11::basic_string", ptr %7, i64 0, i32 2
  store ptr %19, ptr %7, align 8, !tbaa !20
  %20 = getelementptr inbounds %"class.std::__cxx11::basic_string", ptr %7, i64 0, i32 1
  store i64 0, ptr %20, align 8, !tbaa !22
  store i8 0, ptr %19, align 8, !tbaa !25
  call void @llvm.lifetime.start.p0(i64 40, ptr nonnull %8) #32
  store i8 0, ptr %8, align 8, !tbaa !26
  %21 = getelementptr inbounds %"class.benchmark::Regex", ptr %8, i64 0, i32 1
  store i32 16, ptr %21, align 8, !tbaa !35
  %22 = getelementptr inbounds %"class.benchmark::Regex", ptr %8, i64 0, i32 1, i32 1
  call void @_ZNSt6localeC1Ev(ptr noundef nonnull align 8 dereferenceable(8) %22) #32
  %23 = getelementptr inbounds %"class.benchmark::Regex", ptr %8, i64 0, i32 1, i32 2
  call void @llvm.memset.p0.i64(ptr noundef nonnull align 8 dereferenceable(16) %23, i8 0, i64 16, i1 false)
  %24 = load ptr, ptr %1, align 8, !tbaa !36
  %25 = load i8, ptr %24, align 1, !tbaa !25
  %26 = icmp ne i8 %25, 45
  br i1 %26, label %35, label %27

27:                                               ; preds = %18
  %28 = getelementptr inbounds %"class.std::__cxx11::basic_string", ptr %1, i64 0, i32 1
  %29 = load i64, ptr %28, align 8, !tbaa !22
  %30 = icmp ne i64 %29, 0
  %31 = zext i1 %30 to i64
  %32 = invoke noundef nonnull align 8 dereferenceable(32) ptr @_ZNSt7__cxx1112basic_stringIcSt11char_traitsIcESaIcEE10_M_replaceEmmPKcm(ptr noundef nonnull align 8 dereferenceable(32) %1, i64 noundef 0, i64 noundef %31, ptr noundef nonnull @.str, i64 noundef 0)
          to label %35 unwind label %33

33:                                               ; preds = %70, %67, %62, %61, %52, %40, %38, %27, %35
  %34 = landingpad { ptr, i32 }
          cleanup
  br label %538

35:                                               ; preds = %27, %18
  %36 = invoke noundef zeroext i1 @_ZN9benchmark5Regex4InitERKNSt7__cxx1112basic_stringIcSt11char_traitsIcESaIcEEEPS6_(ptr noundef nonnull align 8 dereferenceable(40) %8, ptr noundef nonnull align 8 dereferenceable(32) %1, ptr noundef nonnull %7)
          to label %37 unwind label %33

37:                                               ; preds = %35
  br i1 %36, label %72, label %38

38:                                               ; preds = %37
  %39 = invoke noundef nonnull align 8 dereferenceable(8) ptr @_ZSt16__ostream_insertIcSt11char_traitsIcEERSt13basic_ostreamIT_T0_ES6_PKS3_l(ptr noundef nonnull align 8 dereferenceable(8) %3, ptr noundef nonnull @.str.2, i64 noundef 32)
          to label %40 unwind label %33

40:                                               ; preds = %38
  %41 = load ptr, ptr %7, align 8, !tbaa !36
  %42 = load i64, ptr %20, align 8, !tbaa !22
  %43 = invoke noundef nonnull align 8 dereferenceable(8) ptr @_ZSt16__ostream_insertIcSt11char_traitsIcEERSt13basic_ostreamIT_T0_ES6_PKS3_l(ptr noundef nonnull align 8 dereferenceable(8) %3, ptr noundef %41, i64 noundef %42)
          to label %44 unwind label %33

44:                                               ; preds = %40
  %45 = load ptr, ptr %43, align 8, !tbaa !13
  %46 = getelementptr i8, ptr %45, i64 -24
  %47 = load i64, ptr %46, align 8
  %48 = getelementptr inbounds i8, ptr %43, i64 %47
  %49 = getelementptr inbounds %"class.std::basic_ios", ptr %48, i64 0, i32 5
  %50 = load ptr, ptr %49, align 8, !tbaa !37
  %51 = icmp eq ptr %50, null
  br i1 %51, label %52, label %54

52:                                               ; preds = %44
  invoke void @_ZSt16__throw_bad_castv() #34
          to label %53 unwind label %33

53:                                               ; preds = %52
  unreachable

54:                                               ; preds = %44
  %55 = getelementptr inbounds %"class.std::ctype", ptr %50, i64 0, i32 8
  %56 = load i8, ptr %55, align 8, !tbaa !44
  %57 = icmp eq i8 %56, 0
  br i1 %57, label %61, label %58

58:                                               ; preds = %54
  %59 = getelementptr inbounds %"class.std::ctype", ptr %50, i64 0, i32 9, i64 10
  %60 = load i8, ptr %59, align 1, !tbaa !25
  br label %67

61:                                               ; preds = %54
  invoke void @_ZNKSt5ctypeIcE13_M_widen_initEv(ptr noundef nonnull align 8 dereferenceable(570) %50)
          to label %62 unwind label %33

62:                                               ; preds = %61
  %63 = load ptr, ptr %50, align 8, !tbaa !13
  %64 = getelementptr inbounds ptr, ptr %63, i64 6
  %65 = load ptr, ptr %64, align 8
  %66 = invoke noundef signext i8 %65(ptr noundef nonnull align 8 dereferenceable(570) %50, i8 noundef signext 10)
          to label %67 unwind label %33

67:                                               ; preds = %62, %58
  %68 = phi i8 [ %60, %58 ], [ %66, %62 ]
  %69 = invoke noundef nonnull align 8 dereferenceable(8) ptr @_ZNSo3putEc(ptr noundef nonnull align 8 dereferenceable(8) %43, i8 noundef signext %68)
          to label %70 unwind label %33

70:                                               ; preds = %67
  %71 = invoke noundef nonnull align 8 dereferenceable(8) ptr @_ZNSo5flushEv(ptr noundef nonnull align 8 dereferenceable(8) %69)
          to label %505 unwind label %33

72:                                               ; preds = %37
  %73 = invoke noalias noundef nonnull dereferenceable(4) ptr @_Znwm(i64 noundef 4) #35
          to label %76 unwind label %74

74:                                               ; preds = %72
  %75 = landingpad { ptr, i32 }
          cleanup
  br label %538

76:                                               ; preds = %72
  %77 = getelementptr inbounds i32, ptr %73, i64 1
  store i32 1, ptr %73, align 4
  %78 = getelementptr inbounds %"class.benchmark::internal::BenchmarkFamilies", ptr %0, i64 0, i32 1
  %79 = call i32 @pthread_mutex_lock(ptr noundef nonnull %78) #32
  %80 = icmp eq i32 %79, 0
  br i1 %80, label %83, label %81

81:                                               ; preds = %76
  invoke void @_ZSt20__throw_system_errori(i32 noundef %79) #34
          to label %82 unwind label %123

82:                                               ; preds = %81
  unreachable

83:                                               ; preds = %76
  %84 = load ptr, ptr %0, align 8, !tbaa !12
  %85 = getelementptr inbounds %"struct.std::_Vector_base<std::unique_ptr<benchmark::internal::Benchmark>, std::allocator<std::unique_ptr<benchmark::internal::Benchmark>>>::_Vector_impl_data", ptr %0, i64 0, i32 1
  %86 = load ptr, ptr %85, align 8, !tbaa !12
  %87 = icmp eq ptr %84, %86
  br i1 %87, label %121, label %88

88:                                               ; preds = %83
  %89 = getelementptr inbounds %"struct.std::_Vector_base<benchmark::internal::BenchmarkInstance, std::allocator<benchmark::internal::BenchmarkInstance>>::_Vector_impl_data", ptr %2, i64 0, i32 1
  %90 = getelementptr inbounds %"class.std::__cxx11::basic_string", ptr %11, i64 0, i32 1
  %91 = getelementptr inbounds %"struct.std::_Vector_base<benchmark::internal::BenchmarkInstance, std::allocator<benchmark::internal::BenchmarkInstance>>::_Vector_impl_data", ptr %2, i64 0, i32 2
  %92 = getelementptr inbounds %"class.std::__cxx11::basic_string", ptr %10, i64 0, i32 2
  %93 = getelementptr inbounds %"class.std::__cxx11::basic_string", ptr %10, i64 0, i32 1
  %94 = getelementptr inbounds %"struct.benchmark::BenchmarkName", ptr %10, i64 0, i32 1
  %95 = getelementptr inbounds %"struct.benchmark::BenchmarkName", ptr %10, i64 0, i32 1, i32 2
  %96 = getelementptr inbounds %"struct.benchmark::BenchmarkName", ptr %10, i64 0, i32 1, i32 1
  %97 = getelementptr inbounds %"struct.benchmark::BenchmarkName", ptr %10, i64 0, i32 2
  %98 = getelementptr inbounds %"struct.benchmark::BenchmarkName", ptr %10, i64 0, i32 2, i32 2
  %99 = getelementptr inbounds %"struct.benchmark::BenchmarkName", ptr %10, i64 0, i32 2, i32 1
  %100 = getelementptr inbounds %"struct.benchmark::BenchmarkName", ptr %10, i64 0, i32 3
  %101 = getelementptr inbounds %"struct.benchmark::BenchmarkName", ptr %10, i64 0, i32 3, i32 2
  %102 = getelementptr inbounds %"struct.benchmark::BenchmarkName", ptr %10, i64 0, i32 3, i32 1
  %103 = getelementptr inbounds %"struct.benchmark::BenchmarkName", ptr %10, i64 0, i32 4
  %104 = getelementptr inbounds %"struct.benchmark::BenchmarkName", ptr %10, i64 0, i32 4, i32 2
  %105 = getelementptr inbounds %"struct.benchmark::BenchmarkName", ptr %10, i64 0, i32 4, i32 1
  %106 = getelementptr inbounds %"struct.benchmark::BenchmarkName", ptr %10, i64 0, i32 5
  %107 = getelementptr inbounds %"struct.benchmark::BenchmarkName", ptr %10, i64 0, i32 5, i32 2
  %108 = getelementptr inbounds %"struct.benchmark::BenchmarkName", ptr %10, i64 0, i32 5, i32 1
  %109 = getelementptr inbounds %"struct.benchmark::BenchmarkName", ptr %10, i64 0, i32 6
  %110 = getelementptr inbounds %"struct.benchmark::BenchmarkName", ptr %10, i64 0, i32 6, i32 2
  %111 = getelementptr inbounds %"struct.benchmark::BenchmarkName", ptr %10, i64 0, i32 6, i32 1
  %112 = getelementptr inbounds %"class.benchmark::internal::BenchmarkInstance", ptr %10, i64 0, i32 1
  %113 = getelementptr inbounds %"class.benchmark::internal::BenchmarkInstance", ptr %10, i64 0, i32 12, i32 0, i32 0, i32 1, i32 0, i32 1
  %114 = getelementptr inbounds %"class.benchmark::internal::BenchmarkInstance", ptr %10, i64 0, i32 12, i32 0, i32 0, i32 1
  %115 = getelementptr inbounds %"class.benchmark::internal::BenchmarkInstance", ptr %10, i64 0, i32 12, i32 0, i32 0, i32 1, i32 0, i32 2
  %116 = getelementptr inbounds %"class.benchmark::internal::BenchmarkInstance", ptr %10, i64 0, i32 12, i32 0, i32 0, i32 1, i32 0, i32 3
  %117 = getelementptr inbounds %"class.benchmark::internal::BenchmarkInstance", ptr %10, i64 0, i32 12, i32 0, i32 0, i32 1, i32 1
  %118 = getelementptr inbounds %"class.benchmark::internal::BenchmarkInstance", ptr %10, i64 0, i32 13
  %119 = getelementptr inbounds %"class.std::__cxx11::basic_string", ptr %11, i64 0, i32 2
  %120 = getelementptr inbounds %"class.benchmark::internal::BenchmarkInstance", ptr %10, i64 0, i32 12
  br label %125

121:                                              ; preds = %496, %83
  %122 = call i32 @pthread_mutex_unlock(ptr noundef nonnull %78) #32
  call void @_ZdlPv(ptr noundef nonnull %73) #33
  br label %505

123:                                              ; preds = %81
  %124 = landingpad { ptr, i32 }
          cleanup
  br label %503

125:                                              ; preds = %88, %496
  %126 = phi i32 [ 0, %88 ], [ %497, %496 ]
  %127 = phi ptr [ %84, %88 ], [ %498, %496 ]
  %128 = load ptr, ptr %127, align 8, !tbaa !12
  %129 = icmp eq ptr %128, null
  br i1 %129, label %496, label %130

130:                                              ; preds = %125
  %131 = getelementptr inbounds %"class.benchmark::internal::Benchmark", ptr %128, i64 0, i32 4
  %132 = load ptr, ptr %131, align 8, !tbaa !12
  %133 = getelementptr inbounds %"class.benchmark::internal::Benchmark", ptr %128, i64 0, i32 4, i32 0, i32 0, i32 0, i32 1
  %134 = load ptr, ptr %133, align 8, !tbaa !12
  %135 = icmp eq ptr %132, %134
  br i1 %135, label %136, label %142

136:                                              ; preds = %130
  %137 = getelementptr inbounds %"class.benchmark::internal::Benchmark", ptr %128, i64 0, i32 3
  %138 = load ptr, ptr %137, align 8, !tbaa !12
  %139 = getelementptr inbounds %"class.benchmark::internal::Benchmark", ptr %128, i64 0, i32 3, i32 0, i32 0, i32 0, i32 1
  %140 = load ptr, ptr %139, align 8, !tbaa !12
  %141 = icmp eq ptr %138, %140
  br i1 %141, label %156, label %146

142:                                              ; preds = %130
  %143 = getelementptr inbounds %"struct.std::_Vector_base<long, std::allocator<long>>::_Vector_impl_data", ptr %132, i64 0, i32 1
  %144 = load ptr, ptr %143, align 8, !tbaa !47
  %145 = load ptr, ptr %132, align 8, !tbaa !49
  br label %146

146:                                              ; preds = %136, %142
  %147 = phi ptr [ %144, %142 ], [ %140, %136 ]
  %148 = phi ptr [ %145, %142 ], [ %138, %136 ]
  %149 = phi i64 [ 3, %142 ], [ 5, %136 ]
  %150 = ptrtoint ptr %147 to i64
  %151 = ptrtoint ptr %148 to i64
  %152 = sub i64 %150, %151
  %153 = lshr exact i64 %152, %149
  %154 = and i64 %153, 4294967295
  %155 = icmp eq i64 %154, 4294967295
  br i1 %155, label %156, label %174

156:                                              ; preds = %136, %146
  call void @llvm.lifetime.start.p0(i64 24, ptr nonnull %9) #32
  call void @llvm.memset.p0.i64(ptr noundef nonnull align 8 dereferenceable(24) %9, i8 0, i64 24, i1 false)
  %157 = invoke noundef ptr @_ZN9benchmark8internal9Benchmark4ArgsERKSt6vectorIlSaIlEE(ptr noundef nonnull align 8 dereferenceable(216) %128, ptr noundef nonnull align 8 dereferenceable(24) %9)
          to label %158 unwind label %168

158:                                              ; preds = %156
  %159 = load ptr, ptr %9, align 8, !tbaa !49
  %160 = icmp eq ptr %159, null
  br i1 %160, label %162, label %161

161:                                              ; preds = %158
  call void @_ZdlPv(ptr noundef nonnull %159) #33
  br label %162

162:                                              ; preds = %158, %161
  call void @llvm.lifetime.end.p0(i64 24, ptr nonnull %9) #32
  %163 = load ptr, ptr %127, align 8, !tbaa !12
  %164 = getelementptr inbounds %"class.benchmark::internal::Benchmark", ptr %163, i64 0, i32 4, i32 0, i32 0, i32 0, i32 1
  %165 = load ptr, ptr %164, align 8, !tbaa !50
  %166 = getelementptr inbounds %"class.benchmark::internal::Benchmark", ptr %163, i64 0, i32 4
  %167 = load ptr, ptr %166, align 8, !tbaa !52
  br label %174

168:                                              ; preds = %156
  %169 = landingpad { ptr, i32 }
          cleanup
  %170 = load ptr, ptr %9, align 8, !tbaa !49
  %171 = icmp eq ptr %170, null
  br i1 %171, label %173, label %172

172:                                              ; preds = %168
  call void @_ZdlPv(ptr noundef nonnull %170) #33
  br label %173

173:                                              ; preds = %168, %172
  call void @llvm.lifetime.end.p0(i64 24, ptr nonnull %9) #32
  br label %500

174:                                              ; preds = %162, %146
  %175 = phi ptr [ %167, %162 ], [ %132, %146 ]
  %176 = phi ptr [ %165, %162 ], [ %134, %146 ]
  %177 = phi ptr [ %163, %162 ], [ %128, %146 ]
  %178 = getelementptr inbounds %"class.benchmark::internal::Benchmark", ptr %177, i64 0, i32 17
  %179 = load ptr, ptr %178, align 8, !tbaa !12
  %180 = getelementptr inbounds %"class.benchmark::internal::Benchmark", ptr %177, i64 0, i32 17, i32 0, i32 0, i32 0, i32 1
  %181 = load ptr, ptr %180, align 8, !tbaa !12
  %182 = icmp eq ptr %179, %181
  %183 = ptrtoint ptr %176 to i64
  %184 = ptrtoint ptr %175 to i64
  %185 = sub i64 %183, %184
  %186 = sdiv exact i64 %185, 24
  %187 = getelementptr inbounds %"class.benchmark::internal::Benchmark", ptr %177, i64 0, i32 17, i32 0, i32 0, i32 0, i32 1
  %188 = select i1 %182, ptr %77, ptr %181
  %189 = select i1 %182, ptr %73, ptr %179
  %190 = ptrtoint ptr %188 to i64
  %191 = ptrtoint ptr %189 to i64
  %192 = sub i64 %190, %191
  %193 = ashr exact i64 %192, 2
  %194 = mul i64 %193, %186
  %195 = icmp ugt i64 %194, 100
  br i1 %195, label %196, label %213

196:                                              ; preds = %174
  %197 = invoke noundef nonnull align 8 dereferenceable(8) ptr @_ZSt16__ostream_insertIcSt11char_traitsIcEERSt13basic_ostreamIT_T0_ES6_PKS3_l(ptr noundef nonnull align 8 dereferenceable(8) %3, ptr noundef nonnull @.str.3, i64 noundef 36)
          to label %198 unwind label %211

198:                                              ; preds = %196
  %199 = load ptr, ptr %127, align 8, !tbaa !12
  %200 = getelementptr inbounds %"class.benchmark::internal::Benchmark", ptr %199, i64 0, i32 1
  %201 = load ptr, ptr %200, align 8, !tbaa !36
  %202 = getelementptr inbounds %"class.benchmark::internal::Benchmark", ptr %199, i64 0, i32 1, i32 1
  %203 = load i64, ptr %202, align 8, !tbaa !22
  %204 = invoke noundef nonnull align 8 dereferenceable(8) ptr @_ZSt16__ostream_insertIcSt11char_traitsIcEERSt13basic_ostreamIT_T0_ES6_PKS3_l(ptr noundef nonnull align 8 dereferenceable(8) %3, ptr noundef %201, i64 noundef %203)
          to label %205 unwind label %211

205:                                              ; preds = %198
  %206 = invoke noundef nonnull align 8 dereferenceable(8) ptr @_ZSt16__ostream_insertIcSt11char_traitsIcEERSt13basic_ostreamIT_T0_ES6_PKS3_l(ptr noundef nonnull align 8 dereferenceable(8) %204, ptr noundef nonnull @.str.4, i64 noundef 27)
          to label %207 unwind label %211

207:                                              ; preds = %205
  %208 = invoke noundef nonnull align 8 dereferenceable(8) ptr @_ZNSo9_M_insertImEERSoT_(ptr noundef nonnull align 8 dereferenceable(8) %204, i64 noundef %194)
          to label %209 unwind label %211

209:                                              ; preds = %207
  %210 = invoke noundef nonnull align 8 dereferenceable(8) ptr @_ZSt16__ostream_insertIcSt11char_traitsIcEERSt13basic_ostreamIT_T0_ES6_PKS3_l(ptr noundef nonnull align 8 dereferenceable(8) %208, ptr noundef nonnull @.str.5, i64 noundef 8)
          to label %213 unwind label %211

211:                                              ; preds = %209, %207, %205, %198, %196, %216
  %212 = landingpad { ptr, i32 }
          cleanup
  br label %500

213:                                              ; preds = %209, %174
  %214 = call noundef i32 @_ZNKSt7__cxx1112basic_stringIcSt11char_traitsIcESaIcEE7compareEPKc(ptr noundef nonnull align 8 dereferenceable(32) %1, ptr noundef nonnull @.str.6) #32
  %215 = icmp eq i32 %214, 0
  br i1 %215, label %216, label %224

216:                                              ; preds = %213
  %217 = load ptr, ptr %89, align 8, !tbaa !53
  %218 = load ptr, ptr %2, align 8, !tbaa !55
  %219 = ptrtoint ptr %217 to i64
  %220 = ptrtoint ptr %218 to i64
  %221 = sub i64 %219, %220
  %222 = sdiv exact i64 %221, 384
  %223 = add i64 %222, %194
  invoke void @_ZNSt6vectorIN9benchmark8internal17BenchmarkInstanceESaIS2_EE7reserveEm(ptr noundef nonnull align 8 dereferenceable(24) %2, i64 noundef %223)
          to label %224 unwind label %211

224:                                              ; preds = %216, %213
  %225 = load ptr, ptr %127, align 8, !tbaa !12
  %226 = getelementptr inbounds %"class.benchmark::internal::Benchmark", ptr %225, i64 0, i32 4
  %227 = load ptr, ptr %226, align 8, !tbaa !12
  %228 = getelementptr inbounds %"class.benchmark::internal::Benchmark", ptr %225, i64 0, i32 4, i32 0, i32 0, i32 0, i32 1
  %229 = load ptr, ptr %228, align 8, !tbaa !12
  %230 = icmp eq ptr %227, %229
  br i1 %230, label %496, label %231

231:                                              ; preds = %224
  br i1 %182, label %236, label %232

232:                                              ; preds = %231
  %233 = load ptr, ptr %178, align 8, !tbaa !12
  %234 = load ptr, ptr %187, align 8, !tbaa !12
  %235 = icmp eq ptr %233, %234
  br i1 %235, label %496, label %236

236:                                              ; preds = %231, %232
  br label %237

237:                                              ; preds = %236, %248
  %238 = phi i32 [ %250, %248 ], [ %126, %236 ]
  %239 = phi i32 [ %249, %248 ], [ 0, %236 ]
  %240 = phi ptr [ %251, %248 ], [ %227, %236 ]
  br i1 %182, label %245, label %241

241:                                              ; preds = %237
  %242 = load ptr, ptr %178, align 8, !tbaa !12
  %243 = load ptr, ptr %187, align 8, !tbaa !12
  %244 = icmp eq ptr %242, %243
  br i1 %244, label %248, label %245

245:                                              ; preds = %237, %241
  %246 = phi ptr [ %243, %241 ], [ %77, %237 ]
  %247 = phi ptr [ %242, %241 ], [ %73, %237 ]
  br label %253

248:                                              ; preds = %489, %241
  %249 = phi i32 [ %239, %241 ], [ %451, %489 ]
  %250 = phi i32 [ %238, %241 ], [ %452, %489 ]
  %251 = getelementptr inbounds %"class.std::vector.15", ptr %240, i64 1
  %252 = icmp eq ptr %251, %229
  br i1 %252, label %496, label %237, !llvm.loop !56

253:                                              ; preds = %245, %489
  %254 = phi i32 [ %452, %489 ], [ %238, %245 ]
  %255 = phi i32 [ %451, %489 ], [ %239, %245 ]
  %256 = phi ptr [ %490, %489 ], [ %247, %245 ]
  %257 = load i32, ptr %256, align 4, !tbaa !58
  call void @llvm.lifetime.start.p0(i64 384, ptr nonnull %10) #32
  %258 = load ptr, ptr %127, align 8, !tbaa !12
  invoke void @_ZN9benchmark8internal17BenchmarkInstanceC1EPNS0_9BenchmarkEiiRKSt6vectorIlSaIlEEi(ptr noundef nonnull align 8 dereferenceable(384) %10, ptr noundef %258, i32 noundef %126, i32 noundef %255, ptr noundef nonnull align 8 dereferenceable(24) %240, i32 noundef %257)
          to label %259 unwind label %439

259:                                              ; preds = %253
  call void @llvm.lifetime.start.p0(i64 32, ptr nonnull %11) #32
  invoke void @_ZNK9benchmark13BenchmarkName3strB5cxx11Ev(ptr nonnull sret(%"class.std::__cxx11::basic_string") align 8 %11, ptr noundef nonnull align 8 dereferenceable(224) %10)
          to label %260 unwind label %441

260:                                              ; preds = %259
  %261 = load i8, ptr %8, align 8, !tbaa !26, !range !59, !noundef !60
  %262 = icmp eq i8 %261, 0
  br i1 %262, label %300, label %263

263:                                              ; preds = %260
  %264 = load ptr, ptr %11, align 8, !tbaa !36
  %265 = load i64, ptr %90, align 8, !tbaa !22
  %266 = getelementptr inbounds i8, ptr %264, i64 %265
  call void @llvm.lifetime.start.p0(i64 32, ptr nonnull %6) #32
  call void @llvm.memset.p0.i64(ptr noundef nonnull align 8 dereferenceable(32) %6, i8 0, i64 32, i1 false)
  %267 = invoke noundef zeroext i1 @_ZNSt8__detail17__regex_algo_implIN9__gnu_cxx17__normal_iteratorIPKcNSt7__cxx1112basic_stringIcSt11char_traitsIcESaIcEEEEESaINS5_9sub_matchISB_EEEcNS5_12regex_traitsIcEEEEbT_SH_RNS5_13match_resultsISH_T0_EERKNS5_11basic_regexIT1_T2_EENSt15regex_constants15match_flag_typeENS_20_RegexExecutorPolicyEb(ptr %264, ptr %266, ptr noundef nonnull align 8 dereferenceable(32) %6, ptr noundef nonnull align 8 dereferenceable(32) %21, i32 noundef 0, i32 noundef 0, i1 noundef zeroext false)
          to label %268 unwind label %272

268:                                              ; preds = %263
  %269 = load ptr, ptr %6, align 8, !tbaa !61
  %270 = icmp eq ptr %269, null
  br i1 %270, label %278, label %271

271:                                              ; preds = %268
  call void @_ZdlPv(ptr noundef nonnull %269) #33
  br label %278

272:                                              ; preds = %263
  %273 = landingpad { ptr, i32 }
          cleanup
  %274 = load ptr, ptr %6, align 8, !tbaa !61
  %275 = icmp eq ptr %274, null
  br i1 %275, label %277, label %276

276:                                              ; preds = %272
  call void @_ZdlPv(ptr noundef nonnull %274) #33
  br label %277

277:                                              ; preds = %276, %272
  call void @llvm.lifetime.end.p0(i64 32, ptr nonnull %6) #32
  br label %445

278:                                              ; preds = %271, %268
  call void @llvm.lifetime.end.p0(i64 32, ptr nonnull %6) #32
  %279 = and i1 %26, %267
  br i1 %279, label %301, label %280

280:                                              ; preds = %278
  %281 = load i8, ptr %8, align 8, !tbaa !26
  %282 = icmp eq i8 %281, 0
  br i1 %282, label %300, label %283

283:                                              ; preds = %280
  %284 = load ptr, ptr %11, align 8, !tbaa !36
  %285 = load i64, ptr %90, align 8, !tbaa !22
  %286 = getelementptr inbounds i8, ptr %284, i64 %285
  call void @llvm.lifetime.start.p0(i64 32, ptr nonnull %5) #32
  call void @llvm.memset.p0.i64(ptr noundef nonnull align 8 dereferenceable(32) %5, i8 0, i64 32, i1 false)
  %287 = invoke noundef zeroext i1 @_ZNSt8__detail17__regex_algo_implIN9__gnu_cxx17__normal_iteratorIPKcNSt7__cxx1112basic_stringIcSt11char_traitsIcESaIcEEEEESaINS5_9sub_matchISB_EEEcNS5_12regex_traitsIcEEEEbT_SH_RNS5_13match_resultsISH_T0_EERKNS5_11basic_regexIT1_T2_EENSt15regex_constants15match_flag_typeENS_20_RegexExecutorPolicyEb(ptr %284, ptr %286, ptr noundef nonnull align 8 dereferenceable(32) %5, ptr noundef nonnull align 8 dereferenceable(32) %21, i32 noundef 0, i32 noundef 0, i1 noundef zeroext false)
          to label %288 unwind label %292

288:                                              ; preds = %283
  %289 = load ptr, ptr %5, align 8, !tbaa !61
  %290 = icmp eq ptr %289, null
  br i1 %290, label %298, label %291

291:                                              ; preds = %288
  call void @_ZdlPv(ptr noundef nonnull %289) #33
  br label %298

292:                                              ; preds = %283
  %293 = landingpad { ptr, i32 }
          cleanup
  %294 = load ptr, ptr %5, align 8, !tbaa !61
  %295 = icmp eq ptr %294, null
  br i1 %295, label %297, label %296

296:                                              ; preds = %292
  call void @_ZdlPv(ptr noundef nonnull %294) #33
  br label %297

297:                                              ; preds = %296, %292
  call void @llvm.lifetime.end.p0(i64 32, ptr nonnull %5) #32
  br label %445

298:                                              ; preds = %291, %288
  call void @llvm.lifetime.end.p0(i64 32, ptr nonnull %5) #32
  %299 = or i1 %26, %287
  br i1 %299, label %450, label %301

300:                                              ; preds = %260, %280
  br i1 %26, label %450, label %301

301:                                              ; preds = %298, %278, %300
  %302 = load ptr, ptr %89, align 8, !tbaa !53
  %303 = load ptr, ptr %91, align 8, !tbaa !63
  %304 = icmp eq ptr %302, %303
  br i1 %304, label %433, label %305

305:                                              ; preds = %301
  %306 = getelementptr inbounds %"class.std::__cxx11::basic_string", ptr %302, i64 0, i32 2
  store ptr %306, ptr %302, align 8, !tbaa !20
  %307 = load ptr, ptr %10, align 8, !tbaa !36
  %308 = icmp eq ptr %307, %92
  br i1 %308, label %309, label %314

309:                                              ; preds = %305
  %310 = load i64, ptr %93, align 8, !tbaa !22
  %311 = add i64 %310, 1
  %312 = icmp eq i64 %311, 0
  br i1 %312, label %317, label %313

313:                                              ; preds = %309
  call void @llvm.memcpy.p0.p0.i64(ptr nonnull align 8 %306, ptr nonnull align 8 %92, i64 %311, i1 false)
  br label %317

314:                                              ; preds = %305
  store ptr %307, ptr %302, align 8, !tbaa !36
  %315 = load i64, ptr %92, align 8, !tbaa !25
  store i64 %315, ptr %306, align 8, !tbaa !25
  %316 = load i64, ptr %93, align 8, !tbaa !22
  br label %317

317:                                              ; preds = %314, %313, %309
  %318 = phi i64 [ %316, %314 ], [ %310, %313 ], [ -1, %309 ]
  %319 = getelementptr inbounds %"class.std::__cxx11::basic_string", ptr %302, i64 0, i32 1
  store i64 %318, ptr %319, align 8, !tbaa !22
  store ptr %92, ptr %10, align 8, !tbaa !36
  store i64 0, ptr %93, align 8, !tbaa !22
  store i8 0, ptr %92, align 8, !tbaa !25
  %320 = getelementptr inbounds %"struct.benchmark::BenchmarkName", ptr %302, i64 0, i32 1
  %321 = getelementptr inbounds %"struct.benchmark::BenchmarkName", ptr %302, i64 0, i32 1, i32 2
  store ptr %321, ptr %320, align 8, !tbaa !20
  %322 = load ptr, ptr %94, align 8, !tbaa !36
  %323 = icmp eq ptr %322, %95
  br i1 %323, label %324, label %329

324:                                              ; preds = %317
  %325 = load i64, ptr %96, align 8, !tbaa !22
  %326 = add i64 %325, 1
  %327 = icmp eq i64 %326, 0
  br i1 %327, label %332, label %328

328:                                              ; preds = %324
  call void @llvm.memcpy.p0.p0.i64(ptr nonnull align 8 %321, ptr nonnull align 8 %95, i64 %326, i1 false)
  br label %332

329:                                              ; preds = %317
  store ptr %322, ptr %320, align 8, !tbaa !36
  %330 = load i64, ptr %95, align 8, !tbaa !25
  store i64 %330, ptr %321, align 8, !tbaa !25
  %331 = load i64, ptr %96, align 8, !tbaa !22
  br label %332

332:                                              ; preds = %329, %328, %324
  %333 = phi i64 [ %331, %329 ], [ %325, %328 ], [ -1, %324 ]
  %334 = getelementptr inbounds %"struct.benchmark::BenchmarkName", ptr %302, i64 0, i32 1, i32 1
  store i64 %333, ptr %334, align 8, !tbaa !22
  store ptr %95, ptr %94, align 8, !tbaa !36
  store i64 0, ptr %96, align 8, !tbaa !22
  store i8 0, ptr %95, align 8, !tbaa !25
  %335 = getelementptr inbounds %"struct.benchmark::BenchmarkName", ptr %302, i64 0, i32 2
  %336 = getelementptr inbounds %"struct.benchmark::BenchmarkName", ptr %302, i64 0, i32 2, i32 2
  store ptr %336, ptr %335, align 8, !tbaa !20
  %337 = load ptr, ptr %97, align 8, !tbaa !36
  %338 = icmp eq ptr %337, %98
  br i1 %338, label %339, label %344

339:                                              ; preds = %332
  %340 = load i64, ptr %99, align 8, !tbaa !22
  %341 = add i64 %340, 1
  %342 = icmp eq i64 %341, 0
  br i1 %342, label %347, label %343

343:                                              ; preds = %339
  call void @llvm.memcpy.p0.p0.i64(ptr nonnull align 8 %336, ptr nonnull align 8 %98, i64 %341, i1 false)
  br label %347

344:                                              ; preds = %332
  store ptr %337, ptr %335, align 8, !tbaa !36
  %345 = load i64, ptr %98, align 8, !tbaa !25
  store i64 %345, ptr %336, align 8, !tbaa !25
  %346 = load i64, ptr %99, align 8, !tbaa !22
  br label %347

347:                                              ; preds = %344, %343, %339
  %348 = phi i64 [ %346, %344 ], [ %340, %343 ], [ -1, %339 ]
  %349 = getelementptr inbounds %"struct.benchmark::BenchmarkName", ptr %302, i64 0, i32 2, i32 1
  store i64 %348, ptr %349, align 8, !tbaa !22
  store ptr %98, ptr %97, align 8, !tbaa !36
  store i64 0, ptr %99, align 8, !tbaa !22
  store i8 0, ptr %98, align 8, !tbaa !25
  %350 = getelementptr inbounds %"struct.benchmark::BenchmarkName", ptr %302, i64 0, i32 3
  %351 = getelementptr inbounds %"struct.benchmark::BenchmarkName", ptr %302, i64 0, i32 3, i32 2
  store ptr %351, ptr %350, align 8, !tbaa !20
  %352 = load ptr, ptr %100, align 8, !tbaa !36
  %353 = icmp eq ptr %352, %101
  br i1 %353, label %354, label %359

354:                                              ; preds = %347
  %355 = load i64, ptr %102, align 8, !tbaa !22
  %356 = add i64 %355, 1
  %357 = icmp eq i64 %356, 0
  br i1 %357, label %362, label %358

358:                                              ; preds = %354
  call void @llvm.memcpy.p0.p0.i64(ptr nonnull align 8 %351, ptr nonnull align 8 %101, i64 %356, i1 false)
  br label %362

359:                                              ; preds = %347
  store ptr %352, ptr %350, align 8, !tbaa !36
  %360 = load i64, ptr %101, align 8, !tbaa !25
  store i64 %360, ptr %351, align 8, !tbaa !25
  %361 = load i64, ptr %102, align 8, !tbaa !22
  br label %362

362:                                              ; preds = %359, %358, %354
  %363 = phi i64 [ %361, %359 ], [ %355, %358 ], [ -1, %354 ]
  %364 = getelementptr inbounds %"struct.benchmark::BenchmarkName", ptr %302, i64 0, i32 3, i32 1
  store i64 %363, ptr %364, align 8, !tbaa !22
  store ptr %101, ptr %100, align 8, !tbaa !36
  store i64 0, ptr %102, align 8, !tbaa !22
  store i8 0, ptr %101, align 8, !tbaa !25
  %365 = getelementptr inbounds %"struct.benchmark::BenchmarkName", ptr %302, i64 0, i32 4
  %366 = getelementptr inbounds %"struct.benchmark::BenchmarkName", ptr %302, i64 0, i32 4, i32 2
  store ptr %366, ptr %365, align 8, !tbaa !20
  %367 = load ptr, ptr %103, align 8, !tbaa !36
  %368 = icmp eq ptr %367, %104
  br i1 %368, label %369, label %374

369:                                              ; preds = %362
  %370 = load i64, ptr %105, align 8, !tbaa !22
  %371 = add i64 %370, 1
  %372 = icmp eq i64 %371, 0
  br i1 %372, label %377, label %373

373:                                              ; preds = %369
  call void @llvm.memcpy.p0.p0.i64(ptr nonnull align 8 %366, ptr nonnull align 8 %104, i64 %371, i1 false)
  br label %377

374:                                              ; preds = %362
  store ptr %367, ptr %365, align 8, !tbaa !36
  %375 = load i64, ptr %104, align 8, !tbaa !25
  store i64 %375, ptr %366, align 8, !tbaa !25
  %376 = load i64, ptr %105, align 8, !tbaa !22
  br label %377

377:                                              ; preds = %374, %373, %369
  %378 = phi i64 [ %376, %374 ], [ %370, %373 ], [ -1, %369 ]
  %379 = getelementptr inbounds %"struct.benchmark::BenchmarkName", ptr %302, i64 0, i32 4, i32 1
  store i64 %378, ptr %379, align 8, !tbaa !22
  store ptr %104, ptr %103, align 8, !tbaa !36
  store i64 0, ptr %105, align 8, !tbaa !22
  store i8 0, ptr %104, align 8, !tbaa !25
  %380 = getelementptr inbounds %"struct.benchmark::BenchmarkName", ptr %302, i64 0, i32 5
  %381 = getelementptr inbounds %"struct.benchmark::BenchmarkName", ptr %302, i64 0, i32 5, i32 2
  store ptr %381, ptr %380, align 8, !tbaa !20
  %382 = load ptr, ptr %106, align 8, !tbaa !36
  %383 = icmp eq ptr %382, %107
  br i1 %383, label %384, label %389

384:                                              ; preds = %377
  %385 = load i64, ptr %108, align 8, !tbaa !22
  %386 = add i64 %385, 1
  %387 = icmp eq i64 %386, 0
  br i1 %387, label %392, label %388

388:                                              ; preds = %384
  call void @llvm.memcpy.p0.p0.i64(ptr nonnull align 8 %381, ptr nonnull align 8 %107, i64 %386, i1 false)
  br label %392

389:                                              ; preds = %377
  store ptr %382, ptr %380, align 8, !tbaa !36
  %390 = load i64, ptr %107, align 8, !tbaa !25
  store i64 %390, ptr %381, align 8, !tbaa !25
  %391 = load i64, ptr %108, align 8, !tbaa !22
  br label %392

392:                                              ; preds = %389, %388, %384
  %393 = phi i64 [ %391, %389 ], [ %385, %388 ], [ -1, %384 ]
  %394 = getelementptr inbounds %"struct.benchmark::BenchmarkName", ptr %302, i64 0, i32 5, i32 1
  store i64 %393, ptr %394, align 8, !tbaa !22
  store ptr %107, ptr %106, align 8, !tbaa !36
  store i64 0, ptr %108, align 8, !tbaa !22
  store i8 0, ptr %107, align 8, !tbaa !25
  %395 = getelementptr inbounds %"struct.benchmark::BenchmarkName", ptr %302, i64 0, i32 6
  %396 = getelementptr inbounds %"struct.benchmark::BenchmarkName", ptr %302, i64 0, i32 6, i32 2
  store ptr %396, ptr %395, align 8, !tbaa !20
  %397 = load ptr, ptr %109, align 8, !tbaa !36
  %398 = icmp eq ptr %397, %110
  br i1 %398, label %399, label %404

399:                                              ; preds = %392
  %400 = load i64, ptr %111, align 8, !tbaa !22
  %401 = add i64 %400, 1
  %402 = icmp eq i64 %401, 0
  br i1 %402, label %407, label %403

403:                                              ; preds = %399
  call void @llvm.memcpy.p0.p0.i64(ptr nonnull align 8 %396, ptr nonnull align 8 %110, i64 %401, i1 false)
  br label %407

404:                                              ; preds = %392
  store ptr %397, ptr %395, align 8, !tbaa !36
  %405 = load i64, ptr %110, align 8, !tbaa !25
  store i64 %405, ptr %396, align 8, !tbaa !25
  %406 = load i64, ptr %111, align 8, !tbaa !22
  br label %407

407:                                              ; preds = %399, %403, %404
  %408 = phi i64 [ -1, %399 ], [ %400, %403 ], [ %406, %404 ]
  %409 = getelementptr inbounds %"struct.benchmark::BenchmarkName", ptr %302, i64 0, i32 6, i32 1
  store i64 %408, ptr %409, align 8, !tbaa !22
  store ptr %110, ptr %109, align 8, !tbaa !36
  store i64 0, ptr %111, align 8, !tbaa !22
  store i8 0, ptr %110, align 8, !tbaa !25
  %410 = getelementptr inbounds %"class.benchmark::internal::BenchmarkInstance", ptr %302, i64 0, i32 1
  call void @llvm.memcpy.p0.p0.i64(ptr noundef nonnull align 8 dereferenceable(56) %410, ptr noundef nonnull align 8 dereferenceable(56) %112, i64 56, i1 false)
  %411 = getelementptr inbounds %"class.benchmark::internal::BenchmarkInstance", ptr %302, i64 0, i32 12, i32 0, i32 0, i32 1
  %412 = load ptr, ptr %113, align 8, !tbaa !64
  %413 = icmp eq ptr %412, null
  br i1 %413, label %422, label %414

414:                                              ; preds = %407
  %415 = load i32, ptr %114, align 8, !tbaa !68
  %416 = getelementptr inbounds %"class.benchmark::internal::BenchmarkInstance", ptr %302, i64 0, i32 12, i32 0, i32 0, i32 1, i32 0, i32 1
  store ptr %412, ptr %416, align 8, !tbaa !64
  %417 = getelementptr inbounds %"class.benchmark::internal::BenchmarkInstance", ptr %302, i64 0, i32 12, i32 0, i32 0, i32 1, i32 0, i32 2
  %418 = load <2 x ptr>, ptr %115, align 8, !tbaa !12
  store <2 x ptr> %418, ptr %417, align 8, !tbaa !12
  %419 = getelementptr inbounds %"struct.std::_Rb_tree_node_base", ptr %412, i64 0, i32 1
  store ptr %411, ptr %419, align 8, !tbaa !69
  %420 = load i64, ptr %117, align 8, !tbaa !70
  %421 = getelementptr inbounds %"class.benchmark::internal::BenchmarkInstance", ptr %302, i64 0, i32 12, i32 0, i32 0, i32 1, i32 1
  store i64 %420, ptr %421, align 8, !tbaa !70
  store ptr null, ptr %113, align 8, !tbaa !64
  store ptr %114, ptr %115, align 8, !tbaa !71
  store ptr %114, ptr %116, align 8, !tbaa !72
  br label %427

422:                                              ; preds = %407
  %423 = getelementptr inbounds %"class.benchmark::internal::BenchmarkInstance", ptr %302, i64 0, i32 12, i32 0, i32 0, i32 1, i32 0, i32 1
  store ptr null, ptr %423, align 8, !tbaa !64
  %424 = getelementptr inbounds %"class.benchmark::internal::BenchmarkInstance", ptr %302, i64 0, i32 12, i32 0, i32 0, i32 1, i32 0, i32 2
  store ptr %411, ptr %424, align 8, !tbaa !71
  %425 = getelementptr inbounds %"class.benchmark::internal::BenchmarkInstance", ptr %302, i64 0, i32 12, i32 0, i32 0, i32 1, i32 0, i32 3
  store ptr %411, ptr %425, align 8, !tbaa !72
  %426 = getelementptr inbounds %"class.benchmark::internal::BenchmarkInstance", ptr %302, i64 0, i32 12, i32 0, i32 0, i32 1, i32 1
  br label %427

427:                                              ; preds = %422, %414
  %428 = phi ptr [ %426, %422 ], [ %117, %414 ]
  %429 = phi i32 [ 0, %422 ], [ %415, %414 ]
  store i64 0, ptr %428, align 8, !tbaa !70
  store i32 %429, ptr %411, align 8
  %430 = getelementptr inbounds %"class.benchmark::internal::BenchmarkInstance", ptr %302, i64 0, i32 13
  call void @llvm.memcpy.p0.p0.i64(ptr noundef nonnull align 8 dereferenceable(56) %430, ptr noundef nonnull align 8 dereferenceable(56) %118, i64 56, i1 false)
  %431 = load ptr, ptr %89, align 8, !tbaa !53
  %432 = getelementptr inbounds %"class.benchmark::internal::BenchmarkInstance", ptr %431, i64 1
  store ptr %432, ptr %89, align 8, !tbaa !53
  br label %434

433:                                              ; preds = %301
  invoke void @_ZNSt6vectorIN9benchmark8internal17BenchmarkInstanceESaIS2_EE17_M_realloc_insertIJS2_EEEvN9__gnu_cxx17__normal_iteratorIPS2_S4_EEDpOT_(ptr noundef nonnull align 8 dereferenceable(24) %2, ptr %302, ptr noundef nonnull align 8 dereferenceable(384) %10)
          to label %434 unwind label %443

434:                                              ; preds = %427, %433
  %435 = add nsw i32 %255, 1
  %436 = icmp eq i32 %254, %126
  %437 = zext i1 %436 to i32
  %438 = add nsw i32 %254, %437
  br label %450

439:                                              ; preds = %253
  %440 = landingpad { ptr, i32 }
          cleanup
  br label %494

441:                                              ; preds = %259
  %442 = landingpad { ptr, i32 }
          cleanup
  br label %492

443:                                              ; preds = %433
  %444 = landingpad { ptr, i32 }
          cleanup
  br label %445

445:                                              ; preds = %443, %297, %277
  %446 = phi { ptr, i32 } [ %273, %277 ], [ %444, %443 ], [ %293, %297 ]
  %447 = load ptr, ptr %11, align 8, !tbaa !36
  %448 = icmp eq ptr %447, %119
  br i1 %448, label %492, label %449

449:                                              ; preds = %445
  call void @_ZdlPv(ptr noundef %447) #33
  br label %492

450:                                              ; preds = %434, %298, %300
  %451 = phi i32 [ %255, %298 ], [ %255, %300 ], [ %435, %434 ]
  %452 = phi i32 [ %254, %298 ], [ %254, %300 ], [ %438, %434 ]
  %453 = load ptr, ptr %11, align 8, !tbaa !36
  %454 = icmp eq ptr %453, %119
  br i1 %454, label %456, label %455

455:                                              ; preds = %450
  call void @_ZdlPv(ptr noundef %453) #33
  br label %456

456:                                              ; preds = %450, %455
  call void @llvm.lifetime.end.p0(i64 32, ptr nonnull %11) #32
  %457 = load ptr, ptr %113, align 8, !tbaa !64
  invoke void @_ZNSt8_Rb_treeINSt7__cxx1112basic_stringIcSt11char_traitsIcESaIcEEESt4pairIKS5_N9benchmark7CounterEESt10_Select1stISA_ESt4lessIS5_ESaISA_EE8_M_eraseEPSt13_Rb_tree_nodeISA_E(ptr noundef nonnull align 8 dereferenceable(48) %120, ptr noundef %457)
          to label %461 unwind label %458

458:                                              ; preds = %456
  %459 = landingpad { ptr, i32 }
          catch ptr null
  %460 = extractvalue { ptr, i32 } %459, 0
  call void @__clang_call_terminate(ptr %460) #36
  unreachable

461:                                              ; preds = %456
  %462 = load ptr, ptr %109, align 8, !tbaa !36
  %463 = icmp eq ptr %462, %110
  br i1 %463, label %465, label %464

464:                                              ; preds = %461
  call void @_ZdlPv(ptr noundef %462) #33
  br label %465

465:                                              ; preds = %464, %461
  %466 = load ptr, ptr %106, align 8, !tbaa !36
  %467 = icmp eq ptr %466, %107
  br i1 %467, label %469, label %468

468:                                              ; preds = %465
  call void @_ZdlPv(ptr noundef %466) #33
  br label %469

469:                                              ; preds = %468, %465
  %470 = load ptr, ptr %103, align 8, !tbaa !36
  %471 = icmp eq ptr %470, %104
  br i1 %471, label %473, label %472

472:                                              ; preds = %469
  call void @_ZdlPv(ptr noundef %470) #33
  br label %473

473:                                              ; preds = %472, %469
  %474 = load ptr, ptr %100, align 8, !tbaa !36
  %475 = icmp eq ptr %474, %101
  br i1 %475, label %477, label %476

476:                                              ; preds = %473
  call void @_ZdlPv(ptr noundef %474) #33
  br label %477

477:                                              ; preds = %476, %473
  %478 = load ptr, ptr %97, align 8, !tbaa !36
  %479 = icmp eq ptr %478, %98
  br i1 %479, label %481, label %480

480:                                              ; preds = %477
  call void @_ZdlPv(ptr noundef %478) #33
  br label %481

481:                                              ; preds = %480, %477
  %482 = load ptr, ptr %94, align 8, !tbaa !36
  %483 = icmp eq ptr %482, %95
  br i1 %483, label %485, label %484

484:                                              ; preds = %481
  call void @_ZdlPv(ptr noundef %482) #33
  br label %485

485:                                              ; preds = %484, %481
  %486 = load ptr, ptr %10, align 8, !tbaa !36
  %487 = icmp eq ptr %486, %92
  br i1 %487, label %489, label %488

488:                                              ; preds = %485
  call void @_ZdlPv(ptr noundef %486) #33
  br label %489

489:                                              ; preds = %485, %488
  call void @llvm.lifetime.end.p0(i64 384, ptr nonnull %10) #32
  %490 = getelementptr inbounds i32, ptr %256, i64 1
  %491 = icmp eq ptr %490, %246
  br i1 %491, label %248, label %253

492:                                              ; preds = %449, %445, %441
  %493 = phi { ptr, i32 } [ %442, %441 ], [ %446, %445 ], [ %446, %449 ]
  call void @llvm.lifetime.end.p0(i64 32, ptr nonnull %11) #32
  call void @_ZN9benchmark8internal17BenchmarkInstanceD2Ev(ptr noundef nonnull align 8 dereferenceable(384) %10) #32
  br label %494

494:                                              ; preds = %492, %439
  %495 = phi { ptr, i32 } [ %493, %492 ], [ %440, %439 ]
  call void @llvm.lifetime.end.p0(i64 384, ptr nonnull %10) #32
  br label %500

496:                                              ; preds = %248, %232, %224, %125
  %497 = phi i32 [ %126, %125 ], [ %126, %224 ], [ %126, %232 ], [ %250, %248 ]
  %498 = getelementptr inbounds %"class.std::unique_ptr", ptr %127, i64 1
  %499 = icmp eq ptr %498, %86
  br i1 %499, label %121, label %125

500:                                              ; preds = %211, %494, %173
  %501 = phi { ptr, i32 } [ %169, %173 ], [ %495, %494 ], [ %212, %211 ]
  %502 = call i32 @pthread_mutex_unlock(ptr noundef nonnull %78) #32
  br label %503

503:                                              ; preds = %123, %500
  %504 = phi { ptr, i32 } [ %501, %500 ], [ %124, %123 ]
  call void @_ZdlPv(ptr noundef nonnull %73) #33
  br label %538

505:                                              ; preds = %70, %121
  %506 = getelementptr inbounds %"class.benchmark::Regex", ptr %8, i64 0, i32 1, i32 2, i32 0, i32 1
  %507 = load ptr, ptr %506, align 8, !tbaa !73
  %508 = icmp eq ptr %507, null
  br i1 %508, label %533, label %509

509:                                              ; preds = %505
  %510 = getelementptr inbounds %"class.std::_Sp_counted_base", ptr %507, i64 0, i32 1
  %511 = load atomic i64, ptr %510 acquire, align 8
  %512 = icmp eq i64 %511, 4294967297
  %513 = trunc i64 %511 to i32
  br i1 %512, label %514, label %522

514:                                              ; preds = %509
  store i32 0, ptr %510, align 8, !tbaa !74
  %515 = getelementptr inbounds %"class.std::_Sp_counted_base", ptr %507, i64 0, i32 2
  store i32 0, ptr %515, align 4, !tbaa !76
  %516 = load ptr, ptr %507, align 8, !tbaa !13
  %517 = getelementptr inbounds ptr, ptr %516, i64 2
  %518 = load ptr, ptr %517, align 8
  call void %518(ptr noundef nonnull align 8 dereferenceable(16) %507) #32
  %519 = load ptr, ptr %507, align 8, !tbaa !13
  %520 = getelementptr inbounds ptr, ptr %519, i64 3
  %521 = load ptr, ptr %520, align 8
  call void %521(ptr noundef nonnull align 8 dereferenceable(16) %507) #32
  br label %533

522:                                              ; preds = %509
  %523 = load i8, ptr @__libc_single_threaded, align 1, !tbaa !25
  %524 = icmp eq i8 %523, 0
  br i1 %524, label %527, label %525

525:                                              ; preds = %522
  %526 = add nsw i32 %513, -1
  store i32 %526, ptr %510, align 8, !tbaa !58
  br label %529

527:                                              ; preds = %522
  %528 = atomicrmw volatile add ptr %510, i32 -1 acq_rel, align 4
  br label %529

529:                                              ; preds = %527, %525
  %530 = phi i32 [ %513, %525 ], [ %528, %527 ]
  %531 = icmp eq i32 %530, 1
  br i1 %531, label %532, label %533, !prof !77

532:                                              ; preds = %529
  call void @_ZNSt16_Sp_counted_baseILN9__gnu_cxx12_Lock_policyE2EE24_M_release_last_use_coldEv(ptr noundef nonnull align 8 dereferenceable(16) %507) #32
  br label %533

533:                                              ; preds = %505, %514, %529, %532
  call void @_ZNSt6localeD1Ev(ptr noundef nonnull align 8 dereferenceable(8) %22) #32
  call void @llvm.lifetime.end.p0(i64 40, ptr nonnull %8) #32
  %534 = load ptr, ptr %7, align 8, !tbaa !36
  %535 = icmp eq ptr %534, %19
  br i1 %535, label %537, label %536

536:                                              ; preds = %533
  call void @_ZdlPv(ptr noundef %534) #33
  br label %537

537:                                              ; preds = %533, %536
  call void @llvm.lifetime.end.p0(i64 32, ptr nonnull %7) #32
  ret i1 %36

538:                                              ; preds = %503, %74, %33
  %539 = phi { ptr, i32 } [ %34, %33 ], [ %75, %74 ], [ %504, %503 ]
  %540 = getelementptr inbounds %"class.benchmark::Regex", ptr %8, i64 0, i32 1, i32 2, i32 0, i32 1
  %541 = load ptr, ptr %540, align 8, !tbaa !73
  %542 = icmp eq ptr %541, null
  br i1 %542, label %567, label %543

543:                                              ; preds = %538
  %544 = getelementptr inbounds %"class.std::_Sp_counted_base", ptr %541, i64 0, i32 1
  %545 = load atomic i64, ptr %544 acquire, align 8
  %546 = icmp eq i64 %545, 4294967297
  %547 = trunc i64 %545 to i32
  br i1 %546, label %548, label %556

548:                                              ; preds = %543
  store i32 0, ptr %544, align 8, !tbaa !74
  %549 = getelementptr inbounds %"class.std::_Sp_counted_base", ptr %541, i64 0, i32 2
  store i32 0, ptr %549, align 4, !tbaa !76
  %550 = load ptr, ptr %541, align 8, !tbaa !13
  %551 = getelementptr inbounds ptr, ptr %550, i64 2
  %552 = load ptr, ptr %551, align 8
  call void %552(ptr noundef nonnull align 8 dereferenceable(16) %541) #32
  %553 = load ptr, ptr %541, align 8, !tbaa !13
  %554 = getelementptr inbounds ptr, ptr %553, i64 3
  %555 = load ptr, ptr %554, align 8
  call void %555(ptr noundef nonnull align 8 dereferenceable(16) %541) #32
  br label %567

556:                                              ; preds = %543
  %557 = load i8, ptr @__libc_single_threaded, align 1, !tbaa !25
  %558 = icmp eq i8 %557, 0
  br i1 %558, label %561, label %559

559:                                              ; preds = %556
  %560 = add nsw i32 %547, -1
  store i32 %560, ptr %544, align 8, !tbaa !58
  br label %563

561:                                              ; preds = %556
  %562 = atomicrmw volatile add ptr %544, i32 -1 acq_rel, align 4
  br label %563

563:                                              ; preds = %561, %559
  %564 = phi i32 [ %547, %559 ], [ %562, %561 ]
  %565 = icmp eq i32 %564, 1
  br i1 %565, label %566, label %567, !prof !77

566:                                              ; preds = %563
  call void @_ZNSt16_Sp_counted_baseILN9__gnu_cxx12_Lock_policyE2EE24_M_release_last_use_coldEv(ptr noundef nonnull align 8 dereferenceable(16) %541) #32
  br label %567

567:                                              ; preds = %538, %548, %563, %566
  call void @_ZNSt6localeD1Ev(ptr noundef nonnull align 8 dereferenceable(8) %22) #32
  call void @llvm.lifetime.end.p0(i64 40, ptr nonnull %8) #32
  %568 = load ptr, ptr %7, align 8, !tbaa !36
  %569 = icmp eq ptr %568, %19
  br i1 %569, label %571, label %570

570:                                              ; preds = %567
  call void @_ZdlPv(ptr noundef %568) #33
  br label %571

571:                                              ; preds = %567, %570
  call void @llvm.lifetime.end.p0(i64 32, ptr nonnull %7) #32
  resume { ptr, i32 } %539
}

; Function Attrs: inlinehint uwtable
define linkonce_odr hidden noundef zeroext i1 @_ZN9benchmark5Regex4InitERKNSt7__cxx1112basic_stringIcSt11char_traitsIcESaIcEEEPS6_(ptr noundef nonnull align 8 dereferenceable(40) %0, ptr noundef nonnull align 8 dereferenceable(32) %1, ptr noundef %2) local_unnamed_addr #7 comdat align 2 personality ptr @__gxx_personality_v0 {
  %4 = alloca %"class.std::__cxx11::basic_regex", align 8
  call void @llvm.lifetime.start.p0(i64 32, ptr nonnull %4) #32
  %5 = getelementptr inbounds %"class.std::__cxx11::basic_regex", ptr %4, i64 0, i32 1
  call void @_ZNSt6localeC1Ev(ptr noundef nonnull align 8 dereferenceable(8) %5) #32
  %6 = getelementptr inbounds %"class.std::__cxx11::basic_regex", ptr %4, i64 0, i32 2
  call void @llvm.memset.p0.i64(ptr noundef nonnull align 8 dereferenceable(16) %6, i8 0, i64 16, i1 false)
  %7 = load ptr, ptr %1, align 8, !tbaa !36
  %8 = getelementptr inbounds %"class.std::__cxx11::basic_string", ptr %1, i64 0, i32 1
  %9 = load i64, ptr %8, align 8, !tbaa !22
  %10 = getelementptr inbounds i8, ptr %7, i64 %9
  invoke void @_ZNSt7__cxx1111basic_regexIcNS_12regex_traitsIcEEE10_M_compileEPKcS5_NSt15regex_constants18syntax_option_typeE(ptr noundef nonnull align 8 dereferenceable(32) %4, ptr noundef %7, ptr noundef %10, i32 noundef 64)
          to label %16 unwind label %11

11:                                               ; preds = %3
  %12 = landingpad { ptr, i32 }
          cleanup
          catch ptr @_ZTISt11regex_error
  call void @_ZNSt12__shared_ptrIKNSt8__detail4_NFAINSt7__cxx1112regex_traitsIcEEEELN9__gnu_cxx12_Lock_policyE2EED2Ev(ptr noundef nonnull align 8 dereferenceable(16) %6) #32
  call void @_ZNSt6localeD1Ev(ptr noundef nonnull align 8 dereferenceable(8) %5) #32
  %13 = extractvalue { ptr, i32 } %12, 1
  call void @llvm.lifetime.end.p0(i64 32, ptr nonnull %4) #32
  %14 = call i32 @llvm.eh.typeid.for(ptr nonnull @_ZTISt11regex_error) #32
  %15 = icmp eq i32 %13, %14
  br i1 %15, label %79, label %96

16:                                               ; preds = %3
  %17 = getelementptr inbounds %"class.benchmark::Regex", ptr %0, i64 0, i32 1
  %18 = load i32, ptr %4, align 8, !tbaa !35
  store i32 %18, ptr %17, align 8, !tbaa !35
  %19 = getelementptr inbounds %"class.benchmark::Regex", ptr %0, i64 0, i32 1, i32 1
  %20 = call noundef nonnull align 8 dereferenceable(8) ptr @_ZNSt6localeaSERKS_(ptr noundef nonnull align 8 dereferenceable(8) %19, ptr noundef nonnull align 8 dereferenceable(8) %5) #32
  %21 = getelementptr inbounds %"class.benchmark::Regex", ptr %0, i64 0, i32 1, i32 2
  %22 = getelementptr inbounds %"class.std::__cxx11::basic_regex", ptr %4, i64 0, i32 2, i32 0, i32 1
  %23 = getelementptr inbounds %"class.benchmark::Regex", ptr %0, i64 0, i32 1, i32 2, i32 0, i32 1
  %24 = load <2 x ptr>, ptr %6, align 8, !tbaa !12
  call void @llvm.memset.p0.i64(ptr noundef nonnull align 8 dereferenceable(16) %6, i8 0, i64 16, i1 false)
  %25 = load ptr, ptr %23, align 8, !tbaa !73
  store <2 x ptr> %24, ptr %21, align 8, !tbaa !12
  %26 = icmp eq ptr %25, null
  br i1 %26, label %51, label %27

27:                                               ; preds = %16
  %28 = getelementptr inbounds %"class.std::_Sp_counted_base", ptr %25, i64 0, i32 1
  %29 = load atomic i64, ptr %28 acquire, align 8
  %30 = icmp eq i64 %29, 4294967297
  %31 = trunc i64 %29 to i32
  br i1 %30, label %32, label %40

32:                                               ; preds = %27
  store i32 0, ptr %28, align 8, !tbaa !74
  %33 = getelementptr inbounds %"class.std::_Sp_counted_base", ptr %25, i64 0, i32 2
  store i32 0, ptr %33, align 4, !tbaa !76
  %34 = load ptr, ptr %25, align 8, !tbaa !13
  %35 = getelementptr inbounds ptr, ptr %34, i64 2
  %36 = load ptr, ptr %35, align 8
  call void %36(ptr noundef nonnull align 8 dereferenceable(16) %25) #32
  %37 = load ptr, ptr %25, align 8, !tbaa !13
  %38 = getelementptr inbounds ptr, ptr %37, i64 3
  %39 = load ptr, ptr %38, align 8
  call void %39(ptr noundef nonnull align 8 dereferenceable(16) %25) #32
  br label %51

40:                                               ; preds = %27
  %41 = load i8, ptr @__libc_single_threaded, align 1, !tbaa !25
  %42 = icmp eq i8 %41, 0
  br i1 %42, label %45, label %43

43:                                               ; preds = %40
  %44 = add nsw i32 %31, -1
  store i32 %44, ptr %28, align 8, !tbaa !58
  br label %47

45:                                               ; preds = %40
  %46 = atomicrmw volatile add ptr %28, i32 -1 acq_rel, align 4
  br label %47

47:                                               ; preds = %45, %43
  %48 = phi i32 [ %31, %43 ], [ %46, %45 ]
  %49 = icmp eq i32 %48, 1
  br i1 %49, label %50, label %51, !prof !77

50:                                               ; preds = %47
  call void @_ZNSt16_Sp_counted_baseILN9__gnu_cxx12_Lock_policyE2EE24_M_release_last_use_coldEv(ptr noundef nonnull align 8 dereferenceable(16) %25) #32
  br label %51

51:                                               ; preds = %16, %32, %47, %50
  %52 = load ptr, ptr %22, align 8, !tbaa !73
  %53 = icmp eq ptr %52, null
  br i1 %53, label %78, label %54

54:                                               ; preds = %51
  %55 = getelementptr inbounds %"class.std::_Sp_counted_base", ptr %52, i64 0, i32 1
  %56 = load atomic i64, ptr %55 acquire, align 8
  %57 = icmp eq i64 %56, 4294967297
  %58 = trunc i64 %56 to i32
  br i1 %57, label %59, label %67

59:                                               ; preds = %54
  store i32 0, ptr %55, align 8, !tbaa !74
  %60 = getelementptr inbounds %"class.std::_Sp_counted_base", ptr %52, i64 0, i32 2
  store i32 0, ptr %60, align 4, !tbaa !76
  %61 = load ptr, ptr %52, align 8, !tbaa !13
  %62 = getelementptr inbounds ptr, ptr %61, i64 2
  %63 = load ptr, ptr %62, align 8
  call void %63(ptr noundef nonnull align 8 dereferenceable(16) %52) #32
  %64 = load ptr, ptr %52, align 8, !tbaa !13
  %65 = getelementptr inbounds ptr, ptr %64, i64 3
  %66 = load ptr, ptr %65, align 8
  call void %66(ptr noundef nonnull align 8 dereferenceable(16) %52) #32
  br label %78

67:                                               ; preds = %54
  %68 = load i8, ptr @__libc_single_threaded, align 1, !tbaa !25
  %69 = icmp eq i8 %68, 0
  br i1 %69, label %72, label %70

70:                                               ; preds = %67
  %71 = add nsw i32 %58, -1
  store i32 %71, ptr %55, align 8, !tbaa !58
  br label %74

72:                                               ; preds = %67
  %73 = atomicrmw volatile add ptr %55, i32 -1 acq_rel, align 4
  br label %74

74:                                               ; preds = %72, %70
  %75 = phi i32 [ %58, %70 ], [ %73, %72 ]
  %76 = icmp eq i32 %75, 1
  br i1 %76, label %77, label %78, !prof !77

77:                                               ; preds = %74
  call void @_ZNSt16_Sp_counted_baseILN9__gnu_cxx12_Lock_policyE2EE24_M_release_last_use_coldEv(ptr noundef nonnull align 8 dereferenceable(16) %52) #32
  br label %78

78:                                               ; preds = %51, %59, %74, %77
  call void @_ZNSt6localeD1Ev(ptr noundef nonnull align 8 dereferenceable(8) %5) #32
  call void @llvm.lifetime.end.p0(i64 32, ptr nonnull %4) #32
  store i8 1, ptr %0, align 8, !tbaa !26
  br label %94

79:                                               ; preds = %11
  %80 = extractvalue { ptr, i32 } %12, 0
  %81 = call ptr @__cxa_begin_catch(ptr %80) #32
  %82 = icmp eq ptr %2, null
  br i1 %82, label %91, label %83

83:                                               ; preds = %79
  %84 = load ptr, ptr %81, align 8, !tbaa !13
  %85 = getelementptr inbounds ptr, ptr %84, i64 2
  %86 = load ptr, ptr %85, align 8
  %87 = call noundef ptr %86(ptr noundef nonnull align 8 dereferenceable(16) %81) #32
  %88 = invoke noundef nonnull align 8 dereferenceable(32) ptr @_ZNSt7__cxx1112basic_stringIcSt11char_traitsIcESaIcEEaSEPKc(ptr noundef nonnull align 8 dereferenceable(32) %2, ptr noundef %87)
          to label %91 unwind label %89

89:                                               ; preds = %83
  %90 = landingpad { ptr, i32 }
          cleanup
  invoke void @__cxa_end_catch()
          to label %96 unwind label %98

91:                                               ; preds = %83, %79
  call void @__cxa_end_catch()
  %92 = load i8, ptr %0, align 8, !tbaa !26, !range !59
  %93 = icmp ne i8 %92, 0
  br label %94

94:                                               ; preds = %91, %78
  %95 = phi i1 [ %93, %91 ], [ true, %78 ]
  ret i1 %95

96:                                               ; preds = %89, %11
  %97 = phi { ptr, i32 } [ %12, %11 ], [ %90, %89 ]
  resume { ptr, i32 } %97

98:                                               ; preds = %89
  %99 = landingpad { ptr, i32 }
          catch ptr null
  %100 = extractvalue { ptr, i32 } %99, 0
  call void @__clang_call_terminate(ptr %100) #36
  unreachable
}

; Function Attrs: mustprogress nofree norecurse nosync nounwind willreturn memory(read, inaccessiblemem: none) uwtable
define hidden noundef i32 @_ZNK9benchmark8internal9Benchmark7ArgsCntEv(ptr nocapture noundef nonnull readonly align 8 dereferenceable(216) %0) local_unnamed_addr #8 align 2 {
  %2 = getelementptr inbounds %"class.benchmark::internal::Benchmark", ptr %0, i64 0, i32 4
  %3 = load ptr, ptr %2, align 8, !tbaa !12
  %4 = getelementptr inbounds %"class.benchmark::internal::Benchmark", ptr %0, i64 0, i32 4, i32 0, i32 0, i32 0, i32 1
  %5 = load ptr, ptr %4, align 8, !tbaa !12
  %6 = icmp eq ptr %3, %5
  br i1 %6, label %7, label %19

7:                                                ; preds = %1
  %8 = getelementptr inbounds %"class.benchmark::internal::Benchmark", ptr %0, i64 0, i32 3
  %9 = load ptr, ptr %8, align 8, !tbaa !12
  %10 = getelementptr inbounds %"class.benchmark::internal::Benchmark", ptr %0, i64 0, i32 3, i32 0, i32 0, i32 0, i32 1
  %11 = load ptr, ptr %10, align 8, !tbaa !12
  %12 = icmp eq ptr %9, %11
  br i1 %12, label %28, label %13

13:                                               ; preds = %7
  %14 = ptrtoint ptr %11 to i64
  %15 = ptrtoint ptr %9 to i64
  %16 = sub i64 %14, %15
  %17 = lshr exact i64 %16, 5
  %18 = trunc i64 %17 to i32
  br label %28

19:                                               ; preds = %1
  %20 = getelementptr inbounds %"struct.std::_Vector_base<long, std::allocator<long>>::_Vector_impl_data", ptr %3, i64 0, i32 1
  %21 = load ptr, ptr %20, align 8, !tbaa !47
  %22 = load ptr, ptr %3, align 8, !tbaa !49
  %23 = ptrtoint ptr %21 to i64
  %24 = ptrtoint ptr %22 to i64
  %25 = sub i64 %23, %24
  %26 = lshr exact i64 %25, 3
  %27 = trunc i64 %26 to i32
  br label %28

28:                                               ; preds = %7, %19, %13
  %29 = phi i32 [ %18, %13 ], [ %27, %19 ], [ -1, %7 ]
  ret i32 %29
}

; Function Attrs: uwtable
define hidden noundef nonnull ptr @_ZN9benchmark8internal9Benchmark4ArgsERKSt6vectorIlSaIlEE(ptr noundef nonnull returned align 8 dereferenceable(216) %0, ptr noundef nonnull align 8 dereferenceable(24) %1) local_unnamed_addr #5 align 2 personality ptr @__gxx_personality_v0 {
  %3 = load atomic i8, ptr @_ZGVZN9benchmark8internal18GetNullLogInstanceEvE3log acquire, align 8
  %4 = icmp eq i8 %3, 0
  br i1 %4, label %5, label %9, !prof !5

5:                                                ; preds = %2
  %6 = tail call i32 @__cxa_guard_acquire(ptr nonnull @_ZGVZN9benchmark8internal18GetNullLogInstanceEvE3log) #32
  %7 = icmp eq i32 %6, 0
  br i1 %7, label %9, label %8

8:                                                ; preds = %5
  store ptr null, ptr @_ZZN9benchmark8internal18GetNullLogInstanceEvE3log, align 8, !tbaa !18
  tail call void @__cxa_guard_release(ptr nonnull @_ZGVZN9benchmark8internal18GetNullLogInstanceEvE3log) #32
  br label %9

9:                                                ; preds = %2, %5, %8
  %10 = getelementptr inbounds %"class.benchmark::internal::Benchmark", ptr %0, i64 0, i32 4, i32 0, i32 0, i32 0, i32 1
  %11 = load ptr, ptr %10, align 8, !tbaa !50
  %12 = getelementptr inbounds %"class.benchmark::internal::Benchmark", ptr %0, i64 0, i32 4, i32 0, i32 0, i32 0, i32 2
  %13 = load ptr, ptr %12, align 8, !tbaa !78
  %14 = icmp eq ptr %11, %13
  br i1 %14, label %49, label %15

15:                                               ; preds = %9
  %16 = getelementptr inbounds %"struct.std::_Vector_base<long, std::allocator<long>>::_Vector_impl_data", ptr %1, i64 0, i32 1
  %17 = load ptr, ptr %16, align 8, !tbaa !47
  %18 = load ptr, ptr %1, align 8, !tbaa !49
  %19 = ptrtoint ptr %17 to i64
  %20 = ptrtoint ptr %18 to i64
  %21 = sub i64 %19, %20
  %22 = ashr exact i64 %21, 3
  tail call void @llvm.memset.p0.i64(ptr noundef nonnull align 8 dereferenceable(24) %11, i8 0, i64 24, i1 false)
  %23 = icmp eq ptr %17, %18
  br i1 %23, label %32, label %24

24:                                               ; preds = %15
  %25 = icmp ugt i64 %21, 9223372036854775800
  br i1 %25, label %26, label %30, !prof !77

26:                                               ; preds = %24
  %27 = icmp slt i64 %21, 0
  br i1 %27, label %28, label %29

28:                                               ; preds = %26
  tail call void @_ZSt28__throw_bad_array_new_lengthv() #34
  unreachable

29:                                               ; preds = %26
  tail call void @_ZSt17__throw_bad_allocv() #34
  unreachable

30:                                               ; preds = %24
  %31 = tail call noalias noundef nonnull ptr @_Znwm(i64 noundef %21) #35
  br label %32

32:                                               ; preds = %30, %15
  %33 = phi ptr [ null, %15 ], [ %31, %30 ]
  store ptr %33, ptr %11, align 8, !tbaa !49
  %34 = getelementptr inbounds %"struct.std::_Vector_base<long, std::allocator<long>>::_Vector_impl_data", ptr %11, i64 0, i32 1
  store ptr %33, ptr %34, align 8, !tbaa !47
  %35 = getelementptr inbounds i64, ptr %33, i64 %22
  %36 = getelementptr inbounds %"struct.std::_Vector_base<long, std::allocator<long>>::_Vector_impl_data", ptr %11, i64 0, i32 2
  store ptr %35, ptr %36, align 8, !tbaa !79
  %37 = load ptr, ptr %1, align 8, !tbaa !12
  %38 = load ptr, ptr %16, align 8, !tbaa !12
  %39 = ptrtoint ptr %38 to i64
  %40 = ptrtoint ptr %37 to i64
  %41 = sub i64 %39, %40
  %42 = icmp eq ptr %38, %37
  br i1 %42, label %44, label %43

43:                                               ; preds = %32
  tail call void @llvm.memmove.p0.p0.i64(ptr align 8 %33, ptr align 8 %37, i64 %41, i1 false)
  br label %44

44:                                               ; preds = %43, %32
  %45 = ashr exact i64 %41, 3
  %46 = getelementptr inbounds i64, ptr %33, i64 %45
  store ptr %46, ptr %34, align 8, !tbaa !47
  %47 = load ptr, ptr %10, align 8, !tbaa !50
  %48 = getelementptr inbounds %"class.std::vector.15", ptr %47, i64 1
  store ptr %48, ptr %10, align 8, !tbaa !50
  br label %51

49:                                               ; preds = %9
  %50 = getelementptr inbounds %"class.benchmark::internal::Benchmark", ptr %0, i64 0, i32 4
  tail call void @_ZNSt6vectorIS_IlSaIlEESaIS1_EE17_M_realloc_insertIJRKS1_EEEvN9__gnu_cxx17__normal_iteratorIPS1_S3_EEDpOT_(ptr noundef nonnull align 8 dereferenceable(24) %50, ptr %11, ptr noundef nonnull align 8 dereferenceable(24) %1)
  br label %51

51:                                               ; preds = %44, %49
  ret ptr %0
}

; Function Attrs: mustprogress nocallback nofree nounwind willreturn memory(argmem: write)
declare void @llvm.memset.p0.i64(ptr nocapture writeonly, i8, i64, i1 immarg) #9

; Function Attrs: uwtable
define linkonce_odr hidden void @_ZNSt6vectorIN9benchmark8internal17BenchmarkInstanceESaIS2_EE7reserveEm(ptr noundef nonnull align 8 dereferenceable(24) %0, i64 noundef %1) local_unnamed_addr #5 comdat align 2 personality ptr @__gxx_personality_v0 {
  %3 = icmp ugt i64 %1, 24019198012642645
  br i1 %3, label %4, label %5

4:                                                ; preds = %2
  tail call void @_ZSt20__throw_length_errorPKc(ptr noundef nonnull @.str.181) #34
  unreachable

5:                                                ; preds = %2
  %6 = getelementptr inbounds %"struct.std::_Vector_base<benchmark::internal::BenchmarkInstance, std::allocator<benchmark::internal::BenchmarkInstance>>::_Vector_impl_data", ptr %0, i64 0, i32 2
  %7 = load ptr, ptr %6, align 8, !tbaa !63
  %8 = load ptr, ptr %0, align 8, !tbaa !55
  %9 = ptrtoint ptr %7 to i64
  %10 = ptrtoint ptr %8 to i64
  %11 = sub i64 %9, %10
  %12 = sdiv exact i64 %11, 384
  %13 = icmp ult i64 %12, %1
  br i1 %13, label %14, label %68

14:                                               ; preds = %5
  %15 = getelementptr inbounds %"struct.std::_Vector_base<benchmark::internal::BenchmarkInstance, std::allocator<benchmark::internal::BenchmarkInstance>>::_Vector_impl_data", ptr %0, i64 0, i32 1
  %16 = load ptr, ptr %15, align 8, !tbaa !53
  %17 = ptrtoint ptr %16 to i64
  %18 = sub i64 %17, %10
  %19 = sdiv exact i64 %18, 384
  %20 = mul nuw nsw i64 %1, 384
  %21 = tail call noalias noundef nonnull ptr @_Znwm(i64 noundef %20) #35
  %22 = icmp eq ptr %8, %16
  br i1 %22, label %61, label %23

23:                                               ; preds = %14, %47
  %24 = phi ptr [ %57, %47 ], [ %21, %14 ]
  %25 = phi ptr [ %56, %47 ], [ %8, %14 ]
  tail call void @llvm.experimental.noalias.scope.decl(metadata !80)
  tail call void @llvm.experimental.noalias.scope.decl(metadata !83)
  tail call void @_ZN9benchmark13BenchmarkNameC2EOS0_(ptr noundef nonnull align 8 dereferenceable(224) %24, ptr noundef nonnull align 8 dereferenceable(224) %25) #32
  %26 = getelementptr inbounds %"class.benchmark::internal::BenchmarkInstance", ptr %24, i64 0, i32 1
  %27 = getelementptr inbounds %"class.benchmark::internal::BenchmarkInstance", ptr %25, i64 0, i32 1
  tail call void @llvm.memcpy.p0.p0.i64(ptr noundef nonnull align 8 dereferenceable(56) %26, ptr noundef nonnull align 8 dereferenceable(56) %27, i64 56, i1 false), !alias.scope !85
  %28 = getelementptr inbounds %"class.benchmark::internal::BenchmarkInstance", ptr %24, i64 0, i32 12, i32 0, i32 0, i32 1
  %29 = getelementptr inbounds %"class.benchmark::internal::BenchmarkInstance", ptr %25, i64 0, i32 12, i32 0, i32 0, i32 1, i32 0, i32 1
  %30 = load ptr, ptr %29, align 8, !tbaa !64, !alias.scope !83, !noalias !80
  %31 = icmp eq ptr %30, null
  br i1 %31, label %44, label %32

32:                                               ; preds = %23
  %33 = getelementptr inbounds %"class.benchmark::internal::BenchmarkInstance", ptr %25, i64 0, i32 12, i32 0, i32 0, i32 1
  %34 = load i32, ptr %33, align 8, !tbaa !68, !alias.scope !83, !noalias !80
  %35 = getelementptr inbounds %"class.benchmark::internal::BenchmarkInstance", ptr %24, i64 0, i32 12, i32 0, i32 0, i32 1, i32 0, i32 1
  store ptr %30, ptr %35, align 8, !tbaa !64, !alias.scope !80, !noalias !83
  %36 = getelementptr inbounds %"class.benchmark::internal::BenchmarkInstance", ptr %25, i64 0, i32 12, i32 0, i32 0, i32 1, i32 0, i32 2
  %37 = load ptr, ptr %36, align 8, !tbaa !71, !alias.scope !83, !noalias !80
  %38 = getelementptr inbounds %"class.benchmark::internal::BenchmarkInstance", ptr %25, i64 0, i32 12, i32 0, i32 0, i32 1, i32 0, i32 3
  %39 = load ptr, ptr %38, align 8, !tbaa !72, !alias.scope !83, !noalias !80
  %40 = getelementptr inbounds %"struct.std::_Rb_tree_node_base", ptr %30, i64 0, i32 1
  store ptr %28, ptr %40, align 8, !tbaa !69
  %41 = getelementptr inbounds %"class.benchmark::internal::BenchmarkInstance", ptr %25, i64 0, i32 12, i32 0, i32 0, i32 1, i32 1
  %42 = load i64, ptr %41, align 8, !tbaa !70, !alias.scope !83, !noalias !80
  %43 = getelementptr inbounds %"class.benchmark::internal::BenchmarkInstance", ptr %24, i64 0, i32 12, i32 0, i32 0, i32 1, i32 1
  store i64 %42, ptr %43, align 8, !tbaa !70, !alias.scope !80, !noalias !83
  store ptr null, ptr %29, align 8, !tbaa !64, !alias.scope !83, !noalias !80
  store ptr %33, ptr %36, align 8, !tbaa !71, !alias.scope !83, !noalias !80
  store ptr %33, ptr %38, align 8, !tbaa !72, !alias.scope !83, !noalias !80
  br label %47

44:                                               ; preds = %23
  %45 = getelementptr inbounds %"class.benchmark::internal::BenchmarkInstance", ptr %24, i64 0, i32 12, i32 0, i32 0, i32 1, i32 0, i32 1
  store ptr null, ptr %45, align 8, !tbaa !64, !alias.scope !80, !noalias !83
  %46 = getelementptr inbounds %"class.benchmark::internal::BenchmarkInstance", ptr %24, i64 0, i32 12, i32 0, i32 0, i32 1, i32 1
  br label %47

47:                                               ; preds = %44, %32
  %48 = phi ptr [ %28, %44 ], [ %37, %32 ]
  %49 = phi ptr [ %28, %44 ], [ %39, %32 ]
  %50 = phi ptr [ %46, %44 ], [ %41, %32 ]
  %51 = phi i32 [ 0, %44 ], [ %34, %32 ]
  %52 = getelementptr inbounds %"class.benchmark::internal::BenchmarkInstance", ptr %24, i64 0, i32 12, i32 0, i32 0, i32 1, i32 0, i32 2
  store ptr %48, ptr %52, align 8, !alias.scope !80, !noalias !83
  %53 = getelementptr inbounds %"class.benchmark::internal::BenchmarkInstance", ptr %24, i64 0, i32 12, i32 0, i32 0, i32 1, i32 0, i32 3
  store ptr %49, ptr %53, align 8, !alias.scope !80, !noalias !83
  store i64 0, ptr %50, align 8, !tbaa !70, !alias.scope !85
  store i32 %51, ptr %28, align 8, !alias.scope !80, !noalias !83
  %54 = getelementptr inbounds %"class.benchmark::internal::BenchmarkInstance", ptr %24, i64 0, i32 13
  %55 = getelementptr inbounds %"class.benchmark::internal::BenchmarkInstance", ptr %25, i64 0, i32 13
  tail call void @llvm.memcpy.p0.p0.i64(ptr noundef nonnull align 8 dereferenceable(56) %54, ptr noundef nonnull align 8 dereferenceable(56) %55, i64 56, i1 false), !alias.scope !85
  tail call void @_ZN9benchmark8internal17BenchmarkInstanceD2Ev(ptr noundef nonnull align 8 dereferenceable(384) %25) #32
  %56 = getelementptr inbounds %"class.benchmark::internal::BenchmarkInstance", ptr %25, i64 1
  %57 = getelementptr inbounds %"class.benchmark::internal::BenchmarkInstance", ptr %24, i64 1
  %58 = icmp eq ptr %56, %16
  br i1 %58, label %59, label %23, !llvm.loop !86

59:                                               ; preds = %47
  %60 = load ptr, ptr %0, align 8, !tbaa !55
  br label %61

61:                                               ; preds = %59, %14
  %62 = phi ptr [ %60, %59 ], [ %8, %14 ]
  %63 = icmp eq ptr %62, null
  br i1 %63, label %65, label %64

64:                                               ; preds = %61
  tail call void @_ZdlPv(ptr noundef nonnull %62) #33
  br label %65

65:                                               ; preds = %61, %64
  store ptr %21, ptr %0, align 8, !tbaa !55
  %66 = getelementptr inbounds %"class.benchmark::internal::BenchmarkInstance", ptr %21, i64 %19
  store ptr %66, ptr %15, align 8, !tbaa !53
  %67 = getelementptr inbounds %"class.benchmark::internal::BenchmarkInstance", ptr %21, i64 %1
  store ptr %67, ptr %6, align 8, !tbaa !63
  br label %68

68:                                               ; preds = %65, %5
  ret void
}

declare void @_ZN9benchmark8internal17BenchmarkInstanceC1EPNS0_9BenchmarkEiiRKSt6vectorIlSaIlEEi(ptr noundef nonnull align 8 dereferenceable(384), ptr noundef, i32 noundef, i32 noundef, ptr noundef nonnull align 8 dereferenceable(24), i32 noundef) unnamed_addr #0

declare void @_ZNK9benchmark13BenchmarkName3strB5cxx11Ev(ptr sret(%"class.std::__cxx11::basic_string") align 8, ptr noundef nonnull align 8 dereferenceable(224)) local_unnamed_addr #0

; Function Attrs: inlinehint nounwind uwtable
define linkonce_odr hidden void @_ZN9benchmark8internal17BenchmarkInstanceD2Ev(ptr noundef nonnull align 8 dereferenceable(384) %0) unnamed_addr #4 comdat align 2 personality ptr @__gxx_personality_v0 {
  %2 = getelementptr inbounds %"class.benchmark::internal::BenchmarkInstance", ptr %0, i64 0, i32 12
  %3 = getelementptr inbounds %"class.benchmark::internal::BenchmarkInstance", ptr %0, i64 0, i32 12, i32 0, i32 0, i32 1, i32 0, i32 1
  %4 = load ptr, ptr %3, align 8, !tbaa !64
  invoke void @_ZNSt8_Rb_treeINSt7__cxx1112basic_stringIcSt11char_traitsIcESaIcEEESt4pairIKS5_N9benchmark7CounterEESt10_Select1stISA_ESt4lessIS5_ESaISA_EE8_M_eraseEPSt13_Rb_tree_nodeISA_E(ptr noundef nonnull align 8 dereferenceable(48) %2, ptr noundef %4)
          to label %8 unwind label %5

5:                                                ; preds = %1
  %6 = landingpad { ptr, i32 }
          catch ptr null
  %7 = extractvalue { ptr, i32 } %6, 0
  tail call void @__clang_call_terminate(ptr %7) #36
  unreachable

8:                                                ; preds = %1
  %9 = getelementptr inbounds %"struct.benchmark::BenchmarkName", ptr %0, i64 0, i32 6
  %10 = load ptr, ptr %9, align 8, !tbaa !36
  %11 = getelementptr inbounds %"struct.benchmark::BenchmarkName", ptr %0, i64 0, i32 6, i32 2
  %12 = icmp eq ptr %10, %11
  br i1 %12, label %14, label %13

13:                                               ; preds = %8
  tail call void @_ZdlPv(ptr noundef %10) #33
  br label %14

14:                                               ; preds = %13, %8
  %15 = getelementptr inbounds %"struct.benchmark::BenchmarkName", ptr %0, i64 0, i32 5
  %16 = load ptr, ptr %15, align 8, !tbaa !36
  %17 = getelementptr inbounds %"struct.benchmark::BenchmarkName", ptr %0, i64 0, i32 5, i32 2
  %18 = icmp eq ptr %16, %17
  br i1 %18, label %20, label %19

19:                                               ; preds = %14
  tail call void @_ZdlPv(ptr noundef %16) #33
  br label %20

20:                                               ; preds = %19, %14
  %21 = getelementptr inbounds %"struct.benchmark::BenchmarkName", ptr %0, i64 0, i32 4
  %22 = load ptr, ptr %21, align 8, !tbaa !36
  %23 = getelementptr inbounds %"struct.benchmark::BenchmarkName", ptr %0, i64 0, i32 4, i32 2
  %24 = icmp eq ptr %22, %23
  br i1 %24, label %26, label %25

25:                                               ; preds = %20
  tail call void @_ZdlPv(ptr noundef %22) #33
  br label %26

26:                                               ; preds = %25, %20
  %27 = getelementptr inbounds %"struct.benchmark::BenchmarkName", ptr %0, i64 0, i32 3
  %28 = load ptr, ptr %27, align 8, !tbaa !36
  %29 = getelementptr inbounds %"struct.benchmark::BenchmarkName", ptr %0, i64 0, i32 3, i32 2
  %30 = icmp eq ptr %28, %29
  br i1 %30, label %32, label %31

31:                                               ; preds = %26
  tail call void @_ZdlPv(ptr noundef %28) #33
  br label %32

32:                                               ; preds = %31, %26
  %33 = getelementptr inbounds %"struct.benchmark::BenchmarkName", ptr %0, i64 0, i32 2
  %34 = load ptr, ptr %33, align 8, !tbaa !36
  %35 = getelementptr inbounds %"struct.benchmark::BenchmarkName", ptr %0, i64 0, i32 2, i32 2
  %36 = icmp eq ptr %34, %35
  br i1 %36, label %38, label %37

37:                                               ; preds = %32
  tail call void @_ZdlPv(ptr noundef %34) #33
  br label %38

38:                                               ; preds = %37, %32
  %39 = getelementptr inbounds %"struct.benchmark::BenchmarkName", ptr %0, i64 0, i32 1
  %40 = load ptr, ptr %39, align 8, !tbaa !36
  %41 = getelementptr inbounds %"struct.benchmark::BenchmarkName", ptr %0, i64 0, i32 1, i32 2
  %42 = icmp eq ptr %40, %41
  br i1 %42, label %44, label %43

43:                                               ; preds = %38
  tail call void @_ZdlPv(ptr noundef %40) #33
  br label %44

44:                                               ; preds = %43, %38
  %45 = load ptr, ptr %0, align 8, !tbaa !36
  %46 = getelementptr inbounds %"class.std::__cxx11::basic_string", ptr %0, i64 0, i32 2
  %47 = icmp eq ptr %45, %46
  br i1 %47, label %49, label %48

48:                                               ; preds = %44
  tail call void @_ZdlPv(ptr noundef %45) #33
  br label %49

49:                                               ; preds = %44, %48
  ret void
}

; Function Attrs: uwtable
define hidden noundef ptr @_ZN9benchmark8internal25RegisterBenchmarkInternalEPNS0_9BenchmarkE(ptr noundef returned %0) local_unnamed_addr #5 personality ptr @__gxx_personality_v0 {
  %2 = load atomic i8, ptr @_ZGVZN9benchmark8internal17BenchmarkFamilies11GetInstanceEvE8instance acquire, align 8
  %3 = icmp eq i8 %2, 0
  br i1 %3, label %4, label %9, !prof !5

4:                                                ; preds = %1
  %5 = tail call i32 @__cxa_guard_acquire(ptr nonnull @_ZGVZN9benchmark8internal17BenchmarkFamilies11GetInstanceEvE8instance) #32
  %6 = icmp eq i32 %5, 0
  br i1 %6, label %9, label %7

7:                                                ; preds = %4
  tail call void @llvm.memset.p0.i64(ptr noundef nonnull align 8 dereferenceable(64) @_ZZN9benchmark8internal17BenchmarkFamilies11GetInstanceEvE8instance, i8 0, i64 64, i1 false)
  %8 = tail call i32 @__cxa_atexit(ptr nonnull @_ZN9benchmark8internal17BenchmarkFamiliesD2Ev, ptr nonnull @_ZZN9benchmark8internal17BenchmarkFamilies11GetInstanceEvE8instance, ptr nonnull @__dso_handle) #32
  tail call void @__cxa_guard_release(ptr nonnull @_ZGVZN9benchmark8internal17BenchmarkFamilies11GetInstanceEvE8instance) #32
  br label %9

9:                                                ; preds = %7, %4, %1
  %10 = tail call i32 @pthread_mutex_lock(ptr noundef nonnull getelementptr inbounds (%"class.benchmark::internal::BenchmarkFamilies", ptr @_ZZN9benchmark8internal17BenchmarkFamilies11GetInstanceEvE8instance, i64 0, i32 1)) #32
  %11 = icmp eq i32 %10, 0
  br i1 %11, label %14, label %12

12:                                               ; preds = %9
  invoke void @_ZSt20__throw_system_errori(i32 noundef %10) #34
          to label %13 unwind label %98

13:                                               ; preds = %12
  unreachable

14:                                               ; preds = %9
  %15 = load ptr, ptr getelementptr inbounds (%"class.benchmark::internal::BenchmarkFamilies", ptr @_ZZN9benchmark8internal17BenchmarkFamilies11GetInstanceEvE8instance, i64 0, i32 0, i32 0, i32 0, i32 0, i32 1), align 8, !tbaa !11
  %16 = ptrtoint ptr %15 to i64
  %17 = load ptr, ptr getelementptr inbounds (%"class.benchmark::internal::BenchmarkFamilies", ptr @_ZZN9benchmark8internal17BenchmarkFamilies11GetInstanceEvE8instance, i64 0, i32 0, i32 0, i32 0, i32 0, i32 2), align 8, !tbaa !17
  %18 = icmp eq ptr %15, %17
  br i1 %18, label %23, label %19

19:                                               ; preds = %14
  %20 = ptrtoint ptr %0 to i64
  store i64 %20, ptr %15, align 8, !tbaa !12
  %21 = load ptr, ptr getelementptr inbounds (%"class.benchmark::internal::BenchmarkFamilies", ptr @_ZZN9benchmark8internal17BenchmarkFamilies11GetInstanceEvE8instance, i64 0, i32 0, i32 0, i32 0, i32 0, i32 1), align 8, !tbaa !11
  %22 = getelementptr inbounds %"class.std::unique_ptr", ptr %21, i64 1
  store ptr %22, ptr getelementptr inbounds (%"class.benchmark::internal::BenchmarkFamilies", ptr @_ZZN9benchmark8internal17BenchmarkFamilies11GetInstanceEvE8instance, i64 0, i32 0, i32 0, i32 0, i32 0, i32 1), align 8, !tbaa !11
  br label %96

23:                                               ; preds = %14
  %24 = load ptr, ptr @_ZZN9benchmark8internal17BenchmarkFamilies11GetInstanceEvE8instance, align 8, !tbaa !6
  %25 = ptrtoint ptr %24 to i64
  %26 = ptrtoint ptr %15 to i64
  %27 = ptrtoint ptr %24 to i64
  %28 = sub i64 %26, %27
  %29 = icmp eq i64 %28, 9223372036854775800
  br i1 %29, label %30, label %32

30:                                               ; preds = %23
  invoke void @_ZSt20__throw_length_errorPKc(ptr noundef nonnull @.str.24) #34
          to label %31 unwind label %93

31:                                               ; preds = %30
  unreachable

32:                                               ; preds = %23
  %33 = ashr exact i64 %28, 3
  %34 = tail call i64 @llvm.umax.i64(i64 %33, i64 1)
  %35 = add i64 %34, %33
  %36 = icmp ult i64 %35, %33
  %37 = icmp ugt i64 %35, 1152921504606846975
  %38 = or i1 %36, %37
  %39 = select i1 %38, i64 1152921504606846975, i64 %35
  %40 = icmp eq i64 %39, 0
  br i1 %40, label %44, label %41

41:                                               ; preds = %32
  %42 = shl nuw nsw i64 %39, 3
  %43 = invoke noalias noundef nonnull ptr @_Znwm(i64 noundef %42) #35
          to label %44 unwind label %93

44:                                               ; preds = %41, %32
  %45 = phi ptr [ null, %32 ], [ %43, %41 ]
  %46 = getelementptr inbounds %"class.std::unique_ptr", ptr %45, i64 %33
  %47 = ptrtoint ptr %0 to i64
  store i64 %47, ptr %46, align 8, !tbaa !12
  %48 = icmp eq ptr %24, %15
  br i1 %48, label %86, label %49

49:                                               ; preds = %44
  %50 = add i64 %16, -8
  %51 = sub i64 %50, %25
  %52 = lshr i64 %51, 3
  %53 = add nuw nsw i64 %52, 1
  %54 = icmp ult i64 %51, 24
  br i1 %54, label %76, label %55

55:                                               ; preds = %49
  %56 = and i64 %53, -4
  %57 = shl i64 %56, 3
  %58 = getelementptr i8, ptr %45, i64 %57
  %59 = shl i64 %56, 3
  %60 = getelementptr i8, ptr %24, i64 %59
  br label %61

61:                                               ; preds = %61, %55
  %62 = phi i64 [ 0, %55 ], [ %72, %61 ]
  %63 = shl i64 %62, 3
  %64 = getelementptr i8, ptr %45, i64 %63
  %65 = shl i64 %62, 3
  %66 = getelementptr i8, ptr %24, i64 %65
  tail call void @llvm.experimental.noalias.scope.decl(metadata !87)
  tail call void @llvm.experimental.noalias.scope.decl(metadata !90)
  %67 = load <2 x i64>, ptr %66, align 8, !tbaa !12, !alias.scope !90, !noalias !87
  %68 = getelementptr i64, ptr %66, i64 2
  %69 = load <2 x i64>, ptr %68, align 8, !tbaa !12, !alias.scope !90, !noalias !87
  store <2 x i64> %67, ptr %64, align 8, !tbaa !12, !alias.scope !87, !noalias !90
  %70 = getelementptr i64, ptr %64, i64 2
  store <2 x i64> %69, ptr %70, align 8, !tbaa !12, !alias.scope !87, !noalias !90
  store <2 x ptr> zeroinitializer, ptr %66, align 8, !tbaa !12, !alias.scope !90, !noalias !87
  %71 = getelementptr ptr, ptr %66, i64 2
  store <2 x ptr> zeroinitializer, ptr %71, align 8, !tbaa !12, !alias.scope !90, !noalias !87
  %72 = add nuw i64 %62, 4
  %73 = icmp eq i64 %72, %56
  br i1 %73, label %74, label %61, !llvm.loop !92

74:                                               ; preds = %61
  %75 = icmp eq i64 %53, %56
  br i1 %75, label %86, label %76

76:                                               ; preds = %49, %74
  %77 = phi ptr [ %45, %49 ], [ %58, %74 ]
  %78 = phi ptr [ %24, %49 ], [ %60, %74 ]
  br label %79

79:                                               ; preds = %76, %79
  %80 = phi ptr [ %84, %79 ], [ %77, %76 ]
  %81 = phi ptr [ %83, %79 ], [ %78, %76 ]
  tail call void @llvm.experimental.noalias.scope.decl(metadata !87)
  tail call void @llvm.experimental.noalias.scope.decl(metadata !90)
  %82 = load i64, ptr %81, align 8, !tbaa !12, !alias.scope !90, !noalias !87
  store i64 %82, ptr %80, align 8, !tbaa !12, !alias.scope !87, !noalias !90
  store ptr null, ptr %81, align 8, !tbaa !12, !alias.scope !90, !noalias !87
  %83 = getelementptr inbounds %"class.std::unique_ptr", ptr %81, i64 1
  %84 = getelementptr inbounds %"class.std::unique_ptr", ptr %80, i64 1
  %85 = icmp eq ptr %83, %15
  br i1 %85, label %86, label %79, !llvm.loop !95

86:                                               ; preds = %79, %74, %44
  %87 = phi ptr [ %45, %44 ], [ %58, %74 ], [ %84, %79 ]
  %88 = getelementptr %"class.std::unique_ptr", ptr %87, i64 1
  %89 = icmp eq ptr %24, null
  br i1 %89, label %91, label %90

90:                                               ; preds = %86
  tail call void @_ZdlPv(ptr noundef nonnull %24) #33
  br label %91

91:                                               ; preds = %86, %90
  store ptr %45, ptr @_ZZN9benchmark8internal17BenchmarkFamilies11GetInstanceEvE8instance, align 8, !tbaa !6
  store ptr %88, ptr getelementptr inbounds (%"class.benchmark::internal::BenchmarkFamilies", ptr @_ZZN9benchmark8internal17BenchmarkFamilies11GetInstanceEvE8instance, i64 0, i32 0, i32 0, i32 0, i32 0, i32 1), align 8, !tbaa !11
  %92 = getelementptr inbounds %"class.std::unique_ptr", ptr %45, i64 %39
  store ptr %92, ptr getelementptr inbounds (%"class.benchmark::internal::BenchmarkFamilies", ptr @_ZZN9benchmark8internal17BenchmarkFamilies11GetInstanceEvE8instance, i64 0, i32 0, i32 0, i32 0, i32 0, i32 2), align 8, !tbaa !17
  br label %96

93:                                               ; preds = %41, %30
  %94 = landingpad { ptr, i32 }
          cleanup
  %95 = tail call i32 @pthread_mutex_unlock(ptr noundef nonnull getelementptr inbounds (%"class.benchmark::internal::BenchmarkFamilies", ptr @_ZZN9benchmark8internal17BenchmarkFamilies11GetInstanceEvE8instance, i64 0, i32 1)) #32
  br label %100

96:                                               ; preds = %91, %19
  %97 = tail call i32 @pthread_mutex_unlock(ptr noundef nonnull getelementptr inbounds (%"class.benchmark::internal::BenchmarkFamilies", ptr @_ZZN9benchmark8internal17BenchmarkFamilies11GetInstanceEvE8instance, i64 0, i32 1)) #32
  ret ptr %0

98:                                               ; preds = %12
  %99 = landingpad { ptr, i32 }
          cleanup
  br label %100

100:                                              ; preds = %93, %98
  %101 = phi { ptr, i32 } [ %99, %98 ], [ %94, %93 ]
  %102 = icmp eq ptr %0, null
  br i1 %102, label %107, label %103

103:                                              ; preds = %100
  %104 = load ptr, ptr %0, align 8, !tbaa !13
  %105 = getelementptr inbounds ptr, ptr %104, i64 1
  %106 = load ptr, ptr %105, align 8
  tail call void %106(ptr noundef nonnull align 8 dereferenceable(216) %0) #32
  br label %107

107:                                              ; preds = %100, %103
  resume { ptr, i32 } %101
}

; Function Attrs: uwtable
define hidden noundef zeroext i1 @_ZN9benchmark8internal22FindBenchmarksInternalERKNSt7__cxx1112basic_stringIcSt11char_traitsIcESaIcEEEPSt6vectorINS0_17BenchmarkInstanceESaISA_EEPSo(ptr nocapture noundef nonnull readonly align 8 dereferenceable(32) %0, ptr noundef %1, ptr noundef %2) local_unnamed_addr #5 personality ptr @__gxx_personality_v0 {
  %4 = alloca i64, align 8
  %5 = alloca %"class.std::__cxx11::basic_string", align 8
  %6 = load atomic i8, ptr @_ZGVZN9benchmark8internal17BenchmarkFamilies11GetInstanceEvE8instance acquire, align 8
  %7 = icmp eq i8 %6, 0
  br i1 %7, label %8, label %13, !prof !5

8:                                                ; preds = %3
  %9 = tail call i32 @__cxa_guard_acquire(ptr nonnull @_ZGVZN9benchmark8internal17BenchmarkFamilies11GetInstanceEvE8instance) #32
  %10 = icmp eq i32 %9, 0
  br i1 %10, label %13, label %11

11:                                               ; preds = %8
  tail call void @llvm.memset.p0.i64(ptr noundef nonnull align 8 dereferenceable(64) @_ZZN9benchmark8internal17BenchmarkFamilies11GetInstanceEvE8instance, i8 0, i64 64, i1 false)
  %12 = tail call i32 @__cxa_atexit(ptr nonnull @_ZN9benchmark8internal17BenchmarkFamiliesD2Ev, ptr nonnull @_ZZN9benchmark8internal17BenchmarkFamilies11GetInstanceEvE8instance, ptr nonnull @__dso_handle) #32
  tail call void @__cxa_guard_release(ptr nonnull @_ZGVZN9benchmark8internal17BenchmarkFamilies11GetInstanceEvE8instance) #32
  br label %13

13:                                               ; preds = %3, %8, %11
  %14 = getelementptr inbounds %"class.std::__cxx11::basic_string", ptr %5, i64 0, i32 2
  store ptr %14, ptr %5, align 8, !tbaa !20
  %15 = load ptr, ptr %0, align 8, !tbaa !36
  %16 = getelementptr inbounds %"class.std::__cxx11::basic_string", ptr %0, i64 0, i32 1
  %17 = load i64, ptr %16, align 8, !tbaa !22
  call void @llvm.lifetime.start.p0(i64 8, ptr nonnull %4) #32
  store i64 %17, ptr %4, align 8, !tbaa !96
  %18 = icmp ugt i64 %17, 15
  br i1 %18, label %19, label %22

19:                                               ; preds = %13
  %20 = call noundef ptr @_ZNSt7__cxx1112basic_stringIcSt11char_traitsIcESaIcEE9_M_createERmm(ptr noundef nonnull align 8 dereferenceable(32) %5, ptr noundef nonnull align 8 dereferenceable(8) %4, i64 noundef 0)
  store ptr %20, ptr %5, align 8, !tbaa !36
  %21 = load i64, ptr %4, align 8, !tbaa !96
  store i64 %21, ptr %14, align 8, !tbaa !25
  br label %22

22:                                               ; preds = %19, %13
  %23 = phi ptr [ %20, %19 ], [ %14, %13 ]
  switch i64 %17, label %26 [
    i64 1, label %24
    i64 0, label %27
  ]

24:                                               ; preds = %22
  %25 = load i8, ptr %15, align 1, !tbaa !25
  store i8 %25, ptr %23, align 1, !tbaa !25
  br label %27

26:                                               ; preds = %22
  call void @llvm.memcpy.p0.p0.i64(ptr align 1 %23, ptr align 1 %15, i64 %17, i1 false)
  br label %27

27:                                               ; preds = %22, %24, %26
  %28 = load i64, ptr %4, align 8, !tbaa !96
  %29 = getelementptr inbounds %"class.std::__cxx11::basic_string", ptr %5, i64 0, i32 1
  store i64 %28, ptr %29, align 8, !tbaa !22
  %30 = load ptr, ptr %5, align 8, !tbaa !36
  %31 = getelementptr inbounds i8, ptr %30, i64 %28
  store i8 0, ptr %31, align 1, !tbaa !25
  call void @llvm.lifetime.end.p0(i64 8, ptr nonnull %4) #32
  %32 = invoke noundef zeroext i1 @_ZN9benchmark8internal17BenchmarkFamilies14FindBenchmarksENSt7__cxx1112basic_stringIcSt11char_traitsIcESaIcEEEPSt6vectorINS0_17BenchmarkInstanceESaIS9_EEPSo(ptr noundef nonnull align 8 dereferenceable(64) @_ZZN9benchmark8internal17BenchmarkFamilies11GetInstanceEvE8instance, ptr noundef nonnull %5, ptr noundef %1, ptr noundef %2)
          to label %33 unwind label %38

33:                                               ; preds = %27
  %34 = load ptr, ptr %5, align 8, !tbaa !36
  %35 = icmp eq ptr %34, %14
  br i1 %35, label %37, label %36

36:                                               ; preds = %33
  call void @_ZdlPv(ptr noundef %34) #33
  br label %37

37:                                               ; preds = %33, %36
  ret i1 %32

38:                                               ; preds = %27
  %39 = landingpad { ptr, i32 }
          cleanup
  %40 = load ptr, ptr %5, align 8, !tbaa !36
  %41 = icmp eq ptr %40, %14
  br i1 %41, label %43, label %42

42:                                               ; preds = %38
  call void @_ZdlPv(ptr noundef %40) #33
  br label %43

43:                                               ; preds = %38, %42
  resume { ptr, i32 } %39
}

; Function Attrs: uwtable
define hidden void @_ZN9benchmark8internal9BenchmarkC2EPKc(ptr noundef nonnull align 8 dereferenceable(216) %0, ptr noundef readonly %1) unnamed_addr #5 align 2 personality ptr @__gxx_personality_v0 {
  %3 = alloca ptr, align 8
  %4 = alloca i32, align 4
  %5 = alloca ptr, align 8
  %6 = alloca i32, align 4
  %7 = alloca ptr, align 8
  %8 = alloca i32, align 4
  %9 = alloca ptr, align 8
  %10 = alloca i32, align 4
  %11 = alloca i64, align 8
  %12 = alloca %"class.std::__cxx11::basic_string", align 8
  %13 = alloca %"class.std::__cxx11::basic_string", align 8
  %14 = alloca %"class.std::__cxx11::basic_string", align 8
  %15 = alloca %"class.std::__cxx11::basic_string", align 8
  store ptr getelementptr inbounds ({ [5 x ptr] }, ptr @_ZTVN9benchmark8internal9BenchmarkE, i64 0, inrange i32 0, i64 2), ptr %0, align 8, !tbaa !13
  %16 = getelementptr inbounds %"class.benchmark::internal::Benchmark", ptr %0, i64 0, i32 1
  %17 = getelementptr inbounds %"class.benchmark::internal::Benchmark", ptr %0, i64 0, i32 1, i32 2
  store ptr %17, ptr %16, align 8, !tbaa !20
  %18 = icmp eq ptr %1, null
  br i1 %18, label %19, label %20

19:                                               ; preds = %2
  tail call void @_ZSt19__throw_logic_errorPKc(ptr noundef nonnull @.str.29) #34
  unreachable

20:                                               ; preds = %2
  %21 = tail call i64 @strlen(ptr noundef nonnull dereferenceable(1) %1) #32
  call void @llvm.lifetime.start.p0(i64 8, ptr nonnull %11) #32
  store i64 %21, ptr %11, align 8, !tbaa !96
  %22 = icmp ugt i64 %21, 15
  br i1 %22, label %23, label %26

23:                                               ; preds = %20
  %24 = call noundef ptr @_ZNSt7__cxx1112basic_stringIcSt11char_traitsIcESaIcEE9_M_createERmm(ptr noundef nonnull align 8 dereferenceable(32) %16, ptr noundef nonnull align 8 dereferenceable(8) %11, i64 noundef 0)
  store ptr %24, ptr %16, align 8, !tbaa !36
  %25 = load i64, ptr %11, align 8, !tbaa !96
  store i64 %25, ptr %17, align 8, !tbaa !25
  br label %26

26:                                               ; preds = %23, %20
  %27 = phi ptr [ %24, %23 ], [ %17, %20 ]
  switch i64 %21, label %30 [
    i64 1, label %28
    i64 0, label %31
  ]

28:                                               ; preds = %26
  %29 = load i8, ptr %1, align 1, !tbaa !25
  store i8 %29, ptr %27, align 1, !tbaa !25
  br label %31

30:                                               ; preds = %26
  call void @llvm.memcpy.p0.p0.i64(ptr align 1 %27, ptr nonnull align 1 %1, i64 %21, i1 false)
  br label %31

31:                                               ; preds = %26, %28, %30
  %32 = load i64, ptr %11, align 8, !tbaa !96
  %33 = getelementptr inbounds %"class.benchmark::internal::Benchmark", ptr %0, i64 0, i32 1, i32 1
  store i64 %32, ptr %33, align 8, !tbaa !22
  %34 = load ptr, ptr %16, align 8, !tbaa !36
  %35 = getelementptr inbounds i8, ptr %34, i64 %32
  store i8 0, ptr %35, align 1, !tbaa !25
  call void @llvm.lifetime.end.p0(i64 8, ptr nonnull %11) #32
  %36 = getelementptr inbounds %"class.benchmark::internal::Benchmark", ptr %0, i64 0, i32 2
  store i32 0, ptr %36, align 8, !tbaa !97
  %37 = getelementptr inbounds %"class.benchmark::internal::Benchmark", ptr %0, i64 0, i32 3
  %38 = getelementptr inbounds %"class.benchmark::internal::Benchmark", ptr %0, i64 0, i32 4
  call void @llvm.memset.p0.i64(ptr noundef nonnull align 8 dereferenceable(48) %37, i8 0, i64 48, i1 false)
  %39 = invoke noundef i32 @_ZN9benchmark18GetDefaultTimeUnitEv()
          to label %40 unwind label %129

40:                                               ; preds = %31
  %41 = getelementptr inbounds %"class.benchmark::internal::Benchmark", ptr %0, i64 0, i32 5
  store i32 %39, ptr %41, align 8, !tbaa !118
  %42 = getelementptr inbounds %"class.benchmark::internal::Benchmark", ptr %0, i64 0, i32 6
  store i8 1, ptr %42, align 4, !tbaa !119
  %43 = getelementptr inbounds %"class.benchmark::internal::Benchmark", ptr %0, i64 0, i32 7
  store i32 8, ptr %43, align 8, !tbaa !120
  %44 = getelementptr inbounds %"class.benchmark::internal::Benchmark", ptr %0, i64 0, i32 8
  %45 = getelementptr inbounds %"class.benchmark::internal::Benchmark", ptr %0, i64 0, i32 14
  store i32 0, ptr %45, align 8, !tbaa !121
  %46 = getelementptr inbounds %"class.benchmark::internal::Benchmark", ptr %0, i64 0, i32 15
  %47 = getelementptr inbounds %"class.benchmark::internal::Benchmark", ptr %0, i64 0, i32 16
  %48 = getelementptr inbounds %"class.benchmark::internal::Benchmark", ptr %0, i64 0, i32 17
  call void @llvm.memset.p0.i64(ptr noundef nonnull align 8 dereferenceable(23) %44, i8 0, i64 23, i1 false)
  call void @llvm.memset.p0.i64(ptr noundef nonnull align 8 dereferenceable(72) %46, i8 0, i64 72, i1 false)
  call void @llvm.lifetime.start.p0(i64 32, ptr nonnull %12) #32
  %49 = getelementptr inbounds %"class.std::__cxx11::basic_string", ptr %12, i64 0, i32 2
  store ptr %49, ptr %12, align 8, !tbaa !20
  store i32 1851876717, ptr %49, align 8
  %50 = getelementptr inbounds %"class.std::__cxx11::basic_string", ptr %12, i64 0, i32 1
  store i64 4, ptr %50, align 8, !tbaa !22
  %51 = getelementptr inbounds i8, ptr %12, i64 20
  store i8 0, ptr %51, align 4, !tbaa !25
  call void @llvm.lifetime.start.p0(i64 8, ptr nonnull %9)
  call void @llvm.lifetime.start.p0(i64 4, ptr nonnull %10)
  store ptr @_ZN9benchmark14StatisticsMeanERKSt6vectorIdSaIdEE, ptr %9, align 8, !tbaa !12
  store i32 0, ptr %10, align 4, !tbaa !122
  %52 = getelementptr inbounds %"class.benchmark::internal::Benchmark", ptr %0, i64 0, i32 16, i32 0, i32 0, i32 0, i32 1
  %53 = getelementptr inbounds %"class.benchmark::internal::Benchmark", ptr %0, i64 0, i32 16, i32 0, i32 0, i32 0, i32 2
  invoke void @_ZNSt6vectorIN9benchmark8internal10StatisticsESaIS2_EE17_M_realloc_insertIJRKNSt7__cxx1112basic_stringIcSt11char_traitsIcESaIcEEERPFdRKS_IdSaIdEEERNS0_13StatisticUnitEEEEvN9__gnu_cxx17__normal_iteratorIPS2_S4_EEDpOT_(ptr noundef nonnull align 8 dereferenceable(24) %47, ptr null, ptr noundef nonnull align 8 dereferenceable(32) %12, ptr noundef nonnull align 8 dereferenceable(8) %9, ptr noundef nonnull align 4 dereferenceable(4) %10)
          to label %54 unwind label %131

54:                                               ; preds = %40
  %55 = load ptr, ptr %12, align 8, !tbaa !36
  call void @llvm.lifetime.end.p0(i64 8, ptr nonnull %9)
  call void @llvm.lifetime.end.p0(i64 4, ptr nonnull %10)
  %56 = icmp eq ptr %55, %49
  br i1 %56, label %58, label %57

57:                                               ; preds = %54
  call void @_ZdlPv(ptr noundef %55) #33
  br label %58

58:                                               ; preds = %54, %57
  call void @llvm.lifetime.end.p0(i64 32, ptr nonnull %12) #32
  call void @llvm.lifetime.start.p0(i64 32, ptr nonnull %13) #32
  %59 = getelementptr inbounds %"class.std::__cxx11::basic_string", ptr %13, i64 0, i32 2
  store ptr %59, ptr %13, align 8, !tbaa !20
  call void @llvm.memcpy.p0.p0.i64(ptr noundef nonnull align 8 dereferenceable(6) %59, ptr noundef nonnull align 1 dereferenceable(6) @.str.8, i64 6, i1 false)
  %60 = getelementptr inbounds %"class.std::__cxx11::basic_string", ptr %13, i64 0, i32 1
  store i64 6, ptr %60, align 8, !tbaa !22
  %61 = getelementptr inbounds i8, ptr %13, i64 22
  store i8 0, ptr %61, align 2, !tbaa !25
  call void @llvm.lifetime.start.p0(i64 8, ptr nonnull %7)
  call void @llvm.lifetime.start.p0(i64 4, ptr nonnull %8)
  store ptr @_ZN9benchmark16StatisticsMedianERKSt6vectorIdSaIdEE, ptr %7, align 8, !tbaa !12
  store i32 0, ptr %8, align 4, !tbaa !122
  %62 = load ptr, ptr %52, align 8, !tbaa !124
  %63 = load ptr, ptr %53, align 8, !tbaa !125
  %64 = icmp eq ptr %62, %63
  br i1 %64, label %74, label %65

65:                                               ; preds = %58
  %66 = getelementptr inbounds %"class.std::__cxx11::basic_string", ptr %62, i64 0, i32 2
  store ptr %66, ptr %62, align 8, !tbaa !20
  %67 = load ptr, ptr %13, align 8, !tbaa !36
  call void @llvm.memcpy.p0.p0.i64(ptr noundef nonnull align 1 dereferenceable(6) %66, ptr noundef nonnull align 1 dereferenceable(6) %67, i64 6, i1 false)
  %68 = getelementptr inbounds %"class.std::__cxx11::basic_string", ptr %62, i64 0, i32 1
  store i64 6, ptr %68, align 8, !tbaa !22
  %69 = getelementptr inbounds i8, ptr %62, i64 22
  store i8 0, ptr %69, align 1, !tbaa !25
  %70 = getelementptr inbounds %"struct.benchmark::internal::Statistics", ptr %62, i64 0, i32 1
  store ptr @_ZN9benchmark16StatisticsMedianERKSt6vectorIdSaIdEE, ptr %70, align 8, !tbaa !126
  %71 = getelementptr inbounds %"struct.benchmark::internal::Statistics", ptr %62, i64 0, i32 2
  store i32 0, ptr %71, align 8, !tbaa !128
  %72 = load ptr, ptr %52, align 8, !tbaa !124
  %73 = getelementptr inbounds %"struct.benchmark::internal::Statistics", ptr %72, i64 1
  store ptr %73, ptr %52, align 8, !tbaa !124
  br label %77

74:                                               ; preds = %58
  invoke void @_ZNSt6vectorIN9benchmark8internal10StatisticsESaIS2_EE17_M_realloc_insertIJRKNSt7__cxx1112basic_stringIcSt11char_traitsIcESaIcEEERPFdRKS_IdSaIdEEERNS0_13StatisticUnitEEEEvN9__gnu_cxx17__normal_iteratorIPS2_S4_EEDpOT_(ptr noundef nonnull align 8 dereferenceable(24) %47, ptr %62, ptr noundef nonnull align 8 dereferenceable(32) %13, ptr noundef nonnull align 8 dereferenceable(8) %7, ptr noundef nonnull align 4 dereferenceable(4) %8)
          to label %75 unwind label %137

75:                                               ; preds = %74
  %76 = load ptr, ptr %13, align 8, !tbaa !36
  br label %77

77:                                               ; preds = %75, %65
  %78 = phi ptr [ %76, %75 ], [ %67, %65 ]
  call void @llvm.lifetime.end.p0(i64 8, ptr nonnull %7)
  call void @llvm.lifetime.end.p0(i64 4, ptr nonnull %8)
  %79 = icmp eq ptr %78, %59
  br i1 %79, label %81, label %80

80:                                               ; preds = %77
  call void @_ZdlPv(ptr noundef %78) #33
  br label %81

81:                                               ; preds = %77, %80
  call void @llvm.lifetime.end.p0(i64 32, ptr nonnull %13) #32
  call void @llvm.lifetime.start.p0(i64 32, ptr nonnull %14) #32
  %82 = getelementptr inbounds %"class.std::__cxx11::basic_string", ptr %14, i64 0, i32 2
  store ptr %82, ptr %14, align 8, !tbaa !20
  call void @llvm.memcpy.p0.p0.i64(ptr noundef nonnull align 8 dereferenceable(6) %82, ptr noundef nonnull align 1 dereferenceable(6) @.str.9, i64 6, i1 false)
  %83 = getelementptr inbounds %"class.std::__cxx11::basic_string", ptr %14, i64 0, i32 1
  store i64 6, ptr %83, align 8, !tbaa !22
  %84 = getelementptr inbounds i8, ptr %14, i64 22
  store i8 0, ptr %84, align 2, !tbaa !25
  call void @llvm.lifetime.start.p0(i64 8, ptr nonnull %5)
  call void @llvm.lifetime.start.p0(i64 4, ptr nonnull %6)
  store ptr @_ZN9benchmark16StatisticsStdDevERKSt6vectorIdSaIdEE, ptr %5, align 8, !tbaa !12
  store i32 0, ptr %6, align 4, !tbaa !122
  %85 = load ptr, ptr %52, align 8, !tbaa !124
  %86 = load ptr, ptr %53, align 8, !tbaa !125
  %87 = icmp eq ptr %85, %86
  br i1 %87, label %97, label %88

88:                                               ; preds = %81
  %89 = getelementptr inbounds %"class.std::__cxx11::basic_string", ptr %85, i64 0, i32 2
  store ptr %89, ptr %85, align 8, !tbaa !20
  %90 = load ptr, ptr %14, align 8, !tbaa !36
  call void @llvm.memcpy.p0.p0.i64(ptr noundef nonnull align 1 dereferenceable(6) %89, ptr noundef nonnull align 1 dereferenceable(6) %90, i64 6, i1 false)
  %91 = getelementptr inbounds %"class.std::__cxx11::basic_string", ptr %85, i64 0, i32 1
  store i64 6, ptr %91, align 8, !tbaa !22
  %92 = getelementptr inbounds i8, ptr %85, i64 22
  store i8 0, ptr %92, align 1, !tbaa !25
  %93 = getelementptr inbounds %"struct.benchmark::internal::Statistics", ptr %85, i64 0, i32 1
  store ptr @_ZN9benchmark16StatisticsStdDevERKSt6vectorIdSaIdEE, ptr %93, align 8, !tbaa !126
  %94 = getelementptr inbounds %"struct.benchmark::internal::Statistics", ptr %85, i64 0, i32 2
  store i32 0, ptr %94, align 8, !tbaa !128
  %95 = load ptr, ptr %52, align 8, !tbaa !124
  %96 = getelementptr inbounds %"struct.benchmark::internal::Statistics", ptr %95, i64 1
  store ptr %96, ptr %52, align 8, !tbaa !124
  br label %100

97:                                               ; preds = %81
  invoke void @_ZNSt6vectorIN9benchmark8internal10StatisticsESaIS2_EE17_M_realloc_insertIJRKNSt7__cxx1112basic_stringIcSt11char_traitsIcESaIcEEERPFdRKS_IdSaIdEEERNS0_13StatisticUnitEEEEvN9__gnu_cxx17__normal_iteratorIPS2_S4_EEDpOT_(ptr noundef nonnull align 8 dereferenceable(24) %47, ptr %85, ptr noundef nonnull align 8 dereferenceable(32) %14, ptr noundef nonnull align 8 dereferenceable(8) %5, ptr noundef nonnull align 4 dereferenceable(4) %6)
          to label %98 unwind label %143

98:                                               ; preds = %97
  %99 = load ptr, ptr %14, align 8, !tbaa !36
  br label %100

100:                                              ; preds = %98, %88
  %101 = phi ptr [ %99, %98 ], [ %90, %88 ]
  call void @llvm.lifetime.end.p0(i64 8, ptr nonnull %5)
  call void @llvm.lifetime.end.p0(i64 4, ptr nonnull %6)
  %102 = icmp eq ptr %101, %82
  br i1 %102, label %104, label %103

103:                                              ; preds = %100
  call void @_ZdlPv(ptr noundef %101) #33
  br label %104

104:                                              ; preds = %100, %103
  call void @llvm.lifetime.end.p0(i64 32, ptr nonnull %14) #32
  call void @llvm.lifetime.start.p0(i64 32, ptr nonnull %15) #32
  %105 = getelementptr inbounds %"class.std::__cxx11::basic_string", ptr %15, i64 0, i32 2
  store ptr %105, ptr %15, align 8, !tbaa !20
  store i16 30307, ptr %105, align 8
  %106 = getelementptr inbounds %"class.std::__cxx11::basic_string", ptr %15, i64 0, i32 1
  store i64 2, ptr %106, align 8, !tbaa !22
  %107 = getelementptr inbounds i8, ptr %15, i64 18
  store i8 0, ptr %107, align 2, !tbaa !25
  call void @llvm.lifetime.start.p0(i64 8, ptr nonnull %3)
  call void @llvm.lifetime.start.p0(i64 4, ptr nonnull %4)
  store ptr @_ZN9benchmark12StatisticsCVERKSt6vectorIdSaIdEE, ptr %3, align 8, !tbaa !12
  store i32 1, ptr %4, align 4, !tbaa !122
  %108 = load ptr, ptr %52, align 8, !tbaa !124
  %109 = load ptr, ptr %53, align 8, !tbaa !125
  %110 = icmp eq ptr %108, %109
  br i1 %110, label %121, label %111

111:                                              ; preds = %104
  %112 = getelementptr inbounds %"class.std::__cxx11::basic_string", ptr %108, i64 0, i32 2
  store ptr %112, ptr %108, align 8, !tbaa !20
  %113 = load ptr, ptr %15, align 8, !tbaa !36
  %114 = load i16, ptr %113, align 1
  store i16 %114, ptr %112, align 1
  %115 = getelementptr inbounds %"class.std::__cxx11::basic_string", ptr %108, i64 0, i32 1
  store i64 2, ptr %115, align 8, !tbaa !22
  %116 = getelementptr inbounds i8, ptr %108, i64 18
  store i8 0, ptr %116, align 1, !tbaa !25
  %117 = getelementptr inbounds %"struct.benchmark::internal::Statistics", ptr %108, i64 0, i32 1
  store ptr @_ZN9benchmark12StatisticsCVERKSt6vectorIdSaIdEE, ptr %117, align 8, !tbaa !126
  %118 = getelementptr inbounds %"struct.benchmark::internal::Statistics", ptr %108, i64 0, i32 2
  store i32 1, ptr %118, align 8, !tbaa !128
  %119 = load ptr, ptr %52, align 8, !tbaa !124
  %120 = getelementptr inbounds %"struct.benchmark::internal::Statistics", ptr %119, i64 1
  store ptr %120, ptr %52, align 8, !tbaa !124
  br label %124

121:                                              ; preds = %104
  invoke void @_ZNSt6vectorIN9benchmark8internal10StatisticsESaIS2_EE17_M_realloc_insertIJRKNSt7__cxx1112basic_stringIcSt11char_traitsIcESaIcEEERPFdRKS_IdSaIdEEERNS0_13StatisticUnitEEEEvN9__gnu_cxx17__normal_iteratorIPS2_S4_EEDpOT_(ptr noundef nonnull align 8 dereferenceable(24) %47, ptr %108, ptr noundef nonnull align 8 dereferenceable(32) %15, ptr noundef nonnull align 8 dereferenceable(8) %3, ptr noundef nonnull align 4 dereferenceable(4) %4)
          to label %122 unwind label %149

122:                                              ; preds = %121
  %123 = load ptr, ptr %15, align 8, !tbaa !36
  br label %124

124:                                              ; preds = %122, %111
  %125 = phi ptr [ %123, %122 ], [ %113, %111 ]
  call void @llvm.lifetime.end.p0(i64 8, ptr nonnull %3)
  call void @llvm.lifetime.end.p0(i64 4, ptr nonnull %4)
  %126 = icmp eq ptr %125, %105
  br i1 %126, label %128, label %127

127:                                              ; preds = %124
  call void @_ZdlPv(ptr noundef %125) #33
  br label %128

128:                                              ; preds = %124, %127
  call void @llvm.lifetime.end.p0(i64 32, ptr nonnull %15) #32
  ret void

129:                                              ; preds = %31
  %130 = landingpad { ptr, i32 }
          cleanup
  br label %161

131:                                              ; preds = %40
  %132 = landingpad { ptr, i32 }
          cleanup
  %133 = load ptr, ptr %12, align 8, !tbaa !36
  %134 = icmp eq ptr %133, %49
  br i1 %134, label %136, label %135

135:                                              ; preds = %131
  call void @_ZdlPv(ptr noundef %133) #33
  br label %136

136:                                              ; preds = %135, %131
  call void @llvm.lifetime.end.p0(i64 32, ptr nonnull %12) #32
  br label %155

137:                                              ; preds = %74
  %138 = landingpad { ptr, i32 }
          cleanup
  %139 = load ptr, ptr %13, align 8, !tbaa !36
  %140 = icmp eq ptr %139, %59
  br i1 %140, label %142, label %141

141:                                              ; preds = %137
  call void @_ZdlPv(ptr noundef %139) #33
  br label %142

142:                                              ; preds = %141, %137
  call void @llvm.lifetime.end.p0(i64 32, ptr nonnull %13) #32
  br label %155

143:                                              ; preds = %97
  %144 = landingpad { ptr, i32 }
          cleanup
  %145 = load ptr, ptr %14, align 8, !tbaa !36
  %146 = icmp eq ptr %145, %82
  br i1 %146, label %148, label %147

147:                                              ; preds = %143
  call void @_ZdlPv(ptr noundef %145) #33
  br label %148

148:                                              ; preds = %147, %143
  call void @llvm.lifetime.end.p0(i64 32, ptr nonnull %14) #32
  br label %155

149:                                              ; preds = %121
  %150 = landingpad { ptr, i32 }
          cleanup
  %151 = load ptr, ptr %15, align 8, !tbaa !36
  %152 = icmp eq ptr %151, %105
  br i1 %152, label %154, label %153

153:                                              ; preds = %149
  call void @_ZdlPv(ptr noundef %151) #33
  br label %154

154:                                              ; preds = %153, %149
  call void @llvm.lifetime.end.p0(i64 32, ptr nonnull %15) #32
  br label %155

155:                                              ; preds = %154, %148, %142, %136
  %156 = phi { ptr, i32 } [ %150, %154 ], [ %144, %148 ], [ %138, %142 ], [ %132, %136 ]
  %157 = load ptr, ptr %48, align 8, !tbaa !129
  %158 = icmp eq ptr %157, null
  br i1 %158, label %160, label %159

159:                                              ; preds = %155
  call void @_ZdlPv(ptr noundef nonnull %157) #33
  br label %160

160:                                              ; preds = %155, %159
  call void @_ZNSt6vectorIN9benchmark8internal10StatisticsESaIS2_EED2Ev(ptr noundef nonnull align 8 dereferenceable(24) %47) #32
  br label %161

161:                                              ; preds = %160, %129
  %162 = phi { ptr, i32 } [ %156, %160 ], [ %130, %129 ]
  call void @_ZNSt6vectorIS_IlSaIlEESaIS1_EED2Ev(ptr noundef nonnull align 8 dereferenceable(24) %38) #32
  call void @_ZNSt6vectorINSt7__cxx1112basic_stringIcSt11char_traitsIcESaIcEEESaIS5_EED2Ev(ptr noundef nonnull align 8 dereferenceable(24) %37) #32
  %163 = load ptr, ptr %16, align 8, !tbaa !36
  %164 = icmp eq ptr %163, %17
  br i1 %164, label %166, label %165

165:                                              ; preds = %161
  call void @_ZdlPv(ptr noundef %163) #33
  br label %166

166:                                              ; preds = %165, %161
  resume { ptr, i32 } %162
}

declare noundef i32 @_ZN9benchmark18GetDefaultTimeUnitEv() local_unnamed_addr #0

; Function Attrs: uwtable
define hidden noundef nonnull ptr @_ZN9benchmark8internal9Benchmark17ComputeStatisticsERKNSt7__cxx1112basic_stringIcSt11char_traitsIcESaIcEEEPFdRKSt6vectorIdSaIdEEENS_13StatisticUnitE(ptr noundef nonnull returned align 8 dereferenceable(216) %0, ptr noundef nonnull align 8 dereferenceable(32) %1, ptr noundef %2, i32 noundef %3) local_unnamed_addr #5 align 2 personality ptr @__gxx_personality_v0 {
  %5 = alloca i64, align 8
  %6 = alloca ptr, align 8
  %7 = alloca i32, align 4
  store ptr %2, ptr %6, align 8, !tbaa !12
  store i32 %3, ptr %7, align 4, !tbaa !122
  %8 = getelementptr inbounds %"class.benchmark::internal::Benchmark", ptr %0, i64 0, i32 16, i32 0, i32 0, i32 0, i32 1
  %9 = load ptr, ptr %8, align 8, !tbaa !124
  %10 = getelementptr inbounds %"class.benchmark::internal::Benchmark", ptr %0, i64 0, i32 16, i32 0, i32 0, i32 0, i32 2
  %11 = load ptr, ptr %10, align 8, !tbaa !125
  %12 = icmp eq ptr %9, %11
  br i1 %12, label %36, label %13

13:                                               ; preds = %4
  %14 = getelementptr inbounds %"class.std::__cxx11::basic_string", ptr %9, i64 0, i32 2
  store ptr %14, ptr %9, align 8, !tbaa !20
  %15 = load ptr, ptr %1, align 8, !tbaa !36
  %16 = getelementptr inbounds %"class.std::__cxx11::basic_string", ptr %1, i64 0, i32 1
  %17 = load i64, ptr %16, align 8, !tbaa !22
  call void @llvm.lifetime.start.p0(i64 8, ptr nonnull %5) #32
  store i64 %17, ptr %5, align 8, !tbaa !96
  %18 = icmp ugt i64 %17, 15
  br i1 %18, label %19, label %22

19:                                               ; preds = %13
  %20 = call noundef ptr @_ZNSt7__cxx1112basic_stringIcSt11char_traitsIcESaIcEE9_M_createERmm(ptr noundef nonnull align 8 dereferenceable(32) %9, ptr noundef nonnull align 8 dereferenceable(8) %5, i64 noundef 0)
  store ptr %20, ptr %9, align 8, !tbaa !36
  %21 = load i64, ptr %5, align 8, !tbaa !96
  store i64 %21, ptr %14, align 8, !tbaa !25
  br label %22

22:                                               ; preds = %19, %13
  %23 = phi ptr [ %20, %19 ], [ %14, %13 ]
  switch i64 %17, label %26 [
    i64 1, label %24
    i64 0, label %27
  ]

24:                                               ; preds = %22
  %25 = load i8, ptr %15, align 1, !tbaa !25
  store i8 %25, ptr %23, align 1, !tbaa !25
  br label %27

26:                                               ; preds = %22
  call void @llvm.memcpy.p0.p0.i64(ptr align 1 %23, ptr align 1 %15, i64 %17, i1 false)
  br label %27

27:                                               ; preds = %26, %24, %22
  %28 = load i64, ptr %5, align 8, !tbaa !96
  %29 = getelementptr inbounds %"class.std::__cxx11::basic_string", ptr %9, i64 0, i32 1
  store i64 %28, ptr %29, align 8, !tbaa !22
  %30 = load ptr, ptr %9, align 8, !tbaa !36
  %31 = getelementptr inbounds i8, ptr %30, i64 %28
  store i8 0, ptr %31, align 1, !tbaa !25
  call void @llvm.lifetime.end.p0(i64 8, ptr nonnull %5) #32
  %32 = getelementptr inbounds %"struct.benchmark::internal::Statistics", ptr %9, i64 0, i32 1
  store ptr %2, ptr %32, align 8, !tbaa !126
  %33 = getelementptr inbounds %"struct.benchmark::internal::Statistics", ptr %9, i64 0, i32 2
  store i32 %3, ptr %33, align 8, !tbaa !128
  %34 = load ptr, ptr %8, align 8, !tbaa !124
  %35 = getelementptr inbounds %"struct.benchmark::internal::Statistics", ptr %34, i64 1
  store ptr %35, ptr %8, align 8, !tbaa !124
  br label %38

36:                                               ; preds = %4
  %37 = getelementptr inbounds %"class.benchmark::internal::Benchmark", ptr %0, i64 0, i32 16
  call void @_ZNSt6vectorIN9benchmark8internal10StatisticsESaIS2_EE17_M_realloc_insertIJRKNSt7__cxx1112basic_stringIcSt11char_traitsIcESaIcEEERPFdRKS_IdSaIdEEERNS0_13StatisticUnitEEEEvN9__gnu_cxx17__normal_iteratorIPS2_S4_EEDpOT_(ptr noundef nonnull align 8 dereferenceable(24) %37, ptr %9, ptr noundef nonnull align 8 dereferenceable(32) %1, ptr noundef nonnull align 8 dereferenceable(8) %6, ptr noundef nonnull align 4 dereferenceable(4) %7)
  br label %38

38:                                               ; preds = %27, %36
  ret ptr %0
}

declare noundef double @_ZN9benchmark14StatisticsMeanERKSt6vectorIdSaIdEE(ptr noundef nonnull align 8 dereferenceable(24)) #0

declare noundef double @_ZN9benchmark16StatisticsMedianERKSt6vectorIdSaIdEE(ptr noundef nonnull align 8 dereferenceable(24)) #0

declare noundef double @_ZN9benchmark16StatisticsStdDevERKSt6vectorIdSaIdEE(ptr noundef nonnull align 8 dereferenceable(24)) #0

declare noundef double @_ZN9benchmark12StatisticsCVERKSt6vectorIdSaIdEE(ptr noundef nonnull align 8 dereferenceable(24)) #0

; Function Attrs: nounwind uwtable
define linkonce_odr hidden void @_ZNSt6vectorIN9benchmark8internal10StatisticsESaIS2_EED2Ev(ptr noundef nonnull align 8 dereferenceable(24) %0) unnamed_addr #10 comdat align 2 personality ptr @__gxx_personality_v0 {
  %2 = load ptr, ptr %0, align 8, !tbaa !130
  %3 = getelementptr inbounds %"struct.std::_Vector_base<benchmark::internal::Statistics, std::allocator<benchmark::internal::Statistics>>::_Vector_impl_data", ptr %0, i64 0, i32 1
  %4 = load ptr, ptr %3, align 8, !tbaa !124
  %5 = icmp eq ptr %2, %4
  br i1 %5, label %17, label %6

6:                                                ; preds = %1, %12
  %7 = phi ptr [ %13, %12 ], [ %2, %1 ]
  %8 = load ptr, ptr %7, align 8, !tbaa !36
  %9 = getelementptr inbounds %"class.std::__cxx11::basic_string", ptr %7, i64 0, i32 2
  %10 = icmp eq ptr %8, %9
  br i1 %10, label %12, label %11

11:                                               ; preds = %6
  tail call void @_ZdlPv(ptr noundef %8) #33
  br label %12

12:                                               ; preds = %11, %6
  %13 = getelementptr inbounds %"struct.benchmark::internal::Statistics", ptr %7, i64 1
  %14 = icmp eq ptr %13, %4
  br i1 %14, label %15, label %6, !llvm.loop !131

15:                                               ; preds = %12
  %16 = load ptr, ptr %0, align 8, !tbaa !130
  br label %17

17:                                               ; preds = %15, %1
  %18 = phi ptr [ %16, %15 ], [ %2, %1 ]
  %19 = icmp eq ptr %18, null
  br i1 %19, label %21, label %20

20:                                               ; preds = %17
  tail call void @_ZdlPv(ptr noundef nonnull %18) #33
  br label %21

21:                                               ; preds = %17, %20
  ret void
}

; Function Attrs: nounwind uwtable
define linkonce_odr hidden void @_ZNSt6vectorIS_IlSaIlEESaIS1_EED2Ev(ptr noundef nonnull align 8 dereferenceable(24) %0) unnamed_addr #10 comdat align 2 personality ptr @__gxx_personality_v0 {
  %2 = load ptr, ptr %0, align 8, !tbaa !52
  %3 = getelementptr inbounds %"struct.std::_Vector_base<std::vector<long>, std::allocator<std::vector<long>>>::_Vector_impl_data", ptr %0, i64 0, i32 1
  %4 = load ptr, ptr %3, align 8, !tbaa !50
  %5 = icmp eq ptr %2, %4
  br i1 %5, label %16, label %6

6:                                                ; preds = %1, %11
  %7 = phi ptr [ %12, %11 ], [ %2, %1 ]
  %8 = load ptr, ptr %7, align 8, !tbaa !49
  %9 = icmp eq ptr %8, null
  br i1 %9, label %11, label %10

10:                                               ; preds = %6
  tail call void @_ZdlPv(ptr noundef nonnull %8) #33
  br label %11

11:                                               ; preds = %10, %6
  %12 = getelementptr inbounds %"class.std::vector.15", ptr %7, i64 1
  %13 = icmp eq ptr %12, %4
  br i1 %13, label %14, label %6, !llvm.loop !132

14:                                               ; preds = %11
  %15 = load ptr, ptr %0, align 8, !tbaa !52
  br label %16

16:                                               ; preds = %14, %1
  %17 = phi ptr [ %15, %14 ], [ %2, %1 ]
  %18 = icmp eq ptr %17, null
  br i1 %18, label %20, label %19

19:                                               ; preds = %16
  tail call void @_ZdlPv(ptr noundef nonnull %17) #33
  br label %20

20:                                               ; preds = %16, %19
  ret void
}

; Function Attrs: nounwind uwtable
define linkonce_odr hidden void @_ZNSt6vectorINSt7__cxx1112basic_stringIcSt11char_traitsIcESaIcEEESaIS5_EED2Ev(ptr noundef nonnull align 8 dereferenceable(24) %0) unnamed_addr #10 comdat align 2 personality ptr @__gxx_personality_v0 {
  %2 = load ptr, ptr %0, align 8, !tbaa !133
  %3 = getelementptr inbounds %"struct.std::_Vector_base<std::__cxx11::basic_string<char>, std::allocator<std::__cxx11::basic_string<char>>>::_Vector_impl_data", ptr %0, i64 0, i32 1
  %4 = load ptr, ptr %3, align 8, !tbaa !134
  %5 = icmp eq ptr %2, %4
  br i1 %5, label %17, label %6

6:                                                ; preds = %1, %12
  %7 = phi ptr [ %13, %12 ], [ %2, %1 ]
  %8 = load ptr, ptr %7, align 8, !tbaa !36
  %9 = getelementptr inbounds %"class.std::__cxx11::basic_string", ptr %7, i64 0, i32 2
  %10 = icmp eq ptr %8, %9
  br i1 %10, label %12, label %11

11:                                               ; preds = %6
  tail call void @_ZdlPv(ptr noundef %8) #33
  br label %12

12:                                               ; preds = %11, %6
  %13 = getelementptr inbounds %"class.std::__cxx11::basic_string", ptr %7, i64 1
  %14 = icmp eq ptr %13, %4
  br i1 %14, label %15, label %6, !llvm.loop !135

15:                                               ; preds = %12
  %16 = load ptr, ptr %0, align 8, !tbaa !133
  br label %17

17:                                               ; preds = %15, %1
  %18 = phi ptr [ %16, %15 ], [ %2, %1 ]
  %19 = icmp eq ptr %18, null
  br i1 %19, label %21, label %20

20:                                               ; preds = %17
  tail call void @_ZdlPv(ptr noundef nonnull %18) #33
  br label %21

21:                                               ; preds = %17, %20
  ret void
}

; Function Attrs: noreturn nounwind uwtable
define hidden void @_ZN9benchmark8internal9BenchmarkD0Ev(ptr nocapture nonnull readnone align 8 %0) unnamed_addr #11 align 2 {
  tail call void @llvm.trap() #36
  unreachable
}

; Function Attrs: cold noreturn nounwind
declare void @llvm.trap() #12

; Function Attrs: mustprogress uwtable
define hidden noundef nonnull ptr @_ZN9benchmark8internal9Benchmark4NameERKNSt7__cxx1112basic_stringIcSt11char_traitsIcESaIcEEE(ptr noundef nonnull returned align 8 dereferenceable(216) %0, ptr nocapture noundef nonnull readonly align 8 dereferenceable(32) %1) local_unnamed_addr #13 align 2 {
  %3 = load ptr, ptr %1, align 8, !tbaa !36
  %4 = getelementptr inbounds %"class.benchmark::internal::Benchmark", ptr %0, i64 0, i32 1
  %5 = getelementptr inbounds %"class.benchmark::internal::Benchmark", ptr %0, i64 0, i32 1, i32 1
  %6 = load i64, ptr %5, align 8, !tbaa !22
  %7 = tail call i64 @strlen(ptr noundef nonnull dereferenceable(1) %3) #32
  %8 = tail call noundef nonnull align 8 dereferenceable(32) ptr @_ZNSt7__cxx1112basic_stringIcSt11char_traitsIcESaIcEE10_M_replaceEmmPKcm(ptr noundef nonnull align 8 dereferenceable(32) %4, i64 noundef 0, i64 noundef %6, ptr noundef %3, i64 noundef %7)
  ret ptr %0
}

; Function Attrs: mustprogress uwtable
define hidden void @_ZN9benchmark8internal9Benchmark7SetNameEPKc(ptr noundef nonnull align 8 dereferenceable(216) %0, ptr noundef %1) local_unnamed_addr #13 align 2 {
  %3 = getelementptr inbounds %"class.benchmark::internal::Benchmark", ptr %0, i64 0, i32 1
  %4 = getelementptr inbounds %"class.benchmark::internal::Benchmark", ptr %0, i64 0, i32 1, i32 1
  %5 = load i64, ptr %4, align 8, !tbaa !22
  %6 = tail call i64 @strlen(ptr noundef nonnull dereferenceable(1) %1) #32
  %7 = tail call noundef nonnull align 8 dereferenceable(32) ptr @_ZNSt7__cxx1112basic_stringIcSt11char_traitsIcESaIcEE10_M_replaceEmmPKcm(ptr noundef nonnull align 8 dereferenceable(32) %3, i64 noundef 0, i64 noundef %5, ptr noundef %1, i64 noundef %6)
  ret void
}

; Function Attrs: uwtable
define hidden noundef nonnull ptr @_ZN9benchmark8internal9Benchmark3ArgEl(ptr noundef nonnull returned align 8 dereferenceable(216) %0, i64 noundef %1) local_unnamed_addr #5 align 2 personality ptr @__gxx_personality_v0 {
  %3 = alloca %"class.std::vector.15", align 8
  %4 = load atomic i8, ptr @_ZGVZN9benchmark8internal18GetNullLogInstanceEvE3log acquire, align 8
  %5 = icmp eq i8 %4, 0
  br i1 %5, label %6, label %10, !prof !5

6:                                                ; preds = %2
  %7 = tail call i32 @__cxa_guard_acquire(ptr nonnull @_ZGVZN9benchmark8internal18GetNullLogInstanceEvE3log) #32
  %8 = icmp eq i32 %7, 0
  br i1 %8, label %10, label %9

9:                                                ; preds = %6
  store ptr null, ptr @_ZZN9benchmark8internal18GetNullLogInstanceEvE3log, align 8, !tbaa !18
  tail call void @__cxa_guard_release(ptr nonnull @_ZGVZN9benchmark8internal18GetNullLogInstanceEvE3log) #32
  br label %10

10:                                               ; preds = %2, %6, %9
  call void @llvm.lifetime.start.p0(i64 24, ptr nonnull %3) #32
  %11 = tail call noalias noundef nonnull dereferenceable(8) ptr @_Znwm(i64 noundef 8) #35
  store ptr %11, ptr %3, align 8, !tbaa !49
  %12 = getelementptr inbounds i64, ptr %11, i64 1
  %13 = getelementptr inbounds %"struct.std::_Vector_base<long, std::allocator<long>>::_Vector_impl_data", ptr %3, i64 0, i32 2
  store ptr %12, ptr %13, align 8, !tbaa !79
  store i64 %1, ptr %11, align 8
  %14 = getelementptr inbounds %"struct.std::_Vector_base<long, std::allocator<long>>::_Vector_impl_data", ptr %3, i64 0, i32 1
  store ptr %12, ptr %14, align 8, !tbaa !47
  %15 = getelementptr inbounds %"class.benchmark::internal::Benchmark", ptr %0, i64 0, i32 4, i32 0, i32 0, i32 0, i32 1
  %16 = load ptr, ptr %15, align 8, !tbaa !50
  %17 = getelementptr inbounds %"class.benchmark::internal::Benchmark", ptr %0, i64 0, i32 4, i32 0, i32 0, i32 0, i32 2
  %18 = load ptr, ptr %17, align 8, !tbaa !78
  %19 = icmp eq ptr %16, %18
  br i1 %19, label %24, label %20

20:                                               ; preds = %10
  store ptr %11, ptr %16, align 8, !tbaa !49
  %21 = getelementptr inbounds %"struct.std::_Vector_base<long, std::allocator<long>>::_Vector_impl_data", ptr %16, i64 0, i32 1
  store ptr %12, ptr %21, align 8, !tbaa !47
  %22 = getelementptr inbounds %"struct.std::_Vector_base<long, std::allocator<long>>::_Vector_impl_data", ptr %16, i64 0, i32 2
  store ptr %12, ptr %22, align 8, !tbaa !79
  %23 = getelementptr inbounds %"class.std::vector.15", ptr %16, i64 1
  store ptr %23, ptr %15, align 8, !tbaa !50
  br label %30

24:                                               ; preds = %10
  %25 = getelementptr inbounds %"class.benchmark::internal::Benchmark", ptr %0, i64 0, i32 4
  invoke void @_ZNSt6vectorIS_IlSaIlEESaIS1_EE17_M_realloc_insertIJS1_EEEvN9__gnu_cxx17__normal_iteratorIPS1_S3_EEDpOT_(ptr noundef nonnull align 8 dereferenceable(24) %25, ptr %16, ptr noundef nonnull align 8 dereferenceable(24) %3)
          to label %26 unwind label %31

26:                                               ; preds = %24
  %27 = load ptr, ptr %3, align 8, !tbaa !49
  %28 = icmp eq ptr %27, null
  br i1 %28, label %30, label %29

29:                                               ; preds = %26
  call void @_ZdlPv(ptr noundef nonnull %27) #33
  br label %30

30:                                               ; preds = %20, %26, %29
  call void @llvm.lifetime.end.p0(i64 24, ptr nonnull %3) #32
  ret ptr %0

31:                                               ; preds = %24
  %32 = landingpad { ptr, i32 }
          cleanup
  %33 = load ptr, ptr %3, align 8, !tbaa !49
  %34 = icmp eq ptr %33, null
  br i1 %34, label %36, label %35

35:                                               ; preds = %31
  call void @_ZdlPv(ptr noundef nonnull %33) #33
  br label %36

36:                                               ; preds = %35, %31
  call void @llvm.lifetime.end.p0(i64 24, ptr nonnull %3) #32
  resume { ptr, i32 } %32
}

; Function Attrs: mustprogress nofree norecurse nosync nounwind willreturn memory(argmem: write) uwtable
define hidden noundef nonnull ptr @_ZN9benchmark8internal9Benchmark4UnitENS_8TimeUnitE(ptr noundef nonnull returned writeonly align 8 dereferenceable(216) %0, i32 noundef %1) local_unnamed_addr #14 align 2 {
  %3 = getelementptr inbounds %"class.benchmark::internal::Benchmark", ptr %0, i64 0, i32 5
  store i32 %1, ptr %3, align 8, !tbaa !118
  %4 = getelementptr inbounds %"class.benchmark::internal::Benchmark", ptr %0, i64 0, i32 6
  store i8 0, ptr %4, align 4, !tbaa !119
  ret ptr %0
}

; Function Attrs: uwtable
define hidden noundef nonnull ptr @_ZN9benchmark8internal9Benchmark5RangeEll(ptr noundef nonnull returned align 8 dereferenceable(216) %0, i64 noundef %1, i64 noundef %2) local_unnamed_addr #5 align 2 personality ptr @__gxx_personality_v0 {
  %4 = alloca %"class.std::vector.15", align 8
  %5 = alloca %"class.std::vector.15", align 8
  %6 = load atomic i8, ptr @_ZGVZN9benchmark8internal18GetNullLogInstanceEvE3log acquire, align 8
  %7 = icmp eq i8 %6, 0
  br i1 %7, label %8, label %12, !prof !5

8:                                                ; preds = %3
  %9 = tail call i32 @__cxa_guard_acquire(ptr nonnull @_ZGVZN9benchmark8internal18GetNullLogInstanceEvE3log) #32
  %10 = icmp eq i32 %9, 0
  br i1 %10, label %12, label %11

11:                                               ; preds = %8
  store ptr null, ptr @_ZZN9benchmark8internal18GetNullLogInstanceEvE3log, align 8, !tbaa !18
  tail call void @__cxa_guard_release(ptr nonnull @_ZGVZN9benchmark8internal18GetNullLogInstanceEvE3log) #32
  br label %12

12:                                               ; preds = %3, %8, %11
  call void @llvm.lifetime.start.p0(i64 24, ptr nonnull %4) #32
  call void @llvm.memset.p0.i64(ptr noundef nonnull align 8 dereferenceable(24) %4, i8 0, i64 24, i1 false)
  %13 = getelementptr inbounds %"class.benchmark::internal::Benchmark", ptr %0, i64 0, i32 7
  %14 = load i32, ptr %13, align 8, !tbaa !120
  invoke void @_ZN9benchmark8internal8AddRangeIlEEvPSt6vectorIT_SaIS3_EES3_S3_i(ptr noundef nonnull %4, i64 noundef %1, i64 noundef %2, i32 noundef %14)
          to label %15 unwind label %33

15:                                               ; preds = %12
  %16 = load ptr, ptr %4, align 8, !tbaa !12
  %17 = getelementptr inbounds %"struct.std::_Vector_base<long, std::allocator<long>>::_Vector_impl_data", ptr %4, i64 0, i32 1
  %18 = load ptr, ptr %17, align 8, !tbaa !12
  %19 = icmp eq ptr %16, %18
  br i1 %19, label %28, label %20

20:                                               ; preds = %15
  %21 = getelementptr inbounds %"class.benchmark::internal::Benchmark", ptr %0, i64 0, i32 4
  %22 = getelementptr inbounds %"struct.std::_Vector_base<long, std::allocator<long>>::_Vector_impl_data", ptr %5, i64 0, i32 2
  %23 = getelementptr inbounds %"struct.std::_Vector_base<long, std::allocator<long>>::_Vector_impl_data", ptr %5, i64 0, i32 1
  %24 = getelementptr inbounds %"class.benchmark::internal::Benchmark", ptr %0, i64 0, i32 4, i32 0, i32 0, i32 0, i32 1
  %25 = getelementptr inbounds %"class.benchmark::internal::Benchmark", ptr %0, i64 0, i32 4, i32 0, i32 0, i32 0, i32 2
  br label %35

26:                                               ; preds = %55
  %27 = load ptr, ptr %4, align 8, !tbaa !49
  br label %28

28:                                               ; preds = %26, %15
  %29 = phi ptr [ %27, %26 ], [ %16, %15 ]
  %30 = icmp eq ptr %29, null
  br i1 %30, label %32, label %31

31:                                               ; preds = %28
  call void @_ZdlPv(ptr noundef nonnull %29) #33
  br label %32

32:                                               ; preds = %28, %31
  call void @llvm.lifetime.end.p0(i64 24, ptr nonnull %4) #32
  ret ptr %0

33:                                               ; preds = %12
  %34 = landingpad { ptr, i32 }
          cleanup
  br label %65

35:                                               ; preds = %20, %55
  %36 = phi ptr [ %16, %20 ], [ %56, %55 ]
  %37 = load i64, ptr %36, align 8, !tbaa !96
  call void @llvm.lifetime.start.p0(i64 24, ptr nonnull %5) #32
  %38 = invoke noalias noundef nonnull dereferenceable(8) ptr @_Znwm(i64 noundef 8) #35
          to label %41 unwind label %39

39:                                               ; preds = %35
  %40 = landingpad { ptr, i32 }
          cleanup
  br label %63

41:                                               ; preds = %35
  store ptr %38, ptr %5, align 8, !tbaa !49
  %42 = getelementptr inbounds i64, ptr %38, i64 1
  store ptr %42, ptr %22, align 8, !tbaa !79
  store i64 %37, ptr %38, align 8
  store ptr %42, ptr %23, align 8, !tbaa !47
  %43 = load ptr, ptr %24, align 8, !tbaa !50
  %44 = load ptr, ptr %25, align 8, !tbaa !78
  %45 = icmp eq ptr %43, %44
  br i1 %45, label %50, label %46

46:                                               ; preds = %41
  store ptr %38, ptr %43, align 8, !tbaa !49
  %47 = getelementptr inbounds %"struct.std::_Vector_base<long, std::allocator<long>>::_Vector_impl_data", ptr %43, i64 0, i32 1
  store ptr %42, ptr %47, align 8, !tbaa !47
  %48 = getelementptr inbounds %"struct.std::_Vector_base<long, std::allocator<long>>::_Vector_impl_data", ptr %43, i64 0, i32 2
  store ptr %42, ptr %48, align 8, !tbaa !79
  %49 = getelementptr inbounds %"class.std::vector.15", ptr %43, i64 1
  store ptr %49, ptr %24, align 8, !tbaa !50
  br label %55

50:                                               ; preds = %41
  invoke void @_ZNSt6vectorIS_IlSaIlEESaIS1_EE17_M_realloc_insertIJS1_EEEvN9__gnu_cxx17__normal_iteratorIPS1_S3_EEDpOT_(ptr noundef nonnull align 8 dereferenceable(24) %21, ptr %43, ptr noundef nonnull align 8 dereferenceable(24) %5)
          to label %51 unwind label %58

51:                                               ; preds = %50
  %52 = load ptr, ptr %5, align 8, !tbaa !49
  %53 = icmp eq ptr %52, null
  br i1 %53, label %55, label %54

54:                                               ; preds = %51
  call void @_ZdlPv(ptr noundef nonnull %52) #33
  br label %55

55:                                               ; preds = %46, %51, %54
  call void @llvm.lifetime.end.p0(i64 24, ptr nonnull %5) #32
  %56 = getelementptr inbounds i64, ptr %36, i64 1
  %57 = icmp eq ptr %56, %18
  br i1 %57, label %26, label %35

58:                                               ; preds = %50
  %59 = landingpad { ptr, i32 }
          cleanup
  %60 = load ptr, ptr %5, align 8, !tbaa !49
  %61 = icmp eq ptr %60, null
  br i1 %61, label %63, label %62

62:                                               ; preds = %58
  call void @_ZdlPv(ptr noundef nonnull %60) #33
  br label %63

63:                                               ; preds = %39, %62, %58
  %64 = phi { ptr, i32 } [ %40, %39 ], [ %59, %58 ], [ %59, %62 ]
  call void @llvm.lifetime.end.p0(i64 24, ptr nonnull %5) #32
  br label %65

65:                                               ; preds = %63, %33
  %66 = phi { ptr, i32 } [ %64, %63 ], [ %34, %33 ]
  %67 = load ptr, ptr %4, align 8, !tbaa !49
  %68 = icmp eq ptr %67, null
  br i1 %68, label %70, label %69

69:                                               ; preds = %65
  call void @_ZdlPv(ptr noundef nonnull %67) #33
  br label %70

70:                                               ; preds = %65, %69
  call void @llvm.lifetime.end.p0(i64 24, ptr nonnull %4) #32
  resume { ptr, i32 } %66
}

; Function Attrs: uwtable
define linkonce_odr hidden void @_ZN9benchmark8internal8AddRangeIlEEvPSt6vectorIT_SaIS3_EES3_S3_i(ptr noundef %0, i64 noundef %1, i64 noundef %2, i32 noundef %3) local_unnamed_addr #5 comdat personality ptr @__gxx_personality_v0 {
  %5 = load atomic i8, ptr @_ZGVZN9benchmark8internal18GetNullLogInstanceEvE3log acquire, align 8
  %6 = icmp eq i8 %5, 0
  br i1 %6, label %7, label %11, !prof !5

7:                                                ; preds = %4
  %8 = tail call i32 @__cxa_guard_acquire(ptr nonnull @_ZGVZN9benchmark8internal18GetNullLogInstanceEvE3log) #32
  %9 = icmp eq i32 %8, 0
  br i1 %9, label %11, label %10

10:                                               ; preds = %7
  store ptr null, ptr @_ZZN9benchmark8internal18GetNullLogInstanceEvE3log, align 8, !tbaa !18
  tail call void @__cxa_guard_release(ptr nonnull @_ZGVZN9benchmark8internal18GetNullLogInstanceEvE3log) #32
  br label %11

11:                                               ; preds = %4, %7, %10
  %12 = load atomic i8, ptr @_ZGVZN9benchmark8internal18GetNullLogInstanceEvE3log acquire, align 8
  %13 = icmp eq i8 %12, 0
  br i1 %13, label %14, label %18, !prof !5

14:                                               ; preds = %11
  %15 = tail call i32 @__cxa_guard_acquire(ptr nonnull @_ZGVZN9benchmark8internal18GetNullLogInstanceEvE3log) #32
  %16 = icmp eq i32 %15, 0
  br i1 %16, label %18, label %17

17:                                               ; preds = %14
  store ptr null, ptr @_ZZN9benchmark8internal18GetNullLogInstanceEvE3log, align 8, !tbaa !18
  tail call void @__cxa_guard_release(ptr nonnull @_ZGVZN9benchmark8internal18GetNullLogInstanceEvE3log) #32
  br label %18

18:                                               ; preds = %11, %14, %17
  %19 = getelementptr inbounds %"struct.std::_Vector_base<long, std::allocator<long>>::_Vector_impl_data", ptr %0, i64 0, i32 1
  %20 = load ptr, ptr %19, align 8, !tbaa !47
  %21 = getelementptr inbounds %"struct.std::_Vector_base<long, std::allocator<long>>::_Vector_impl_data", ptr %0, i64 0, i32 2
  %22 = load ptr, ptr %21, align 8, !tbaa !79
  %23 = icmp eq ptr %20, %22
  br i1 %23, label %26, label %24

24:                                               ; preds = %18
  store i64 %1, ptr %20, align 8, !tbaa !96
  %25 = getelementptr inbounds i64, ptr %20, i64 1
  store ptr %25, ptr %19, align 8, !tbaa !47
  br label %56

26:                                               ; preds = %18
  %27 = load ptr, ptr %0, align 8, !tbaa !49
  %28 = ptrtoint ptr %20 to i64
  %29 = ptrtoint ptr %27 to i64
  %30 = sub i64 %28, %29
  %31 = icmp eq i64 %30, 9223372036854775800
  br i1 %31, label %32, label %33

32:                                               ; preds = %26
  tail call void @_ZSt20__throw_length_errorPKc(ptr noundef nonnull @.str.24) #34
  unreachable

33:                                               ; preds = %26
  %34 = ashr exact i64 %30, 3
  %35 = tail call i64 @llvm.umax.i64(i64 %34, i64 1)
  %36 = add i64 %35, %34
  %37 = icmp ult i64 %36, %34
  %38 = icmp ugt i64 %36, 1152921504606846975
  %39 = or i1 %37, %38
  %40 = select i1 %39, i64 1152921504606846975, i64 %36
  %41 = icmp eq i64 %40, 0
  br i1 %41, label %45, label %42

42:                                               ; preds = %33
  %43 = shl nuw nsw i64 %40, 3
  %44 = tail call noalias noundef nonnull ptr @_Znwm(i64 noundef %43) #35
  br label %45

45:                                               ; preds = %42, %33
  %46 = phi ptr [ %44, %42 ], [ null, %33 ]
  %47 = getelementptr inbounds i64, ptr %46, i64 %34
  store i64 %1, ptr %47, align 8, !tbaa !96
  %48 = icmp sgt i64 %30, 0
  br i1 %48, label %49, label %50

49:                                               ; preds = %45
  tail call void @llvm.memmove.p0.p0.i64(ptr nonnull align 8 %46, ptr align 8 %27, i64 %30, i1 false)
  br label %50

50:                                               ; preds = %49, %45
  %51 = getelementptr inbounds i64, ptr %47, i64 1
  %52 = icmp eq ptr %27, null
  br i1 %52, label %54, label %53

53:                                               ; preds = %50
  tail call void @_ZdlPv(ptr noundef nonnull %27) #33
  br label %54

54:                                               ; preds = %53, %50
  store ptr %46, ptr %0, align 8, !tbaa !49
  store ptr %51, ptr %19, align 8, !tbaa !47
  %55 = getelementptr inbounds i64, ptr %46, i64 %40
  store ptr %55, ptr %21, align 8, !tbaa !79
  br label %56

56:                                               ; preds = %24, %54
  %57 = phi ptr [ %22, %24 ], [ %55, %54 ]
  %58 = phi ptr [ %25, %24 ], [ %51, %54 ]
  %59 = icmp eq i64 %1, %2
  br i1 %59, label %187, label %60

60:                                               ; preds = %56
  %61 = add nsw i64 %1, 1
  %62 = icmp eq i64 %61, %2
  br i1 %62, label %63, label %97

63:                                               ; preds = %60
  %64 = icmp eq ptr %58, %57
  br i1 %64, label %67, label %65

65:                                               ; preds = %63
  store i64 %2, ptr %58, align 8, !tbaa !96
  %66 = getelementptr inbounds i64, ptr %58, i64 1
  store ptr %66, ptr %19, align 8, !tbaa !47
  br label %187

67:                                               ; preds = %63
  %68 = load ptr, ptr %0, align 8, !tbaa !49
  %69 = ptrtoint ptr %57 to i64
  %70 = ptrtoint ptr %68 to i64
  %71 = sub i64 %69, %70
  %72 = icmp eq i64 %71, 9223372036854775800
  br i1 %72, label %73, label %74

73:                                               ; preds = %67
  tail call void @_ZSt20__throw_length_errorPKc(ptr noundef nonnull @.str.24) #34
  unreachable

74:                                               ; preds = %67
  %75 = ashr exact i64 %71, 3
  %76 = tail call i64 @llvm.umax.i64(i64 %75, i64 1)
  %77 = add i64 %76, %75
  %78 = icmp ult i64 %77, %75
