; ModuleID = '/usr/local/google/home/aeubanks/repos/test-suite/MultiSource/Benchmarks/DOE-ProxyApps-C++/CLAMR/Cmd.cc'
source_filename = "/usr/local/google/home/aeubanks/repos/test-suite/MultiSource/Benchmarks/DOE-ProxyApps-C++/CLAMR/Cmd.cc"
target datalayout = "e-m:e-p270:32:32-p271:32:32-p272:64:64-i64:64-f80:128-n8:16:32:64-S128"
target triple = "x86_64-unknown-linux-gnu"

%"class.std::ios_base::Init" = type { i8 }
%"class.std::basic_ostream" = type { ptr, %"class.std::basic_ios" }
%"class.std::basic_ios" = type { %"class.std::ios_base", ptr, i8, i8, ptr, ptr, ptr, ptr }
%"class.std::ios_base" = type { ptr, i64, i64, i32, i32, i32, ptr, %"struct.std::ios_base::_Words", [8 x %"struct.std::ios_base::_Words"], i32, ptr, %"class.std::locale" }
%"struct.std::ios_base::_Words" = type { ptr, i64 }
%"class.std::locale" = type { ptr }
%"class.PP::Cmd" = type { i32, i32, %"class.std::__cxx11::basic_string", ptr, %"class.std::__cxx11::basic_string", ptr, ptr, %"class.std::__cxx11::basic_string", %"class.std::__cxx11::basic_string", %"class.std::deque.11", %"class.std::__cxx11::basic_string", %"class.std::__cxx11::basic_string", %"class.std::vector", %"class.std::vector", %"class.std::vector.17", %"class.std::vector.17" }
%"class.std::deque.11" = type { %"class.std::_Deque_base.12" }
%"class.std::_Deque_base.12" = type { %"struct.std::_Deque_base<PP::Word, std::allocator<PP::Word>>::_Deque_impl" }
%"struct.std::_Deque_base<PP::Word, std::allocator<PP::Word>>::_Deque_impl" = type { %"struct.std::_Deque_base<PP::Word, std::allocator<PP::Word>>::_Deque_impl_data" }
%"struct.std::_Deque_base<PP::Word, std::allocator<PP::Word>>::_Deque_impl_data" = type { ptr, i64, %"struct.std::_Deque_iterator.16", %"struct.std::_Deque_iterator.16" }
%"struct.std::_Deque_iterator.16" = type { ptr, ptr, ptr, ptr }
%"class.std::__cxx11::basic_string" = type { %"struct.std::__cxx11::basic_string<char>::_Alloc_hider", i64, %union.anon }
%"struct.std::__cxx11::basic_string<char>::_Alloc_hider" = type { ptr }
%union.anon = type { i64, [8 x i8] }
%"class.std::vector" = type { %"struct.std::_Vector_base" }
%"struct.std::_Vector_base" = type { %"struct.std::_Vector_base<std::__cxx11::basic_string<char>, std::allocator<std::__cxx11::basic_string<char>>>::_Vector_impl" }
%"struct.std::_Vector_base<std::__cxx11::basic_string<char>, std::allocator<std::__cxx11::basic_string<char>>>::_Vector_impl" = type { %"struct.std::_Vector_base<std::__cxx11::basic_string<char>, std::allocator<std::__cxx11::basic_string<char>>>::_Vector_impl_data" }
%"struct.std::_Vector_base<std::__cxx11::basic_string<char>, std::allocator<std::__cxx11::basic_string<char>>>::_Vector_impl_data" = type { ptr, ptr, ptr }
%"class.std::vector.17" = type { %"struct.std::_Bvector_base" }
%"struct.std::_Bvector_base" = type { %"struct.std::_Bvector_base<std::allocator<bool>>::_Bvector_impl" }
%"struct.std::_Bvector_base<std::allocator<bool>>::_Bvector_impl" = type { %"struct.std::_Bvector_base<std::allocator<bool>>::_Bvector_impl_data" }
%"struct.std::_Bvector_base<std::allocator<bool>>::_Bvector_impl_data" = type { %"struct.std::_Bit_iterator", %"struct.std::_Bit_iterator", ptr }
%"struct.std::_Bit_iterator" = type { %"struct.std::_Bit_iterator_base.base", [4 x i8] }
%"struct.std::_Bit_iterator_base.base" = type <{ ptr, i32 }>
%"class.PP::Word" = type { %"class.std::__cxx11::basic_string", i32, i8, i8, i32, i32, %"class.std::__cxx11::basic_string", i32, i32, %"class.std::__cxx11::basic_string", ptr }
%"class.std::basic_ifstream" = type { %"class.std::basic_istream.base", %"class.std::basic_filebuf", %"class.std::basic_ios" }
%"class.std::basic_istream.base" = type { ptr, i64 }
%"class.std::basic_filebuf" = type { %"class.std::basic_streambuf", %union.pthread_mutex_t, %"class.std::__basic_file", i32, %struct.__mbstate_t, %struct.__mbstate_t, %struct.__mbstate_t, ptr, i64, i8, i8, i8, i8, ptr, ptr, i8, ptr, ptr, i64, ptr, ptr }
%"class.std::basic_streambuf" = type { ptr, ptr, ptr, ptr, ptr, ptr, ptr, %"class.std::locale" }
%union.pthread_mutex_t = type { %struct.__pthread_mutex_s }
%struct.__pthread_mutex_s = type { i32, i32, i32, i32, i32, i16, i16, %struct.__pthread_internal_list }
%struct.__pthread_internal_list = type { ptr, ptr }
%"class.std::__basic_file" = type <{ ptr, i8, [7 x i8] }>
%struct.__mbstate_t = type { i32, %union.anon.23 }
%union.anon.23 = type { i32 }
%"class.std::ctype" = type <{ %"class.std::locale::facet.base", [4 x i8], ptr, i8, [7 x i8], ptr, ptr, ptr, i8, [256 x i8], [256 x i8], i8, [6 x i8] }>
%"class.std::locale::facet.base" = type <{ ptr, i32 }>
%"struct.std::_Deque_iterator.21" = type { ptr, ptr, ptr, ptr }
%"struct.std::_Deque_base<std::__cxx11::basic_string<char>, std::allocator<std::__cxx11::basic_string<char>>>::_Deque_impl_data" = type { ptr, i64, %"struct.std::_Deque_iterator", %"struct.std::_Deque_iterator" }
%"struct.std::_Deque_iterator" = type { ptr, ptr, ptr, ptr }
%"class.std::vector.24" = type { %"struct.std::_Vector_base.25" }
%"struct.std::_Vector_base.25" = type { %"struct.std::_Vector_base<int, std::allocator<int>>::_Vector_impl" }
%"struct.std::_Vector_base<int, std::allocator<int>>::_Vector_impl" = type { %"struct.std::_Vector_base<int, std::allocator<int>>::_Vector_impl_data" }
%"struct.std::_Vector_base<int, std::allocator<int>>::_Vector_impl_data" = type { ptr, ptr, ptr }
%"class.PP::Parser_utils" = type { i8 }
%"class.PP::Variable" = type { %"class.std::__cxx11::basic_string", %"class.std::vector", i32, i32, i32, %"class.std::vector.24", i8, i8, %"class.std::__cxx11::basic_string" }
%"struct.std::pair.34" = type { %"class.std::__cxx11::basic_string", %"class.PP::Variable" }
%"struct.std::_Rb_tree_node" = type { %"struct.std::_Rb_tree_node_base", %"struct.__gnu_cxx::__aligned_membuf" }
%"struct.std::_Rb_tree_node_base" = type { i32, ptr, ptr, ptr }
%"struct.__gnu_cxx::__aligned_membuf" = type { [168 x i8] }
%"class.std::vector.46" = type { %"struct.std::_Vector_base.47" }
%"struct.std::_Vector_base.47" = type { %"struct.std::_Vector_base<PP::Word, std::allocator<PP::Word>>::_Vector_impl" }
%"struct.std::_Vector_base<PP::Word, std::allocator<PP::Word>>::_Vector_impl" = type { %"struct.std::_Vector_base<PP::Word, std::allocator<PP::Word>>::_Vector_impl_data" }
%"struct.std::_Vector_base<PP::Word, std::allocator<PP::Word>>::_Vector_impl_data" = type { ptr, ptr, ptr }
%"class.std::vector.41" = type { %"struct.std::_Vector_base.42" }
%"struct.std::_Vector_base.42" = type { %"struct.std::_Vector_base<double, std::allocator<double>>::_Vector_impl" }
%"struct.std::_Vector_base<double, std::allocator<double>>::_Vector_impl" = type { %"struct.std::_Vector_base<double, std::allocator<double>>::_Vector_impl_data" }
%"struct.std::_Vector_base<double, std::allocator<double>>::_Vector_impl_data" = type { ptr, ptr, ptr }
%"struct.std::_Rb_tree_node.68" = type { %"struct.std::_Rb_tree_node_base", %"struct.__gnu_cxx::__aligned_membuf.69" }
%"struct.__gnu_cxx::__aligned_membuf.69" = type { [136 x i8] }
%"class.PP::Parser_math" = type { i8 }
%"struct.std::_Deque_iterator.53" = type { ptr, ptr, ptr, ptr }
%"struct.std::_Deque_base<bool, std::allocator<bool>>::_Deque_impl_data" = type { ptr, i64, %"struct.std::_Deque_iterator.53", %"struct.std::_Deque_iterator.53" }
%"class.std::__cxx11::basic_stringstream" = type { %"class.std::basic_iostream.base", %"class.std::__cxx11::basic_stringbuf", %"class.std::basic_ios" }
%"class.std::basic_iostream.base" = type { %"class.std::basic_istream.base", %"class.std::basic_ostream.base" }
%"class.std::basic_ostream.base" = type { ptr }
%"class.std::__cxx11::basic_stringbuf" = type { %"class.std::basic_streambuf", i32, %"class.std::__cxx11::basic_string" }
%"struct.std::_Deque_base<int, std::allocator<int>>::_Deque_impl_data" = type { ptr, i64, %"struct.std::_Deque_iterator.57", %"struct.std::_Deque_iterator.57" }
%"struct.std::_Deque_iterator.57" = type { ptr, ptr, ptr, ptr }
%"class.std::basic_istream" = type { ptr, i64, %"class.std::basic_ios" }
%"struct.std::_Rb_tree<std::__cxx11::basic_string<char>, std::pair<const std::__cxx11::basic_string<char>, PP::Variable>, std::_Select1st<std::pair<const std::__cxx11::basic_string<char>, PP::Variable>>, std::less<std::__cxx11::basic_string<char>>>::_Auto_node" = type { ptr, ptr }
%"struct.std::pair.36" = type { %"class.std::__cxx11::basic_string", %"class.PP::Variable" }

$_ZNSt13_Bvector_baseISaIbEED2Ev = comdat any

$_ZNSt6vectorINSt7__cxx1112basic_stringIcSt11char_traitsIcESaIcEEESaIS5_EED2Ev = comdat any

$_ZNSt5dequeIN2PP4WordESaIS1_EED2Ev = comdat any

$_ZNKSt5dequeIN2PP4WordESaIS1_EE4sizeEv = comdat any

$_ZNSt5dequeIN2PP4WordESaIS1_EEixEm = comdat any

$_ZN2PP4Word10get_stringB5cxx11Ev = comdat any

$_ZNSt3mapINSt7__cxx1112basic_stringIcSt11char_traitsIcESaIcEEEN2PP8VariableESt4lessIS5_ESaISt4pairIKS5_S7_EEE4findERSB_ = comdat any

$_ZNSt3mapINSt7__cxx1112basic_stringIcSt11char_traitsIcESaIcEEEN2PP8VariableESt4lessIS5_ESaISt4pairIKS5_S7_EEE6insertISA_IS5_S7_EEENSt9enable_ifIXsr16is_constructibleISC_T_EE5valueESA_ISt17_Rb_tree_iteratorISC_EbEE4typeEOSI_ = comdat any

$_ZN2PP8Variable11get_varnameB5cxx11Ev = comdat any

$_ZNSt4pairINSt7__cxx1112basic_stringIcSt11char_traitsIcESaIcEEEN2PP8VariableEEC2IS5_RS7_Lb1EEEOT_OT0_ = comdat any

$_ZNSt4pairINSt7__cxx1112basic_stringIcSt11char_traitsIcESaIcEEEN2PP8VariableEED2Ev = comdat any

$_ZN2PP8VariableD2Ev = comdat any

$_ZN2PP4Word12get_filenameB5cxx11Ev = comdat any

$_ZNSt6vectorINSt7__cxx1112basic_stringIcSt11char_traitsIcESaIcEEESaIS5_EE9push_backERKS5_ = comdat any

$_ZN2PP8Variable13get_var_valueB5cxx11Ev = comdat any

$_ZNSt5dequeIN2PP4WordESaIS1_EE6insertESt15_Deque_iteratorIS1_RKS1_PS5_ES6_ = comdat any

$_ZNSt11_Deque_baseIN2PP4WordESaIS1_EE17_M_initialize_mapEm = comdat any

$__clang_call_terminate = comdat any

$_ZN2PP8VariableC2ERKS0_ = comdat any

$_ZSt16__do_uninit_copyIN9__gnu_cxx17__normal_iteratorIPKNSt7__cxx1112basic_stringIcSt11char_traitsIcESaIcEEESt6vectorIS7_SaIS7_EEEEPS7_ET0_T_SG_SF_ = comdat any

$_ZNSt5dequeIN2PP4WordESaIS1_EE19_M_destroy_data_auxESt15_Deque_iteratorIS1_RS1_PS1_ES7_ = comdat any

$_ZNSt5dequeIN2PP4WordESaIS1_EE16_M_push_back_auxIJRKS1_EEEvDpOT_ = comdat any

$_ZNSt5dequeIN2PP4WordESaIS1_EE17_M_reallocate_mapEmb = comdat any

$_ZNSt5dequeIN2PP4WordESaIS1_EE8_M_eraseESt15_Deque_iteratorIS1_RS1_PS1_E = comdat any

$_ZSt24__copy_move_backward_ditILb1EN2PP4WordERS1_PS1_St15_Deque_iteratorIS1_S2_S3_EET3_S4_IT0_T1_T2_ESA_S6_ = comdat any

$_ZSt15__copy_move_ditILb1EN2PP4WordERS1_PS1_St15_Deque_iteratorIS1_S2_S3_EET3_S4_IT0_T1_T2_ESA_S6_ = comdat any

$_ZNSt8_Rb_treeINSt7__cxx1112basic_stringIcSt11char_traitsIcESaIcEEESt4pairIKS5_N2PP8VariableEESt10_Select1stISA_ESt4lessIS5_ESaISA_EE22_M_emplace_hint_uniqueIJS6_IS5_S9_EEEESt17_Rb_tree_iteratorISA_ESt23_Rb_tree_const_iteratorISA_EDpOT_ = comdat any

$_ZNSt8_Rb_treeINSt7__cxx1112basic_stringIcSt11char_traitsIcESaIcEEESt4pairIKS5_N2PP8VariableEESt10_Select1stISA_ESt4lessIS5_ESaISA_EE29_M_get_insert_hint_unique_posESt23_Rb_tree_const_iteratorISA_ERS7_ = comdat any

$_ZNSt8_Rb_treeINSt7__cxx1112basic_stringIcSt11char_traitsIcESaIcEEESt4pairIKS5_N2PP8VariableEESt10_Select1stISA_ESt4lessIS5_ESaISA_EE10_Auto_nodeD2Ev = comdat any

$_ZNSt4pairIKNSt7__cxx1112basic_stringIcSt11char_traitsIcESaIcEEEN2PP8VariableEEC2IS5_S8_Lb1EEEOS_IT_T0_E = comdat any

$_ZNSt8_Rb_treeINSt7__cxx1112basic_stringIcSt11char_traitsIcESaIcEEESt4pairIKS5_N2PP8VariableEESt10_Select1stISA_ESt4lessIS5_ESaISA_EE24_M_get_insert_unique_posERS7_ = comdat any

$_ZNSt15__new_allocatorISt13_Rb_tree_nodeISt4pairIKNSt7__cxx1112basic_stringIcSt11char_traitsIcESaIcEEEN2PP8VariableEEEE7destroyISB_EEvPT_ = comdat any

$_ZNSt6vectorINSt7__cxx1112basic_stringIcSt11char_traitsIcESaIcEEESaIS5_EE17_M_realloc_insertIJRKS5_EEEvN9__gnu_cxx17__normal_iteratorIPS5_S7_EEDpOT_ = comdat any

$_ZNSt6vectorINSt7__cxx1112basic_stringIcSt11char_traitsIcESaIcEEESaIS5_EE17_M_realloc_insertIJS5_EEEvN9__gnu_cxx17__normal_iteratorIPS5_S7_EEDpOT_ = comdat any

$_ZNSt6vectorIN2PP4WordESaIS1_EE17_M_realloc_insertIJRKS1_EEEvN9__gnu_cxx17__normal_iteratorIPS1_S3_EEDpOT_ = comdat any

$_ZNSt5dequeIbSaIbEE8_M_eraseESt15_Deque_iteratorIbRbPbE = comdat any

$_ZSt24__copy_move_backward_ditILb1EbRbPbSt15_Deque_iteratorIbS0_S1_EET3_S2_IT0_T1_T2_ES8_S4_ = comdat any

$_ZSt15__copy_move_ditILb1EbRbPbSt15_Deque_iteratorIbS0_S1_EET3_S2_IT0_T1_T2_ES8_S4_ = comdat any

$_ZNSt5dequeIbSaIbEE16_M_push_back_auxIJbEEEvDpOT_ = comdat any

$_ZNSt5dequeIbSaIbEE17_M_reallocate_mapEmb = comdat any

$_ZNSt5dequeIiSaIiEE16_M_push_back_auxIJRKiEEEvDpOT_ = comdat any

$_ZNSt5dequeIiSaIiEE17_M_reallocate_mapEmb = comdat any

$_ZNSt6vectorIbSaIbEE13_M_insert_auxESt13_Bit_iteratorb = comdat any

$_ZNSt5dequeIN2PP4WordESaIS1_EE8_M_eraseESt15_Deque_iteratorIS1_RS1_PS1_ES7_ = comdat any

$_ZNSt5dequeIN2PP4WordESaIS1_EE13_M_insert_auxIJRKS1_EEESt15_Deque_iteratorIS1_RS1_PS1_ESA_DpOT_ = comdat any

$_ZNSt5dequeIN2PP4WordESaIS1_EE17_M_push_front_auxIJRKS1_EEEvDpOT_ = comdat any

$_ZNSt5dequeIN2PP4WordESaIS1_EE17_M_push_front_auxIJS1_EEEvDpOT_ = comdat any

$_ZNSt5dequeIN2PP4WordESaIS1_EE16_M_push_back_auxIJS1_EEEvDpOT_ = comdat any

@_ZStL8__ioinit = internal global %"class.std::ios_base::Init" zeroinitializer, align 1
@__dso_handle = external hidden global i8
@.str = private unnamed_addr constant [1 x i8] zeroinitializer, align 1
@.str.1 = private unnamed_addr constant [3 x i8] c" \09\00", align 1
@.str.2 = private unnamed_addr constant [15 x i8] c" \09()[],*/+-=!#\00", align 1
@_ZN2PPL10index_baseE = internal unnamed_addr global i32 1, align 4
@_ZN2PPL14case_sensitiveE = internal unnamed_addr global i8 0, align 1
@.str.3 = private unnamed_addr constant [2 x i8] c"\22\00", align 1
@.str.4 = private unnamed_addr constant [2 x i8] c"'\00", align 1
@.str.5 = private unnamed_addr constant [2 x i8] c" \00", align 1
@.str.6 = private unnamed_addr constant [8 x i8] c"command\00", align 1
@.str.7 = private unnamed_addr constant [11 x i8] c"assignment\00", align 1
@.str.8 = private unnamed_addr constant [22 x i8] c"parser_list_variables\00", align 1
@.str.9 = private unnamed_addr constant [6 x i8] c"debug\00", align 1
@.str.10 = private unnamed_addr constant [22 x i8] c"parser_list_functions\00", align 1
@.str.11 = private unnamed_addr constant [21 x i8] c"parser_print_fbuffer\00", align 1
@.str.12 = private unnamed_addr constant [3 x i8] c"if\00", align 1
@.str.13 = private unnamed_addr constant [13 x i8] c"internal_cmd\00", align 1
@.str.14 = private unnamed_addr constant [7 x i8] c"elseif\00", align 1
@.str.15 = private unnamed_addr constant [6 x i8] c"endif\00", align 1
@.str.16 = private unnamed_addr constant [3 x i8] c"do\00", align 1
@.str.17 = private unnamed_addr constant [7 x i8] c"return\00", align 1
@.str.18 = private unnamed_addr constant [6 x i8] c"enddo\00", align 1
@.str.19 = private unnamed_addr constant [5 x i8] c"stop\00", align 1
@.str.20 = private unnamed_addr constant [5 x i8] c"when\00", align 1
@.str.21 = private unnamed_addr constant [8 x i8] c"endwhen\00", align 1
@.str.22 = private unnamed_addr constant [5 x i8] c"    \00", align 1
@.str.23 = private unnamed_addr constant [2 x i8] c"-\00", align 1
@.str.24 = private unnamed_addr constant [58 x i8] c"Expected the object following the unary - to be a number.\00", align 1
@.str.25 = private unnamed_addr constant [17 x i8] c"Instead, it was \00", align 1
@.str.26 = private unnamed_addr constant [2 x i8] c"+\00", align 1
@.str.27 = private unnamed_addr constant [58 x i8] c"Expected the object following the unary + to be a number.\00", align 1
@.str.28 = private unnamed_addr constant [2 x i8] c"*\00", align 1
@.str.29 = private unnamed_addr constant [43 x i8] c"Asterisk cannot be at the start of a line.\00", align 1
@.str.30 = private unnamed_addr constant [41 x i8] c"Asterisk cannot be at the end of a line.\00", align 1
@.str.31 = private unnamed_addr constant [49 x i8] c"Expected the object before the * to be a number.\00", align 1
@.str.32 = private unnamed_addr constant [35 x i8] c"Cmd.cc, get_sizeb, internal error.\00", align 1
@.str.33 = private unnamed_addr constant [15 x i8] c"dim != 2, dim=\00", align 1
@.str.34 = private unnamed_addr constant [39 x i8] c"Expected number words in this line >= \00", align 1
@.str.35 = private unnamed_addr constant [23 x i8] c"Actual number words = \00", align 1
@.str.36 = private unnamed_addr constant [2 x i8] c"=\00", align 1
@.str.37 = private unnamed_addr constant [36 x i8] c"Expected an equals sign for symbol \00", align 1
@.str.38 = private unnamed_addr constant [16 x i8] c"Instead symbol \00", align 1
@.str.39 = private unnamed_addr constant [6 x i8] c" is: \00", align 1
@.str.40 = private unnamed_addr constant [30 x i8] c"Multiplicity not equal 1 for \00", align 1
@.str.41 = private unnamed_addr constant [18 x i8] c"Multiplicity is: \00", align 1
@.str.42 = private unnamed_addr constant [2 x i8] c"(\00", align 1
@.str.43 = private unnamed_addr constant [74 x i8] c"Expected an open parenthesis ,(, following the command name in this line,\00", align 1
@.str.44 = private unnamed_addr constant [14 x i8] c"For example: \00", align 1
@.str.45 = private unnamed_addr constant [12 x i8] c"(...) = ...\00", align 1
@.str.46 = private unnamed_addr constant [16 x i8] c"Instead found: \00", align 1
@.str.47 = private unnamed_addr constant [2 x i8] c")\00", align 1
@.str.48 = private unnamed_addr constant [75 x i8] c"Expected a close parenthesis ,), following the array indices in this line,\00", align 1
@.str.49 = private unnamed_addr constant [55 x i8] c"The index for the array must be an integer that is >= \00", align 1
@.str.50 = private unnamed_addr constant [54 x i8] c"Integer includes numbers like 3, 3., 3.0, but not 3.5\00", align 1
@.str.51 = private unnamed_addr constant [21 x i8] c"The index input is: \00", align 1
@.str.52 = private unnamed_addr constant [25 x i8] c"Count must be positive [\00", align 1
@.str.53 = private unnamed_addr constant [2 x i8] c"]\00", align 1
@.str.54 = private unnamed_addr constant [36 x i8] c"Maximum number of values allowed = \00", align 1
@.str.55 = private unnamed_addr constant [47 x i8] c"(for multi-dimension arrays this max number is\00", align 1
@.str.56 = private unnamed_addr constant [32 x i8] c"     max_dim1 * max_dim2 * ...)\00", align 1
@.str.57 = private unnamed_addr constant [36 x i8] c"This command exceeds that value by \00", align 1
@.str.58 = private unnamed_addr constant [10 x i8] c"dimension\00", align 1
@.str.59 = private unnamed_addr constant [2 x i8] c":\00", align 1
@.str.60 = private unnamed_addr constant [21 x i8] c"variable_description\00", align 1
@.str.61 = private unnamed_addr constant [63 x i8] c"The variable_description command must have 3 words on the line\00", align 1
@.str.62 = private unnamed_addr constant [35 x i8] c"First word =  variable_description\00", align 1
@.str.63 = private unnamed_addr constant [36 x i8] c"Second word =  name of the variable\00", align 1
@.str.64 = private unnamed_addr constant [58 x i8] c"Third word =  description (usually some phrase in quotes)\00", align 1
@.str.65 = private unnamed_addr constant [18 x i8] c"This command has \00", align 1
@.str.66 = private unnamed_addr constant [27 x i8] c" words instead of 3 words.\00", align 1
@.str.67 = private unnamed_addr constant [35 x i8] c"Expected a variable name as word 2\00", align 1
@.str.68 = private unnamed_addr constant [48 x i8] c"Variable names must begin with the $ character.\00", align 1
@.str.69 = private unnamed_addr constant [54 x i8] c"This variable name does not begin with a $ character.\00", align 1
@.str.70 = private unnamed_addr constant [57 x i8] c"Note that putting quotes around a variable name makes it\00", align 1
@.str.71 = private unnamed_addr constant [26 x i8] c"a string, not a variable.\00", align 1
@.str.72 = private unnamed_addr constant [17 x i8] c"Variable name = \00", align 1
@.str.73 = private unnamed_addr constant [57 x i8] c"Cannot change the description for a pre-defined variable\00", align 1
@.str.74 = private unnamed_addr constant [17 x i8] c" is pre-defined.\00", align 1
@.str.75 = private unnamed_addr constant [3 x i8] c"++\00", align 1
@.str.76 = private unnamed_addr constant [3 x i8] c"--\00", align 1
@.str.77 = private unnamed_addr constant [51 x i8] c"Attempted to use a variable before it was defined.\00", align 1
@.str.78 = private unnamed_addr constant [22 x i8] c"Undefined variable = \00", align 1
@.str.79 = private unnamed_addr constant [39 x i8] c"Expected number words in this line = 3\00", align 1
@.str.80 = private unnamed_addr constant [44 x i8] c"Expected number of symbols in this line >= \00", align 1
@.str.81 = private unnamed_addr constant [48 x i8] c"Actual number of symbols is less than expected.\00", align 1
@.str.82 = private unnamed_addr constant [75 x i8] c"Expected an open parenthesis ,(, following the variable name in this line,\00", align 1
@.str.83 = private unnamed_addr constant [47 x i8] c"Trying to use a variable before it is defined.\00", align 1
@.str.84 = private unnamed_addr constant [50 x i8] c"The list of defined variables (at this point) is:\00", align 1
@.str.85 = private unnamed_addr constant [38 x i8] c"Expected a number for variable index \00", align 1
@.str.86 = private unnamed_addr constant [18 x i8] c"Instead found:   \00", align 1
@.str.87 = private unnamed_addr constant [40 x i8] c"Expected an integer for variable index \00", align 1
@.str.88 = private unnamed_addr constant [15 x i8] c"Expected (...)\00", align 1
@.str.89 = private unnamed_addr constant [7 x i8] c"Found \00", align 1
@.str.90 = private unnamed_addr constant [58 x i8] c"Did not find a closing parenthesis, ), in math expression\00", align 1
@.str.91 = private unnamed_addr constant [53 x i8] c"Check for unbalanced parentheses in math expression.\00", align 1
@.str.93 = private unnamed_addr constant [11 x i8] c"arithmetic\00", align 1
@.str.94 = private unnamed_addr constant [11 x i8] c"relational\00", align 1
@.str.95 = private unnamed_addr constant [8 x i8] c"logical\00", align 1
@.str.96 = private unnamed_addr constant [9 x i8] c"Found a \00", align 1
@.str.97 = private unnamed_addr constant [28 x i8] c" sign at the end of a line.\00", align 1
@.str.98 = private unnamed_addr constant [41 x i8] c"Expected something to the right of the  \00", align 1
@.str.99 = private unnamed_addr constant [21 x i8] c" sign to operate on.\00", align 1
@.str.100 = private unnamed_addr constant [41 x i8] c"Expected the object following the unary \00", align 1
@.str.101 = private unnamed_addr constant [17 x i8] c" to be a number.\00", align 1
@.str.102 = private unnamed_addr constant [26 x i8] c"Unknown error with unary \00", align 1
@.str.103 = private unnamed_addr constant [19 x i8] c"Error with words: \00", align 1
@.str.104 = private unnamed_addr constant [11 x i8] c"Misplaced \00", align 1
@.str.105 = private unnamed_addr constant [11 x i8] c" operator.\00", align 1
@.str.106 = private unnamed_addr constant [47 x i8] c"++ and -- operators must follow a variable or \00", align 1
@.str.107 = private unnamed_addr constant [34 x i8] c"an element of an array variable. \00", align 1
@.str.108 = private unnamed_addr constant [20 x i8] c"Expected a function\00", align 1
@.str.109 = private unnamed_addr constant [32 x i8] c"The list of known functions is:\00", align 1
@.str.110 = private unnamed_addr constant [8 x i8] c"defined\00", align 1
@.str.112 = private unnamed_addr constant [6 x i8] c"false\00", align 1
@.str.113 = private unnamed_addr constant [7 x i8] c"string\00", align 1
@.str.114 = private unnamed_addr constant [5 x i8] c"real\00", align 1
@.str.115 = private unnamed_addr constant [48 x i8] c"Expected a number for function argument number \00", align 1
@.str.123 = private unnamed_addr constant [7 x i8] c".hgeq.\00", align 1
@.str.124 = private unnamed_addr constant [7 x i8] c".hgne.\00", align 1
@.str.125 = private unnamed_addr constant [7 x i8] c".hggt.\00", align 1
@.str.126 = private unnamed_addr constant [7 x i8] c".hgge.\00", align 1
@.str.127 = private unnamed_addr constant [7 x i8] c".hglt.\00", align 1
@.str.128 = private unnamed_addr constant [7 x i8] c".hgle.\00", align 1
@.str.129 = private unnamed_addr constant [6 x i8] c".not.\00", align 1
@.str.130 = private unnamed_addr constant [6 x i8] c".and.\00", align 1
@.str.132 = private unnamed_addr constant [26 x i8] c"Misplaced math operation.\00", align 1
@.str.133 = private unnamed_addr constant [48 x i8] c"All math operations must be inside parentheses.\00", align 1
@.str.134 = private unnamed_addr constant [75 x i8] c"The endif (or end if) statement should not have anything else on the line.\00", align 1
@.str.135 = private unnamed_addr constant [31 x i8] c"Found other words on the line.\00", align 1
@.str.136 = private unnamed_addr constant [5 x i8] c"else\00", align 1
@.str.137 = private unnamed_addr constant [62 x i8] c"The else statement should not have anything else on the line.\00", align 1
@.str.138 = private unnamed_addr constant [44 x i8] c"Expected an open parentheses, (, following \00", align 1
@.str.139 = private unnamed_addr constant [73 x i8] c"Expected a close parentheses, ), as the next to last symbol on the line.\00", align 1
@.str.140 = private unnamed_addr constant [5 x i8] c"then\00", align 1
@.str.141 = private unnamed_addr constant [44 x i8] c"Expected then as the last word on the line.\00", align 1
@.str.142 = private unnamed_addr constant [75 x i8] c"The enddo (or end do) statement should not have anything else on the line.\00", align 1
@.str.143 = private unnamed_addr constant [6 x i8] c"cycle\00", align 1
@.str.144 = private unnamed_addr constant [63 x i8] c"The cycle statement should not have anything else on the line.\00", align 1
@.str.145 = private unnamed_addr constant [5 x i8] c"exit\00", align 1
@.str.146 = private unnamed_addr constant [62 x i8] c"The exit statement should not have anything else on the line.\00", align 1
@.str.148 = private unnamed_addr constant [67 x i8] c"Expected at least 6 words on this line after any math evaluations.\00", align 1
@.str.149 = private unnamed_addr constant [14 x i8] c"For example, \00", align 1
@.str.150 = private unnamed_addr constant [8 x i8] c"    do \00", align 1
@.str.151 = private unnamed_addr constant [10 x i8] c" = 1 , 10\00", align 1
@.str.152 = private unnamed_addr constant [15 x i8] c"Instead found \00", align 1
@.str.153 = private unnamed_addr constant [20 x i8] c" words on the line.\00", align 1
@.str.154 = private unnamed_addr constant [57 x i8] c"The line (after any math evaluations have been done) is:\00", align 1
@.str.155 = private unnamed_addr constant [46 x i8] c"Loop variable names must begin with a $ sign.\00", align 1
@.str.156 = private unnamed_addr constant [34 x i8] c"The third word must be an = sign.\00", align 1
@.str.157 = private unnamed_addr constant [32 x i8] c"The fifth word must be a comma.\00", align 1
@.str.158 = private unnamed_addr constant [20 x i8] c"The loop variable, \00", align 1
@.str.159 = private unnamed_addr constant [37 x i8] c" was not found in the variable list.\00", align 1
@.str.160 = private unnamed_addr constant [43 x i8] c"This should not happen, possible code bug?\00", align 1
@.str.161 = private unnamed_addr constant [11 x i8] c"subroutine\00", align 1
@.str.162 = private unnamed_addr constant [14 x i8] c"endsubroutine\00", align 1
@.str.163 = private unnamed_addr constant [5 x i8] c"call\00", align 1
@.str.164 = private unnamed_addr constant [2 x i8] c"!\00", align 1
@.str.165 = private unnamed_addr constant [2 x i8] c"#\00", align 1
@.str.166 = private unnamed_addr constant [2 x i8] c"/\00", align 1
@_ZSt4cout = external global %"class.std::basic_ostream", align 8
@.str.167 = private unnamed_addr constant [15 x i8] c"Error in line \00", align 1
@.str.168 = private unnamed_addr constant [13 x i8] c" umatched */\00", align 1
@.str.169 = private unnamed_addr constant [2 x i8] c"v\00", align 1
@.str.170 = private unnamed_addr constant [2 x i8] c"l\00", align 1
@.str.171 = private unnamed_addr constant [7 x i8] c"ignore\00", align 1
@.str.172 = private unnamed_addr constant [4 x i8] c"fix\00", align 1
@.str.173 = private unnamed_addr constant [6 x i8] c"error\00", align 1
@.str.174 = private unnamed_addr constant [39 x i8] c"Possible error, detected the following\00", align 1
@.str.175 = private unnamed_addr constant [37 x i8] c"   comma digits space exponent comma\00", align 1
@.str.176 = private unnamed_addr constant [61 x i8] c"The digits and exponent are separated by one or more spaces,\00", align 1
@.str.177 = private unnamed_addr constant [41 x i8] c"this is not allowed for a single number.\00", align 1
@.str.178 = private unnamed_addr constant [17 x i8] c"The digits are: \00", align 1
@.str.179 = private unnamed_addr constant [24 x i8] c"  and the exponent is: \00", align 1
@.str.180 = private unnamed_addr constant [46 x i8] c"If this is one number, then remove the space.\00", align 1
@.str.181 = private unnamed_addr constant [53 x i8] c"If this is two numbers, then put a comma between the\00", align 1
@.str.182 = private unnamed_addr constant [22 x i8] c" digits and exponent.\00", align 1
@.str.183 = private unnamed_addr constant [56 x i8] c"This error (and the same error in subsequent lines) can\00", align 1
@.str.184 = private unnamed_addr constant [52 x i8] c"be controlled with the following input file command\00", align 1
@.str.185 = private unnamed_addr constant [49 x i8] c"and arguments (put before the lines with errors)\00", align 1
@.str.186 = private unnamed_addr constant [26 x i8] c"      depcmd_dse argument\00", align 1
@.str.187 = private unnamed_addr constant [48 x i8] c"where argument has one of the following values:\00", align 1
@.str.188 = private unnamed_addr constant [63 x i8] c"      fix     Silently remove the space, merge into one number\00", align 1
@.str.189 = private unnamed_addr constant [44 x i8] c"      ignore  Silently treat as two numbers\00", align 1
@.str.190 = private unnamed_addr constant [45 x i8] c"      error   Generate fatal error (default)\00", align 1
@.str.191 = private unnamed_addr constant [50 x i8] c"While the default is to generate an error, if the\00", align 1
@.str.192 = private unnamed_addr constant [49 x i8] c"command name is matdef, then the default is fix.\00", align 1
@.str.193 = private unnamed_addr constant [25 x i8] c"*** FATAL ERROR in line \00", align 1
@.str.194 = private unnamed_addr constant [10 x i8] c"in file: \00", align 1
@.str.195 = private unnamed_addr constant [21 x i8] c"*** WARNING in line \00", align 1
@.str.196 = private unnamed_addr constant [43 x i8] c"A duplicate value has been specified for: \00", align 1
@.str.197 = private unnamed_addr constant [2 x i8] c",\00", align 1
@.str.198 = private unnamed_addr constant [5 x i8] c") = \00", align 1
@.str.199 = private unnamed_addr constant [48 x i8] c"This array element was first specified in line \00", align 1
@.str.200 = private unnamed_addr constant [64 x i8] c"This fatal error can be turned into a warning with the command \00", align 1
@.str.201 = private unnamed_addr constant [37 x i8] c"    duplicate_array_values = warning\00", align 1
@.str.202 = private unnamed_addr constant [64 x i8] c"This warning can be turned into a fatal error with the command \00", align 1
@.str.203 = private unnamed_addr constant [35 x i8] c"    duplicate_array_values = fatal\00", align 1
@.str.204 = private unnamed_addr constant [62 x i8] c"Duplicate array value checking can be turned off totally with\00", align 1
@.str.205 = private unnamed_addr constant [34 x i8] c"    duplicate_array_values = none\00", align 1
@.str.206 = private unnamed_addr constant [60 x i8] c"This is not recommended since you will lose the opportunity\00", align 1
@.str.207 = private unnamed_addr constant [44 x i8] c"to check for legimate errors in your input.\00", align 1
@.str.208 = private unnamed_addr constant [4 x i8] c"end\00", align 1
@.str.209 = private unnamed_addr constant [12 x i8] c"fatal_error\00", align 1
@.str.210 = private unnamed_addr constant [51 x i8] c"*** User has issued a fatal_error command in line \00", align 1
@.str.211 = private unnamed_addr constant [43 x i8] c"The user supplied fatal_error message is: \00", align 1
@.str.212 = private unnamed_addr constant [2 x i8] c"f\00", align 1
@.str.213 = private unnamed_addr constant [34 x i8] c"This line has not been processed.\00", align 1
@.str.214 = private unnamed_addr constant [44 x i8] c"A word on this line has not been processed.\00", align 1
@.str.215 = private unnamed_addr constant [23 x i8] c"Not proccessed word = \00", align 1
@.str.216 = private unnamed_addr constant [20 x i8] c"*** Command name = \00", align 1
@.str.217 = private unnamed_addr constant [6 x i8] c"     \00", align 1
@.str.218 = private unnamed_addr constant [3 x i8] c", \00", align 1
@.str.220 = private unnamed_addr constant [48 x i8] c"cannot create std::deque larger than max_size()\00", align 1
@.str.221 = private unnamed_addr constant [21 x i8] c"basic_string::substr\00", align 1
@.str.222 = private unnamed_addr constant [55 x i8] c"%s: __pos (which is %zu) > this->size() (which is %zu)\00", align 1
@_ZTVSt15basic_streambufIcSt11char_traitsIcEE = external unnamed_addr constant { [16 x ptr] }, align 8
@.str.224 = private unnamed_addr constant [49 x i8] c"cannot create std::vector larger than max_size()\00", align 1
@.str.225 = private unnamed_addr constant [26 x i8] c"vector::_M_realloc_insert\00", align 1
@_ZTTNSt7__cxx1118basic_stringstreamIcSt11char_traitsIcESaIcEEE = external unnamed_addr constant [10 x ptr], align 8
@_ZTVNSt7__cxx1115basic_stringbufIcSt11char_traitsIcESaIcEEE = external unnamed_addr constant { [16 x ptr] }, align 8
@.str.227 = private unnamed_addr constant [28 x i8] c"vector<bool>::_M_insert_aux\00", align 1
@.str.228 = private unnamed_addr constant [21 x i8] c"basic_string::append\00", align 1
@llvm.global_ctors = appending global [1 x { i32, ptr, ptr }] [{ i32, ptr, ptr } { i32 65535, ptr @_GLOBAL__sub_I_Cmd.cc, ptr null }]

@_ZN2PP3CmdC1Ev = dso_local unnamed_addr alias void (ptr), ptr @_ZN2PP3CmdC2Ev
@_ZN2PP3CmdC1ENSt7__cxx1112basic_stringIcSt11char_traitsIcESaIcEEEPSt3mapIS6_NS_8VariableESt4lessIS6_ESaISt4pairIKS6_S8_EEEPS7_IS6_NS_8FunctionESA_SaISB_ISC_SH_EEEPSt5dequeIS6_SaIS6_EEiiS6_RNS1_18basic_stringstreamIcS4_S5_EERi = dso_local unnamed_addr alias void (ptr, ptr, ptr, ptr, ptr, i32, i32, ptr, ptr, ptr), ptr @_ZN2PP3CmdC2ENSt7__cxx1112basic_stringIcSt11char_traitsIcESaIcEEEPSt3mapIS6_NS_8VariableESt4lessIS6_ESaISt4pairIKS6_S8_EEEPS7_IS6_NS_8FunctionESA_SaISB_ISC_SH_EEEPSt5dequeIS6_SaIS6_EEiiS6_RNS1_18basic_stringstreamIcS4_S5_EERi

declare void @_ZNSt8ios_base4InitC1Ev(ptr noundef nonnull align 1 dereferenceable(1)) unnamed_addr #0

; Function Attrs: nounwind
declare void @_ZNSt8ios_base4InitD1Ev(ptr noundef nonnull align 1 dereferenceable(1)) unnamed_addr #1

; Function Attrs: nofree nounwind
declare i32 @__cxa_atexit(ptr, ptr, ptr) local_unnamed_addr #2

; Function Attrs: uwtable
define dso_local void @_ZN2PP3CmdC2Ev(ptr noundef nonnull align 8 dereferenceable(432) %0) unnamed_addr #3 align 2 personality ptr @__gxx_personality_v0 {
  %2 = getelementptr inbounds %"class.PP::Cmd", ptr %0, i64 0, i32 2
  %3 = getelementptr inbounds %"class.PP::Cmd", ptr %0, i64 0, i32 2, i32 2
  store ptr %3, ptr %2, align 8, !tbaa !5
  %4 = getelementptr inbounds %"class.PP::Cmd", ptr %0, i64 0, i32 2, i32 1
  store i64 0, ptr %4, align 8, !tbaa !10
  store i8 0, ptr %3, align 8, !tbaa !13
  %5 = getelementptr inbounds %"class.PP::Cmd", ptr %0, i64 0, i32 4
  %6 = getelementptr inbounds %"class.PP::Cmd", ptr %0, i64 0, i32 4, i32 2
  store ptr %6, ptr %5, align 8, !tbaa !5
  %7 = getelementptr inbounds %"class.PP::Cmd", ptr %0, i64 0, i32 4, i32 1
  store i64 0, ptr %7, align 8, !tbaa !10
  store i8 0, ptr %6, align 8, !tbaa !13
  %8 = getelementptr inbounds %"class.PP::Cmd", ptr %0, i64 0, i32 7
  %9 = getelementptr inbounds %"class.PP::Cmd", ptr %0, i64 0, i32 7, i32 2
  store ptr %9, ptr %8, align 8, !tbaa !5
  %10 = getelementptr inbounds %"class.PP::Cmd", ptr %0, i64 0, i32 7, i32 1
  store i64 0, ptr %10, align 8, !tbaa !10
  store i8 0, ptr %9, align 8, !tbaa !13
  %11 = getelementptr inbounds %"class.PP::Cmd", ptr %0, i64 0, i32 8
  %12 = getelementptr inbounds %"class.PP::Cmd", ptr %0, i64 0, i32 8, i32 2
  store ptr %12, ptr %11, align 8, !tbaa !5
  %13 = getelementptr inbounds %"class.PP::Cmd", ptr %0, i64 0, i32 8, i32 1
  store i64 0, ptr %13, align 8, !tbaa !10
  store i8 0, ptr %12, align 8, !tbaa !13
  %14 = getelementptr inbounds %"class.PP::Cmd", ptr %0, i64 0, i32 9
  tail call void @llvm.memset.p0.i64(ptr noundef nonnull align 8 dereferenceable(80) %14, i8 0, i64 80, i1 false)
  invoke void @_ZNSt11_Deque_baseIN2PP4WordESaIS1_EE17_M_initialize_mapEm(ptr noundef nonnull align 8 dereferenceable(80) %14, i64 noundef 0)
          to label %15 unwind label %46

15:                                               ; preds = %1
  %16 = getelementptr inbounds %"class.PP::Cmd", ptr %0, i64 0, i32 10
  %17 = getelementptr inbounds %"class.PP::Cmd", ptr %0, i64 0, i32 10, i32 2
  store ptr %17, ptr %16, align 8, !tbaa !5
  %18 = getelementptr inbounds %"class.PP::Cmd", ptr %0, i64 0, i32 10, i32 1
  store i64 0, ptr %18, align 8, !tbaa !10
  store i8 0, ptr %17, align 8, !tbaa !13
  %19 = getelementptr inbounds %"class.PP::Cmd", ptr %0, i64 0, i32 11
  %20 = getelementptr inbounds %"class.PP::Cmd", ptr %0, i64 0, i32 11, i32 2
  store ptr %20, ptr %19, align 8, !tbaa !5
  %21 = getelementptr inbounds %"class.PP::Cmd", ptr %0, i64 0, i32 11, i32 1
  store i64 0, ptr %21, align 8, !tbaa !10
  store i8 0, ptr %20, align 8, !tbaa !13
  %22 = getelementptr inbounds %"class.PP::Cmd", ptr %0, i64 0, i32 12
  %23 = getelementptr inbounds %"class.PP::Cmd", ptr %0, i64 0, i32 13
  %24 = getelementptr inbounds %"class.PP::Cmd", ptr %0, i64 0, i32 14
  %25 = getelementptr inbounds %"class.PP::Cmd", ptr %0, i64 0, i32 14, i32 0, i32 0, i32 0, i32 1
  store ptr null, ptr %25, align 8, !tbaa !14
  %26 = getelementptr inbounds %"class.PP::Cmd", ptr %0, i64 0, i32 14, i32 0, i32 0, i32 0, i32 1, i32 0, i32 1
  store i32 0, ptr %26, align 8, !tbaa !17
  %27 = getelementptr inbounds %"class.PP::Cmd", ptr %0, i64 0, i32 14, i32 0, i32 0, i32 0, i32 2
  %28 = getelementptr inbounds %"class.PP::Cmd", ptr %0, i64 0, i32 15
  %29 = getelementptr inbounds %"class.PP::Cmd", ptr %0, i64 0, i32 15, i32 0, i32 0, i32 0, i32 1
  store ptr null, ptr %29, align 8, !tbaa !14
  %30 = getelementptr inbounds %"class.PP::Cmd", ptr %0, i64 0, i32 15, i32 0, i32 0, i32 0, i32 1, i32 0, i32 1
  store i32 0, ptr %30, align 8, !tbaa !17
  %31 = getelementptr inbounds %"class.PP::Cmd", ptr %0, i64 0, i32 15, i32 0, i32 0, i32 0, i32 2
  store ptr null, ptr %31, align 8, !tbaa !18
  tail call void @llvm.memset.p0.i64(ptr noundef nonnull align 8 dereferenceable(60) %22, i8 0, i64 60, i1 false)
  tail call void @llvm.memset.p0.i64(ptr noundef nonnull align 8 dereferenceable(20) %27, i8 0, i64 20, i1 false)
  %32 = load i64, ptr %7, align 8, !tbaa !10
  %33 = invoke noundef nonnull align 8 dereferenceable(32) ptr @_ZNSt7__cxx1112basic_stringIcSt11char_traitsIcESaIcEE10_M_replaceEmmPKcm(ptr noundef nonnull align 8 dereferenceable(32) %5, i64 noundef 0, i64 noundef %32, ptr noundef nonnull @.str, i64 noundef 0)
          to label %34 unwind label %48

34:                                               ; preds = %15
  %35 = load i64, ptr %10, align 8, !tbaa !10
  %36 = invoke noundef nonnull align 8 dereferenceable(32) ptr @_ZNSt7__cxx1112basic_stringIcSt11char_traitsIcESaIcEE10_M_replaceEmmPKcm(ptr noundef nonnull align 8 dereferenceable(32) %8, i64 noundef 0, i64 noundef %35, ptr noundef nonnull @.str.1, i64 noundef 2)
          to label %37 unwind label %48

37:                                               ; preds = %34
  %38 = load i64, ptr %13, align 8, !tbaa !10
  %39 = invoke noundef nonnull align 8 dereferenceable(32) ptr @_ZNSt7__cxx1112basic_stringIcSt11char_traitsIcESaIcEE10_M_replaceEmmPKcm(ptr noundef nonnull align 8 dereferenceable(32) %11, i64 noundef 0, i64 noundef %38, ptr noundef nonnull @.str.2, i64 noundef 14)
          to label %40 unwind label %48

40:                                               ; preds = %37
  %41 = getelementptr inbounds %"class.PP::Cmd", ptr %0, i64 0, i32 5
  store i32 0, ptr %0, align 8, !tbaa !21
  %42 = getelementptr inbounds %"class.PP::Cmd", ptr %0, i64 0, i32 1
  store i32 0, ptr %42, align 4, !tbaa !35
  tail call void @llvm.memset.p0.i64(ptr noundef nonnull align 8 dereferenceable(16) %41, i8 0, i64 16, i1 false)
  %43 = load i64, ptr %4, align 8, !tbaa !10
  %44 = invoke noundef nonnull align 8 dereferenceable(32) ptr @_ZNSt7__cxx1112basic_stringIcSt11char_traitsIcESaIcEE10_M_replaceEmmPKcm(ptr noundef nonnull align 8 dereferenceable(32) %2, i64 noundef 0, i64 noundef %43, ptr noundef nonnull @.str, i64 noundef 0)
          to label %45 unwind label %48

45:                                               ; preds = %40
  ret void

46:                                               ; preds = %1
  %47 = landingpad { ptr, i32 }
          cleanup
  br label %58

48:                                               ; preds = %40, %37, %34, %15
  %49 = landingpad { ptr, i32 }
          cleanup
  tail call void @_ZNSt13_Bvector_baseISaIbEED2Ev(ptr noundef nonnull align 8 dereferenceable(40) %28) #24
  tail call void @_ZNSt13_Bvector_baseISaIbEED2Ev(ptr noundef nonnull align 8 dereferenceable(40) %24) #24
  tail call void @_ZNSt6vectorINSt7__cxx1112basic_stringIcSt11char_traitsIcESaIcEEESaIS5_EED2Ev(ptr noundef nonnull align 8 dereferenceable(24) %23) #24
  tail call void @_ZNSt6vectorINSt7__cxx1112basic_stringIcSt11char_traitsIcESaIcEEESaIS5_EED2Ev(ptr noundef nonnull align 8 dereferenceable(24) %22) #24
  %50 = load ptr, ptr %19, align 8, !tbaa !36
  %51 = icmp eq ptr %50, %20
  br i1 %51, label %53, label %52

52:                                               ; preds = %48
  tail call void @_ZdlPv(ptr noundef %50) #25
  br label %53

53:                                               ; preds = %48, %52
  %54 = load ptr, ptr %16, align 8, !tbaa !36
  %55 = icmp eq ptr %54, %17
  br i1 %55, label %57, label %56

56:                                               ; preds = %53
  tail call void @_ZdlPv(ptr noundef %54) #25
  br label %57

57:                                               ; preds = %53, %56
  tail call void @_ZNSt5dequeIN2PP4WordESaIS1_EED2Ev(ptr noundef nonnull align 8 dereferenceable(80) %14) #24
  br label %58

58:                                               ; preds = %57, %46
  %59 = phi { ptr, i32 } [ %49, %57 ], [ %47, %46 ]
  %60 = load ptr, ptr %11, align 8, !tbaa !36
  %61 = icmp eq ptr %60, %12
  br i1 %61, label %63, label %62

62:                                               ; preds = %58
  tail call void @_ZdlPv(ptr noundef %60) #25
  br label %63

63:                                               ; preds = %58, %62
  %64 = load ptr, ptr %8, align 8, !tbaa !36
  %65 = icmp eq ptr %64, %9
  br i1 %65, label %67, label %66

66:                                               ; preds = %63
  tail call void @_ZdlPv(ptr noundef %64) #25
  br label %67

67:                                               ; preds = %63, %66
  %68 = load ptr, ptr %5, align 8, !tbaa !36
  %69 = icmp eq ptr %68, %6
  br i1 %69, label %71, label %70

70:                                               ; preds = %67
  tail call void @_ZdlPv(ptr noundef %68) #25
  br label %71

71:                                               ; preds = %67, %70
  %72 = load ptr, ptr %2, align 8, !tbaa !36
  %73 = icmp eq ptr %72, %3
  br i1 %73, label %75, label %74

74:                                               ; preds = %71
  tail call void @_ZdlPv(ptr noundef %72) #25
  br label %75

75:                                               ; preds = %71, %74
  resume { ptr, i32 } %59
}

declare i32 @__gxx_personality_v0(...)

; Function Attrs: mustprogress uwtable
define dso_local void @_ZN2PP3Cmd4initEv(ptr noundef nonnull align 8 dereferenceable(432) %0) local_unnamed_addr #4 align 2 {
  %2 = getelementptr inbounds %"class.PP::Cmd", ptr %0, i64 0, i32 4
  %3 = getelementptr inbounds %"class.PP::Cmd", ptr %0, i64 0, i32 4, i32 1
  %4 = load i64, ptr %3, align 8, !tbaa !10
  %5 = tail call noundef nonnull align 8 dereferenceable(32) ptr @_ZNSt7__cxx1112basic_stringIcSt11char_traitsIcESaIcEE10_M_replaceEmmPKcm(ptr noundef nonnull align 8 dereferenceable(32) %2, i64 noundef 0, i64 noundef %4, ptr noundef nonnull @.str, i64 noundef 0)
  %6 = getelementptr inbounds %"class.PP::Cmd", ptr %0, i64 0, i32 7
  %7 = getelementptr inbounds %"class.PP::Cmd", ptr %0, i64 0, i32 7, i32 1
  %8 = load i64, ptr %7, align 8, !tbaa !10
  %9 = tail call noundef nonnull align 8 dereferenceable(32) ptr @_ZNSt7__cxx1112basic_stringIcSt11char_traitsIcESaIcEE10_M_replaceEmmPKcm(ptr noundef nonnull align 8 dereferenceable(32) %6, i64 noundef 0, i64 noundef %8, ptr noundef nonnull @.str.1, i64 noundef 2)
  %10 = getelementptr inbounds %"class.PP::Cmd", ptr %0, i64 0, i32 8
  %11 = getelementptr inbounds %"class.PP::Cmd", ptr %0, i64 0, i32 8, i32 1
  %12 = load i64, ptr %11, align 8, !tbaa !10
  %13 = tail call noundef nonnull align 8 dereferenceable(32) ptr @_ZNSt7__cxx1112basic_stringIcSt11char_traitsIcESaIcEE10_M_replaceEmmPKcm(ptr noundef nonnull align 8 dereferenceable(32) %10, i64 noundef 0, i64 noundef %12, ptr noundef nonnull @.str.2, i64 noundef 14)
  %14 = getelementptr inbounds %"class.PP::Cmd", ptr %0, i64 0, i32 5
  store i32 0, ptr %0, align 8, !tbaa !21
  %15 = getelementptr inbounds %"class.PP::Cmd", ptr %0, i64 0, i32 1
  store i32 0, ptr %15, align 4, !tbaa !35
  %16 = getelementptr inbounds %"class.PP::Cmd", ptr %0, i64 0, i32 2
  %17 = getelementptr inbounds %"class.PP::Cmd", ptr %0, i64 0, i32 2, i32 1
  tail call void @llvm.memset.p0.i64(ptr noundef nonnull align 8 dereferenceable(16) %14, i8 0, i64 16, i1 false)
  %18 = load i64, ptr %17, align 8, !tbaa !10
  %19 = tail call noundef nonnull align 8 dereferenceable(32) ptr @_ZNSt7__cxx1112basic_stringIcSt11char_traitsIcESaIcEE10_M_replaceEmmPKcm(ptr noundef nonnull align 8 dereferenceable(32) %16, i64 noundef 0, i64 noundef %18, ptr noundef nonnull @.str, i64 noundef 0)
  ret void
}

; Function Attrs: nounwind uwtable
define linkonce_odr dso_local void @_ZNSt13_Bvector_baseISaIbEED2Ev(ptr noundef nonnull align 8 dereferenceable(40) %0) unnamed_addr #5 comdat align 2 personality ptr @__gxx_personality_v0 {
  %2 = load ptr, ptr %0, align 8, !tbaa !14
  %3 = icmp eq ptr %2, null
  br i1 %3, label %16, label %4

4:                                                ; preds = %1
  %5 = getelementptr inbounds %"struct.std::_Bvector_base<std::allocator<bool>>::_Bvector_impl_data", ptr %0, i64 0, i32 2
  %6 = load ptr, ptr %5, align 8, !tbaa !18
  %7 = ptrtoint ptr %6 to i64
  %8 = ptrtoint ptr %2 to i64
  %9 = sub i64 %7, %8
  %10 = ashr exact i64 %9, 3
  %11 = sub nsw i64 0, %10
  %12 = getelementptr inbounds i64, ptr %6, i64 %11
  tail call void @_ZdlPv(ptr noundef %12) #25
  store ptr null, ptr %0, align 8
  %13 = getelementptr inbounds i8, ptr %0, i64 8
  store i32 0, ptr %13, align 8
  %14 = getelementptr inbounds i8, ptr %0, i64 16
  store ptr null, ptr %14, align 8
  %15 = getelementptr inbounds i8, ptr %0, i64 24
  store i32 0, ptr %15, align 8
  store ptr null, ptr %5, align 8
  br label %16

16:                                               ; preds = %4, %1
  ret void
}

; Function Attrs: nounwind uwtable
define linkonce_odr dso_local void @_ZNSt6vectorINSt7__cxx1112basic_stringIcSt11char_traitsIcESaIcEEESaIS5_EED2Ev(ptr noundef nonnull align 8 dereferenceable(24) %0) unnamed_addr #5 comdat align 2 personality ptr @__gxx_personality_v0 {
  %2 = load ptr, ptr %0, align 8, !tbaa !37
  %3 = getelementptr inbounds %"struct.std::_Vector_base<std::__cxx11::basic_string<char>, std::allocator<std::__cxx11::basic_string<char>>>::_Vector_impl_data", ptr %0, i64 0, i32 1
  %4 = load ptr, ptr %3, align 8, !tbaa !38
  %5 = icmp eq ptr %2, %4
  br i1 %5, label %17, label %6

6:                                                ; preds = %1, %12
  %7 = phi ptr [ %13, %12 ], [ %2, %1 ]
  %8 = load ptr, ptr %7, align 8, !tbaa !36
  %9 = getelementptr inbounds %"class.std::__cxx11::basic_string", ptr %7, i64 0, i32 2
  %10 = icmp eq ptr %8, %9
  br i1 %10, label %12, label %11

11:                                               ; preds = %6
  tail call void @_ZdlPv(ptr noundef %8) #25
  br label %12

12:                                               ; preds = %11, %6
  %13 = getelementptr inbounds %"class.std::__cxx11::basic_string", ptr %7, i64 1
  %14 = icmp eq ptr %13, %4
  br i1 %14, label %15, label %6, !llvm.loop !39

15:                                               ; preds = %12
  %16 = load ptr, ptr %0, align 8, !tbaa !37
  br label %17

17:                                               ; preds = %15, %1
  %18 = phi ptr [ %16, %15 ], [ %2, %1 ]
  %19 = icmp eq ptr %18, null
  br i1 %19, label %21, label %20

20:                                               ; preds = %17
  tail call void @_ZdlPv(ptr noundef nonnull %18) #25
  br label %21

21:                                               ; preds = %17, %20
  ret void
}

; Function Attrs: nounwind uwtable
define linkonce_odr dso_local void @_ZNSt5dequeIN2PP4WordESaIS1_EED2Ev(ptr noundef nonnull align 8 dereferenceable(80) %0) unnamed_addr #5 comdat align 2 personality ptr @__gxx_personality_v0 {
  %2 = alloca %"struct.std::_Deque_iterator.16", align 16
  %3 = alloca %"struct.std::_Deque_iterator.16", align 16
  %4 = getelementptr inbounds %"struct.std::_Deque_base<PP::Word, std::allocator<PP::Word>>::_Deque_impl_data", ptr %0, i64 0, i32 2
  %5 = getelementptr inbounds %"struct.std::_Deque_base<PP::Word, std::allocator<PP::Word>>::_Deque_impl_data", ptr %0, i64 0, i32 2, i32 2
  %6 = getelementptr inbounds %"struct.std::_Deque_base<PP::Word, std::allocator<PP::Word>>::_Deque_impl_data", ptr %0, i64 0, i32 2, i32 3
  %7 = getelementptr inbounds %"struct.std::_Deque_base<PP::Word, std::allocator<PP::Word>>::_Deque_impl_data", ptr %0, i64 0, i32 3
  %8 = getelementptr inbounds %"struct.std::_Deque_base<PP::Word, std::allocator<PP::Word>>::_Deque_impl_data", ptr %0, i64 0, i32 3, i32 2
  %9 = getelementptr inbounds %"struct.std::_Deque_base<PP::Word, std::allocator<PP::Word>>::_Deque_impl_data", ptr %0, i64 0, i32 3, i32 3
  call void @llvm.lifetime.start.p0(i64 32, ptr nonnull %2)
  call void @llvm.lifetime.start.p0(i64 32, ptr nonnull %3)
  %10 = load <2 x ptr>, ptr %4, align 8, !tbaa !41, !noalias !42
  store <2 x ptr> %10, ptr %2, align 16, !tbaa !41
  %11 = getelementptr inbounds %"struct.std::_Deque_iterator.16", ptr %2, i64 0, i32 2
  %12 = load <2 x ptr>, ptr %5, align 8, !tbaa !41, !noalias !42
  store <2 x ptr> %12, ptr %11, align 16, !tbaa !41
  %13 = load <2 x ptr>, ptr %7, align 8, !tbaa !41, !noalias !45
  store <2 x ptr> %13, ptr %3, align 16, !tbaa !41
  %14 = getelementptr inbounds %"struct.std::_Deque_iterator.16", ptr %3, i64 0, i32 2
  %15 = load <2 x ptr>, ptr %8, align 8, !tbaa !41, !noalias !45
  store <2 x ptr> %15, ptr %14, align 16, !tbaa !41
  invoke void @_ZNSt5dequeIN2PP4WordESaIS1_EE19_M_destroy_data_auxESt15_Deque_iteratorIS1_RS1_PS1_ES7_(ptr noundef nonnull align 8 dereferenceable(80) %0, ptr noundef nonnull %2, ptr noundef nonnull %3)
          to label %16 unwind label %34

16:                                               ; preds = %1
  call void @llvm.lifetime.end.p0(i64 32, ptr nonnull %2)
  call void @llvm.lifetime.end.p0(i64 32, ptr nonnull %3)
  %17 = load ptr, ptr %0, align 8, !tbaa !48
  %18 = icmp eq ptr %17, null
  br i1 %18, label %33, label %19

19:                                               ; preds = %16
  %20 = load ptr, ptr %6, align 8, !tbaa !49
  %21 = load ptr, ptr %9, align 8, !tbaa !50
  %22 = getelementptr inbounds ptr, ptr %21, i64 1
  %23 = icmp ult ptr %20, %22
  br i1 %23, label %24, label %31

24:                                               ; preds = %19, %24
  %25 = phi ptr [ %27, %24 ], [ %20, %19 ]
  %26 = load ptr, ptr %25, align 8, !tbaa !41
  call void @_ZdlPv(ptr noundef %26) #25
  %27 = getelementptr inbounds ptr, ptr %25, i64 1
  %28 = icmp ult ptr %25, %21
  br i1 %28, label %24, label %29, !llvm.loop !51

29:                                               ; preds = %24
  %30 = load ptr, ptr %0, align 8, !tbaa !48
  br label %31

31:                                               ; preds = %29, %19
  %32 = phi ptr [ %30, %29 ], [ %17, %19 ]
  call void @_ZdlPv(ptr noundef %32) #25
  br label %33

33:                                               ; preds = %16, %31
  ret void

34:                                               ; preds = %1
  %35 = landingpad { ptr, i32 }
          catch ptr null
  %36 = extractvalue { ptr, i32 } %35, 0
  call void @__clang_call_terminate(ptr %36) #26
  unreachable
}

; Function Attrs: uwtable
define dso_local void @_ZN2PP3CmdC2ENSt7__cxx1112basic_stringIcSt11char_traitsIcESaIcEEEPSt3mapIS6_NS_8VariableESt4lessIS6_ESaISt4pairIKS6_S8_EEEPS7_IS6_NS_8FunctionESA_SaISB_ISC_SH_EEEPSt5dequeIS6_SaIS6_EEiiS6_RNS1_18basic_stringstreamIcS4_S5_EERi(ptr noundef nonnull align 8 dereferenceable(432) %0, ptr noundef %1, ptr noundef %2, ptr noundef %3, ptr noundef %4, i32 noundef %5, i32 noundef %6, ptr noundef %7, ptr nocapture noundef nonnull readnone align 8 dereferenceable(128) %8, ptr nocapture noundef nonnull readnone align 4 dereferenceable(4) %9) unnamed_addr #3 align 2 personality ptr @__gxx_personality_v0 {
  %11 = alloca i64, align 8
  %12 = alloca %"class.std::__cxx11::basic_string", align 8
  %13 = getelementptr inbounds %"class.PP::Cmd", ptr %0, i64 0, i32 2
  %14 = getelementptr inbounds %"class.PP::Cmd", ptr %0, i64 0, i32 2, i32 2
  store ptr %14, ptr %13, align 8, !tbaa !5
  %15 = getelementptr inbounds %"class.PP::Cmd", ptr %0, i64 0, i32 2, i32 1
  store i64 0, ptr %15, align 8, !tbaa !10
  store i8 0, ptr %14, align 8, !tbaa !13
  %16 = getelementptr inbounds %"class.PP::Cmd", ptr %0, i64 0, i32 4
  %17 = getelementptr inbounds %"class.PP::Cmd", ptr %0, i64 0, i32 4, i32 2
  store ptr %17, ptr %16, align 8, !tbaa !5
  %18 = getelementptr inbounds %"class.PP::Cmd", ptr %0, i64 0, i32 4, i32 1
  store i64 0, ptr %18, align 8, !tbaa !10
  store i8 0, ptr %17, align 8, !tbaa !13
  %19 = getelementptr inbounds %"class.PP::Cmd", ptr %0, i64 0, i32 7
  %20 = getelementptr inbounds %"class.PP::Cmd", ptr %0, i64 0, i32 7, i32 2
  store ptr %20, ptr %19, align 8, !tbaa !5
  %21 = getelementptr inbounds %"class.PP::Cmd", ptr %0, i64 0, i32 7, i32 1
  store i64 0, ptr %21, align 8, !tbaa !10
  store i8 0, ptr %20, align 8, !tbaa !13
  %22 = getelementptr inbounds %"class.PP::Cmd", ptr %0, i64 0, i32 8
  %23 = getelementptr inbounds %"class.PP::Cmd", ptr %0, i64 0, i32 8, i32 2
  store ptr %23, ptr %22, align 8, !tbaa !5
  %24 = getelementptr inbounds %"class.PP::Cmd", ptr %0, i64 0, i32 8, i32 1
  store i64 0, ptr %24, align 8, !tbaa !10
  store i8 0, ptr %23, align 8, !tbaa !13
  %25 = getelementptr inbounds %"class.PP::Cmd", ptr %0, i64 0, i32 9
  tail call void @llvm.memset.p0.i64(ptr noundef nonnull align 8 dereferenceable(80) %25, i8 0, i64 80, i1 false)
  invoke void @_ZNSt11_Deque_baseIN2PP4WordESaIS1_EE17_M_initialize_mapEm(ptr noundef nonnull align 8 dereferenceable(80) %25, i64 noundef 0)
          to label %26 unwind label %85

26:                                               ; preds = %10
  %27 = getelementptr inbounds %"class.PP::Cmd", ptr %0, i64 0, i32 10
  %28 = getelementptr inbounds %"class.PP::Cmd", ptr %0, i64 0, i32 10, i32 2
  store ptr %28, ptr %27, align 8, !tbaa !5
  %29 = getelementptr inbounds %"class.PP::Cmd", ptr %0, i64 0, i32 10, i32 1
  store i64 0, ptr %29, align 8, !tbaa !10
  store i8 0, ptr %28, align 8, !tbaa !13
  %30 = getelementptr inbounds %"class.PP::Cmd", ptr %0, i64 0, i32 11
  %31 = getelementptr inbounds %"class.PP::Cmd", ptr %0, i64 0, i32 11, i32 2
  store ptr %31, ptr %30, align 8, !tbaa !5
  %32 = getelementptr inbounds %"class.PP::Cmd", ptr %0, i64 0, i32 11, i32 1
  store i64 0, ptr %32, align 8, !tbaa !10
  store i8 0, ptr %31, align 8, !tbaa !13
  %33 = getelementptr inbounds %"class.PP::Cmd", ptr %0, i64 0, i32 12
  %34 = getelementptr inbounds %"class.PP::Cmd", ptr %0, i64 0, i32 13
  %35 = getelementptr inbounds %"class.PP::Cmd", ptr %0, i64 0, i32 14
  %36 = getelementptr inbounds %"class.PP::Cmd", ptr %0, i64 0, i32 14, i32 0, i32 0, i32 0, i32 1
  store ptr null, ptr %36, align 8, !tbaa !14
  %37 = getelementptr inbounds %"class.PP::Cmd", ptr %0, i64 0, i32 14, i32 0, i32 0, i32 0, i32 1, i32 0, i32 1
  store i32 0, ptr %37, align 8, !tbaa !17
  %38 = getelementptr inbounds %"class.PP::Cmd", ptr %0, i64 0, i32 14, i32 0, i32 0, i32 0, i32 2
  %39 = getelementptr inbounds %"class.PP::Cmd", ptr %0, i64 0, i32 15
  %40 = getelementptr inbounds %"class.PP::Cmd", ptr %0, i64 0, i32 15, i32 0, i32 0, i32 0, i32 1
  store ptr null, ptr %40, align 8, !tbaa !14
  %41 = getelementptr inbounds %"class.PP::Cmd", ptr %0, i64 0, i32 15, i32 0, i32 0, i32 0, i32 1, i32 0, i32 1
  store i32 0, ptr %41, align 8, !tbaa !17
  %42 = getelementptr inbounds %"class.PP::Cmd", ptr %0, i64 0, i32 15, i32 0, i32 0, i32 0, i32 2
  store ptr null, ptr %42, align 8, !tbaa !18
  tail call void @llvm.memset.p0.i64(ptr noundef nonnull align 8 dereferenceable(60) %33, i8 0, i64 60, i1 false)
  tail call void @llvm.memset.p0.i64(ptr noundef nonnull align 8 dereferenceable(20) %38, i8 0, i64 20, i1 false)
  %43 = load i64, ptr %18, align 8, !tbaa !10
  %44 = invoke noundef nonnull align 8 dereferenceable(32) ptr @_ZNSt7__cxx1112basic_stringIcSt11char_traitsIcESaIcEE10_M_replaceEmmPKcm(ptr noundef nonnull align 8 dereferenceable(32) %16, i64 noundef 0, i64 noundef %43, ptr noundef nonnull @.str, i64 noundef 0)
          to label %45 unwind label %87

45:                                               ; preds = %26
  %46 = load i64, ptr %21, align 8, !tbaa !10
  %47 = invoke noundef nonnull align 8 dereferenceable(32) ptr @_ZNSt7__cxx1112basic_stringIcSt11char_traitsIcESaIcEE10_M_replaceEmmPKcm(ptr noundef nonnull align 8 dereferenceable(32) %19, i64 noundef 0, i64 noundef %46, ptr noundef nonnull @.str.1, i64 noundef 2)
          to label %48 unwind label %87

48:                                               ; preds = %45
  %49 = load i64, ptr %24, align 8, !tbaa !10
  %50 = invoke noundef nonnull align 8 dereferenceable(32) ptr @_ZNSt7__cxx1112basic_stringIcSt11char_traitsIcESaIcEE10_M_replaceEmmPKcm(ptr noundef nonnull align 8 dereferenceable(32) %22, i64 noundef 0, i64 noundef %49, ptr noundef nonnull @.str.2, i64 noundef 14)
          to label %51 unwind label %87

51:                                               ; preds = %48
  %52 = getelementptr inbounds %"class.PP::Cmd", ptr %0, i64 0, i32 5
  store i32 0, ptr %0, align 8, !tbaa !21
  %53 = getelementptr inbounds %"class.PP::Cmd", ptr %0, i64 0, i32 1
  store i32 0, ptr %53, align 4, !tbaa !35
  tail call void @llvm.memset.p0.i64(ptr noundef nonnull align 8 dereferenceable(16) %52, i8 0, i64 16, i1 false)
  %54 = load i64, ptr %15, align 8, !tbaa !10
  %55 = invoke noundef nonnull align 8 dereferenceable(32) ptr @_ZNSt7__cxx1112basic_stringIcSt11char_traitsIcESaIcEE10_M_replaceEmmPKcm(ptr noundef nonnull align 8 dereferenceable(32) %13, i64 noundef 0, i64 noundef %54, ptr noundef nonnull @.str, i64 noundef 0)
          to label %56 unwind label %87

56:                                               ; preds = %51
  store ptr %2, ptr %52, align 8, !tbaa !52
  %57 = getelementptr inbounds %"class.PP::Cmd", ptr %0, i64 0, i32 6
  store ptr %3, ptr %57, align 8, !tbaa !53
  invoke void @_ZNSt7__cxx1112basic_stringIcSt11char_traitsIcESaIcEE9_M_assignERKS4_(ptr noundef nonnull align 8 dereferenceable(32) %16, ptr noundef nonnull align 8 dereferenceable(32) %1)
          to label %58 unwind label %87

58:                                               ; preds = %56
  store i32 %5, ptr %0, align 8, !tbaa !21
  store i32 %6, ptr %53, align 4, !tbaa !35
  invoke void @_ZNSt7__cxx1112basic_stringIcSt11char_traitsIcESaIcEE9_M_assignERKS4_(ptr noundef nonnull align 8 dereferenceable(32) %13, ptr noundef nonnull align 8 dereferenceable(32) %7)
          to label %59 unwind label %87

59:                                               ; preds = %58
  %60 = getelementptr inbounds %"class.PP::Cmd", ptr %0, i64 0, i32 3
  store ptr %4, ptr %60, align 8, !tbaa !54
  %61 = getelementptr inbounds %"class.std::__cxx11::basic_string", ptr %12, i64 0, i32 2
  store ptr %61, ptr %12, align 8, !tbaa !5
  %62 = load ptr, ptr %1, align 8, !tbaa !36
  %63 = getelementptr inbounds %"class.std::__cxx11::basic_string", ptr %1, i64 0, i32 1
  %64 = load i64, ptr %63, align 8, !tbaa !10
  call void @llvm.lifetime.start.p0(i64 8, ptr nonnull %11) #24
  store i64 %64, ptr %11, align 8, !tbaa !55
  %65 = icmp ugt i64 %64, 15
  br i1 %65, label %66, label %70

66:                                               ; preds = %59
  %67 = invoke noundef ptr @_ZNSt7__cxx1112basic_stringIcSt11char_traitsIcESaIcEE9_M_createERmm(ptr noundef nonnull align 8 dereferenceable(32) %12, ptr noundef nonnull align 8 dereferenceable(8) %11, i64 noundef 0)
          to label %68 unwind label %87

68:                                               ; preds = %66
  store ptr %67, ptr %12, align 8, !tbaa !36
  %69 = load i64, ptr %11, align 8, !tbaa !55
  store i64 %69, ptr %61, align 8, !tbaa !13
  br label %70

70:                                               ; preds = %68, %59
  %71 = phi ptr [ %67, %68 ], [ %61, %59 ]
  switch i64 %64, label %74 [
    i64 1, label %72
    i64 0, label %75
  ]

72:                                               ; preds = %70
  %73 = load i8, ptr %62, align 1, !tbaa !13
  store i8 %73, ptr %71, align 1, !tbaa !13
  br label %75

74:                                               ; preds = %70
  call void @llvm.memcpy.p0.p0.i64(ptr align 1 %71, ptr align 1 %62, i64 %64, i1 false)
  br label %75

75:                                               ; preds = %74, %72, %70
  %76 = load i64, ptr %11, align 8, !tbaa !55
  %77 = getelementptr inbounds %"class.std::__cxx11::basic_string", ptr %12, i64 0, i32 1
  store i64 %76, ptr %77, align 8, !tbaa !10
  %78 = load ptr, ptr %12, align 8, !tbaa !36
  %79 = getelementptr inbounds i8, ptr %78, i64 %76
  store i8 0, ptr %79, align 1, !tbaa !13
  call void @llvm.lifetime.end.p0(i64 8, ptr nonnull %11) #24
  invoke void @_ZN2PP3Cmd14process_stringENSt7__cxx1112basic_stringIcSt11char_traitsIcESaIcEEERNS1_18basic_stringstreamIcS4_S5_EERi(ptr noundef nonnull align 8 dereferenceable(432) %0, ptr noundef nonnull %12, ptr noundef nonnull align 8 dereferenceable(128) %8, ptr noundef nonnull align 4 dereferenceable(4) %9)
          to label %80 unwind label %89

80:                                               ; preds = %75
  %81 = load ptr, ptr %12, align 8, !tbaa !36
  %82 = icmp eq ptr %81, %61
  br i1 %82, label %84, label %83

83:                                               ; preds = %80
  call void @_ZdlPv(ptr noundef %81) #25
  br label %84

84:                                               ; preds = %80, %83
  ret void

85:                                               ; preds = %10
  %86 = landingpad { ptr, i32 }
          cleanup
  br label %104

87:                                               ; preds = %66, %58, %56, %51, %48, %45, %26
  %88 = landingpad { ptr, i32 }
          cleanup
  br label %94

89:                                               ; preds = %75
  %90 = landingpad { ptr, i32 }
          cleanup
  %91 = load ptr, ptr %12, align 8, !tbaa !36
  %92 = icmp eq ptr %91, %61
  br i1 %92, label %94, label %93

93:                                               ; preds = %89
  call void @_ZdlPv(ptr noundef %91) #25
  br label %94

94:                                               ; preds = %93, %89, %87
  %95 = phi { ptr, i32 } [ %88, %87 ], [ %90, %89 ], [ %90, %93 ]
  call void @_ZNSt13_Bvector_baseISaIbEED2Ev(ptr noundef nonnull align 8 dereferenceable(40) %39) #24
  call void @_ZNSt13_Bvector_baseISaIbEED2Ev(ptr noundef nonnull align 8 dereferenceable(40) %35) #24
  call void @_ZNSt6vectorINSt7__cxx1112basic_stringIcSt11char_traitsIcESaIcEEESaIS5_EED2Ev(ptr noundef nonnull align 8 dereferenceable(24) %34) #24
  call void @_ZNSt6vectorINSt7__cxx1112basic_stringIcSt11char_traitsIcESaIcEEESaIS5_EED2Ev(ptr noundef nonnull align 8 dereferenceable(24) %33) #24
  %96 = load ptr, ptr %30, align 8, !tbaa !36
  %97 = icmp eq ptr %96, %31
  br i1 %97, label %99, label %98

98:                                               ; preds = %94
  call void @_ZdlPv(ptr noundef %96) #25
  br label %99

99:                                               ; preds = %94, %98
  %100 = load ptr, ptr %27, align 8, !tbaa !36
  %101 = icmp eq ptr %100, %28
  br i1 %101, label %103, label %102

102:                                              ; preds = %99
  call void @_ZdlPv(ptr noundef %100) #25
  br label %103

103:                                              ; preds = %99, %102
  call void @_ZNSt5dequeIN2PP4WordESaIS1_EED2Ev(ptr noundef nonnull align 8 dereferenceable(80) %25) #24
  br label %104

104:                                              ; preds = %103, %85
  %105 = phi { ptr, i32 } [ %95, %103 ], [ %86, %85 ]
  %106 = load ptr, ptr %22, align 8, !tbaa !36
  %107 = icmp eq ptr %106, %23
  br i1 %107, label %109, label %108

108:                                              ; preds = %104
  call void @_ZdlPv(ptr noundef %106) #25
  br label %109

109:                                              ; preds = %104, %108
  %110 = load ptr, ptr %19, align 8, !tbaa !36
  %111 = icmp eq ptr %110, %20
  br i1 %111, label %113, label %112

112:                                              ; preds = %109
  call void @_ZdlPv(ptr noundef %110) #25
  br label %113

113:                                              ; preds = %109, %112
  %114 = load ptr, ptr %16, align 8, !tbaa !36
  %115 = icmp eq ptr %114, %17
  br i1 %115, label %117, label %116

116:                                              ; preds = %113
  call void @_ZdlPv(ptr noundef %114) #25
  br label %117

117:                                              ; preds = %113, %116
  %118 = load ptr, ptr %13, align 8, !tbaa !36
  %119 = icmp eq ptr %118, %14
  br i1 %119, label %121, label %120

120:                                              ; preds = %117
  call void @_ZdlPv(ptr noundef %118) #25
  br label %121

121:                                              ; preds = %117, %120
  resume { ptr, i32 } %105
}

; Function Attrs: uwtable
define dso_local void @_ZN2PP3Cmd14process_stringENSt7__cxx1112basic_stringIcSt11char_traitsIcESaIcEEERNS1_18basic_stringstreamIcS4_S5_EERi(ptr noundef nonnull align 8 dereferenceable(432) %0, ptr noundef %1, ptr nocapture noundef nonnull readnone align 8 dereferenceable(128) %2, ptr nocapture noundef nonnull readnone align 4 dereferenceable(4) %3) local_unnamed_addr #3 align 2 personality ptr @__gxx_personality_v0 {
  %5 = alloca i64, align 8
  %6 = alloca i64, align 8
  %7 = alloca %"class.std::__cxx11::basic_string", align 8
  %8 = alloca i32, align 4
  %9 = alloca %"class.PP::Word", align 8
  %10 = alloca %"class.std::__cxx11::basic_string", align 8
  %11 = alloca %"class.std::__cxx11::basic_string", align 8
  call void @llvm.lifetime.start.p0(i64 32, ptr nonnull %7) #24
  %12 = getelementptr inbounds %"class.std::__cxx11::basic_string", ptr %7, i64 0, i32 2
  store ptr %12, ptr %7, align 8, !tbaa !5
  %13 = getelementptr inbounds %"class.std::__cxx11::basic_string", ptr %7, i64 0, i32 1
  store i64 0, ptr %13, align 8, !tbaa !10
  store i8 0, ptr %12, align 8, !tbaa !13
  call void @llvm.lifetime.start.p0(i64 4, ptr nonnull %8) #24
  store i32 0, ptr %8, align 4, !tbaa !56
  %14 = getelementptr inbounds %"class.PP::Cmd", ptr %0, i64 0, i32 8
  %15 = getelementptr inbounds %"class.PP::Cmd", ptr %0, i64 0, i32 8, i32 1
  %16 = getelementptr inbounds %"class.std::__cxx11::basic_string", ptr %10, i64 0, i32 2
  %17 = getelementptr inbounds %"class.std::__cxx11::basic_string", ptr %10, i64 0, i32 1
  %18 = getelementptr inbounds %"class.PP::Cmd", ptr %0, i64 0, i32 1
  %19 = getelementptr inbounds %"class.PP::Cmd", ptr %0, i64 0, i32 2
  %20 = getelementptr inbounds %"class.std::__cxx11::basic_string", ptr %11, i64 0, i32 2
  %21 = getelementptr inbounds %"class.PP::Cmd", ptr %0, i64 0, i32 2, i32 1
  %22 = getelementptr inbounds %"class.std::__cxx11::basic_string", ptr %11, i64 0, i32 1
  %23 = getelementptr inbounds %"class.PP::Cmd", ptr %0, i64 0, i32 3
  %24 = getelementptr inbounds %"class.PP::Cmd", ptr %0, i64 0, i32 9, i32 0, i32 0, i32 0, i32 3
  %25 = getelementptr inbounds %"class.PP::Cmd", ptr %0, i64 0, i32 9, i32 0, i32 0, i32 0, i32 3, i32 2
  %26 = getelementptr inbounds %"class.PP::Cmd", ptr %0, i64 0, i32 9
  br label %27

27:                                               ; preds = %91, %4
  %28 = load i64, ptr %15, align 8, !tbaa !10
  %29 = invoke noundef nonnull align 8 dereferenceable(32) ptr @_ZNSt7__cxx1112basic_stringIcSt11char_traitsIcESaIcEE10_M_replaceEmmPKcm(ptr noundef nonnull align 8 dereferenceable(32) %14, i64 noundef 0, i64 noundef %28, ptr noundef nonnull @.str.2, i64 noundef 14)
          to label %30 unwind label %33

30:                                               ; preds = %27
  %31 = invoke noundef zeroext i1 @_ZN2PP3Cmd17extract_next_wordERiRNSt7__cxx1112basic_stringIcSt11char_traitsIcESaIcEEES8_RNS2_18basic_stringstreamIcS5_S6_EES1_(ptr noundef nonnull align 8 dereferenceable(432) %0, ptr noundef nonnull align 4 dereferenceable(4) %8, ptr noundef nonnull align 8 dereferenceable(32) %1, ptr noundef nonnull align 8 dereferenceable(32) %7, ptr nonnull align 8 poison, ptr nonnull align 4 poison)
          to label %32 unwind label %33

32:                                               ; preds = %30
  br i1 %31, label %37, label %110

33:                                               ; preds = %30, %27
  %34 = landingpad { ptr, i32 }
          cleanup
  br label %116

35:                                               ; preds = %110
  %36 = landingpad { ptr, i32 }
          cleanup
  br label %116

37:                                               ; preds = %32
  call void @llvm.lifetime.start.p0(i64 128, ptr nonnull %9) #24
  store ptr %16, ptr %10, align 8, !tbaa !5
  %38 = load ptr, ptr %7, align 8, !tbaa !36
  %39 = load i64, ptr %13, align 8, !tbaa !10
  call void @llvm.lifetime.start.p0(i64 8, ptr nonnull %6) #24
  store i64 %39, ptr %6, align 8, !tbaa !55
  %40 = icmp ugt i64 %39, 15
  br i1 %40, label %41, label %45

41:                                               ; preds = %37
  %42 = invoke noundef ptr @_ZNSt7__cxx1112basic_stringIcSt11char_traitsIcESaIcEE9_M_createERmm(ptr noundef nonnull align 8 dereferenceable(32) %10, ptr noundef nonnull align 8 dereferenceable(8) %6, i64 noundef 0)
          to label %43 unwind label %92

43:                                               ; preds = %41
  store ptr %42, ptr %10, align 8, !tbaa !36
  %44 = load i64, ptr %6, align 8, !tbaa !55
  store i64 %44, ptr %16, align 8, !tbaa !13
  br label %45

45:                                               ; preds = %43, %37
  %46 = phi ptr [ %42, %43 ], [ %16, %37 ]
  switch i64 %39, label %49 [
    i64 1, label %47
    i64 0, label %50
  ]

47:                                               ; preds = %45
  %48 = load i8, ptr %38, align 1, !tbaa !13
  store i8 %48, ptr %46, align 1, !tbaa !13
  br label %50

49:                                               ; preds = %45
  call void @llvm.memcpy.p0.p0.i64(ptr align 1 %46, ptr align 1 %38, i64 %39, i1 false)
  br label %50

50:                                               ; preds = %49, %47, %45
  %51 = load i64, ptr %6, align 8, !tbaa !55
  store i64 %51, ptr %17, align 8, !tbaa !10
  %52 = load ptr, ptr %10, align 8, !tbaa !36
  %53 = getelementptr inbounds i8, ptr %52, i64 %51
  store i8 0, ptr %53, align 1, !tbaa !13
  call void @llvm.lifetime.end.p0(i64 8, ptr nonnull %6) #24
  %54 = load i32, ptr %0, align 8, !tbaa !21
  %55 = load i32, ptr %18, align 4, !tbaa !35
  store ptr %20, ptr %11, align 8, !tbaa !5
  %56 = load ptr, ptr %19, align 8, !tbaa !36
  %57 = load i64, ptr %21, align 8, !tbaa !10
  call void @llvm.lifetime.start.p0(i64 8, ptr nonnull %5) #24
  store i64 %57, ptr %5, align 8, !tbaa !55
  %58 = icmp ugt i64 %57, 15
  br i1 %58, label %59, label %63

59:                                               ; preds = %50
  %60 = invoke noundef ptr @_ZNSt7__cxx1112basic_stringIcSt11char_traitsIcESaIcEE9_M_createERmm(ptr noundef nonnull align 8 dereferenceable(32) %11, ptr noundef nonnull align 8 dereferenceable(8) %5, i64 noundef 0)
          to label %61 unwind label %94

61:                                               ; preds = %59
  store ptr %60, ptr %11, align 8, !tbaa !36
  %62 = load i64, ptr %5, align 8, !tbaa !55
  store i64 %62, ptr %20, align 8, !tbaa !13
  br label %63

63:                                               ; preds = %61, %50
  %64 = phi ptr [ %60, %61 ], [ %20, %50 ]
  switch i64 %57, label %67 [
    i64 1, label %65
    i64 0, label %68
  ]

65:                                               ; preds = %63
  %66 = load i8, ptr %56, align 1, !tbaa !13
  store i8 %66, ptr %64, align 1, !tbaa !13
  br label %68

67:                                               ; preds = %63
  call void @llvm.memcpy.p0.p0.i64(ptr align 1 %64, ptr align 1 %56, i64 %57, i1 false)
  br label %68

68:                                               ; preds = %67, %65, %63
  %69 = load i64, ptr %5, align 8, !tbaa !55
  store i64 %69, ptr %22, align 8, !tbaa !10
  %70 = load ptr, ptr %11, align 8, !tbaa !36
  %71 = getelementptr inbounds i8, ptr %70, i64 %69
  store i8 0, ptr %71, align 1, !tbaa !13
  call void @llvm.lifetime.end.p0(i64 8, ptr nonnull %5) #24
  %72 = load ptr, ptr %23, align 8, !tbaa !54
  invoke void @_ZN2PP4WordC1ENSt7__cxx1112basic_stringIcSt11char_traitsIcESaIcEEEiiS6_PSt5dequeIS6_SaIS6_EE(ptr noundef nonnull align 8 dereferenceable(128) %9, ptr noundef nonnull %10, i32 noundef %54, i32 noundef %55, ptr noundef nonnull %11, ptr noundef %72)
          to label %73 unwind label %96

73:                                               ; preds = %68
  %74 = load ptr, ptr %11, align 8, !tbaa !36
  %75 = icmp eq ptr %74, %20
  br i1 %75, label %77, label %76

76:                                               ; preds = %73
  call void @_ZdlPv(ptr noundef %74) #25
  br label %77

77:                                               ; preds = %73, %76
  %78 = load ptr, ptr %10, align 8, !tbaa !36
  %79 = icmp eq ptr %78, %16
  br i1 %79, label %81, label %80

80:                                               ; preds = %77
  call void @_ZdlPv(ptr noundef %78) #25
  br label %81

81:                                               ; preds = %77, %80
  %82 = load ptr, ptr %24, align 8, !tbaa !57
  %83 = load ptr, ptr %25, align 8, !tbaa !58
  %84 = getelementptr inbounds %"class.PP::Word", ptr %83, i64 -1
  %85 = icmp eq ptr %82, %84
  br i1 %85, label %90, label %86

86:                                               ; preds = %81
  invoke void @_ZN2PP4WordC1ERKS0_(ptr noundef nonnull align 8 dereferenceable(128) %82, ptr noundef nonnull align 8 dereferenceable(128) %9)
          to label %87 unwind label %106

87:                                               ; preds = %86
  %88 = load ptr, ptr %24, align 8, !tbaa !57
  %89 = getelementptr inbounds %"class.PP::Word", ptr %88, i64 1
  store ptr %89, ptr %24, align 8, !tbaa !57
  br label %91

90:                                               ; preds = %81
  invoke void @_ZNSt5dequeIN2PP4WordESaIS1_EE16_M_push_back_auxIJRKS1_EEEvDpOT_(ptr noundef nonnull align 8 dereferenceable(80) %26, ptr noundef nonnull align 8 dereferenceable(128) %9)
          to label %91 unwind label %106

91:                                               ; preds = %87, %90
  call void @_ZN2PP4WordD1Ev(ptr noundef nonnull align 8 dereferenceable(128) %9) #24
  call void @llvm.lifetime.end.p0(i64 128, ptr nonnull %9) #24
  br label %27, !llvm.loop !59

92:                                               ; preds = %41
  %93 = landingpad { ptr, i32 }
          cleanup
  br label %108

94:                                               ; preds = %59
  %95 = landingpad { ptr, i32 }
          cleanup
  br label %101

96:                                               ; preds = %68
  %97 = landingpad { ptr, i32 }
          cleanup
  %98 = load ptr, ptr %11, align 8, !tbaa !36
  %99 = icmp eq ptr %98, %20
  br i1 %99, label %101, label %100

100:                                              ; preds = %96
  call void @_ZdlPv(ptr noundef %98) #25
  br label %101

101:                                              ; preds = %100, %96, %94
  %102 = phi { ptr, i32 } [ %95, %94 ], [ %97, %96 ], [ %97, %100 ]
  %103 = load ptr, ptr %10, align 8, !tbaa !36
  %104 = icmp eq ptr %103, %16
  br i1 %104, label %108, label %105

105:                                              ; preds = %101
  call void @_ZdlPv(ptr noundef %103) #25
  br label %108

106:                                              ; preds = %90, %86
  %107 = landingpad { ptr, i32 }
          cleanup
  call void @_ZN2PP4WordD1Ev(ptr noundef nonnull align 8 dereferenceable(128) %9) #24
  br label %108

108:                                              ; preds = %105, %101, %106, %92
  %109 = phi { ptr, i32 } [ %107, %106 ], [ %93, %92 ], [ %102, %101 ], [ %102, %105 ]
  call void @llvm.lifetime.end.p0(i64 128, ptr nonnull %9) #24
  br label %116

110:                                              ; preds = %32
  invoke void @_ZN2PP3Cmd15reset_name_typeEv(ptr noundef nonnull align 8 dereferenceable(432) %0)
          to label %111 unwind label %35

111:                                              ; preds = %110
  call void @llvm.lifetime.end.p0(i64 4, ptr nonnull %8) #24
  %112 = load ptr, ptr %7, align 8, !tbaa !36
  %113 = icmp eq ptr %112, %12
  br i1 %113, label %115, label %114

114:                                              ; preds = %111
  call void @_ZdlPv(ptr noundef %112) #25
  br label %115

115:                                              ; preds = %111, %114
  call void @llvm.lifetime.end.p0(i64 32, ptr nonnull %7) #24
  ret void

116:                                              ; preds = %33, %35, %108
  %117 = phi { ptr, i32 } [ %109, %108 ], [ %34, %33 ], [ %36, %35 ]
  call void @llvm.lifetime.end.p0(i64 4, ptr nonnull %8) #24
  %118 = load ptr, ptr %7, align 8, !tbaa !36
  %119 = icmp eq ptr %118, %12
  br i1 %119, label %121, label %120

120:                                              ; preds = %116
  call void @_ZdlPv(ptr noundef %118) #25
  br label %121

121:                                              ; preds = %116, %120
  call void @llvm.lifetime.end.p0(i64 32, ptr nonnull %7) #24
  resume { ptr, i32 } %117
}

; Function Attrs: uwtable
declare void @_ZNSt7__cxx1112basic_stringIcSt11char_traitsIcESaIcEEC2ERKS4_(ptr noundef nonnull align 8 dereferenceable(32), ptr noundef nonnull align 8 dereferenceable(32)) unnamed_addr #3 align 2

; Function Attrs: uwtable
define dso_local void @_ZN2PP3Cmd8add_wordENSt7__cxx1112basic_stringIcSt11char_traitsIcESaIcEEEiiS6_(ptr noundef nonnull align 8 dereferenceable(432) %0, ptr nocapture noundef readonly %1, i32 noundef %2, i32 noundef %3, ptr nocapture noundef readonly %4) local_unnamed_addr #3 align 2 personality ptr @__gxx_personality_v0 {
  %6 = alloca i64, align 8
  %7 = alloca i64, align 8
  %8 = alloca %"class.PP::Word", align 8
  %9 = alloca %"class.std::__cxx11::basic_string", align 8
  %10 = alloca %"class.std::__cxx11::basic_string", align 8
  call void @llvm.lifetime.start.p0(i64 128, ptr nonnull %8) #24
  %11 = getelementptr inbounds %"class.std::__cxx11::basic_string", ptr %9, i64 0, i32 2
  store ptr %11, ptr %9, align 8, !tbaa !5
  %12 = load ptr, ptr %1, align 8, !tbaa !36
  %13 = getelementptr inbounds %"class.std::__cxx11::basic_string", ptr %1, i64 0, i32 1
  %14 = load i64, ptr %13, align 8, !tbaa !10
  call void @llvm.lifetime.start.p0(i64 8, ptr nonnull %7) #24
  store i64 %14, ptr %7, align 8, !tbaa !55
  %15 = icmp ugt i64 %14, 15
  br i1 %15, label %16, label %19

16:                                               ; preds = %5
  %17 = call noundef ptr @_ZNSt7__cxx1112basic_stringIcSt11char_traitsIcESaIcEE9_M_createERmm(ptr noundef nonnull align 8 dereferenceable(32) %9, ptr noundef nonnull align 8 dereferenceable(8) %7, i64 noundef 0)
  store ptr %17, ptr %9, align 8, !tbaa !36
  %18 = load i64, ptr %7, align 8, !tbaa !55
  store i64 %18, ptr %11, align 8, !tbaa !13
  br label %19

19:                                               ; preds = %16, %5
  %20 = phi ptr [ %17, %16 ], [ %11, %5 ]
  switch i64 %14, label %23 [
    i64 1, label %21
    i64 0, label %24
  ]

21:                                               ; preds = %19
  %22 = load i8, ptr %12, align 1, !tbaa !13
  store i8 %22, ptr %20, align 1, !tbaa !13
  br label %24

23:                                               ; preds = %19
  call void @llvm.memcpy.p0.p0.i64(ptr align 1 %20, ptr align 1 %12, i64 %14, i1 false)
  br label %24

24:                                               ; preds = %19, %21, %23
  %25 = load i64, ptr %7, align 8, !tbaa !55
  %26 = getelementptr inbounds %"class.std::__cxx11::basic_string", ptr %9, i64 0, i32 1
  store i64 %25, ptr %26, align 8, !tbaa !10
  %27 = load ptr, ptr %9, align 8, !tbaa !36
  %28 = getelementptr inbounds i8, ptr %27, i64 %25
  store i8 0, ptr %28, align 1, !tbaa !13
  call void @llvm.lifetime.end.p0(i64 8, ptr nonnull %7) #24
  %29 = getelementptr inbounds %"class.std::__cxx11::basic_string", ptr %10, i64 0, i32 2
  store ptr %29, ptr %10, align 8, !tbaa !5
  %30 = load ptr, ptr %4, align 8, !tbaa !36
  %31 = getelementptr inbounds %"class.std::__cxx11::basic_string", ptr %4, i64 0, i32 1
  %32 = load i64, ptr %31, align 8, !tbaa !10
  call void @llvm.lifetime.start.p0(i64 8, ptr nonnull %6) #24
  store i64 %32, ptr %6, align 8, !tbaa !55
  %33 = icmp ugt i64 %32, 15
  br i1 %33, label %34, label %38

34:                                               ; preds = %24
  %35 = invoke noundef ptr @_ZNSt7__cxx1112basic_stringIcSt11char_traitsIcESaIcEE9_M_createERmm(ptr noundef nonnull align 8 dereferenceable(32) %10, ptr noundef nonnull align 8 dereferenceable(8) %6, i64 noundef 0)
          to label %36 unwind label %72

36:                                               ; preds = %34
  store ptr %35, ptr %10, align 8, !tbaa !36
  %37 = load i64, ptr %6, align 8, !tbaa !55
  store i64 %37, ptr %29, align 8, !tbaa !13
  br label %38

38:                                               ; preds = %36, %24
  %39 = phi ptr [ %35, %36 ], [ %29, %24 ]
  switch i64 %32, label %42 [
    i64 1, label %40
    i64 0, label %43
  ]

40:                                               ; preds = %38
  %41 = load i8, ptr %30, align 1, !tbaa !13
  store i8 %41, ptr %39, align 1, !tbaa !13
  br label %43

42:                                               ; preds = %38
  call void @llvm.memcpy.p0.p0.i64(ptr align 1 %39, ptr align 1 %30, i64 %32, i1 false)
  br label %43

43:                                               ; preds = %42, %40, %38
  %44 = load i64, ptr %6, align 8, !tbaa !55
  %45 = getelementptr inbounds %"class.std::__cxx11::basic_string", ptr %10, i64 0, i32 1
  store i64 %44, ptr %45, align 8, !tbaa !10
  %46 = load ptr, ptr %10, align 8, !tbaa !36
  %47 = getelementptr inbounds i8, ptr %46, i64 %44
  store i8 0, ptr %47, align 1, !tbaa !13
  call void @llvm.lifetime.end.p0(i64 8, ptr nonnull %6) #24
  %48 = getelementptr inbounds %"class.PP::Cmd", ptr %0, i64 0, i32 3
  %49 = load ptr, ptr %48, align 8, !tbaa !54
  invoke void @_ZN2PP4WordC1ENSt7__cxx1112basic_stringIcSt11char_traitsIcESaIcEEEiiS6_PSt5dequeIS6_SaIS6_EE(ptr noundef nonnull align 8 dereferenceable(128) %8, ptr noundef nonnull %9, i32 noundef %2, i32 noundef %3, ptr noundef nonnull %10, ptr noundef %49)
          to label %50 unwind label %74

50:                                               ; preds = %43
  %51 = load ptr, ptr %10, align 8, !tbaa !36
  %52 = icmp eq ptr %51, %29
  br i1 %52, label %54, label %53

53:                                               ; preds = %50
  call void @_ZdlPv(ptr noundef %51) #25
  br label %54

54:                                               ; preds = %50, %53
  %55 = load ptr, ptr %9, align 8, !tbaa !36
  %56 = icmp eq ptr %55, %11
  br i1 %56, label %58, label %57

57:                                               ; preds = %54
  call void @_ZdlPv(ptr noundef %55) #25
  br label %58

58:                                               ; preds = %54, %57
  %59 = getelementptr inbounds %"class.PP::Cmd", ptr %0, i64 0, i32 9, i32 0, i32 0, i32 0, i32 3
  %60 = load ptr, ptr %59, align 8, !tbaa !57
  %61 = getelementptr inbounds %"class.PP::Cmd", ptr %0, i64 0, i32 9, i32 0, i32 0, i32 0, i32 3, i32 2
  %62 = load ptr, ptr %61, align 8, !tbaa !58
  %63 = getelementptr inbounds %"class.PP::Word", ptr %62, i64 -1
  %64 = icmp eq ptr %60, %63
  br i1 %64, label %69, label %65

65:                                               ; preds = %58
  invoke void @_ZN2PP4WordC1ERKS0_(ptr noundef nonnull align 8 dereferenceable(128) %60, ptr noundef nonnull align 8 dereferenceable(128) %8)
          to label %66 unwind label %84

66:                                               ; preds = %65
  %67 = load ptr, ptr %59, align 8, !tbaa !57
  %68 = getelementptr inbounds %"class.PP::Word", ptr %67, i64 1
  store ptr %68, ptr %59, align 8, !tbaa !57
  br label %71

69:                                               ; preds = %58
  %70 = getelementptr inbounds %"class.PP::Cmd", ptr %0, i64 0, i32 9
  invoke void @_ZNSt5dequeIN2PP4WordESaIS1_EE16_M_push_back_auxIJRKS1_EEEvDpOT_(ptr noundef nonnull align 8 dereferenceable(80) %70, ptr noundef nonnull align 8 dereferenceable(128) %8)
          to label %71 unwind label %84

71:                                               ; preds = %66, %69
  call void @_ZN2PP4WordD1Ev(ptr noundef nonnull align 8 dereferenceable(128) %8) #24
  call void @llvm.lifetime.end.p0(i64 128, ptr nonnull %8) #24
  ret void

72:                                               ; preds = %34
  %73 = landingpad { ptr, i32 }
          cleanup
  br label %79

74:                                               ; preds = %43
  %75 = landingpad { ptr, i32 }
          cleanup
  %76 = load ptr, ptr %10, align 8, !tbaa !36
  %77 = icmp eq ptr %76, %29
  br i1 %77, label %79, label %78

78:                                               ; preds = %74
  call void @_ZdlPv(ptr noundef %76) #25
  br label %79

79:                                               ; preds = %78, %74, %72
  %80 = phi { ptr, i32 } [ %73, %72 ], [ %75, %74 ], [ %75, %78 ]
  %81 = load ptr, ptr %9, align 8, !tbaa !36
  %82 = icmp eq ptr %81, %11
  br i1 %82, label %86, label %83

83:                                               ; preds = %79
  call void @_ZdlPv(ptr noundef %81) #25
  br label %86

84:                                               ; preds = %69, %65
  %85 = landingpad { ptr, i32 }
          cleanup
  call void @_ZN2PP4WordD1Ev(ptr noundef nonnull align 8 dereferenceable(128) %8) #24
  br label %86

86:                                               ; preds = %83, %79, %84
  %87 = phi { ptr, i32 } [ %85, %84 ], [ %80, %79 ], [ %80, %83 ]
  call void @llvm.lifetime.end.p0(i64 128, ptr nonnull %8) #24
  resume { ptr, i32 } %87
}

; Function Attrs: mustprogress nocallback nofree nosync nounwind willreturn memory(argmem: readwrite)
declare void @llvm.lifetime.start.p0(i64 immarg, ptr nocapture) #6

declare void @_ZN2PP4WordC1ENSt7__cxx1112basic_stringIcSt11char_traitsIcESaIcEEEiiS6_PSt5dequeIS6_SaIS6_EE(ptr noundef nonnull align 8 dereferenceable(128), ptr noundef, i32 noundef, i32 noundef, ptr noundef, ptr noundef) unnamed_addr #0

; Function Attrs: nounwind
declare void @_ZN2PP4WordD1Ev(ptr noundef nonnull align 8 dereferenceable(128)) unnamed_addr #1

; Function Attrs: mustprogress nocallback nofree nosync nounwind willreturn memory(argmem: readwrite)
declare void @llvm.lifetime.end.p0(i64 immarg, ptr nocapture) #6

; Function Attrs: uwtable
define dso_local void @_ZN2PP3Cmd10erase_wordEi(ptr noundef nonnull align 8 dereferenceable(432) %0, i32 noundef %1) local_unnamed_addr #3 align 2 {
  %3 = alloca %"struct.std::_Deque_iterator.16", align 8
  %4 = alloca %"struct.std::_Deque_iterator.16", align 8
  %5 = getelementptr inbounds %"class.PP::Cmd", ptr %0, i64 0, i32 9, i32 0, i32 0, i32 0, i32 2
  %6 = load ptr, ptr %5, align 8, !tbaa !60, !noalias !61
  %7 = getelementptr inbounds %"class.PP::Cmd", ptr %0, i64 0, i32 9, i32 0, i32 0, i32 0, i32 2, i32 1
  %8 = load ptr, ptr %7, align 8, !tbaa !64, !noalias !61
  %9 = getelementptr inbounds %"class.PP::Cmd", ptr %0, i64 0, i32 9, i32 0, i32 0, i32 0, i32 2, i32 3
  %10 = load ptr, ptr %9, align 8, !tbaa !65, !noalias !61
  %11 = sext i32 %1 to i64
  %12 = ptrtoint ptr %6 to i64
  %13 = ptrtoint ptr %8 to i64
  %14 = sub i64 %12, %13
  %15 = ashr exact i64 %14, 7
  %16 = add nsw i64 %15, %11
  %17 = icmp sgt i64 %16, -1
  br i1 %17, label %18, label %25

18:                                               ; preds = %2
  %19 = icmp ult i64 %16, 4
  br i1 %19, label %20, label %23

20:                                               ; preds = %18
  %21 = getelementptr inbounds %"class.PP::Word", ptr %6, i64 %11
  %22 = load ptr, ptr %10, align 8, !tbaa !41, !noalias !66
  br label %35

23:                                               ; preds = %18
  %24 = lshr i64 %16, 2
  br label %28

25:                                               ; preds = %2
  %26 = lshr i64 %16, 2
  %27 = or i64 %26, -4611686018427387904
  br label %28

28:                                               ; preds = %25, %23
  %29 = phi i64 [ %24, %23 ], [ %27, %25 ]
  %30 = getelementptr inbounds ptr, ptr %10, i64 %29
  %31 = load ptr, ptr %30, align 8, !tbaa !41, !noalias !71
  %32 = shl nsw i64 %29, 2
  %33 = sub nsw i64 %16, %32
  %34 = getelementptr inbounds %"class.PP::Word", ptr %31, i64 %33
  br label %35

35:                                               ; preds = %20, %28
  %36 = phi ptr [ %22, %20 ], [ %31, %28 ]
  %37 = phi ptr [ %10, %20 ], [ %30, %28 ]
  %38 = phi ptr [ %21, %20 ], [ %34, %28 ]
  %39 = getelementptr inbounds %"class.PP::Cmd", ptr %0, i64 0, i32 9
  call void @llvm.lifetime.start.p0(i64 32, ptr nonnull %4) #24
  call void @llvm.lifetime.start.p0(i64 32, ptr nonnull %3)
  tail call void @llvm.experimental.noalias.scope.decl(metadata !74)
  store ptr %38, ptr %3, align 8, !tbaa !60, !alias.scope !74, !noalias !75
  %40 = getelementptr inbounds %"struct.std::_Deque_iterator.16", ptr %3, i64 0, i32 1
  store ptr %36, ptr %40, align 8, !tbaa !64, !alias.scope !74, !noalias !75
  %41 = getelementptr inbounds %"struct.std::_Deque_iterator.16", ptr %3, i64 0, i32 2
  %42 = getelementptr inbounds %"class.PP::Word", ptr %36, i64 4
  store ptr %42, ptr %41, align 8, !tbaa !76, !alias.scope !74, !noalias !75
  %43 = getelementptr inbounds %"struct.std::_Deque_iterator.16", ptr %3, i64 0, i32 3
  store ptr %37, ptr %43, align 8, !tbaa !65, !alias.scope !74, !noalias !75
  call void @_ZNSt5dequeIN2PP4WordESaIS1_EE8_M_eraseESt15_Deque_iteratorIS1_RS1_PS1_E(ptr nonnull sret(%"struct.std::_Deque_iterator.16") align 8 %4, ptr noundef nonnull align 8 dereferenceable(80) %39, ptr noundef nonnull %3)
  call void @llvm.lifetime.end.p0(i64 32, ptr nonnull %3)
  call void @llvm.lifetime.end.p0(i64 32, ptr nonnull %4) #24
  ret void
}

; Function Attrs: uwtable
define dso_local void @_ZN2PP3Cmd15erase_last_wordEv(ptr noundef nonnull align 8 dereferenceable(432) %0) local_unnamed_addr #3 align 2 {
  %2 = alloca %"struct.std::_Deque_iterator.16", align 8
  %3 = alloca %"struct.std::_Deque_iterator.16", align 8
  %4 = getelementptr inbounds %"class.PP::Cmd", ptr %0, i64 0, i32 9, i32 0, i32 0, i32 0, i32 2
  %5 = load ptr, ptr %4, align 8, !tbaa !60, !noalias !77
  %6 = getelementptr inbounds %"class.PP::Cmd", ptr %0, i64 0, i32 9, i32 0, i32 0, i32 0, i32 2, i32 1
  %7 = load ptr, ptr %6, align 8, !tbaa !64, !noalias !77
  %8 = getelementptr inbounds %"class.PP::Cmd", ptr %0, i64 0, i32 9, i32 0, i32 0, i32 0, i32 2, i32 2
  %9 = load ptr, ptr %8, align 8, !tbaa !76, !noalias !77
  %10 = getelementptr inbounds %"class.PP::Cmd", ptr %0, i64 0, i32 9, i32 0, i32 0, i32 0, i32 2, i32 3
  %11 = load ptr, ptr %10, align 8, !tbaa !65, !noalias !77
  %12 = getelementptr inbounds %"class.PP::Cmd", ptr %0, i64 0, i32 9, i32 0, i32 0, i32 0, i32 3
  %13 = getelementptr inbounds %"class.PP::Cmd", ptr %0, i64 0, i32 9, i32 0, i32 0, i32 0, i32 3, i32 3
  %14 = load ptr, ptr %13, align 8, !tbaa !65
  %15 = ptrtoint ptr %14 to i64
  %16 = ptrtoint ptr %11 to i64
  %17 = sub i64 %15, %16
  %18 = lshr exact i64 %17, 3
  %19 = icmp ne ptr %14, null
  %20 = sext i1 %19 to i64
  %21 = add nsw i64 %18, %20
  %22 = load ptr, ptr %12, align 8, !tbaa !60
  %23 = getelementptr inbounds %"class.PP::Cmd", ptr %0, i64 0, i32 9, i32 0, i32 0, i32 0, i32 3, i32 1
  %24 = load ptr, ptr %23, align 8, !tbaa !64
  %25 = ptrtoint ptr %22 to i64
  %26 = ptrtoint ptr %24 to i64
  %27 = sub i64 %25, %26
  %28 = lshr exact i64 %27, 7
  %29 = ptrtoint ptr %9 to i64
  %30 = ptrtoint ptr %5 to i64
  %31 = sub i64 %29, %30
  %32 = lshr exact i64 %31, 7
  %33 = add nuw nsw i64 %28, %32
  %34 = shl i64 %21, 34
  %35 = shl i64 %33, 32
  %36 = add i64 %34, %35
  %37 = ashr exact i64 %36, 32
  %38 = ptrtoint ptr %7 to i64
  %39 = sub i64 %30, %38
  %40 = ashr exact i64 %39, 7
  %41 = add nsw i64 %37, %40
  %42 = icmp sgt i64 %41, -1
  br i1 %42, label %43, label %49

43:                                               ; preds = %1
  %44 = icmp ult i64 %41, 4
  br i1 %44, label %45, label %47

45:                                               ; preds = %43
  %46 = getelementptr inbounds %"class.PP::Word", ptr %5, i64 %37
  br label %60

47:                                               ; preds = %43
  %48 = lshr i64 %41, 2
  br label %52

49:                                               ; preds = %1
  %50 = lshr i64 %41, 2
  %51 = or i64 %50, -4611686018427387904
  br label %52

52:                                               ; preds = %49, %47
  %53 = phi i64 [ %48, %47 ], [ %51, %49 ]
  %54 = getelementptr inbounds ptr, ptr %11, i64 %53
  %55 = load ptr, ptr %54, align 8, !tbaa !41, !noalias !80
  %56 = shl nsw i64 %53, 2
  %57 = sub nsw i64 %41, %56
  %58 = getelementptr inbounds %"class.PP::Word", ptr %55, i64 %57
  %59 = ptrtoint ptr %55 to i64
  br label %60

60:                                               ; preds = %45, %52
  %61 = phi i64 [ %38, %45 ], [ %59, %52 ]
  %62 = phi ptr [ %11, %45 ], [ %54, %52 ]
  %63 = phi ptr [ %46, %45 ], [ %58, %52 ]
  %64 = ptrtoint ptr %63 to i64
  %65 = sub i64 %64, %61
  %66 = ashr exact i64 %65, 7
  %67 = add nsw i64 %66, -1
  %68 = icmp sgt i64 %65, 0
  br i1 %68, label %69, label %76

69:                                               ; preds = %60
  %70 = icmp ult i64 %65, 640
  br i1 %70, label %71, label %74

71:                                               ; preds = %69
  %72 = getelementptr inbounds %"class.PP::Word", ptr %63, i64 -1
  %73 = load ptr, ptr %62, align 8, !tbaa !41, !noalias !83
  br label %86

74:                                               ; preds = %69
  %75 = lshr i64 %67, 2
  br label %79

76:                                               ; preds = %60
  %77 = lshr i64 %67, 2
  %78 = or i64 %77, -4611686018427387904
  br label %79

79:                                               ; preds = %76, %74
  %80 = phi i64 [ %75, %74 ], [ %78, %76 ]
  %81 = getelementptr inbounds ptr, ptr %62, i64 %80
  %82 = load ptr, ptr %81, align 8, !tbaa !41, !noalias !88
  %83 = shl nsw i64 %80, 2
  %84 = sub nsw i64 %67, %83
  %85 = getelementptr inbounds %"class.PP::Word", ptr %82, i64 %84
  br label %86

86:                                               ; preds = %71, %79
  %87 = phi ptr [ %73, %71 ], [ %82, %79 ]
  %88 = phi ptr [ %62, %71 ], [ %81, %79 ]
  %89 = phi ptr [ %72, %71 ], [ %85, %79 ]
  %90 = getelementptr inbounds %"class.PP::Cmd", ptr %0, i64 0, i32 9
  call void @llvm.lifetime.start.p0(i64 32, ptr nonnull %3) #24
  call void @llvm.lifetime.start.p0(i64 32, ptr nonnull %2)
  tail call void @llvm.experimental.noalias.scope.decl(metadata !91)
  store ptr %89, ptr %2, align 8, !tbaa !60, !alias.scope !91, !noalias !92
  %91 = getelementptr inbounds %"struct.std::_Deque_iterator.16", ptr %2, i64 0, i32 1
  store ptr %87, ptr %91, align 8, !tbaa !64, !alias.scope !91, !noalias !92
  %92 = getelementptr inbounds %"struct.std::_Deque_iterator.16", ptr %2, i64 0, i32 2
  %93 = getelementptr inbounds %"class.PP::Word", ptr %87, i64 4
  store ptr %93, ptr %92, align 8, !tbaa !76, !alias.scope !91, !noalias !92
  %94 = getelementptr inbounds %"struct.std::_Deque_iterator.16", ptr %2, i64 0, i32 3
  store ptr %88, ptr %94, align 8, !tbaa !65, !alias.scope !91, !noalias !92
  call void @_ZNSt5dequeIN2PP4WordESaIS1_EE8_M_eraseESt15_Deque_iteratorIS1_RS1_PS1_E(ptr nonnull sret(%"struct.std::_Deque_iterator.16") align 8 %3, ptr noundef nonnull align 8 dereferenceable(80) %90, ptr noundef nonnull %2)
  call void @llvm.lifetime.end.p0(i64 32, ptr nonnull %2)
  call void @llvm.lifetime.end.p0(i64 32, ptr nonnull %3) #24
  ret void
}

; Function Attrs: mustprogress nounwind uwtable
define linkonce_odr dso_local noundef i64 @_ZNKSt5dequeIN2PP4WordESaIS1_EE4sizeEv(ptr noundef nonnull align 8 dereferenceable(80) %0) local_unnamed_addr #7 comdat align 2 {
  %2 = getelementptr inbounds %"struct.std::_Deque_base<PP::Word, std::allocator<PP::Word>>::_Deque_impl_data", ptr %0, i64 0, i32 3
  %3 = getelementptr inbounds %"struct.std::_Deque_base<PP::Word, std::allocator<PP::Word>>::_Deque_impl_data", ptr %0, i64 0, i32 2
  %4 = getelementptr inbounds %"struct.std::_Deque_base<PP::Word, std::allocator<PP::Word>>::_Deque_impl_data", ptr %0, i64 0, i32 3, i32 3
  %5 = load ptr, ptr %4, align 8, !tbaa !65
  %6 = getelementptr inbounds %"struct.std::_Deque_base<PP::Word, std::allocator<PP::Word>>::_Deque_impl_data", ptr %0, i64 0, i32 2, i32 3
  %7 = load ptr, ptr %6, align 8, !tbaa !65
  %8 = ptrtoint ptr %5 to i64
  %9 = ptrtoint ptr %7 to i64
  %10 = sub i64 %8, %9
  %11 = ashr exact i64 %10, 3
  %12 = icmp ne ptr %5, null
  %13 = sext i1 %12 to i64
  %14 = add nsw i64 %11, %13
  %15 = shl nsw i64 %14, 2
  %16 = load ptr, ptr %2, align 8, !tbaa !60
  %17 = getelementptr inbounds %"struct.std::_Deque_base<PP::Word, std::allocator<PP::Word>>::_Deque_impl_data", ptr %0, i64 0, i32 3, i32 1
  %18 = load ptr, ptr %17, align 8, !tbaa !64
  %19 = ptrtoint ptr %16 to i64
  %20 = ptrtoint ptr %18 to i64
  %21 = sub i64 %19, %20
  %22 = ashr exact i64 %21, 7
  %23 = add nsw i64 %15, %22
  %24 = getelementptr inbounds %"struct.std::_Deque_base<PP::Word, std::allocator<PP::Word>>::_Deque_impl_data", ptr %0, i64 0, i32 2, i32 2
  %25 = load ptr, ptr %24, align 8, !tbaa !76
  %26 = load ptr, ptr %3, align 8, !tbaa !60
  %27 = ptrtoint ptr %25 to i64
  %28 = ptrtoint ptr %26 to i64
  %29 = sub i64 %27, %28
  %30 = ashr exact i64 %29, 7
  %31 = add nsw i64 %23, %30
  ret i64 %31
}

; Function Attrs: uwtable
define dso_local void @_ZN2PP3Cmd13remove_commasEv(ptr noundef nonnull align 8 dereferenceable(432) %0) local_unnamed_addr #3 align 2 {
  %2 = alloca %"struct.std::_Deque_iterator.16", align 8
  %3 = alloca %"struct.std::_Deque_iterator.16", align 8
  %4 = getelementptr inbounds %"class.PP::Cmd", ptr %0, i64 0, i32 9
  %5 = getelementptr inbounds %"class.PP::Cmd", ptr %0, i64 0, i32 9, i32 0, i32 0, i32 0, i32 3
  %6 = getelementptr inbounds %"class.PP::Cmd", ptr %0, i64 0, i32 9, i32 0, i32 0, i32 0, i32 2
  %7 = getelementptr inbounds %"class.PP::Cmd", ptr %0, i64 0, i32 9, i32 0, i32 0, i32 0, i32 3, i32 3
  %8 = getelementptr inbounds %"class.PP::Cmd", ptr %0, i64 0, i32 9, i32 0, i32 0, i32 0, i32 2, i32 3
  %9 = getelementptr inbounds %"class.PP::Cmd", ptr %0, i64 0, i32 9, i32 0, i32 0, i32 0, i32 3, i32 1
  %10 = getelementptr inbounds %"class.PP::Cmd", ptr %0, i64 0, i32 9, i32 0, i32 0, i32 0, i32 2, i32 2
  %11 = getelementptr inbounds %"class.PP::Cmd", ptr %0, i64 0, i32 9, i32 0, i32 0, i32 0, i32 2, i32 1
  %12 = getelementptr inbounds %"struct.std::_Deque_iterator.16", ptr %2, i64 0, i32 1
  %13 = getelementptr inbounds %"struct.std::_Deque_iterator.16", ptr %2, i64 0, i32 2
  %14 = getelementptr inbounds %"struct.std::_Deque_iterator.16", ptr %2, i64 0, i32 3
  br label %15

15:                                               ; preds = %93, %1
  %16 = phi i32 [ 0, %1 ], [ %95, %93 ]
  %17 = load ptr, ptr %7, align 8, !tbaa !65
  %18 = load ptr, ptr %8, align 8, !tbaa !65
  %19 = ptrtoint ptr %17 to i64
  %20 = ptrtoint ptr %18 to i64
  %21 = sub i64 %19, %20
  %22 = ashr exact i64 %21, 3
  %23 = icmp ne ptr %17, null
  %24 = sext i1 %23 to i64
  %25 = add nsw i64 %22, %24
  %26 = shl nsw i64 %25, 2
  %27 = load ptr, ptr %5, align 8, !tbaa !60
  %28 = load ptr, ptr %9, align 8, !tbaa !64
  %29 = ptrtoint ptr %27 to i64
  %30 = ptrtoint ptr %28 to i64
  %31 = sub i64 %29, %30
  %32 = lshr exact i64 %31, 7
  %33 = add i64 %26, %32
  %34 = load ptr, ptr %10, align 8, !tbaa !76
  %35 = load ptr, ptr %6, align 8, !tbaa !60
  %36 = ptrtoint ptr %34 to i64
  %37 = ptrtoint ptr %35 to i64
  %38 = sub i64 %36, %37
  %39 = lshr exact i64 %38, 7
  %40 = add i64 %33, %39
  %41 = trunc i64 %40 to i32
  %42 = icmp slt i32 %16, %41
  br i1 %42, label %44, label %43

43:                                               ; preds = %15
  ret void

44:                                               ; preds = %15
  %45 = sext i32 %16 to i64
  %46 = load ptr, ptr %11, align 8, !tbaa !64, !noalias !93
  %47 = ptrtoint ptr %46 to i64
  %48 = sub i64 %37, %47
  %49 = ashr exact i64 %48, 7
  %50 = add nsw i64 %49, %45
  %51 = icmp sgt i64 %50, -1
  br i1 %51, label %52, label %62

52:                                               ; preds = %44
  %53 = icmp ult i64 %50, 4
  br i1 %53, label %72, label %54

54:                                               ; preds = %52
  %55 = lshr i64 %50, 2
  %56 = getelementptr inbounds ptr, ptr %18, i64 %55
  %57 = load ptr, ptr %56, align 8, !tbaa !41, !noalias !93
  %58 = and i64 %50, 3
  %59 = getelementptr inbounds %"class.PP::Word", ptr %57, i64 %58, i32 1
  %60 = load i32, ptr %59, align 8, !tbaa !96
  %61 = icmp eq i32 %60, 12
  br i1 %61, label %79, label %93

62:                                               ; preds = %44
  %63 = lshr i64 %50, 2
  %64 = or i64 %63, -4611686018427387904
  %65 = getelementptr inbounds ptr, ptr %18, i64 %64
  %66 = load ptr, ptr %65, align 8, !tbaa !41, !noalias !93
  %67 = shl nsw i64 %64, 2
  %68 = sub nsw i64 %50, %67
  %69 = getelementptr inbounds %"class.PP::Word", ptr %66, i64 %68, i32 1
  %70 = load i32, ptr %69, align 8, !tbaa !96
  %71 = icmp eq i32 %70, 12
  br i1 %71, label %81, label %93

72:                                               ; preds = %52
  %73 = getelementptr inbounds %"class.PP::Word", ptr %35, i64 %45, i32 1
  %74 = load i32, ptr %73, align 8, !tbaa !96
  %75 = icmp eq i32 %74, 12
  br i1 %75, label %76, label %93

76:                                               ; preds = %72
  %77 = getelementptr inbounds %"class.PP::Word", ptr %35, i64 %45
  %78 = load ptr, ptr %18, align 8, !tbaa !41, !noalias !100
  br label %87

79:                                               ; preds = %54
  %80 = and i64 %50, 3
  br label %81

81:                                               ; preds = %62, %79
  %82 = phi i64 [ %80, %79 ], [ %68, %62 ]
  %83 = phi ptr [ %57, %79 ], [ %66, %62 ]
  %84 = phi i64 [ %55, %79 ], [ %64, %62 ]
  %85 = getelementptr inbounds ptr, ptr %18, i64 %84
  %86 = getelementptr inbounds %"class.PP::Word", ptr %83, i64 %82
  br label %87

87:                                               ; preds = %76, %81
  %88 = phi ptr [ %78, %76 ], [ %83, %81 ]
  %89 = phi ptr [ %18, %76 ], [ %85, %81 ]
  %90 = phi ptr [ %77, %76 ], [ %86, %81 ]
  call void @llvm.lifetime.start.p0(i64 32, ptr nonnull %3) #24
  call void @llvm.lifetime.start.p0(i64 32, ptr nonnull %2)
  call void @llvm.experimental.noalias.scope.decl(metadata !105)
  store ptr %90, ptr %2, align 8, !tbaa !60, !alias.scope !105, !noalias !106
  store ptr %88, ptr %12, align 8, !tbaa !64, !alias.scope !105, !noalias !106
  %91 = getelementptr inbounds %"class.PP::Word", ptr %88, i64 4
  store ptr %91, ptr %13, align 8, !tbaa !76, !alias.scope !105, !noalias !106
  store ptr %89, ptr %14, align 8, !tbaa !65, !alias.scope !105, !noalias !106
  call void @_ZNSt5dequeIN2PP4WordESaIS1_EE8_M_eraseESt15_Deque_iteratorIS1_RS1_PS1_E(ptr nonnull sret(%"struct.std::_Deque_iterator.16") align 8 %3, ptr noundef nonnull align 8 dereferenceable(80) %4, ptr noundef nonnull %2)
  call void @llvm.lifetime.end.p0(i64 32, ptr nonnull %2)
  call void @llvm.lifetime.end.p0(i64 32, ptr nonnull %3) #24
  %92 = add nsw i32 %16, -1
  br label %93

93:                                               ; preds = %62, %72, %54, %87
  %94 = phi i32 [ %92, %87 ], [ %16, %54 ], [ %16, %72 ], [ %16, %62 ]
  %95 = add nsw i32 %94, 1
  br label %15, !llvm.loop !107
}

; Function Attrs: nounwind uwtable
define linkonce_odr dso_local noundef nonnull align 8 dereferenceable(128) ptr @_ZNSt5dequeIN2PP4WordESaIS1_EEixEm(ptr noundef nonnull align 8 dereferenceable(80) %0, i64 noundef %1) local_unnamed_addr #5 comdat align 2 {
  %3 = getelementptr inbounds %"struct.std::_Deque_base<PP::Word, std::allocator<PP::Word>>::_Deque_impl_data", ptr %0, i64 0, i32 2
  %4 = load ptr, ptr %3, align 8, !tbaa !60, !noalias !108
  %5 = getelementptr inbounds %"struct.std::_Deque_base<PP::Word, std::allocator<PP::Word>>::_Deque_impl_data", ptr %0, i64 0, i32 2, i32 1
  %6 = load ptr, ptr %5, align 8, !tbaa !64, !noalias !108
  %7 = getelementptr inbounds %"struct.std::_Deque_base<PP::Word, std::allocator<PP::Word>>::_Deque_impl_data", ptr %0, i64 0, i32 2, i32 3
  %8 = load ptr, ptr %7, align 8, !tbaa !65, !noalias !108
  %9 = ptrtoint ptr %4 to i64
  %10 = ptrtoint ptr %6 to i64
  %11 = sub i64 %9, %10
  %12 = ashr exact i64 %11, 7
  %13 = add nsw i64 %12, %1
  %14 = icmp sgt i64 %13, -1
  br i1 %14, label %15, label %21

15:                                               ; preds = %2
  %16 = icmp ult i64 %13, 4
  br i1 %16, label %17, label %19

17:                                               ; preds = %15
  %18 = getelementptr inbounds %"class.PP::Word", ptr %4, i64 %1
  br label %31

19:                                               ; preds = %15
  %20 = lshr i64 %13, 2
  br label %24

21:                                               ; preds = %2
  %22 = lshr i64 %13, 2
  %23 = or i64 %22, -4611686018427387904
  br label %24

24:                                               ; preds = %21, %19
  %25 = phi i64 [ %20, %19 ], [ %23, %21 ]
  %26 = getelementptr inbounds ptr, ptr %8, i64 %25
  %27 = load ptr, ptr %26, align 8, !tbaa !41, !noalias !108
  %28 = shl nsw i64 %25, 2
  %29 = sub nsw i64 %13, %28
  %30 = getelementptr inbounds %"class.PP::Word", ptr %27, i64 %29
  br label %31

31:                                               ; preds = %17, %24
  %32 = phi ptr [ %30, %24 ], [ %18, %17 ]
  ret ptr %32
}

; Function Attrs: mustprogress nofree norecurse nosync nounwind willreturn memory(write, argmem: none, inaccessiblemem: none) uwtable
define dso_local void @_ZN2PP3Cmd14set_index_baseEi(ptr nocapture noundef nonnull readnone align 8 dereferenceable(432) %0, i32 noundef %1) local_unnamed_addr #8 align 2 {
  store i32 %1, ptr @_ZN2PPL10index_baseE, align 4, !tbaa !56
  ret void
}

; Function Attrs: mustprogress nofree norecurse nosync nounwind willreturn memory(write, argmem: none, inaccessiblemem: none) uwtable
define dso_local void @_ZN2PP3Cmd18set_case_sensitiveEb(ptr nocapture noundef nonnull readnone align 8 dereferenceable(432) %0, i1 noundef zeroext %1) local_unnamed_addr #8 align 2 {
  %3 = zext i1 %1 to i8
  store i8 %3, ptr @_ZN2PPL14case_sensitiveE, align 1, !tbaa !111
  ret void
}

; Function Attrs: uwtable
define dso_local noundef zeroext i1 @_ZN2PP3Cmd17extract_next_wordERiRNSt7__cxx1112basic_stringIcSt11char_traitsIcESaIcEEES8_RNS2_18basic_stringstreamIcS5_S6_EES1_(ptr noundef nonnull align 8 dereferenceable(432) %0, ptr nocapture noundef nonnull align 4 dereferenceable(4) %1, ptr noundef nonnull align 8 dereferenceable(32) %2, ptr noundef nonnull align 8 dereferenceable(32) %3, ptr nocapture nonnull readnone align 8 %4, ptr nocapture nonnull readnone align 4 %5) local_unnamed_addr #3 align 2 personality ptr @__gxx_personality_v0 {
  %7 = alloca i64, align 8
  %8 = alloca i64, align 8
  %9 = alloca %"class.std::__cxx11::basic_string", align 8
  %10 = alloca %"class.std::__cxx11::basic_string", align 8
  %11 = load i32, ptr %1, align 4, !tbaa !56
  %12 = icmp slt i32 %11, 0
  br i1 %12, label %222, label %13

13:                                               ; preds = %6
  %14 = getelementptr inbounds %"class.std::__cxx11::basic_string", ptr %2, i64 0, i32 1
  %15 = load i64, ptr %14, align 8, !tbaa !10
  %16 = trunc i64 %15 to i32
  %17 = icmp slt i32 %11, %16
  br i1 %17, label %18, label %222

18:                                               ; preds = %13
  %19 = getelementptr inbounds %"class.PP::Cmd", ptr %0, i64 0, i32 7
  %20 = zext i32 %11 to i64
  %21 = load ptr, ptr %19, align 8, !tbaa !36
  %22 = getelementptr inbounds %"class.PP::Cmd", ptr %0, i64 0, i32 7, i32 1
  %23 = load i64, ptr %22, align 8, !tbaa !10
  %24 = tail call noundef i64 @_ZNKSt7__cxx1112basic_stringIcSt11char_traitsIcESaIcEE17find_first_not_ofEPKcmm(ptr noundef nonnull align 8 dereferenceable(32) %2, ptr noundef %21, i64 noundef %20, i64 noundef %23) #24
  %25 = trunc i64 %24 to i32
  %26 = icmp eq i32 %25, -1
  br i1 %26, label %222, label %27

27:                                               ; preds = %18
  %28 = getelementptr inbounds %"class.PP::Cmd", ptr %0, i64 0, i32 8
  %29 = shl i64 %24, 32
  %30 = ashr exact i64 %29, 32
  %31 = load ptr, ptr %2, align 8, !tbaa !36
  %32 = getelementptr inbounds i8, ptr %31, i64 %30
  %33 = load i8, ptr %32, align 1, !tbaa !13
  %34 = tail call noundef i64 @_ZNKSt7__cxx1112basic_stringIcSt11char_traitsIcESaIcEE4findEcm(ptr noundef nonnull align 8 dereferenceable(32) %28, i8 noundef signext %33, i64 noundef 0) #24
  %35 = icmp eq i64 %34, -1
  br i1 %35, label %44, label %36

36:                                               ; preds = %27
  %37 = load ptr, ptr %2, align 8, !tbaa !36
  %38 = getelementptr inbounds i8, ptr %37, i64 %30
  %39 = load i8, ptr %38, align 1, !tbaa !13
  %40 = getelementptr inbounds %"class.std::__cxx11::basic_string", ptr %3, i64 0, i32 1
  %41 = load i64, ptr %40, align 8, !tbaa !10
  %42 = tail call noundef nonnull align 8 dereferenceable(32) ptr @_ZNSt7__cxx1112basic_stringIcSt11char_traitsIcESaIcEE14_M_replace_auxEmmmc(ptr noundef nonnull align 8 dereferenceable(32) %3, i64 noundef 0, i64 noundef %41, i64 noundef 1, i8 noundef signext %39)
  %43 = add nuw nsw i32 %25, 1
  store i32 %43, ptr %1, align 4, !tbaa !56
  br label %222

44:                                               ; preds = %27
  call void @llvm.lifetime.start.p0(i64 32, ptr nonnull %9) #24
  %45 = getelementptr inbounds %"class.std::__cxx11::basic_string", ptr %9, i64 0, i32 2
  store ptr %45, ptr %9, align 8, !tbaa !5
  %46 = load ptr, ptr %28, align 8, !tbaa !36
  %47 = getelementptr inbounds %"class.PP::Cmd", ptr %0, i64 0, i32 8, i32 1
  %48 = load i64, ptr %47, align 8, !tbaa !10
  call void @llvm.lifetime.start.p0(i64 8, ptr nonnull %8) #24
  store i64 %48, ptr %8, align 8, !tbaa !55
  %49 = icmp ugt i64 %48, 15
  br i1 %49, label %50, label %53

50:                                               ; preds = %44
  %51 = call noundef ptr @_ZNSt7__cxx1112basic_stringIcSt11char_traitsIcESaIcEE9_M_createERmm(ptr noundef nonnull align 8 dereferenceable(32) %9, ptr noundef nonnull align 8 dereferenceable(8) %8, i64 noundef 0)
  store ptr %51, ptr %9, align 8, !tbaa !36
  %52 = load i64, ptr %8, align 8, !tbaa !55
  store i64 %52, ptr %45, align 8, !tbaa !13
  br label %53

53:                                               ; preds = %50, %44
  %54 = phi ptr [ %51, %50 ], [ %45, %44 ]
  switch i64 %48, label %57 [
    i64 1, label %55
    i64 0, label %58
  ]

55:                                               ; preds = %53
  %56 = load i8, ptr %46, align 1, !tbaa !13
  store i8 %56, ptr %54, align 1, !tbaa !13
  br label %58

57:                                               ; preds = %53
  call void @llvm.memcpy.p0.p0.i64(ptr align 1 %54, ptr align 1 %46, i64 %48, i1 false)
  br label %58

58:                                               ; preds = %53, %55, %57
  %59 = load i64, ptr %8, align 8, !tbaa !55
  %60 = getelementptr inbounds %"class.std::__cxx11::basic_string", ptr %9, i64 0, i32 1
  store i64 %59, ptr %60, align 8, !tbaa !10
  %61 = load ptr, ptr %9, align 8, !tbaa !36
  %62 = getelementptr inbounds i8, ptr %61, i64 %59
  store i8 0, ptr %62, align 1, !tbaa !13
  call void @llvm.lifetime.end.p0(i64 8, ptr nonnull %8) #24
  %63 = load ptr, ptr %2, align 8, !tbaa !36
  %64 = getelementptr inbounds i8, ptr %63, i64 %30
  %65 = load i8, ptr %64, align 1, !tbaa !13
  %66 = icmp eq i8 %65, 34
  br i1 %66, label %67, label %76

67:                                               ; preds = %58
  %68 = load i64, ptr %60, align 8, !tbaa !10
  %69 = invoke noundef nonnull align 8 dereferenceable(32) ptr @_ZNSt7__cxx1112basic_stringIcSt11char_traitsIcESaIcEE10_M_replaceEmmPKcm(ptr noundef nonnull align 8 dereferenceable(32) %9, i64 noundef 0, i64 noundef %68, ptr noundef nonnull @.str.3, i64 noundef 1)
          to label %70 unwind label %74

70:                                               ; preds = %67
  %71 = load ptr, ptr %2, align 8, !tbaa !36
  %72 = getelementptr inbounds i8, ptr %71, i64 %30
  %73 = load i8, ptr %72, align 1, !tbaa !13
  br label %76

74:                                               ; preds = %79, %67
  %75 = landingpad { ptr, i32 }
          cleanup
  br label %216

76:                                               ; preds = %70, %58
  %77 = phi i8 [ %73, %70 ], [ %65, %58 ]
  %78 = icmp eq i8 %77, 39
  br i1 %78, label %79, label %82

79:                                               ; preds = %76
  %80 = load i64, ptr %60, align 8, !tbaa !10
  %81 = invoke noundef nonnull align 8 dereferenceable(32) ptr @_ZNSt7__cxx1112basic_stringIcSt11char_traitsIcESaIcEE10_M_replaceEmmPKcm(ptr noundef nonnull align 8 dereferenceable(32) %9, i64 noundef 0, i64 noundef %80, ptr noundef nonnull @.str.4, i64 noundef 1)
          to label %82 unwind label %74

82:                                               ; preds = %79, %76
  %83 = phi i1 [ %66, %76 ], [ true, %79 ]
  %84 = add i64 %29, 4294967296
  %85 = ashr exact i64 %84, 32
  %86 = load ptr, ptr %9, align 8, !tbaa !36
  %87 = load i64, ptr %60, align 8, !tbaa !10
  %88 = call noundef i64 @_ZNKSt7__cxx1112basic_stringIcSt11char_traitsIcESaIcEE13find_first_ofEPKcmm(ptr noundef nonnull align 8 dereferenceable(32) %2, ptr noundef %86, i64 noundef %85, i64 noundef %87) #24
  %89 = trunc i64 %88 to i32
  %90 = icmp eq i32 %89, -1
  br i1 %90, label %102, label %91

91:                                               ; preds = %82
  %92 = shl i64 %24, 32
  %93 = ashr exact i64 %92, 32
  br label %104

94:                                               ; preds = %122, %117
  %95 = add i64 %107, 4294967296
  %96 = ashr exact i64 %95, 32
  %97 = load ptr, ptr %9, align 8, !tbaa !36
  %98 = load i64, ptr %60, align 8, !tbaa !10
  %99 = call noundef i64 @_ZNKSt7__cxx1112basic_stringIcSt11char_traitsIcESaIcEE13find_first_ofEPKcmm(ptr noundef nonnull align 8 dereferenceable(32) %2, ptr noundef %97, i64 noundef %96, i64 noundef %98) #24
  %100 = trunc i64 %99 to i32
  %101 = icmp eq i32 %100, -1
  br i1 %101, label %102, label %104

102:                                              ; preds = %94, %82
  %103 = load i64, ptr %14, align 8, !tbaa !10
  br label %135

104:                                              ; preds = %91, %94
  %105 = phi i32 [ %100, %94 ], [ %89, %91 ]
  %106 = phi i64 [ %99, %94 ], [ %88, %91 ]
  %107 = shl i64 %106, 32
  %108 = ashr exact i64 %107, 32
  %109 = load ptr, ptr %2, align 8, !tbaa !36
  %110 = getelementptr inbounds i8, ptr %109, i64 %108
  %111 = load i8, ptr %110, align 1, !tbaa !13
  switch i8 %111, label %135 [
    i8 43, label %112
    i8 45, label %112
  ]

112:                                              ; preds = %104, %104
  %113 = add i64 %107, -4294967296
  %114 = ashr exact i64 %113, 32
  %115 = getelementptr inbounds i8, ptr %109, i64 %114
  %116 = load i8, ptr %115, align 1, !tbaa !13
  switch i8 %116, label %135 [
    i8 101, label %117
    i8 69, label %117
    i8 100, label %117
    i8 68, label %117
  ]

117:                                              ; preds = %112, %112, %112, %112
  %118 = add nsw i32 %105, -2
  %119 = icmp slt i32 %118, %25
  br i1 %119, label %94, label %120

120:                                              ; preds = %117
  %121 = add i32 %105, -1
  br label %126

122:                                              ; preds = %126
  %123 = add nsw i64 %127, 1
  %124 = trunc i64 %123 to i32
  %125 = icmp eq i32 %121, %124
  br i1 %125, label %94, label %126, !llvm.loop !112

126:                                              ; preds = %120, %122
  %127 = phi i64 [ %93, %120 ], [ %123, %122 ]
  %128 = getelementptr inbounds i8, ptr %109, i64 %127
  %129 = load i8, ptr %128, align 1, !tbaa !13
  %130 = sext i8 %129 to i32
  %131 = add nsw i32 %130, -48
  %132 = icmp ult i32 %131, 10
  %133 = icmp eq i8 %129, 46
  %134 = select i1 %132, i1 true, i1 %133
  br i1 %134, label %122, label %135

135:                                              ; preds = %112, %104, %126, %102
  %136 = phi i64 [ %103, %102 ], [ %106, %126 ], [ %106, %104 ], [ %106, %112 ]
  %137 = trunc i64 %136 to i32
  %138 = load i64, ptr %14, align 8
  %139 = trunc i64 %138 to i32
  %140 = icmp slt i32 %137, %139
  %141 = add nsw i32 %139, -1
  %142 = select i1 %140, i32 %137, i32 %141
  %143 = add nsw i32 %142, 1
  %144 = select i1 %83, i32 %143, i32 %137
  call void @llvm.lifetime.start.p0(i64 32, ptr nonnull %10) #24
  call void @llvm.experimental.noalias.scope.decl(metadata !113)
  %145 = icmp ult i64 %138, %30
  br i1 %145, label %146, label %148

146:                                              ; preds = %135
  invoke void (ptr, ...) @_ZSt24__throw_out_of_range_fmtPKcz(ptr noundef nonnull @.str.222, ptr noundef nonnull @.str.221, i64 noundef %30, i64 noundef %138) #27
          to label %147 unwind label %214

147:                                              ; preds = %146
  unreachable

148:                                              ; preds = %135
  %149 = sub nsw i32 %144, %25
  %150 = sext i32 %149 to i64
  %151 = getelementptr inbounds %"class.std::__cxx11::basic_string", ptr %10, i64 0, i32 2
  store ptr %151, ptr %10, align 8, !tbaa !5, !alias.scope !113
  %152 = load ptr, ptr %2, align 8, !tbaa !36, !noalias !113
  %153 = getelementptr inbounds i8, ptr %152, i64 %30
  %154 = sub i64 %138, %30
  %155 = call i64 @llvm.umin.i64(i64 %154, i64 %150)
  call void @llvm.lifetime.start.p0(i64 8, ptr nonnull %7) #24, !noalias !113
  store i64 %155, ptr %7, align 8, !tbaa !55, !noalias !113
  %156 = icmp ugt i64 %155, 15
  br i1 %156, label %157, label %161

157:                                              ; preds = %148
  %158 = invoke noundef ptr @_ZNSt7__cxx1112basic_stringIcSt11char_traitsIcESaIcEE9_M_createERmm(ptr noundef nonnull align 8 dereferenceable(32) %10, ptr noundef nonnull align 8 dereferenceable(8) %7, i64 noundef 0)
          to label %159 unwind label %214

159:                                              ; preds = %157
  store ptr %158, ptr %10, align 8, !tbaa !36, !alias.scope !113
  %160 = load i64, ptr %7, align 8, !tbaa !55, !noalias !113
  store i64 %160, ptr %151, align 8, !tbaa !13, !alias.scope !113
  br label %161

161:                                              ; preds = %159, %148
  %162 = phi ptr [ %158, %159 ], [ %151, %148 ]
  switch i64 %155, label %165 [
    i64 1, label %163
    i64 0, label %166
  ]

163:                                              ; preds = %161
  %164 = load i8, ptr %153, align 1, !tbaa !13
  store i8 %164, ptr %162, align 1, !tbaa !13
  br label %166

165:                                              ; preds = %161
  call void @llvm.memcpy.p0.p0.i64(ptr align 1 %162, ptr align 1 %153, i64 %155, i1 false)
  br label %166

166:                                              ; preds = %165, %163, %161
  %167 = load i64, ptr %7, align 8, !tbaa !55, !noalias !113
  %168 = getelementptr inbounds %"class.std::__cxx11::basic_string", ptr %10, i64 0, i32 1
  store i64 %167, ptr %168, align 8, !tbaa !10, !alias.scope !113
  %169 = load ptr, ptr %10, align 8, !tbaa !36, !alias.scope !113
  %170 = getelementptr inbounds i8, ptr %169, i64 %167
  store i8 0, ptr %170, align 1, !tbaa !13
  call void @llvm.lifetime.end.p0(i64 8, ptr nonnull %7) #24, !noalias !113
  %171 = getelementptr inbounds %"class.std::__cxx11::basic_string", ptr %3, i64 0, i32 2
  %172 = load ptr, ptr %10, align 8, !tbaa !36
  %173 = icmp eq ptr %172, %151
  br i1 %173, label %174, label %191

174:                                              ; preds = %166
  %175 = icmp eq ptr %10, %3
  br i1 %175, label %204, label %176, !prof !116

176:                                              ; preds = %174
  %177 = load i64, ptr %168, align 8, !tbaa !10
  %178 = icmp eq i64 %177, 0
  br i1 %178, label %185, label %179

179:                                              ; preds = %176
  %180 = load ptr, ptr %3, align 8, !tbaa !36
  %181 = icmp eq i64 %177, 1
  br i1 %181, label %182, label %184

182:                                              ; preds = %179
  %183 = load i8, ptr %151, align 8, !tbaa !13
  store i8 %183, ptr %180, align 1, !tbaa !13
  br label %185

184:                                              ; preds = %179
  call void @llvm.memcpy.p0.p0.i64(ptr align 1 %180, ptr nonnull align 8 %151, i64 %177, i1 false)
  br label %185

185:                                              ; preds = %184, %182, %176
  %186 = load i64, ptr %168, align 8, !tbaa !10
  %187 = getelementptr inbounds %"class.std::__cxx11::basic_string", ptr %3, i64 0, i32 1
  store i64 %186, ptr %187, align 8, !tbaa !10
  %188 = load ptr, ptr %3, align 8, !tbaa !36
  %189 = getelementptr inbounds i8, ptr %188, i64 %186
  store i8 0, ptr %189, align 1, !tbaa !13
  %190 = load ptr, ptr %10, align 8, !tbaa !36
  br label %204

191:                                              ; preds = %166
  %192 = load ptr, ptr %3, align 8, !tbaa !36
  %193 = icmp eq ptr %192, %171
  br i1 %193, label %194, label %197

194:                                              ; preds = %191
  store ptr %172, ptr %3, align 8, !tbaa !36
  %195 = getelementptr inbounds %"class.std::__cxx11::basic_string", ptr %3, i64 0, i32 1
  %196 = load <2 x i64>, ptr %168, align 8, !tbaa !13
  store <2 x i64> %196, ptr %195, align 8, !tbaa !13
  br label %203

197:                                              ; preds = %191
  %198 = load i64, ptr %171, align 8, !tbaa !13
  store ptr %172, ptr %3, align 8, !tbaa !36
  %199 = getelementptr inbounds %"class.std::__cxx11::basic_string", ptr %3, i64 0, i32 1
  %200 = load <2 x i64>, ptr %168, align 8, !tbaa !13
  store <2 x i64> %200, ptr %199, align 8, !tbaa !13
  %201 = icmp eq ptr %192, null
  br i1 %201, label %203, label %202

202:                                              ; preds = %197
  store ptr %192, ptr %10, align 8, !tbaa !36
  store i64 %198, ptr %151, align 8, !tbaa !13
  br label %204

203:                                              ; preds = %197, %194
  store ptr %151, ptr %10, align 8, !tbaa !36
  br label %204

204:                                              ; preds = %174, %185, %202, %203
  %205 = phi ptr [ %192, %202 ], [ %151, %203 ], [ %151, %174 ], [ %190, %185 ]
  store i64 0, ptr %168, align 8, !tbaa !10
  store i8 0, ptr %205, align 1, !tbaa !13
  %206 = load ptr, ptr %10, align 8, !tbaa !36
  %207 = icmp eq ptr %206, %151
  br i1 %207, label %209, label %208

208:                                              ; preds = %204
  call void @_ZdlPv(ptr noundef %206) #25
  br label %209

209:                                              ; preds = %204, %208
  call void @llvm.lifetime.end.p0(i64 32, ptr nonnull %10) #24
  store i32 %144, ptr %1, align 4, !tbaa !56
  %210 = load ptr, ptr %9, align 8, !tbaa !36
  %211 = icmp eq ptr %210, %45
  br i1 %211, label %213, label %212

212:                                              ; preds = %209
  call void @_ZdlPv(ptr noundef %210) #25
  br label %213

213:                                              ; preds = %209, %212
  call void @llvm.lifetime.end.p0(i64 32, ptr nonnull %9) #24
  br label %222

214:                                              ; preds = %157, %146
  %215 = landingpad { ptr, i32 }
          cleanup
  call void @llvm.lifetime.end.p0(i64 32, ptr nonnull %10) #24
  br label %216

216:                                              ; preds = %214, %74
  %217 = phi { ptr, i32 } [ %215, %214 ], [ %75, %74 ]
  %218 = load ptr, ptr %9, align 8, !tbaa !36
  %219 = icmp eq ptr %218, %45
  br i1 %219, label %221, label %220

220:                                              ; preds = %216
  call void @_ZdlPv(ptr noundef %218) #25
  br label %221

221:                                              ; preds = %216, %220
  call void @llvm.lifetime.end.p0(i64 32, ptr nonnull %9) #24
  resume { ptr, i32 } %217

222:                                              ; preds = %36, %213, %18, %13, %6
  %223 = phi i1 [ false, %6 ], [ false, %13 ], [ false, %18 ], [ true, %213 ], [ true, %36 ]
  ret i1 %223
}

; Function Attrs: uwtable
define dso_local void @_ZN2PP3Cmd15reset_name_typeEv(ptr noundef nonnull align 8 dereferenceable(432) %0) local_unnamed_addr #3 align 2 personality ptr @__gxx_personality_v0 {
  %2 = alloca i64, align 8
  %3 = alloca %"class.std::__cxx11::basic_string", align 8
  %4 = getelementptr inbounds %"class.PP::Cmd", ptr %0, i64 0, i32 9, i32 0, i32 0, i32 0, i32 3
  %5 = getelementptr inbounds %"class.PP::Cmd", ptr %0, i64 0, i32 9, i32 0, i32 0, i32 0, i32 2
  %6 = getelementptr inbounds %"class.PP::Cmd", ptr %0, i64 0, i32 9, i32 0, i32 0, i32 0, i32 3, i32 3
  %7 = load ptr, ptr %6, align 8, !tbaa !65
  %8 = getelementptr inbounds %"class.PP::Cmd", ptr %0, i64 0, i32 9, i32 0, i32 0, i32 0, i32 2, i32 3
  %9 = load ptr, ptr %8, align 8, !tbaa !65
  %10 = ptrtoint ptr %7 to i64
  %11 = ptrtoint ptr %9 to i64
  %12 = sub i64 %10, %11
  %13 = ashr exact i64 %12, 3
  %14 = icmp ne ptr %7, null
  %15 = sext i1 %14 to i64
  %16 = add nsw i64 %13, %15
  %17 = shl nsw i64 %16, 2
  %18 = load ptr, ptr %4, align 8, !tbaa !60
  %19 = getelementptr inbounds %"class.PP::Cmd", ptr %0, i64 0, i32 9, i32 0, i32 0, i32 0, i32 3, i32 1
  %20 = load ptr, ptr %19, align 8, !tbaa !64
  %21 = ptrtoint ptr %18 to i64
  %22 = ptrtoint ptr %20 to i64
  %23 = sub i64 %21, %22
  %24 = lshr exact i64 %23, 7
  %25 = add i64 %17, %24
  %26 = getelementptr inbounds %"class.PP::Cmd", ptr %0, i64 0, i32 9, i32 0, i32 0, i32 0, i32 2, i32 2
  %27 = load ptr, ptr %26, align 8, !tbaa !76
  %28 = load ptr, ptr %5, align 8, !tbaa !60
  %29 = ptrtoint ptr %27 to i64
  %30 = ptrtoint ptr %28 to i64
  %31 = sub i64 %29, %30
  %32 = lshr exact i64 %31, 7
  %33 = add i64 %25, %32
  %34 = and i64 %33, 4294967295
  %35 = icmp eq i64 %34, 0
  br i1 %35, label %36, label %45

36:                                               ; preds = %1
  %37 = getelementptr inbounds %"class.PP::Cmd", ptr %0, i64 0, i32 10
  %38 = getelementptr inbounds %"class.PP::Cmd", ptr %0, i64 0, i32 10, i32 1
  %39 = load i64, ptr %38, align 8, !tbaa !10
  %40 = tail call noundef nonnull align 8 dereferenceable(32) ptr @_ZNSt7__cxx1112basic_stringIcSt11char_traitsIcESaIcEE10_M_replaceEmmPKcm(ptr noundef nonnull align 8 dereferenceable(32) %37, i64 noundef 0, i64 noundef %39, ptr noundef nonnull @.str.5, i64 noundef 1)
  %41 = getelementptr inbounds %"class.PP::Cmd", ptr %0, i64 0, i32 11
  %42 = getelementptr inbounds %"class.PP::Cmd", ptr %0, i64 0, i32 11, i32 1
  %43 = load i64, ptr %42, align 8, !tbaa !10
  %44 = tail call noundef nonnull align 8 dereferenceable(32) ptr @_ZNSt7__cxx1112basic_stringIcSt11char_traitsIcESaIcEE10_M_replaceEmmPKcm(ptr noundef nonnull align 8 dereferenceable(32) %41, i64 noundef 0, i64 noundef %43, ptr noundef nonnull @.str.5, i64 noundef 1)
  br label %249

45:                                               ; preds = %1
  call void @llvm.lifetime.start.p0(i64 32, ptr nonnull %3) #24
  %46 = getelementptr inbounds %"class.PP::Cmd", ptr %0, i64 0, i32 9, i32 0, i32 0, i32 0, i32 2, i32 1
  %47 = load ptr, ptr %46, align 8, !tbaa !64, !noalias !117
  %48 = ptrtoint ptr %47 to i64
  %49 = sub i64 %30, %48
  %50 = ashr exact i64 %49, 7
  %51 = icmp sgt i64 %49, -128
  br i1 %51, label %52, label %56

52:                                               ; preds = %45
  %53 = icmp ult i64 %49, 512
  br i1 %53, label %66, label %54

54:                                               ; preds = %52
  %55 = lshr i64 %50, 2
  br label %59

56:                                               ; preds = %45
  %57 = lshr i64 %50, 2
  %58 = or i64 %57, -4611686018427387904
  br label %59

59:                                               ; preds = %56, %54
  %60 = phi i64 [ %55, %54 ], [ %58, %56 ]
  %61 = getelementptr inbounds ptr, ptr %9, i64 %60
  %62 = load ptr, ptr %61, align 8, !tbaa !41, !noalias !117
  %63 = shl nsw i64 %60, 2
  %64 = sub nsw i64 %50, %63
  %65 = getelementptr inbounds %"class.PP::Word", ptr %62, i64 %64
  br label %66

66:                                               ; preds = %52, %59
  %67 = phi ptr [ %65, %59 ], [ %28, %52 ]
  tail call void @llvm.experimental.noalias.scope.decl(metadata !120)
  %68 = getelementptr inbounds %"class.std::__cxx11::basic_string", ptr %3, i64 0, i32 2
  store ptr %68, ptr %3, align 8, !tbaa !5, !alias.scope !120
  %69 = load ptr, ptr %67, align 8, !tbaa !36, !noalias !120
  %70 = getelementptr inbounds %"class.std::__cxx11::basic_string", ptr %67, i64 0, i32 1
  %71 = load i64, ptr %70, align 8, !tbaa !10, !noalias !120
  call void @llvm.lifetime.start.p0(i64 8, ptr nonnull %2) #24, !noalias !120
  store i64 %71, ptr %2, align 8, !tbaa !55, !noalias !120
  %72 = icmp ugt i64 %71, 15
  br i1 %72, label %73, label %76

73:                                               ; preds = %66
  %74 = call noundef ptr @_ZNSt7__cxx1112basic_stringIcSt11char_traitsIcESaIcEE9_M_createERmm(ptr noundef nonnull align 8 dereferenceable(32) %3, ptr noundef nonnull align 8 dereferenceable(8) %2, i64 noundef 0)
  store ptr %74, ptr %3, align 8, !tbaa !36, !alias.scope !120
  %75 = load i64, ptr %2, align 8, !tbaa !55, !noalias !120
  store i64 %75, ptr %68, align 8, !tbaa !13, !alias.scope !120
  br label %76

76:                                               ; preds = %73, %66
  %77 = phi ptr [ %74, %73 ], [ %68, %66 ]
  switch i64 %71, label %80 [
    i64 1, label %78
    i64 0, label %81
  ]

78:                                               ; preds = %76
  %79 = load i8, ptr %69, align 1, !tbaa !13
  store i8 %79, ptr %77, align 1, !tbaa !13
  br label %81

80:                                               ; preds = %76
  call void @llvm.memcpy.p0.p0.i64(ptr align 1 %77, ptr align 1 %69, i64 %71, i1 false)
  br label %81

81:                                               ; preds = %76, %78, %80
  %82 = load i64, ptr %2, align 8, !tbaa !55, !noalias !120
  %83 = getelementptr inbounds %"class.std::__cxx11::basic_string", ptr %3, i64 0, i32 1
  store i64 %82, ptr %83, align 8, !tbaa !10, !alias.scope !120
  %84 = load ptr, ptr %3, align 8, !tbaa !36, !alias.scope !120
  %85 = getelementptr inbounds i8, ptr %84, i64 %82
  store i8 0, ptr %85, align 1, !tbaa !13
  call void @llvm.lifetime.end.p0(i64 8, ptr nonnull %2) #24, !noalias !120
  %86 = getelementptr inbounds %"class.PP::Cmd", ptr %0, i64 0, i32 10
  %87 = getelementptr inbounds %"class.PP::Cmd", ptr %0, i64 0, i32 10, i32 2
  %88 = load ptr, ptr %3, align 8, !tbaa !36
  %89 = icmp eq ptr %88, %68
  br i1 %89, label %90, label %107

90:                                               ; preds = %81
  %91 = icmp eq ptr %3, %86
  br i1 %91, label %120, label %92, !prof !116

92:                                               ; preds = %90
  %93 = load i64, ptr %83, align 8, !tbaa !10
  %94 = icmp eq i64 %93, 0
  br i1 %94, label %101, label %95

95:                                               ; preds = %92
  %96 = load ptr, ptr %86, align 8, !tbaa !36
  %97 = icmp eq i64 %93, 1
  br i1 %97, label %98, label %100

98:                                               ; preds = %95
  %99 = load i8, ptr %68, align 8, !tbaa !13
  store i8 %99, ptr %96, align 1, !tbaa !13
  br label %101

100:                                              ; preds = %95
  call void @llvm.memcpy.p0.p0.i64(ptr align 1 %96, ptr nonnull align 8 %68, i64 %93, i1 false)
  br label %101

101:                                              ; preds = %100, %98, %92
  %102 = load i64, ptr %83, align 8, !tbaa !10
  %103 = getelementptr inbounds %"class.PP::Cmd", ptr %0, i64 0, i32 10, i32 1
  store i64 %102, ptr %103, align 8, !tbaa !10
  %104 = load ptr, ptr %86, align 8, !tbaa !36
  %105 = getelementptr inbounds i8, ptr %104, i64 %102
  store i8 0, ptr %105, align 1, !tbaa !13
  %106 = load ptr, ptr %3, align 8, !tbaa !36
  br label %120

107:                                              ; preds = %81
  %108 = load ptr, ptr %86, align 8, !tbaa !36
  %109 = icmp eq ptr %108, %87
  br i1 %109, label %110, label %113

110:                                              ; preds = %107
  store ptr %88, ptr %86, align 8, !tbaa !36
  %111 = getelementptr inbounds %"class.PP::Cmd", ptr %0, i64 0, i32 10, i32 1
  %112 = load <2 x i64>, ptr %83, align 8, !tbaa !13
  store <2 x i64> %112, ptr %111, align 8, !tbaa !13
  br label %119

113:                                              ; preds = %107
  %114 = load i64, ptr %87, align 8, !tbaa !13
  store ptr %88, ptr %86, align 8, !tbaa !36
  %115 = getelementptr inbounds %"class.PP::Cmd", ptr %0, i64 0, i32 10, i32 1
  %116 = load <2 x i64>, ptr %83, align 8, !tbaa !13
  store <2 x i64> %116, ptr %115, align 8, !tbaa !13
  %117 = icmp eq ptr %108, null
  br i1 %117, label %119, label %118

118:                                              ; preds = %113
  store ptr %108, ptr %3, align 8, !tbaa !36
  store i64 %114, ptr %68, align 8, !tbaa !13
  br label %120

119:                                              ; preds = %113, %110
  store ptr %68, ptr %3, align 8, !tbaa !36
  br label %120

120:                                              ; preds = %90, %101, %118, %119
  %121 = phi ptr [ %108, %118 ], [ %68, %119 ], [ %68, %90 ], [ %106, %101 ]
  store i64 0, ptr %83, align 8, !tbaa !10
  store i8 0, ptr %121, align 1, !tbaa !13
  %122 = load ptr, ptr %3, align 8, !tbaa !36
  %123 = icmp eq ptr %122, %68
  br i1 %123, label %125, label %124

124:                                              ; preds = %120
  call void @_ZdlPv(ptr noundef %122) #25
  br label %125

125:                                              ; preds = %120, %124
  call void @llvm.lifetime.end.p0(i64 32, ptr nonnull %3) #24
  %126 = load i8, ptr @_ZN2PPL14case_sensitiveE, align 1, !tbaa !111, !range !123, !noundef !124
  %127 = icmp eq i8 %126, 0
  br i1 %127, label %128, label %142

128:                                              ; preds = %125
  %129 = load ptr, ptr %86, align 8, !tbaa !36
  %130 = getelementptr inbounds %"class.PP::Cmd", ptr %0, i64 0, i32 10, i32 1
  %131 = load i64, ptr %130, align 8, !tbaa !10
  %132 = getelementptr inbounds i8, ptr %129, i64 %131
  %133 = icmp eq i64 %131, 0
  br i1 %133, label %142, label %134

134:                                              ; preds = %128, %134
  %135 = phi ptr [ %140, %134 ], [ %129, %128 ]
  %136 = load i8, ptr %135, align 1, !tbaa !13
  %137 = sext i8 %136 to i32
  %138 = call noundef i32 @tolower(i32 noundef %137) #24
  %139 = trunc i32 %138 to i8
  store i8 %139, ptr %135, align 1, !tbaa !13
  %140 = getelementptr i8, ptr %135, i64 1
  %141 = icmp eq ptr %140, %132
  br i1 %141, label %142, label %134, !llvm.loop !125

142:                                              ; preds = %134, %128, %125
  %143 = getelementptr inbounds %"class.PP::Cmd", ptr %0, i64 0, i32 11
  %144 = getelementptr inbounds %"class.PP::Cmd", ptr %0, i64 0, i32 11, i32 1
  %145 = load i64, ptr %144, align 8, !tbaa !10
  %146 = call noundef nonnull align 8 dereferenceable(32) ptr @_ZNSt7__cxx1112basic_stringIcSt11char_traitsIcESaIcEE10_M_replaceEmmPKcm(ptr noundef nonnull align 8 dereferenceable(32) %143, i64 noundef 0, i64 noundef %145, ptr noundef nonnull @.str.6, i64 noundef 7)
  %147 = load ptr, ptr %5, align 8, !tbaa !60, !noalias !126
  %148 = load ptr, ptr %46, align 8, !tbaa !64, !noalias !126
  %149 = load ptr, ptr %8, align 8, !tbaa !65, !noalias !126
  %150 = ptrtoint ptr %147 to i64
  %151 = ptrtoint ptr %148 to i64
  %152 = sub i64 %150, %151
  %153 = ashr exact i64 %152, 7
  %154 = icmp sgt i64 %152, -128
  br i1 %154, label %155, label %159

155:                                              ; preds = %142
  %156 = icmp ult i64 %152, 512
  br i1 %156, label %169, label %157

157:                                              ; preds = %155
  %158 = lshr i64 %153, 2
  br label %162

159:                                              ; preds = %142
  %160 = lshr i64 %153, 2
  %161 = or i64 %160, -4611686018427387904
  br label %162

162:                                              ; preds = %159, %157
  %163 = phi i64 [ %158, %157 ], [ %161, %159 ]
  %164 = getelementptr inbounds ptr, ptr %149, i64 %163
  %165 = load ptr, ptr %164, align 8, !tbaa !41, !noalias !126
  %166 = shl nsw i64 %163, 2
  %167 = sub nsw i64 %153, %166
  %168 = getelementptr inbounds %"class.PP::Word", ptr %165, i64 %167
  br label %169

169:                                              ; preds = %155, %162
  %170 = phi ptr [ %168, %162 ], [ %147, %155 ]
  %171 = getelementptr inbounds %"class.PP::Word", ptr %170, i64 0, i32 1
  %172 = load i32, ptr %171, align 8, !tbaa !96
  %173 = icmp eq i32 %172, 13
  br i1 %173, label %174, label %177

174:                                              ; preds = %169
  %175 = load i64, ptr %144, align 8, !tbaa !10
  %176 = call noundef nonnull align 8 dereferenceable(32) ptr @_ZNSt7__cxx1112basic_stringIcSt11char_traitsIcESaIcEE10_M_replaceEmmPKcm(ptr noundef nonnull align 8 dereferenceable(32) %143, i64 noundef 0, i64 noundef %175, ptr noundef nonnull @.str.7, i64 noundef 10)
  br label %177

177:                                              ; preds = %174, %169
  %178 = call noundef i32 @_ZNKSt7__cxx1112basic_stringIcSt11char_traitsIcESaIcEE7compareEPKc(ptr noundef nonnull align 8 dereferenceable(32) %86, ptr noundef nonnull @.str.8) #24
  %179 = icmp eq i32 %178, 0
  br i1 %179, label %180, label %183

180:                                              ; preds = %177
  %181 = load i64, ptr %144, align 8, !tbaa !10
  %182 = call noundef nonnull align 8 dereferenceable(32) ptr @_ZNSt7__cxx1112basic_stringIcSt11char_traitsIcESaIcEE10_M_replaceEmmPKcm(ptr noundef nonnull align 8 dereferenceable(32) %143, i64 noundef 0, i64 noundef %181, ptr noundef nonnull @.str.9, i64 noundef 5)
  br label %183

183:                                              ; preds = %180, %177
  %184 = call noundef i32 @_ZNKSt7__cxx1112basic_stringIcSt11char_traitsIcESaIcEE7compareEPKc(ptr noundef nonnull align 8 dereferenceable(32) %86, ptr noundef nonnull @.str.10) #24
  %185 = icmp eq i32 %184, 0
  br i1 %185, label %186, label %189

186:                                              ; preds = %183
  %187 = load i64, ptr %144, align 8, !tbaa !10
  %188 = call noundef nonnull align 8 dereferenceable(32) ptr @_ZNSt7__cxx1112basic_stringIcSt11char_traitsIcESaIcEE10_M_replaceEmmPKcm(ptr noundef nonnull align 8 dereferenceable(32) %143, i64 noundef 0, i64 noundef %187, ptr noundef nonnull @.str.9, i64 noundef 5)
  br label %189

189:                                              ; preds = %186, %183
  %190 = call noundef i32 @_ZNKSt7__cxx1112basic_stringIcSt11char_traitsIcESaIcEE7compareEPKc(ptr noundef nonnull align 8 dereferenceable(32) %86, ptr noundef nonnull @.str.11) #24
  %191 = icmp eq i32 %190, 0
  br i1 %191, label %192, label %195

192:                                              ; preds = %189
  %193 = load i64, ptr %144, align 8, !tbaa !10
  %194 = call noundef nonnull align 8 dereferenceable(32) ptr @_ZNSt7__cxx1112basic_stringIcSt11char_traitsIcESaIcEE10_M_replaceEmmPKcm(ptr noundef nonnull align 8 dereferenceable(32) %143, i64 noundef 0, i64 noundef %193, ptr noundef nonnull @.str.9, i64 noundef 5)
  br label %195

195:                                              ; preds = %192, %189
  %196 = call noundef i32 @_ZNKSt7__cxx1112basic_stringIcSt11char_traitsIcESaIcEE7compareEPKc(ptr noundef nonnull align 8 dereferenceable(32) %86, ptr noundef nonnull @.str.12) #24
  %197 = icmp eq i32 %196, 0
  br i1 %197, label %198, label %201

198:                                              ; preds = %195
  %199 = load i64, ptr %144, align 8, !tbaa !10
  %200 = call noundef nonnull align 8 dereferenceable(32) ptr @_ZNSt7__cxx1112basic_stringIcSt11char_traitsIcESaIcEE10_M_replaceEmmPKcm(ptr noundef nonnull align 8 dereferenceable(32) %143, i64 noundef 0, i64 noundef %199, ptr noundef nonnull @.str.13, i64 noundef 12)
  br label %201

201:                                              ; preds = %198, %195
  %202 = call noundef i32 @_ZNKSt7__cxx1112basic_stringIcSt11char_traitsIcESaIcEE7compareEPKc(ptr noundef nonnull align 8 dereferenceable(32) %86, ptr noundef nonnull @.str.14) #24
  %203 = icmp eq i32 %202, 0
  br i1 %203, label %204, label %207

204:                                              ; preds = %201
  %205 = load i64, ptr %144, align 8, !tbaa !10
  %206 = call noundef nonnull align 8 dereferenceable(32) ptr @_ZNSt7__cxx1112basic_stringIcSt11char_traitsIcESaIcEE10_M_replaceEmmPKcm(ptr noundef nonnull align 8 dereferenceable(32) %143, i64 noundef 0, i64 noundef %205, ptr noundef nonnull @.str.13, i64 noundef 12)
  br label %207

207:                                              ; preds = %204, %201
  %208 = call noundef i32 @_ZNKSt7__cxx1112basic_stringIcSt11char_traitsIcESaIcEE7compareEPKc(ptr noundef nonnull align 8 dereferenceable(32) %86, ptr noundef nonnull @.str.15) #24
  %209 = icmp eq i32 %208, 0
  br i1 %209, label %210, label %213

210:                                              ; preds = %207
  %211 = load i64, ptr %144, align 8, !tbaa !10
  %212 = call noundef nonnull align 8 dereferenceable(32) ptr @_ZNSt7__cxx1112basic_stringIcSt11char_traitsIcESaIcEE10_M_replaceEmmPKcm(ptr noundef nonnull align 8 dereferenceable(32) %143, i64 noundef 0, i64 noundef %211, ptr noundef nonnull @.str.13, i64 noundef 12)
  br label %213

213:                                              ; preds = %210, %207
  %214 = call noundef i32 @_ZNKSt7__cxx1112basic_stringIcSt11char_traitsIcESaIcEE7compareEPKc(ptr noundef nonnull align 8 dereferenceable(32) %86, ptr noundef nonnull @.str.16) #24
  %215 = icmp eq i32 %214, 0
  br i1 %215, label %216, label %219

216:                                              ; preds = %213
  %217 = load i64, ptr %144, align 8, !tbaa !10
  %218 = call noundef nonnull align 8 dereferenceable(32) ptr @_ZNSt7__cxx1112basic_stringIcSt11char_traitsIcESaIcEE10_M_replaceEmmPKcm(ptr noundef nonnull align 8 dereferenceable(32) %143, i64 noundef 0, i64 noundef %217, ptr noundef nonnull @.str.13, i64 noundef 12)
  br label %219

219:                                              ; preds = %216, %213
  %220 = call noundef i32 @_ZNKSt7__cxx1112basic_stringIcSt11char_traitsIcESaIcEE7compareEPKc(ptr noundef nonnull align 8 dereferenceable(32) %86, ptr noundef nonnull @.str.17) #24
  %221 = icmp eq i32 %220, 0
  br i1 %221, label %222, label %225

222:                                              ; preds = %219
  %223 = load i64, ptr %144, align 8, !tbaa !10
  %224 = call noundef nonnull align 8 dereferenceable(32) ptr @_ZNSt7__cxx1112basic_stringIcSt11char_traitsIcESaIcEE10_M_replaceEmmPKcm(ptr noundef nonnull align 8 dereferenceable(32) %143, i64 noundef 0, i64 noundef %223, ptr noundef nonnull @.str.13, i64 noundef 12)
  br label %225

225:                                              ; preds = %222, %219
  %226 = call noundef i32 @_ZNKSt7__cxx1112basic_stringIcSt11char_traitsIcESaIcEE7compareEPKc(ptr noundef nonnull align 8 dereferenceable(32) %86, ptr noundef nonnull @.str.18) #24
  %227 = icmp eq i32 %226, 0
  br i1 %227, label %228, label %231

228:                                              ; preds = %225
  %229 = load i64, ptr %144, align 8, !tbaa !10
  %230 = call noundef nonnull align 8 dereferenceable(32) ptr @_ZNSt7__cxx1112basic_stringIcSt11char_traitsIcESaIcEE10_M_replaceEmmPKcm(ptr noundef nonnull align 8 dereferenceable(32) %143, i64 noundef 0, i64 noundef %229, ptr noundef nonnull @.str.13, i64 noundef 12)
  br label %231

231:                                              ; preds = %228, %225
  %232 = call noundef i32 @_ZNKSt7__cxx1112basic_stringIcSt11char_traitsIcESaIcEE7compareEPKc(ptr noundef nonnull align 8 dereferenceable(32) %86, ptr noundef nonnull @.str.19) #24
  %233 = icmp eq i32 %232, 0
  br i1 %233, label %234, label %237

234:                                              ; preds = %231
  %235 = load i64, ptr %144, align 8, !tbaa !10
  %236 = call noundef nonnull align 8 dereferenceable(32) ptr @_ZNSt7__cxx1112basic_stringIcSt11char_traitsIcESaIcEE10_M_replaceEmmPKcm(ptr noundef nonnull align 8 dereferenceable(32) %143, i64 noundef 0, i64 noundef %235, ptr noundef nonnull @.str.13, i64 noundef 12)
  br label %237

237:                                              ; preds = %234, %231
  %238 = call noundef i32 @_ZNKSt7__cxx1112basic_stringIcSt11char_traitsIcESaIcEE7compareEPKc(ptr noundef nonnull align 8 dereferenceable(32) %86, ptr noundef nonnull @.str.20) #24
  %239 = icmp eq i32 %238, 0
  br i1 %239, label %240, label %243

240:                                              ; preds = %237
  %241 = load i64, ptr %144, align 8, !tbaa !10
  %242 = call noundef nonnull align 8 dereferenceable(32) ptr @_ZNSt7__cxx1112basic_stringIcSt11char_traitsIcESaIcEE10_M_replaceEmmPKcm(ptr noundef nonnull align 8 dereferenceable(32) %143, i64 noundef 0, i64 noundef %241, ptr noundef nonnull @.str.13, i64 noundef 12)
  br label %243

243:                                              ; preds = %240, %237
  %244 = call noundef i32 @_ZNKSt7__cxx1112basic_stringIcSt11char_traitsIcESaIcEE7compareEPKc(ptr noundef nonnull align 8 dereferenceable(32) %86, ptr noundef nonnull @.str.21) #24
  %245 = icmp eq i32 %244, 0
  br i1 %245, label %246, label %249

246:                                              ; preds = %243
  %247 = load i64, ptr %144, align 8, !tbaa !10
  %248 = call noundef nonnull align 8 dereferenceable(32) ptr @_ZNSt7__cxx1112basic_stringIcSt11char_traitsIcESaIcEE10_M_replaceEmmPKcm(ptr noundef nonnull align 8 dereferenceable(32) %143, i64 noundef 0, i64 noundef %247, ptr noundef nonnull @.str.13, i64 noundef 12)
  br label %249

249:                                              ; preds = %36, %246, %243
  ret void
}

; Function Attrs: nounwind
declare noundef i64 @_ZNKSt7__cxx1112basic_stringIcSt11char_traitsIcESaIcEE4findEcm(ptr noundef nonnull align 8 dereferenceable(32), i8 noundef signext, i64 noundef) local_unnamed_addr #1

; Function Attrs: uwtable
define linkonce_odr dso_local void @_ZN2PP4Word10get_stringB5cxx11Ev(ptr noalias sret(%"class.std::__cxx11::basic_string") align 8 %0, ptr noundef nonnull align 8 dereferenceable(128) %1) local_unnamed_addr #3 comdat align 2 personality ptr @__gxx_personality_v0 {
  %3 = alloca i64, align 8
  %4 = getelementptr inbounds %"class.std::__cxx11::basic_string", ptr %0, i64 0, i32 2
  store ptr %4, ptr %0, align 8, !tbaa !5
  %5 = load ptr, ptr %1, align 8, !tbaa !36
  %6 = getelementptr inbounds %"class.std::__cxx11::basic_string", ptr %1, i64 0, i32 1
  %7 = load i64, ptr %6, align 8, !tbaa !10
  call void @llvm.lifetime.start.p0(i64 8, ptr nonnull %3) #24
  store i64 %7, ptr %3, align 8, !tbaa !55
  %8 = icmp ugt i64 %7, 15
  br i1 %8, label %9, label %12

9:                                                ; preds = %2
  %10 = call noundef ptr @_ZNSt7__cxx1112basic_stringIcSt11char_traitsIcESaIcEE9_M_createERmm(ptr noundef nonnull align 8 dereferenceable(32) %0, ptr noundef nonnull align 8 dereferenceable(8) %3, i64 noundef 0)
  store ptr %10, ptr %0, align 8, !tbaa !36
  %11 = load i64, ptr %3, align 8, !tbaa !55
  store i64 %11, ptr %4, align 8, !tbaa !13
  br label %12

12:                                               ; preds = %9, %2
  %13 = phi ptr [ %10, %9 ], [ %4, %2 ]
  switch i64 %7, label %16 [
    i64 1, label %14
    i64 0, label %17
  ]

14:                                               ; preds = %12
  %15 = load i8, ptr %5, align 1, !tbaa !13
  store i8 %15, ptr %13, align 1, !tbaa !13
  br label %17

16:                                               ; preds = %12
  call void @llvm.memcpy.p0.p0.i64(ptr align 1 %13, ptr align 1 %5, i64 %7, i1 false)
  br label %17

17:                                               ; preds = %12, %14, %16
  %18 = load i64, ptr %3, align 8, !tbaa !55
  %19 = getelementptr inbounds %"class.std::__cxx11::basic_string", ptr %0, i64 0, i32 1
  store i64 %18, ptr %19, align 8, !tbaa !10
  %20 = load ptr, ptr %0, align 8, !tbaa !36
  %21 = getelementptr inbounds i8, ptr %20, i64 %18
  store i8 0, ptr %21, align 1, !tbaa !13
  call void @llvm.lifetime.end.p0(i64 8, ptr nonnull %3) #24
  ret void
}

; Function Attrs: mustprogress nofree nounwind willreturn memory(read)
declare i32 @tolower(i32 noundef) local_unnamed_addr #9

; Function Attrs: uwtable
define dso_local void @_ZN2PP3Cmd16get_cmd_filenameERNSt7__cxx1118basic_stringstreamIcSt11char_traitsIcESaIcEEE(ptr noalias sret(%"class.std::__cxx11::basic_string") align 8 %0, ptr nocapture noundef nonnull readonly align 8 dereferenceable(432) %1, ptr noundef nonnull align 8 dereferenceable(128) %2) local_unnamed_addr #3 align 2 personality ptr @__gxx_personality_v0 {
  %4 = alloca i64, align 8
  %5 = alloca %"class.std::basic_ifstream", align 8
  %6 = getelementptr inbounds %"class.PP::Cmd", ptr %1, i64 0, i32 9, i32 0, i32 0, i32 0, i32 3
  %7 = getelementptr inbounds %"class.PP::Cmd", ptr %1, i64 0, i32 9, i32 0, i32 0, i32 0, i32 2
  %8 = getelementptr inbounds %"class.PP::Cmd", ptr %1, i64 0, i32 9, i32 0, i32 0, i32 0, i32 3, i32 3
  %9 = getelementptr inbounds %"class.PP::Cmd", ptr %1, i64 0, i32 9, i32 0, i32 0, i32 0, i32 2, i32 3
  %10 = getelementptr inbounds %"class.PP::Cmd", ptr %1, i64 0, i32 9, i32 0, i32 0, i32 0, i32 3, i32 1
  %11 = getelementptr inbounds %"class.PP::Cmd", ptr %1, i64 0, i32 9, i32 0, i32 0, i32 0, i32 2, i32 2
  %12 = getelementptr inbounds %"class.PP::Cmd", ptr %1, i64 0, i32 9, i32 0, i32 0, i32 0, i32 2, i32 1
  %13 = getelementptr inbounds %"class.std::__cxx11::basic_string", ptr %0, i64 0, i32 2
  %14 = getelementptr inbounds %"class.std::__cxx11::basic_string", ptr %0, i64 0, i32 1
  %15 = getelementptr inbounds i8, ptr %2, i64 16
  %16 = getelementptr inbounds %"class.std::basic_ifstream", ptr %5, i64 0, i32 1
  br label %17

17:                                               ; preds = %186, %3
  %18 = phi i64 [ %187, %186 ], [ 1, %3 ]
  %19 = load ptr, ptr %8, align 8, !tbaa !65
  %20 = load ptr, ptr %9, align 8, !tbaa !65
  %21 = ptrtoint ptr %19 to i64
  %22 = ptrtoint ptr %20 to i64
  %23 = sub i64 %21, %22
  %24 = ashr exact i64 %23, 3
  %25 = icmp ne ptr %19, null
  %26 = sext i1 %25 to i64
  %27 = add nsw i64 %24, %26
  %28 = shl nsw i64 %27, 2
  %29 = load ptr, ptr %6, align 8, !tbaa !60
  %30 = load ptr, ptr %10, align 8, !tbaa !64
  %31 = ptrtoint ptr %29 to i64
  %32 = ptrtoint ptr %30 to i64
  %33 = sub i64 %31, %32
  %34 = lshr exact i64 %33, 7
  %35 = add i64 %28, %34
  %36 = load ptr, ptr %11, align 8, !tbaa !76
  %37 = load ptr, ptr %7, align 8, !tbaa !60
  %38 = ptrtoint ptr %36 to i64
  %39 = ptrtoint ptr %37 to i64
  %40 = sub i64 %38, %39
  %41 = lshr exact i64 %40, 7
  %42 = add i64 %35, %41
  %43 = shl i64 %42, 32
  %44 = ashr exact i64 %43, 32
  %45 = icmp slt i64 %18, %44
  br i1 %45, label %46, label %188

46:                                               ; preds = %17
  %47 = load ptr, ptr %12, align 8, !tbaa !64, !noalias !129
  %48 = ptrtoint ptr %47 to i64
  %49 = sub i64 %39, %48
  %50 = ashr exact i64 %49, 7
  %51 = add nsw i64 %50, %18
  %52 = icmp sgt i64 %51, -1
  br i1 %52, label %53, label %59

53:                                               ; preds = %46
  %54 = icmp ult i64 %51, 4
  br i1 %54, label %55, label %57

55:                                               ; preds = %53
  %56 = getelementptr inbounds %"class.PP::Word", ptr %37, i64 %18
  br label %69

57:                                               ; preds = %53
  %58 = lshr i64 %51, 2
  br label %62

59:                                               ; preds = %46
  %60 = lshr i64 %51, 2
  %61 = or i64 %60, -4611686018427387904
  br label %62

62:                                               ; preds = %59, %57
  %63 = phi i64 [ %58, %57 ], [ %61, %59 ]
  %64 = getelementptr inbounds ptr, ptr %20, i64 %63
  %65 = load ptr, ptr %64, align 8, !tbaa !41, !noalias !129
  %66 = shl nsw i64 %63, 2
  %67 = sub nsw i64 %51, %66
  %68 = getelementptr inbounds %"class.PP::Word", ptr %65, i64 %67
  br label %69

69:                                               ; preds = %55, %62
  %70 = phi ptr [ %68, %62 ], [ %56, %55 ]
  call void @llvm.experimental.noalias.scope.decl(metadata !132)
  store ptr %13, ptr %0, align 8, !tbaa !5, !alias.scope !132
  %71 = load ptr, ptr %70, align 8, !tbaa !36, !noalias !132
  %72 = getelementptr inbounds %"class.std::__cxx11::basic_string", ptr %70, i64 0, i32 1
  %73 = load i64, ptr %72, align 8, !tbaa !10, !noalias !132
  call void @llvm.lifetime.start.p0(i64 8, ptr nonnull %4) #24, !noalias !132
  store i64 %73, ptr %4, align 8, !tbaa !55, !noalias !132
  %74 = icmp ugt i64 %73, 15
  br i1 %74, label %75, label %78

75:                                               ; preds = %69
  %76 = call noundef ptr @_ZNSt7__cxx1112basic_stringIcSt11char_traitsIcESaIcEE9_M_createERmm(ptr noundef nonnull align 8 dereferenceable(32) %0, ptr noundef nonnull align 8 dereferenceable(8) %4, i64 noundef 0)
  store ptr %76, ptr %0, align 8, !tbaa !36, !alias.scope !132
  %77 = load i64, ptr %4, align 8, !tbaa !55, !noalias !132
  store i64 %77, ptr %13, align 8, !tbaa !13, !alias.scope !132
  br label %78

78:                                               ; preds = %75, %69
  %79 = phi ptr [ %76, %75 ], [ %13, %69 ]
  switch i64 %73, label %82 [
    i64 1, label %80
    i64 0, label %83
  ]

80:                                               ; preds = %78
  %81 = load i8, ptr %71, align 1, !tbaa !13
  store i8 %81, ptr %79, align 1, !tbaa !13
  br label %83

82:                                               ; preds = %78
  call void @llvm.memcpy.p0.p0.i64(ptr align 1 %79, ptr align 1 %71, i64 %73, i1 false)
  br label %83

83:                                               ; preds = %78, %80, %82
  %84 = load i64, ptr %4, align 8, !tbaa !55, !noalias !132
  store i64 %84, ptr %14, align 8, !tbaa !10, !alias.scope !132
  %85 = load ptr, ptr %0, align 8, !tbaa !36, !alias.scope !132
  %86 = getelementptr inbounds i8, ptr %85, i64 %84
  store i8 0, ptr %86, align 1, !tbaa !13
  call void @llvm.lifetime.end.p0(i64 8, ptr nonnull %4) #24, !noalias !132
  %87 = load i64, ptr %14, align 8, !tbaa !10
  %88 = shl i64 %87, 32
  %89 = add i64 %88, -4294967296
  %90 = ashr exact i64 %89, 32
  %91 = load ptr, ptr %0, align 8, !tbaa !36
  %92 = getelementptr inbounds i8, ptr %91, i64 %90
  %93 = load i8, ptr %92, align 1, !tbaa !13
  switch i8 %93, label %108 [
    i8 34, label %94
    i8 39, label %94
  ]

94:                                               ; preds = %83, %83
  %95 = getelementptr i8, ptr %91, i64 -1
  %96 = getelementptr i8, ptr %95, i64 %87
  %97 = ptrtoint ptr %96 to i64
  %98 = ptrtoint ptr %91 to i64
  %99 = sub i64 %97, %98
  invoke void @_ZNSt7__cxx1112basic_stringIcSt11char_traitsIcESaIcEE8_M_eraseEmm(ptr noundef nonnull align 8 dereferenceable(32) %0, i64 noundef %99, i64 noundef 1)
          to label %100 unwind label %106

100:                                              ; preds = %94
  %101 = load ptr, ptr %0, align 8, !tbaa !36
  br label %108

102:                                              ; preds = %114, %116, %137, %138, %143, %146
  %103 = landingpad { ptr, i32 }
          cleanup
  br label %177

104:                                              ; preds = %128
  %105 = landingpad { ptr, i32 }
          cleanup
  br label %177

106:                                              ; preds = %94
  %107 = landingpad { ptr, i32 }
          cleanup
  br label %177

108:                                              ; preds = %100, %83
  %109 = phi ptr [ %101, %100 ], [ %91, %83 ]
  %110 = load i8, ptr %109, align 1, !tbaa !13
  switch i8 %110, label %114 [
    i8 34, label %111
    i8 39, label %111
  ]

111:                                              ; preds = %108, %108
  invoke void @_ZNSt7__cxx1112basic_stringIcSt11char_traitsIcESaIcEE8_M_eraseEmm(ptr noundef nonnull align 8 dereferenceable(32) %0, i64 noundef 0, i64 noundef 1)
          to label %114 unwind label %112

112:                                              ; preds = %111
  %113 = landingpad { ptr, i32 }
          cleanup
  br label %177

114:                                              ; preds = %111, %108
  %115 = invoke noundef nonnull align 8 dereferenceable(8) ptr @_ZSt16__ostream_insertIcSt11char_traitsIcEERSt13basic_ostreamIT_T0_ES6_PKS3_l(ptr noundef nonnull align 8 dereferenceable(8) %15, ptr noundef nonnull @.str.22, i64 noundef 4)
          to label %116 unwind label %102

116:                                              ; preds = %114
  %117 = load ptr, ptr %0, align 8, !tbaa !36
  %118 = load i64, ptr %14, align 8, !tbaa !10
  %119 = invoke noundef nonnull align 8 dereferenceable(8) ptr @_ZSt16__ostream_insertIcSt11char_traitsIcEERSt13basic_ostreamIT_T0_ES6_PKS3_l(ptr noundef nonnull align 8 dereferenceable(8) %15, ptr noundef %117, i64 noundef %118)
          to label %120 unwind label %102

120:                                              ; preds = %116
  %121 = load ptr, ptr %119, align 8, !tbaa !135
  %122 = getelementptr i8, ptr %121, i64 -24
  %123 = load i64, ptr %122, align 8
  %124 = getelementptr inbounds i8, ptr %119, i64 %123
  %125 = getelementptr inbounds %"class.std::basic_ios", ptr %124, i64 0, i32 5
  %126 = load ptr, ptr %125, align 8, !tbaa !137
  %127 = icmp eq ptr %126, null
  br i1 %127, label %128, label %130

128:                                              ; preds = %120
  invoke void @_ZSt16__throw_bad_castv() #27
          to label %129 unwind label %104

129:                                              ; preds = %128
  unreachable

130:                                              ; preds = %120
  %131 = getelementptr inbounds %"class.std::ctype", ptr %126, i64 0, i32 8
  %132 = load i8, ptr %131, align 8, !tbaa !144
  %133 = icmp eq i8 %132, 0
  br i1 %133, label %137, label %134

134:                                              ; preds = %130
  %135 = getelementptr inbounds %"class.std::ctype", ptr %126, i64 0, i32 9, i64 10
  %136 = load i8, ptr %135, align 1, !tbaa !13
  br label %143

137:                                              ; preds = %130
  invoke void @_ZNKSt5ctypeIcE13_M_widen_initEv(ptr noundef nonnull align 8 dereferenceable(570) %126)
          to label %138 unwind label %102

138:                                              ; preds = %137
  %139 = load ptr, ptr %126, align 8, !tbaa !135
  %140 = getelementptr inbounds ptr, ptr %139, i64 6
  %141 = load ptr, ptr %140, align 8
  %142 = invoke noundef signext i8 %141(ptr noundef nonnull align 8 dereferenceable(570) %126, i8 noundef signext 10)
          to label %143 unwind label %102

143:                                              ; preds = %138, %134
  %144 = phi i8 [ %136, %134 ], [ %142, %138 ]
  %145 = invoke noundef nonnull align 8 dereferenceable(8) ptr @_ZNSo3putEc(ptr noundef nonnull align 8 dereferenceable(8) %119, i8 noundef signext %144)
          to label %146 unwind label %102

146:                                              ; preds = %143
  %147 = invoke noundef nonnull align 8 dereferenceable(8) ptr @_ZNSo5flushEv(ptr noundef nonnull align 8 dereferenceable(8) %145)
          to label %148 unwind label %102

148:                                              ; preds = %146
  call void @llvm.lifetime.start.p0(i64 520, ptr nonnull %5) #24
  %149 = load ptr, ptr %0, align 8, !tbaa !36
  invoke void @_ZNSt14basic_ifstreamIcSt11char_traitsIcEEC1EPKcSt13_Ios_Openmode(ptr noundef nonnull align 8 dereferenceable(256) %5, ptr noundef %149, i32 noundef 8)
          to label %150 unwind label %171

150:                                              ; preds = %148
  %151 = invoke noundef ptr @_ZNSt13basic_filebufIcSt11char_traitsIcEE5closeEv(ptr noundef nonnull align 8 dereferenceable(240) %16)
          to label %152 unwind label %173

152:                                              ; preds = %150
  %153 = icmp eq ptr %151, null
  br i1 %153, label %154, label %162

154:                                              ; preds = %152
  %155 = load ptr, ptr %5, align 8, !tbaa !135
  %156 = getelementptr i8, ptr %155, i64 -24
  %157 = load i64, ptr %156, align 8
  %158 = getelementptr inbounds i8, ptr %5, i64 %157
  %159 = getelementptr inbounds %"class.std::ios_base", ptr %158, i64 0, i32 5
  %160 = load i32, ptr %159, align 8, !tbaa !147
  %161 = or i32 %160, 4
  invoke void @_ZNSt9basic_iosIcSt11char_traitsIcEE5clearESt12_Ios_Iostate(ptr noundef nonnull align 8 dereferenceable(264) %158, i32 noundef %161)
          to label %162 unwind label %173

162:                                              ; preds = %154, %152
  %163 = load ptr, ptr %5, align 8, !tbaa !135
  %164 = getelementptr i8, ptr %163, i64 -24
  %165 = load i64, ptr %164, align 8
  %166 = getelementptr inbounds i8, ptr %5, i64 %165
  %167 = getelementptr inbounds %"class.std::ios_base", ptr %166, i64 0, i32 5
  %168 = load i32, ptr %167, align 8, !tbaa !147
  %169 = and i32 %168, 5
  %170 = icmp eq i32 %169, 0
  call void @_ZNSt14basic_ifstreamIcSt11char_traitsIcEED1Ev(ptr noundef nonnull align 8 dereferenceable(256) %5) #24
  call void @llvm.lifetime.end.p0(i64 520, ptr nonnull %5) #24
  br i1 %170, label %189, label %182

171:                                              ; preds = %148
  %172 = landingpad { ptr, i32 }
          cleanup
  br label %175

173:                                              ; preds = %154, %150
  %174 = landingpad { ptr, i32 }
          cleanup
  call void @_ZNSt14basic_ifstreamIcSt11char_traitsIcEED1Ev(ptr noundef nonnull align 8 dereferenceable(256) %5) #24
  br label %175

175:                                              ; preds = %173, %171
  %176 = phi { ptr, i32 } [ %174, %173 ], [ %172, %171 ]
  call void @llvm.lifetime.end.p0(i64 520, ptr nonnull %5) #24
  br label %177

177:                                              ; preds = %102, %104, %175, %112, %106
  %178 = phi { ptr, i32 } [ %176, %175 ], [ %113, %112 ], [ %107, %106 ], [ %103, %102 ], [ %105, %104 ]
  %179 = load ptr, ptr %0, align 8, !tbaa !36
  %180 = icmp eq ptr %179, %13
  br i1 %180, label %190, label %181

181:                                              ; preds = %177
  call void @_ZdlPv(ptr noundef %179) #25
  br label %190

182:                                              ; preds = %162
  %183 = load ptr, ptr %0, align 8, !tbaa !36
  %184 = icmp eq ptr %183, %13
  br i1 %184, label %186, label %185

185:                                              ; preds = %182
  call void @_ZdlPv(ptr noundef %183) #25
  br label %186

186:                                              ; preds = %182, %185
  %187 = add nuw nsw i64 %18, 1
  br label %17, !llvm.loop !148

188:                                              ; preds = %17
  store ptr %13, ptr %0, align 8, !tbaa !5
  store i64 0, ptr %14, align 8, !tbaa !10
  store i8 0, ptr %13, align 8, !tbaa !13
  br label %189

189:                                              ; preds = %162, %188
  ret void

190:                                              ; preds = %181, %177
  resume { ptr, i32 } %178
}

; Function Attrs: inlinehint mustprogress uwtable
declare noundef nonnull align 8 dereferenceable(8) ptr @_ZSt4endlIcSt11char_traitsIcEERSt13basic_ostreamIT_T0_ES6_(ptr noundef nonnull align 8 dereferenceable(8)) local_unnamed_addr #10

; Function Attrs: uwtable
declare void @_ZNSt14basic_ifstreamIcSt11char_traitsIcEEC1EPKcSt13_Ios_Openmode(ptr noundef nonnull align 8 dereferenceable(256), ptr noundef, i32 noundef) unnamed_addr #3 align 2

; Function Attrs: nounwind uwtable
declare void @_ZNSt14basic_ifstreamIcSt11char_traitsIcEED1Ev(ptr noundef nonnull align 8 dereferenceable(256)) unnamed_addr #5 align 2

; Function Attrs: uwtable
define dso_local void @_ZN2PP3Cmd22handle_cmd_unary_minusERNSt7__cxx1118basic_stringstreamIcSt11char_traitsIcESaIcEEERi(ptr noundef nonnull align 8 dereferenceable(432) %0, ptr noundef nonnull align 8 dereferenceable(128) %1, ptr noundef nonnull align 4 dereferenceable(4) %2) local_unnamed_addr #3 align 2 personality ptr @__gxx_personality_v0 {
  %4 = alloca i64, align 8
  %5 = alloca %"class.std::__cxx11::basic_string", align 8
  %6 = alloca %"class.std::__cxx11::basic_string", align 8
  %7 = alloca %"class.std::__cxx11::basic_string", align 8
  %8 = getelementptr inbounds %"class.PP::Cmd", ptr %0, i64 0, i32 9, i32 0, i32 0, i32 0, i32 3
  %9 = getelementptr inbounds %"class.PP::Cmd", ptr %0, i64 0, i32 9, i32 0, i32 0, i32 0, i32 2
  %10 = getelementptr inbounds %"class.PP::Cmd", ptr %0, i64 0, i32 9, i32 0, i32 0, i32 0, i32 3, i32 3
  %11 = getelementptr inbounds %"class.PP::Cmd", ptr %0, i64 0, i32 9, i32 0, i32 0, i32 0, i32 2, i32 3
  %12 = getelementptr inbounds %"class.PP::Cmd", ptr %0, i64 0, i32 9, i32 0, i32 0, i32 0, i32 3, i32 1
  %13 = getelementptr inbounds %"class.PP::Cmd", ptr %0, i64 0, i32 9, i32 0, i32 0, i32 0, i32 2, i32 2
  %14 = getelementptr inbounds %"class.std::__cxx11::basic_string", ptr %5, i64 0, i32 2
  %15 = getelementptr inbounds %"class.std::__cxx11::basic_string", ptr %5, i64 0, i32 1
  %16 = getelementptr inbounds %"class.PP::Cmd", ptr %0, i64 0, i32 9, i32 0, i32 0, i32 0, i32 2, i32 1
  %17 = getelementptr inbounds %"class.std::__cxx11::basic_string", ptr %7, i64 0, i32 2
  %18 = getelementptr inbounds %"class.std::__cxx11::basic_string", ptr %7, i64 0, i32 1
  %19 = getelementptr inbounds i8, ptr %5, i64 17
  %20 = getelementptr inbounds i8, ptr %7, i64 17
  br label %21

21:                                               ; preds = %233, %3
  %22 = phi i32 [ 0, %3 ], [ %62, %233 ]
  %23 = load ptr, ptr %10, align 8, !tbaa !65
  %24 = load ptr, ptr %11, align 8, !tbaa !65
  %25 = ptrtoint ptr %23 to i64
  %26 = ptrtoint ptr %24 to i64
  %27 = sub i64 %25, %26
  %28 = ashr exact i64 %27, 3
  %29 = icmp ne ptr %23, null
  %30 = sext i1 %29 to i64
  %31 = add nsw i64 %28, %30
  %32 = shl nsw i64 %31, 2
  %33 = load ptr, ptr %8, align 8, !tbaa !60
  %34 = load ptr, ptr %12, align 8, !tbaa !64
  %35 = ptrtoint ptr %33 to i64
  %36 = ptrtoint ptr %34 to i64
  %37 = sub i64 %35, %36
  %38 = lshr exact i64 %37, 7
  %39 = add i64 %32, %38
  %40 = load ptr, ptr %13, align 8, !tbaa !76
  %41 = load ptr, ptr %9, align 8, !tbaa !60
  %42 = ptrtoint ptr %40 to i64
  %43 = ptrtoint ptr %41 to i64
  %44 = sub i64 %42, %43
  %45 = lshr exact i64 %44, 7
  %46 = add i64 %39, %45
  store ptr %14, ptr %5, align 8, !tbaa !5
  store i8 45, ptr %14, align 8, !tbaa !13
  store i64 1, ptr %15, align 8, !tbaa !10
  store i8 0, ptr %19, align 1, !tbaa !13
  %47 = trunc i64 %46 to i32
  %48 = add nsw i32 %47, -1
  %49 = invoke noundef i32 @_ZN2PP3Cmd4findEiiNSt7__cxx1112basic_stringIcSt11char_traitsIcESaIcEEE(ptr noundef nonnull align 8 dereferenceable(432) %0, i32 noundef %22, i32 noundef %48, ptr noundef nonnull %5)
          to label %50 unwind label %56

50:                                               ; preds = %21
  %51 = load ptr, ptr %5, align 8, !tbaa !36
  %52 = icmp eq ptr %51, %14
  br i1 %52, label %54, label %53

53:                                               ; preds = %50
  call void @_ZdlPv(ptr noundef %51) #25
  br label %54

54:                                               ; preds = %50, %53
  %55 = icmp eq i32 %49, -1
  br i1 %55, label %241, label %61

56:                                               ; preds = %21
  %57 = landingpad { ptr, i32 }
          cleanup
  %58 = load ptr, ptr %5, align 8, !tbaa !36
  %59 = icmp eq ptr %58, %14
  br i1 %59, label %239, label %60

60:                                               ; preds = %56
  call void @_ZdlPv(ptr noundef %58) #25
  br label %239

61:                                               ; preds = %54
  %62 = add nuw nsw i32 %49, 1
  %63 = sext i32 %62 to i64
  %64 = load ptr, ptr %9, align 8, !tbaa !60, !noalias !149
  %65 = load ptr, ptr %16, align 8, !tbaa !64, !noalias !149
  %66 = load ptr, ptr %11, align 8, !tbaa !65, !noalias !149
  %67 = ptrtoint ptr %64 to i64
  %68 = ptrtoint ptr %65 to i64
  %69 = sub i64 %67, %68
  %70 = ashr exact i64 %69, 7
  %71 = add nsw i64 %70, %63
  %72 = icmp sgt i64 %71, -1
  br i1 %72, label %73, label %77

73:                                               ; preds = %61
  %74 = icmp ult i64 %71, 4
  br i1 %74, label %90, label %75

75:                                               ; preds = %73
  %76 = lshr i64 %71, 2
  br label %80

77:                                               ; preds = %61
  %78 = lshr i64 %71, 2
  %79 = or i64 %78, -4611686018427387904
  br label %80

80:                                               ; preds = %75, %77
  %81 = phi i64 [ %76, %75 ], [ %79, %77 ]
  %82 = getelementptr inbounds ptr, ptr %66, i64 %81
  %83 = load ptr, ptr %82, align 8, !tbaa !41, !noalias !149
  %84 = shl nsw i64 %81, 2
  %85 = sub nsw i64 %71, %84
  %86 = getelementptr inbounds %"class.PP::Word", ptr %83, i64 %85, i32 1
  %87 = load i32, ptr %86, align 8, !tbaa !96
  %88 = and i32 %87, -2
  %89 = icmp eq i32 %88, 2
  br i1 %89, label %228, label %95

90:                                               ; preds = %73
  %91 = getelementptr inbounds %"class.PP::Word", ptr %64, i64 %63, i32 1
  %92 = load i32, ptr %91, align 8, !tbaa !96
  %93 = and i32 %92, -2
  %94 = icmp eq i32 %93, 2
  br i1 %94, label %228, label %98

95:                                               ; preds = %80
  br i1 %72, label %96, label %102

96:                                               ; preds = %95
  %97 = icmp ult i64 %71, 4
  br i1 %97, label %98, label %100

98:                                               ; preds = %90, %96
  %99 = getelementptr inbounds %"class.PP::Word", ptr %64, i64 %63
  br label %112

100:                                              ; preds = %96
  %101 = lshr i64 %71, 2
  br label %105

102:                                              ; preds = %95
  %103 = lshr i64 %71, 2
  %104 = or i64 %103, -4611686018427387904
  br label %105

105:                                              ; preds = %102, %100
  %106 = phi i64 [ %101, %100 ], [ %104, %102 ]
  %107 = getelementptr inbounds ptr, ptr %66, i64 %106
  %108 = load ptr, ptr %107, align 8, !tbaa !41, !noalias !152
  %109 = shl nsw i64 %106, 2
  %110 = sub nsw i64 %71, %109
  %111 = getelementptr inbounds %"class.PP::Word", ptr %108, i64 %110
  br label %112

112:                                              ; preds = %98, %105
  %113 = phi ptr [ %111, %105 ], [ %99, %98 ]
  call void @_ZN2PP4Word11fatal_errorERNSt7__cxx1118basic_stringstreamIcSt11char_traitsIcESaIcEEERi(ptr noundef nonnull align 8 dereferenceable(128) %113, ptr noundef nonnull align 8 dereferenceable(128) %1, ptr noundef nonnull align 4 dereferenceable(4) %2)
  %114 = getelementptr inbounds i8, ptr %1, i64 16
  %115 = call noundef nonnull align 8 dereferenceable(8) ptr @_ZSt16__ostream_insertIcSt11char_traitsIcEERSt13basic_ostreamIT_T0_ES6_PKS3_l(ptr noundef nonnull align 8 dereferenceable(8) %114, ptr noundef nonnull @.str.24, i64 noundef 57)
  %116 = load ptr, ptr %114, align 8, !tbaa !135
  %117 = getelementptr i8, ptr %116, i64 -24
  %118 = load i64, ptr %117, align 8
  %119 = getelementptr inbounds i8, ptr %114, i64 %118
  %120 = getelementptr inbounds %"class.std::basic_ios", ptr %119, i64 0, i32 5
  %121 = load ptr, ptr %120, align 8, !tbaa !137
  %122 = icmp eq ptr %121, null
  br i1 %122, label %123, label %124

123:                                              ; preds = %112
  call void @_ZSt16__throw_bad_castv() #27
  unreachable

124:                                              ; preds = %112
  %125 = getelementptr inbounds %"class.std::ctype", ptr %121, i64 0, i32 8
  %126 = load i8, ptr %125, align 8, !tbaa !144
  %127 = icmp eq i8 %126, 0
  br i1 %127, label %131, label %128

128:                                              ; preds = %124
  %129 = getelementptr inbounds %"class.std::ctype", ptr %121, i64 0, i32 9, i64 10
  %130 = load i8, ptr %129, align 1, !tbaa !13
  br label %136

131:                                              ; preds = %124
  call void @_ZNKSt5ctypeIcE13_M_widen_initEv(ptr noundef nonnull align 8 dereferenceable(570) %121)
  %132 = load ptr, ptr %121, align 8, !tbaa !135
  %133 = getelementptr inbounds ptr, ptr %132, i64 6
  %134 = load ptr, ptr %133, align 8
  %135 = call noundef signext i8 %134(ptr noundef nonnull align 8 dereferenceable(570) %121, i8 noundef signext 10)
  br label %136

136:                                              ; preds = %128, %131
  %137 = phi i8 [ %130, %128 ], [ %135, %131 ]
  %138 = call noundef nonnull align 8 dereferenceable(8) ptr @_ZNSo3putEc(ptr noundef nonnull align 8 dereferenceable(8) %114, i8 noundef signext %137)
  %139 = call noundef nonnull align 8 dereferenceable(8) ptr @_ZNSo5flushEv(ptr noundef nonnull align 8 dereferenceable(8) %138)
  %140 = call noundef nonnull align 8 dereferenceable(8) ptr @_ZSt16__ostream_insertIcSt11char_traitsIcEERSt13basic_ostreamIT_T0_ES6_PKS3_l(ptr noundef nonnull align 8 dereferenceable(8) %114, ptr noundef nonnull @.str.25, i64 noundef 16)
  call void @llvm.lifetime.start.p0(i64 32, ptr nonnull %6) #24
  %141 = load ptr, ptr %9, align 8, !tbaa !60, !noalias !155
  %142 = load ptr, ptr %16, align 8, !tbaa !64, !noalias !155
  %143 = load ptr, ptr %11, align 8, !tbaa !65, !noalias !155
  %144 = ptrtoint ptr %141 to i64
  %145 = ptrtoint ptr %142 to i64
  %146 = sub i64 %144, %145
  %147 = ashr exact i64 %146, 7
  %148 = add nsw i64 %147, %63
  %149 = icmp sgt i64 %148, -1
  br i1 %149, label %150, label %156

150:                                              ; preds = %136
  %151 = icmp ult i64 %148, 4
  br i1 %151, label %152, label %154

152:                                              ; preds = %150
  %153 = getelementptr inbounds %"class.PP::Word", ptr %141, i64 %63
  br label %166

154:                                              ; preds = %150
  %155 = lshr i64 %148, 2
  br label %159

156:                                              ; preds = %136
  %157 = lshr i64 %148, 2
  %158 = or i64 %157, -4611686018427387904
  br label %159

159:                                              ; preds = %156, %154
  %160 = phi i64 [ %155, %154 ], [ %158, %156 ]
  %161 = getelementptr inbounds ptr, ptr %143, i64 %160
  %162 = load ptr, ptr %161, align 8, !tbaa !41, !noalias !155
  %163 = shl nsw i64 %160, 2
  %164 = sub nsw i64 %148, %163
  %165 = getelementptr inbounds %"class.PP::Word", ptr %162, i64 %164
  br label %166

166:                                              ; preds = %152, %159
  %167 = phi ptr [ %165, %159 ], [ %153, %152 ]
  call void @llvm.experimental.noalias.scope.decl(metadata !158)
  %168 = getelementptr inbounds %"class.std::__cxx11::basic_string", ptr %6, i64 0, i32 2
  store ptr %168, ptr %6, align 8, !tbaa !5, !alias.scope !158
  %169 = load ptr, ptr %167, align 8, !tbaa !36, !noalias !158
  %170 = getelementptr inbounds %"class.std::__cxx11::basic_string", ptr %167, i64 0, i32 1
  %171 = load i64, ptr %170, align 8, !tbaa !10, !noalias !158
  call void @llvm.lifetime.start.p0(i64 8, ptr nonnull %4) #24, !noalias !158
  store i64 %171, ptr %4, align 8, !tbaa !55, !noalias !158
  %172 = icmp ugt i64 %171, 15
  br i1 %172, label %173, label %176

173:                                              ; preds = %166
  %174 = call noundef ptr @_ZNSt7__cxx1112basic_stringIcSt11char_traitsIcESaIcEE9_M_createERmm(ptr noundef nonnull align 8 dereferenceable(32) %6, ptr noundef nonnull align 8 dereferenceable(8) %4, i64 noundef 0)
  store ptr %174, ptr %6, align 8, !tbaa !36, !alias.scope !158
  %175 = load i64, ptr %4, align 8, !tbaa !55, !noalias !158
  store i64 %175, ptr %168, align 8, !tbaa !13, !alias.scope !158
  br label %176

176:                                              ; preds = %173, %166
  %177 = phi ptr [ %174, %173 ], [ %168, %166 ]
  switch i64 %171, label %180 [
    i64 1, label %178
    i64 0, label %181
  ]

178:                                              ; preds = %176
  %179 = load i8, ptr %169, align 1, !tbaa !13
  store i8 %179, ptr %177, align 1, !tbaa !13
  br label %181

180:                                              ; preds = %176
  call void @llvm.memcpy.p0.p0.i64(ptr align 1 %177, ptr align 1 %169, i64 %171, i1 false)
  br label %181

181:                                              ; preds = %176, %178, %180
  %182 = load i64, ptr %4, align 8, !tbaa !55, !noalias !158
  %183 = getelementptr inbounds %"class.std::__cxx11::basic_string", ptr %6, i64 0, i32 1
  store i64 %182, ptr %183, align 8, !tbaa !10, !alias.scope !158
  %184 = load ptr, ptr %6, align 8, !tbaa !36, !alias.scope !158
  %185 = getelementptr inbounds i8, ptr %184, i64 %182
  store i8 0, ptr %185, align 1, !tbaa !13
  call void @llvm.lifetime.end.p0(i64 8, ptr nonnull %4) #24, !noalias !158
  %186 = load ptr, ptr %6, align 8, !tbaa !36
  %187 = load i64, ptr %183, align 8, !tbaa !10
  %188 = invoke noundef nonnull align 8 dereferenceable(8) ptr @_ZSt16__ostream_insertIcSt11char_traitsIcEERSt13basic_ostreamIT_T0_ES6_PKS3_l(ptr noundef nonnull align 8 dereferenceable(8) %114, ptr noundef %186, i64 noundef %187)
          to label %189 unwind label %222

189:                                              ; preds = %181
  %190 = load ptr, ptr %188, align 8, !tbaa !135
  %191 = getelementptr i8, ptr %190, i64 -24
  %192 = load i64, ptr %191, align 8
  %193 = getelementptr inbounds i8, ptr %188, i64 %192
  %194 = getelementptr inbounds %"class.std::basic_ios", ptr %193, i64 0, i32 5
  %195 = load ptr, ptr %194, align 8, !tbaa !137
  %196 = icmp eq ptr %195, null
  br i1 %196, label %197, label %199

197:                                              ; preds = %189
  invoke void @_ZSt16__throw_bad_castv() #27
          to label %198 unwind label %222

198:                                              ; preds = %197
  unreachable

199:                                              ; preds = %189
  %200 = getelementptr inbounds %"class.std::ctype", ptr %195, i64 0, i32 8
  %201 = load i8, ptr %200, align 8, !tbaa !144
  %202 = icmp eq i8 %201, 0
  br i1 %202, label %206, label %203

203:                                              ; preds = %199
  %204 = getelementptr inbounds %"class.std::ctype", ptr %195, i64 0, i32 9, i64 10
  %205 = load i8, ptr %204, align 1, !tbaa !13
  br label %212

206:                                              ; preds = %199
  invoke void @_ZNKSt5ctypeIcE13_M_widen_initEv(ptr noundef nonnull align 8 dereferenceable(570) %195)
          to label %207 unwind label %222

207:                                              ; preds = %206
  %208 = load ptr, ptr %195, align 8, !tbaa !135
  %209 = getelementptr inbounds ptr, ptr %208, i64 6
  %210 = load ptr, ptr %209, align 8
  %211 = invoke noundef signext i8 %210(ptr noundef nonnull align 8 dereferenceable(570) %195, i8 noundef signext 10)
          to label %212 unwind label %222

212:                                              ; preds = %207, %203
  %213 = phi i8 [ %205, %203 ], [ %211, %207 ]
  %214 = invoke noundef nonnull align 8 dereferenceable(8) ptr @_ZNSo3putEc(ptr noundef nonnull align 8 dereferenceable(8) %188, i8 noundef signext %213)
          to label %215 unwind label %222

215:                                              ; preds = %212
  %216 = invoke noundef nonnull align 8 dereferenceable(8) ptr @_ZNSo5flushEv(ptr noundef nonnull align 8 dereferenceable(8) %214)
          to label %217 unwind label %222

217:                                              ; preds = %215
  %218 = load ptr, ptr %6, align 8, !tbaa !36
  %219 = icmp eq ptr %218, %168
  br i1 %219, label %221, label %220

220:                                              ; preds = %217
  call void @_ZdlPv(ptr noundef %218) #25
  br label %221

221:                                              ; preds = %217, %220
  call void @llvm.lifetime.end.p0(i64 32, ptr nonnull %6) #24
  store i32 2, ptr %2, align 4, !tbaa !56
  br label %241

222:                                              ; preds = %215, %212, %207, %206, %197, %181
  %223 = landingpad { ptr, i32 }
          cleanup
  %224 = load ptr, ptr %6, align 8, !tbaa !36
  %225 = icmp eq ptr %224, %168
  br i1 %225, label %227, label %226

226:                                              ; preds = %222
  call void @_ZdlPv(ptr noundef %224) #25
  br label %227

227:                                              ; preds = %222, %226
  call void @llvm.lifetime.end.p0(i64 32, ptr nonnull %6) #24
  br label %239

228:                                              ; preds = %90, %80
  store ptr %17, ptr %7, align 8, !tbaa !5
  store i8 45, ptr %17, align 8, !tbaa !13
  store i64 1, ptr %18, align 8, !tbaa !10
  store i8 0, ptr %20, align 1, !tbaa !13
  invoke void @_ZN2PP3Cmd11do_unary_opEiNSt7__cxx1112basic_stringIcSt11char_traitsIcESaIcEEE(ptr noundef nonnull align 8 dereferenceable(432) %0, i32 noundef %49, ptr noundef nonnull %7)
          to label %229 unwind label %234

229:                                              ; preds = %228
  %230 = load ptr, ptr %7, align 8, !tbaa !36
  %231 = icmp eq ptr %230, %17
  br i1 %231, label %233, label %232

232:                                              ; preds = %229
  call void @_ZdlPv(ptr noundef %230) #25
  br label %233

233:                                              ; preds = %232, %229
  br label %21, !llvm.loop !161

234:                                              ; preds = %228
  %235 = landingpad { ptr, i32 }
          cleanup
  %236 = load ptr, ptr %7, align 8, !tbaa !36
  %237 = icmp eq ptr %236, %17
  br i1 %237, label %239, label %238

238:                                              ; preds = %234
  call void @_ZdlPv(ptr noundef %236) #25
  br label %239

239:                                              ; preds = %234, %238, %56, %60, %227
  %240 = phi { ptr, i32 } [ %223, %227 ], [ %57, %56 ], [ %57, %60 ], [ %235, %234 ], [ %235, %238 ]
  resume { ptr, i32 } %240

241:                                              ; preds = %54, %221
  ret void
}

; Function Attrs: uwtable
define dso_local noundef i32 @_ZN2PP3Cmd4findEiiNSt7__cxx1112basic_stringIcSt11char_traitsIcESaIcEEE(ptr nocapture noundef nonnull readonly align 8 dereferenceable(432) %0, i32 noundef %1, i32 noundef %2, ptr nocapture noundef readonly %3) local_unnamed_addr #3 align 2 personality ptr @__gxx_personality_v0 {
  %5 = alloca i64, align 8
  %6 = alloca %"class.std::__cxx11::basic_string", align 8
  %7 = icmp sgt i32 %1, %2
  br i1 %7, label %84, label %8

8:                                                ; preds = %4
  %9 = getelementptr inbounds %"class.PP::Cmd", ptr %0, i64 0, i32 9, i32 0, i32 0, i32 0, i32 2
  %10 = getelementptr inbounds %"class.PP::Cmd", ptr %0, i64 0, i32 9, i32 0, i32 0, i32 0, i32 2, i32 1
  %11 = getelementptr inbounds %"class.PP::Cmd", ptr %0, i64 0, i32 9, i32 0, i32 0, i32 0, i32 2, i32 3
  %12 = getelementptr inbounds %"class.std::__cxx11::basic_string", ptr %6, i64 0, i32 2
  %13 = getelementptr inbounds %"class.std::__cxx11::basic_string", ptr %6, i64 0, i32 1
  %14 = getelementptr inbounds %"class.std::__cxx11::basic_string", ptr %3, i64 0, i32 1
  %15 = sext i32 %1 to i64
  %16 = add i32 %2, 1
  br label %17

17:                                               ; preds = %8, %78
  %18 = phi i64 [ %15, %8 ], [ %79, %78 ]
  call void @llvm.lifetime.start.p0(i64 32, ptr nonnull %6) #24
  %19 = load ptr, ptr %9, align 8, !tbaa !60, !noalias !162
  %20 = load ptr, ptr %10, align 8, !tbaa !64, !noalias !162
  %21 = load ptr, ptr %11, align 8, !tbaa !65, !noalias !162
  %22 = ptrtoint ptr %19 to i64
  %23 = ptrtoint ptr %20 to i64
  %24 = sub i64 %22, %23
  %25 = ashr exact i64 %24, 7
  %26 = add nsw i64 %25, %18
  %27 = icmp sgt i64 %26, -1
  br i1 %27, label %28, label %34

28:                                               ; preds = %17
  %29 = icmp ult i64 %26, 4
  br i1 %29, label %30, label %32

30:                                               ; preds = %28
  %31 = getelementptr inbounds %"class.PP::Word", ptr %19, i64 %18
  br label %44

32:                                               ; preds = %28
  %33 = lshr i64 %26, 2
  br label %37

34:                                               ; preds = %17
  %35 = lshr i64 %26, 2
  %36 = or i64 %35, -4611686018427387904
  br label %37

37:                                               ; preds = %34, %32
  %38 = phi i64 [ %33, %32 ], [ %36, %34 ]
  %39 = getelementptr inbounds ptr, ptr %21, i64 %38
  %40 = load ptr, ptr %39, align 8, !tbaa !41, !noalias !162
  %41 = shl nsw i64 %38, 2
  %42 = sub nsw i64 %26, %41
  %43 = getelementptr inbounds %"class.PP::Word", ptr %40, i64 %42
  br label %44

44:                                               ; preds = %30, %37
  %45 = phi ptr [ %43, %37 ], [ %31, %30 ]
  call void @llvm.experimental.noalias.scope.decl(metadata !165)
  store ptr %12, ptr %6, align 8, !tbaa !5, !alias.scope !165
  %46 = load ptr, ptr %45, align 8, !tbaa !36, !noalias !165
  %47 = getelementptr inbounds %"class.std::__cxx11::basic_string", ptr %45, i64 0, i32 1
  %48 = load i64, ptr %47, align 8, !tbaa !10, !noalias !165
  call void @llvm.lifetime.start.p0(i64 8, ptr nonnull %5) #24, !noalias !165
  store i64 %48, ptr %5, align 8, !tbaa !55, !noalias !165
  %49 = icmp ugt i64 %48, 15
  br i1 %49, label %50, label %53

50:                                               ; preds = %44
  %51 = call noundef ptr @_ZNSt7__cxx1112basic_stringIcSt11char_traitsIcESaIcEE9_M_createERmm(ptr noundef nonnull align 8 dereferenceable(32) %6, ptr noundef nonnull align 8 dereferenceable(8) %5, i64 noundef 0)
  store ptr %51, ptr %6, align 8, !tbaa !36, !alias.scope !165
  %52 = load i64, ptr %5, align 8, !tbaa !55, !noalias !165
  store i64 %52, ptr %12, align 8, !tbaa !13, !alias.scope !165
  br label %53

53:                                               ; preds = %50, %44
  %54 = phi ptr [ %51, %50 ], [ %12, %44 ]
  switch i64 %48, label %57 [
    i64 1, label %55
    i64 0, label %58
  ]

55:                                               ; preds = %53
  %56 = load i8, ptr %46, align 1, !tbaa !13
  store i8 %56, ptr %54, align 1, !tbaa !13
  br label %58

57:                                               ; preds = %53
  call void @llvm.memcpy.p0.p0.i64(ptr align 1 %54, ptr align 1 %46, i64 %48, i1 false)
  br label %58

58:                                               ; preds = %53, %55, %57
  %59 = load i64, ptr %5, align 8, !tbaa !55, !noalias !165
  store i64 %59, ptr %13, align 8, !tbaa !10, !alias.scope !165
  %60 = load ptr, ptr %6, align 8, !tbaa !36, !alias.scope !165
  %61 = getelementptr inbounds i8, ptr %60, i64 %59
  store i8 0, ptr %61, align 1, !tbaa !13
  call void @llvm.lifetime.end.p0(i64 8, ptr nonnull %5) #24, !noalias !165
  %62 = load i64, ptr %13, align 8, !tbaa !10
  %63 = load i64, ptr %14, align 8, !tbaa !10
  %64 = icmp eq i64 %62, %63
  br i1 %64, label %65, label %72

65:                                               ; preds = %58
  %66 = icmp eq i64 %62, 0
  br i1 %66, label %72, label %67

67:                                               ; preds = %65
  %68 = load ptr, ptr %3, align 8, !tbaa !36
  %69 = load ptr, ptr %6, align 8, !tbaa !36
  %70 = call i32 @bcmp(ptr %69, ptr %68, i64 %62)
  %71 = icmp eq i32 %70, 0
  br label %72

72:                                               ; preds = %58, %65, %67
  %73 = phi i1 [ false, %58 ], [ %71, %67 ], [ true, %65 ]
  %74 = load ptr, ptr %6, align 8, !tbaa !36
  %75 = icmp eq ptr %74, %12
  br i1 %75, label %77, label %76

76:                                               ; preds = %72
  call void @_ZdlPv(ptr noundef %74) #25
  br label %77

77:                                               ; preds = %72, %76
  call void @llvm.lifetime.end.p0(i64 32, ptr nonnull %6) #24
  br i1 %73, label %82, label %78

78:                                               ; preds = %77
  %79 = add nsw i64 %18, 1
  %80 = trunc i64 %79 to i32
  %81 = icmp eq i32 %16, %80
  br i1 %81, label %84, label %17, !llvm.loop !168

82:                                               ; preds = %77
  %83 = trunc i64 %18 to i32
  br label %84

84:                                               ; preds = %78, %82, %4
  %85 = phi i32 [ -1, %4 ], [ %83, %82 ], [ -1, %78 ]
  ret i32 %85
}

declare void @_ZN2PP4Word11fatal_errorERNSt7__cxx1118basic_stringstreamIcSt11char_traitsIcESaIcEEERi(ptr noundef nonnull align 8 dereferenceable(128), ptr noundef nonnull align 8 dereferenceable(128), ptr noundef nonnull align 4 dereferenceable(4)) local_unnamed_addr #0

; Function Attrs: uwtable
define dso_local void @_ZN2PP3Cmd11do_unary_opEiNSt7__cxx1112basic_stringIcSt11char_traitsIcESaIcEEE(ptr noundef nonnull align 8 dereferenceable(432) %0, i32 noundef %1, ptr noundef nonnull %2) local_unnamed_addr #3 align 2 personality ptr @__gxx_personality_v0 {
  %4 = alloca %"struct.std::_Deque_iterator.21", align 8
  %5 = alloca %"struct.std::_Deque_iterator.16", align 8
  %6 = alloca %"class.PP::Word", align 8
  %7 = tail call noundef i32 @_ZNKSt7__cxx1112basic_stringIcSt11char_traitsIcESaIcEE7compareEPKc(ptr noundef nonnull align 8 dereferenceable(32) %2, ptr noundef nonnull @.str.26) #24
  %8 = icmp eq i32 %7, 0
  br i1 %8, label %9, label %10

9:                                                ; preds = %3
  tail call void @_ZN2PP3Cmd12delete_wordsEii(ptr noundef nonnull align 8 dereferenceable(432) %0, i32 noundef %1, i32 noundef %1)
  br label %113

10:                                               ; preds = %3
  %11 = tail call noundef i32 @_ZNKSt7__cxx1112basic_stringIcSt11char_traitsIcESaIcEE7compareEPKc(ptr noundef nonnull align 8 dereferenceable(32) %2, ptr noundef nonnull @.str.23) #24
  %12 = icmp eq i32 %11, 0
  br i1 %12, label %13, label %113

13:                                               ; preds = %10
  %14 = getelementptr inbounds %"class.PP::Cmd", ptr %0, i64 0, i32 9
  %15 = add nsw i32 %1, 1
  %16 = sext i32 %15 to i64
  %17 = getelementptr inbounds %"class.PP::Cmd", ptr %0, i64 0, i32 9, i32 0, i32 0, i32 0, i32 2
  %18 = load ptr, ptr %17, align 8, !tbaa !60, !noalias !169
  %19 = getelementptr inbounds %"class.PP::Cmd", ptr %0, i64 0, i32 9, i32 0, i32 0, i32 0, i32 2, i32 1
  %20 = load ptr, ptr %19, align 8, !tbaa !64, !noalias !169
  %21 = getelementptr inbounds %"class.PP::Cmd", ptr %0, i64 0, i32 9, i32 0, i32 0, i32 0, i32 2, i32 3
  %22 = load ptr, ptr %21, align 8, !tbaa !65, !noalias !169
  %23 = ptrtoint ptr %18 to i64
  %24 = ptrtoint ptr %20 to i64
  %25 = sub i64 %23, %24
  %26 = ashr exact i64 %25, 7
  %27 = add nsw i64 %26, %16
  %28 = icmp sgt i64 %27, -1
  br i1 %28, label %29, label %33

29:                                               ; preds = %13
  %30 = icmp ult i64 %27, 4
  br i1 %30, label %46, label %31

31:                                               ; preds = %29
  %32 = lshr i64 %27, 2
  br label %36

33:                                               ; preds = %13
  %34 = lshr i64 %27, 2
  %35 = or i64 %34, -4611686018427387904
  br label %36

36:                                               ; preds = %31, %33
  %37 = phi i64 [ %32, %31 ], [ %35, %33 ]
  %38 = getelementptr inbounds ptr, ptr %22, i64 %37
  %39 = load ptr, ptr %38, align 8, !tbaa !41, !noalias !169
  %40 = shl nsw i64 %37, 2
  %41 = sub nsw i64 %27, %40
  %42 = getelementptr inbounds %"class.PP::Word", ptr %39, i64 %41, i32 1
  %43 = load i32, ptr %42, align 8, !tbaa !96
  %44 = and i32 %43, -2
  %45 = icmp eq i32 %44, 2
  br i1 %45, label %52, label %113

46:                                               ; preds = %29
  %47 = getelementptr inbounds %"class.PP::Word", ptr %18, i64 %16, i32 1
  %48 = load i32, ptr %47, align 8, !tbaa !96
  %49 = and i32 %48, -2
  %50 = icmp eq i32 %49, 2
  br i1 %50, label %51, label %113

51:                                               ; preds = %46
  call void @llvm.lifetime.start.p0(i64 128, ptr nonnull %6) #24
  br label %55

52:                                               ; preds = %36
  call void @llvm.lifetime.start.p0(i64 128, ptr nonnull %6) #24
  br i1 %28, label %53, label %59

53:                                               ; preds = %52
  %54 = icmp ult i64 %27, 4
  br i1 %54, label %55, label %57

55:                                               ; preds = %51, %53
  %56 = getelementptr inbounds %"class.PP::Word", ptr %18, i64 %16
  br label %69

57:                                               ; preds = %53
  %58 = lshr i64 %27, 2
  br label %62

59:                                               ; preds = %52
  %60 = lshr i64 %27, 2
  %61 = or i64 %60, -4611686018427387904
  br label %62

62:                                               ; preds = %59, %57
  %63 = phi i64 [ %58, %57 ], [ %61, %59 ]
  %64 = getelementptr inbounds ptr, ptr %22, i64 %63
  %65 = load ptr, ptr %64, align 8, !tbaa !41, !noalias !172
  %66 = shl nsw i64 %63, 2
  %67 = sub nsw i64 %27, %66
  %68 = getelementptr inbounds %"class.PP::Word", ptr %65, i64 %67
  br label %69

69:                                               ; preds = %55, %62
  %70 = phi ptr [ %68, %62 ], [ %56, %55 ]
  call void @_ZN2PP4WordC1ERKS0_(ptr noundef nonnull align 8 dereferenceable(128) %6, ptr noundef nonnull align 8 dereferenceable(128) %70)
  invoke void @_ZN2PP4Word12negate_valueEv(ptr noundef nonnull align 8 dereferenceable(128) %6)
          to label %71 unwind label %111

71:                                               ; preds = %69
  call void @llvm.lifetime.start.p0(i64 32, ptr nonnull %4)
  invoke void @_ZN2PP3Cmd12delete_wordsEii(ptr noundef nonnull align 8 dereferenceable(432) %0, i32 noundef %1, i32 noundef %15)
          to label %72 unwind label %111

72:                                               ; preds = %71
  %73 = load ptr, ptr %17, align 8, !tbaa !60, !noalias !175
  %74 = load ptr, ptr %19, align 8, !tbaa !64, !noalias !175
  %75 = getelementptr inbounds %"class.PP::Cmd", ptr %0, i64 0, i32 9, i32 0, i32 0, i32 0, i32 2, i32 2
  %76 = load ptr, ptr %75, align 8, !tbaa !76, !noalias !175
  %77 = load ptr, ptr %21, align 8, !tbaa !65, !noalias !175
  %78 = sext i32 %1 to i64
  %79 = ptrtoint ptr %73 to i64
  %80 = ptrtoint ptr %74 to i64
  %81 = sub i64 %79, %80
  %82 = ashr exact i64 %81, 7
  %83 = add nsw i64 %82, %78
  %84 = icmp sgt i64 %83, -1
  br i1 %84, label %85, label %91

85:                                               ; preds = %72
  %86 = icmp ult i64 %83, 4
  br i1 %86, label %87, label %89

87:                                               ; preds = %85
  %88 = getelementptr inbounds %"class.PP::Word", ptr %73, i64 %78
  br label %102

89:                                               ; preds = %85
  %90 = lshr i64 %83, 2
  br label %94

91:                                               ; preds = %72
  %92 = lshr i64 %83, 2
  %93 = or i64 %92, -4611686018427387904
  br label %94

94:                                               ; preds = %91, %89
  %95 = phi i64 [ %90, %89 ], [ %93, %91 ]
  %96 = getelementptr inbounds ptr, ptr %77, i64 %95
  %97 = load ptr, ptr %96, align 8, !tbaa !41, !noalias !178
  %98 = getelementptr inbounds %"class.PP::Word", ptr %97, i64 4
  %99 = shl nsw i64 %95, 2
  %100 = sub nsw i64 %83, %99
  %101 = getelementptr inbounds %"class.PP::Word", ptr %97, i64 %100
  br label %102

102:                                              ; preds = %94, %87
  %103 = phi ptr [ %76, %87 ], [ %98, %94 ]
  %104 = phi ptr [ %74, %87 ], [ %97, %94 ]
  %105 = phi ptr [ %77, %87 ], [ %96, %94 ]
  %106 = phi ptr [ %88, %87 ], [ %101, %94 ]
  store ptr %106, ptr %4, align 8, !tbaa !181
  %107 = getelementptr inbounds %"struct.std::_Deque_iterator.21", ptr %4, i64 0, i32 1
  store ptr %104, ptr %107, align 8, !tbaa !183
  %108 = getelementptr inbounds %"struct.std::_Deque_iterator.21", ptr %4, i64 0, i32 2
  store ptr %103, ptr %108, align 8, !tbaa !184
  %109 = getelementptr inbounds %"struct.std::_Deque_iterator.21", ptr %4, i64 0, i32 3
  store ptr %105, ptr %109, align 8, !tbaa !185
  call void @llvm.lifetime.start.p0(i64 32, ptr nonnull %5) #24
  invoke void @_ZNSt5dequeIN2PP4WordESaIS1_EE6insertESt15_Deque_iteratorIS1_RKS1_PS5_ES6_(ptr nonnull sret(%"struct.std::_Deque_iterator.16") align 8 %5, ptr noundef nonnull align 8 dereferenceable(80) %14, ptr noundef nonnull %4, ptr noundef nonnull align 8 dereferenceable(128) %6)
          to label %110 unwind label %111

110:                                              ; preds = %102
  call void @llvm.lifetime.end.p0(i64 32, ptr nonnull %5) #24
  call void @llvm.lifetime.end.p0(i64 32, ptr nonnull %4)
  call void @_ZN2PP4WordD1Ev(ptr noundef nonnull align 8 dereferenceable(128) %6) #24
  call void @llvm.lifetime.end.p0(i64 128, ptr nonnull %6) #24
  br label %113

111:                                              ; preds = %102, %71, %69
  %112 = landingpad { ptr, i32 }
          cleanup
  call void @_ZN2PP4WordD1Ev(ptr noundef nonnull align 8 dereferenceable(128) %6) #24
  call void @llvm.lifetime.end.p0(i64 128, ptr nonnull %6) #24
  resume { ptr, i32 } %112

113:                                              ; preds = %46, %36, %9, %110, %10
  ret void
}

; Function Attrs: uwtable
define dso_local void @_ZN2PP3Cmd21handle_cmd_unary_plusERNSt7__cxx1118basic_stringstreamIcSt11char_traitsIcESaIcEEERi(ptr noundef nonnull align 8 dereferenceable(432) %0, ptr noundef nonnull align 8 dereferenceable(128) %1, ptr noundef nonnull align 4 dereferenceable(4) %2) local_unnamed_addr #3 align 2 personality ptr @__gxx_personality_v0 {
  %4 = alloca i64, align 8
  %5 = alloca %"class.std::__cxx11::basic_string", align 8
  %6 = alloca %"class.std::__cxx11::basic_string", align 8
  %7 = getelementptr inbounds %"class.PP::Cmd", ptr %0, i64 0, i32 9, i32 0, i32 0, i32 0, i32 3
  %8 = getelementptr inbounds %"class.PP::Cmd", ptr %0, i64 0, i32 9, i32 0, i32 0, i32 0, i32 2
  %9 = getelementptr inbounds %"class.PP::Cmd", ptr %0, i64 0, i32 9, i32 0, i32 0, i32 0, i32 3, i32 3
  %10 = getelementptr inbounds %"class.PP::Cmd", ptr %0, i64 0, i32 9, i32 0, i32 0, i32 0, i32 2, i32 3
  %11 = getelementptr inbounds %"class.PP::Cmd", ptr %0, i64 0, i32 9, i32 0, i32 0, i32 0, i32 3, i32 1
  %12 = getelementptr inbounds %"class.PP::Cmd", ptr %0, i64 0, i32 9, i32 0, i32 0, i32 0, i32 2, i32 2
  %13 = getelementptr inbounds %"class.std::__cxx11::basic_string", ptr %5, i64 0, i32 2
  %14 = getelementptr inbounds %"class.std::__cxx11::basic_string", ptr %5, i64 0, i32 1
  %15 = getelementptr inbounds %"class.PP::Cmd", ptr %0, i64 0, i32 9, i32 0, i32 0, i32 0, i32 2, i32 1
  %16 = getelementptr inbounds i8, ptr %5, i64 17
  br label %17

17:                                               ; preds = %224, %3
  %18 = phi i32 [ 0, %3 ], [ %58, %224 ]
  %19 = load ptr, ptr %9, align 8, !tbaa !65
  %20 = load ptr, ptr %10, align 8, !tbaa !65
  %21 = ptrtoint ptr %19 to i64
  %22 = ptrtoint ptr %20 to i64
  %23 = sub i64 %21, %22
  %24 = ashr exact i64 %23, 3
  %25 = icmp ne ptr %19, null
  %26 = sext i1 %25 to i64
  %27 = add nsw i64 %24, %26
  %28 = shl nsw i64 %27, 2
  %29 = load ptr, ptr %7, align 8, !tbaa !60
  %30 = load ptr, ptr %11, align 8, !tbaa !64
  %31 = ptrtoint ptr %29 to i64
  %32 = ptrtoint ptr %30 to i64
  %33 = sub i64 %31, %32
  %34 = lshr exact i64 %33, 7
  %35 = add i64 %28, %34
  %36 = load ptr, ptr %12, align 8, !tbaa !76
  %37 = load ptr, ptr %8, align 8, !tbaa !60
  %38 = ptrtoint ptr %36 to i64
  %39 = ptrtoint ptr %37 to i64
  %40 = sub i64 %38, %39
  %41 = lshr exact i64 %40, 7
  %42 = add i64 %35, %41
  store ptr %13, ptr %5, align 8, !tbaa !5
  store i8 43, ptr %13, align 8, !tbaa !13
  store i64 1, ptr %14, align 8, !tbaa !10
  store i8 0, ptr %16, align 1, !tbaa !13
  %43 = trunc i64 %42 to i32
  %44 = add nsw i32 %43, -1
  %45 = invoke noundef i32 @_ZN2PP3Cmd4findEiiNSt7__cxx1112basic_stringIcSt11char_traitsIcESaIcEEE(ptr noundef nonnull align 8 dereferenceable(432) %0, i32 noundef %18, i32 noundef %44, ptr noundef nonnull %5)
          to label %46 unwind label %52

46:                                               ; preds = %17
  %47 = load ptr, ptr %5, align 8, !tbaa !36
  %48 = icmp eq ptr %47, %13
  br i1 %48, label %50, label %49

49:                                               ; preds = %46
  call void @_ZdlPv(ptr noundef %47) #25
  br label %50

50:                                               ; preds = %46, %49
  %51 = icmp eq i32 %45, -1
  br i1 %51, label %227, label %57

52:                                               ; preds = %17
  %53 = landingpad { ptr, i32 }
          cleanup
  %54 = load ptr, ptr %5, align 8, !tbaa !36
  %55 = icmp eq ptr %54, %13
  br i1 %55, label %225, label %56

56:                                               ; preds = %52
  call void @_ZdlPv(ptr noundef %54) #25
  br label %225

57:                                               ; preds = %50
  %58 = add nuw nsw i32 %45, 1
  %59 = sext i32 %58 to i64
  %60 = load ptr, ptr %8, align 8, !tbaa !60, !noalias !186
  %61 = load ptr, ptr %15, align 8, !tbaa !64, !noalias !186
  %62 = load ptr, ptr %10, align 8, !tbaa !65, !noalias !186
  %63 = ptrtoint ptr %60 to i64
  %64 = ptrtoint ptr %61 to i64
  %65 = sub i64 %63, %64
  %66 = ashr exact i64 %65, 7
  %67 = add nsw i64 %66, %59
  %68 = icmp sgt i64 %67, -1
  br i1 %68, label %69, label %73

69:                                               ; preds = %57
  %70 = icmp ult i64 %67, 4
  br i1 %70, label %86, label %71

71:                                               ; preds = %69
  %72 = lshr i64 %67, 2
  br label %76

73:                                               ; preds = %57
  %74 = lshr i64 %67, 2
  %75 = or i64 %74, -4611686018427387904
  br label %76

76:                                               ; preds = %71, %73
  %77 = phi i64 [ %72, %71 ], [ %75, %73 ]
  %78 = getelementptr inbounds ptr, ptr %62, i64 %77
  %79 = load ptr, ptr %78, align 8, !tbaa !41, !noalias !186
  %80 = shl nsw i64 %77, 2
  %81 = sub nsw i64 %67, %80
  %82 = getelementptr inbounds %"class.PP::Word", ptr %79, i64 %81, i32 1
  %83 = load i32, ptr %82, align 8, !tbaa !96
  %84 = and i32 %83, -2
  %85 = icmp eq i32 %84, 2
  br i1 %85, label %224, label %91

86:                                               ; preds = %69
  %87 = getelementptr inbounds %"class.PP::Word", ptr %60, i64 %59, i32 1
  %88 = load i32, ptr %87, align 8, !tbaa !96
  %89 = and i32 %88, -2
  %90 = icmp eq i32 %89, 2
  br i1 %90, label %224, label %94

91:                                               ; preds = %76
  br i1 %68, label %92, label %98

92:                                               ; preds = %91
  %93 = icmp ult i64 %67, 4
  br i1 %93, label %94, label %96

94:                                               ; preds = %86, %92
  %95 = getelementptr inbounds %"class.PP::Word", ptr %60, i64 %59
  br label %108

96:                                               ; preds = %92
  %97 = lshr i64 %67, 2
  br label %101

98:                                               ; preds = %91
  %99 = lshr i64 %67, 2
  %100 = or i64 %99, -4611686018427387904
  br label %101

101:                                              ; preds = %98, %96
  %102 = phi i64 [ %97, %96 ], [ %100, %98 ]
  %103 = getelementptr inbounds ptr, ptr %62, i64 %102
  %104 = load ptr, ptr %103, align 8, !tbaa !41, !noalias !189
  %105 = shl nsw i64 %102, 2
  %106 = sub nsw i64 %67, %105
  %107 = getelementptr inbounds %"class.PP::Word", ptr %104, i64 %106
  br label %108

108:                                              ; preds = %94, %101
  %109 = phi ptr [ %107, %101 ], [ %95, %94 ]
  call void @_ZN2PP4Word11fatal_errorERNSt7__cxx1118basic_stringstreamIcSt11char_traitsIcESaIcEEERi(ptr noundef nonnull align 8 dereferenceable(128) %109, ptr noundef nonnull align 8 dereferenceable(128) %1, ptr noundef nonnull align 4 dereferenceable(4) %2)
  %110 = getelementptr inbounds i8, ptr %1, i64 16
  %111 = call noundef nonnull align 8 dereferenceable(8) ptr @_ZSt16__ostream_insertIcSt11char_traitsIcEERSt13basic_ostreamIT_T0_ES6_PKS3_l(ptr noundef nonnull align 8 dereferenceable(8) %110, ptr noundef nonnull @.str.27, i64 noundef 57)
  %112 = load ptr, ptr %110, align 8, !tbaa !135
  %113 = getelementptr i8, ptr %112, i64 -24
  %114 = load i64, ptr %113, align 8
  %115 = getelementptr inbounds i8, ptr %110, i64 %114
  %116 = getelementptr inbounds %"class.std::basic_ios", ptr %115, i64 0, i32 5
  %117 = load ptr, ptr %116, align 8, !tbaa !137
  %118 = icmp eq ptr %117, null
  br i1 %118, label %119, label %120

119:                                              ; preds = %108
  call void @_ZSt16__throw_bad_castv() #27
  unreachable

120:                                              ; preds = %108
  %121 = getelementptr inbounds %"class.std::ctype", ptr %117, i64 0, i32 8
  %122 = load i8, ptr %121, align 8, !tbaa !144
  %123 = icmp eq i8 %122, 0
  br i1 %123, label %127, label %124

124:                                              ; preds = %120
  %125 = getelementptr inbounds %"class.std::ctype", ptr %117, i64 0, i32 9, i64 10
  %126 = load i8, ptr %125, align 1, !tbaa !13
  br label %132

127:                                              ; preds = %120
  call void @_ZNKSt5ctypeIcE13_M_widen_initEv(ptr noundef nonnull align 8 dereferenceable(570) %117)
  %128 = load ptr, ptr %117, align 8, !tbaa !135
  %129 = getelementptr inbounds ptr, ptr %128, i64 6
  %130 = load ptr, ptr %129, align 8
  %131 = call noundef signext i8 %130(ptr noundef nonnull align 8 dereferenceable(570) %117, i8 noundef signext 10)
  br label %132

132:                                              ; preds = %124, %127
  %133 = phi i8 [ %126, %124 ], [ %131, %127 ]
  %134 = call noundef nonnull align 8 dereferenceable(8) ptr @_ZNSo3putEc(ptr noundef nonnull align 8 dereferenceable(8) %110, i8 noundef signext %133)
  %135 = call noundef nonnull align 8 dereferenceable(8) ptr @_ZNSo5flushEv(ptr noundef nonnull align 8 dereferenceable(8) %134)
  %136 = call noundef nonnull align 8 dereferenceable(8) ptr @_ZSt16__ostream_insertIcSt11char_traitsIcEERSt13basic_ostreamIT_T0_ES6_PKS3_l(ptr noundef nonnull align 8 dereferenceable(8) %110, ptr noundef nonnull @.str.25, i64 noundef 16)
  call void @llvm.lifetime.start.p0(i64 32, ptr nonnull %6) #24
  %137 = load ptr, ptr %8, align 8, !tbaa !60, !noalias !192
  %138 = load ptr, ptr %15, align 8, !tbaa !64, !noalias !192
  %139 = load ptr, ptr %10, align 8, !tbaa !65, !noalias !192
  %140 = ptrtoint ptr %137 to i64
  %141 = ptrtoint ptr %138 to i64
  %142 = sub i64 %140, %141
  %143 = ashr exact i64 %142, 7
  %144 = add nsw i64 %143, %59
  %145 = icmp sgt i64 %144, -1
  br i1 %145, label %146, label %152

146:                                              ; preds = %132
  %147 = icmp ult i64 %144, 4
  br i1 %147, label %148, label %150

148:                                              ; preds = %146
  %149 = getelementptr inbounds %"class.PP::Word", ptr %137, i64 %59
  br label %162

150:                                              ; preds = %146
  %151 = lshr i64 %144, 2
  br label %155

152:                                              ; preds = %132
  %153 = lshr i64 %144, 2
  %154 = or i64 %153, -4611686018427387904
  br label %155

155:                                              ; preds = %152, %150
  %156 = phi i64 [ %151, %150 ], [ %154, %152 ]
  %157 = getelementptr inbounds ptr, ptr %139, i64 %156
  %158 = load ptr, ptr %157, align 8, !tbaa !41, !noalias !192
  %159 = shl nsw i64 %156, 2
  %160 = sub nsw i64 %144, %159
  %161 = getelementptr inbounds %"class.PP::Word", ptr %158, i64 %160
  br label %162

162:                                              ; preds = %148, %155
  %163 = phi ptr [ %161, %155 ], [ %149, %148 ]
  call void @llvm.experimental.noalias.scope.decl(metadata !195)
  %164 = getelementptr inbounds %"class.std::__cxx11::basic_string", ptr %6, i64 0, i32 2
  store ptr %164, ptr %6, align 8, !tbaa !5, !alias.scope !195
  %165 = load ptr, ptr %163, align 8, !tbaa !36, !noalias !195
  %166 = getelementptr inbounds %"class.std::__cxx11::basic_string", ptr %163, i64 0, i32 1
  %167 = load i64, ptr %166, align 8, !tbaa !10, !noalias !195
  call void @llvm.lifetime.start.p0(i64 8, ptr nonnull %4) #24, !noalias !195
  store i64 %167, ptr %4, align 8, !tbaa !55, !noalias !195
  %168 = icmp ugt i64 %167, 15
  br i1 %168, label %169, label %172

169:                                              ; preds = %162
  %170 = call noundef ptr @_ZNSt7__cxx1112basic_stringIcSt11char_traitsIcESaIcEE9_M_createERmm(ptr noundef nonnull align 8 dereferenceable(32) %6, ptr noundef nonnull align 8 dereferenceable(8) %4, i64 noundef 0)
  store ptr %170, ptr %6, align 8, !tbaa !36, !alias.scope !195
  %171 = load i64, ptr %4, align 8, !tbaa !55, !noalias !195
  store i64 %171, ptr %164, align 8, !tbaa !13, !alias.scope !195
  br label %172

172:                                              ; preds = %169, %162
  %173 = phi ptr [ %170, %169 ], [ %164, %162 ]
  switch i64 %167, label %176 [
    i64 1, label %174
    i64 0, label %177
  ]

174:                                              ; preds = %172
  %175 = load i8, ptr %165, align 1, !tbaa !13
  store i8 %175, ptr %173, align 1, !tbaa !13
  br label %177

176:                                              ; preds = %172
  call void @llvm.memcpy.p0.p0.i64(ptr align 1 %173, ptr align 1 %165, i64 %167, i1 false)
  br label %177

177:                                              ; preds = %172, %174, %176
  %178 = load i64, ptr %4, align 8, !tbaa !55, !noalias !195
  %179 = getelementptr inbounds %"class.std::__cxx11::basic_string", ptr %6, i64 0, i32 1
  store i64 %178, ptr %179, align 8, !tbaa !10, !alias.scope !195
  %180 = load ptr, ptr %6, align 8, !tbaa !36, !alias.scope !195
  %181 = getelementptr inbounds i8, ptr %180, i64 %178
  store i8 0, ptr %181, align 1, !tbaa !13
  call void @llvm.lifetime.end.p0(i64 8, ptr nonnull %4) #24, !noalias !195
  %182 = load ptr, ptr %6, align 8, !tbaa !36
  %183 = load i64, ptr %179, align 8, !tbaa !10
  %184 = invoke noundef nonnull align 8 dereferenceable(8) ptr @_ZSt16__ostream_insertIcSt11char_traitsIcEERSt13basic_ostreamIT_T0_ES6_PKS3_l(ptr noundef nonnull align 8 dereferenceable(8) %110, ptr noundef %182, i64 noundef %183)
          to label %185 unwind label %218

185:                                              ; preds = %177
  %186 = load ptr, ptr %184, align 8, !tbaa !135
  %187 = getelementptr i8, ptr %186, i64 -24
  %188 = load i64, ptr %187, align 8
  %189 = getelementptr inbounds i8, ptr %184, i64 %188
  %190 = getelementptr inbounds %"class.std::basic_ios", ptr %189, i64 0, i32 5
  %191 = load ptr, ptr %190, align 8, !tbaa !137
  %192 = icmp eq ptr %191, null
  br i1 %192, label %193, label %195

193:                                              ; preds = %185
  invoke void @_ZSt16__throw_bad_castv() #27
          to label %194 unwind label %218

194:                                              ; preds = %193
  unreachable

195:                                              ; preds = %185
  %196 = getelementptr inbounds %"class.std::ctype", ptr %191, i64 0, i32 8
  %197 = load i8, ptr %196, align 8, !tbaa !144
  %198 = icmp eq i8 %197, 0
  br i1 %198, label %202, label %199

199:                                              ; preds = %195
  %200 = getelementptr inbounds %"class.std::ctype", ptr %191, i64 0, i32 9, i64 10
  %201 = load i8, ptr %200, align 1, !tbaa !13
  br label %208

202:                                              ; preds = %195
  invoke void @_ZNKSt5ctypeIcE13_M_widen_initEv(ptr noundef nonnull align 8 dereferenceable(570) %191)
          to label %203 unwind label %218

203:                                              ; preds = %202
  %204 = load ptr, ptr %191, align 8, !tbaa !135
  %205 = getelementptr inbounds ptr, ptr %204, i64 6
  %206 = load ptr, ptr %205, align 8
  %207 = invoke noundef signext i8 %206(ptr noundef nonnull align 8 dereferenceable(570) %191, i8 noundef signext 10)
          to label %208 unwind label %218

208:                                              ; preds = %203, %199
  %209 = phi i8 [ %201, %199 ], [ %207, %203 ]
  %210 = invoke noundef nonnull align 8 dereferenceable(8) ptr @_ZNSo3putEc(ptr noundef nonnull align 8 dereferenceable(8) %184, i8 noundef signext %209)
          to label %211 unwind label %218

211:                                              ; preds = %208
  %212 = invoke noundef nonnull align 8 dereferenceable(8) ptr @_ZNSo5flushEv(ptr noundef nonnull align 8 dereferenceable(8) %210)
          to label %213 unwind label %218

213:                                              ; preds = %211
  %214 = load ptr, ptr %6, align 8, !tbaa !36
  %215 = icmp eq ptr %214, %164
  br i1 %215, label %217, label %216

216:                                              ; preds = %213
  call void @_ZdlPv(ptr noundef %214) #25
  br label %217

217:                                              ; preds = %213, %216
  call void @llvm.lifetime.end.p0(i64 32, ptr nonnull %6) #24
  store i32 2, ptr %2, align 4, !tbaa !56
  br label %227

218:                                              ; preds = %211, %208, %203, %202, %193, %177
  %219 = landingpad { ptr, i32 }
          cleanup
  %220 = load ptr, ptr %6, align 8, !tbaa !36
  %221 = icmp eq ptr %220, %164
  br i1 %221, label %223, label %222

222:                                              ; preds = %218
  call void @_ZdlPv(ptr noundef %220) #25
  br label %223

223:                                              ; preds = %218, %222
  call void @llvm.lifetime.end.p0(i64 32, ptr nonnull %6) #24
  br label %225

224:                                              ; preds = %76, %86
  call void @_ZN2PP3Cmd12delete_wordsEii(ptr noundef nonnull align 8 dereferenceable(432) %0, i32 noundef %45, i32 noundef %45)
  br label %17

225:                                              ; preds = %52, %56, %223
  %226 = phi { ptr, i32 } [ %219, %223 ], [ %53, %52 ], [ %53, %56 ]
  resume { ptr, i32 } %226

227:                                              ; preds = %50, %217
  ret void
}

; Function Attrs: uwtable
define dso_local void @_ZN2PP3Cmd12delete_wordsEii(ptr noundef nonnull align 8 dereferenceable(432) %0, i32 noundef %1, i32 noundef %2) local_unnamed_addr #3 align 2 {
  %4 = alloca %"struct.std::_Deque_iterator.16", align 8
  %5 = alloca %"struct.std::_Deque_iterator.16", align 8
  %6 = alloca %"struct.std::_Deque_iterator.16", align 8
  %7 = getelementptr inbounds %"class.PP::Cmd", ptr %0, i64 0, i32 9, i32 0, i32 0, i32 0, i32 2
  %8 = load ptr, ptr %7, align 8, !tbaa !60, !noalias !198
  %9 = getelementptr inbounds %"class.PP::Cmd", ptr %0, i64 0, i32 9, i32 0, i32 0, i32 0, i32 2, i32 1
  %10 = load ptr, ptr %9, align 8, !tbaa !64, !noalias !198
  %11 = getelementptr inbounds %"class.PP::Cmd", ptr %0, i64 0, i32 9, i32 0, i32 0, i32 0, i32 2, i32 3
  %12 = load ptr, ptr %11, align 8, !tbaa !65, !noalias !198
  %13 = sext i32 %1 to i64
  %14 = ptrtoint ptr %8 to i64
  %15 = ptrtoint ptr %10 to i64
  %16 = sub i64 %14, %15
  %17 = ashr exact i64 %16, 7
  %18 = add nsw i64 %17, %13
  %19 = icmp sgt i64 %18, -1
  br i1 %19, label %20, label %26

20:                                               ; preds = %3
  %21 = icmp ult i64 %18, 4
  br i1 %21, label %22, label %24

22:                                               ; preds = %20
  %23 = getelementptr inbounds %"class.PP::Word", ptr %8, i64 %13
  br label %36

24:                                               ; preds = %20
  %25 = lshr i64 %18, 2
  br label %29

26:                                               ; preds = %3
  %27 = lshr i64 %18, 2
  %28 = or i64 %27, -4611686018427387904
  br label %29

29:                                               ; preds = %26, %24
  %30 = phi i64 [ %25, %24 ], [ %28, %26 ]
  %31 = getelementptr inbounds ptr, ptr %12, i64 %30
  %32 = load ptr, ptr %31, align 8, !tbaa !41, !noalias !201
  %33 = shl nsw i64 %30, 2
  %34 = sub nsw i64 %18, %33
  %35 = getelementptr inbounds %"class.PP::Word", ptr %32, i64 %34
  br label %36

36:                                               ; preds = %22, %29
  %37 = phi ptr [ %12, %22 ], [ %31, %29 ]
  %38 = phi ptr [ %23, %22 ], [ %35, %29 ]
  %39 = sext i32 %2 to i64
  %40 = add nsw i64 %17, %39
  %41 = icmp sgt i64 %40, -1
  br i1 %41, label %42, label %48

42:                                               ; preds = %36
  %43 = icmp ult i64 %40, 4
  br i1 %43, label %44, label %46

44:                                               ; preds = %42
  %45 = getelementptr inbounds %"class.PP::Word", ptr %8, i64 %39
  br label %59

46:                                               ; preds = %42
  %47 = lshr i64 %40, 2
  br label %51

48:                                               ; preds = %36
  %49 = lshr i64 %40, 2
  %50 = or i64 %49, -4611686018427387904
  br label %51

51:                                               ; preds = %48, %46
  %52 = phi i64 [ %47, %46 ], [ %50, %48 ]
  %53 = getelementptr inbounds ptr, ptr %12, i64 %52
  %54 = load ptr, ptr %53, align 8, !tbaa !41, !noalias !204
  %55 = shl nsw i64 %52, 2
  %56 = sub nsw i64 %40, %55
  %57 = getelementptr inbounds %"class.PP::Word", ptr %54, i64 %56
  %58 = ptrtoint ptr %54 to i64
  br label %59

59:                                               ; preds = %44, %51
  %60 = phi i64 [ %15, %44 ], [ %58, %51 ]
  %61 = phi ptr [ %12, %44 ], [ %53, %51 ]
  %62 = phi ptr [ %45, %44 ], [ %57, %51 ]
  %63 = ptrtoint ptr %62 to i64
  %64 = sub i64 %63, %60
  %65 = ashr exact i64 %64, 7
  %66 = add nsw i64 %65, 1
  %67 = icmp sgt i64 %64, -256
  br i1 %67, label %68, label %74

68:                                               ; preds = %59
  %69 = icmp ult i64 %66, 4
  br i1 %69, label %70, label %72

70:                                               ; preds = %68
  %71 = getelementptr inbounds %"class.PP::Word", ptr %62, i64 1
  br label %84

72:                                               ; preds = %68
  %73 = lshr i64 %66, 2
  br label %77

74:                                               ; preds = %59
  %75 = lshr i64 %66, 2
  %76 = or i64 %75, -4611686018427387904
  br label %77

77:                                               ; preds = %74, %72
  %78 = phi i64 [ %73, %72 ], [ %76, %74 ]
  %79 = getelementptr inbounds ptr, ptr %61, i64 %78
  %80 = load ptr, ptr %79, align 8, !tbaa !41, !noalias !207
  %81 = shl nsw i64 %78, 2
  %82 = sub nsw i64 %66, %81
  %83 = getelementptr inbounds %"class.PP::Word", ptr %80, i64 %82
  br label %84

84:                                               ; preds = %70, %77
  %85 = phi ptr [ %61, %70 ], [ %79, %77 ]
  %86 = phi ptr [ %71, %70 ], [ %83, %77 ]
  %87 = getelementptr inbounds %"class.PP::Cmd", ptr %0, i64 0, i32 9
  call void @llvm.lifetime.start.p0(i64 32, ptr nonnull %6) #24
  call void @llvm.lifetime.start.p0(i64 32, ptr nonnull %4)
  call void @llvm.lifetime.start.p0(i64 32, ptr nonnull %5)
  tail call void @llvm.experimental.noalias.scope.decl(metadata !210)
  store ptr %38, ptr %4, align 8, !tbaa !60, !alias.scope !210, !noalias !213
  %88 = getelementptr inbounds %"struct.std::_Deque_iterator.16", ptr %4, i64 0, i32 1
  %89 = load ptr, ptr %37, align 8, !tbaa !41, !noalias !216
  store ptr %89, ptr %88, align 8, !tbaa !64, !alias.scope !210, !noalias !213
  %90 = getelementptr inbounds %"struct.std::_Deque_iterator.16", ptr %4, i64 0, i32 2
  %91 = getelementptr inbounds %"class.PP::Word", ptr %89, i64 4
  store ptr %91, ptr %90, align 8, !tbaa !76, !alias.scope !210, !noalias !213
  %92 = getelementptr inbounds %"struct.std::_Deque_iterator.16", ptr %4, i64 0, i32 3
  store ptr %37, ptr %92, align 8, !tbaa !65, !alias.scope !210, !noalias !213
  tail call void @llvm.experimental.noalias.scope.decl(metadata !217)
  store ptr %86, ptr %5, align 8, !tbaa !60, !alias.scope !217, !noalias !213
  %93 = getelementptr inbounds %"struct.std::_Deque_iterator.16", ptr %5, i64 0, i32 1
  %94 = load ptr, ptr %85, align 8, !tbaa !41, !noalias !220
  store ptr %94, ptr %93, align 8, !tbaa !64, !alias.scope !217, !noalias !213
  %95 = getelementptr inbounds %"struct.std::_Deque_iterator.16", ptr %5, i64 0, i32 2
  %96 = getelementptr inbounds %"class.PP::Word", ptr %94, i64 4
  store ptr %96, ptr %95, align 8, !tbaa !76, !alias.scope !217, !noalias !213
  %97 = getelementptr inbounds %"struct.std::_Deque_iterator.16", ptr %5, i64 0, i32 3
  store ptr %85, ptr %97, align 8, !tbaa !65, !alias.scope !217, !noalias !213
  call void @_ZNSt5dequeIN2PP4WordESaIS1_EE8_M_eraseESt15_Deque_iteratorIS1_RS1_PS1_ES7_(ptr nonnull sret(%"struct.std::_Deque_iterator.16") align 8 %6, ptr noundef nonnull align 8 dereferenceable(80) %87, ptr noundef nonnull %4, ptr noundef nonnull %5)
  call void @llvm.lifetime.end.p0(i64 32, ptr nonnull %4)
  call void @llvm.lifetime.end.p0(i64 32, ptr nonnull %5)
  call void @llvm.lifetime.end.p0(i64 32, ptr nonnull %6) #24
  ret void
}

; Function Attrs: uwtable
define dso_local void @_ZN2PP3Cmd23handle_cmd_multiplicityERNSt7__cxx1118basic_stringstreamIcSt11char_traitsIcESaIcEEERi(ptr noundef nonnull align 8 dereferenceable(432) %0, ptr noundef nonnull align 8 dereferenceable(128) %1, ptr noundef nonnull align 4 dereferenceable(4) %2) local_unnamed_addr #3 align 2 personality ptr @__gxx_personality_v0 {
  %4 = alloca %"struct.std::_Deque_iterator.21", align 8
  %5 = alloca %"struct.std::_Deque_iterator.16", align 8
  %6 = alloca i64, align 8
  %7 = alloca %"class.std::__cxx11::basic_string", align 8
  %8 = alloca %"class.std::__cxx11::basic_string", align 8
  %9 = alloca %"class.PP::Word", align 8
  %10 = getelementptr inbounds %"class.PP::Cmd", ptr %0, i64 0, i32 9
  %11 = getelementptr inbounds %"class.PP::Cmd", ptr %0, i64 0, i32 9, i32 0, i32 0, i32 0, i32 3
  %12 = getelementptr inbounds %"class.PP::Cmd", ptr %0, i64 0, i32 9, i32 0, i32 0, i32 0, i32 2
  %13 = getelementptr inbounds %"class.PP::Cmd", ptr %0, i64 0, i32 9, i32 0, i32 0, i32 0, i32 3, i32 3
  %14 = getelementptr inbounds %"class.PP::Cmd", ptr %0, i64 0, i32 9, i32 0, i32 0, i32 0, i32 2, i32 3
  %15 = getelementptr inbounds %"class.PP::Cmd", ptr %0, i64 0, i32 9, i32 0, i32 0, i32 0, i32 3, i32 1
  %16 = getelementptr inbounds %"class.PP::Cmd", ptr %0, i64 0, i32 9, i32 0, i32 0, i32 0, i32 2, i32 2
  %17 = getelementptr inbounds %"class.std::__cxx11::basic_string", ptr %7, i64 0, i32 2
  %18 = getelementptr inbounds %"class.std::__cxx11::basic_string", ptr %7, i64 0, i32 1
  %19 = getelementptr inbounds %"class.PP::Cmd", ptr %0, i64 0, i32 9, i32 0, i32 0, i32 0, i32 2, i32 1
  %20 = getelementptr inbounds %"struct.std::_Deque_iterator.21", ptr %4, i64 0, i32 1
  %21 = getelementptr inbounds %"struct.std::_Deque_iterator.21", ptr %4, i64 0, i32 2
  %22 = getelementptr inbounds %"struct.std::_Deque_iterator.21", ptr %4, i64 0, i32 3
  %23 = getelementptr inbounds i8, ptr %7, i64 17
  br label %24

24:                                               ; preds = %426, %3
  %25 = phi i32 [ 0, %3 ], [ %52, %426 ]
  %26 = load ptr, ptr %13, align 8, !tbaa !65
  %27 = load ptr, ptr %14, align 8, !tbaa !65
  %28 = ptrtoint ptr %26 to i64
  %29 = ptrtoint ptr %27 to i64
  %30 = sub i64 %28, %29
  %31 = ashr exact i64 %30, 3
  %32 = icmp ne ptr %26, null
  %33 = sext i1 %32 to i64
  %34 = add nsw i64 %31, %33
  %35 = shl nsw i64 %34, 2
  %36 = load ptr, ptr %11, align 8, !tbaa !60
  %37 = load ptr, ptr %15, align 8, !tbaa !64
  %38 = ptrtoint ptr %36 to i64
  %39 = ptrtoint ptr %37 to i64
  %40 = sub i64 %38, %39
  %41 = lshr exact i64 %40, 7
  %42 = add i64 %35, %41
  %43 = load ptr, ptr %16, align 8, !tbaa !76
  %44 = load ptr, ptr %12, align 8, !tbaa !60
  %45 = ptrtoint ptr %43 to i64
  %46 = ptrtoint ptr %44 to i64
  %47 = sub i64 %45, %46
  %48 = lshr exact i64 %47, 7
  %49 = add i64 %42, %48
  store ptr %17, ptr %7, align 8, !tbaa !5
  store i8 42, ptr %17, align 8, !tbaa !13
  store i64 1, ptr %18, align 8, !tbaa !10
  store i8 0, ptr %23, align 1, !tbaa !13
  %50 = trunc i64 %49 to i32
  %51 = add nsw i32 %50, -1
  %52 = invoke noundef i32 @_ZN2PP3Cmd4findEiiNSt7__cxx1112basic_stringIcSt11char_traitsIcESaIcEEE(ptr noundef nonnull align 8 dereferenceable(432) %0, i32 noundef %25, i32 noundef %51, ptr noundef nonnull %7)
          to label %53 unwind label %58

53:                                               ; preds = %24
  %54 = load ptr, ptr %7, align 8, !tbaa !36
  %55 = icmp eq ptr %54, %17
  br i1 %55, label %57, label %56

56:                                               ; preds = %53
  call void @_ZdlPv(ptr noundef %54) #25
  br label %57

57:                                               ; preds = %53, %56
  switch i32 %52, label %90 [
    i32 -1, label %432
    i32 0, label %63
  ]

58:                                               ; preds = %24
  %59 = landingpad { ptr, i32 }
          cleanup
  %60 = load ptr, ptr %7, align 8, !tbaa !36
  %61 = icmp eq ptr %60, %17
  br i1 %61, label %429, label %62

62:                                               ; preds = %58
  call void @_ZdlPv(ptr noundef %60) #25
  br label %429

63:                                               ; preds = %57
  call void @_ZN2PP3Cmd12fatal_error2ERNSt7__cxx1118basic_stringstreamIcSt11char_traitsIcESaIcEEERi(ptr noundef nonnull align 8 dereferenceable(432) %0, ptr noundef nonnull align 8 dereferenceable(128) %1, ptr nonnull align 4 poison)
  %64 = getelementptr inbounds i8, ptr %1, i64 16
  %65 = call noundef nonnull align 8 dereferenceable(8) ptr @_ZSt16__ostream_insertIcSt11char_traitsIcEERSt13basic_ostreamIT_T0_ES6_PKS3_l(ptr noundef nonnull align 8 dereferenceable(8) %64, ptr noundef nonnull @.str.29, i64 noundef 42)
  %66 = load ptr, ptr %64, align 8, !tbaa !135
  %67 = getelementptr i8, ptr %66, i64 -24
  %68 = load i64, ptr %67, align 8
  %69 = getelementptr inbounds i8, ptr %64, i64 %68
  %70 = getelementptr inbounds %"class.std::basic_ios", ptr %69, i64 0, i32 5
  %71 = load ptr, ptr %70, align 8, !tbaa !137
  %72 = icmp eq ptr %71, null
  br i1 %72, label %73, label %74

73:                                               ; preds = %63
  call void @_ZSt16__throw_bad_castv() #27
  unreachable

74:                                               ; preds = %63
  %75 = getelementptr inbounds %"class.std::ctype", ptr %71, i64 0, i32 8
  %76 = load i8, ptr %75, align 8, !tbaa !144
  %77 = icmp eq i8 %76, 0
  br i1 %77, label %81, label %78

78:                                               ; preds = %74
  %79 = getelementptr inbounds %"class.std::ctype", ptr %71, i64 0, i32 9, i64 10
  %80 = load i8, ptr %79, align 1, !tbaa !13
  br label %86

81:                                               ; preds = %74
  call void @_ZNKSt5ctypeIcE13_M_widen_initEv(ptr noundef nonnull align 8 dereferenceable(570) %71)
  %82 = load ptr, ptr %71, align 8, !tbaa !135
  %83 = getelementptr inbounds ptr, ptr %82, i64 6
  %84 = load ptr, ptr %83, align 8
  %85 = call noundef signext i8 %84(ptr noundef nonnull align 8 dereferenceable(570) %71, i8 noundef signext 10)
  br label %86

86:                                               ; preds = %78, %81
  %87 = phi i8 [ %80, %78 ], [ %85, %81 ]
  %88 = call noundef nonnull align 8 dereferenceable(8) ptr @_ZNSo3putEc(ptr noundef nonnull align 8 dereferenceable(8) %64, i8 noundef signext %87)
  %89 = call noundef nonnull align 8 dereferenceable(8) ptr @_ZNSo5flushEv(ptr noundef nonnull align 8 dereferenceable(8) %88)
  br label %431

90:                                               ; preds = %57
  %91 = load ptr, ptr %13, align 8, !tbaa !65
  %92 = load ptr, ptr %14, align 8, !tbaa !65
  %93 = ptrtoint ptr %91 to i64
  %94 = ptrtoint ptr %92 to i64
  %95 = sub i64 %93, %94
  %96 = ashr exact i64 %95, 3
  %97 = icmp ne ptr %91, null
  %98 = sext i1 %97 to i64
  %99 = add nsw i64 %96, %98
  %100 = shl nsw i64 %99, 2
  %101 = load ptr, ptr %11, align 8, !tbaa !60
  %102 = load ptr, ptr %15, align 8, !tbaa !64
  %103 = ptrtoint ptr %101 to i64
  %104 = ptrtoint ptr %102 to i64
  %105 = sub i64 %103, %104
  %106 = lshr exact i64 %105, 7
  %107 = add i64 %100, %106
  %108 = load ptr, ptr %16, align 8, !tbaa !76
  %109 = load ptr, ptr %12, align 8, !tbaa !60
  %110 = ptrtoint ptr %108 to i64
  %111 = ptrtoint ptr %109 to i64
  %112 = sub i64 %110, %111
  %113 = lshr exact i64 %112, 7
  %114 = add i64 %107, %113
  %115 = trunc i64 %114 to i32
  %116 = add nsw i32 %115, -1
  %117 = icmp eq i32 %52, %116
  %118 = load ptr, ptr %19, align 8, !tbaa !64, !noalias !124
  %119 = ptrtoint ptr %118 to i64
  br i1 %117, label %120, label %172

120:                                              ; preds = %90
  %121 = ptrtoint ptr %118 to i64
  %122 = ptrtoint ptr %109 to i64
  %123 = sext i32 %52 to i64
  %124 = sub i64 %122, %121
  %125 = ashr exact i64 %124, 7
  %126 = add nsw i64 %125, %123
  %127 = icmp sgt i64 %126, -1
  br i1 %127, label %128, label %134

128:                                              ; preds = %120
  %129 = icmp ult i64 %126, 4
  br i1 %129, label %130, label %132

130:                                              ; preds = %128
  %131 = getelementptr inbounds %"class.PP::Word", ptr %109, i64 %123
  br label %144

132:                                              ; preds = %128
  %133 = lshr i64 %126, 2
  br label %137

134:                                              ; preds = %120
  %135 = lshr i64 %126, 2
  %136 = or i64 %135, -4611686018427387904
  br label %137

137:                                              ; preds = %134, %132
  %138 = phi i64 [ %133, %132 ], [ %136, %134 ]
  %139 = getelementptr inbounds ptr, ptr %92, i64 %138
  %140 = load ptr, ptr %139, align 8, !tbaa !41, !noalias !221
  %141 = shl nsw i64 %138, 2
  %142 = sub nsw i64 %126, %141
  %143 = getelementptr inbounds %"class.PP::Word", ptr %140, i64 %142
  br label %144

144:                                              ; preds = %130, %137
  %145 = phi ptr [ %143, %137 ], [ %131, %130 ]
  call void @_ZN2PP4Word11fatal_errorERNSt7__cxx1118basic_stringstreamIcSt11char_traitsIcESaIcEEERi(ptr noundef nonnull align 8 dereferenceable(128) %145, ptr noundef nonnull align 8 dereferenceable(128) %1, ptr noundef nonnull align 4 dereferenceable(4) %2)
  %146 = getelementptr inbounds i8, ptr %1, i64 16
  %147 = call noundef nonnull align 8 dereferenceable(8) ptr @_ZSt16__ostream_insertIcSt11char_traitsIcEERSt13basic_ostreamIT_T0_ES6_PKS3_l(ptr noundef nonnull align 8 dereferenceable(8) %146, ptr noundef nonnull @.str.30, i64 noundef 40)
  %148 = load ptr, ptr %146, align 8, !tbaa !135
  %149 = getelementptr i8, ptr %148, i64 -24
  %150 = load i64, ptr %149, align 8
  %151 = getelementptr inbounds i8, ptr %146, i64 %150
  %152 = getelementptr inbounds %"class.std::basic_ios", ptr %151, i64 0, i32 5
  %153 = load ptr, ptr %152, align 8, !tbaa !137
  %154 = icmp eq ptr %153, null
  br i1 %154, label %155, label %156

155:                                              ; preds = %144
  call void @_ZSt16__throw_bad_castv() #27
  unreachable

156:                                              ; preds = %144
  %157 = getelementptr inbounds %"class.std::ctype", ptr %153, i64 0, i32 8
  %158 = load i8, ptr %157, align 8, !tbaa !144
  %159 = icmp eq i8 %158, 0
  br i1 %159, label %163, label %160

160:                                              ; preds = %156
  %161 = getelementptr inbounds %"class.std::ctype", ptr %153, i64 0, i32 9, i64 10
  %162 = load i8, ptr %161, align 1, !tbaa !13
  br label %168

163:                                              ; preds = %156
  call void @_ZNKSt5ctypeIcE13_M_widen_initEv(ptr noundef nonnull align 8 dereferenceable(570) %153)
  %164 = load ptr, ptr %153, align 8, !tbaa !135
  %165 = getelementptr inbounds ptr, ptr %164, i64 6
  %166 = load ptr, ptr %165, align 8
  %167 = call noundef signext i8 %166(ptr noundef nonnull align 8 dereferenceable(570) %153, i8 noundef signext 10)
  br label %168

168:                                              ; preds = %160, %163
  %169 = phi i8 [ %162, %160 ], [ %167, %163 ]
  %170 = call noundef nonnull align 8 dereferenceable(8) ptr @_ZNSo3putEc(ptr noundef nonnull align 8 dereferenceable(8) %146, i8 noundef signext %169)
  %171 = call noundef nonnull align 8 dereferenceable(8) ptr @_ZNSo5flushEv(ptr noundef nonnull align 8 dereferenceable(8) %170)
  br label %431

172:                                              ; preds = %90
  %173 = add nsw i32 %52, -1
  %174 = sext i32 %173 to i64
  %175 = sub i64 %111, %119
  %176 = ashr exact i64 %175, 7
  %177 = add nsw i64 %176, %174
  %178 = icmp sgt i64 %177, -1
  br i1 %178, label %179, label %183

179:                                              ; preds = %172
  %180 = icmp ult i64 %177, 4
  br i1 %180, label %196, label %181

181:                                              ; preds = %179
  %182 = lshr i64 %177, 2
  br label %186

183:                                              ; preds = %172
  %184 = lshr i64 %177, 2
  %185 = or i64 %184, -4611686018427387904
  br label %186

186:                                              ; preds = %181, %183
  %187 = phi i64 [ %182, %181 ], [ %185, %183 ]
  %188 = getelementptr inbounds ptr, ptr %92, i64 %187
  %189 = load ptr, ptr %188, align 8, !tbaa !41, !noalias !224
  %190 = shl nsw i64 %187, 2
  %191 = sub nsw i64 %177, %190
  %192 = getelementptr inbounds %"class.PP::Word", ptr %189, i64 %191, i32 1
  %193 = load i32, ptr %192, align 8, !tbaa !96
  %194 = and i32 %193, -2
  %195 = icmp eq i32 %194, 2
  br i1 %195, label %334, label %201

196:                                              ; preds = %179
  %197 = getelementptr inbounds %"class.PP::Word", ptr %109, i64 %174, i32 1
  %198 = load i32, ptr %197, align 8, !tbaa !96
  %199 = and i32 %198, -2
  %200 = icmp eq i32 %199, 2
  br i1 %200, label %337, label %204

201:                                              ; preds = %186
  br i1 %178, label %202, label %208

202:                                              ; preds = %201
  %203 = icmp ult i64 %177, 4
  br i1 %203, label %204, label %206

204:                                              ; preds = %196, %202
  %205 = getelementptr inbounds %"class.PP::Word", ptr %109, i64 %174
  br label %218

206:                                              ; preds = %202
  %207 = lshr i64 %177, 2
  br label %211

208:                                              ; preds = %201
  %209 = lshr i64 %177, 2
  %210 = or i64 %209, -4611686018427387904
  br label %211

211:                                              ; preds = %208, %206
  %212 = phi i64 [ %207, %206 ], [ %210, %208 ]
  %213 = getelementptr inbounds ptr, ptr %92, i64 %212
  %214 = load ptr, ptr %213, align 8, !tbaa !41, !noalias !227
  %215 = shl nsw i64 %212, 2
  %216 = sub nsw i64 %177, %215
  %217 = getelementptr inbounds %"class.PP::Word", ptr %214, i64 %216
  br label %218

218:                                              ; preds = %204, %211
  %219 = phi ptr [ %217, %211 ], [ %205, %204 ]
  call void @_ZN2PP4Word11fatal_errorERNSt7__cxx1118basic_stringstreamIcSt11char_traitsIcESaIcEEERi(ptr noundef nonnull align 8 dereferenceable(128) %219, ptr noundef nonnull align 8 dereferenceable(128) %1, ptr noundef nonnull align 4 dereferenceable(4) %2)
  %220 = getelementptr inbounds i8, ptr %1, i64 16
  %221 = call noundef nonnull align 8 dereferenceable(8) ptr @_ZSt16__ostream_insertIcSt11char_traitsIcEERSt13basic_ostreamIT_T0_ES6_PKS3_l(ptr noundef nonnull align 8 dereferenceable(8) %220, ptr noundef nonnull @.str.31, i64 noundef 48)
  %222 = load ptr, ptr %220, align 8, !tbaa !135
  %223 = getelementptr i8, ptr %222, i64 -24
  %224 = load i64, ptr %223, align 8
  %225 = getelementptr inbounds i8, ptr %220, i64 %224
  %226 = getelementptr inbounds %"class.std::basic_ios", ptr %225, i64 0, i32 5
  %227 = load ptr, ptr %226, align 8, !tbaa !137
  %228 = icmp eq ptr %227, null
  br i1 %228, label %229, label %230

229:                                              ; preds = %218
  call void @_ZSt16__throw_bad_castv() #27
  unreachable

230:                                              ; preds = %218
  %231 = getelementptr inbounds %"class.std::ctype", ptr %227, i64 0, i32 8
  %232 = load i8, ptr %231, align 8, !tbaa !144
  %233 = icmp eq i8 %232, 0
  br i1 %233, label %237, label %234

234:                                              ; preds = %230
  %235 = getelementptr inbounds %"class.std::ctype", ptr %227, i64 0, i32 9, i64 10
  %236 = load i8, ptr %235, align 1, !tbaa !13
  br label %242

237:                                              ; preds = %230
  call void @_ZNKSt5ctypeIcE13_M_widen_initEv(ptr noundef nonnull align 8 dereferenceable(570) %227)
  %238 = load ptr, ptr %227, align 8, !tbaa !135
  %239 = getelementptr inbounds ptr, ptr %238, i64 6
  %240 = load ptr, ptr %239, align 8
  %241 = call noundef signext i8 %240(ptr noundef nonnull align 8 dereferenceable(570) %227, i8 noundef signext 10)
  br label %242

242:                                              ; preds = %234, %237
  %243 = phi i8 [ %236, %234 ], [ %241, %237 ]
  %244 = call noundef nonnull align 8 dereferenceable(8) ptr @_ZNSo3putEc(ptr noundef nonnull align 8 dereferenceable(8) %220, i8 noundef signext %243)
  %245 = call noundef nonnull align 8 dereferenceable(8) ptr @_ZNSo5flushEv(ptr noundef nonnull align 8 dereferenceable(8) %244)
  %246 = call noundef nonnull align 8 dereferenceable(8) ptr @_ZSt16__ostream_insertIcSt11char_traitsIcEERSt13basic_ostreamIT_T0_ES6_PKS3_l(ptr noundef nonnull align 8 dereferenceable(8) %220, ptr noundef nonnull @.str.25, i64 noundef 16)
  call void @llvm.lifetime.start.p0(i64 32, ptr nonnull %8) #24
  %247 = load ptr, ptr %12, align 8, !tbaa !60, !noalias !230
  %248 = load ptr, ptr %19, align 8, !tbaa !64, !noalias !230
  %249 = load ptr, ptr %14, align 8, !tbaa !65, !noalias !230
  %250 = ptrtoint ptr %247 to i64
  %251 = ptrtoint ptr %248 to i64
  %252 = sub i64 %250, %251
  %253 = ashr exact i64 %252, 7
  %254 = add nsw i64 %253, %174
  %255 = icmp sgt i64 %254, -1
  br i1 %255, label %256, label %262

256:                                              ; preds = %242
  %257 = icmp ult i64 %254, 4
  br i1 %257, label %258, label %260

258:                                              ; preds = %256
  %259 = getelementptr inbounds %"class.PP::Word", ptr %247, i64 %174
  br label %272

260:                                              ; preds = %256
  %261 = lshr i64 %254, 2
  br label %265

262:                                              ; preds = %242
  %263 = lshr i64 %254, 2
  %264 = or i64 %263, -4611686018427387904
  br label %265

265:                                              ; preds = %262, %260
  %266 = phi i64 [ %261, %260 ], [ %264, %262 ]
  %267 = getelementptr inbounds ptr, ptr %249, i64 %266
  %268 = load ptr, ptr %267, align 8, !tbaa !41, !noalias !230
  %269 = shl nsw i64 %266, 2
  %270 = sub nsw i64 %254, %269
  %271 = getelementptr inbounds %"class.PP::Word", ptr %268, i64 %270
  br label %272

272:                                              ; preds = %258, %265
  %273 = phi ptr [ %271, %265 ], [ %259, %258 ]
  call void @llvm.experimental.noalias.scope.decl(metadata !233)
  %274 = getelementptr inbounds %"class.std::__cxx11::basic_string", ptr %8, i64 0, i32 2
  store ptr %274, ptr %8, align 8, !tbaa !5, !alias.scope !233
  %275 = load ptr, ptr %273, align 8, !tbaa !36, !noalias !233
  %276 = getelementptr inbounds %"class.std::__cxx11::basic_string", ptr %273, i64 0, i32 1
  %277 = load i64, ptr %276, align 8, !tbaa !10, !noalias !233
  call void @llvm.lifetime.start.p0(i64 8, ptr nonnull %6) #24, !noalias !233
  store i64 %277, ptr %6, align 8, !tbaa !55, !noalias !233
  %278 = icmp ugt i64 %277, 15
  br i1 %278, label %279, label %282

279:                                              ; preds = %272
  %280 = call noundef ptr @_ZNSt7__cxx1112basic_stringIcSt11char_traitsIcESaIcEE9_M_createERmm(ptr noundef nonnull align 8 dereferenceable(32) %8, ptr noundef nonnull align 8 dereferenceable(8) %6, i64 noundef 0)
  store ptr %280, ptr %8, align 8, !tbaa !36, !alias.scope !233
  %281 = load i64, ptr %6, align 8, !tbaa !55, !noalias !233
  store i64 %281, ptr %274, align 8, !tbaa !13, !alias.scope !233
  br label %282

282:                                              ; preds = %279, %272
  %283 = phi ptr [ %280, %279 ], [ %274, %272 ]
  switch i64 %277, label %286 [
    i64 1, label %284
    i64 0, label %287
  ]

284:                                              ; preds = %282
  %285 = load i8, ptr %275, align 1, !tbaa !13
  store i8 %285, ptr %283, align 1, !tbaa !13
  br label %287

286:                                              ; preds = %282
  call void @llvm.memcpy.p0.p0.i64(ptr align 1 %283, ptr align 1 %275, i64 %277, i1 false)
  br label %287

287:                                              ; preds = %282, %284, %286
  %288 = load i64, ptr %6, align 8, !tbaa !55, !noalias !233
  %289 = getelementptr inbounds %"class.std::__cxx11::basic_string", ptr %8, i64 0, i32 1
  store i64 %288, ptr %289, align 8, !tbaa !10, !alias.scope !233
  %290 = load ptr, ptr %8, align 8, !tbaa !36, !alias.scope !233
  %291 = getelementptr inbounds i8, ptr %290, i64 %288
  store i8 0, ptr %291, align 1, !tbaa !13
  call void @llvm.lifetime.end.p0(i64 8, ptr nonnull %6) #24, !noalias !233
  %292 = load ptr, ptr %8, align 8, !tbaa !36
  %293 = load i64, ptr %289, align 8, !tbaa !10
  %294 = invoke noundef nonnull align 8 dereferenceable(8) ptr @_ZSt16__ostream_insertIcSt11char_traitsIcEERSt13basic_ostreamIT_T0_ES6_PKS3_l(ptr noundef nonnull align 8 dereferenceable(8) %220, ptr noundef %292, i64 noundef %293)
          to label %295 unwind label %328

295:                                              ; preds = %287
  %296 = load ptr, ptr %294, align 8, !tbaa !135
  %297 = getelementptr i8, ptr %296, i64 -24
  %298 = load i64, ptr %297, align 8
  %299 = getelementptr inbounds i8, ptr %294, i64 %298
  %300 = getelementptr inbounds %"class.std::basic_ios", ptr %299, i64 0, i32 5
  %301 = load ptr, ptr %300, align 8, !tbaa !137
  %302 = icmp eq ptr %301, null
  br i1 %302, label %303, label %305

303:                                              ; preds = %295
  invoke void @_ZSt16__throw_bad_castv() #27
          to label %304 unwind label %328

304:                                              ; preds = %303
  unreachable

305:                                              ; preds = %295
  %306 = getelementptr inbounds %"class.std::ctype", ptr %301, i64 0, i32 8
  %307 = load i8, ptr %306, align 8, !tbaa !144
  %308 = icmp eq i8 %307, 0
  br i1 %308, label %312, label %309

309:                                              ; preds = %305
  %310 = getelementptr inbounds %"class.std::ctype", ptr %301, i64 0, i32 9, i64 10
  %311 = load i8, ptr %310, align 1, !tbaa !13
  br label %318

312:                                              ; preds = %305
  invoke void @_ZNKSt5ctypeIcE13_M_widen_initEv(ptr noundef nonnull align 8 dereferenceable(570) %301)
          to label %313 unwind label %328

313:                                              ; preds = %312
  %314 = load ptr, ptr %301, align 8, !tbaa !135
  %315 = getelementptr inbounds ptr, ptr %314, i64 6
  %316 = load ptr, ptr %315, align 8
  %317 = invoke noundef signext i8 %316(ptr noundef nonnull align 8 dereferenceable(570) %301, i8 noundef signext 10)
          to label %318 unwind label %328

318:                                              ; preds = %313, %309
  %319 = phi i8 [ %311, %309 ], [ %317, %313 ]
  %320 = invoke noundef nonnull align 8 dereferenceable(8) ptr @_ZNSo3putEc(ptr noundef nonnull align 8 dereferenceable(8) %294, i8 noundef signext %319)
          to label %321 unwind label %328

321:                                              ; preds = %318
  %322 = invoke noundef nonnull align 8 dereferenceable(8) ptr @_ZNSo5flushEv(ptr noundef nonnull align 8 dereferenceable(8) %320)
          to label %323 unwind label %328

323:                                              ; preds = %321
  %324 = load ptr, ptr %8, align 8, !tbaa !36
  %325 = icmp eq ptr %324, %274
  br i1 %325, label %327, label %326

326:                                              ; preds = %323
  call void @_ZdlPv(ptr noundef %324) #25
  br label %327

327:                                              ; preds = %323, %326
  call void @llvm.lifetime.end.p0(i64 32, ptr nonnull %8) #24
  br label %431

328:                                              ; preds = %321, %318, %313, %312, %303, %287
  %329 = landingpad { ptr, i32 }
          cleanup
  %330 = load ptr, ptr %8, align 8, !tbaa !36
  %331 = icmp eq ptr %330, %274
  br i1 %331, label %333, label %332

332:                                              ; preds = %328
  call void @_ZdlPv(ptr noundef %330) #25
  br label %333

333:                                              ; preds = %328, %332
  call void @llvm.lifetime.end.p0(i64 32, ptr nonnull %8) #24
  br label %429

334:                                              ; preds = %186
  br i1 %178, label %335, label %341

335:                                              ; preds = %334
  %336 = icmp ult i64 %177, 4
  br i1 %336, label %337, label %339

337:                                              ; preds = %196, %335
  %338 = getelementptr inbounds %"class.PP::Word", ptr %109, i64 %174
  br label %351

339:                                              ; preds = %335
  %340 = lshr i64 %177, 2
  br label %344

341:                                              ; preds = %334
  %342 = lshr i64 %177, 2
  %343 = or i64 %342, -4611686018427387904
  br label %344

344:                                              ; preds = %341, %339
  %345 = phi i64 [ %340, %339 ], [ %343, %341 ]
  %346 = getelementptr inbounds ptr, ptr %92, i64 %345
  %347 = load ptr, ptr %346, align 8, !tbaa !41, !noalias !236
  %348 = shl nsw i64 %345, 2
  %349 = sub nsw i64 %177, %348
  %350 = getelementptr inbounds %"class.PP::Word", ptr %347, i64 %349
  br label %351

351:                                              ; preds = %337, %344
  %352 = phi ptr [ %350, %344 ], [ %338, %337 ]
  %353 = call noundef i32 @_ZN2PP4Word7get_intERNSt7__cxx1118basic_stringstreamIcSt11char_traitsIcESaIcEEERi(ptr noundef nonnull align 8 dereferenceable(128) %352, ptr noundef nonnull align 8 dereferenceable(128) %1, ptr noundef nonnull align 4 dereferenceable(4) %2)
  %354 = add nuw nsw i32 %52, 1
  %355 = sext i32 %354 to i64
  %356 = load ptr, ptr %12, align 8, !tbaa !60, !noalias !239
  %357 = load ptr, ptr %19, align 8, !tbaa !64, !noalias !239
  %358 = load ptr, ptr %14, align 8, !tbaa !65, !noalias !239
  %359 = ptrtoint ptr %356 to i64
  %360 = ptrtoint ptr %357 to i64
  %361 = sub i64 %359, %360
  %362 = ashr exact i64 %361, 7
  %363 = add nsw i64 %362, %355
  %364 = icmp sgt i64 %363, -1
  br i1 %364, label %365, label %377

365:                                              ; preds = %351
  %366 = icmp ult i64 %363, 4
  br i1 %366, label %367, label %370

367:                                              ; preds = %365
  %368 = getelementptr inbounds %"class.PP::Word", ptr %356, i64 %355, i32 4
  store i32 %353, ptr %368, align 8, !tbaa !242
  call void @llvm.lifetime.start.p0(i64 128, ptr nonnull %9) #24
  %369 = getelementptr inbounds %"class.PP::Word", ptr %356, i64 %355
  br label %391

370:                                              ; preds = %365
  %371 = lshr i64 %363, 2
  %372 = getelementptr inbounds ptr, ptr %358, i64 %371
  %373 = load ptr, ptr %372, align 8, !tbaa !41, !noalias !239
  %374 = and i64 %363, 3
  %375 = getelementptr inbounds %"class.PP::Word", ptr %373, i64 %374, i32 4
  store i32 %353, ptr %375, align 8, !tbaa !242
  call void @llvm.lifetime.start.p0(i64 128, ptr nonnull %9) #24
  %376 = and i64 %363, 3
  br label %385

377:                                              ; preds = %351
  %378 = lshr i64 %363, 2
  %379 = or i64 %378, -4611686018427387904
  %380 = getelementptr inbounds ptr, ptr %358, i64 %379
