; ModuleID = '/usr/local/google/home/aeubanks/repos/test-suite/MicroBenchmarks/libs/benchmark/src/json_reporter.cc'
source_filename = "/usr/local/google/home/aeubanks/repos/test-suite/MicroBenchmarks/libs/benchmark/src/json_reporter.cc"
target datalayout = "e-m:e-p270:32:32-p271:32:32-p272:64:64-i64:64-f80:128-n8:16:32:64-S128"
target triple = "x86_64-unknown-linux-gnu"

%"class.std::ios_base::Init" = type { i8 }
%"class.std::__cxx11::basic_string" = type { %"struct.std::__cxx11::basic_string<char>::_Alloc_hider", i64, %union.anon }
%"struct.std::__cxx11::basic_string<char>::_Alloc_hider" = type { ptr }
%union.anon = type { i64, [8 x i8] }
%"class.benchmark::BenchmarkReporter" = type { ptr, ptr, ptr }
%"struct.benchmark::BenchmarkReporter::Context" = type { ptr, ptr, i64 }
%"struct.benchmark::CPUInfo" = type { i32, i32, double, %"class.std::vector", %"class.std::vector.3" }
%"class.std::vector" = type { %"struct.std::_Vector_base" }
%"struct.std::_Vector_base" = type { %"struct.std::_Vector_base<benchmark::CPUInfo::CacheInfo, std::allocator<benchmark::CPUInfo::CacheInfo>>::_Vector_impl" }
%"struct.std::_Vector_base<benchmark::CPUInfo::CacheInfo, std::allocator<benchmark::CPUInfo::CacheInfo>>::_Vector_impl" = type { %"struct.std::_Vector_base<benchmark::CPUInfo::CacheInfo, std::allocator<benchmark::CPUInfo::CacheInfo>>::_Vector_impl_data" }
%"struct.std::_Vector_base<benchmark::CPUInfo::CacheInfo, std::allocator<benchmark::CPUInfo::CacheInfo>>::_Vector_impl_data" = type { ptr, ptr, ptr }
%"class.std::vector.3" = type { %"struct.std::_Vector_base.4" }
%"struct.std::_Vector_base.4" = type { %"struct.std::_Vector_base<double, std::allocator<double>>::_Vector_impl" }
%"struct.std::_Vector_base<double, std::allocator<double>>::_Vector_impl" = type { %"struct.std::_Vector_base<double, std::allocator<double>>::_Vector_impl_data" }
%"struct.std::_Vector_base<double, std::allocator<double>>::_Vector_impl_data" = type { ptr, ptr, ptr }
%"struct.benchmark::CPUInfo::CacheInfo" = type <{ %"class.std::__cxx11::basic_string", i32, i32, i32, [4 x i8] }>
%"struct.std::_Rb_tree_node" = type { %"struct.std::_Rb_tree_node_base", %"struct.__gnu_cxx::__aligned_membuf" }
%"struct.std::_Rb_tree_node_base" = type { i32, ptr, ptr, ptr }
%"struct.__gnu_cxx::__aligned_membuf" = type { [64 x i8] }
%"class.std::__cxx11::basic_stringstream" = type { %"class.std::basic_iostream.base", %"class.std::__cxx11::basic_stringbuf", %"class.std::basic_ios" }
%"class.std::basic_iostream.base" = type { %"class.std::basic_istream.base", %"class.std::basic_ostream.base" }
%"class.std::basic_istream.base" = type { ptr, i64 }
%"class.std::basic_ostream.base" = type { ptr }
%"class.std::__cxx11::basic_stringbuf" = type { %"class.std::basic_streambuf", i32, %"class.std::__cxx11::basic_string" }
%"class.std::basic_streambuf" = type { ptr, ptr, ptr, ptr, ptr, ptr, ptr, %"class.std::locale" }
%"class.std::locale" = type { ptr }
%"class.std::basic_ios" = type { %"class.std::ios_base", ptr, i8, i8, ptr, ptr, ptr, ptr }
%"class.std::ios_base" = type { ptr, i64, i64, i32, i32, i32, ptr, %"struct.std::ios_base::_Words", [8 x %"struct.std::ios_base::_Words"], i32, ptr, %"class.std::locale" }
%"struct.std::ios_base::_Words" = type { ptr, i64 }
%"class.std::basic_istream" = type { ptr, i64, %"class.std::basic_ios" }
%"struct.std::_Vector_base<benchmark::BenchmarkReporter::Run, std::allocator<benchmark::BenchmarkReporter::Run>>::_Vector_impl_data" = type { ptr, ptr, ptr }
%"class.benchmark::JSONReporter" = type <{ %"class.benchmark::BenchmarkReporter", i8, [7 x i8] }>
%"struct.benchmark::BenchmarkReporter::Run" = type { %"struct.benchmark::BenchmarkName", i64, i64, i32, %"class.std::__cxx11::basic_string", i32, %"class.std::__cxx11::basic_string", i8, %"class.std::__cxx11::basic_string", i64, i64, i64, i64, i32, double, double, double, i32, ptr, i64, ptr, i8, i8, %"class.std::map.21", ptr, double }
%"struct.benchmark::BenchmarkName" = type { %"class.std::__cxx11::basic_string", %"class.std::__cxx11::basic_string", %"class.std::__cxx11::basic_string", %"class.std::__cxx11::basic_string", %"class.std::__cxx11::basic_string", %"class.std::__cxx11::basic_string", %"class.std::__cxx11::basic_string" }
%"class.std::map.21" = type { %"class.std::_Rb_tree.22" }
%"class.std::_Rb_tree.22" = type { %"struct.std::_Rb_tree<std::__cxx11::basic_string<char>, std::pair<const std::__cxx11::basic_string<char>, benchmark::Counter>, std::_Select1st<std::pair<const std::__cxx11::basic_string<char>, benchmark::Counter>>, std::less<std::__cxx11::basic_string<char>>>::_Rb_tree_impl" }
%"struct.std::_Rb_tree<std::__cxx11::basic_string<char>, std::pair<const std::__cxx11::basic_string<char>, benchmark::Counter>, std::_Select1st<std::pair<const std::__cxx11::basic_string<char>, benchmark::Counter>>, std::less<std::__cxx11::basic_string<char>>>::_Rb_tree_impl" = type { %"struct.std::_Rb_tree_key_compare", %"struct.std::_Rb_tree_header" }
%"struct.std::_Rb_tree_key_compare" = type { %"struct.std::less" }
%"struct.std::less" = type { i8 }
%"struct.std::_Rb_tree_header" = type { %"struct.std::_Rb_tree_node_base", i64 }
%class.anon.30 = type { ptr, ptr }
%"struct.std::_Rb_tree_node.33" = type { %"struct.std::_Rb_tree_node_base", %"struct.__gnu_cxx::__aligned_membuf.34" }
%"struct.__gnu_cxx::__aligned_membuf.34" = type { [48 x i8] }

$_ZN9benchmark12JSONReporterD0Ev = comdat any

@_ZStL8__ioinit = internal global %"class.std::ios_base::Init" zeroinitializer, align 1
@__dso_handle = external hidden global i8
@.str = private unnamed_addr constant [3 x i8] c"{\0A\00", align 1
@.str.2 = private unnamed_addr constant [14 x i8] c"\22context\22: {\0A\00", align 1
@.str.4 = private unnamed_addr constant [3 x i8] c",\0A\00", align 1
@.str.5 = private unnamed_addr constant [10 x i8] c"host_name\00", align 1
@_ZN9benchmark17BenchmarkReporter7Context15executable_nameE = external local_unnamed_addr global ptr, align 8
@.str.6 = private unnamed_addr constant [11 x i8] c"executable\00", align 1
@.str.8 = private unnamed_addr constant [12 x i8] c"mhz_per_cpu\00", align 1
@.str.9 = private unnamed_addr constant [20 x i8] c"cpu_scaling_enabled\00", align 1
@.str.10 = private unnamed_addr constant [13 x i8] c"\22caches\22: [\0A\00", align 1
@.str.12 = private unnamed_addr constant [6 x i8] c"level\00", align 1
@.str.14 = private unnamed_addr constant [12 x i8] c"num_sharing\00", align 1
@.str.15 = private unnamed_addr constant [2 x i8] c"\0A\00", align 1
@.str.16 = private unnamed_addr constant [2 x i8] c"}\00", align 1
@.str.17 = private unnamed_addr constant [2 x i8] c",\00", align 1
@.str.18 = private unnamed_addr constant [4 x i8] c"],\0A\00", align 1
@.str.19 = private unnamed_addr constant [14 x i8] c"\22load_avg\22: [\00", align 1
@.str.20 = private unnamed_addr constant [19 x i8] c"library_build_type\00", align 1
@_ZN9benchmark8internal14global_contextB5cxx11E = external local_unnamed_addr global ptr, align 8
@.str.21 = private unnamed_addr constant [4 x i8] c"},\0A\00", align 1
@.str.22 = private unnamed_addr constant [17 x i8] c"\22benchmarks\22: [\0A\00", align 1
@.str.23 = private unnamed_addr constant [8 x i8] c"\0A  ]\0A}\0A\00", align 1
@.str.25 = private unnamed_addr constant [13 x i8] c"family_index\00", align 1
@.str.26 = private unnamed_addr constant [26 x i8] c"per_family_instance_index\00", align 1
@.str.29 = private unnamed_addr constant [12 x i8] c"repetitions\00", align 1
@.str.30 = private unnamed_addr constant [17 x i8] c"repetition_index\00", align 1
@.str.31 = private unnamed_addr constant [8 x i8] c"threads\00", align 1
@.str.32 = private unnamed_addr constant [15 x i8] c"aggregate_name\00", align 1
@.str.33 = private unnamed_addr constant [15 x i8] c"aggregate_unit\00", align 1
@.str.34 = private unnamed_addr constant [15 x i8] c"error_occurred\00", align 1
@.str.35 = private unnamed_addr constant [14 x i8] c"error_message\00", align 1
@.str.36 = private unnamed_addr constant [11 x i8] c"iterations\00", align 1
@.str.37 = private unnamed_addr constant [10 x i8] c"real_time\00", align 1
@.str.39 = private unnamed_addr constant [10 x i8] c"time_unit\00", align 1
@.str.40 = private unnamed_addr constant [16 x i8] c"cpu_coefficient\00", align 1
@.str.41 = private unnamed_addr constant [17 x i8] c"real_coefficient\00", align 1
@.str.42 = private unnamed_addr constant [6 x i8] c"big_o\00", align 1
@.str.43 = private unnamed_addr constant [4 x i8] c"rms\00", align 1
@.str.44 = private unnamed_addr constant [16 x i8] c"allocs_per_iter\00", align 1
@.str.45 = private unnamed_addr constant [15 x i8] c"max_bytes_used\00", align 1
@.str.46 = private unnamed_addr constant [22 x i8] c"total_allocated_bytes\00", align 1
@.str.47 = private unnamed_addr constant [16 x i8] c"net_heap_growth\00", align 1
@.str.48 = private unnamed_addr constant [6 x i8] c"label\00", align 1
@_ZN9benchmark13MemoryManager14TombstoneValueE = hidden local_unnamed_addr constant i64 9223372036854775807, align 8
@_ZTVN9benchmark12JSONReporterE = hidden unnamed_addr constant { [7 x ptr] } { [7 x ptr] [ptr null, ptr @_ZTIN9benchmark12JSONReporterE, ptr @_ZN9benchmark12JSONReporter13ReportContextERKNS_17BenchmarkReporter7ContextE, ptr @_ZN9benchmark12JSONReporter10ReportRunsERKSt6vectorINS_17BenchmarkReporter3RunESaIS3_EE, ptr @_ZN9benchmark12JSONReporter8FinalizeEv, ptr @_ZN9benchmark17BenchmarkReporterD2Ev, ptr @_ZN9benchmark12JSONReporterD0Ev] }, align 8
@_ZTVN10__cxxabiv120__si_class_type_infoE = external global ptr
@_ZTSN9benchmark12JSONReporterE = hidden constant [27 x i8] c"N9benchmark12JSONReporterE\00", align 1
@_ZTIN9benchmark17BenchmarkReporterE = external constant ptr
@_ZTIN9benchmark12JSONReporterE = hidden constant { ptr, ptr, ptr } { ptr getelementptr inbounds (ptr, ptr @_ZTVN10__cxxabiv120__si_class_type_infoE, i64 2), ptr @_ZTSN9benchmark12JSONReporterE, ptr @_ZTIN9benchmark17BenchmarkReporterE }, align 8
@.str.49 = private unnamed_addr constant [11 x i8] c"\22%s\22: \22%s\22\00", align 1
@.str.50 = private unnamed_addr constant [3 x i8] c"\\b\00", align 1
@.str.51 = private unnamed_addr constant [3 x i8] c"\\f\00", align 1
@.str.52 = private unnamed_addr constant [3 x i8] c"\\n\00", align 1
@.str.53 = private unnamed_addr constant [3 x i8] c"\\r\00", align 1
@.str.54 = private unnamed_addr constant [3 x i8] c"\\t\00", align 1
@.str.55 = private unnamed_addr constant [3 x i8] c"\\\\\00", align 1
@.str.56 = private unnamed_addr constant [3 x i8] c"\\\22\00", align 1
@.str.57 = private unnamed_addr constant [21 x i8] c"basic_string::append\00", align 1
@.str.58 = private unnamed_addr constant [4 x i8] c"\22: \00", align 1
@_ZTTNSt7__cxx1118basic_stringstreamIcSt11char_traitsIcESaIcEEE = external unnamed_addr constant [10 x ptr], align 8
@_ZTVNSt7__cxx1115basic_stringbufIcSt11char_traitsIcESaIcEEE = external unnamed_addr constant { [16 x ptr] }, align 8
@_ZTVSt15basic_streambufIcSt11char_traitsIcEE = external unnamed_addr constant { [16 x ptr] }, align 8
@.str.61 = private unnamed_addr constant [9 x i8] c"\22%s\22: %s\00", align 1
@.str.62 = private unnamed_addr constant [5 x i8] c"true\00", align 1
@.str.63 = private unnamed_addr constant [6 x i8] c"false\00", align 1
@.str.64 = private unnamed_addr constant [10 x i8] c"iteration\00", align 1
@.str.65 = private unnamed_addr constant [10 x i8] c"aggregate\00", align 1
@.str.66 = private unnamed_addr constant [5 x i8] c"time\00", align 1
@.str.67 = private unnamed_addr constant [11 x i8] c"percentage\00", align 1
@.str.68 = private unnamed_addr constant [2 x i8] c"-\00", align 1
@.str.69 = private unnamed_addr constant [1 x i8] zeroinitializer, align 1
@.str.70 = private unnamed_addr constant [4 x i8] c"NaN\00", align 1
@.str.71 = private unnamed_addr constant [9 x i8] c"Infinity\00", align 1
@.str.72 = private unnamed_addr constant [2 x i8] c"s\00", align 1
@.str.73 = private unnamed_addr constant [3 x i8] c"ms\00", align 1
@.str.74 = private unnamed_addr constant [3 x i8] c"us\00", align 1
@.str.75 = private unnamed_addr constant [3 x i8] c"ns\00", align 1
@.str.76 = private unnamed_addr constant [50 x i8] c"basic_string: construction from null is not valid\00", align 1
@llvm.global_ctors = appending global [1 x { i32, ptr, ptr }] [{ i32, ptr, ptr } { i32 65535, ptr @_GLOBAL__sub_I_json_reporter.cc, ptr null }]
@switch.table._ZN9benchmark12JSONReporter12PrintRunDataERKNS_17BenchmarkReporter3RunE.81 = private unnamed_addr constant [4 x ptr] [ptr @.str.75, ptr @.str.74, ptr @.str.73, ptr @.str.72], align 8

declare void @_ZNSt8ios_base4InitC1Ev(ptr noundef nonnull align 1 dereferenceable(1)) unnamed_addr #0

; Function Attrs: nounwind
declare void @_ZNSt8ios_base4InitD1Ev(ptr noundef nonnull align 1 dereferenceable(1)) unnamed_addr #1

; Function Attrs: nofree nounwind
declare i32 @__cxa_atexit(ptr, ptr, ptr) local_unnamed_addr #2

declare noundef i32 @_ZN9benchmark8internal17InitializeStreamsEv() local_unnamed_addr #0

; Function Attrs: uwtable
define hidden noundef zeroext i1 @_ZN9benchmark12JSONReporter13ReportContextERKNS_17BenchmarkReporter7ContextE(ptr nocapture noundef nonnull readonly align 8 dereferenceable(25) %this, ptr nocapture noundef nonnull readonly align 8 dereferenceable(24) %context) unnamed_addr #3 align 2 personality ptr @__gxx_personality_v0 {
entry:
  %__dnew.i.i943 = alloca i64, align 8
  %ref.tmp.i = alloca %"class.std::__cxx11::basic_string", align 8
  %__dnew.i.i631 = alloca i64, align 8
  %inner_indent = alloca %"class.std::__cxx11::basic_string", align 8
  %indent = alloca %"class.std::__cxx11::basic_string", align 8
  %walltime_value = alloca %"class.std::__cxx11::basic_string", align 8
  %ref.tmp16 = alloca %"class.std::__cxx11::basic_string", align 8
  %ref.tmp17 = alloca %"class.std::__cxx11::basic_string", align 8
  %ref.tmp34 = alloca %"class.std::__cxx11::basic_string", align 8
  %ref.tmp35 = alloca %"class.std::__cxx11::basic_string", align 8
  %ref.tmp54 = alloca %"class.std::__cxx11::basic_string", align 8
  %ref.tmp55 = alloca %"class.std::__cxx11::basic_string", align 8
  %ref.tmp75 = alloca %"class.std::__cxx11::basic_string", align 8
  %ref.tmp76 = alloca %"class.std::__cxx11::basic_string", align 8
  %ref.tmp95 = alloca %"class.std::__cxx11::basic_string", align 8
  %ref.tmp96 = alloca %"class.std::__cxx11::basic_string", align 8
  %ref.tmp118 = alloca %"class.std::__cxx11::basic_string", align 8
  %ref.tmp119 = alloca %"class.std::__cxx11::basic_string", align 8
  %ref.tmp143 = alloca %"class.std::__cxx11::basic_string", align 8
  %cache_indent = alloca %"class.std::__cxx11::basic_string", align 8
  %ref.tmp167 = alloca %"class.std::__cxx11::basic_string", align 8
  %ref.tmp168 = alloca %"class.std::__cxx11::basic_string", align 8
  %ref.tmp187 = alloca %"class.std::__cxx11::basic_string", align 8
  %ref.tmp188 = alloca %"class.std::__cxx11::basic_string", align 8
  %ref.tmp208 = alloca %"class.std::__cxx11::basic_string", align 8
  %ref.tmp209 = alloca %"class.std::__cxx11::basic_string", align 8
  %ref.tmp229 = alloca %"class.std::__cxx11::basic_string", align 8
  %ref.tmp230 = alloca %"class.std::__cxx11::basic_string", align 8
  %ref.tmp263 = alloca %"class.std::__cxx11::basic_string", align 8
  %build_type = alloca [8 x i8], align 8
  %ref.tmp314 = alloca %"class.std::__cxx11::basic_string", align 8
  %ref.tmp315 = alloca %"class.std::__cxx11::basic_string", align 8
  %ref.tmp346 = alloca %"class.std::__cxx11::basic_string", align 8
  %output_stream_.i = getelementptr inbounds %"class.benchmark::BenchmarkReporter", ptr %this, i64 0, i32 1
  %0 = load ptr, ptr %output_stream_.i, align 8, !tbaa !5
  %call1.i = tail call noundef nonnull align 8 dereferenceable(8) ptr @_ZSt16__ostream_insertIcSt11char_traitsIcEERSt13basic_ostreamIT_T0_ES6_PKS3_l(ptr noundef nonnull align 8 dereferenceable(8) %0, ptr noundef nonnull @.str, i64 noundef 2)
  call void @llvm.lifetime.start.p0(i64 32, ptr nonnull %inner_indent) #16
  %1 = getelementptr inbounds %"class.std::__cxx11::basic_string", ptr %inner_indent, i64 0, i32 2
  store ptr %1, ptr %inner_indent, align 8, !tbaa !10
  call void @_ZNSt7__cxx1112basic_stringIcSt11char_traitsIcESaIcEE12_M_constructEmc(ptr noundef nonnull align 8 dereferenceable(32) %inner_indent, i64 noundef 2, i8 noundef signext 32)
  %2 = load ptr, ptr %inner_indent, align 8, !tbaa !12
  %_M_string_length.i.i = getelementptr inbounds %"class.std::__cxx11::basic_string", ptr %inner_indent, i64 0, i32 1
  %3 = load i64, ptr %_M_string_length.i.i, align 8, !tbaa !15
  %call2.i477 = invoke noundef nonnull align 8 dereferenceable(8) ptr @_ZSt16__ostream_insertIcSt11char_traitsIcEERSt13basic_ostreamIT_T0_ES6_PKS3_l(ptr noundef nonnull align 8 dereferenceable(8) %0, ptr noundef %2, i64 noundef %3)
          to label %invoke.cont4 unwind label %lpad3

invoke.cont4:                                     ; preds = %entry
  %call1.i479480 = invoke noundef nonnull align 8 dereferenceable(8) ptr @_ZSt16__ostream_insertIcSt11char_traitsIcEERSt13basic_ostreamIT_T0_ES6_PKS3_l(ptr noundef nonnull align 8 dereferenceable(8) %call2.i477, ptr noundef nonnull @.str.2, i64 noundef 13)
          to label %invoke.cont6 unwind label %lpad3

invoke.cont6:                                     ; preds = %invoke.cont4
  call void @llvm.lifetime.start.p0(i64 32, ptr nonnull %indent) #16
  %4 = getelementptr inbounds %"class.std::__cxx11::basic_string", ptr %indent, i64 0, i32 2
  store ptr %4, ptr %indent, align 8, !tbaa !10
  invoke void @_ZNSt7__cxx1112basic_stringIcSt11char_traitsIcESaIcEE12_M_constructEmc(ptr noundef nonnull align 8 dereferenceable(32) %indent, i64 noundef 4, i8 noundef signext 32)
          to label %invoke.cont10 unwind label %lpad9

invoke.cont10:                                    ; preds = %invoke.cont6
  call void @llvm.lifetime.start.p0(i64 32, ptr nonnull %walltime_value) #16
  invoke void @_ZN9benchmark19LocalDateTimeStringB5cxx11Ev(ptr nonnull sret(%"class.std::__cxx11::basic_string") align 8 %walltime_value)
          to label %invoke.cont12 unwind label %lpad11

invoke.cont12:                                    ; preds = %invoke.cont10
  %5 = load ptr, ptr %indent, align 8, !tbaa !12
  %_M_string_length.i.i482 = getelementptr inbounds %"class.std::__cxx11::basic_string", ptr %indent, i64 0, i32 1
  %6 = load i64, ptr %_M_string_length.i.i482, align 8, !tbaa !15
  %call2.i483 = invoke noundef nonnull align 8 dereferenceable(8) ptr @_ZSt16__ostream_insertIcSt11char_traitsIcEERSt13basic_ostreamIT_T0_ES6_PKS3_l(ptr noundef nonnull align 8 dereferenceable(8) %0, ptr noundef %5, i64 noundef %6)
          to label %invoke.cont14 unwind label %lpad13

invoke.cont14:                                    ; preds = %invoke.cont12
  call void @llvm.lifetime.start.p0(i64 32, ptr nonnull %ref.tmp16) #16
  call void @llvm.lifetime.start.p0(i64 32, ptr nonnull %ref.tmp17) #16
  %7 = getelementptr inbounds %"class.std::__cxx11::basic_string", ptr %ref.tmp17, i64 0, i32 2
  store ptr %7, ptr %ref.tmp17, align 8, !tbaa !10
  store i32 1702125924, ptr %7, align 8
  %_M_string_length.i.i.i.i = getelementptr inbounds %"class.std::__cxx11::basic_string", ptr %ref.tmp17, i64 0, i32 1
  store i64 4, ptr %_M_string_length.i.i.i.i, align 8, !tbaa !15
  %arrayidx.i.i.i = getelementptr inbounds i8, ptr %ref.tmp17, i64 20
  store i8 0, ptr %arrayidx.i.i.i, align 4, !tbaa !16
  invoke fastcc void @_ZN9benchmark12_GLOBAL__N_18FormatKVERKNSt7__cxx1112basic_stringIcSt11char_traitsIcESaIcEEES8_(ptr noalias nonnull align 8 %ref.tmp16, ptr noundef nonnull align 8 dereferenceable(32) %ref.tmp17, ptr noundef nonnull align 8 dereferenceable(32) %walltime_value)
          to label %invoke.cont22 unwind label %lpad21

invoke.cont22:                                    ; preds = %invoke.cont14
  %8 = load ptr, ptr %ref.tmp16, align 8, !tbaa !12
  %_M_string_length.i.i487 = getelementptr inbounds %"class.std::__cxx11::basic_string", ptr %ref.tmp16, i64 0, i32 1
  %9 = load i64, ptr %_M_string_length.i.i487, align 8, !tbaa !15
  %call2.i488 = invoke noundef nonnull align 8 dereferenceable(8) ptr @_ZSt16__ostream_insertIcSt11char_traitsIcEERSt13basic_ostreamIT_T0_ES6_PKS3_l(ptr noundef nonnull align 8 dereferenceable(8) %call2.i483, ptr noundef %8, i64 noundef %9)
          to label %invoke.cont24 unwind label %lpad23

invoke.cont24:                                    ; preds = %invoke.cont22
  %call1.i491492 = invoke noundef nonnull align 8 dereferenceable(8) ptr @_ZSt16__ostream_insertIcSt11char_traitsIcEERSt13basic_ostreamIT_T0_ES6_PKS3_l(ptr noundef nonnull align 8 dereferenceable(8) %call2.i488, ptr noundef nonnull @.str.4, i64 noundef 2)
          to label %invoke.cont26 unwind label %lpad23

invoke.cont26:                                    ; preds = %invoke.cont24
  %10 = load ptr, ptr %ref.tmp16, align 8, !tbaa !12
  %11 = getelementptr inbounds %"class.std::__cxx11::basic_string", ptr %ref.tmp16, i64 0, i32 2
  %cmp.i.i.i = icmp eq ptr %10, %11
  br i1 %cmp.i.i.i, label %_ZNSt7__cxx1112basic_stringIcSt11char_traitsIcESaIcEED2Ev.exit, label %if.then.i.i494

if.then.i.i494:                                   ; preds = %invoke.cont26
  call void @_ZdlPv(ptr noundef %10) #17
  br label %_ZNSt7__cxx1112basic_stringIcSt11char_traitsIcESaIcEED2Ev.exit

_ZNSt7__cxx1112basic_stringIcSt11char_traitsIcESaIcEED2Ev.exit: ; preds = %invoke.cont26, %if.then.i.i494
  %12 = load ptr, ptr %ref.tmp17, align 8, !tbaa !12
  %cmp.i.i.i495 = icmp eq ptr %12, %7
  br i1 %cmp.i.i.i495, label %_ZNSt7__cxx1112basic_stringIcSt11char_traitsIcESaIcEED2Ev.exit497, label %if.then.i.i496

if.then.i.i496:                                   ; preds = %_ZNSt7__cxx1112basic_stringIcSt11char_traitsIcESaIcEED2Ev.exit
  call void @_ZdlPv(ptr noundef %12) #17
  br label %_ZNSt7__cxx1112basic_stringIcSt11char_traitsIcESaIcEED2Ev.exit497

_ZNSt7__cxx1112basic_stringIcSt11char_traitsIcESaIcEED2Ev.exit497: ; preds = %_ZNSt7__cxx1112basic_stringIcSt11char_traitsIcESaIcEED2Ev.exit, %if.then.i.i496
  call void @llvm.lifetime.end.p0(i64 32, ptr nonnull %ref.tmp17) #16
  call void @llvm.lifetime.end.p0(i64 32, ptr nonnull %ref.tmp16) #16
  %13 = load ptr, ptr %indent, align 8, !tbaa !12
  %14 = load i64, ptr %_M_string_length.i.i482, align 8, !tbaa !15
  %call2.i499 = invoke noundef nonnull align 8 dereferenceable(8) ptr @_ZSt16__ostream_insertIcSt11char_traitsIcEERSt13basic_ostreamIT_T0_ES6_PKS3_l(ptr noundef nonnull align 8 dereferenceable(8) %0, ptr noundef %13, i64 noundef %14)
          to label %invoke.cont32 unwind label %lpad13

invoke.cont32:                                    ; preds = %_ZNSt7__cxx1112basic_stringIcSt11char_traitsIcESaIcEED2Ev.exit497
  call void @llvm.lifetime.start.p0(i64 32, ptr nonnull %ref.tmp34) #16
  call void @llvm.lifetime.start.p0(i64 32, ptr nonnull %ref.tmp35) #16
  %15 = getelementptr inbounds %"class.std::__cxx11::basic_string", ptr %ref.tmp35, i64 0, i32 2
  store ptr %15, ptr %ref.tmp35, align 8, !tbaa !10
  call void @llvm.memcpy.p0.p0.i64(ptr noundef nonnull align 8 dereferenceable(9) %15, ptr noundef nonnull align 1 dereferenceable(9) @.str.5, i64 9, i1 false)
  %_M_string_length.i.i.i.i508 = getelementptr inbounds %"class.std::__cxx11::basic_string", ptr %ref.tmp35, i64 0, i32 1
  store i64 9, ptr %_M_string_length.i.i.i.i508, align 8, !tbaa !15
  %arrayidx.i.i.i509 = getelementptr inbounds %"class.std::__cxx11::basic_string", ptr %ref.tmp35, i64 0, i32 2, i32 1, i64 1
  store i8 0, ptr %arrayidx.i.i.i509, align 1, !tbaa !16
  %sys_info = getelementptr inbounds %"struct.benchmark::BenchmarkReporter::Context", ptr %context, i64 0, i32 1
  %16 = load ptr, ptr %sys_info, align 8, !tbaa !17
  invoke fastcc void @_ZN9benchmark12_GLOBAL__N_18FormatKVERKNSt7__cxx1112basic_stringIcSt11char_traitsIcESaIcEEES8_(ptr noalias nonnull align 8 %ref.tmp34, ptr noundef nonnull align 8 dereferenceable(32) %ref.tmp35, ptr noundef nonnull align 8 dereferenceable(32) %16)
          to label %invoke.cont40 unwind label %lpad39

invoke.cont40:                                    ; preds = %invoke.cont32
  %17 = load ptr, ptr %ref.tmp34, align 8, !tbaa !12
  %_M_string_length.i.i513 = getelementptr inbounds %"class.std::__cxx11::basic_string", ptr %ref.tmp34, i64 0, i32 1
  %18 = load i64, ptr %_M_string_length.i.i513, align 8, !tbaa !15
  %call2.i514 = invoke noundef nonnull align 8 dereferenceable(8) ptr @_ZSt16__ostream_insertIcSt11char_traitsIcEERSt13basic_ostreamIT_T0_ES6_PKS3_l(ptr noundef nonnull align 8 dereferenceable(8) %call2.i499, ptr noundef %17, i64 noundef %18)
          to label %invoke.cont42 unwind label %lpad41

invoke.cont42:                                    ; preds = %invoke.cont40
  %call1.i517518 = invoke noundef nonnull align 8 dereferenceable(8) ptr @_ZSt16__ostream_insertIcSt11char_traitsIcEERSt13basic_ostreamIT_T0_ES6_PKS3_l(ptr noundef nonnull align 8 dereferenceable(8) %call2.i514, ptr noundef nonnull @.str.4, i64 noundef 2)
          to label %invoke.cont44 unwind label %lpad41

invoke.cont44:                                    ; preds = %invoke.cont42
  %19 = load ptr, ptr %ref.tmp34, align 8, !tbaa !12
  %20 = getelementptr inbounds %"class.std::__cxx11::basic_string", ptr %ref.tmp34, i64 0, i32 2
  %cmp.i.i.i520 = icmp eq ptr %19, %20
  br i1 %cmp.i.i.i520, label %_ZNSt7__cxx1112basic_stringIcSt11char_traitsIcESaIcEED2Ev.exit522, label %if.then.i.i521

if.then.i.i521:                                   ; preds = %invoke.cont44
  call void @_ZdlPv(ptr noundef %19) #17
  br label %_ZNSt7__cxx1112basic_stringIcSt11char_traitsIcESaIcEED2Ev.exit522

_ZNSt7__cxx1112basic_stringIcSt11char_traitsIcESaIcEED2Ev.exit522: ; preds = %invoke.cont44, %if.then.i.i521
  %21 = load ptr, ptr %ref.tmp35, align 8, !tbaa !12
  %cmp.i.i.i523 = icmp eq ptr %21, %15
  br i1 %cmp.i.i.i523, label %_ZNSt7__cxx1112basic_stringIcSt11char_traitsIcESaIcEED2Ev.exit525, label %if.then.i.i524

if.then.i.i524:                                   ; preds = %_ZNSt7__cxx1112basic_stringIcSt11char_traitsIcESaIcEED2Ev.exit522
  call void @_ZdlPv(ptr noundef %21) #17
  br label %_ZNSt7__cxx1112basic_stringIcSt11char_traitsIcESaIcEED2Ev.exit525

_ZNSt7__cxx1112basic_stringIcSt11char_traitsIcESaIcEED2Ev.exit525: ; preds = %_ZNSt7__cxx1112basic_stringIcSt11char_traitsIcESaIcEED2Ev.exit522, %if.then.i.i524
  call void @llvm.lifetime.end.p0(i64 32, ptr nonnull %ref.tmp35) #16
  call void @llvm.lifetime.end.p0(i64 32, ptr nonnull %ref.tmp34) #16
  %22 = load ptr, ptr @_ZN9benchmark17BenchmarkReporter7Context15executable_nameE, align 8, !tbaa !19
  %tobool.not = icmp eq ptr %22, null
  br i1 %tobool.not, label %if.end, label %if.then

if.then:                                          ; preds = %_ZNSt7__cxx1112basic_stringIcSt11char_traitsIcESaIcEED2Ev.exit525
  %23 = load ptr, ptr %indent, align 8, !tbaa !12
  %24 = load i64, ptr %_M_string_length.i.i482, align 8, !tbaa !15
  %call2.i527 = invoke noundef nonnull align 8 dereferenceable(8) ptr @_ZSt16__ostream_insertIcSt11char_traitsIcEERSt13basic_ostreamIT_T0_ES6_PKS3_l(ptr noundef nonnull align 8 dereferenceable(8) %0, ptr noundef %23, i64 noundef %24)
          to label %invoke.cont52 unwind label %lpad13

invoke.cont52:                                    ; preds = %if.then
  call void @llvm.lifetime.start.p0(i64 32, ptr nonnull %ref.tmp54) #16
  call void @llvm.lifetime.start.p0(i64 32, ptr nonnull %ref.tmp55) #16
  %25 = getelementptr inbounds %"class.std::__cxx11::basic_string", ptr %ref.tmp55, i64 0, i32 2
  store ptr %25, ptr %ref.tmp55, align 8, !tbaa !10
  call void @llvm.memcpy.p0.p0.i64(ptr noundef nonnull align 8 dereferenceable(10) %25, ptr noundef nonnull align 1 dereferenceable(10) @.str.6, i64 10, i1 false)
  %_M_string_length.i.i.i.i536 = getelementptr inbounds %"class.std::__cxx11::basic_string", ptr %ref.tmp55, i64 0, i32 1
  store i64 10, ptr %_M_string_length.i.i.i.i536, align 8, !tbaa !15
  %arrayidx.i.i.i537 = getelementptr inbounds %"class.std::__cxx11::basic_string", ptr %ref.tmp55, i64 0, i32 2, i32 1, i64 2
  store i8 0, ptr %arrayidx.i.i.i537, align 2, !tbaa !16
  %26 = load ptr, ptr @_ZN9benchmark17BenchmarkReporter7Context15executable_nameE, align 8, !tbaa !19
  invoke fastcc void @_ZN9benchmark12_GLOBAL__N_18FormatKVERKNSt7__cxx1112basic_stringIcSt11char_traitsIcESaIcEEEPKc(ptr noalias nonnull align 8 %ref.tmp54, ptr noundef nonnull align 8 dereferenceable(32) %ref.tmp55, ptr noundef %26)
          to label %invoke.cont60 unwind label %lpad59

invoke.cont60:                                    ; preds = %invoke.cont52
  %27 = load ptr, ptr %ref.tmp54, align 8, !tbaa !12
  %_M_string_length.i.i541 = getelementptr inbounds %"class.std::__cxx11::basic_string", ptr %ref.tmp54, i64 0, i32 1
  %28 = load i64, ptr %_M_string_length.i.i541, align 8, !tbaa !15
  %call2.i542 = invoke noundef nonnull align 8 dereferenceable(8) ptr @_ZSt16__ostream_insertIcSt11char_traitsIcEERSt13basic_ostreamIT_T0_ES6_PKS3_l(ptr noundef nonnull align 8 dereferenceable(8) %call2.i527, ptr noundef %27, i64 noundef %28)
          to label %invoke.cont62 unwind label %lpad61

invoke.cont62:                                    ; preds = %invoke.cont60
  %call1.i545546 = invoke noundef nonnull align 8 dereferenceable(8) ptr @_ZSt16__ostream_insertIcSt11char_traitsIcEERSt13basic_ostreamIT_T0_ES6_PKS3_l(ptr noundef nonnull align 8 dereferenceable(8) %call2.i542, ptr noundef nonnull @.str.4, i64 noundef 2)
          to label %invoke.cont64 unwind label %lpad61

invoke.cont64:                                    ; preds = %invoke.cont62
  %29 = load ptr, ptr %ref.tmp54, align 8, !tbaa !12
  %30 = getelementptr inbounds %"class.std::__cxx11::basic_string", ptr %ref.tmp54, i64 0, i32 2
  %cmp.i.i.i548 = icmp eq ptr %29, %30
  br i1 %cmp.i.i.i548, label %_ZNSt7__cxx1112basic_stringIcSt11char_traitsIcESaIcEED2Ev.exit550, label %if.then.i.i549

if.then.i.i549:                                   ; preds = %invoke.cont64
  call void @_ZdlPv(ptr noundef %29) #17
  br label %_ZNSt7__cxx1112basic_stringIcSt11char_traitsIcESaIcEED2Ev.exit550

_ZNSt7__cxx1112basic_stringIcSt11char_traitsIcESaIcEED2Ev.exit550: ; preds = %invoke.cont64, %if.then.i.i549
  %31 = load ptr, ptr %ref.tmp55, align 8, !tbaa !12
  %cmp.i.i.i551 = icmp eq ptr %31, %25
  br i1 %cmp.i.i.i551, label %_ZNSt7__cxx1112basic_stringIcSt11char_traitsIcESaIcEED2Ev.exit553, label %if.then.i.i552

if.then.i.i552:                                   ; preds = %_ZNSt7__cxx1112basic_stringIcSt11char_traitsIcESaIcEED2Ev.exit550
  call void @_ZdlPv(ptr noundef %31) #17
  br label %_ZNSt7__cxx1112basic_stringIcSt11char_traitsIcESaIcEED2Ev.exit553

_ZNSt7__cxx1112basic_stringIcSt11char_traitsIcESaIcEED2Ev.exit553: ; preds = %_ZNSt7__cxx1112basic_stringIcSt11char_traitsIcESaIcEED2Ev.exit550, %if.then.i.i552
  call void @llvm.lifetime.end.p0(i64 32, ptr nonnull %ref.tmp55) #16
  call void @llvm.lifetime.end.p0(i64 32, ptr nonnull %ref.tmp54) #16
  br label %if.end

lpad3:                                            ; preds = %invoke.cont4, %entry
  %32 = landingpad { ptr, i32 }
          cleanup
  br label %ehcleanup380

lpad9:                                            ; preds = %invoke.cont6
  %33 = landingpad { ptr, i32 }
          cleanup
  br label %ehcleanup379

lpad11:                                           ; preds = %invoke.cont10
  %34 = landingpad { ptr, i32 }
          cleanup
  br label %ehcleanup377

lpad13:                                           ; preds = %if.then, %_ZNSt7__cxx1112basic_stringIcSt11char_traitsIcESaIcEED2Ev.exit497, %invoke.cont12
  %35 = landingpad { ptr, i32 }
          cleanup
  br label %ehcleanup376

lpad21:                                           ; preds = %invoke.cont14
  %36 = landingpad { ptr, i32 }
          cleanup
  br label %ehcleanup

lpad23:                                           ; preds = %invoke.cont24, %invoke.cont22
  %37 = landingpad { ptr, i32 }
          cleanup
  %38 = load ptr, ptr %ref.tmp16, align 8, !tbaa !12
  %39 = getelementptr inbounds %"class.std::__cxx11::basic_string", ptr %ref.tmp16, i64 0, i32 2
  %cmp.i.i.i554 = icmp eq ptr %38, %39
  br i1 %cmp.i.i.i554, label %ehcleanup, label %if.then.i.i555

if.then.i.i555:                                   ; preds = %lpad23
  call void @_ZdlPv(ptr noundef %38) #17
  br label %ehcleanup

ehcleanup:                                        ; preds = %if.then.i.i555, %lpad23, %lpad21
  %.pn = phi { ptr, i32 } [ %36, %lpad21 ], [ %37, %lpad23 ], [ %37, %if.then.i.i555 ]
  %40 = load ptr, ptr %ref.tmp17, align 8, !tbaa !12
  %cmp.i.i.i557 = icmp eq ptr %40, %7
  br i1 %cmp.i.i.i557, label %ehcleanup28, label %if.then.i.i558

if.then.i.i558:                                   ; preds = %ehcleanup
  call void @_ZdlPv(ptr noundef %40) #17
  br label %ehcleanup28

ehcleanup28:                                      ; preds = %if.then.i.i558, %ehcleanup
  call void @llvm.lifetime.end.p0(i64 32, ptr nonnull %ref.tmp17) #16
  call void @llvm.lifetime.end.p0(i64 32, ptr nonnull %ref.tmp16) #16
  br label %ehcleanup376

lpad39:                                           ; preds = %invoke.cont32
  %41 = landingpad { ptr, i32 }
          cleanup
  br label %ehcleanup47

lpad41:                                           ; preds = %invoke.cont42, %invoke.cont40
  %42 = landingpad { ptr, i32 }
          cleanup
  %43 = load ptr, ptr %ref.tmp34, align 8, !tbaa !12
  %44 = getelementptr inbounds %"class.std::__cxx11::basic_string", ptr %ref.tmp34, i64 0, i32 2
  %cmp.i.i.i560 = icmp eq ptr %43, %44
  br i1 %cmp.i.i.i560, label %ehcleanup47, label %if.then.i.i561

if.then.i.i561:                                   ; preds = %lpad41
  call void @_ZdlPv(ptr noundef %43) #17
  br label %ehcleanup47

ehcleanup47:                                      ; preds = %if.then.i.i561, %lpad41, %lpad39
  %.pn431 = phi { ptr, i32 } [ %41, %lpad39 ], [ %42, %lpad41 ], [ %42, %if.then.i.i561 ]
  %45 = load ptr, ptr %ref.tmp35, align 8, !tbaa !12
  %cmp.i.i.i563 = icmp eq ptr %45, %15
  br i1 %cmp.i.i.i563, label %ehcleanup48, label %if.then.i.i564

if.then.i.i564:                                   ; preds = %ehcleanup47
  call void @_ZdlPv(ptr noundef %45) #17
  br label %ehcleanup48

ehcleanup48:                                      ; preds = %if.then.i.i564, %ehcleanup47
  call void @llvm.lifetime.end.p0(i64 32, ptr nonnull %ref.tmp35) #16
  call void @llvm.lifetime.end.p0(i64 32, ptr nonnull %ref.tmp34) #16
  br label %ehcleanup376

lpad59:                                           ; preds = %invoke.cont52
  %46 = landingpad { ptr, i32 }
          cleanup
  br label %ehcleanup67

lpad61:                                           ; preds = %invoke.cont62, %invoke.cont60
  %47 = landingpad { ptr, i32 }
          cleanup
  %48 = load ptr, ptr %ref.tmp54, align 8, !tbaa !12
  %49 = getelementptr inbounds %"class.std::__cxx11::basic_string", ptr %ref.tmp54, i64 0, i32 2
  %cmp.i.i.i566 = icmp eq ptr %48, %49
  br i1 %cmp.i.i.i566, label %ehcleanup67, label %if.then.i.i567

if.then.i.i567:                                   ; preds = %lpad61
  call void @_ZdlPv(ptr noundef %48) #17
  br label %ehcleanup67

ehcleanup67:                                      ; preds = %if.then.i.i567, %lpad61, %lpad59
  %.pn469 = phi { ptr, i32 } [ %46, %lpad59 ], [ %47, %lpad61 ], [ %47, %if.then.i.i567 ]
  %50 = load ptr, ptr %ref.tmp55, align 8, !tbaa !12
  %cmp.i.i.i569 = icmp eq ptr %50, %25
  br i1 %cmp.i.i.i569, label %ehcleanup68, label %if.then.i.i570

if.then.i.i570:                                   ; preds = %ehcleanup67
  call void @_ZdlPv(ptr noundef %50) #17
  br label %ehcleanup68

ehcleanup68:                                      ; preds = %if.then.i.i570, %ehcleanup67
  call void @llvm.lifetime.end.p0(i64 32, ptr nonnull %ref.tmp55) #16
  call void @llvm.lifetime.end.p0(i64 32, ptr nonnull %ref.tmp54) #16
  br label %ehcleanup376

if.end:                                           ; preds = %_ZNSt7__cxx1112basic_stringIcSt11char_traitsIcESaIcEED2Ev.exit553, %_ZNSt7__cxx1112basic_stringIcSt11char_traitsIcESaIcEED2Ev.exit525
  %51 = load ptr, ptr %context, align 8, !tbaa !20
  %52 = load ptr, ptr %indent, align 8, !tbaa !12
  %53 = load i64, ptr %_M_string_length.i.i482, align 8, !tbaa !15
  %call2.i573 = invoke noundef nonnull align 8 dereferenceable(8) ptr @_ZSt16__ostream_insertIcSt11char_traitsIcEERSt13basic_ostreamIT_T0_ES6_PKS3_l(ptr noundef nonnull align 8 dereferenceable(8) %0, ptr noundef %52, i64 noundef %53)
          to label %invoke.cont73 unwind label %lpad72

invoke.cont73:                                    ; preds = %if.end
  call void @llvm.lifetime.start.p0(i64 32, ptr nonnull %ref.tmp75) #16
  call void @llvm.lifetime.start.p0(i64 32, ptr nonnull %ref.tmp76) #16
  %54 = getelementptr inbounds %"class.std::__cxx11::basic_string", ptr %ref.tmp76, i64 0, i32 2
  store ptr %54, ptr %ref.tmp76, align 8, !tbaa !10
  store i64 8319679458741941614, ptr %54, align 8
  %_M_string_length.i.i.i.i582 = getelementptr inbounds %"class.std::__cxx11::basic_string", ptr %ref.tmp76, i64 0, i32 1
  store i64 8, ptr %_M_string_length.i.i.i.i582, align 8, !tbaa !15
  %arrayidx.i.i.i583 = getelementptr inbounds %"class.std::__cxx11::basic_string", ptr %ref.tmp76, i64 0, i32 2, i32 1
  store i8 0, ptr %arrayidx.i.i.i583, align 8, !tbaa !16
  %55 = load i32, ptr %51, align 8, !tbaa !21
  %conv = sext i32 %55 to i64
  invoke fastcc void @_ZN9benchmark12_GLOBAL__N_18FormatKVERKNSt7__cxx1112basic_stringIcSt11char_traitsIcESaIcEEEl(ptr noalias nonnull align 8 %ref.tmp75, ptr noundef nonnull align 8 dereferenceable(32) %ref.tmp76, i64 noundef %conv)
          to label %invoke.cont81 unwind label %lpad80

invoke.cont81:                                    ; preds = %invoke.cont73
  %56 = load ptr, ptr %ref.tmp75, align 8, !tbaa !12
  %_M_string_length.i.i587 = getelementptr inbounds %"class.std::__cxx11::basic_string", ptr %ref.tmp75, i64 0, i32 1
  %57 = load i64, ptr %_M_string_length.i.i587, align 8, !tbaa !15
  %call2.i588 = invoke noundef nonnull align 8 dereferenceable(8) ptr @_ZSt16__ostream_insertIcSt11char_traitsIcEERSt13basic_ostreamIT_T0_ES6_PKS3_l(ptr noundef nonnull align 8 dereferenceable(8) %call2.i573, ptr noundef %56, i64 noundef %57)
          to label %invoke.cont83 unwind label %lpad82

invoke.cont83:                                    ; preds = %invoke.cont81
  %call1.i591592 = invoke noundef nonnull align 8 dereferenceable(8) ptr @_ZSt16__ostream_insertIcSt11char_traitsIcEERSt13basic_ostreamIT_T0_ES6_PKS3_l(ptr noundef nonnull align 8 dereferenceable(8) %call2.i588, ptr noundef nonnull @.str.4, i64 noundef 2)
          to label %invoke.cont85 unwind label %lpad82

invoke.cont85:                                    ; preds = %invoke.cont83
  %58 = load ptr, ptr %ref.tmp75, align 8, !tbaa !12
  %59 = getelementptr inbounds %"class.std::__cxx11::basic_string", ptr %ref.tmp75, i64 0, i32 2
  %cmp.i.i.i594 = icmp eq ptr %58, %59
  br i1 %cmp.i.i.i594, label %_ZNSt7__cxx1112basic_stringIcSt11char_traitsIcESaIcEED2Ev.exit596, label %if.then.i.i595

if.then.i.i595:                                   ; preds = %invoke.cont85
  call void @_ZdlPv(ptr noundef %58) #17
  br label %_ZNSt7__cxx1112basic_stringIcSt11char_traitsIcESaIcEED2Ev.exit596

_ZNSt7__cxx1112basic_stringIcSt11char_traitsIcESaIcEED2Ev.exit596: ; preds = %invoke.cont85, %if.then.i.i595
  %60 = load ptr, ptr %ref.tmp76, align 8, !tbaa !12
  %cmp.i.i.i597 = icmp eq ptr %60, %54
  br i1 %cmp.i.i.i597, label %_ZNSt7__cxx1112basic_stringIcSt11char_traitsIcESaIcEED2Ev.exit599, label %if.then.i.i598

if.then.i.i598:                                   ; preds = %_ZNSt7__cxx1112basic_stringIcSt11char_traitsIcESaIcEED2Ev.exit596
  call void @_ZdlPv(ptr noundef %60) #17
  br label %_ZNSt7__cxx1112basic_stringIcSt11char_traitsIcESaIcEED2Ev.exit599

_ZNSt7__cxx1112basic_stringIcSt11char_traitsIcESaIcEED2Ev.exit599: ; preds = %_ZNSt7__cxx1112basic_stringIcSt11char_traitsIcESaIcEED2Ev.exit596, %if.then.i.i598
  call void @llvm.lifetime.end.p0(i64 32, ptr nonnull %ref.tmp76) #16
  call void @llvm.lifetime.end.p0(i64 32, ptr nonnull %ref.tmp75) #16
  %61 = load ptr, ptr %indent, align 8, !tbaa !12
  %62 = load i64, ptr %_M_string_length.i.i482, align 8, !tbaa !15
  %call2.i601 = invoke noundef nonnull align 8 dereferenceable(8) ptr @_ZSt16__ostream_insertIcSt11char_traitsIcEERSt13basic_ostreamIT_T0_ES6_PKS3_l(ptr noundef nonnull align 8 dereferenceable(8) %0, ptr noundef %61, i64 noundef %62)
          to label %invoke.cont93 unwind label %lpad72

invoke.cont93:                                    ; preds = %_ZNSt7__cxx1112basic_stringIcSt11char_traitsIcESaIcEED2Ev.exit599
  call void @llvm.lifetime.start.p0(i64 32, ptr nonnull %ref.tmp95) #16
  call void @llvm.lifetime.start.p0(i64 32, ptr nonnull %ref.tmp96) #16
  %63 = getelementptr inbounds %"class.std::__cxx11::basic_string", ptr %ref.tmp96, i64 0, i32 2
  store ptr %63, ptr %ref.tmp96, align 8, !tbaa !10
  call void @llvm.memcpy.p0.p0.i64(ptr noundef nonnull align 8 dereferenceable(11) %63, ptr noundef nonnull align 1 dereferenceable(11) @.str.8, i64 11, i1 false)
  %_M_string_length.i.i.i.i610 = getelementptr inbounds %"class.std::__cxx11::basic_string", ptr %ref.tmp96, i64 0, i32 1
  store i64 11, ptr %_M_string_length.i.i.i.i610, align 8, !tbaa !15
  %arrayidx.i.i.i611 = getelementptr inbounds %"class.std::__cxx11::basic_string", ptr %ref.tmp96, i64 0, i32 2, i32 1, i64 3
  store i8 0, ptr %arrayidx.i.i.i611, align 1, !tbaa !16
  %cycles_per_second = getelementptr inbounds %"struct.benchmark::CPUInfo", ptr %51, i64 0, i32 2
  %64 = load double, ptr %cycles_per_second, align 8, !tbaa !34
  %div = fdiv double %64, 1.000000e+06
  %call.i = call i64 @lround(double noundef %div) #16
  invoke fastcc void @_ZN9benchmark12_GLOBAL__N_18FormatKVERKNSt7__cxx1112basic_stringIcSt11char_traitsIcESaIcEEEl(ptr noalias nonnull align 8 %ref.tmp95, ptr noundef nonnull align 8 dereferenceable(32) %ref.tmp96, i64 noundef %call.i)
          to label %invoke.cont103 unwind label %lpad100

invoke.cont103:                                   ; preds = %invoke.cont93
  %65 = load ptr, ptr %ref.tmp95, align 8, !tbaa !12
  %_M_string_length.i.i615 = getelementptr inbounds %"class.std::__cxx11::basic_string", ptr %ref.tmp95, i64 0, i32 1
  %66 = load i64, ptr %_M_string_length.i.i615, align 8, !tbaa !15
  %call2.i616 = invoke noundef nonnull align 8 dereferenceable(8) ptr @_ZSt16__ostream_insertIcSt11char_traitsIcEERSt13basic_ostreamIT_T0_ES6_PKS3_l(ptr noundef nonnull align 8 dereferenceable(8) %call2.i601, ptr noundef %65, i64 noundef %66)
          to label %invoke.cont105 unwind label %lpad104

invoke.cont105:                                   ; preds = %invoke.cont103
  %call1.i619620 = invoke noundef nonnull align 8 dereferenceable(8) ptr @_ZSt16__ostream_insertIcSt11char_traitsIcEERSt13basic_ostreamIT_T0_ES6_PKS3_l(ptr noundef nonnull align 8 dereferenceable(8) %call2.i616, ptr noundef nonnull @.str.4, i64 noundef 2)
          to label %invoke.cont107 unwind label %lpad104

invoke.cont107:                                   ; preds = %invoke.cont105
  %67 = load ptr, ptr %ref.tmp95, align 8, !tbaa !12
  %68 = getelementptr inbounds %"class.std::__cxx11::basic_string", ptr %ref.tmp95, i64 0, i32 2
  %cmp.i.i.i622 = icmp eq ptr %67, %68
  br i1 %cmp.i.i.i622, label %_ZNSt7__cxx1112basic_stringIcSt11char_traitsIcESaIcEED2Ev.exit624, label %if.then.i.i623

if.then.i.i623:                                   ; preds = %invoke.cont107
  call void @_ZdlPv(ptr noundef %67) #17
  br label %_ZNSt7__cxx1112basic_stringIcSt11char_traitsIcESaIcEED2Ev.exit624

_ZNSt7__cxx1112basic_stringIcSt11char_traitsIcESaIcEED2Ev.exit624: ; preds = %invoke.cont107, %if.then.i.i623
  %69 = load ptr, ptr %ref.tmp96, align 8, !tbaa !12
  %cmp.i.i.i625 = icmp eq ptr %69, %63
  br i1 %cmp.i.i.i625, label %_ZNSt7__cxx1112basic_stringIcSt11char_traitsIcESaIcEED2Ev.exit627, label %if.then.i.i626

if.then.i.i626:                                   ; preds = %_ZNSt7__cxx1112basic_stringIcSt11char_traitsIcESaIcEED2Ev.exit624
  call void @_ZdlPv(ptr noundef %69) #17
  br label %_ZNSt7__cxx1112basic_stringIcSt11char_traitsIcESaIcEED2Ev.exit627

_ZNSt7__cxx1112basic_stringIcSt11char_traitsIcESaIcEED2Ev.exit627: ; preds = %_ZNSt7__cxx1112basic_stringIcSt11char_traitsIcESaIcEED2Ev.exit624, %if.then.i.i626
  call void @llvm.lifetime.end.p0(i64 32, ptr nonnull %ref.tmp96) #16
  call void @llvm.lifetime.end.p0(i64 32, ptr nonnull %ref.tmp95) #16
  %scaling = getelementptr inbounds %"struct.benchmark::CPUInfo", ptr %51, i64 0, i32 1
  %70 = load i32, ptr %scaling, align 4, !tbaa !35
  %cmp.not = icmp eq i32 %70, 0
  br i1 %cmp.not, label %if.end138, label %if.then115

if.then115:                                       ; preds = %_ZNSt7__cxx1112basic_stringIcSt11char_traitsIcESaIcEED2Ev.exit627
  %71 = load ptr, ptr %indent, align 8, !tbaa !12
  %72 = load i64, ptr %_M_string_length.i.i482, align 8, !tbaa !15
  %call2.i629 = invoke noundef nonnull align 8 dereferenceable(8) ptr @_ZSt16__ostream_insertIcSt11char_traitsIcEERSt13basic_ostreamIT_T0_ES6_PKS3_l(ptr noundef nonnull align 8 dereferenceable(8) %0, ptr noundef %71, i64 noundef %72)
          to label %invoke.cont116 unwind label %lpad72

invoke.cont116:                                   ; preds = %if.then115
  call void @llvm.lifetime.start.p0(i64 32, ptr nonnull %ref.tmp118) #16
  call void @llvm.lifetime.start.p0(i64 32, ptr nonnull %ref.tmp119) #16
  %73 = getelementptr inbounds %"class.std::__cxx11::basic_string", ptr %ref.tmp119, i64 0, i32 2
  store ptr %73, ptr %ref.tmp119, align 8, !tbaa !10
  call void @llvm.lifetime.start.p0(i64 8, ptr nonnull %__dnew.i.i631) #16
  store i64 19, ptr %__dnew.i.i631, align 8, !tbaa !36
  %call2.i10.i641 = invoke noundef ptr @_ZNSt7__cxx1112basic_stringIcSt11char_traitsIcESaIcEE9_M_createERmm(ptr noundef nonnull align 8 dereferenceable(32) %ref.tmp119, ptr noundef nonnull align 8 dereferenceable(8) %__dnew.i.i631, i64 noundef 0)
          to label %call2.i10.i.noexc640 unwind label %lpad121

call2.i10.i.noexc640:                             ; preds = %invoke.cont116
  store ptr %call2.i10.i641, ptr %ref.tmp119, align 8, !tbaa !12
  %74 = load i64, ptr %__dnew.i.i631, align 8, !tbaa !36
  store i64 %74, ptr %73, align 8, !tbaa !16
  call void @llvm.memcpy.p0.p0.i64(ptr noundef nonnull align 1 dereferenceable(19) %call2.i10.i641, ptr noundef nonnull align 1 dereferenceable(19) @.str.9, i64 19, i1 false)
  %_M_string_length.i.i.i.i638 = getelementptr inbounds %"class.std::__cxx11::basic_string", ptr %ref.tmp119, i64 0, i32 1
  store i64 %74, ptr %_M_string_length.i.i.i.i638, align 8, !tbaa !15
  %75 = load ptr, ptr %ref.tmp119, align 8, !tbaa !12
  %arrayidx.i.i.i639 = getelementptr inbounds i8, ptr %75, i64 %74
  store i8 0, ptr %arrayidx.i.i.i639, align 1, !tbaa !16
  call void @llvm.lifetime.end.p0(i64 8, ptr nonnull %__dnew.i.i631) #16
  %76 = load i32, ptr %scaling, align 4, !tbaa !35
  call void @llvm.lifetime.start.p0(i64 32, ptr nonnull %ref.tmp.i) #16, !noalias !37
  invoke fastcc void @_ZN9benchmark12_GLOBAL__N_19StrEscapeERKNSt7__cxx1112basic_stringIcSt11char_traitsIcESaIcEEE(ptr noalias nonnull align 8 %ref.tmp.i, ptr noundef nonnull align 8 dereferenceable(32) %ref.tmp119)
          to label %.noexc unwind label %lpad125

.noexc:                                           ; preds = %call2.i10.i.noexc640
  %cmp124 = icmp eq i32 %76, 1
  %77 = load ptr, ptr %ref.tmp.i, align 8, !tbaa !12, !noalias !37
  %cond.i = select i1 %cmp124, ptr @.str.62, ptr @.str.63
  invoke void (ptr, ptr, ...) @_ZN9benchmark9StrFormatB5cxx11EPKcz(ptr nonnull sret(%"class.std::__cxx11::basic_string") align 8 %ref.tmp118, ptr noundef nonnull @.str.61, ptr noundef %77, ptr noundef nonnull %cond.i)
          to label %invoke.cont.i unwind label %lpad.i

invoke.cont.i:                                    ; preds = %.noexc
  %78 = load ptr, ptr %ref.tmp.i, align 8, !tbaa !12, !noalias !37
  %79 = getelementptr inbounds %"class.std::__cxx11::basic_string", ptr %ref.tmp.i, i64 0, i32 2
  %cmp.i.i.i.i = icmp eq ptr %78, %79
  br i1 %cmp.i.i.i.i, label %invoke.cont126, label %if.then.i.i.i

if.then.i.i.i:                                    ; preds = %invoke.cont.i
  call void @_ZdlPv(ptr noundef %78) #17
  br label %invoke.cont126

lpad.i:                                           ; preds = %.noexc
  %80 = landingpad { ptr, i32 }
          cleanup
  %81 = load ptr, ptr %ref.tmp.i, align 8, !tbaa !12, !noalias !37
  %82 = getelementptr inbounds %"class.std::__cxx11::basic_string", ptr %ref.tmp.i, i64 0, i32 2
  %cmp.i.i.i2.i = icmp eq ptr %81, %82
  br i1 %cmp.i.i.i2.i, label %_ZNSt7__cxx1112basic_stringIcSt11char_traitsIcESaIcEED2Ev.exit4.i, label %if.then.i.i3.i

if.then.i.i3.i:                                   ; preds = %lpad.i
  call void @_ZdlPv(ptr noundef %81) #17
  br label %_ZNSt7__cxx1112basic_stringIcSt11char_traitsIcESaIcEED2Ev.exit4.i

_ZNSt7__cxx1112basic_stringIcSt11char_traitsIcESaIcEED2Ev.exit4.i: ; preds = %if.then.i.i3.i, %lpad.i
  call void @llvm.lifetime.end.p0(i64 32, ptr nonnull %ref.tmp.i) #16, !noalias !37
  br label %ehcleanup133

invoke.cont126:                                   ; preds = %if.then.i.i.i, %invoke.cont.i
  call void @llvm.lifetime.end.p0(i64 32, ptr nonnull %ref.tmp.i) #16, !noalias !37
  %83 = load ptr, ptr %ref.tmp118, align 8, !tbaa !12
  %_M_string_length.i.i643 = getelementptr inbounds %"class.std::__cxx11::basic_string", ptr %ref.tmp118, i64 0, i32 1
  %84 = load i64, ptr %_M_string_length.i.i643, align 8, !tbaa !15
  %call2.i644 = invoke noundef nonnull align 8 dereferenceable(8) ptr @_ZSt16__ostream_insertIcSt11char_traitsIcEERSt13basic_ostreamIT_T0_ES6_PKS3_l(ptr noundef nonnull align 8 dereferenceable(8) %call2.i629, ptr noundef %83, i64 noundef %84)
          to label %invoke.cont128 unwind label %lpad127

invoke.cont128:                                   ; preds = %invoke.cont126
  %call1.i647648 = invoke noundef nonnull align 8 dereferenceable(8) ptr @_ZSt16__ostream_insertIcSt11char_traitsIcEERSt13basic_ostreamIT_T0_ES6_PKS3_l(ptr noundef nonnull align 8 dereferenceable(8) %call2.i644, ptr noundef nonnull @.str.4, i64 noundef 2)
          to label %invoke.cont130 unwind label %lpad127

invoke.cont130:                                   ; preds = %invoke.cont128
  %85 = load ptr, ptr %ref.tmp118, align 8, !tbaa !12
  %86 = getelementptr inbounds %"class.std::__cxx11::basic_string", ptr %ref.tmp118, i64 0, i32 2
  %cmp.i.i.i650 = icmp eq ptr %85, %86
  br i1 %cmp.i.i.i650, label %_ZNSt7__cxx1112basic_stringIcSt11char_traitsIcESaIcEED2Ev.exit653, label %if.then.i.i651

if.then.i.i651:                                   ; preds = %invoke.cont130
  call void @_ZdlPv(ptr noundef %85) #17
  br label %_ZNSt7__cxx1112basic_stringIcSt11char_traitsIcESaIcEED2Ev.exit653

_ZNSt7__cxx1112basic_stringIcSt11char_traitsIcESaIcEED2Ev.exit653: ; preds = %invoke.cont130, %if.then.i.i651
  %87 = load ptr, ptr %ref.tmp119, align 8, !tbaa !12
  %cmp.i.i.i654 = icmp eq ptr %87, %73
  br i1 %cmp.i.i.i654, label %_ZNSt7__cxx1112basic_stringIcSt11char_traitsIcESaIcEED2Ev.exit657, label %if.then.i.i655

if.then.i.i655:                                   ; preds = %_ZNSt7__cxx1112basic_stringIcSt11char_traitsIcESaIcEED2Ev.exit653
  call void @_ZdlPv(ptr noundef %87) #17
  br label %_ZNSt7__cxx1112basic_stringIcSt11char_traitsIcESaIcEED2Ev.exit657

_ZNSt7__cxx1112basic_stringIcSt11char_traitsIcESaIcEED2Ev.exit657: ; preds = %_ZNSt7__cxx1112basic_stringIcSt11char_traitsIcESaIcEED2Ev.exit653, %if.then.i.i655
  call void @llvm.lifetime.end.p0(i64 32, ptr nonnull %ref.tmp119) #16
  call void @llvm.lifetime.end.p0(i64 32, ptr nonnull %ref.tmp118) #16
  br label %if.end138

lpad72:                                           ; preds = %invoke.cont139, %if.end138, %if.then115, %_ZNSt7__cxx1112basic_stringIcSt11char_traitsIcESaIcEED2Ev.exit599, %if.end
  %88 = landingpad { ptr, i32 }
          cleanup
  br label %ehcleanup376

lpad80:                                           ; preds = %invoke.cont73
  %89 = landingpad { ptr, i32 }
          cleanup
  br label %ehcleanup88

lpad82:                                           ; preds = %invoke.cont83, %invoke.cont81
  %90 = landingpad { ptr, i32 }
          cleanup
  %91 = load ptr, ptr %ref.tmp75, align 8, !tbaa !12
  %92 = getelementptr inbounds %"class.std::__cxx11::basic_string", ptr %ref.tmp75, i64 0, i32 2
  %cmp.i.i.i658 = icmp eq ptr %91, %92
  br i1 %cmp.i.i.i658, label %ehcleanup88, label %if.then.i.i659

if.then.i.i659:                                   ; preds = %lpad82
  call void @_ZdlPv(ptr noundef %91) #17
  br label %ehcleanup88

ehcleanup88:                                      ; preds = %if.then.i.i659, %lpad82, %lpad80
  %.pn434 = phi { ptr, i32 } [ %89, %lpad80 ], [ %90, %lpad82 ], [ %90, %if.then.i.i659 ]
  %93 = load ptr, ptr %ref.tmp76, align 8, !tbaa !12
  %cmp.i.i.i662 = icmp eq ptr %93, %54
  br i1 %cmp.i.i.i662, label %ehcleanup89, label %if.then.i.i663

if.then.i.i663:                                   ; preds = %ehcleanup88
  call void @_ZdlPv(ptr noundef %93) #17
  br label %ehcleanup89

ehcleanup89:                                      ; preds = %if.then.i.i663, %ehcleanup88
  call void @llvm.lifetime.end.p0(i64 32, ptr nonnull %ref.tmp76) #16
  call void @llvm.lifetime.end.p0(i64 32, ptr nonnull %ref.tmp75) #16
  br label %ehcleanup376

lpad100:                                          ; preds = %invoke.cont93
  %94 = landingpad { ptr, i32 }
          cleanup
  br label %ehcleanup110

lpad104:                                          ; preds = %invoke.cont105, %invoke.cont103
  %95 = landingpad { ptr, i32 }
          cleanup
  %96 = load ptr, ptr %ref.tmp95, align 8, !tbaa !12
  %97 = getelementptr inbounds %"class.std::__cxx11::basic_string", ptr %ref.tmp95, i64 0, i32 2
  %cmp.i.i.i666 = icmp eq ptr %96, %97
  br i1 %cmp.i.i.i666, label %ehcleanup110, label %if.then.i.i667

if.then.i.i667:                                   ; preds = %lpad104
  call void @_ZdlPv(ptr noundef %96) #17
  br label %ehcleanup110

ehcleanup110:                                     ; preds = %if.then.i.i667, %lpad104, %lpad100
  %.pn437 = phi { ptr, i32 } [ %94, %lpad100 ], [ %95, %lpad104 ], [ %95, %if.then.i.i667 ]
  %98 = load ptr, ptr %ref.tmp96, align 8, !tbaa !12
  %cmp.i.i.i670 = icmp eq ptr %98, %63
  br i1 %cmp.i.i.i670, label %ehcleanup111, label %if.then.i.i671

if.then.i.i671:                                   ; preds = %ehcleanup110
  call void @_ZdlPv(ptr noundef %98) #17
  br label %ehcleanup111

ehcleanup111:                                     ; preds = %if.then.i.i671, %ehcleanup110
  call void @llvm.lifetime.end.p0(i64 32, ptr nonnull %ref.tmp96) #16
  call void @llvm.lifetime.end.p0(i64 32, ptr nonnull %ref.tmp95) #16
  br label %ehcleanup376

lpad121:                                          ; preds = %invoke.cont116
  %99 = landingpad { ptr, i32 }
          cleanup
  br label %ehcleanup134

lpad125:                                          ; preds = %call2.i10.i.noexc640
  %100 = landingpad { ptr, i32 }
          cleanup
  br label %ehcleanup133

lpad127:                                          ; preds = %invoke.cont128, %invoke.cont126
  %101 = landingpad { ptr, i32 }
          cleanup
  %102 = load ptr, ptr %ref.tmp118, align 8, !tbaa !12
  %103 = getelementptr inbounds %"class.std::__cxx11::basic_string", ptr %ref.tmp118, i64 0, i32 2
  %cmp.i.i.i674 = icmp eq ptr %102, %103
  br i1 %cmp.i.i.i674, label %ehcleanup133, label %if.then.i.i675

if.then.i.i675:                                   ; preds = %lpad127
  call void @_ZdlPv(ptr noundef %102) #17
  br label %ehcleanup133

ehcleanup133:                                     ; preds = %if.then.i.i675, %lpad127, %lpad125, %_ZNSt7__cxx1112basic_stringIcSt11char_traitsIcESaIcEED2Ev.exit4.i
  %.pn465 = phi { ptr, i32 } [ %100, %lpad125 ], [ %80, %_ZNSt7__cxx1112basic_stringIcSt11char_traitsIcESaIcEED2Ev.exit4.i ], [ %101, %lpad127 ], [ %101, %if.then.i.i675 ]
  %104 = load ptr, ptr %ref.tmp119, align 8, !tbaa !12
  %cmp.i.i.i678 = icmp eq ptr %104, %73
  br i1 %cmp.i.i.i678, label %ehcleanup134, label %if.then.i.i679

if.then.i.i679:                                   ; preds = %ehcleanup133
  call void @_ZdlPv(ptr noundef %104) #17
  br label %ehcleanup134

ehcleanup134:                                     ; preds = %if.then.i.i679, %ehcleanup133, %lpad121
  %.pn465.pn = phi { ptr, i32 } [ %99, %lpad121 ], [ %.pn465, %ehcleanup133 ], [ %.pn465, %if.then.i.i679 ]
  call void @llvm.lifetime.end.p0(i64 32, ptr nonnull %ref.tmp119) #16
  call void @llvm.lifetime.end.p0(i64 32, ptr nonnull %ref.tmp118) #16
  br label %ehcleanup376

if.end138:                                        ; preds = %_ZNSt7__cxx1112basic_stringIcSt11char_traitsIcESaIcEED2Ev.exit657, %_ZNSt7__cxx1112basic_stringIcSt11char_traitsIcESaIcEED2Ev.exit627
  %105 = load ptr, ptr %indent, align 8, !tbaa !12
  %106 = load i64, ptr %_M_string_length.i.i482, align 8, !tbaa !15
  %call2.i683 = invoke noundef nonnull align 8 dereferenceable(8) ptr @_ZSt16__ostream_insertIcSt11char_traitsIcEERSt13basic_ostreamIT_T0_ES6_PKS3_l(ptr noundef nonnull align 8 dereferenceable(8) %0, ptr noundef %105, i64 noundef %106)
          to label %invoke.cont139 unwind label %lpad72

invoke.cont139:                                   ; preds = %if.end138
  %call1.i686687 = invoke noundef nonnull align 8 dereferenceable(8) ptr @_ZSt16__ostream_insertIcSt11char_traitsIcEERSt13basic_ostreamIT_T0_ES6_PKS3_l(ptr noundef nonnull align 8 dereferenceable(8) %call2.i683, ptr noundef nonnull @.str.10, i64 noundef 12)
          to label %invoke.cont141 unwind label %lpad72

invoke.cont141:                                   ; preds = %invoke.cont139
  call void @llvm.lifetime.start.p0(i64 32, ptr nonnull %ref.tmp143) #16
  %107 = getelementptr inbounds %"class.std::__cxx11::basic_string", ptr %ref.tmp143, i64 0, i32 2
  store ptr %107, ptr %ref.tmp143, align 8, !tbaa !10
  invoke void @_ZNSt7__cxx1112basic_stringIcSt11char_traitsIcESaIcEE12_M_constructEmc(ptr noundef nonnull align 8 dereferenceable(32) %ref.tmp143, i64 noundef 6, i8 noundef signext 32)
          to label %invoke.cont146 unwind label %lpad145

invoke.cont146:                                   ; preds = %invoke.cont141
  %108 = load ptr, ptr %ref.tmp143, align 8, !tbaa !12
  %cmp.i56.i = icmp eq ptr %108, %107
  br i1 %cmp.i56.i, label %if.then15.i, label %invoke.cont28.i

if.then15.i:                                      ; preds = %invoke.cont146
  %_M_string_length.i.i692 = getelementptr inbounds %"class.std::__cxx11::basic_string", ptr %ref.tmp143, i64 0, i32 1
  %109 = load i64, ptr %_M_string_length.i.i692, align 8, !tbaa !15
  %tobool18.not.i = icmp eq i64 %109, 0
  br i1 %tobool18.not.i, label %if.end24.i, label %if.then19.i

if.then19.i:                                      ; preds = %if.then15.i
  %110 = load ptr, ptr %indent, align 8, !tbaa !12
  %cond.i693 = icmp eq i64 %109, 1
  br i1 %cond.i693, label %if.then.i.i694, label %if.end.i.i.i

if.then.i.i694:                                   ; preds = %if.then19.i
  %111 = load i8, ptr %107, align 8, !tbaa !16
  store i8 %111, ptr %110, align 1, !tbaa !16
  br label %if.end24.i

if.end.i.i.i:                                     ; preds = %if.then19.i
  call void @llvm.memcpy.p0.p0.i64(ptr align 1 %110, ptr nonnull align 8 %107, i64 %109, i1 false)
  br label %if.end24.i

if.end24.i:                                       ; preds = %if.end.i.i.i, %if.then.i.i694, %if.then15.i
  %112 = load i64, ptr %_M_string_length.i.i692, align 8, !tbaa !15
  store i64 %112, ptr %_M_string_length.i.i482, align 8, !tbaa !15
  %113 = load ptr, ptr %indent, align 8, !tbaa !12
  %arrayidx.i.i = getelementptr inbounds i8, ptr %113, i64 %112
  store i8 0, ptr %arrayidx.i.i, align 1, !tbaa !16
  %.pre.i = load ptr, ptr %ref.tmp143, align 8, !tbaa !12
  br label %_ZNSt7__cxx1112basic_stringIcSt11char_traitsIcESaIcEEaSEOS4_.exit

invoke.cont28.i:                                  ; preds = %invoke.cont146
  %114 = load ptr, ptr %indent, align 8, !tbaa !12
  %cmp.i60.i = icmp eq ptr %114, %4
  br i1 %cmp.i60.i, label %if.end32.thread.i, label %if.end32.i

if.end32.thread.i:                                ; preds = %invoke.cont28.i
  store ptr %108, ptr %indent, align 8, !tbaa !12
  %_M_string_length.i6165.i = getelementptr inbounds %"class.std::__cxx11::basic_string", ptr %ref.tmp143, i64 0, i32 1
  %115 = load <2 x i64>, ptr %_M_string_length.i6165.i, align 8, !tbaa !16
  store <2 x i64> %115, ptr %_M_string_length.i.i482, align 8, !tbaa !16
  br label %if.else37.i

if.end32.i:                                       ; preds = %invoke.cont28.i
  %116 = load i64, ptr %4, align 8, !tbaa !16
  store ptr %108, ptr %indent, align 8, !tbaa !12
  %_M_string_length.i61.i = getelementptr inbounds %"class.std::__cxx11::basic_string", ptr %ref.tmp143, i64 0, i32 1
  %117 = load <2 x i64>, ptr %_M_string_length.i61.i, align 8, !tbaa !16
  store <2 x i64> %117, ptr %_M_string_length.i.i482, align 8, !tbaa !16
  %tobool35.not.i = icmp eq ptr %114, null
  br i1 %tobool35.not.i, label %if.else37.i, label %if.then36.i

if.then36.i:                                      ; preds = %if.end32.i
  store ptr %114, ptr %ref.tmp143, align 8, !tbaa !12
  store i64 %116, ptr %107, align 8, !tbaa !16
  br label %_ZNSt7__cxx1112basic_stringIcSt11char_traitsIcESaIcEEaSEOS4_.exit

if.else37.i:                                      ; preds = %if.end32.i, %if.end32.thread.i
  store ptr %107, ptr %ref.tmp143, align 8, !tbaa !12
  br label %_ZNSt7__cxx1112basic_stringIcSt11char_traitsIcESaIcEEaSEOS4_.exit

_ZNSt7__cxx1112basic_stringIcSt11char_traitsIcESaIcEEaSEOS4_.exit: ; preds = %if.end24.i, %if.then36.i, %if.else37.i
  %118 = phi ptr [ %.pre.i, %if.end24.i ], [ %114, %if.then36.i ], [ %107, %if.else37.i ]
  %_M_string_length.i.i.i.i695 = getelementptr inbounds %"class.std::__cxx11::basic_string", ptr %ref.tmp143, i64 0, i32 1
  store i64 0, ptr %_M_string_length.i.i.i.i695, align 8, !tbaa !15
  store i8 0, ptr %118, align 1, !tbaa !16
  %119 = load ptr, ptr %ref.tmp143, align 8, !tbaa !12
  %cmp.i.i.i696 = icmp eq ptr %119, %107
  br i1 %cmp.i.i.i696, label %_ZNSt7__cxx1112basic_stringIcSt11char_traitsIcESaIcEED2Ev.exit699, label %if.then.i.i697

if.then.i.i697:                                   ; preds = %_ZNSt7__cxx1112basic_stringIcSt11char_traitsIcESaIcEEaSEOS4_.exit
  call void @_ZdlPv(ptr noundef %119) #17
  br label %_ZNSt7__cxx1112basic_stringIcSt11char_traitsIcESaIcEED2Ev.exit699

_ZNSt7__cxx1112basic_stringIcSt11char_traitsIcESaIcEED2Ev.exit699: ; preds = %_ZNSt7__cxx1112basic_stringIcSt11char_traitsIcESaIcEEaSEOS4_.exit, %if.then.i.i697
  call void @llvm.lifetime.end.p0(i64 32, ptr nonnull %ref.tmp143) #16
  call void @llvm.lifetime.start.p0(i64 32, ptr nonnull %cache_indent) #16
  %120 = getelementptr inbounds %"class.std::__cxx11::basic_string", ptr %cache_indent, i64 0, i32 2
  store ptr %120, ptr %cache_indent, align 8, !tbaa !10
  invoke void @_ZNSt7__cxx1112basic_stringIcSt11char_traitsIcESaIcEE12_M_constructEmc(ptr noundef nonnull align 8 dereferenceable(32) %cache_indent, i64 noundef 8, i8 noundef signext 32)
          to label %for.cond.preheader unwind label %lpad152

for.cond.preheader:                               ; preds = %_ZNSt7__cxx1112basic_stringIcSt11char_traitsIcESaIcEED2Ev.exit699
  %caches = getelementptr inbounds %"struct.benchmark::CPUInfo", ptr %51, i64 0, i32 3
  %_M_finish.i = getelementptr inbounds %"struct.benchmark::CPUInfo", ptr %51, i64 0, i32 3, i32 0, i32 0, i32 0, i32 1
  %121 = load ptr, ptr %_M_finish.i, align 8, !tbaa !40
  %122 = load ptr, ptr %caches, align 8, !tbaa !41
  %cmp1571071.not = icmp eq ptr %121, %122
  br i1 %cmp1571071.not, label %for.cond.cleanup, label %for.body.lr.ph

for.body.lr.ph:                                   ; preds = %for.cond.preheader
  %_M_string_length.i.i711 = getelementptr inbounds %"class.std::__cxx11::basic_string", ptr %cache_indent, i64 0, i32 1
  %123 = getelementptr inbounds %"class.std::__cxx11::basic_string", ptr %ref.tmp168, i64 0, i32 2
  %_M_string_length.i.i.i.i721 = getelementptr inbounds %"class.std::__cxx11::basic_string", ptr %ref.tmp168, i64 0, i32 1
  %_M_string_length.i.i726 = getelementptr inbounds %"class.std::__cxx11::basic_string", ptr %ref.tmp167, i64 0, i32 1
  %124 = getelementptr inbounds %"class.std::__cxx11::basic_string", ptr %ref.tmp167, i64 0, i32 2
  %125 = getelementptr inbounds %"class.std::__cxx11::basic_string", ptr %ref.tmp188, i64 0, i32 2
  %_M_string_length.i.i.i.i751 = getelementptr inbounds %"class.std::__cxx11::basic_string", ptr %ref.tmp188, i64 0, i32 1
  %_M_string_length.i.i756 = getelementptr inbounds %"class.std::__cxx11::basic_string", ptr %ref.tmp187, i64 0, i32 1
  %126 = getelementptr inbounds %"class.std::__cxx11::basic_string", ptr %ref.tmp187, i64 0, i32 2
  %127 = getelementptr inbounds %"class.std::__cxx11::basic_string", ptr %ref.tmp209, i64 0, i32 2
  %_M_string_length.i.i.i.i781 = getelementptr inbounds %"class.std::__cxx11::basic_string", ptr %ref.tmp209, i64 0, i32 1
  %_M_string_length.i.i786 = getelementptr inbounds %"class.std::__cxx11::basic_string", ptr %ref.tmp208, i64 0, i32 1
  %128 = getelementptr inbounds %"class.std::__cxx11::basic_string", ptr %ref.tmp208, i64 0, i32 2
  %129 = getelementptr inbounds %"class.std::__cxx11::basic_string", ptr %ref.tmp230, i64 0, i32 2
  %_M_string_length.i.i.i.i811 = getelementptr inbounds %"class.std::__cxx11::basic_string", ptr %ref.tmp230, i64 0, i32 1
  %_M_string_length.i.i816 = getelementptr inbounds %"class.std::__cxx11::basic_string", ptr %ref.tmp229, i64 0, i32 1
  %130 = getelementptr inbounds %"class.std::__cxx11::basic_string", ptr %ref.tmp229, i64 0, i32 2
  %arrayidx.i.i.i722 = getelementptr inbounds i8, ptr %ref.tmp168, i64 20
  %arrayidx.i.i.i752 = getelementptr inbounds i8, ptr %ref.tmp188, i64 21
  %arrayidx.i.i.i782 = getelementptr inbounds i8, ptr %ref.tmp209, i64 20
  %arrayidx.i.i.i812 = getelementptr inbounds %"class.std::__cxx11::basic_string", ptr %ref.tmp230, i64 0, i32 2, i32 1, i64 3
  br label %for.body

for.cond.cleanup:                                 ; preds = %invoke.cont259, %for.cond.preheader
  call void @llvm.lifetime.start.p0(i64 32, ptr nonnull %ref.tmp263) #16
  %131 = getelementptr inbounds %"class.std::__cxx11::basic_string", ptr %ref.tmp263, i64 0, i32 2
  store ptr %131, ptr %ref.tmp263, align 8, !tbaa !10
  invoke void @_ZNSt7__cxx1112basic_stringIcSt11char_traitsIcESaIcEE12_M_constructEmc(ptr noundef nonnull align 8 dereferenceable(32) %ref.tmp263, i64 noundef 4, i8 noundef signext 32)
          to label %invoke.cont266 unwind label %lpad265

lpad145:                                          ; preds = %invoke.cont141
  %132 = landingpad { ptr, i32 }
          cleanup
  call void @llvm.lifetime.end.p0(i64 32, ptr nonnull %ref.tmp143) #16
  br label %ehcleanup376

lpad152:                                          ; preds = %_ZNSt7__cxx1112basic_stringIcSt11char_traitsIcESaIcEED2Ev.exit699
  %133 = landingpad { ptr, i32 }
          cleanup
  br label %ehcleanup374

for.body:                                         ; preds = %for.body.lr.ph, %invoke.cont259
  %134 = phi ptr [ %122, %for.body.lr.ph ], [ %186, %invoke.cont259 ]
  %i.01072 = phi i64 [ 0, %for.body.lr.ph ], [ %inc, %invoke.cont259 ]
  %add.ptr.i = getelementptr inbounds %"struct.benchmark::CPUInfo::CacheInfo", ptr %134, i64 %i.01072
  %135 = load ptr, ptr %indent, align 8, !tbaa !12
  %136 = load i64, ptr %_M_string_length.i.i482, align 8, !tbaa !15
  %call2.i705 = invoke noundef nonnull align 8 dereferenceable(8) ptr @_ZSt16__ostream_insertIcSt11char_traitsIcEERSt13basic_ostreamIT_T0_ES6_PKS3_l(ptr noundef nonnull align 8 dereferenceable(8) %0, ptr noundef %135, i64 noundef %136)
          to label %invoke.cont161 unwind label %lpad160

invoke.cont161:                                   ; preds = %for.body
  %call1.i708709 = invoke noundef nonnull align 8 dereferenceable(8) ptr @_ZSt16__ostream_insertIcSt11char_traitsIcEERSt13basic_ostreamIT_T0_ES6_PKS3_l(ptr noundef nonnull align 8 dereferenceable(8) %call2.i705, ptr noundef nonnull @.str, i64 noundef 2)
          to label %invoke.cont163 unwind label %lpad160

invoke.cont163:                                   ; preds = %invoke.cont161
  %137 = load ptr, ptr %cache_indent, align 8, !tbaa !12
  %138 = load i64, ptr %_M_string_length.i.i711, align 8, !tbaa !15
  %call2.i712 = invoke noundef nonnull align 8 dereferenceable(8) ptr @_ZSt16__ostream_insertIcSt11char_traitsIcEERSt13basic_ostreamIT_T0_ES6_PKS3_l(ptr noundef nonnull align 8 dereferenceable(8) %0, ptr noundef %137, i64 noundef %138)
          to label %invoke.cont165 unwind label %lpad160

invoke.cont165:                                   ; preds = %invoke.cont163
  call void @llvm.lifetime.start.p0(i64 32, ptr nonnull %ref.tmp167) #16
  call void @llvm.lifetime.start.p0(i64 32, ptr nonnull %ref.tmp168) #16
  store ptr %123, ptr %ref.tmp168, align 8, !tbaa !10
  store i32 1701869940, ptr %123, align 8
  store i64 4, ptr %_M_string_length.i.i.i.i721, align 8, !tbaa !15
  store i8 0, ptr %arrayidx.i.i.i722, align 4, !tbaa !16
  invoke fastcc void @_ZN9benchmark12_GLOBAL__N_18FormatKVERKNSt7__cxx1112basic_stringIcSt11char_traitsIcESaIcEEES8_(ptr noalias nonnull align 8 %ref.tmp167, ptr noundef nonnull align 8 dereferenceable(32) %ref.tmp168, ptr noundef nonnull align 8 dereferenceable(32) %add.ptr.i)
          to label %invoke.cont173 unwind label %lpad172

invoke.cont173:                                   ; preds = %invoke.cont165
  %139 = load ptr, ptr %ref.tmp167, align 8, !tbaa !12
  %140 = load i64, ptr %_M_string_length.i.i726, align 8, !tbaa !15
  %call2.i727 = invoke noundef nonnull align 8 dereferenceable(8) ptr @_ZSt16__ostream_insertIcSt11char_traitsIcEERSt13basic_ostreamIT_T0_ES6_PKS3_l(ptr noundef nonnull align 8 dereferenceable(8) %call2.i712, ptr noundef %139, i64 noundef %140)
          to label %invoke.cont175 unwind label %lpad174

invoke.cont175:                                   ; preds = %invoke.cont173
  %call1.i730731 = invoke noundef nonnull align 8 dereferenceable(8) ptr @_ZSt16__ostream_insertIcSt11char_traitsIcEERSt13basic_ostreamIT_T0_ES6_PKS3_l(ptr noundef nonnull align 8 dereferenceable(8) %call2.i727, ptr noundef nonnull @.str.4, i64 noundef 2)
          to label %invoke.cont177 unwind label %lpad174

invoke.cont177:                                   ; preds = %invoke.cont175
  %141 = load ptr, ptr %ref.tmp167, align 8, !tbaa !12
  %cmp.i.i.i733 = icmp eq ptr %141, %124
  br i1 %cmp.i.i.i733, label %_ZNSt7__cxx1112basic_stringIcSt11char_traitsIcESaIcEED2Ev.exit736, label %if.then.i.i734

if.then.i.i734:                                   ; preds = %invoke.cont177
  call void @_ZdlPv(ptr noundef %141) #17
  br label %_ZNSt7__cxx1112basic_stringIcSt11char_traitsIcESaIcEED2Ev.exit736

_ZNSt7__cxx1112basic_stringIcSt11char_traitsIcESaIcEED2Ev.exit736: ; preds = %invoke.cont177, %if.then.i.i734
  %142 = load ptr, ptr %ref.tmp168, align 8, !tbaa !12
  %cmp.i.i.i737 = icmp eq ptr %142, %123
  br i1 %cmp.i.i.i737, label %_ZNSt7__cxx1112basic_stringIcSt11char_traitsIcESaIcEED2Ev.exit740, label %if.then.i.i738

if.then.i.i738:                                   ; preds = %_ZNSt7__cxx1112basic_stringIcSt11char_traitsIcESaIcEED2Ev.exit736
  call void @_ZdlPv(ptr noundef %142) #17
  br label %_ZNSt7__cxx1112basic_stringIcSt11char_traitsIcESaIcEED2Ev.exit740

_ZNSt7__cxx1112basic_stringIcSt11char_traitsIcESaIcEED2Ev.exit740: ; preds = %_ZNSt7__cxx1112basic_stringIcSt11char_traitsIcESaIcEED2Ev.exit736, %if.then.i.i738
  call void @llvm.lifetime.end.p0(i64 32, ptr nonnull %ref.tmp168) #16
  call void @llvm.lifetime.end.p0(i64 32, ptr nonnull %ref.tmp167) #16
  %143 = load ptr, ptr %cache_indent, align 8, !tbaa !12
  %144 = load i64, ptr %_M_string_length.i.i711, align 8, !tbaa !15
  %call2.i742 = invoke noundef nonnull align 8 dereferenceable(8) ptr @_ZSt16__ostream_insertIcSt11char_traitsIcEERSt13basic_ostreamIT_T0_ES6_PKS3_l(ptr noundef nonnull align 8 dereferenceable(8) %0, ptr noundef %143, i64 noundef %144)
          to label %invoke.cont185 unwind label %lpad160

invoke.cont185:                                   ; preds = %_ZNSt7__cxx1112basic_stringIcSt11char_traitsIcESaIcEED2Ev.exit740
  call void @llvm.lifetime.start.p0(i64 32, ptr nonnull %ref.tmp187) #16
  call void @llvm.lifetime.start.p0(i64 32, ptr nonnull %ref.tmp188) #16
  store ptr %125, ptr %ref.tmp188, align 8, !tbaa !10
  call void @llvm.memcpy.p0.p0.i64(ptr noundef nonnull align 8 dereferenceable(5) %125, ptr noundef nonnull align 1 dereferenceable(5) @.str.12, i64 5, i1 false)
  store i64 5, ptr %_M_string_length.i.i.i.i751, align 8, !tbaa !15
  store i8 0, ptr %arrayidx.i.i.i752, align 1, !tbaa !16
  %level = getelementptr inbounds %"struct.benchmark::CPUInfo::CacheInfo", ptr %134, i64 %i.01072, i32 1
  %145 = load i32, ptr %level, align 8, !tbaa !42
  %conv192 = sext i32 %145 to i64
  invoke fastcc void @_ZN9benchmark12_GLOBAL__N_18FormatKVERKNSt7__cxx1112basic_stringIcSt11char_traitsIcESaIcEEEl(ptr noalias nonnull align 8 %ref.tmp187, ptr noundef nonnull align 8 dereferenceable(32) %ref.tmp188, i64 noundef %conv192)
          to label %invoke.cont194 unwind label %lpad193

invoke.cont194:                                   ; preds = %invoke.cont185
  %146 = load ptr, ptr %ref.tmp187, align 8, !tbaa !12
  %147 = load i64, ptr %_M_string_length.i.i756, align 8, !tbaa !15
  %call2.i757 = invoke noundef nonnull align 8 dereferenceable(8) ptr @_ZSt16__ostream_insertIcSt11char_traitsIcEERSt13basic_ostreamIT_T0_ES6_PKS3_l(ptr noundef nonnull align 8 dereferenceable(8) %call2.i742, ptr noundef %146, i64 noundef %147)
          to label %invoke.cont196 unwind label %lpad195

invoke.cont196:                                   ; preds = %invoke.cont194
  %call1.i760761 = invoke noundef nonnull align 8 dereferenceable(8) ptr @_ZSt16__ostream_insertIcSt11char_traitsIcEERSt13basic_ostreamIT_T0_ES6_PKS3_l(ptr noundef nonnull align 8 dereferenceable(8) %call2.i757, ptr noundef nonnull @.str.4, i64 noundef 2)
          to label %invoke.cont198 unwind label %lpad195

invoke.cont198:                                   ; preds = %invoke.cont196
  %148 = load ptr, ptr %ref.tmp187, align 8, !tbaa !12
  %cmp.i.i.i763 = icmp eq ptr %148, %126
  br i1 %cmp.i.i.i763, label %_ZNSt7__cxx1112basic_stringIcSt11char_traitsIcESaIcEED2Ev.exit766, label %if.then.i.i764

if.then.i.i764:                                   ; preds = %invoke.cont198
  call void @_ZdlPv(ptr noundef %148) #17
  br label %_ZNSt7__cxx1112basic_stringIcSt11char_traitsIcESaIcEED2Ev.exit766

_ZNSt7__cxx1112basic_stringIcSt11char_traitsIcESaIcEED2Ev.exit766: ; preds = %invoke.cont198, %if.then.i.i764
  %149 = load ptr, ptr %ref.tmp188, align 8, !tbaa !12
  %cmp.i.i.i767 = icmp eq ptr %149, %125
  br i1 %cmp.i.i.i767, label %_ZNSt7__cxx1112basic_stringIcSt11char_traitsIcESaIcEED2Ev.exit770, label %if.then.i.i768

if.then.i.i768:                                   ; preds = %_ZNSt7__cxx1112basic_stringIcSt11char_traitsIcESaIcEED2Ev.exit766
  call void @_ZdlPv(ptr noundef %149) #17
  br label %_ZNSt7__cxx1112basic_stringIcSt11char_traitsIcESaIcEED2Ev.exit770

_ZNSt7__cxx1112basic_stringIcSt11char_traitsIcESaIcEED2Ev.exit770: ; preds = %_ZNSt7__cxx1112basic_stringIcSt11char_traitsIcESaIcEED2Ev.exit766, %if.then.i.i768
  call void @llvm.lifetime.end.p0(i64 32, ptr nonnull %ref.tmp188) #16
  call void @llvm.lifetime.end.p0(i64 32, ptr nonnull %ref.tmp187) #16
  %150 = load ptr, ptr %cache_indent, align 8, !tbaa !12
  %151 = load i64, ptr %_M_string_length.i.i711, align 8, !tbaa !15
  %call2.i772 = invoke noundef nonnull align 8 dereferenceable(8) ptr @_ZSt16__ostream_insertIcSt11char_traitsIcEERSt13basic_ostreamIT_T0_ES6_PKS3_l(ptr noundef nonnull align 8 dereferenceable(8) %0, ptr noundef %150, i64 noundef %151)
          to label %invoke.cont206 unwind label %lpad160

invoke.cont206:                                   ; preds = %_ZNSt7__cxx1112basic_stringIcSt11char_traitsIcESaIcEED2Ev.exit770
  call void @llvm.lifetime.start.p0(i64 32, ptr nonnull %ref.tmp208) #16
  call void @llvm.lifetime.start.p0(i64 32, ptr nonnull %ref.tmp209) #16
  store ptr %127, ptr %ref.tmp209, align 8, !tbaa !10
  store i32 1702521203, ptr %127, align 8
  store i64 4, ptr %_M_string_length.i.i.i.i781, align 8, !tbaa !15
  store i8 0, ptr %arrayidx.i.i.i782, align 4, !tbaa !16
  %size = getelementptr inbounds %"struct.benchmark::CPUInfo::CacheInfo", ptr %134, i64 %i.01072, i32 2
  %152 = load i32, ptr %size, align 4, !tbaa !44
  %conv213 = sext i32 %152 to i64
  invoke fastcc void @_ZN9benchmark12_GLOBAL__N_18FormatKVERKNSt7__cxx1112basic_stringIcSt11char_traitsIcESaIcEEEl(ptr noalias nonnull align 8 %ref.tmp208, ptr noundef nonnull align 8 dereferenceable(32) %ref.tmp209, i64 noundef %conv213)
          to label %invoke.cont215 unwind label %lpad214

invoke.cont215:                                   ; preds = %invoke.cont206
  %153 = load ptr, ptr %ref.tmp208, align 8, !tbaa !12
  %154 = load i64, ptr %_M_string_length.i.i786, align 8, !tbaa !15
  %call2.i787 = invoke noundef nonnull align 8 dereferenceable(8) ptr @_ZSt16__ostream_insertIcSt11char_traitsIcEERSt13basic_ostreamIT_T0_ES6_PKS3_l(ptr noundef nonnull align 8 dereferenceable(8) %call2.i772, ptr noundef %153, i64 noundef %154)
          to label %invoke.cont217 unwind label %lpad216

invoke.cont217:                                   ; preds = %invoke.cont215
  %call1.i790791 = invoke noundef nonnull align 8 dereferenceable(8) ptr @_ZSt16__ostream_insertIcSt11char_traitsIcEERSt13basic_ostreamIT_T0_ES6_PKS3_l(ptr noundef nonnull align 8 dereferenceable(8) %call2.i787, ptr noundef nonnull @.str.4, i64 noundef 2)
          to label %invoke.cont219 unwind label %lpad216

invoke.cont219:                                   ; preds = %invoke.cont217
  %155 = load ptr, ptr %ref.tmp208, align 8, !tbaa !12
  %cmp.i.i.i793 = icmp eq ptr %155, %128
  br i1 %cmp.i.i.i793, label %_ZNSt7__cxx1112basic_stringIcSt11char_traitsIcESaIcEED2Ev.exit796, label %if.then.i.i794

if.then.i.i794:                                   ; preds = %invoke.cont219
  call void @_ZdlPv(ptr noundef %155) #17
  br label %_ZNSt7__cxx1112basic_stringIcSt11char_traitsIcESaIcEED2Ev.exit796

_ZNSt7__cxx1112basic_stringIcSt11char_traitsIcESaIcEED2Ev.exit796: ; preds = %invoke.cont219, %if.then.i.i794
  %156 = load ptr, ptr %ref.tmp209, align 8, !tbaa !12
  %cmp.i.i.i797 = icmp eq ptr %156, %127
  br i1 %cmp.i.i.i797, label %_ZNSt7__cxx1112basic_stringIcSt11char_traitsIcESaIcEED2Ev.exit800, label %if.then.i.i798

if.then.i.i798:                                   ; preds = %_ZNSt7__cxx1112basic_stringIcSt11char_traitsIcESaIcEED2Ev.exit796
  call void @_ZdlPv(ptr noundef %156) #17
  br label %_ZNSt7__cxx1112basic_stringIcSt11char_traitsIcESaIcEED2Ev.exit800

_ZNSt7__cxx1112basic_stringIcSt11char_traitsIcESaIcEED2Ev.exit800: ; preds = %_ZNSt7__cxx1112basic_stringIcSt11char_traitsIcESaIcEED2Ev.exit796, %if.then.i.i798
  call void @llvm.lifetime.end.p0(i64 32, ptr nonnull %ref.tmp209) #16
  call void @llvm.lifetime.end.p0(i64 32, ptr nonnull %ref.tmp208) #16
  %157 = load ptr, ptr %cache_indent, align 8, !tbaa !12
  %158 = load i64, ptr %_M_string_length.i.i711, align 8, !tbaa !15
  %call2.i802 = invoke noundef nonnull align 8 dereferenceable(8) ptr @_ZSt16__ostream_insertIcSt11char_traitsIcEERSt13basic_ostreamIT_T0_ES6_PKS3_l(ptr noundef nonnull align 8 dereferenceable(8) %0, ptr noundef %157, i64 noundef %158)
          to label %invoke.cont227 unwind label %lpad160

invoke.cont227:                                   ; preds = %_ZNSt7__cxx1112basic_stringIcSt11char_traitsIcESaIcEED2Ev.exit800
  call void @llvm.lifetime.start.p0(i64 32, ptr nonnull %ref.tmp229) #16
  call void @llvm.lifetime.start.p0(i64 32, ptr nonnull %ref.tmp230) #16
  store ptr %129, ptr %ref.tmp230, align 8, !tbaa !10
  call void @llvm.memcpy.p0.p0.i64(ptr noundef nonnull align 8 dereferenceable(11) %129, ptr noundef nonnull align 1 dereferenceable(11) @.str.14, i64 11, i1 false)
  store i64 11, ptr %_M_string_length.i.i.i.i811, align 8, !tbaa !15
  store i8 0, ptr %arrayidx.i.i.i812, align 1, !tbaa !16
  %num_sharing = getelementptr inbounds %"struct.benchmark::CPUInfo::CacheInfo", ptr %134, i64 %i.01072, i32 3
  %159 = load i32, ptr %num_sharing, align 8, !tbaa !45
  %conv234 = sext i32 %159 to i64
  invoke fastcc void @_ZN9benchmark12_GLOBAL__N_18FormatKVERKNSt7__cxx1112basic_stringIcSt11char_traitsIcESaIcEEEl(ptr noalias nonnull align 8 %ref.tmp229, ptr noundef nonnull align 8 dereferenceable(32) %ref.tmp230, i64 noundef %conv234)
          to label %invoke.cont236 unwind label %lpad235

invoke.cont236:                                   ; preds = %invoke.cont227
  %160 = load ptr, ptr %ref.tmp229, align 8, !tbaa !12
  %161 = load i64, ptr %_M_string_length.i.i816, align 8, !tbaa !15
  %call2.i817 = invoke noundef nonnull align 8 dereferenceable(8) ptr @_ZSt16__ostream_insertIcSt11char_traitsIcEERSt13basic_ostreamIT_T0_ES6_PKS3_l(ptr noundef nonnull align 8 dereferenceable(8) %call2.i802, ptr noundef %160, i64 noundef %161)
          to label %invoke.cont238 unwind label %lpad237

invoke.cont238:                                   ; preds = %invoke.cont236
  %call1.i820821 = invoke noundef nonnull align 8 dereferenceable(8) ptr @_ZSt16__ostream_insertIcSt11char_traitsIcEERSt13basic_ostreamIT_T0_ES6_PKS3_l(ptr noundef nonnull align 8 dereferenceable(8) %call2.i817, ptr noundef nonnull @.str.15, i64 noundef 1)
          to label %invoke.cont240 unwind label %lpad237

invoke.cont240:                                   ; preds = %invoke.cont238
  %162 = load ptr, ptr %ref.tmp229, align 8, !tbaa !12
  %cmp.i.i.i823 = icmp eq ptr %162, %130
  br i1 %cmp.i.i.i823, label %_ZNSt7__cxx1112basic_stringIcSt11char_traitsIcESaIcEED2Ev.exit826, label %if.then.i.i824

if.then.i.i824:                                   ; preds = %invoke.cont240
  call void @_ZdlPv(ptr noundef %162) #17
  br label %_ZNSt7__cxx1112basic_stringIcSt11char_traitsIcESaIcEED2Ev.exit826

_ZNSt7__cxx1112basic_stringIcSt11char_traitsIcESaIcEED2Ev.exit826: ; preds = %invoke.cont240, %if.then.i.i824
  %163 = load ptr, ptr %ref.tmp230, align 8, !tbaa !12
  %cmp.i.i.i827 = icmp eq ptr %163, %129
  br i1 %cmp.i.i.i827, label %_ZNSt7__cxx1112basic_stringIcSt11char_traitsIcESaIcEED2Ev.exit830, label %if.then.i.i828

if.then.i.i828:                                   ; preds = %_ZNSt7__cxx1112basic_stringIcSt11char_traitsIcESaIcEED2Ev.exit826
  call void @_ZdlPv(ptr noundef %163) #17
  br label %_ZNSt7__cxx1112basic_stringIcSt11char_traitsIcESaIcEED2Ev.exit830

_ZNSt7__cxx1112basic_stringIcSt11char_traitsIcESaIcEED2Ev.exit830: ; preds = %_ZNSt7__cxx1112basic_stringIcSt11char_traitsIcESaIcEED2Ev.exit826, %if.then.i.i828
  call void @llvm.lifetime.end.p0(i64 32, ptr nonnull %ref.tmp230) #16
  call void @llvm.lifetime.end.p0(i64 32, ptr nonnull %ref.tmp229) #16
  %164 = load ptr, ptr %indent, align 8, !tbaa !12
  %165 = load i64, ptr %_M_string_length.i.i482, align 8, !tbaa !15
  %call2.i832 = invoke noundef nonnull align 8 dereferenceable(8) ptr @_ZSt16__ostream_insertIcSt11char_traitsIcEERSt13basic_ostreamIT_T0_ES6_PKS3_l(ptr noundef nonnull align 8 dereferenceable(8) %0, ptr noundef %164, i64 noundef %165)
          to label %invoke.cont248 unwind label %lpad160

invoke.cont248:                                   ; preds = %_ZNSt7__cxx1112basic_stringIcSt11char_traitsIcESaIcEED2Ev.exit830
  %call1.i835836 = invoke noundef nonnull align 8 dereferenceable(8) ptr @_ZSt16__ostream_insertIcSt11char_traitsIcEERSt13basic_ostreamIT_T0_ES6_PKS3_l(ptr noundef nonnull align 8 dereferenceable(8) %call2.i832, ptr noundef nonnull @.str.16, i64 noundef 1)
          to label %invoke.cont250 unwind label %lpad160

invoke.cont250:                                   ; preds = %invoke.cont248
  %166 = load ptr, ptr %_M_finish.i, align 8, !tbaa !40
  %167 = load ptr, ptr %caches, align 8, !tbaa !41
  %sub.ptr.lhs.cast.i839 = ptrtoint ptr %166 to i64
  %sub.ptr.rhs.cast.i840 = ptrtoint ptr %167 to i64
  %sub.ptr.sub.i841 = sub i64 %sub.ptr.lhs.cast.i839, %sub.ptr.rhs.cast.i840
  %sub.ptr.div.i842 = sdiv exact i64 %sub.ptr.sub.i841, 48
  %sub = add nsw i64 %sub.ptr.div.i842, -1
  %cmp254.not = icmp eq i64 %i.01072, %sub
  br i1 %cmp254.not, label %if.end258, label %if.then255

if.then255:                                       ; preds = %invoke.cont250
  %call1.i844845 = invoke noundef nonnull align 8 dereferenceable(8) ptr @_ZSt16__ostream_insertIcSt11char_traitsIcEERSt13basic_ostreamIT_T0_ES6_PKS3_l(ptr noundef nonnull align 8 dereferenceable(8) %0, ptr noundef nonnull @.str.17, i64 noundef 1)
          to label %if.end258 unwind label %lpad160

lpad160:                                          ; preds = %if.end258, %if.then255, %invoke.cont248, %_ZNSt7__cxx1112basic_stringIcSt11char_traitsIcESaIcEED2Ev.exit830, %_ZNSt7__cxx1112basic_stringIcSt11char_traitsIcESaIcEED2Ev.exit800, %_ZNSt7__cxx1112basic_stringIcSt11char_traitsIcESaIcEED2Ev.exit770, %_ZNSt7__cxx1112basic_stringIcSt11char_traitsIcESaIcEED2Ev.exit740, %invoke.cont163, %invoke.cont161, %for.body
  %168 = landingpad { ptr, i32 }
          cleanup
  br label %ehcleanup373

lpad172:                                          ; preds = %invoke.cont165
  %169 = landingpad { ptr, i32 }
          cleanup
  br label %ehcleanup180

lpad174:                                          ; preds = %invoke.cont175, %invoke.cont173
  %170 = landingpad { ptr, i32 }
          cleanup
  %171 = load ptr, ptr %ref.tmp167, align 8, !tbaa !12
  %cmp.i.i.i847 = icmp eq ptr %171, %124
  br i1 %cmp.i.i.i847, label %ehcleanup180, label %if.then.i.i848

if.then.i.i848:                                   ; preds = %lpad174
  call void @_ZdlPv(ptr noundef %171) #17
  br label %ehcleanup180

ehcleanup180:                                     ; preds = %if.then.i.i848, %lpad174, %lpad172
  %.pn449 = phi { ptr, i32 } [ %169, %lpad172 ], [ %170, %lpad174 ], [ %170, %if.then.i.i848 ]
  %172 = load ptr, ptr %ref.tmp168, align 8, !tbaa !12
  %cmp.i.i.i851 = icmp eq ptr %172, %123
  br i1 %cmp.i.i.i851, label %ehcleanup181, label %if.then.i.i852

if.then.i.i852:                                   ; preds = %ehcleanup180
  call void @_ZdlPv(ptr noundef %172) #17
  br label %ehcleanup181

ehcleanup181:                                     ; preds = %if.then.i.i852, %ehcleanup180
  call void @llvm.lifetime.end.p0(i64 32, ptr nonnull %ref.tmp168) #16
  call void @llvm.lifetime.end.p0(i64 32, ptr nonnull %ref.tmp167) #16
  br label %ehcleanup373

lpad193:                                          ; preds = %invoke.cont185
  %173 = landingpad { ptr, i32 }
          cleanup
  br label %ehcleanup201

lpad195:                                          ; preds = %invoke.cont196, %invoke.cont194
  %174 = landingpad { ptr, i32 }
          cleanup
  %175 = load ptr, ptr %ref.tmp187, align 8, !tbaa !12
  %cmp.i.i.i855 = icmp eq ptr %175, %126
  br i1 %cmp.i.i.i855, label %ehcleanup201, label %if.then.i.i856

if.then.i.i856:                                   ; preds = %lpad195
  call void @_ZdlPv(ptr noundef %175) #17
  br label %ehcleanup201

ehcleanup201:                                     ; preds = %if.then.i.i856, %lpad195, %lpad193
  %.pn452 = phi { ptr, i32 } [ %173, %lpad193 ], [ %174, %lpad195 ], [ %174, %if.then.i.i856 ]
  %176 = load ptr, ptr %ref.tmp188, align 8, !tbaa !12
  %cmp.i.i.i859 = icmp eq ptr %176, %125
  br i1 %cmp.i.i.i859, label %ehcleanup202, label %if.then.i.i860

if.then.i.i860:                                   ; preds = %ehcleanup201
  call void @_ZdlPv(ptr noundef %176) #17
  br label %ehcleanup202

ehcleanup202:                                     ; preds = %if.then.i.i860, %ehcleanup201
  call void @llvm.lifetime.end.p0(i64 32, ptr nonnull %ref.tmp188) #16
  call void @llvm.lifetime.end.p0(i64 32, ptr nonnull %ref.tmp187) #16
  br label %ehcleanup373

lpad214:                                          ; preds = %invoke.cont206
  %177 = landingpad { ptr, i32 }
          cleanup
  br label %ehcleanup222

lpad216:                                          ; preds = %invoke.cont217, %invoke.cont215
  %178 = landingpad { ptr, i32 }
          cleanup
  %179 = load ptr, ptr %ref.tmp208, align 8, !tbaa !12
  %cmp.i.i.i863 = icmp eq ptr %179, %128
  br i1 %cmp.i.i.i863, label %ehcleanup222, label %if.then.i.i864

if.then.i.i864:                                   ; preds = %lpad216
  call void @_ZdlPv(ptr noundef %179) #17
  br label %ehcleanup222

ehcleanup222:                                     ; preds = %if.then.i.i864, %lpad216, %lpad214
  %.pn455 = phi { ptr, i32 } [ %177, %lpad214 ], [ %178, %lpad216 ], [ %178, %if.then.i.i864 ]
  %180 = load ptr, ptr %ref.tmp209, align 8, !tbaa !12
  %cmp.i.i.i867 = icmp eq ptr %180, %127
  br i1 %cmp.i.i.i867, label %ehcleanup223, label %if.then.i.i868

if.then.i.i868:                                   ; preds = %ehcleanup222
  call void @_ZdlPv(ptr noundef %180) #17
  br label %ehcleanup223

ehcleanup223:                                     ; preds = %if.then.i.i868, %ehcleanup222
  call void @llvm.lifetime.end.p0(i64 32, ptr nonnull %ref.tmp209) #16
  call void @llvm.lifetime.end.p0(i64 32, ptr nonnull %ref.tmp208) #16
  br label %ehcleanup373

lpad235:                                          ; preds = %invoke.cont227
  %181 = landingpad { ptr, i32 }
          cleanup
  br label %ehcleanup243

lpad237:                                          ; preds = %invoke.cont238, %invoke.cont236
  %182 = landingpad { ptr, i32 }
          cleanup
  %183 = load ptr, ptr %ref.tmp229, align 8, !tbaa !12
  %cmp.i.i.i871 = icmp eq ptr %183, %130
  br i1 %cmp.i.i.i871, label %ehcleanup243, label %if.then.i.i872

if.then.i.i872:                                   ; preds = %lpad237
  call void @_ZdlPv(ptr noundef %183) #17
  br label %ehcleanup243

ehcleanup243:                                     ; preds = %if.then.i.i872, %lpad237, %lpad235
  %.pn458 = phi { ptr, i32 } [ %181, %lpad235 ], [ %182, %lpad237 ], [ %182, %if.then.i.i872 ]
  %184 = load ptr, ptr %ref.tmp230, align 8, !tbaa !12
  %cmp.i.i.i875 = icmp eq ptr %184, %129
  br i1 %cmp.i.i.i875, label %ehcleanup244, label %if.then.i.i876

if.then.i.i876:                                   ; preds = %ehcleanup243
  call void @_ZdlPv(ptr noundef %184) #17
  br label %ehcleanup244

ehcleanup244:                                     ; preds = %if.then.i.i876, %ehcleanup243
  call void @llvm.lifetime.end.p0(i64 32, ptr nonnull %ref.tmp230) #16
  call void @llvm.lifetime.end.p0(i64 32, ptr nonnull %ref.tmp229) #16
  br label %ehcleanup373

if.end258:                                        ; preds = %if.then255, %invoke.cont250
  %call1.i880881 = invoke noundef nonnull align 8 dereferenceable(8) ptr @_ZSt16__ostream_insertIcSt11char_traitsIcEERSt13basic_ostreamIT_T0_ES6_PKS3_l(ptr noundef nonnull align 8 dereferenceable(8) %0, ptr noundef nonnull @.str.15, i64 noundef 1)
          to label %invoke.cont259 unwind label %lpad160

invoke.cont259:                                   ; preds = %if.end258
  %inc = add nuw i64 %i.01072, 1
  %185 = load ptr, ptr %_M_finish.i, align 8, !tbaa !40
  %186 = load ptr, ptr %caches, align 8, !tbaa !41
  %sub.ptr.lhs.cast.i = ptrtoint ptr %185 to i64
  %sub.ptr.rhs.cast.i = ptrtoint ptr %186 to i64
  %sub.ptr.sub.i = sub i64 %sub.ptr.lhs.cast.i, %sub.ptr.rhs.cast.i
  %sub.ptr.div.i = sdiv exact i64 %sub.ptr.sub.i, 48
  %cmp157 = icmp ult i64 %inc, %sub.ptr.div.i
  br i1 %cmp157, label %for.body, label %for.cond.cleanup, !llvm.loop !46

invoke.cont266:                                   ; preds = %for.cond.cleanup
  %187 = load ptr, ptr %ref.tmp263, align 8, !tbaa !12
  %cmp.i56.i883 = icmp eq ptr %187, %131
  br i1 %cmp.i56.i883, label %if.then15.i885, label %invoke.cont28.i897

if.then15.i885:                                   ; preds = %invoke.cont266
  %_M_string_length.i.i886 = getelementptr inbounds %"class.std::__cxx11::basic_string", ptr %ref.tmp263, i64 0, i32 1
  %188 = load i64, ptr %_M_string_length.i.i886, align 8, !tbaa !15
  %tobool18.not.i887 = icmp eq i64 %188, 0
  br i1 %tobool18.not.i887, label %if.end24.i895, label %if.then19.i889

if.then19.i889:                                   ; preds = %if.then15.i885
  %189 = load ptr, ptr %indent, align 8, !tbaa !12
  %cond.i888 = icmp eq i64 %188, 1
  br i1 %cond.i888, label %if.then.i.i890, label %if.end.i.i.i891

if.then.i.i890:                                   ; preds = %if.then19.i889
  %190 = load i8, ptr %131, align 8, !tbaa !16
  store i8 %190, ptr %189, align 1, !tbaa !16
  br label %if.end24.i895

if.end.i.i.i891:                                  ; preds = %if.then19.i889
  call void @llvm.memcpy.p0.p0.i64(ptr align 1 %189, ptr nonnull align 8 %131, i64 %188, i1 false)
  br label %if.end24.i895

if.end24.i895:                                    ; preds = %if.end.i.i.i891, %if.then.i.i890, %if.then15.i885
  %191 = load i64, ptr %_M_string_length.i.i886, align 8, !tbaa !15
  store i64 %191, ptr %_M_string_length.i.i482, align 8, !tbaa !15
  %192 = load ptr, ptr %indent, align 8, !tbaa !12
  %arrayidx.i.i893 = getelementptr inbounds i8, ptr %192, i64 %191
  store i8 0, ptr %arrayidx.i.i893, align 1, !tbaa !16
  %.pre.i894 = load ptr, ptr %ref.tmp263, align 8, !tbaa !12
  br label %_ZNSt7__cxx1112basic_stringIcSt11char_traitsIcESaIcEEaSEOS4_.exit908

invoke.cont28.i897:                               ; preds = %invoke.cont266
  %193 = load ptr, ptr %indent, align 8, !tbaa !12
  %cmp.i60.i896 = icmp eq ptr %193, %4
  br i1 %cmp.i60.i896, label %if.end32.thread.i900, label %if.end32.i904

if.end32.thread.i900:                             ; preds = %invoke.cont28.i897
  store ptr %187, ptr %indent, align 8, !tbaa !12
  %_M_string_length.i6165.i898 = getelementptr inbounds %"class.std::__cxx11::basic_string", ptr %ref.tmp263, i64 0, i32 1
  %194 = load <2 x i64>, ptr %_M_string_length.i6165.i898, align 8, !tbaa !16
  store <2 x i64> %194, ptr %_M_string_length.i.i482, align 8, !tbaa !16
  br label %if.else37.i906

if.end32.i904:                                    ; preds = %invoke.cont28.i897
  %195 = load i64, ptr %4, align 8, !tbaa !16
  store ptr %187, ptr %indent, align 8, !tbaa !12
  %_M_string_length.i61.i901 = getelementptr inbounds %"class.std::__cxx11::basic_string", ptr %ref.tmp263, i64 0, i32 1
  %196 = load <2 x i64>, ptr %_M_string_length.i61.i901, align 8, !tbaa !16
  store <2 x i64> %196, ptr %_M_string_length.i.i482, align 8, !tbaa !16
  %tobool35.not.i903 = icmp eq ptr %193, null
  br i1 %tobool35.not.i903, label %if.else37.i906, label %if.then36.i905

if.then36.i905:                                   ; preds = %if.end32.i904
  store ptr %193, ptr %ref.tmp263, align 8, !tbaa !12
  store i64 %195, ptr %131, align 8, !tbaa !16
  br label %_ZNSt7__cxx1112basic_stringIcSt11char_traitsIcESaIcEEaSEOS4_.exit908

if.else37.i906:                                   ; preds = %if.end32.i904, %if.end32.thread.i900
  store ptr %131, ptr %ref.tmp263, align 8, !tbaa !12
  br label %_ZNSt7__cxx1112basic_stringIcSt11char_traitsIcESaIcEEaSEOS4_.exit908

_ZNSt7__cxx1112basic_stringIcSt11char_traitsIcESaIcEEaSEOS4_.exit908: ; preds = %if.end24.i895, %if.then36.i905, %if.else37.i906
  %197 = phi ptr [ %.pre.i894, %if.end24.i895 ], [ %193, %if.then36.i905 ], [ %131, %if.else37.i906 ]
  %_M_string_length.i.i.i.i907 = getelementptr inbounds %"class.std::__cxx11::basic_string", ptr %ref.tmp263, i64 0, i32 1
  store i64 0, ptr %_M_string_length.i.i.i.i907, align 8, !tbaa !15
  store i8 0, ptr %197, align 1, !tbaa !16
  %198 = load ptr, ptr %ref.tmp263, align 8, !tbaa !12
  %cmp.i.i.i909 = icmp eq ptr %198, %131
  br i1 %cmp.i.i.i909, label %_ZNSt7__cxx1112basic_stringIcSt11char_traitsIcESaIcEED2Ev.exit912, label %if.then.i.i910

if.then.i.i910:                                   ; preds = %_ZNSt7__cxx1112basic_stringIcSt11char_traitsIcESaIcEEaSEOS4_.exit908
  call void @_ZdlPv(ptr noundef %198) #17
  br label %_ZNSt7__cxx1112basic_stringIcSt11char_traitsIcESaIcEED2Ev.exit912

_ZNSt7__cxx1112basic_stringIcSt11char_traitsIcESaIcEED2Ev.exit912: ; preds = %_ZNSt7__cxx1112basic_stringIcSt11char_traitsIcESaIcEEaSEOS4_.exit908, %if.then.i.i910
  call void @llvm.lifetime.end.p0(i64 32, ptr nonnull %ref.tmp263) #16
  %199 = load ptr, ptr %indent, align 8, !tbaa !12
  %200 = load i64, ptr %_M_string_length.i.i482, align 8, !tbaa !15
  %call2.i914 = invoke noundef nonnull align 8 dereferenceable(8) ptr @_ZSt16__ostream_insertIcSt11char_traitsIcEERSt13basic_ostreamIT_T0_ES6_PKS3_l(ptr noundef nonnull align 8 dereferenceable(8) %0, ptr noundef %199, i64 noundef %200)
          to label %invoke.cont272 unwind label %lpad271

invoke.cont272:                                   ; preds = %_ZNSt7__cxx1112basic_stringIcSt11char_traitsIcESaIcEED2Ev.exit912
  %call1.i917918 = invoke noundef nonnull align 8 dereferenceable(8) ptr @_ZSt16__ostream_insertIcSt11char_traitsIcEERSt13basic_ostreamIT_T0_ES6_PKS3_l(ptr noundef nonnull align 8 dereferenceable(8) %call2.i914, ptr noundef nonnull @.str.18, i64 noundef 3)
          to label %invoke.cont274 unwind label %lpad271

invoke.cont274:                                   ; preds = %invoke.cont272
  %201 = load ptr, ptr %indent, align 8, !tbaa !12
  %202 = load i64, ptr %_M_string_length.i.i482, align 8, !tbaa !15
  %call2.i921 = invoke noundef nonnull align 8 dereferenceable(8) ptr @_ZSt16__ostream_insertIcSt11char_traitsIcEERSt13basic_ostreamIT_T0_ES6_PKS3_l(ptr noundef nonnull align 8 dereferenceable(8) %0, ptr noundef %201, i64 noundef %202)
          to label %invoke.cont276 unwind label %lpad271

invoke.cont276:                                   ; preds = %invoke.cont274
  %call1.i924925 = invoke noundef nonnull align 8 dereferenceable(8) ptr @_ZSt16__ostream_insertIcSt11char_traitsIcEERSt13basic_ostreamIT_T0_ES6_PKS3_l(ptr noundef nonnull align 8 dereferenceable(8) %call2.i921, ptr noundef nonnull @.str.19, i64 noundef 13)
          to label %invoke.cont278 unwind label %lpad271

invoke.cont278:                                   ; preds = %invoke.cont276
  %load_avg = getelementptr inbounds %"struct.benchmark::CPUInfo", ptr %51, i64 0, i32 4
  %203 = load ptr, ptr %load_avg, align 8, !tbaa !19
  %_M_finish.i927 = getelementptr inbounds %"struct.benchmark::CPUInfo", ptr %51, i64 0, i32 4, i32 0, i32 0, i32 0, i32 1
  %204 = load ptr, ptr %_M_finish.i927, align 8, !tbaa !19
  %cmp.i.not1073 = icmp eq ptr %203, %204
  br i1 %cmp.i.not1073, label %for.cond.cleanup287, label %for.body288

for.cond.cleanup287:                              ; preds = %invoke.cont294, %if.end306, %invoke.cont278
  %call1.i929930 = invoke noundef nonnull align 8 dereferenceable(8) ptr @_ZSt16__ostream_insertIcSt11char_traitsIcEERSt13basic_ostreamIT_T0_ES6_PKS3_l(ptr noundef nonnull align 8 dereferenceable(8) %0, ptr noundef nonnull @.str.18, i64 noundef 3)
          to label %invoke.cont309 unwind label %lpad271

lpad265:                                          ; preds = %for.cond.cleanup
  %205 = landingpad { ptr, i32 }
          cleanup
  call void @llvm.lifetime.end.p0(i64 32, ptr nonnull %ref.tmp263) #16
  br label %ehcleanup373

lpad271:                                          ; preds = %for.cond.cleanup287, %invoke.cont276, %invoke.cont274, %invoke.cont272, %_ZNSt7__cxx1112basic_stringIcSt11char_traitsIcESaIcEED2Ev.exit912
  %206 = landingpad { ptr, i32 }
          cleanup
  br label %ehcleanup373

for.body288:                                      ; preds = %invoke.cont278, %if.end306
  %it.sroa.0.01074 = phi ptr [ %incdec.ptr.i, %if.end306 ], [ %203, %invoke.cont278 ]
  %incdec.ptr.i = getelementptr inbounds double, ptr %it.sroa.0.01074, i64 1
  %207 = load double, ptr %it.sroa.0.01074, align 8, !tbaa !48
  %call.i932933 = invoke noundef nonnull align 8 dereferenceable(8) ptr @_ZNSo9_M_insertIdEERSoT_(ptr noundef nonnull align 8 dereferenceable(8) %0, double noundef %207)
          to label %invoke.cont294 unwind label %lpad293

invoke.cont294:                                   ; preds = %for.body288
  %208 = load ptr, ptr %_M_finish.i927, align 8, !tbaa !19
  %cmp.i935.not = icmp eq ptr %incdec.ptr.i, %208
  br i1 %cmp.i935.not, label %for.cond.cleanup287, label %if.then302

if.then302:                                       ; preds = %invoke.cont294
  %call1.i937938 = invoke noundef nonnull align 8 dereferenceable(8) ptr @_ZSt16__ostream_insertIcSt11char_traitsIcEERSt13basic_ostreamIT_T0_ES6_PKS3_l(ptr noundef nonnull align 8 dereferenceable(8) %0, ptr noundef nonnull @.str.17, i64 noundef 1)
          to label %if.end306 unwind label %lpad303

lpad293:                                          ; preds = %for.body288
  %209 = landingpad { ptr, i32 }
          cleanup
  br label %ehcleanup373

lpad303:                                          ; preds = %if.then302
  %210 = landingpad { ptr, i32 }
          cleanup
  br label %ehcleanup373

if.end306:                                        ; preds = %if.then302
  %.pre = load ptr, ptr %_M_finish.i927, align 8, !tbaa !19
  %cmp.i.not = icmp eq ptr %incdec.ptr.i, %.pre
  br i1 %cmp.i.not, label %for.cond.cleanup287, label %for.body288, !llvm.loop !49

invoke.cont309:                                   ; preds = %for.cond.cleanup287
  call void @llvm.lifetime.start.p0(i64 8, ptr nonnull %build_type) #16
  store i64 28555834798400882, ptr %build_type, align 8
  %211 = load ptr, ptr %indent, align 8, !tbaa !12
  %212 = load i64, ptr %_M_string_length.i.i482, align 8, !tbaa !15
  %call2.i941 = invoke noundef nonnull align 8 dereferenceable(8) ptr @_ZSt16__ostream_insertIcSt11char_traitsIcEERSt13basic_ostreamIT_T0_ES6_PKS3_l(ptr noundef nonnull align 8 dereferenceable(8) %0, ptr noundef %211, i64 noundef %212)
          to label %invoke.cont312 unwind label %lpad311

invoke.cont312:                                   ; preds = %invoke.cont309
  call void @llvm.lifetime.start.p0(i64 32, ptr nonnull %ref.tmp314) #16
  call void @llvm.lifetime.start.p0(i64 32, ptr nonnull %ref.tmp315) #16
  %213 = getelementptr inbounds %"class.std::__cxx11::basic_string", ptr %ref.tmp315, i64 0, i32 2
  store ptr %213, ptr %ref.tmp315, align 8, !tbaa !10
  call void @llvm.lifetime.start.p0(i64 8, ptr nonnull %__dnew.i.i943) #16
  store i64 18, ptr %__dnew.i.i943, align 8, !tbaa !36
  %call2.i10.i953 = invoke noundef ptr @_ZNSt7__cxx1112basic_stringIcSt11char_traitsIcESaIcEE9_M_createERmm(ptr noundef nonnull align 8 dereferenceable(32) %ref.tmp315, ptr noundef nonnull align 8 dereferenceable(8) %__dnew.i.i943, i64 noundef 0)
          to label %call2.i10.i.noexc952 unwind label %lpad317

call2.i10.i.noexc952:                             ; preds = %invoke.cont312
  store ptr %call2.i10.i953, ptr %ref.tmp315, align 8, !tbaa !12
  %214 = load i64, ptr %__dnew.i.i943, align 8, !tbaa !36
  store i64 %214, ptr %213, align 8, !tbaa !16
  call void @llvm.memcpy.p0.p0.i64(ptr noundef nonnull align 1 dereferenceable(18) %call2.i10.i953, ptr noundef nonnull align 1 dereferenceable(18) @.str.20, i64 18, i1 false)
  %_M_string_length.i.i.i.i950 = getelementptr inbounds %"class.std::__cxx11::basic_string", ptr %ref.tmp315, i64 0, i32 1
  store i64 %214, ptr %_M_string_length.i.i.i.i950, align 8, !tbaa !15
  %215 = load ptr, ptr %ref.tmp315, align 8, !tbaa !12
  %arrayidx.i.i.i951 = getelementptr inbounds i8, ptr %215, i64 %214
  store i8 0, ptr %arrayidx.i.i.i951, align 1, !tbaa !16
  call void @llvm.lifetime.end.p0(i64 8, ptr nonnull %__dnew.i.i943) #16
  invoke fastcc void @_ZN9benchmark12_GLOBAL__N_18FormatKVERKNSt7__cxx1112basic_stringIcSt11char_traitsIcESaIcEEEPKc(ptr noalias nonnull align 8 %ref.tmp314, ptr noundef nonnull align 8 dereferenceable(32) %ref.tmp315, ptr noundef nonnull %build_type)
          to label %invoke.cont320 unwind label %lpad319

invoke.cont320:                                   ; preds = %call2.i10.i.noexc952
  %216 = load ptr, ptr %ref.tmp314, align 8, !tbaa !12
  %_M_string_length.i.i955 = getelementptr inbounds %"class.std::__cxx11::basic_string", ptr %ref.tmp314, i64 0, i32 1
  %217 = load i64, ptr %_M_string_length.i.i955, align 8, !tbaa !15
  %call2.i956 = invoke noundef nonnull align 8 dereferenceable(8) ptr @_ZSt16__ostream_insertIcSt11char_traitsIcEERSt13basic_ostreamIT_T0_ES6_PKS3_l(ptr noundef nonnull align 8 dereferenceable(8) %call2.i941, ptr noundef %216, i64 noundef %217)
          to label %invoke.cont322 unwind label %lpad321

invoke.cont322:                                   ; preds = %invoke.cont320
  %218 = load ptr, ptr %ref.tmp314, align 8, !tbaa !12
  %219 = getelementptr inbounds %"class.std::__cxx11::basic_string", ptr %ref.tmp314, i64 0, i32 2
  %cmp.i.i.i958 = icmp eq ptr %218, %219
  br i1 %cmp.i.i.i958, label %_ZNSt7__cxx1112basic_stringIcSt11char_traitsIcESaIcEED2Ev.exit961, label %if.then.i.i959

if.then.i.i959:                                   ; preds = %invoke.cont322
  call void @_ZdlPv(ptr noundef %218) #17
  br label %_ZNSt7__cxx1112basic_stringIcSt11char_traitsIcESaIcEED2Ev.exit961

_ZNSt7__cxx1112basic_stringIcSt11char_traitsIcESaIcEED2Ev.exit961: ; preds = %invoke.cont322, %if.then.i.i959
  %220 = load ptr, ptr %ref.tmp315, align 8, !tbaa !12
  %cmp.i.i.i962 = icmp eq ptr %220, %213
  br i1 %cmp.i.i.i962, label %_ZNSt7__cxx1112basic_stringIcSt11char_traitsIcESaIcEED2Ev.exit965, label %if.then.i.i963

if.then.i.i963:                                   ; preds = %_ZNSt7__cxx1112basic_stringIcSt11char_traitsIcESaIcEED2Ev.exit961
  call void @_ZdlPv(ptr noundef %220) #17
  br label %_ZNSt7__cxx1112basic_stringIcSt11char_traitsIcESaIcEED2Ev.exit965

_ZNSt7__cxx1112basic_stringIcSt11char_traitsIcESaIcEED2Ev.exit965: ; preds = %_ZNSt7__cxx1112basic_stringIcSt11char_traitsIcESaIcEED2Ev.exit961, %if.then.i.i963
  call void @llvm.lifetime.end.p0(i64 32, ptr nonnull %ref.tmp315) #16
  call void @llvm.lifetime.end.p0(i64 32, ptr nonnull %ref.tmp314) #16
  %221 = load ptr, ptr @_ZN9benchmark8internal14global_contextB5cxx11E, align 8, !tbaa !19
  %cmp330.not = icmp eq ptr %221, null
  br i1 %cmp330.not, label %if.end361, label %if.then331

if.then331:                                       ; preds = %_ZNSt7__cxx1112basic_stringIcSt11char_traitsIcESaIcEED2Ev.exit965
  %_M_left.i.i = getelementptr inbounds i8, ptr %221, i64 24
  %222 = load ptr, ptr %_M_left.i.i, align 8, !tbaa !50
  %add.ptr.i.i = getelementptr inbounds i8, ptr %221, i64 8
  %cmp.i966.not1075 = icmp eq ptr %222, %add.ptr.i.i
  br i1 %cmp.i966.not1075, label %if.end361, label %for.body339.lr.ph

for.body339.lr.ph:                                ; preds = %if.then331
  %_M_string_length.i.i982 = getelementptr inbounds %"class.std::__cxx11::basic_string", ptr %ref.tmp346, i64 0, i32 1
  %223 = getelementptr inbounds %"class.std::__cxx11::basic_string", ptr %ref.tmp346, i64 0, i32 2
  br label %for.body339

lpad311:                                          ; preds = %invoke.cont368, %invoke.cont366, %invoke.cont364, %invoke.cont362, %if.end361, %invoke.cont309
  %224 = landingpad { ptr, i32 }
          cleanup
  br label %ehcleanup372

lpad317:                                          ; preds = %invoke.cont312
  %225 = landingpad { ptr, i32 }
          cleanup
  br label %ehcleanup326

lpad319:                                          ; preds = %call2.i10.i.noexc952
  %226 = landingpad { ptr, i32 }
          cleanup
  br label %ehcleanup325

lpad321:                                          ; preds = %invoke.cont320
  %227 = landingpad { ptr, i32 }
          cleanup
  %228 = load ptr, ptr %ref.tmp314, align 8, !tbaa !12
  %229 = getelementptr inbounds %"class.std::__cxx11::basic_string", ptr %ref.tmp314, i64 0, i32 2
  %cmp.i.i.i967 = icmp eq ptr %228, %229
  br i1 %cmp.i.i.i967, label %ehcleanup325, label %if.then.i.i968

if.then.i.i968:                                   ; preds = %lpad321
  call void @_ZdlPv(ptr noundef %228) #17
  br label %ehcleanup325

ehcleanup325:                                     ; preds = %if.then.i.i968, %lpad321, %lpad319
  %.pn440 = phi { ptr, i32 } [ %226, %lpad319 ], [ %227, %lpad321 ], [ %227, %if.then.i.i968 ]
  %230 = load ptr, ptr %ref.tmp315, align 8, !tbaa !12
  %cmp.i.i.i971 = icmp eq ptr %230, %213
  br i1 %cmp.i.i.i971, label %ehcleanup326, label %if.then.i.i972

if.then.i.i972:                                   ; preds = %ehcleanup325
  call void @_ZdlPv(ptr noundef %230) #17
  br label %ehcleanup326

ehcleanup326:                                     ; preds = %if.then.i.i972, %ehcleanup325, %lpad317
  %.pn440.pn = phi { ptr, i32 } [ %225, %lpad317 ], [ %.pn440, %ehcleanup325 ], [ %.pn440, %if.then.i.i972 ]
  call void @llvm.lifetime.end.p0(i64 32, ptr nonnull %ref.tmp315) #16
  call void @llvm.lifetime.end.p0(i64 32, ptr nonnull %ref.tmp314) #16
  br label %ehcleanup372

for.body339:                                      ; preds = %for.body339.lr.ph, %_ZNSt7__cxx1112basic_stringIcSt11char_traitsIcESaIcEED2Ev.exit988
  %__begin2.sroa.0.01076 = phi ptr [ %222, %for.body339.lr.ph ], [ %call.i989, %_ZNSt7__cxx1112basic_stringIcSt11char_traitsIcESaIcEED2Ev.exit988 ]
  %_M_storage.i.i = getelementptr inbounds %"struct.std::_Rb_tree_node", ptr %__begin2.sroa.0.01076, i64 0, i32 1
  %call1.i976977 = invoke noundef nonnull align 8 dereferenceable(8) ptr @_ZSt16__ostream_insertIcSt11char_traitsIcEERSt13basic_ostreamIT_T0_ES6_PKS3_l(ptr noundef nonnull align 8 dereferenceable(8) %0, ptr noundef nonnull @.str.4, i64 noundef 2)
          to label %invoke.cont342 unwind label %lpad341

invoke.cont342:                                   ; preds = %for.body339
  %231 = load ptr, ptr %indent, align 8, !tbaa !12
  %232 = load i64, ptr %_M_string_length.i.i482, align 8, !tbaa !15
  %call2.i980 = invoke noundef nonnull align 8 dereferenceable(8) ptr @_ZSt16__ostream_insertIcSt11char_traitsIcEERSt13basic_ostreamIT_T0_ES6_PKS3_l(ptr noundef nonnull align 8 dereferenceable(8) %0, ptr noundef %231, i64 noundef %232)
          to label %invoke.cont344 unwind label %lpad341

invoke.cont344:                                   ; preds = %invoke.cont342
  call void @llvm.lifetime.start.p0(i64 32, ptr nonnull %ref.tmp346) #16
  %second = getelementptr inbounds %"struct.std::_Rb_tree_node", ptr %__begin2.sroa.0.01076, i64 0, i32 1, i32 0, i64 32
  invoke fastcc void @_ZN9benchmark12_GLOBAL__N_18FormatKVERKNSt7__cxx1112basic_stringIcSt11char_traitsIcESaIcEEES8_(ptr noalias nonnull align 8 %ref.tmp346, ptr noundef nonnull align 8 dereferenceable(32) %_M_storage.i.i, ptr noundef nonnull align 8 dereferenceable(32) %second)
          to label %invoke.cont348 unwind label %lpad347

invoke.cont348:                                   ; preds = %invoke.cont344
  %233 = load ptr, ptr %ref.tmp346, align 8, !tbaa !12
  %234 = load i64, ptr %_M_string_length.i.i982, align 8, !tbaa !15
  %call2.i983 = invoke noundef nonnull align 8 dereferenceable(8) ptr @_ZSt16__ostream_insertIcSt11char_traitsIcEERSt13basic_ostreamIT_T0_ES6_PKS3_l(ptr noundef nonnull align 8 dereferenceable(8) %call2.i980, ptr noundef %233, i64 noundef %234)
          to label %invoke.cont350 unwind label %lpad349

invoke.cont350:                                   ; preds = %invoke.cont348
  %235 = load ptr, ptr %ref.tmp346, align 8, !tbaa !12
  %cmp.i.i.i985 = icmp eq ptr %235, %223
  br i1 %cmp.i.i.i985, label %_ZNSt7__cxx1112basic_stringIcSt11char_traitsIcESaIcEED2Ev.exit988, label %if.then.i.i986

if.then.i.i986:                                   ; preds = %invoke.cont350
  call void @_ZdlPv(ptr noundef %235) #17
  br label %_ZNSt7__cxx1112basic_stringIcSt11char_traitsIcESaIcEED2Ev.exit988

_ZNSt7__cxx1112basic_stringIcSt11char_traitsIcESaIcEED2Ev.exit988: ; preds = %invoke.cont350, %if.then.i.i986
  call void @llvm.lifetime.end.p0(i64 32, ptr nonnull %ref.tmp346) #16
  %call.i989 = call noundef ptr @_ZSt18_Rb_tree_incrementPSt18_Rb_tree_node_base(ptr noundef %__begin2.sroa.0.01076) #18
  %cmp.i966.not = icmp eq ptr %call.i989, %add.ptr.i.i
  br i1 %cmp.i966.not, label %if.end361, label %for.body339

lpad341:                                          ; preds = %invoke.cont342, %for.body339
  %236 = landingpad { ptr, i32 }
          cleanup
  br label %ehcleanup372

lpad347:                                          ; preds = %invoke.cont344
  %237 = landingpad { ptr, i32 }
          cleanup
  br label %ehcleanup353

lpad349:                                          ; preds = %invoke.cont348
  %238 = landingpad { ptr, i32 }
          cleanup
  %239 = load ptr, ptr %ref.tmp346, align 8, !tbaa !12
  %cmp.i.i.i990 = icmp eq ptr %239, %223
  br i1 %cmp.i.i.i990, label %ehcleanup353, label %if.then.i.i991

if.then.i.i991:                                   ; preds = %lpad349
  call void @_ZdlPv(ptr noundef %239) #17
  br label %ehcleanup353

ehcleanup353:                                     ; preds = %if.then.i.i991, %lpad349, %lpad347
  %.pn443 = phi { ptr, i32 } [ %237, %lpad347 ], [ %238, %lpad349 ], [ %238, %if.then.i.i991 ]
  call void @llvm.lifetime.end.p0(i64 32, ptr nonnull %ref.tmp346) #16
  br label %ehcleanup372

if.end361:                                        ; preds = %_ZNSt7__cxx1112basic_stringIcSt11char_traitsIcESaIcEED2Ev.exit988, %if.then331, %_ZNSt7__cxx1112basic_stringIcSt11char_traitsIcESaIcEED2Ev.exit965
  %call1.i995996 = invoke noundef nonnull align 8 dereferenceable(8) ptr @_ZSt16__ostream_insertIcSt11char_traitsIcEERSt13basic_ostreamIT_T0_ES6_PKS3_l(ptr noundef nonnull align 8 dereferenceable(8) %0, ptr noundef nonnull @.str.15, i64 noundef 1)
          to label %invoke.cont362 unwind label %lpad311

invoke.cont362:                                   ; preds = %if.end361
  %240 = load ptr, ptr %inner_indent, align 8, !tbaa !12
  %241 = load i64, ptr %_M_string_length.i.i, align 8, !tbaa !15
  %call2.i999 = invoke noundef nonnull align 8 dereferenceable(8) ptr @_ZSt16__ostream_insertIcSt11char_traitsIcEERSt13basic_ostreamIT_T0_ES6_PKS3_l(ptr noundef nonnull align 8 dereferenceable(8) %0, ptr noundef %240, i64 noundef %241)
          to label %invoke.cont364 unwind label %lpad311

invoke.cont364:                                   ; preds = %invoke.cont362
  %call1.i10021003 = invoke noundef nonnull align 8 dereferenceable(8) ptr @_ZSt16__ostream_insertIcSt11char_traitsIcEERSt13basic_ostreamIT_T0_ES6_PKS3_l(ptr noundef nonnull align 8 dereferenceable(8) %call2.i999, ptr noundef nonnull @.str.21, i64 noundef 3)
          to label %invoke.cont366 unwind label %lpad311

invoke.cont366:                                   ; preds = %invoke.cont364
  %242 = load ptr, ptr %inner_indent, align 8, !tbaa !12
  %243 = load i64, ptr %_M_string_length.i.i, align 8, !tbaa !15
  %call2.i1006 = invoke noundef nonnull align 8 dereferenceable(8) ptr @_ZSt16__ostream_insertIcSt11char_traitsIcEERSt13basic_ostreamIT_T0_ES6_PKS3_l(ptr noundef nonnull align 8 dereferenceable(8) %0, ptr noundef %242, i64 noundef %243)
          to label %invoke.cont368 unwind label %lpad311

invoke.cont368:                                   ; preds = %invoke.cont366
  %call1.i10091010 = invoke noundef nonnull align 8 dereferenceable(8) ptr @_ZSt16__ostream_insertIcSt11char_traitsIcEERSt13basic_ostreamIT_T0_ES6_PKS3_l(ptr noundef nonnull align 8 dereferenceable(8) %call2.i1006, ptr noundef nonnull @.str.22, i64 noundef 16)
          to label %invoke.cont370 unwind label %lpad311

invoke.cont370:                                   ; preds = %invoke.cont368
  call void @llvm.lifetime.end.p0(i64 8, ptr nonnull %build_type) #16
  %244 = load ptr, ptr %cache_indent, align 8, !tbaa !12
  %cmp.i.i.i1012 = icmp eq ptr %244, %120
  br i1 %cmp.i.i.i1012, label %_ZNSt7__cxx1112basic_stringIcSt11char_traitsIcESaIcEED2Ev.exit1015, label %if.then.i.i1013

if.then.i.i1013:                                  ; preds = %invoke.cont370
  call void @_ZdlPv(ptr noundef %244) #17
  br label %_ZNSt7__cxx1112basic_stringIcSt11char_traitsIcESaIcEED2Ev.exit1015

_ZNSt7__cxx1112basic_stringIcSt11char_traitsIcESaIcEED2Ev.exit1015: ; preds = %invoke.cont370, %if.then.i.i1013
  call void @llvm.lifetime.end.p0(i64 32, ptr nonnull %cache_indent) #16
  %245 = load ptr, ptr %walltime_value, align 8, !tbaa !12
  %246 = getelementptr inbounds %"class.std::__cxx11::basic_string", ptr %walltime_value, i64 0, i32 2
  %cmp.i.i.i1016 = icmp eq ptr %245, %246
  br i1 %cmp.i.i.i1016, label %_ZNSt7__cxx1112basic_stringIcSt11char_traitsIcESaIcEED2Ev.exit1019, label %if.then.i.i1017

if.then.i.i1017:                                  ; preds = %_ZNSt7__cxx1112basic_stringIcSt11char_traitsIcESaIcEED2Ev.exit1015
  call void @_ZdlPv(ptr noundef %245) #17
  br label %_ZNSt7__cxx1112basic_stringIcSt11char_traitsIcESaIcEED2Ev.exit1019

_ZNSt7__cxx1112basic_stringIcSt11char_traitsIcESaIcEED2Ev.exit1019: ; preds = %_ZNSt7__cxx1112basic_stringIcSt11char_traitsIcESaIcEED2Ev.exit1015, %if.then.i.i1017
  call void @llvm.lifetime.end.p0(i64 32, ptr nonnull %walltime_value) #16
  %247 = load ptr, ptr %indent, align 8, !tbaa !12
  %cmp.i.i.i1020 = icmp eq ptr %247, %4
  br i1 %cmp.i.i.i1020, label %_ZNSt7__cxx1112basic_stringIcSt11char_traitsIcESaIcEED2Ev.exit1023, label %if.then.i.i1021

if.then.i.i1021:                                  ; preds = %_ZNSt7__cxx1112basic_stringIcSt11char_traitsIcESaIcEED2Ev.exit1019
  call void @_ZdlPv(ptr noundef %247) #17
  br label %_ZNSt7__cxx1112basic_stringIcSt11char_traitsIcESaIcEED2Ev.exit1023

_ZNSt7__cxx1112basic_stringIcSt11char_traitsIcESaIcEED2Ev.exit1023: ; preds = %_ZNSt7__cxx1112basic_stringIcSt11char_traitsIcESaIcEED2Ev.exit1019, %if.then.i.i1021
  call void @llvm.lifetime.end.p0(i64 32, ptr nonnull %indent) #16
  %248 = load ptr, ptr %inner_indent, align 8, !tbaa !12
  %cmp.i.i.i1024 = icmp eq ptr %248, %1
  br i1 %cmp.i.i.i1024, label %_ZNSt7__cxx1112basic_stringIcSt11char_traitsIcESaIcEED2Ev.exit1027, label %if.then.i.i1025

if.then.i.i1025:                                  ; preds = %_ZNSt7__cxx1112basic_stringIcSt11char_traitsIcESaIcEED2Ev.exit1023
  call void @_ZdlPv(ptr noundef %248) #17
  br label %_ZNSt7__cxx1112basic_stringIcSt11char_traitsIcESaIcEED2Ev.exit1027

_ZNSt7__cxx1112basic_stringIcSt11char_traitsIcESaIcEED2Ev.exit1027: ; preds = %_ZNSt7__cxx1112basic_stringIcSt11char_traitsIcESaIcEED2Ev.exit1023, %if.then.i.i1025
  call void @llvm.lifetime.end.p0(i64 32, ptr nonnull %inner_indent) #16
  ret i1 true

ehcleanup372:                                     ; preds = %lpad341, %ehcleanup353, %ehcleanup326, %lpad311
  %.pn443.pn.pn = phi { ptr, i32 } [ %224, %lpad311 ], [ %.pn440.pn, %ehcleanup326 ], [ %.pn443, %ehcleanup353 ], [ %236, %lpad341 ]
  call void @llvm.lifetime.end.p0(i64 8, ptr nonnull %build_type) #16
  br label %ehcleanup373

ehcleanup373:                                     ; preds = %lpad293, %lpad303, %lpad160, %ehcleanup181, %ehcleanup202, %ehcleanup223, %ehcleanup244, %ehcleanup372, %lpad271, %lpad265
  %.pn459.pn = phi { ptr, i32 } [ %.pn443.pn.pn, %ehcleanup372 ], [ %206, %lpad271 ], [ %205, %lpad265 ], [ %168, %lpad160 ], [ %.pn458, %ehcleanup244 ], [ %.pn455, %ehcleanup223 ], [ %.pn452, %ehcleanup202 ], [ %.pn449, %ehcleanup181 ], [ %210, %lpad303 ], [ %209, %lpad293 ]
  %249 = load ptr, ptr %cache_indent, align 8, !tbaa !12
  %cmp.i.i.i1028 = icmp eq ptr %249, %120
  br i1 %cmp.i.i.i1028, label %ehcleanup374, label %if.then.i.i1029

if.then.i.i1029:                                  ; preds = %ehcleanup373
  call void @_ZdlPv(ptr noundef %249) #17
  br label %ehcleanup374

ehcleanup374:                                     ; preds = %if.then.i.i1029, %ehcleanup373, %lpad152
  %.pn459.pn.pn = phi { ptr, i32 } [ %133, %lpad152 ], [ %.pn459.pn, %ehcleanup373 ], [ %.pn459.pn, %if.then.i.i1029 ]
  call void @llvm.lifetime.end.p0(i64 32, ptr nonnull %cache_indent) #16
  br label %ehcleanup376

ehcleanup376:                                     ; preds = %lpad72, %ehcleanup89, %ehcleanup111, %ehcleanup134, %lpad145, %ehcleanup374, %ehcleanup68, %ehcleanup48, %ehcleanup28, %lpad13
  %.pn459.pn.pn.pn.pn = phi { ptr, i32 } [ %.pn469, %ehcleanup68 ], [ %35, %lpad13 ], [ %.pn431, %ehcleanup48 ], [ %.pn, %ehcleanup28 ], [ %.pn459.pn.pn, %ehcleanup374 ], [ %132, %lpad145 ], [ %88, %lpad72 ], [ %.pn465.pn, %ehcleanup134 ], [ %.pn437, %ehcleanup111 ], [ %.pn434, %ehcleanup89 ]
  %250 = load ptr, ptr %walltime_value, align 8, !tbaa !12
  %251 = getelementptr inbounds %"class.std::__cxx11::basic_string", ptr %walltime_value, i64 0, i32 2
  %cmp.i.i.i1032 = icmp eq ptr %250, %251
  br i1 %cmp.i.i.i1032, label %ehcleanup377, label %if.then.i.i1033

if.then.i.i1033:                                  ; preds = %ehcleanup376
  call void @_ZdlPv(ptr noundef %250) #17
  br label %ehcleanup377

ehcleanup377:                                     ; preds = %if.then.i.i1033, %ehcleanup376, %lpad11
  %.pn459.pn.pn.pn.pn.pn = phi { ptr, i32 } [ %34, %lpad11 ], [ %.pn459.pn.pn.pn.pn, %ehcleanup376 ], [ %.pn459.pn.pn.pn.pn, %if.then.i.i1033 ]
  call void @llvm.lifetime.end.p0(i64 32, ptr nonnull %walltime_value) #16
  %252 = load ptr, ptr %indent, align 8, !tbaa !12
  %cmp.i.i.i1036 = icmp eq ptr %252, %4
  br i1 %cmp.i.i.i1036, label %ehcleanup379, label %if.then.i.i1037

if.then.i.i1037:                                  ; preds = %ehcleanup377
  call void @_ZdlPv(ptr noundef %252) #17
  br label %ehcleanup379

ehcleanup379:                                     ; preds = %if.then.i.i1037, %ehcleanup377, %lpad9
  %.pn459.pn.pn.pn.pn.pn.pn = phi { ptr, i32 } [ %33, %lpad9 ], [ %.pn459.pn.pn.pn.pn.pn, %ehcleanup377 ], [ %.pn459.pn.pn.pn.pn.pn, %if.then.i.i1037 ]
  call void @llvm.lifetime.end.p0(i64 32, ptr nonnull %indent) #16
  br label %ehcleanup380

ehcleanup380:                                     ; preds = %ehcleanup379, %lpad3
  %.pn459.pn.pn.pn.pn.pn.pn.pn = phi { ptr, i32 } [ %.pn459.pn.pn.pn.pn.pn.pn, %ehcleanup379 ], [ %32, %lpad3 ]
  %253 = load ptr, ptr %inner_indent, align 8, !tbaa !12
  %cmp.i.i.i1040 = icmp eq ptr %253, %1
  br i1 %cmp.i.i.i1040, label %ehcleanup381, label %if.then.i.i1041

if.then.i.i1041:                                  ; preds = %ehcleanup380
  call void @_ZdlPv(ptr noundef %253) #17
  br label %ehcleanup381

ehcleanup381:                                     ; preds = %if.then.i.i1041, %ehcleanup380
  call void @llvm.lifetime.end.p0(i64 32, ptr nonnull %inner_indent) #16
  resume { ptr, i32 } %.pn459.pn.pn.pn.pn.pn.pn.pn
}

; Function Attrs: mustprogress nocallback nofree nosync nounwind willreturn memory(argmem: readwrite)
declare void @llvm.lifetime.start.p0(i64 immarg, ptr nocapture) #4

declare i32 @__gxx_personality_v0(...)

; Function Attrs: mustprogress nocallback nofree nosync nounwind willreturn memory(argmem: readwrite)
declare void @llvm.lifetime.end.p0(i64 immarg, ptr nocapture) #4

declare void @_ZN9benchmark19LocalDateTimeStringB5cxx11Ev(ptr sret(%"class.std::__cxx11::basic_string") align 8) local_unnamed_addr #0

; Function Attrs: uwtable
define internal fastcc void @_ZN9benchmark12_GLOBAL__N_18FormatKVERKNSt7__cxx1112basic_stringIcSt11char_traitsIcESaIcEEES8_(ptr noalias align 8 %agg.result, ptr nocapture noundef nonnull readonly align 8 dereferenceable(32) %key, ptr nocapture noundef nonnull readonly align 8 dereferenceable(32) %value) unnamed_addr #3 personality ptr @__gxx_personality_v0 {
entry:
  %ref.tmp = alloca %"class.std::__cxx11::basic_string", align 8
  %ref.tmp1 = alloca %"class.std::__cxx11::basic_string", align 8
  call void @llvm.lifetime.start.p0(i64 32, ptr nonnull %ref.tmp) #16
  call fastcc void @_ZN9benchmark12_GLOBAL__N_19StrEscapeERKNSt7__cxx1112basic_stringIcSt11char_traitsIcESaIcEEE(ptr noalias nonnull align 8 %ref.tmp, ptr noundef nonnull align 8 dereferenceable(32) %key)
  %0 = load ptr, ptr %ref.tmp, align 8, !tbaa !12
  call void @llvm.lifetime.start.p0(i64 32, ptr nonnull %ref.tmp1) #16
  invoke fastcc void @_ZN9benchmark12_GLOBAL__N_19StrEscapeERKNSt7__cxx1112basic_stringIcSt11char_traitsIcESaIcEEE(ptr noalias nonnull align 8 %ref.tmp1, ptr noundef nonnull align 8 dereferenceable(32) %value)
          to label %invoke.cont unwind label %lpad

invoke.cont:                                      ; preds = %entry
  %1 = load ptr, ptr %ref.tmp1, align 8, !tbaa !12
  invoke void (ptr, ptr, ...) @_ZN9benchmark9StrFormatB5cxx11EPKcz(ptr sret(%"class.std::__cxx11::basic_string") align 8 %agg.result, ptr noundef nonnull @.str.49, ptr noundef %0, ptr noundef %1)
          to label %invoke.cont4 unwind label %lpad3

invoke.cont4:                                     ; preds = %invoke.cont
  %2 = load ptr, ptr %ref.tmp1, align 8, !tbaa !12
  %3 = getelementptr inbounds %"class.std::__cxx11::basic_string", ptr %ref.tmp1, i64 0, i32 2
  %cmp.i.i.i = icmp eq ptr %2, %3
  br i1 %cmp.i.i.i, label %_ZNSt7__cxx1112basic_stringIcSt11char_traitsIcESaIcEED2Ev.exit, label %if.then.i.i

if.then.i.i:                                      ; preds = %invoke.cont4
  call void @_ZdlPv(ptr noundef %2) #17
  br label %_ZNSt7__cxx1112basic_stringIcSt11char_traitsIcESaIcEED2Ev.exit

_ZNSt7__cxx1112basic_stringIcSt11char_traitsIcESaIcEED2Ev.exit: ; preds = %invoke.cont4, %if.then.i.i
  call void @llvm.lifetime.end.p0(i64 32, ptr nonnull %ref.tmp1) #16
  %4 = load ptr, ptr %ref.tmp, align 8, !tbaa !12
  %5 = getelementptr inbounds %"class.std::__cxx11::basic_string", ptr %ref.tmp, i64 0, i32 2
  %cmp.i.i.i9 = icmp eq ptr %4, %5
  br i1 %cmp.i.i.i9, label %_ZNSt7__cxx1112basic_stringIcSt11char_traitsIcESaIcEED2Ev.exit11, label %if.then.i.i10

if.then.i.i10:                                    ; preds = %_ZNSt7__cxx1112basic_stringIcSt11char_traitsIcESaIcEED2Ev.exit
  call void @_ZdlPv(ptr noundef %4) #17
  br label %_ZNSt7__cxx1112basic_stringIcSt11char_traitsIcESaIcEED2Ev.exit11

_ZNSt7__cxx1112basic_stringIcSt11char_traitsIcESaIcEED2Ev.exit11: ; preds = %_ZNSt7__cxx1112basic_stringIcSt11char_traitsIcESaIcEED2Ev.exit, %if.then.i.i10
  call void @llvm.lifetime.end.p0(i64 32, ptr nonnull %ref.tmp) #16
  ret void

lpad:                                             ; preds = %entry
  %6 = landingpad { ptr, i32 }
          cleanup
  br label %ehcleanup

lpad3:                                            ; preds = %invoke.cont
  %7 = landingpad { ptr, i32 }
          cleanup
  %8 = load ptr, ptr %ref.tmp1, align 8, !tbaa !12
  %9 = getelementptr inbounds %"class.std::__cxx11::basic_string", ptr %ref.tmp1, i64 0, i32 2
  %cmp.i.i.i12 = icmp eq ptr %8, %9
  br i1 %cmp.i.i.i12, label %ehcleanup, label %if.then.i.i13

if.then.i.i13:                                    ; preds = %lpad3
  call void @_ZdlPv(ptr noundef %8) #17
  br label %ehcleanup

ehcleanup:                                        ; preds = %if.then.i.i13, %lpad3, %lpad
  %.pn = phi { ptr, i32 } [ %6, %lpad ], [ %7, %lpad3 ], [ %7, %if.then.i.i13 ]
  call void @llvm.lifetime.end.p0(i64 32, ptr nonnull %ref.tmp1) #16
  %10 = load ptr, ptr %ref.tmp, align 8, !tbaa !12
  %11 = getelementptr inbounds %"class.std::__cxx11::basic_string", ptr %ref.tmp, i64 0, i32 2
  %cmp.i.i.i15 = icmp eq ptr %10, %11
  br i1 %cmp.i.i.i15, label %_ZNSt7__cxx1112basic_stringIcSt11char_traitsIcESaIcEED2Ev.exit17, label %if.then.i.i16

if.then.i.i16:                                    ; preds = %ehcleanup
  call void @_ZdlPv(ptr noundef %10) #17
  br label %_ZNSt7__cxx1112basic_stringIcSt11char_traitsIcESaIcEED2Ev.exit17

_ZNSt7__cxx1112basic_stringIcSt11char_traitsIcESaIcEED2Ev.exit17: ; preds = %ehcleanup, %if.then.i.i16
  call void @llvm.lifetime.end.p0(i64 32, ptr nonnull %ref.tmp) #16
  resume { ptr, i32 } %.pn
}

; Function Attrs: uwtable
define internal fastcc void @_ZN9benchmark12_GLOBAL__N_18FormatKVERKNSt7__cxx1112basic_stringIcSt11char_traitsIcESaIcEEEPKc(ptr noalias align 8 %agg.result, ptr nocapture noundef nonnull readonly align 8 dereferenceable(32) %key, ptr noundef readonly %value) unnamed_addr #3 personality ptr @__gxx_personality_v0 {
entry:
  %__dnew.i.i = alloca i64, align 8
  %ref.tmp = alloca %"class.std::__cxx11::basic_string", align 8
  %ref.tmp1 = alloca %"class.std::__cxx11::basic_string", align 8
  %ref.tmp2 = alloca %"class.std::__cxx11::basic_string", align 8
  call void @llvm.lifetime.start.p0(i64 32, ptr nonnull %ref.tmp) #16
  call fastcc void @_ZN9benchmark12_GLOBAL__N_19StrEscapeERKNSt7__cxx1112basic_stringIcSt11char_traitsIcESaIcEEE(ptr noalias nonnull align 8 %ref.tmp, ptr noundef nonnull align 8 dereferenceable(32) %key)
  %0 = load ptr, ptr %ref.tmp, align 8, !tbaa !12
  call void @llvm.lifetime.start.p0(i64 32, ptr nonnull %ref.tmp1) #16
  call void @llvm.lifetime.start.p0(i64 32, ptr nonnull %ref.tmp2) #16
  %1 = getelementptr inbounds %"class.std::__cxx11::basic_string", ptr %ref.tmp2, i64 0, i32 2
  store ptr %1, ptr %ref.tmp2, align 8, !tbaa !10
  %cmp.i = icmp eq ptr %value, null
  br i1 %cmp.i, label %if.then.i, label %if.end.i

if.then.i:                                        ; preds = %entry
  invoke void @_ZSt19__throw_logic_errorPKc(ptr noundef nonnull @.str.76) #19
          to label %.noexc unwind label %lpad

.noexc:                                           ; preds = %if.then.i
  unreachable

if.end.i:                                         ; preds = %entry
  %call.i.i = call i64 @strlen(ptr noundef nonnull dereferenceable(1) %value) #16
  call void @llvm.lifetime.start.p0(i64 8, ptr nonnull %__dnew.i.i) #16
  store i64 %call.i.i, ptr %__dnew.i.i, align 8, !tbaa !36
  %cmp.i.i = icmp ugt i64 %call.i.i, 15
  br i1 %cmp.i.i, label %if.then.i.i, label %if.end.i.i

if.then.i.i:                                      ; preds = %if.end.i
  %call2.i10.i18 = invoke noundef ptr @_ZNSt7__cxx1112basic_stringIcSt11char_traitsIcESaIcEE9_M_createERmm(ptr noundef nonnull align 8 dereferenceable(32) %ref.tmp2, ptr noundef nonnull align 8 dereferenceable(8) %__dnew.i.i, i64 noundef 0)
          to label %call2.i10.i.noexc unwind label %lpad

call2.i10.i.noexc:                                ; preds = %if.then.i.i
  store ptr %call2.i10.i18, ptr %ref.tmp2, align 8, !tbaa !12
  %2 = load i64, ptr %__dnew.i.i, align 8, !tbaa !36
  store i64 %2, ptr %1, align 8, !tbaa !16
  br label %if.end.i.i

if.end.i.i:                                       ; preds = %call2.i10.i.noexc, %if.end.i
  %3 = phi ptr [ %call2.i10.i18, %call2.i10.i.noexc ], [ %1, %if.end.i ]
  switch i64 %call.i.i, label %if.end.i.i.i.i.i [
    i64 1, label %if.then.i.i.i.i
    i64 0, label %invoke.cont
  ]

if.then.i.i.i.i:                                  ; preds = %if.end.i.i
  %4 = load i8, ptr %value, align 1, !tbaa !16
  store i8 %4, ptr %3, align 1, !tbaa !16
  br label %invoke.cont

if.end.i.i.i.i.i:                                 ; preds = %if.end.i.i
  call void @llvm.memcpy.p0.p0.i64(ptr align 1 %3, ptr nonnull align 1 %value, i64 %call.i.i, i1 false)
  br label %invoke.cont

invoke.cont:                                      ; preds = %if.end.i.i.i.i.i, %if.then.i.i.i.i, %if.end.i.i
  %5 = load i64, ptr %__dnew.i.i, align 8, !tbaa !36
  %_M_string_length.i.i.i.i = getelementptr inbounds %"class.std::__cxx11::basic_string", ptr %ref.tmp2, i64 0, i32 1
  store i64 %5, ptr %_M_string_length.i.i.i.i, align 8, !tbaa !15
  %6 = load ptr, ptr %ref.tmp2, align 8, !tbaa !12
  %arrayidx.i.i.i = getelementptr inbounds i8, ptr %6, i64 %5
  store i8 0, ptr %arrayidx.i.i.i, align 1, !tbaa !16
  call void @llvm.lifetime.end.p0(i64 8, ptr nonnull %__dnew.i.i) #16
  invoke fastcc void @_ZN9benchmark12_GLOBAL__N_19StrEscapeERKNSt7__cxx1112basic_stringIcSt11char_traitsIcESaIcEEE(ptr noalias nonnull align 8 %ref.tmp1, ptr noundef nonnull align 8 dereferenceable(32) %ref.tmp2)
          to label %invoke.cont5 unwind label %lpad4

invoke.cont5:                                     ; preds = %invoke.cont
  %7 = load ptr, ptr %ref.tmp1, align 8, !tbaa !12
  invoke void (ptr, ptr, ...) @_ZN9benchmark9StrFormatB5cxx11EPKcz(ptr sret(%"class.std::__cxx11::basic_string") align 8 %agg.result, ptr noundef nonnull @.str.49, ptr noundef %0, ptr noundef %7)
          to label %invoke.cont8 unwind label %lpad7

invoke.cont8:                                     ; preds = %invoke.cont5
  %8 = load ptr, ptr %ref.tmp1, align 8, !tbaa !12
  %9 = getelementptr inbounds %"class.std::__cxx11::basic_string", ptr %ref.tmp1, i64 0, i32 2
  %cmp.i.i.i = icmp eq ptr %8, %9
  br i1 %cmp.i.i.i, label %_ZNSt7__cxx1112basic_stringIcSt11char_traitsIcESaIcEED2Ev.exit, label %if.then.i.i19

if.then.i.i19:                                    ; preds = %invoke.cont8
  call void @_ZdlPv(ptr noundef %8) #17
  br label %_ZNSt7__cxx1112basic_stringIcSt11char_traitsIcESaIcEED2Ev.exit

_ZNSt7__cxx1112basic_stringIcSt11char_traitsIcESaIcEED2Ev.exit: ; preds = %invoke.cont8, %if.then.i.i19
  %10 = load ptr, ptr %ref.tmp2, align 8, !tbaa !12
  %cmp.i.i.i20 = icmp eq ptr %10, %1
  br i1 %cmp.i.i.i20, label %_ZNSt7__cxx1112basic_stringIcSt11char_traitsIcESaIcEED2Ev.exit22, label %if.then.i.i21

if.then.i.i21:                                    ; preds = %_ZNSt7__cxx1112basic_stringIcSt11char_traitsIcESaIcEED2Ev.exit
  call void @_ZdlPv(ptr noundef %10) #17
  br label %_ZNSt7__cxx1112basic_stringIcSt11char_traitsIcESaIcEED2Ev.exit22

_ZNSt7__cxx1112basic_stringIcSt11char_traitsIcESaIcEED2Ev.exit22: ; preds = %_ZNSt7__cxx1112basic_stringIcSt11char_traitsIcESaIcEED2Ev.exit, %if.then.i.i21
  call void @llvm.lifetime.end.p0(i64 32, ptr nonnull %ref.tmp2) #16
  call void @llvm.lifetime.end.p0(i64 32, ptr nonnull %ref.tmp1) #16
  %11 = load ptr, ptr %ref.tmp, align 8, !tbaa !12
  %12 = getelementptr inbounds %"class.std::__cxx11::basic_string", ptr %ref.tmp, i64 0, i32 2
  %cmp.i.i.i23 = icmp eq ptr %11, %12
  br i1 %cmp.i.i.i23, label %_ZNSt7__cxx1112basic_stringIcSt11char_traitsIcESaIcEED2Ev.exit25, label %if.then.i.i24

if.then.i.i24:                                    ; preds = %_ZNSt7__cxx1112basic_stringIcSt11char_traitsIcESaIcEED2Ev.exit22
  call void @_ZdlPv(ptr noundef %11) #17
  br label %_ZNSt7__cxx1112basic_stringIcSt11char_traitsIcESaIcEED2Ev.exit25

_ZNSt7__cxx1112basic_stringIcSt11char_traitsIcESaIcEED2Ev.exit25: ; preds = %_ZNSt7__cxx1112basic_stringIcSt11char_traitsIcESaIcEED2Ev.exit22, %if.then.i.i24
  call void @llvm.lifetime.end.p0(i64 32, ptr nonnull %ref.tmp) #16
  ret void

lpad:                                             ; preds = %if.then.i.i, %if.then.i
  %13 = landingpad { ptr, i32 }
          cleanup
  br label %ehcleanup9

lpad4:                                            ; preds = %invoke.cont
  %14 = landingpad { ptr, i32 }
          cleanup
  br label %ehcleanup

lpad7:                                            ; preds = %invoke.cont5
  %15 = landingpad { ptr, i32 }
          cleanup
  %16 = load ptr, ptr %ref.tmp1, align 8, !tbaa !12
  %17 = getelementptr inbounds %"class.std::__cxx11::basic_string", ptr %ref.tmp1, i64 0, i32 2
  %cmp.i.i.i26 = icmp eq ptr %16, %17
  br i1 %cmp.i.i.i26, label %ehcleanup, label %if.then.i.i27

if.then.i.i27:                                    ; preds = %lpad7
  call void @_ZdlPv(ptr noundef %16) #17
  br label %ehcleanup

ehcleanup:                                        ; preds = %if.then.i.i27, %lpad7, %lpad4
  %.pn = phi { ptr, i32 } [ %14, %lpad4 ], [ %15, %lpad7 ], [ %15, %if.then.i.i27 ]
  %18 = load ptr, ptr %ref.tmp2, align 8, !tbaa !12
  %cmp.i.i.i29 = icmp eq ptr %18, %1
  br i1 %cmp.i.i.i29, label %ehcleanup9, label %if.then.i.i30

if.then.i.i30:                                    ; preds = %ehcleanup
  call void @_ZdlPv(ptr noundef %18) #17
  br label %ehcleanup9

ehcleanup9:                                       ; preds = %if.then.i.i30, %ehcleanup, %lpad
  %.pn.pn = phi { ptr, i32 } [ %13, %lpad ], [ %.pn, %ehcleanup ], [ %.pn, %if.then.i.i30 ]
  call void @llvm.lifetime.end.p0(i64 32, ptr nonnull %ref.tmp2) #16
  call void @llvm.lifetime.end.p0(i64 32, ptr nonnull %ref.tmp1) #16
  %19 = load ptr, ptr %ref.tmp, align 8, !tbaa !12
  %20 = getelementptr inbounds %"class.std::__cxx11::basic_string", ptr %ref.tmp, i64 0, i32 2
  %cmp.i.i.i32 = icmp eq ptr %19, %20
  br i1 %cmp.i.i.i32, label %_ZNSt7__cxx1112basic_stringIcSt11char_traitsIcESaIcEED2Ev.exit34, label %if.then.i.i33

if.then.i.i33:                                    ; preds = %ehcleanup9
  call void @_ZdlPv(ptr noundef %19) #17
  br label %_ZNSt7__cxx1112basic_stringIcSt11char_traitsIcESaIcEED2Ev.exit34

_ZNSt7__cxx1112basic_stringIcSt11char_traitsIcESaIcEED2Ev.exit34: ; preds = %ehcleanup9, %if.then.i.i33
  call void @llvm.lifetime.end.p0(i64 32, ptr nonnull %ref.tmp) #16
  resume { ptr, i32 } %.pn.pn
}

; Function Attrs: uwtable
define internal fastcc void @_ZN9benchmark12_GLOBAL__N_18FormatKVERKNSt7__cxx1112basic_stringIcSt11char_traitsIcESaIcEEEl(ptr noalias align 8 %agg.result, ptr nocapture noundef nonnull readonly align 8 dereferenceable(32) %key, i64 noundef %value) unnamed_addr #3 personality ptr @__gxx_personality_v0 {
entry:
  %__c.addr.i = alloca i8, align 1
  %ss = alloca %"class.std::__cxx11::basic_stringstream", align 8
  %ref.tmp = alloca %"class.std::__cxx11::basic_string", align 8
  call void @llvm.lifetime.start.p0(i64 392, ptr nonnull %ss) #16
  call void @_ZNSt7__cxx1118basic_stringstreamIcSt11char_traitsIcESaIcEEC1Ev(ptr noundef nonnull align 8 dereferenceable(128) %ss)
  %add.ptr = getelementptr inbounds i8, ptr %ss, i64 16
  call void @llvm.lifetime.start.p0(i64 1, ptr nonnull %__c.addr.i)
  store i8 34, ptr %__c.addr.i, align 1, !tbaa !16
  %vtable.i = load ptr, ptr %add.ptr, align 8, !tbaa !54
  %vbase.offset.ptr.i = getelementptr i8, ptr %vtable.i, i64 -24
  %vbase.offset.i = load i64, ptr %vbase.offset.ptr.i, align 8
  %add.ptr.i = getelementptr inbounds i8, ptr %add.ptr, i64 %vbase.offset.i
  %_M_width.i.i = getelementptr inbounds %"class.std::ios_base", ptr %add.ptr.i, i64 0, i32 2
  %0 = load i64, ptr %_M_width.i.i, align 8, !tbaa !56
  %cmp.not.i = icmp eq i64 %0, 0
  br i1 %cmp.not.i, label %if.end.i, label %if.then.i

if.then.i:                                        ; preds = %entry
  %call1.i17 = invoke noundef nonnull align 8 dereferenceable(8) ptr @_ZSt16__ostream_insertIcSt11char_traitsIcEERSt13basic_ostreamIT_T0_ES6_PKS3_l(ptr noundef nonnull align 8 dereferenceable(8) %add.ptr, ptr noundef nonnull %__c.addr.i, i64 noundef 1)
          to label %invoke.cont unwind label %lpad

if.end.i:                                         ; preds = %entry
  %call2.i18 = invoke noundef nonnull align 8 dereferenceable(8) ptr @_ZNSo3putEc(ptr noundef nonnull align 8 dereferenceable(8) %add.ptr, i8 noundef signext 34)
          to label %invoke.cont unwind label %lpad

invoke.cont:                                      ; preds = %if.then.i, %if.end.i
  %retval.0.i = phi ptr [ %call1.i17, %if.then.i ], [ %add.ptr, %if.end.i ]
  call void @llvm.lifetime.end.p0(i64 1, ptr nonnull %__c.addr.i)
  call void @llvm.lifetime.start.p0(i64 32, ptr nonnull %ref.tmp) #16
  invoke fastcc void @_ZN9benchmark12_GLOBAL__N_19StrEscapeERKNSt7__cxx1112basic_stringIcSt11char_traitsIcESaIcEEE(ptr noalias nonnull align 8 %ref.tmp, ptr noundef nonnull align 8 dereferenceable(32) %key)
          to label %invoke.cont2 unwind label %lpad1

invoke.cont2:                                     ; preds = %invoke.cont
  %1 = load ptr, ptr %ref.tmp, align 8, !tbaa !12
  %_M_string_length.i.i = getelementptr inbounds %"class.std::__cxx11::basic_string", ptr %ref.tmp, i64 0, i32 1
  %2 = load i64, ptr %_M_string_length.i.i, align 8, !tbaa !15
  %call2.i20 = invoke noundef nonnull align 8 dereferenceable(8) ptr @_ZSt16__ostream_insertIcSt11char_traitsIcEERSt13basic_ostreamIT_T0_ES6_PKS3_l(ptr noundef nonnull align 8 dereferenceable(8) %retval.0.i, ptr noundef %1, i64 noundef %2)
          to label %invoke.cont4 unwind label %lpad3

invoke.cont4:                                     ; preds = %invoke.cont2
  %call1.i23 = invoke noundef nonnull align 8 dereferenceable(8) ptr @_ZSt16__ostream_insertIcSt11char_traitsIcEERSt13basic_ostreamIT_T0_ES6_PKS3_l(ptr noundef nonnull align 8 dereferenceable(8) %call2.i20, ptr noundef nonnull @.str.58, i64 noundef 3)
          to label %invoke.cont6 unwind label %lpad3

invoke.cont6:                                     ; preds = %invoke.cont4
  %call.i24 = invoke noundef nonnull align 8 dereferenceable(8) ptr @_ZNSo9_M_insertIlEERSoT_(ptr noundef nonnull align 8 dereferenceable(8) %call2.i20, i64 noundef %value)
          to label %invoke.cont8 unwind label %lpad3

invoke.cont8:                                     ; preds = %invoke.cont6
  %3 = load ptr, ptr %ref.tmp, align 8, !tbaa !12
  %4 = getelementptr inbounds %"class.std::__cxx11::basic_string", ptr %ref.tmp, i64 0, i32 2
  %cmp.i.i.i = icmp eq ptr %3, %4
  br i1 %cmp.i.i.i, label %_ZNSt7__cxx1112basic_stringIcSt11char_traitsIcESaIcEED2Ev.exit, label %if.then.i.i

if.then.i.i:                                      ; preds = %invoke.cont8
  call void @_ZdlPv(ptr noundef %3) #17
  br label %_ZNSt7__cxx1112basic_stringIcSt11char_traitsIcESaIcEED2Ev.exit

_ZNSt7__cxx1112basic_stringIcSt11char_traitsIcESaIcEED2Ev.exit: ; preds = %invoke.cont8, %if.then.i.i
  call void @llvm.lifetime.end.p0(i64 32, ptr nonnull %ref.tmp) #16
  call void @llvm.experimental.noalias.scope.decl(metadata !62)
  call void @llvm.experimental.noalias.scope.decl(metadata !65)
  %5 = getelementptr inbounds %"class.std::__cxx11::basic_string", ptr %agg.result, i64 0, i32 2
  store ptr %5, ptr %agg.result, align 8, !tbaa !10, !alias.scope !68
  %_M_string_length.i.i.i.i.i = getelementptr inbounds %"class.std::__cxx11::basic_string", ptr %agg.result, i64 0, i32 1
  store i64 0, ptr %_M_string_length.i.i.i.i.i, align 8, !tbaa !15, !alias.scope !68
  store i8 0, ptr %5, align 8, !tbaa !16, !alias.scope !68
  %_M_out_cur.i.i.i.i = getelementptr inbounds %"class.std::__cxx11::basic_stringstream", ptr %ss, i64 0, i32 1, i32 0, i32 5
  %6 = load ptr, ptr %_M_out_cur.i.i.i.i, align 8, !tbaa !69, !noalias !68
  %tobool.not.not.i.i.i = icmp eq ptr %6, null
  %_M_in_end.i.i.i.i = getelementptr inbounds %"class.std::__cxx11::basic_stringstream", ptr %ss, i64 0, i32 1, i32 0, i32 3
  %7 = load ptr, ptr %_M_in_end.i.i.i.i, align 8, !noalias !68
  %cmp.i.i.i25 = icmp ugt ptr %6, %7
  %retval.0.i.i.i = select i1 %cmp.i.i.i25, ptr %6, ptr %7
  %tobool.not12.i.i = icmp eq ptr %retval.0.i.i.i, null
  %tobool.not.i.i = select i1 %tobool.not.not.i.i.i, i1 true, i1 %tobool.not12.i.i
  br i1 %tobool.not.i.i, label %if.else.i.i, label %if.then.i.i26

if.then.i.i26:                                    ; preds = %_ZNSt7__cxx1112basic_stringIcSt11char_traitsIcESaIcEED2Ev.exit
  %_M_out_beg.i.i.i = getelementptr inbounds %"class.std::__cxx11::basic_stringstream", ptr %ss, i64 0, i32 1, i32 0, i32 4
  %8 = load ptr, ptr %_M_out_beg.i.i.i, align 8, !tbaa !71, !noalias !68
  %sub.ptr.lhs.cast.i.i.i.i = ptrtoint ptr %retval.0.i.i.i to i64
  %sub.ptr.rhs.cast.i.i.i.i = ptrtoint ptr %8 to i64
  %sub.ptr.sub.i.i.i.i = sub i64 %sub.ptr.lhs.cast.i.i.i.i, %sub.ptr.rhs.cast.i.i.i.i
  %call3.i.i.i11.i.i = invoke noundef nonnull align 8 dereferenceable(32) ptr @_ZNSt7__cxx1112basic_stringIcSt11char_traitsIcESaIcEE10_M_replaceEmmPKcm(ptr noundef nonnull align 8 dereferenceable(32) %agg.result, i64 noundef 0, i64 noundef 0, ptr noundef %8, i64 noundef %sub.ptr.sub.i.i.i.i)
          to label %invoke.cont10 unwind label %lpad.i.i

lpad.i.i:                                         ; preds = %if.else.i.i, %if.then.i.i26
  %9 = landingpad { ptr, i32 }
          cleanup
  %10 = load ptr, ptr %agg.result, align 8, !tbaa !12, !alias.scope !68
  %cmp.i.i.i.i.i = icmp eq ptr %10, %5
  br i1 %cmp.i.i.i.i.i, label %ehcleanup11, label %if.then.i.i.i.i

if.then.i.i.i.i:                                  ; preds = %lpad.i.i
  call void @_ZdlPv(ptr noundef %10) #17
  br label %ehcleanup11

if.else.i.i:                                      ; preds = %_ZNSt7__cxx1112basic_stringIcSt11char_traitsIcESaIcEED2Ev.exit
  %_M_string.i.i = getelementptr inbounds %"class.std::__cxx11::basic_stringstream", ptr %ss, i64 0, i32 1, i32 2
  invoke void @_ZNSt7__cxx1112basic_stringIcSt11char_traitsIcESaIcEE9_M_assignERKS4_(ptr noundef nonnull align 8 dereferenceable(32) %agg.result, ptr noundef nonnull align 8 dereferenceable(32) %_M_string.i.i)
          to label %invoke.cont10 unwind label %lpad.i.i

invoke.cont10:                                    ; preds = %if.else.i.i, %if.then.i.i26
  %11 = load ptr, ptr @_ZTTNSt7__cxx1118basic_stringstreamIcSt11char_traitsIcESaIcEEE, align 8
  store ptr %11, ptr %ss, align 8, !tbaa !54
  %12 = load ptr, ptr getelementptr inbounds ([10 x ptr], ptr @_ZTTNSt7__cxx1118basic_stringstreamIcSt11char_traitsIcESaIcEEE, i64 0, i64 8), align 8
  %vbase.offset.ptr.i.i = getelementptr i8, ptr %11, i64 -24
  %vbase.offset.i.i = load i64, ptr %vbase.offset.ptr.i.i, align 8
  %add.ptr.i.i = getelementptr inbounds i8, ptr %ss, i64 %vbase.offset.i.i
  store ptr %12, ptr %add.ptr.i.i, align 8, !tbaa !54
  %13 = load ptr, ptr getelementptr inbounds ([10 x ptr], ptr @_ZTTNSt7__cxx1118basic_stringstreamIcSt11char_traitsIcESaIcEEE, i64 0, i64 9), align 8
  store ptr %13, ptr %add.ptr, align 8, !tbaa !54
  %_M_stringbuf.i.i = getelementptr inbounds %"class.std::__cxx11::basic_stringstream", ptr %ss, i64 0, i32 1
  store ptr getelementptr inbounds ({ [16 x ptr] }, ptr @_ZTVNSt7__cxx1115basic_stringbufIcSt11char_traitsIcESaIcEEE, i64 0, inrange i32 0, i64 2), ptr %_M_stringbuf.i.i, align 8, !tbaa !54
  %_M_string.i.i.i = getelementptr inbounds %"class.std::__cxx11::basic_stringstream", ptr %ss, i64 0, i32 1, i32 2
  %14 = load ptr, ptr %_M_string.i.i.i, align 8, !tbaa !12
  %15 = getelementptr inbounds %"class.std::__cxx11::basic_stringstream", ptr %ss, i64 0, i32 1, i32 2, i32 2
  %cmp.i.i.i.i.i.i = icmp eq ptr %14, %15
  br i1 %cmp.i.i.i.i.i.i, label %_ZNSt7__cxx1118basic_stringstreamIcSt11char_traitsIcESaIcEED1Ev.exit, label %if.then.i.i.i.i.i

if.then.i.i.i.i.i:                                ; preds = %invoke.cont10
  call void @_ZdlPv(ptr noundef %14) #17
  br label %_ZNSt7__cxx1118basic_stringstreamIcSt11char_traitsIcESaIcEED1Ev.exit

_ZNSt7__cxx1118basic_stringstreamIcSt11char_traitsIcESaIcEED1Ev.exit: ; preds = %invoke.cont10, %if.then.i.i.i.i.i
  store ptr getelementptr inbounds ({ [16 x ptr] }, ptr @_ZTVSt15basic_streambufIcSt11char_traitsIcEE, i64 0, inrange i32 0, i64 2), ptr %_M_stringbuf.i.i, align 8, !tbaa !54
  %_M_buf_locale.i.i.i.i = getelementptr inbounds %"class.std::__cxx11::basic_stringstream", ptr %ss, i64 0, i32 1, i32 0, i32 7
  call void @_ZNSt6localeD1Ev(ptr noundef nonnull align 8 dereferenceable(8) %_M_buf_locale.i.i.i.i) #16
  %16 = load ptr, ptr getelementptr inbounds ([10 x ptr], ptr @_ZTTNSt7__cxx1118basic_stringstreamIcSt11char_traitsIcESaIcEEE, i64 0, i64 2), align 8
  store ptr %16, ptr %ss, align 8, !tbaa !54
  %17 = load ptr, ptr getelementptr inbounds ([10 x ptr], ptr @_ZTTNSt7__cxx1118basic_stringstreamIcSt11char_traitsIcESaIcEEE, i64 0, i64 3), align 8
  %vbase.offset.ptr.i.i.i.i = getelementptr i8, ptr %16, i64 -24
  %vbase.offset.i.i.i.i = load i64, ptr %vbase.offset.ptr.i.i.i.i, align 8
  %add.ptr.i.i.i.i = getelementptr inbounds i8, ptr %ss, i64 %vbase.offset.i.i.i.i
  store ptr %17, ptr %add.ptr.i.i.i.i, align 8, !tbaa !54
  %_M_gcount.i.i.i.i = getelementptr inbounds %"class.std::basic_istream", ptr %ss, i64 0, i32 1
  store i64 0, ptr %_M_gcount.i.i.i.i, align 8, !tbaa !72
  %18 = getelementptr inbounds i8, ptr %ss, i64 128
  call void @_ZNSt8ios_baseD2Ev(ptr noundef nonnull align 8 dereferenceable(264) %18) #16
  call void @llvm.lifetime.end.p0(i64 392, ptr nonnull %ss) #16
  ret void

lpad:                                             ; preds = %if.end.i, %if.then.i
  %19 = landingpad { ptr, i32 }
          cleanup
  br label %ehcleanup11

lpad1:                                            ; preds = %invoke.cont
  %20 = landingpad { ptr, i32 }
          cleanup
  br label %ehcleanup

lpad3:                                            ; preds = %invoke.cont6, %invoke.cont4, %invoke.cont2
  %21 = landingpad { ptr, i32 }
          cleanup
  %22 = load ptr, ptr %ref.tmp, align 8, !tbaa !12
  %23 = getelementptr inbounds %"class.std::__cxx11::basic_string", ptr %ref.tmp, i64 0, i32 2
  %cmp.i.i.i27 = icmp eq ptr %22, %23
  br i1 %cmp.i.i.i27, label %ehcleanup, label %if.then.i.i28

if.then.i.i28:                                    ; preds = %lpad3
  call void @_ZdlPv(ptr noundef %22) #17
  br label %ehcleanup

ehcleanup:                                        ; preds = %if.then.i.i28, %lpad3, %lpad1
  %.pn = phi { ptr, i32 } [ %20, %lpad1 ], [ %21, %lpad3 ], [ %21, %if.then.i.i28 ]
  call void @llvm.lifetime.end.p0(i64 32, ptr nonnull %ref.tmp) #16
  br label %ehcleanup11

ehcleanup11:                                      ; preds = %lpad, %if.then.i.i.i.i, %lpad.i.i, %ehcleanup
  %.pn14 = phi { ptr, i32 } [ %.pn, %ehcleanup ], [ %19, %lpad ], [ %9, %if.then.i.i.i.i ], [ %9, %lpad.i.i ]
  call void @_ZNSt7__cxx1118basic_stringstreamIcSt11char_traitsIcESaIcEED1Ev(ptr noundef nonnull align 8 dereferenceable(128) %ss) #16
  call void @llvm.lifetime.end.p0(i64 392, ptr nonnull %ss) #16
  resume { ptr, i32 } %.pn14
}

; Function Attrs: mustprogress nocallback nofree nounwind willreturn memory(argmem: readwrite)
declare void @llvm.memcpy.p0.p0.i64(ptr noalias nocapture writeonly, ptr noalias nocapture readonly, i64, i1 immarg) #5

; Function Attrs: uwtable
define hidden void @_ZN9benchmark12JSONReporter10ReportRunsERKSt6vectorINS_17BenchmarkReporter3RunESaIS3_EE(ptr nocapture noundef nonnull align 8 dereferenceable(25) %this, ptr nocapture noundef nonnull readonly align 8 dereferenceable(24) %reports) unnamed_addr #3 align 2 personality ptr @__gxx_personality_v0 {
entry:
  %__c.addr.i = alloca i8, align 1
  %indent = alloca %"class.std::__cxx11::basic_string", align 8
  %0 = load ptr, ptr %reports, align 8, !tbaa !19
  %_M_finish.i.i = getelementptr inbounds %"struct.std::_Vector_base<benchmark::BenchmarkReporter::Run, std::allocator<benchmark::BenchmarkReporter::Run>>::_Vector_impl_data", ptr %reports, i64 0, i32 1
  %1 = load ptr, ptr %_M_finish.i.i, align 8, !tbaa !19
  %cmp.i.i = icmp eq ptr %0, %1
  br i1 %cmp.i.i, label %return, label %if.end

if.end:                                           ; preds = %entry
  call void @llvm.lifetime.start.p0(i64 32, ptr nonnull %indent) #16
  %2 = getelementptr inbounds %"class.std::__cxx11::basic_string", ptr %indent, i64 0, i32 2
  store ptr %2, ptr %indent, align 8, !tbaa !10
  call void @_ZNSt7__cxx1112basic_stringIcSt11char_traitsIcESaIcEE12_M_constructEmc(ptr noundef nonnull align 8 dereferenceable(32) %indent, i64 noundef 4, i8 noundef signext 32)
  %output_stream_.i = getelementptr inbounds %"class.benchmark::BenchmarkReporter", ptr %this, i64 0, i32 1
  %3 = load ptr, ptr %output_stream_.i, align 8, !tbaa !5
  %first_report_ = getelementptr inbounds %"class.benchmark::JSONReporter", ptr %this, i64 0, i32 1
  %4 = load i8, ptr %first_report_, align 8, !tbaa !74, !range !77, !noundef !78
  %tobool.not = icmp eq i8 %4, 0
  br i1 %tobool.not, label %if.then5, label %if.end8

if.then5:                                         ; preds = %if.end
  %call1.i50 = invoke noundef nonnull align 8 dereferenceable(8) ptr @_ZSt16__ostream_insertIcSt11char_traitsIcEERSt13basic_ostreamIT_T0_ES6_PKS3_l(ptr noundef nonnull align 8 dereferenceable(8) %3, ptr noundef nonnull @.str.4, i64 noundef 2)
          to label %if.end8 unwind label %lpad2

lpad2:                                            ; preds = %if.then5
  %5 = landingpad { ptr, i32 }
          cleanup
  br label %ehcleanup37

if.end8:                                          ; preds = %if.then5, %if.end
  store i8 0, ptr %first_report_, align 8, !tbaa !74
  %6 = load ptr, ptr %reports, align 8, !tbaa !19
  %7 = load ptr, ptr %_M_finish.i.i, align 8, !tbaa !19
  %cmp.i.not74 = icmp eq ptr %6, %7
  br i1 %cmp.i.not74, label %for.cond.cleanup, label %for.body.lr.ph

for.body.lr.ph:                                   ; preds = %if.end8
  %_M_string_length.i.i = getelementptr inbounds %"class.std::__cxx11::basic_string", ptr %indent, i64 0, i32 1
  br label %for.body

for.cond.cleanup:                                 ; preds = %invoke.cont24, %if.end35, %if.end8
  %8 = load ptr, ptr %indent, align 8, !tbaa !12
  %cmp.i.i.i = icmp eq ptr %8, %2
  br i1 %cmp.i.i.i, label %_ZNSt7__cxx1112basic_stringIcSt11char_traitsIcESaIcEED2Ev.exit, label %if.then.i.i

if.then.i.i:                                      ; preds = %for.cond.cleanup
  call void @_ZdlPv(ptr noundef %8) #17
  br label %_ZNSt7__cxx1112basic_stringIcSt11char_traitsIcESaIcEED2Ev.exit

_ZNSt7__cxx1112basic_stringIcSt11char_traitsIcESaIcEED2Ev.exit: ; preds = %for.cond.cleanup, %if.then.i.i
  call void @llvm.lifetime.end.p0(i64 32, ptr nonnull %indent) #16
  br label %return

for.body:                                         ; preds = %for.body.lr.ph, %if.end35
  %it.sroa.0.075 = phi ptr [ %6, %for.body.lr.ph ], [ %incdec.ptr.i, %if.end35 ]
  %9 = load ptr, ptr %indent, align 8, !tbaa !12
  %10 = load i64, ptr %_M_string_length.i.i, align 8, !tbaa !15
  %call2.i51 = invoke noundef nonnull align 8 dereferenceable(8) ptr @_ZSt16__ostream_insertIcSt11char_traitsIcEERSt13basic_ostreamIT_T0_ES6_PKS3_l(ptr noundef nonnull align 8 dereferenceable(8) %3, ptr noundef %9, i64 noundef %10)
          to label %invoke.cont16 unwind label %lpad15

invoke.cont16:                                    ; preds = %for.body
  %call1.i53 = invoke noundef nonnull align 8 dereferenceable(8) ptr @_ZSt16__ostream_insertIcSt11char_traitsIcEERSt13basic_ostreamIT_T0_ES6_PKS3_l(ptr noundef nonnull align 8 dereferenceable(8) %call2.i51, ptr noundef nonnull @.str, i64 noundef 2)
          to label %invoke.cont18 unwind label %lpad15

invoke.cont18:                                    ; preds = %invoke.cont16
  invoke void @_ZN9benchmark12JSONReporter12PrintRunDataERKNS_17BenchmarkReporter3RunE(ptr noundef nonnull align 8 dereferenceable(25) %this, ptr noundef nonnull align 8 dereferenceable(528) %it.sroa.0.075)
          to label %invoke.cont21 unwind label %lpad15

invoke.cont21:                                    ; preds = %invoke.cont18
  %11 = load ptr, ptr %indent, align 8, !tbaa !12
  %12 = load i64, ptr %_M_string_length.i.i, align 8, !tbaa !15
  %call2.i56 = invoke noundef nonnull align 8 dereferenceable(8) ptr @_ZSt16__ostream_insertIcSt11char_traitsIcEERSt13basic_ostreamIT_T0_ES6_PKS3_l(ptr noundef nonnull align 8 dereferenceable(8) %3, ptr noundef %11, i64 noundef %12)
          to label %invoke.cont22 unwind label %lpad15

invoke.cont22:                                    ; preds = %invoke.cont21
  call void @llvm.lifetime.start.p0(i64 1, ptr nonnull %__c.addr.i)
  store i8 125, ptr %__c.addr.i, align 1, !tbaa !16
  %vtable.i = load ptr, ptr %call2.i56, align 8, !tbaa !54
  %vbase.offset.ptr.i = getelementptr i8, ptr %vtable.i, i64 -24
  %vbase.offset.i = load i64, ptr %vbase.offset.ptr.i, align 8
  %add.ptr.i = getelementptr inbounds i8, ptr %call2.i56, i64 %vbase.offset.i
  %_M_width.i.i = getelementptr inbounds %"class.std::ios_base", ptr %add.ptr.i, i64 0, i32 2
  %13 = load i64, ptr %_M_width.i.i, align 8, !tbaa !56
  %cmp.not.i = icmp eq i64 %13, 0
  br i1 %cmp.not.i, label %if.end.i, label %if.then.i

if.then.i:                                        ; preds = %invoke.cont22
  %call1.i58 = invoke noundef nonnull align 8 dereferenceable(8) ptr @_ZSt16__ostream_insertIcSt11char_traitsIcEERSt13basic_ostreamIT_T0_ES6_PKS3_l(ptr noundef nonnull align 8 dereferenceable(8) %call2.i56, ptr noundef nonnull %__c.addr.i, i64 noundef 1)
          to label %invoke.cont24 unwind label %lpad15

if.end.i:                                         ; preds = %invoke.cont22
  %call2.i59 = invoke noundef nonnull align 8 dereferenceable(8) ptr @_ZNSo3putEc(ptr noundef nonnull align 8 dereferenceable(8) %call2.i56, i8 noundef signext 125)
          to label %invoke.cont24 unwind label %lpad15

invoke.cont24:                                    ; preds = %if.then.i, %if.end.i
  call void @llvm.lifetime.end.p0(i64 1, ptr nonnull %__c.addr.i)
  %incdec.ptr.i = getelementptr inbounds %"struct.benchmark::BenchmarkReporter::Run", ptr %it.sroa.0.075, i64 1
  %14 = load ptr, ptr %_M_finish.i.i, align 8, !tbaa !19
  %cmp.i61.not = icmp eq ptr %incdec.ptr.i, %14
  br i1 %cmp.i61.not, label %for.cond.cleanup, label %if.then31

if.then31:                                        ; preds = %invoke.cont24
  %call1.i65 = invoke noundef nonnull align 8 dereferenceable(8) ptr @_ZSt16__ostream_insertIcSt11char_traitsIcEERSt13basic_ostreamIT_T0_ES6_PKS3_l(ptr noundef nonnull align 8 dereferenceable(8) %3, ptr noundef nonnull @.str.4, i64 noundef 2)
          to label %if.end35 unwind label %lpad32

lpad15:                                           ; preds = %if.end.i, %if.then.i, %invoke.cont21, %invoke.cont16, %for.body, %invoke.cont18
  %15 = landingpad { ptr, i32 }
          cleanup
  br label %ehcleanup37

lpad32:                                           ; preds = %if.then31
  %16 = landingpad { ptr, i32 }
          cleanup
  br label %ehcleanup37

if.end35:                                         ; preds = %if.then31
  %.pre = load ptr, ptr %_M_finish.i.i, align 8, !tbaa !19
  %cmp.i.not = icmp eq ptr %incdec.ptr.i, %.pre
  br i1 %cmp.i.not, label %for.cond.cleanup, label %for.body, !llvm.loop !79

return:                                           ; preds = %entry, %_ZNSt7__cxx1112basic_stringIcSt11char_traitsIcESaIcEED2Ev.exit
  ret void

ehcleanup37:                                      ; preds = %lpad15, %lpad32, %lpad2
  %.pn.pn = phi { ptr, i32 } [ %5, %lpad2 ], [ %16, %lpad32 ], [ %15, %lpad15 ]
  %17 = load ptr, ptr %indent, align 8, !tbaa !12
  %cmp.i.i.i68 = icmp eq ptr %17, %2
  br i1 %cmp.i.i.i68, label %ehcleanup39, label %if.then.i.i69

if.then.i.i69:                                    ; preds = %ehcleanup37
  call void @_ZdlPv(ptr noundef %17) #17
  br label %ehcleanup39

ehcleanup39:                                      ; preds = %if.then.i.i69, %ehcleanup37
  call void @llvm.lifetime.end.p0(i64 32, ptr nonnull %indent) #16
  resume { ptr, i32 } %.pn.pn
}

; Function Attrs: uwtable
define hidden void @_ZN9benchmark12JSONReporter12PrintRunDataERKNS_17BenchmarkReporter3RunE(ptr nocapture noundef nonnull readonly align 8 dereferenceable(25) %this, ptr noundef nonnull align 8 dereferenceable(528) %run) local_unnamed_addr #3 align 2 personality ptr @__gxx_personality_v0 {
entry:
  %__c.addr.i = alloca i8, align 1
  %__dnew.i.i1444 = alloca i64, align 8
  %__c.addr.i.i = alloca i8, align 1
  %ss.i = alloca %"class.std::__cxx11::basic_stringstream", align 8
  %ref.tmp.i1196 = alloca %"class.std::__cxx11::basic_string", align 8
  %ref.tmp.i = alloca %"class.std::__cxx11::basic_string", align 8
  %__dnew.i.i935 = alloca i64, align 8
  %__dnew.i.i824 = alloca i64, align 8
  %indent = alloca %"class.std::__cxx11::basic_string", align 8
  %ref.tmp6 = alloca %"class.std::__cxx11::basic_string", align 8
  %ref.tmp7 = alloca %"class.std::__cxx11::basic_string", align 8
  %ref.tmp11 = alloca %"class.std::__cxx11::basic_string", align 8
  %ref.tmp29 = alloca %"class.std::__cxx11::basic_string", align 8
  %ref.tmp30 = alloca %"class.std::__cxx11::basic_string", align 8
  %ref.tmp49 = alloca %"class.std::__cxx11::basic_string", align 8
  %ref.tmp50 = alloca %"class.std::__cxx11::basic_string", align 8
  %ref.tmp69 = alloca %"class.std::__cxx11::basic_string", align 8
  %ref.tmp70 = alloca %"class.std::__cxx11::basic_string", align 8
  %ref.tmp74 = alloca %"class.std::__cxx11::basic_string", align 8
  %ref.tmp94 = alloca %"class.std::__cxx11::basic_string", align 8
  %ref.tmp95 = alloca %"class.std::__cxx11::basic_string", align 8
  %ref.tmp118 = alloca %"class.std::__cxx11::basic_string", align 8
  %ref.tmp119 = alloca %"class.std::__cxx11::basic_string", align 8
  %ref.tmp138 = alloca %"class.std::__cxx11::basic_string", align 8
  %ref.tmp139 = alloca %"class.std::__cxx11::basic_string", align 8
  %ref.tmp158 = alloca %"class.std::__cxx11::basic_string", align 8
  %ref.tmp159 = alloca %"class.std::__cxx11::basic_string", align 8
  %ref.tmp181 = alloca %"class.std::__cxx11::basic_string", align 8
  %ref.tmp182 = alloca %"class.std::__cxx11::basic_string", align 8
  %ref.tmp201 = alloca %"class.std::__cxx11::basic_string", align 8
  %ref.tmp202 = alloca %"class.std::__cxx11::basic_string", align 8
  %ref.tmp227 = alloca %"class.std::__cxx11::basic_string", align 8
  %ref.tmp228 = alloca %"class.std::__cxx11::basic_string", align 8
  %ref.tmp249 = alloca %"class.std::__cxx11::basic_string", align 8
  %ref.tmp250 = alloca %"class.std::__cxx11::basic_string", align 8
  %ref.tmp273 = alloca %"class.std::__cxx11::basic_string", align 8
  %ref.tmp274 = alloca %"class.std::__cxx11::basic_string", align 8
  %ref.tmp297 = alloca %"class.std::__cxx11::basic_string", align 8
  %ref.tmp298 = alloca %"class.std::__cxx11::basic_string", align 8
  %ref.tmp319 = alloca %"class.std::__cxx11::basic_string", align 8
  %ref.tmp320 = alloca %"class.std::__cxx11::basic_string", align 8
  %ref.tmp339 = alloca %"class.std::__cxx11::basic_string", align 8
  %ref.tmp340 = alloca %"class.std::__cxx11::basic_string", align 8
  %ref.tmp359 = alloca %"class.std::__cxx11::basic_string", align 8
  %ref.tmp360 = alloca %"class.std::__cxx11::basic_string", align 8
  %ref.tmp380 = alloca %"class.std::__cxx11::basic_string", align 8
  %ref.tmp381 = alloca %"class.std::__cxx11::basic_string", align 8
  %ref.tmp404 = alloca %"class.std::__cxx11::basic_string", align 8
  %ref.tmp405 = alloca %"class.std::__cxx11::basic_string", align 8
  %ref.tmp426 = alloca %"class.std::__cxx11::basic_string", align 8
  %ref.tmp427 = alloca %"class.std::__cxx11::basic_string", align 8
  %ref.tmp448 = alloca %"class.std::__cxx11::basic_string", align 8
  %ref.tmp449 = alloca %"class.std::__cxx11::basic_string", align 8
  %ref.tmp453 = alloca %"class.std::__cxx11::basic_string", align 8
  %ref.tmp473 = alloca %"class.std::__cxx11::basic_string", align 8
  %ref.tmp474 = alloca %"class.std::__cxx11::basic_string", align 8
  %ref.tmp498 = alloca %"class.std::__cxx11::basic_string", align 8
  %ref.tmp499 = alloca %"class.std::__cxx11::basic_string", align 8
  %ref.tmp529 = alloca %"class.std::__cxx11::basic_string", align 8
  %ref.tmp553 = alloca %"class.std::__cxx11::basic_string", align 8
  %ref.tmp554 = alloca %"class.std::__cxx11::basic_string", align 8
  %ref.tmp573 = alloca %"class.std::__cxx11::basic_string", align 8
  %ref.tmp574 = alloca %"class.std::__cxx11::basic_string", align 8
  %report_if_present = alloca %class.anon.30, align 8
  %ref.tmp601 = alloca %"class.std::__cxx11::basic_string", align 8
  %ref.tmp602 = alloca %"class.std::__cxx11::basic_string", align 8
  call void @llvm.lifetime.start.p0(i64 32, ptr nonnull %indent) #16
  %0 = getelementptr inbounds %"class.std::__cxx11::basic_string", ptr %indent, i64 0, i32 2
  store ptr %0, ptr %indent, align 8, !tbaa !10
  call void @_ZNSt7__cxx1112basic_stringIcSt11char_traitsIcESaIcEE12_M_constructEmc(ptr noundef nonnull align 8 dereferenceable(32) %indent, i64 noundef 6, i8 noundef signext 32)
  %output_stream_.i = getelementptr inbounds %"class.benchmark::BenchmarkReporter", ptr %this, i64 0, i32 1
  %1 = load ptr, ptr %output_stream_.i, align 8, !tbaa !5
  %2 = load ptr, ptr %indent, align 8, !tbaa !12
  %_M_string_length.i.i = getelementptr inbounds %"class.std::__cxx11::basic_string", ptr %indent, i64 0, i32 1
  %3 = load i64, ptr %_M_string_length.i.i, align 8, !tbaa !15
  %call2.i780 = invoke noundef nonnull align 8 dereferenceable(8) ptr @_ZSt16__ostream_insertIcSt11char_traitsIcEERSt13basic_ostreamIT_T0_ES6_PKS3_l(ptr noundef nonnull align 8 dereferenceable(8) %1, ptr noundef %2, i64 noundef %3)
          to label %invoke.cont4 unwind label %lpad2

invoke.cont4:                                     ; preds = %entry
  call void @llvm.lifetime.start.p0(i64 32, ptr nonnull %ref.tmp6) #16
  call void @llvm.lifetime.start.p0(i64 32, ptr nonnull %ref.tmp7) #16
  %4 = getelementptr inbounds %"class.std::__cxx11::basic_string", ptr %ref.tmp7, i64 0, i32 2
  store ptr %4, ptr %ref.tmp7, align 8, !tbaa !10
  store i32 1701667182, ptr %4, align 8
  %_M_string_length.i.i.i.i = getelementptr inbounds %"class.std::__cxx11::basic_string", ptr %ref.tmp7, i64 0, i32 1
  store i64 4, ptr %_M_string_length.i.i.i.i, align 8, !tbaa !15
  %arrayidx.i.i.i = getelementptr inbounds i8, ptr %ref.tmp7, i64 20
  store i8 0, ptr %arrayidx.i.i.i, align 4, !tbaa !16
  call void @llvm.lifetime.start.p0(i64 32, ptr nonnull %ref.tmp11) #16
  invoke void @_ZNK9benchmark17BenchmarkReporter3Run14benchmark_nameB5cxx11Ev(ptr nonnull sret(%"class.std::__cxx11::basic_string") align 8 %ref.tmp11, ptr noundef nonnull align 8 dereferenceable(528) %run)
          to label %invoke.cont13 unwind label %lpad12

invoke.cont13:                                    ; preds = %invoke.cont4
  invoke fastcc void @_ZN9benchmark12_GLOBAL__N_18FormatKVERKNSt7__cxx1112basic_stringIcSt11char_traitsIcESaIcEEES8_(ptr noalias nonnull align 8 %ref.tmp6, ptr noundef nonnull align 8 dereferenceable(32) %ref.tmp7, ptr noundef nonnull align 8 dereferenceable(32) %ref.tmp11)
          to label %invoke.cont15 unwind label %lpad14

invoke.cont15:                                    ; preds = %invoke.cont13
  %5 = load ptr, ptr %ref.tmp6, align 8, !tbaa !12
  %_M_string_length.i.i782 = getelementptr inbounds %"class.std::__cxx11::basic_string", ptr %ref.tmp6, i64 0, i32 1
  %6 = load i64, ptr %_M_string_length.i.i782, align 8, !tbaa !15
  %call2.i783 = invoke noundef nonnull align 8 dereferenceable(8) ptr @_ZSt16__ostream_insertIcSt11char_traitsIcEERSt13basic_ostreamIT_T0_ES6_PKS3_l(ptr noundef nonnull align 8 dereferenceable(8) %call2.i780, ptr noundef %5, i64 noundef %6)
          to label %invoke.cont17 unwind label %lpad16

invoke.cont17:                                    ; preds = %invoke.cont15
  %call1.i786 = invoke noundef nonnull align 8 dereferenceable(8) ptr @_ZSt16__ostream_insertIcSt11char_traitsIcEERSt13basic_ostreamIT_T0_ES6_PKS3_l(ptr noundef nonnull align 8 dereferenceable(8) %call2.i783, ptr noundef nonnull @.str.4, i64 noundef 2)
          to label %invoke.cont19 unwind label %lpad16

invoke.cont19:                                    ; preds = %invoke.cont17
  %7 = load ptr, ptr %ref.tmp6, align 8, !tbaa !12
  %8 = getelementptr inbounds %"class.std::__cxx11::basic_string", ptr %ref.tmp6, i64 0, i32 2
  %cmp.i.i.i = icmp eq ptr %7, %8
  br i1 %cmp.i.i.i, label %_ZNSt7__cxx1112basic_stringIcSt11char_traitsIcESaIcEED2Ev.exit, label %if.then.i.i787

if.then.i.i787:                                   ; preds = %invoke.cont19
  call void @_ZdlPv(ptr noundef %7) #17
  br label %_ZNSt7__cxx1112basic_stringIcSt11char_traitsIcESaIcEED2Ev.exit

_ZNSt7__cxx1112basic_stringIcSt11char_traitsIcESaIcEED2Ev.exit: ; preds = %invoke.cont19, %if.then.i.i787
  %9 = load ptr, ptr %ref.tmp11, align 8, !tbaa !12
  %10 = getelementptr inbounds %"class.std::__cxx11::basic_string", ptr %ref.tmp11, i64 0, i32 2
  %cmp.i.i.i788 = icmp eq ptr %9, %10
  br i1 %cmp.i.i.i788, label %_ZNSt7__cxx1112basic_stringIcSt11char_traitsIcESaIcEED2Ev.exit790, label %if.then.i.i789

if.then.i.i789:                                   ; preds = %_ZNSt7__cxx1112basic_stringIcSt11char_traitsIcESaIcEED2Ev.exit
  call void @_ZdlPv(ptr noundef %9) #17
  br label %_ZNSt7__cxx1112basic_stringIcSt11char_traitsIcESaIcEED2Ev.exit790

_ZNSt7__cxx1112basic_stringIcSt11char_traitsIcESaIcEED2Ev.exit790: ; preds = %_ZNSt7__cxx1112basic_stringIcSt11char_traitsIcESaIcEED2Ev.exit, %if.then.i.i789
  call void @llvm.lifetime.end.p0(i64 32, ptr nonnull %ref.tmp11) #16
  %11 = load ptr, ptr %ref.tmp7, align 8, !tbaa !12
  %cmp.i.i.i791 = icmp eq ptr %11, %4
  br i1 %cmp.i.i.i791, label %_ZNSt7__cxx1112basic_stringIcSt11char_traitsIcESaIcEED2Ev.exit793, label %if.then.i.i792

if.then.i.i792:                                   ; preds = %_ZNSt7__cxx1112basic_stringIcSt11char_traitsIcESaIcEED2Ev.exit790
  call void @_ZdlPv(ptr noundef %11) #17
  br label %_ZNSt7__cxx1112basic_stringIcSt11char_traitsIcESaIcEED2Ev.exit793

_ZNSt7__cxx1112basic_stringIcSt11char_traitsIcESaIcEED2Ev.exit793: ; preds = %_ZNSt7__cxx1112basic_stringIcSt11char_traitsIcESaIcEED2Ev.exit790, %if.then.i.i792
  call void @llvm.lifetime.end.p0(i64 32, ptr nonnull %ref.tmp7) #16
  call void @llvm.lifetime.end.p0(i64 32, ptr nonnull %ref.tmp6) #16
  %12 = load ptr, ptr %indent, align 8, !tbaa !12
  %13 = load i64, ptr %_M_string_length.i.i, align 8, !tbaa !15
  %call2.i795 = invoke noundef nonnull align 8 dereferenceable(8) ptr @_ZSt16__ostream_insertIcSt11char_traitsIcEERSt13basic_ostreamIT_T0_ES6_PKS3_l(ptr noundef nonnull align 8 dereferenceable(8) %1, ptr noundef %12, i64 noundef %13)
          to label %invoke.cont27 unwind label %lpad2

invoke.cont27:                                    ; preds = %_ZNSt7__cxx1112basic_stringIcSt11char_traitsIcESaIcEED2Ev.exit793
  call void @llvm.lifetime.start.p0(i64 32, ptr nonnull %ref.tmp29) #16
  call void @llvm.lifetime.start.p0(i64 32, ptr nonnull %ref.tmp30) #16
  %14 = getelementptr inbounds %"class.std::__cxx11::basic_string", ptr %ref.tmp30, i64 0, i32 2
  store ptr %14, ptr %ref.tmp30, align 8, !tbaa !10
  call void @llvm.memcpy.p0.p0.i64(ptr noundef nonnull align 8 dereferenceable(12) %14, ptr noundef nonnull align 1 dereferenceable(12) @.str.25, i64 12, i1 false)
  %_M_string_length.i.i.i.i804 = getelementptr inbounds %"class.std::__cxx11::basic_string", ptr %ref.tmp30, i64 0, i32 1
  store i64 12, ptr %_M_string_length.i.i.i.i804, align 8, !tbaa !15
  %arrayidx.i.i.i805 = getelementptr inbounds %"class.std::__cxx11::basic_string", ptr %ref.tmp30, i64 0, i32 2, i32 1, i64 4
  store i8 0, ptr %arrayidx.i.i.i805, align 4, !tbaa !16
  %family_index = getelementptr inbounds %"struct.benchmark::BenchmarkReporter::Run", ptr %run, i64 0, i32 1
  %15 = load i64, ptr %family_index, align 8, !tbaa !80
  invoke fastcc void @_ZN9benchmark12_GLOBAL__N_18FormatKVERKNSt7__cxx1112basic_stringIcSt11char_traitsIcESaIcEEEl(ptr noalias nonnull align 8 %ref.tmp29, ptr noundef nonnull align 8 dereferenceable(32) %ref.tmp30, i64 noundef %15)
          to label %invoke.cont35 unwind label %lpad34

invoke.cont35:                                    ; preds = %invoke.cont27
  %16 = load ptr, ptr %ref.tmp29, align 8, !tbaa !12
  %_M_string_length.i.i809 = getelementptr inbounds %"class.std::__cxx11::basic_string", ptr %ref.tmp29, i64 0, i32 1
  %17 = load i64, ptr %_M_string_length.i.i809, align 8, !tbaa !15
  %call2.i810 = invoke noundef nonnull align 8 dereferenceable(8) ptr @_ZSt16__ostream_insertIcSt11char_traitsIcEERSt13basic_ostreamIT_T0_ES6_PKS3_l(ptr noundef nonnull align 8 dereferenceable(8) %call2.i795, ptr noundef %16, i64 noundef %17)
          to label %invoke.cont37 unwind label %lpad36

invoke.cont37:                                    ; preds = %invoke.cont35
  %call1.i813 = invoke noundef nonnull align 8 dereferenceable(8) ptr @_ZSt16__ostream_insertIcSt11char_traitsIcEERSt13basic_ostreamIT_T0_ES6_PKS3_l(ptr noundef nonnull align 8 dereferenceable(8) %call2.i810, ptr noundef nonnull @.str.4, i64 noundef 2)
          to label %invoke.cont39 unwind label %lpad36

invoke.cont39:                                    ; preds = %invoke.cont37
  %18 = load ptr, ptr %ref.tmp29, align 8, !tbaa !12
  %19 = getelementptr inbounds %"class.std::__cxx11::basic_string", ptr %ref.tmp29, i64 0, i32 2
  %cmp.i.i.i815 = icmp eq ptr %18, %19
  br i1 %cmp.i.i.i815, label %_ZNSt7__cxx1112basic_stringIcSt11char_traitsIcESaIcEED2Ev.exit817, label %if.then.i.i816

if.then.i.i816:                                   ; preds = %invoke.cont39
  call void @_ZdlPv(ptr noundef %18) #17
  br label %_ZNSt7__cxx1112basic_stringIcSt11char_traitsIcESaIcEED2Ev.exit817

_ZNSt7__cxx1112basic_stringIcSt11char_traitsIcESaIcEED2Ev.exit817: ; preds = %invoke.cont39, %if.then.i.i816
  %20 = load ptr, ptr %ref.tmp30, align 8, !tbaa !12
  %cmp.i.i.i818 = icmp eq ptr %20, %14
  br i1 %cmp.i.i.i818, label %_ZNSt7__cxx1112basic_stringIcSt11char_traitsIcESaIcEED2Ev.exit820, label %if.then.i.i819

if.then.i.i819:                                   ; preds = %_ZNSt7__cxx1112basic_stringIcSt11char_traitsIcESaIcEED2Ev.exit817
  call void @_ZdlPv(ptr noundef %20) #17
  br label %_ZNSt7__cxx1112basic_stringIcSt11char_traitsIcESaIcEED2Ev.exit820

_ZNSt7__cxx1112basic_stringIcSt11char_traitsIcESaIcEED2Ev.exit820: ; preds = %_ZNSt7__cxx1112basic_stringIcSt11char_traitsIcESaIcEED2Ev.exit817, %if.then.i.i819
  call void @llvm.lifetime.end.p0(i64 32, ptr nonnull %ref.tmp30) #16
  call void @llvm.lifetime.end.p0(i64 32, ptr nonnull %ref.tmp29) #16
  %21 = load ptr, ptr %indent, align 8, !tbaa !12
  %22 = load i64, ptr %_M_string_length.i.i, align 8, !tbaa !15
  %call2.i822 = invoke noundef nonnull align 8 dereferenceable(8) ptr @_ZSt16__ostream_insertIcSt11char_traitsIcEERSt13basic_ostreamIT_T0_ES6_PKS3_l(ptr noundef nonnull align 8 dereferenceable(8) %1, ptr noundef %21, i64 noundef %22)
          to label %invoke.cont47 unwind label %lpad2

invoke.cont47:                                    ; preds = %_ZNSt7__cxx1112basic_stringIcSt11char_traitsIcESaIcEED2Ev.exit820
  call void @llvm.lifetime.start.p0(i64 32, ptr nonnull %ref.tmp49) #16
  call void @llvm.lifetime.start.p0(i64 32, ptr nonnull %ref.tmp50) #16
  %23 = getelementptr inbounds %"class.std::__cxx11::basic_string", ptr %ref.tmp50, i64 0, i32 2
  store ptr %23, ptr %ref.tmp50, align 8, !tbaa !10
  call void @llvm.lifetime.start.p0(i64 8, ptr nonnull %__dnew.i.i824) #16
  store i64 25, ptr %__dnew.i.i824, align 8, !tbaa !36
  %call2.i10.i834 = invoke noundef ptr @_ZNSt7__cxx1112basic_stringIcSt11char_traitsIcESaIcEE9_M_createERmm(ptr noundef nonnull align 8 dereferenceable(32) %ref.tmp50, ptr noundef nonnull align 8 dereferenceable(8) %__dnew.i.i824, i64 noundef 0)
          to label %call2.i10.i.noexc833 unwind label %lpad52

call2.i10.i.noexc833:                             ; preds = %invoke.cont47
  store ptr %call2.i10.i834, ptr %ref.tmp50, align 8, !tbaa !12
  %24 = load i64, ptr %__dnew.i.i824, align 8, !tbaa !36
  store i64 %24, ptr %23, align 8, !tbaa !16
  call void @llvm.memcpy.p0.p0.i64(ptr noundef nonnull align 1 dereferenceable(25) %call2.i10.i834, ptr noundef nonnull align 1 dereferenceable(25) @.str.26, i64 25, i1 false)
  %_M_string_length.i.i.i.i831 = getelementptr inbounds %"class.std::__cxx11::basic_string", ptr %ref.tmp50, i64 0, i32 1
  store i64 %24, ptr %_M_string_length.i.i.i.i831, align 8, !tbaa !15
  %25 = load ptr, ptr %ref.tmp50, align 8, !tbaa !12
  %arrayidx.i.i.i832 = getelementptr inbounds i8, ptr %25, i64 %24
  store i8 0, ptr %arrayidx.i.i.i832, align 1, !tbaa !16
  call void @llvm.lifetime.end.p0(i64 8, ptr nonnull %__dnew.i.i824) #16
  %per_family_instance_index = getelementptr inbounds %"struct.benchmark::BenchmarkReporter::Run", ptr %run, i64 0, i32 2
  %26 = load i64, ptr %per_family_instance_index, align 8, !tbaa !92
  invoke fastcc void @_ZN9benchmark12_GLOBAL__N_18FormatKVERKNSt7__cxx1112basic_stringIcSt11char_traitsIcESaIcEEEl(ptr noalias nonnull align 8 %ref.tmp49, ptr noundef nonnull align 8 dereferenceable(32) %ref.tmp50, i64 noundef %26)
          to label %invoke.cont55 unwind label %lpad54

invoke.cont55:                                    ; preds = %call2.i10.i.noexc833
  %27 = load ptr, ptr %ref.tmp49, align 8, !tbaa !12
  %_M_string_length.i.i836 = getelementptr inbounds %"class.std::__cxx11::basic_string", ptr %ref.tmp49, i64 0, i32 1
  %28 = load i64, ptr %_M_string_length.i.i836, align 8, !tbaa !15
  %call2.i837 = invoke noundef nonnull align 8 dereferenceable(8) ptr @_ZSt16__ostream_insertIcSt11char_traitsIcEERSt13basic_ostreamIT_T0_ES6_PKS3_l(ptr noundef nonnull align 8 dereferenceable(8) %call2.i822, ptr noundef %27, i64 noundef %28)
          to label %invoke.cont57 unwind label %lpad56

invoke.cont57:                                    ; preds = %invoke.cont55
  %call1.i840 = invoke noundef nonnull align 8 dereferenceable(8) ptr @_ZSt16__ostream_insertIcSt11char_traitsIcEERSt13basic_ostreamIT_T0_ES6_PKS3_l(ptr noundef nonnull align 8 dereferenceable(8) %call2.i837, ptr noundef nonnull @.str.4, i64 noundef 2)
          to label %invoke.cont59 unwind label %lpad56

invoke.cont59:                                    ; preds = %invoke.cont57
  %29 = load ptr, ptr %ref.tmp49, align 8, !tbaa !12
  %30 = getelementptr inbounds %"class.std::__cxx11::basic_string", ptr %ref.tmp49, i64 0, i32 2
  %cmp.i.i.i842 = icmp eq ptr %29, %30
  br i1 %cmp.i.i.i842, label %_ZNSt7__cxx1112basic_stringIcSt11char_traitsIcESaIcEED2Ev.exit844, label %if.then.i.i843

if.then.i.i843:                                   ; preds = %invoke.cont59
  call void @_ZdlPv(ptr noundef %29) #17
  br label %_ZNSt7__cxx1112basic_stringIcSt11char_traitsIcESaIcEED2Ev.exit844

_ZNSt7__cxx1112basic_stringIcSt11char_traitsIcESaIcEED2Ev.exit844: ; preds = %invoke.cont59, %if.then.i.i843
  %31 = load ptr, ptr %ref.tmp50, align 8, !tbaa !12
  %cmp.i.i.i845 = icmp eq ptr %31, %23
  br i1 %cmp.i.i.i845, label %_ZNSt7__cxx1112basic_stringIcSt11char_traitsIcESaIcEED2Ev.exit847, label %if.then.i.i846

if.then.i.i846:                                   ; preds = %_ZNSt7__cxx1112basic_stringIcSt11char_traitsIcESaIcEED2Ev.exit844
  call void @_ZdlPv(ptr noundef %31) #17
  br label %_ZNSt7__cxx1112basic_stringIcSt11char_traitsIcESaIcEED2Ev.exit847

_ZNSt7__cxx1112basic_stringIcSt11char_traitsIcESaIcEED2Ev.exit847: ; preds = %_ZNSt7__cxx1112basic_stringIcSt11char_traitsIcESaIcEED2Ev.exit844, %if.then.i.i846
  call void @llvm.lifetime.end.p0(i64 32, ptr nonnull %ref.tmp50) #16
  call void @llvm.lifetime.end.p0(i64 32, ptr nonnull %ref.tmp49) #16
  %32 = load ptr, ptr %indent, align 8, !tbaa !12
  %33 = load i64, ptr %_M_string_length.i.i, align 8, !tbaa !15
  %call2.i849 = invoke noundef nonnull align 8 dereferenceable(8) ptr @_ZSt16__ostream_insertIcSt11char_traitsIcEERSt13basic_ostreamIT_T0_ES6_PKS3_l(ptr noundef nonnull align 8 dereferenceable(8) %1, ptr noundef %32, i64 noundef %33)
          to label %invoke.cont67 unwind label %lpad2

invoke.cont67:                                    ; preds = %_ZNSt7__cxx1112basic_stringIcSt11char_traitsIcESaIcEED2Ev.exit847
  call void @llvm.lifetime.start.p0(i64 32, ptr nonnull %ref.tmp69) #16
  call void @llvm.lifetime.start.p0(i64 32, ptr nonnull %ref.tmp70) #16
  %34 = getelementptr inbounds %"class.std::__cxx11::basic_string", ptr %ref.tmp70, i64 0, i32 2
  store ptr %34, ptr %ref.tmp70, align 8, !tbaa !10
  store i64 7308604896967554418, ptr %34, align 8
  %_M_string_length.i.i.i.i858 = getelementptr inbounds %"class.std::__cxx11::basic_string", ptr %ref.tmp70, i64 0, i32 1
  store i64 8, ptr %_M_string_length.i.i.i.i858, align 8, !tbaa !15
  %arrayidx.i.i.i859 = getelementptr inbounds %"class.std::__cxx11::basic_string", ptr %ref.tmp70, i64 0, i32 2, i32 1
  store i8 0, ptr %arrayidx.i.i.i859, align 8, !tbaa !16
  call void @llvm.lifetime.start.p0(i64 32, ptr nonnull %ref.tmp74) #16
  invoke void @_ZNK9benchmark13BenchmarkName3strB5cxx11Ev(ptr nonnull sret(%"class.std::__cxx11::basic_string") align 8 %ref.tmp74, ptr noundef nonnull align 8 dereferenceable(224) %run)
          to label %invoke.cont76 unwind label %lpad75

invoke.cont76:                                    ; preds = %invoke.cont67
  invoke fastcc void @_ZN9benchmark12_GLOBAL__N_18FormatKVERKNSt7__cxx1112basic_stringIcSt11char_traitsIcESaIcEEES8_(ptr noalias nonnull align 8 %ref.tmp69, ptr noundef nonnull align 8 dereferenceable(32) %ref.tmp70, ptr noundef nonnull align 8 dereferenceable(32) %ref.tmp74)
          to label %invoke.cont78 unwind label %lpad77

invoke.cont78:                                    ; preds = %invoke.cont76
  %35 = load ptr, ptr %ref.tmp69, align 8, !tbaa !12
  %_M_string_length.i.i863 = getelementptr inbounds %"class.std::__cxx11::basic_string", ptr %ref.tmp69, i64 0, i32 1
  %36 = load i64, ptr %_M_string_length.i.i863, align 8, !tbaa !15
  %call2.i864 = invoke noundef nonnull align 8 dereferenceable(8) ptr @_ZSt16__ostream_insertIcSt11char_traitsIcEERSt13basic_ostreamIT_T0_ES6_PKS3_l(ptr noundef nonnull align 8 dereferenceable(8) %call2.i849, ptr noundef %35, i64 noundef %36)
          to label %invoke.cont80 unwind label %lpad79

invoke.cont80:                                    ; preds = %invoke.cont78
  %call1.i867 = invoke noundef nonnull align 8 dereferenceable(8) ptr @_ZSt16__ostream_insertIcSt11char_traitsIcEERSt13basic_ostreamIT_T0_ES6_PKS3_l(ptr noundef nonnull align 8 dereferenceable(8) %call2.i864, ptr noundef nonnull @.str.4, i64 noundef 2)
          to label %invoke.cont82 unwind label %lpad79

invoke.cont82:                                    ; preds = %invoke.cont80
  %37 = load ptr, ptr %ref.tmp69, align 8, !tbaa !12
  %38 = getelementptr inbounds %"class.std::__cxx11::basic_string", ptr %ref.tmp69, i64 0, i32 2
  %cmp.i.i.i869 = icmp eq ptr %37, %38
  br i1 %cmp.i.i.i869, label %_ZNSt7__cxx1112basic_stringIcSt11char_traitsIcESaIcEED2Ev.exit871, label %if.then.i.i870

if.then.i.i870:                                   ; preds = %invoke.cont82
  call void @_ZdlPv(ptr noundef %37) #17
  br label %_ZNSt7__cxx1112basic_stringIcSt11char_traitsIcESaIcEED2Ev.exit871

_ZNSt7__cxx1112basic_stringIcSt11char_traitsIcESaIcEED2Ev.exit871: ; preds = %invoke.cont82, %if.then.i.i870
  %39 = load ptr, ptr %ref.tmp74, align 8, !tbaa !12
  %40 = getelementptr inbounds %"class.std::__cxx11::basic_string", ptr %ref.tmp74, i64 0, i32 2
  %cmp.i.i.i872 = icmp eq ptr %39, %40
  br i1 %cmp.i.i.i872, label %_ZNSt7__cxx1112basic_stringIcSt11char_traitsIcESaIcEED2Ev.exit874, label %if.then.i.i873

if.then.i.i873:                                   ; preds = %_ZNSt7__cxx1112basic_stringIcSt11char_traitsIcESaIcEED2Ev.exit871
  call void @_ZdlPv(ptr noundef %39) #17
  br label %_ZNSt7__cxx1112basic_stringIcSt11char_traitsIcESaIcEED2Ev.exit874

_ZNSt7__cxx1112basic_stringIcSt11char_traitsIcESaIcEED2Ev.exit874: ; preds = %_ZNSt7__cxx1112basic_stringIcSt11char_traitsIcESaIcEED2Ev.exit871, %if.then.i.i873
  call void @llvm.lifetime.end.p0(i64 32, ptr nonnull %ref.tmp74) #16
  %41 = load ptr, ptr %ref.tmp70, align 8, !tbaa !12
  %cmp.i.i.i875 = icmp eq ptr %41, %34
  br i1 %cmp.i.i.i875, label %_ZNSt7__cxx1112basic_stringIcSt11char_traitsIcESaIcEED2Ev.exit877, label %if.then.i.i876

if.then.i.i876:                                   ; preds = %_ZNSt7__cxx1112basic_stringIcSt11char_traitsIcESaIcEED2Ev.exit874
  call void @_ZdlPv(ptr noundef %41) #17
  br label %_ZNSt7__cxx1112basic_stringIcSt11char_traitsIcESaIcEED2Ev.exit877

_ZNSt7__cxx1112basic_stringIcSt11char_traitsIcESaIcEED2Ev.exit877: ; preds = %_ZNSt7__cxx1112basic_stringIcSt11char_traitsIcESaIcEED2Ev.exit874, %if.then.i.i876
  call void @llvm.lifetime.end.p0(i64 32, ptr nonnull %ref.tmp70) #16
  call void @llvm.lifetime.end.p0(i64 32, ptr nonnull %ref.tmp69) #16
  %42 = load ptr, ptr %indent, align 8, !tbaa !12
  %43 = load i64, ptr %_M_string_length.i.i, align 8, !tbaa !15
  %call2.i879 = invoke noundef nonnull align 8 dereferenceable(8) ptr @_ZSt16__ostream_insertIcSt11char_traitsIcEERSt13basic_ostreamIT_T0_ES6_PKS3_l(ptr noundef nonnull align 8 dereferenceable(8) %1, ptr noundef %42, i64 noundef %43)
          to label %invoke.cont92 unwind label %lpad2

invoke.cont92:                                    ; preds = %_ZNSt7__cxx1112basic_stringIcSt11char_traitsIcESaIcEED2Ev.exit877
  call void @llvm.lifetime.start.p0(i64 32, ptr nonnull %ref.tmp94) #16
  call void @llvm.lifetime.start.p0(i64 32, ptr nonnull %ref.tmp95) #16
  %44 = getelementptr inbounds %"class.std::__cxx11::basic_string", ptr %ref.tmp95, i64 0, i32 2
  store ptr %44, ptr %ref.tmp95, align 8, !tbaa !10
  store i64 7309475735946556786, ptr %44, align 8
  %_M_string_length.i.i.i.i888 = getelementptr inbounds %"class.std::__cxx11::basic_string", ptr %ref.tmp95, i64 0, i32 1
  store i64 8, ptr %_M_string_length.i.i.i.i888, align 8, !tbaa !15
  %arrayidx.i.i.i889 = getelementptr inbounds %"class.std::__cxx11::basic_string", ptr %ref.tmp95, i64 0, i32 2, i32 1
  store i8 0, ptr %arrayidx.i.i.i889, align 8, !tbaa !16
  %45 = getelementptr i8, ptr %run, i64 240
  %ref.tmp99.val.val = load i32, ptr %45, align 8, !tbaa !93
  %switch.i = icmp eq i32 %ref.tmp99.val.val, 0
  %.str.64..str.65.i = select i1 %switch.i, ptr @.str.64, ptr @.str.65
  invoke fastcc void @_ZN9benchmark12_GLOBAL__N_18FormatKVERKNSt7__cxx1112basic_stringIcSt11char_traitsIcESaIcEEEPKc(ptr noalias nonnull align 8 %ref.tmp94, ptr noundef nonnull align 8 dereferenceable(32) %ref.tmp95, ptr noundef nonnull %.str.64..str.65.i)
          to label %invoke.cont103 unwind label %lpad100

invoke.cont103:                                   ; preds = %invoke.cont92
  %46 = load ptr, ptr %ref.tmp94, align 8, !tbaa !12
  %_M_string_length.i.i893 = getelementptr inbounds %"class.std::__cxx11::basic_string", ptr %ref.tmp94, i64 0, i32 1
  %47 = load i64, ptr %_M_string_length.i.i893, align 8, !tbaa !15
  %call2.i894 = invoke noundef nonnull align 8 dereferenceable(8) ptr @_ZSt16__ostream_insertIcSt11char_traitsIcEERSt13basic_ostreamIT_T0_ES6_PKS3_l(ptr noundef nonnull align 8 dereferenceable(8) %call2.i879, ptr noundef %46, i64 noundef %47)
          to label %invoke.cont105 unwind label %lpad104

invoke.cont105:                                   ; preds = %invoke.cont103
  %call1.i897 = invoke noundef nonnull align 8 dereferenceable(8) ptr @_ZSt16__ostream_insertIcSt11char_traitsIcEERSt13basic_ostreamIT_T0_ES6_PKS3_l(ptr noundef nonnull align 8 dereferenceable(8) %call2.i894, ptr noundef nonnull @.str.4, i64 noundef 2)
          to label %invoke.cont107 unwind label %lpad104

invoke.cont107:                                   ; preds = %invoke.cont105
  %48 = load ptr, ptr %ref.tmp94, align 8, !tbaa !12
  %49 = getelementptr inbounds %"class.std::__cxx11::basic_string", ptr %ref.tmp94, i64 0, i32 2
  %cmp.i.i.i899 = icmp eq ptr %48, %49
  br i1 %cmp.i.i.i899, label %_ZNSt7__cxx1112basic_stringIcSt11char_traitsIcESaIcEED2Ev.exit901, label %if.then.i.i900

if.then.i.i900:                                   ; preds = %invoke.cont107
  call void @_ZdlPv(ptr noundef %48) #17
  br label %_ZNSt7__cxx1112basic_stringIcSt11char_traitsIcESaIcEED2Ev.exit901

_ZNSt7__cxx1112basic_stringIcSt11char_traitsIcESaIcEED2Ev.exit901: ; preds = %invoke.cont107, %if.then.i.i900
  %50 = load ptr, ptr %ref.tmp95, align 8, !tbaa !12
  %cmp.i.i.i902 = icmp eq ptr %50, %44
  br i1 %cmp.i.i.i902, label %_ZNSt7__cxx1112basic_stringIcSt11char_traitsIcESaIcEED2Ev.exit904, label %if.then.i.i903

if.then.i.i903:                                   ; preds = %_ZNSt7__cxx1112basic_stringIcSt11char_traitsIcESaIcEED2Ev.exit901
  call void @_ZdlPv(ptr noundef %50) #17
  br label %_ZNSt7__cxx1112basic_stringIcSt11char_traitsIcESaIcEED2Ev.exit904

_ZNSt7__cxx1112basic_stringIcSt11char_traitsIcESaIcEED2Ev.exit904: ; preds = %_ZNSt7__cxx1112basic_stringIcSt11char_traitsIcESaIcEED2Ev.exit901, %if.then.i.i903
  call void @llvm.lifetime.end.p0(i64 32, ptr nonnull %ref.tmp95) #16
  call void @llvm.lifetime.end.p0(i64 32, ptr nonnull %ref.tmp94) #16
  %51 = load ptr, ptr %indent, align 8, !tbaa !12
  %52 = load i64, ptr %_M_string_length.i.i, align 8, !tbaa !15
  %call2.i906 = invoke noundef nonnull align 8 dereferenceable(8) ptr @_ZSt16__ostream_insertIcSt11char_traitsIcEERSt13basic_ostreamIT_T0_ES6_PKS3_l(ptr noundef nonnull align 8 dereferenceable(8) %1, ptr noundef %51, i64 noundef %52)
          to label %invoke.cont116 unwind label %lpad2

invoke.cont116:                                   ; preds = %_ZNSt7__cxx1112basic_stringIcSt11char_traitsIcESaIcEED2Ev.exit904
  call void @llvm.lifetime.start.p0(i64 32, ptr nonnull %ref.tmp118) #16
  call void @llvm.lifetime.start.p0(i64 32, ptr nonnull %ref.tmp119) #16
  %53 = getelementptr inbounds %"class.std::__cxx11::basic_string", ptr %ref.tmp119, i64 0, i32 2
  store ptr %53, ptr %ref.tmp119, align 8, !tbaa !10
  call void @llvm.memcpy.p0.p0.i64(ptr noundef nonnull align 8 dereferenceable(11) %53, ptr noundef nonnull align 1 dereferenceable(11) @.str.29, i64 11, i1 false)
  %_M_string_length.i.i.i.i915 = getelementptr inbounds %"class.std::__cxx11::basic_string", ptr %ref.tmp119, i64 0, i32 1
  store i64 11, ptr %_M_string_length.i.i.i.i915, align 8, !tbaa !15
  %arrayidx.i.i.i916 = getelementptr inbounds %"class.std::__cxx11::basic_string", ptr %ref.tmp119, i64 0, i32 2, i32 1, i64 3
  store i8 0, ptr %arrayidx.i.i.i916, align 1, !tbaa !16
  %repetitions = getelementptr inbounds %"struct.benchmark::BenchmarkReporter::Run", ptr %run, i64 0, i32 12
  %54 = load i64, ptr %repetitions, align 8, !tbaa !94
  invoke fastcc void @_ZN9benchmark12_GLOBAL__N_18FormatKVERKNSt7__cxx1112basic_stringIcSt11char_traitsIcESaIcEEEl(ptr noalias nonnull align 8 %ref.tmp118, ptr noundef nonnull align 8 dereferenceable(32) %ref.tmp119, i64 noundef %54)
          to label %invoke.cont124 unwind label %lpad123

invoke.cont124:                                   ; preds = %invoke.cont116
  %55 = load ptr, ptr %ref.tmp118, align 8, !tbaa !12
  %_M_string_length.i.i920 = getelementptr inbounds %"class.std::__cxx11::basic_string", ptr %ref.tmp118, i64 0, i32 1
  %56 = load i64, ptr %_M_string_length.i.i920, align 8, !tbaa !15
  %call2.i921 = invoke noundef nonnull align 8 dereferenceable(8) ptr @_ZSt16__ostream_insertIcSt11char_traitsIcEERSt13basic_ostreamIT_T0_ES6_PKS3_l(ptr noundef nonnull align 8 dereferenceable(8) %call2.i906, ptr noundef %55, i64 noundef %56)
          to label %invoke.cont126 unwind label %lpad125

invoke.cont126:                                   ; preds = %invoke.cont124
  %call1.i924 = invoke noundef nonnull align 8 dereferenceable(8) ptr @_ZSt16__ostream_insertIcSt11char_traitsIcEERSt13basic_ostreamIT_T0_ES6_PKS3_l(ptr noundef nonnull align 8 dereferenceable(8) %call2.i921, ptr noundef nonnull @.str.4, i64 noundef 2)
          to label %invoke.cont128 unwind label %lpad125

invoke.cont128:                                   ; preds = %invoke.cont126
  %57 = load ptr, ptr %ref.tmp118, align 8, !tbaa !12
  %58 = getelementptr inbounds %"class.std::__cxx11::basic_string", ptr %ref.tmp118, i64 0, i32 2
  %cmp.i.i.i926 = icmp eq ptr %57, %58
  br i1 %cmp.i.i.i926, label %_ZNSt7__cxx1112basic_stringIcSt11char_traitsIcESaIcEED2Ev.exit928, label %if.then.i.i927

if.then.i.i927:                                   ; preds = %invoke.cont128
  call void @_ZdlPv(ptr noundef %57) #17
  br label %_ZNSt7__cxx1112basic_stringIcSt11char_traitsIcESaIcEED2Ev.exit928

_ZNSt7__cxx1112basic_stringIcSt11char_traitsIcESaIcEED2Ev.exit928: ; preds = %invoke.cont128, %if.then.i.i927
  %59 = load ptr, ptr %ref.tmp119, align 8, !tbaa !12
  %cmp.i.i.i929 = icmp eq ptr %59, %53
  br i1 %cmp.i.i.i929, label %_ZNSt7__cxx1112basic_stringIcSt11char_traitsIcESaIcEED2Ev.exit931, label %if.then.i.i930

if.then.i.i930:                                   ; preds = %_ZNSt7__cxx1112basic_stringIcSt11char_traitsIcESaIcEED2Ev.exit928
  call void @_ZdlPv(ptr noundef %59) #17
  br label %_ZNSt7__cxx1112basic_stringIcSt11char_traitsIcESaIcEED2Ev.exit931

_ZNSt7__cxx1112basic_stringIcSt11char_traitsIcESaIcEED2Ev.exit931: ; preds = %_ZNSt7__cxx1112basic_stringIcSt11char_traitsIcESaIcEED2Ev.exit928, %if.then.i.i930
  call void @llvm.lifetime.end.p0(i64 32, ptr nonnull %ref.tmp119) #16
  call void @llvm.lifetime.end.p0(i64 32, ptr nonnull %ref.tmp118) #16
  %60 = load i32, ptr %45, align 8, !tbaa !93
  %cmp.not = icmp eq i32 %60, 1
  br i1 %cmp.not, label %if.end, label %if.then

if.then:                                          ; preds = %_ZNSt7__cxx1112basic_stringIcSt11char_traitsIcESaIcEED2Ev.exit931
  %61 = load ptr, ptr %indent, align 8, !tbaa !12
  %62 = load i64, ptr %_M_string_length.i.i, align 8, !tbaa !15
  %call2.i933 = invoke noundef nonnull align 8 dereferenceable(8) ptr @_ZSt16__ostream_insertIcSt11char_traitsIcEERSt13basic_ostreamIT_T0_ES6_PKS3_l(ptr noundef nonnull align 8 dereferenceable(8) %1, ptr noundef %61, i64 noundef %62)
          to label %invoke.cont136 unwind label %lpad2

invoke.cont136:                                   ; preds = %if.then
  call void @llvm.lifetime.start.p0(i64 32, ptr nonnull %ref.tmp138) #16
  call void @llvm.lifetime.start.p0(i64 32, ptr nonnull %ref.tmp139) #16
  %63 = getelementptr inbounds %"class.std::__cxx11::basic_string", ptr %ref.tmp139, i64 0, i32 2
  store ptr %63, ptr %ref.tmp139, align 8, !tbaa !10
  call void @llvm.lifetime.start.p0(i64 8, ptr nonnull %__dnew.i.i935) #16
  store i64 16, ptr %__dnew.i.i935, align 8, !tbaa !36
  %call2.i10.i945 = invoke noundef ptr @_ZNSt7__cxx1112basic_stringIcSt11char_traitsIcESaIcEE9_M_createERmm(ptr noundef nonnull align 8 dereferenceable(32) %ref.tmp139, ptr noundef nonnull align 8 dereferenceable(8) %__dnew.i.i935, i64 noundef 0)
          to label %call2.i10.i.noexc944 unwind label %lpad141

call2.i10.i.noexc944:                             ; preds = %invoke.cont136
  store ptr %call2.i10.i945, ptr %ref.tmp139, align 8, !tbaa !12
  %64 = load i64, ptr %__dnew.i.i935, align 8, !tbaa !36
  store i64 %64, ptr %63, align 8, !tbaa !16
  call void @llvm.memcpy.p0.p0.i64(ptr noundef nonnull align 1 dereferenceable(16) %call2.i10.i945, ptr noundef nonnull align 1 dereferenceable(16) @.str.30, i64 16, i1 false)
  %_M_string_length.i.i.i.i942 = getelementptr inbounds %"class.std::__cxx11::basic_string", ptr %ref.tmp139, i64 0, i32 1
  store i64 %64, ptr %_M_string_length.i.i.i.i942, align 8, !tbaa !15
  %65 = load ptr, ptr %ref.tmp139, align 8, !tbaa !12
  %arrayidx.i.i.i943 = getelementptr inbounds i8, ptr %65, i64 %64
  store i8 0, ptr %arrayidx.i.i.i943, align 1, !tbaa !16
  call void @llvm.lifetime.end.p0(i64 8, ptr nonnull %__dnew.i.i935) #16
  %repetition_index = getelementptr inbounds %"struct.benchmark::BenchmarkReporter::Run", ptr %run, i64 0, i32 11
  %66 = load i64, ptr %repetition_index, align 8, !tbaa !95
  invoke fastcc void @_ZN9benchmark12_GLOBAL__N_18FormatKVERKNSt7__cxx1112basic_stringIcSt11char_traitsIcESaIcEEEl(ptr noalias nonnull align 8 %ref.tmp138, ptr noundef nonnull align 8 dereferenceable(32) %ref.tmp139, i64 noundef %66)
          to label %invoke.cont144 unwind label %lpad143

invoke.cont144:                                   ; preds = %call2.i10.i.noexc944
  %67 = load ptr, ptr %ref.tmp138, align 8, !tbaa !12
  %_M_string_length.i.i947 = getelementptr inbounds %"class.std::__cxx11::basic_string", ptr %ref.tmp138, i64 0, i32 1
  %68 = load i64, ptr %_M_string_length.i.i947, align 8, !tbaa !15
  %call2.i948 = invoke noundef nonnull align 8 dereferenceable(8) ptr @_ZSt16__ostream_insertIcSt11char_traitsIcEERSt13basic_ostreamIT_T0_ES6_PKS3_l(ptr noundef nonnull align 8 dereferenceable(8) %call2.i933, ptr noundef %67, i64 noundef %68)
          to label %invoke.cont146 unwind label %lpad145

invoke.cont146:                                   ; preds = %invoke.cont144
  %call1.i951 = invoke noundef nonnull align 8 dereferenceable(8) ptr @_ZSt16__ostream_insertIcSt11char_traitsIcEERSt13basic_ostreamIT_T0_ES6_PKS3_l(ptr noundef nonnull align 8 dereferenceable(8) %call2.i948, ptr noundef nonnull @.str.4, i64 noundef 2)
          to label %invoke.cont148 unwind label %lpad145

invoke.cont148:                                   ; preds = %invoke.cont146
  %69 = load ptr, ptr %ref.tmp138, align 8, !tbaa !12
  %70 = getelementptr inbounds %"class.std::__cxx11::basic_string", ptr %ref.tmp138, i64 0, i32 2
  %cmp.i.i.i953 = icmp eq ptr %69, %70
  br i1 %cmp.i.i.i953, label %_ZNSt7__cxx1112basic_stringIcSt11char_traitsIcESaIcEED2Ev.exit955, label %if.then.i.i954

if.then.i.i954:                                   ; preds = %invoke.cont148
  call void @_ZdlPv(ptr noundef %69) #17
  br label %_ZNSt7__cxx1112basic_stringIcSt11char_traitsIcESaIcEED2Ev.exit955

_ZNSt7__cxx1112basic_stringIcSt11char_traitsIcESaIcEED2Ev.exit955: ; preds = %invoke.cont148, %if.then.i.i954
  %71 = load ptr, ptr %ref.tmp139, align 8, !tbaa !12
  %cmp.i.i.i956 = icmp eq ptr %71, %63
  br i1 %cmp.i.i.i956, label %_ZNSt7__cxx1112basic_stringIcSt11char_traitsIcESaIcEED2Ev.exit958, label %if.then.i.i957

if.then.i.i957:                                   ; preds = %_ZNSt7__cxx1112basic_stringIcSt11char_traitsIcESaIcEED2Ev.exit955
  call void @_ZdlPv(ptr noundef %71) #17
  br label %_ZNSt7__cxx1112basic_stringIcSt11char_traitsIcESaIcEED2Ev.exit958

_ZNSt7__cxx1112basic_stringIcSt11char_traitsIcESaIcEED2Ev.exit958: ; preds = %_ZNSt7__cxx1112basic_stringIcSt11char_traitsIcESaIcEED2Ev.exit955, %if.then.i.i957
  call void @llvm.lifetime.end.p0(i64 32, ptr nonnull %ref.tmp139) #16
  call void @llvm.lifetime.end.p0(i64 32, ptr nonnull %ref.tmp138) #16
  br label %if.end

lpad2:                                            ; preds = %if.end.i, %if.then.i, %invoke.cont597, %if.then596, %if.then495, %_ZNSt7__cxx1112basic_stringIcSt11char_traitsIcESaIcEED2Ev.exit1504, %_ZNSt7__cxx1112basic_stringIcSt11char_traitsIcESaIcEED2Ev.exit1470, %_ZNSt7__cxx1112basic_stringIcSt11char_traitsIcESaIcEED2Ev.exit1440, %if.then401, %invoke.cont376, %if.end375, %_ZNSt7__cxx1112basic_stringIcSt11char_traitsIcESaIcEED2Ev.exit1329, %if.else, %_ZNSt7__cxx1112basic_stringIcSt11char_traitsIcESaIcEED2Ev.exit1248, %if.then294, %if.then270, %_ZNSt7__cxx1112basic_stringIcSt11char_traitsIcESaIcEED2Ev.exit1135, %if.then224, %_ZNSt7__cxx1112basic_stringIcSt11char_traitsIcESaIcEED2Ev.exit1060, %if.then178, %if.end, %if.then, %_ZNSt7__cxx1112basic_stringIcSt11char_traitsIcESaIcEED2Ev.exit904, %_ZNSt7__cxx1112basic_stringIcSt11char_traitsIcESaIcEED2Ev.exit877, %_ZNSt7__cxx1112basic_stringIcSt11char_traitsIcESaIcEED2Ev.exit847, %_ZNSt7__cxx1112basic_stringIcSt11char_traitsIcESaIcEED2Ev.exit820, %_ZNSt7__cxx1112basic_stringIcSt11char_traitsIcESaIcEED2Ev.exit793, %entry
  %72 = landingpad { ptr, i32 }
          cleanup
  br label %ehcleanup621

lpad12:                                           ; preds = %invoke.cont4
  %73 = landingpad { ptr, i32 }
          cleanup
  br label %ehcleanup21

lpad14:                                           ; preds = %invoke.cont13
  %74 = landingpad { ptr, i32 }
          cleanup
  br label %ehcleanup

lpad16:                                           ; preds = %invoke.cont17, %invoke.cont15
  %75 = landingpad { ptr, i32 }
          cleanup
  %76 = load ptr, ptr %ref.tmp6, align 8, !tbaa !12
  %77 = getelementptr inbounds %"class.std::__cxx11::basic_string", ptr %ref.tmp6, i64 0, i32 2
  %cmp.i.i.i959 = icmp eq ptr %76, %77
  br i1 %cmp.i.i.i959, label %ehcleanup, label %if.then.i.i960

if.then.i.i960:                                   ; preds = %lpad16
  call void @_ZdlPv(ptr noundef %76) #17
  br label %ehcleanup

ehcleanup:                                        ; preds = %if.then.i.i960, %lpad16, %lpad14
  %.pn = phi { ptr, i32 } [ %74, %lpad14 ], [ %75, %lpad16 ], [ %75, %if.then.i.i960 ]
  %78 = load ptr, ptr %ref.tmp11, align 8, !tbaa !12
  %79 = getelementptr inbounds %"class.std::__cxx11::basic_string", ptr %ref.tmp11, i64 0, i32 2
  %cmp.i.i.i962 = icmp eq ptr %78, %79
  br i1 %cmp.i.i.i962, label %ehcleanup21, label %if.then.i.i963

if.then.i.i963:                                   ; preds = %ehcleanup
  call void @_ZdlPv(ptr noundef %78) #17
  br label %ehcleanup21

ehcleanup21:                                      ; preds = %if.then.i.i963, %ehcleanup, %lpad12
  %.pn.pn = phi { ptr, i32 } [ %73, %lpad12 ], [ %.pn, %ehcleanup ], [ %.pn, %if.then.i.i963 ]
  call void @llvm.lifetime.end.p0(i64 32, ptr nonnull %ref.tmp11) #16
  %80 = load ptr, ptr %ref.tmp7, align 8, !tbaa !12
  %cmp.i.i.i965 = icmp eq ptr %80, %4
  br i1 %cmp.i.i.i965, label %ehcleanup23, label %if.then.i.i966

if.then.i.i966:                                   ; preds = %ehcleanup21
  call void @_ZdlPv(ptr noundef %80) #17
  br label %ehcleanup23

ehcleanup23:                                      ; preds = %if.then.i.i966, %ehcleanup21
  call void @llvm.lifetime.end.p0(i64 32, ptr nonnull %ref.tmp7) #16
  call void @llvm.lifetime.end.p0(i64 32, ptr nonnull %ref.tmp6) #16
  br label %ehcleanup621

lpad34:                                           ; preds = %invoke.cont27
  %81 = landingpad { ptr, i32 }
          cleanup
  br label %ehcleanup42

lpad36:                                           ; preds = %invoke.cont37, %invoke.cont35
  %82 = landingpad { ptr, i32 }
          cleanup
  %83 = load ptr, ptr %ref.tmp29, align 8, !tbaa !12
  %84 = getelementptr inbounds %"class.std::__cxx11::basic_string", ptr %ref.tmp29, i64 0, i32 2
  %cmp.i.i.i968 = icmp eq ptr %83, %84
  br i1 %cmp.i.i.i968, label %ehcleanup42, label %if.then.i.i969

if.then.i.i969:                                   ; preds = %lpad36
  call void @_ZdlPv(ptr noundef %83) #17
  br label %ehcleanup42

ehcleanup42:                                      ; preds = %if.then.i.i969, %lpad36, %lpad34
  %.pn695 = phi { ptr, i32 } [ %81, %lpad34 ], [ %82, %lpad36 ], [ %82, %if.then.i.i969 ]
  %85 = load ptr, ptr %ref.tmp30, align 8, !tbaa !12
  %cmp.i.i.i971 = icmp eq ptr %85, %14
  br i1 %cmp.i.i.i971, label %ehcleanup43, label %if.then.i.i972

if.then.i.i972:                                   ; preds = %ehcleanup42
  call void @_ZdlPv(ptr noundef %85) #17
  br label %ehcleanup43

ehcleanup43:                                      ; preds = %if.then.i.i972, %ehcleanup42
  call void @llvm.lifetime.end.p0(i64 32, ptr nonnull %ref.tmp30) #16
  call void @llvm.lifetime.end.p0(i64 32, ptr nonnull %ref.tmp29) #16
  br label %ehcleanup621

lpad52:                                           ; preds = %invoke.cont47
  %86 = landingpad { ptr, i32 }
          cleanup
  br label %ehcleanup63

lpad54:                                           ; preds = %call2.i10.i.noexc833
  %87 = landingpad { ptr, i32 }
          cleanup
  br label %ehcleanup62

lpad56:                                           ; preds = %invoke.cont57, %invoke.cont55
  %88 = landingpad { ptr, i32 }
          cleanup
  %89 = load ptr, ptr %ref.tmp49, align 8, !tbaa !12
  %90 = getelementptr inbounds %"class.std::__cxx11::basic_string", ptr %ref.tmp49, i64 0, i32 2
  %cmp.i.i.i974 = icmp eq ptr %89, %90
  br i1 %cmp.i.i.i974, label %ehcleanup62, label %if.then.i.i975

if.then.i.i975:                                   ; preds = %lpad56
  call void @_ZdlPv(ptr noundef %89) #17
  br label %ehcleanup62

ehcleanup62:                                      ; preds = %if.then.i.i975, %lpad56, %lpad54
  %.pn698 = phi { ptr, i32 } [ %87, %lpad54 ], [ %88, %lpad56 ], [ %88, %if.then.i.i975 ]
  %91 = load ptr, ptr %ref.tmp50, align 8, !tbaa !12
  %cmp.i.i.i977 = icmp eq ptr %91, %23
  br i1 %cmp.i.i.i977, label %ehcleanup63, label %if.then.i.i978

if.then.i.i978:                                   ; preds = %ehcleanup62
  call void @_ZdlPv(ptr noundef %91) #17
  br label %ehcleanup63

ehcleanup63:                                      ; preds = %if.then.i.i978, %ehcleanup62, %lpad52
  %.pn698.pn = phi { ptr, i32 } [ %86, %lpad52 ], [ %.pn698, %ehcleanup62 ], [ %.pn698, %if.then.i.i978 ]
  call void @llvm.lifetime.end.p0(i64 32, ptr nonnull %ref.tmp50) #16
  call void @llvm.lifetime.end.p0(i64 32, ptr nonnull %ref.tmp49) #16
  br label %ehcleanup621

lpad75:                                           ; preds = %invoke.cont67
  %92 = landingpad { ptr, i32 }
          cleanup
  br label %ehcleanup86

lpad77:                                           ; preds = %invoke.cont76
  %93 = landingpad { ptr, i32 }
          cleanup
  br label %ehcleanup85

lpad79:                                           ; preds = %invoke.cont80, %invoke.cont78
  %94 = landingpad { ptr, i32 }
          cleanup
  %95 = load ptr, ptr %ref.tmp69, align 8, !tbaa !12
  %96 = getelementptr inbounds %"class.std::__cxx11::basic_string", ptr %ref.tmp69, i64 0, i32 2
  %cmp.i.i.i980 = icmp eq ptr %95, %96
  br i1 %cmp.i.i.i980, label %ehcleanup85, label %if.then.i.i981

if.then.i.i981:                                   ; preds = %lpad79
  call void @_ZdlPv(ptr noundef %95) #17
  br label %ehcleanup85

ehcleanup85:                                      ; preds = %if.then.i.i981, %lpad79, %lpad77
  %.pn701 = phi { ptr, i32 } [ %93, %lpad77 ], [ %94, %lpad79 ], [ %94, %if.then.i.i981 ]
  %97 = load ptr, ptr %ref.tmp74, align 8, !tbaa !12
  %98 = getelementptr inbounds %"class.std::__cxx11::basic_string", ptr %ref.tmp74, i64 0, i32 2
  %cmp.i.i.i983 = icmp eq ptr %97, %98
  br i1 %cmp.i.i.i983, label %ehcleanup86, label %if.then.i.i984

if.then.i.i984:                                   ; preds = %ehcleanup85
  call void @_ZdlPv(ptr noundef %97) #17
  br label %ehcleanup86

ehcleanup86:                                      ; preds = %if.then.i.i984, %ehcleanup85, %lpad75
  %.pn701.pn = phi { ptr, i32 } [ %92, %lpad75 ], [ %.pn701, %ehcleanup85 ], [ %.pn701, %if.then.i.i984 ]
  call void @llvm.lifetime.end.p0(i64 32, ptr nonnull %ref.tmp74) #16
  %99 = load ptr, ptr %ref.tmp70, align 8, !tbaa !12
  %cmp.i.i.i986 = icmp eq ptr %99, %34
  br i1 %cmp.i.i.i986, label %ehcleanup88, label %if.then.i.i987

if.then.i.i987:                                   ; preds = %ehcleanup86
  call void @_ZdlPv(ptr noundef %99) #17
  br label %ehcleanup88

ehcleanup88:                                      ; preds = %if.then.i.i987, %ehcleanup86
  call void @llvm.lifetime.end.p0(i64 32, ptr nonnull %ref.tmp70) #16
  call void @llvm.lifetime.end.p0(i64 32, ptr nonnull %ref.tmp69) #16
  br label %ehcleanup621

lpad100:                                          ; preds = %invoke.cont92
  %100 = landingpad { ptr, i32 }
          cleanup
  br label %ehcleanup110

lpad104:                                          ; preds = %invoke.cont105, %invoke.cont103
  %101 = landingpad { ptr, i32 }
          cleanup
  %102 = load ptr, ptr %ref.tmp94, align 8, !tbaa !12
  %103 = getelementptr inbounds %"class.std::__cxx11::basic_string", ptr %ref.tmp94, i64 0, i32 2
  %cmp.i.i.i989 = icmp eq ptr %102, %103
  br i1 %cmp.i.i.i989, label %ehcleanup110, label %if.then.i.i990

if.then.i.i990:                                   ; preds = %lpad104
  call void @_ZdlPv(ptr noundef %102) #17
  br label %ehcleanup110

ehcleanup110:                                     ; preds = %if.then.i.i990, %lpad104, %lpad100
  %.pn705 = phi { ptr, i32 } [ %100, %lpad100 ], [ %101, %lpad104 ], [ %101, %if.then.i.i990 ]
  %104 = load ptr, ptr %ref.tmp95, align 8, !tbaa !12
  %cmp.i.i.i992 = icmp eq ptr %104, %44
  br i1 %cmp.i.i.i992, label %ehcleanup112, label %if.then.i.i993

if.then.i.i993:                                   ; preds = %ehcleanup110
  call void @_ZdlPv(ptr noundef %104) #17
  br label %ehcleanup112

ehcleanup112:                                     ; preds = %if.then.i.i993, %ehcleanup110
  call void @llvm.lifetime.end.p0(i64 32, ptr nonnull %ref.tmp95) #16
  call void @llvm.lifetime.end.p0(i64 32, ptr nonnull %ref.tmp94) #16
  br label %ehcleanup621

lpad123:                                          ; preds = %invoke.cont116
  %105 = landingpad { ptr, i32 }
          cleanup
  br label %ehcleanup131

lpad125:                                          ; preds = %invoke.cont126, %invoke.cont124
  %106 = landingpad { ptr, i32 }
          cleanup
  %107 = load ptr, ptr %ref.tmp118, align 8, !tbaa !12
  %108 = getelementptr inbounds %"class.std::__cxx11::basic_string", ptr %ref.tmp118, i64 0, i32 2
  %cmp.i.i.i995 = icmp eq ptr %107, %108
  br i1 %cmp.i.i.i995, label %ehcleanup131, label %if.then.i.i996

if.then.i.i996:                                   ; preds = %lpad125
  call void @_ZdlPv(ptr noundef %107) #17
  br label %ehcleanup131

ehcleanup131:                                     ; preds = %if.then.i.i996, %lpad125, %lpad123
  %.pn708 = phi { ptr, i32 } [ %105, %lpad123 ], [ %106, %lpad125 ], [ %106, %if.then.i.i996 ]
  %109 = load ptr, ptr %ref.tmp119, align 8, !tbaa !12
  %cmp.i.i.i998 = icmp eq ptr %109, %53
  br i1 %cmp.i.i.i998, label %ehcleanup132, label %if.then.i.i999

if.then.i.i999:                                   ; preds = %ehcleanup131
  call void @_ZdlPv(ptr noundef %109) #17
  br label %ehcleanup132

ehcleanup132:                                     ; preds = %if.then.i.i999, %ehcleanup131
  call void @llvm.lifetime.end.p0(i64 32, ptr nonnull %ref.tmp119) #16
  call void @llvm.lifetime.end.p0(i64 32, ptr nonnull %ref.tmp118) #16
  br label %ehcleanup621

lpad141:                                          ; preds = %invoke.cont136
  %110 = landingpad { ptr, i32 }
          cleanup
  br label %ehcleanup152

lpad143:                                          ; preds = %call2.i10.i.noexc944
  %111 = landingpad { ptr, i32 }
          cleanup
  br label %ehcleanup151

lpad145:                                          ; preds = %invoke.cont146, %invoke.cont144
  %112 = landingpad { ptr, i32 }
          cleanup
  %113 = load ptr, ptr %ref.tmp138, align 8, !tbaa !12
  %114 = getelementptr inbounds %"class.std::__cxx11::basic_string", ptr %ref.tmp138, i64 0, i32 2
  %cmp.i.i.i1001 = icmp eq ptr %113, %114
  br i1 %cmp.i.i.i1001, label %ehcleanup151, label %if.then.i.i1002

if.then.i.i1002:                                  ; preds = %lpad145
  call void @_ZdlPv(ptr noundef %113) #17
  br label %ehcleanup151

ehcleanup151:                                     ; preds = %if.then.i.i1002, %lpad145, %lpad143
  %.pn774 = phi { ptr, i32 } [ %111, %lpad143 ], [ %112, %lpad145 ], [ %112, %if.then.i.i1002 ]
  %115 = load ptr, ptr %ref.tmp139, align 8, !tbaa !12
  %cmp.i.i.i1004 = icmp eq ptr %115, %63
  br i1 %cmp.i.i.i1004, label %ehcleanup152, label %if.then.i.i1005

if.then.i.i1005:                                  ; preds = %ehcleanup151
  call void @_ZdlPv(ptr noundef %115) #17
  br label %ehcleanup152

ehcleanup152:                                     ; preds = %if.then.i.i1005, %ehcleanup151, %lpad141
  %.pn774.pn = phi { ptr, i32 } [ %110, %lpad141 ], [ %.pn774, %ehcleanup151 ], [ %.pn774, %if.then.i.i1005 ]
  call void @llvm.lifetime.end.p0(i64 32, ptr nonnull %ref.tmp139) #16
  call void @llvm.lifetime.end.p0(i64 32, ptr nonnull %ref.tmp138) #16
  br label %ehcleanup621

if.end:                                           ; preds = %_ZNSt7__cxx1112basic_stringIcSt11char_traitsIcESaIcEED2Ev.exit958, %_ZNSt7__cxx1112basic_stringIcSt11char_traitsIcESaIcEED2Ev.exit931
  %116 = load ptr, ptr %indent, align 8, !tbaa !12
  %117 = load i64, ptr %_M_string_length.i.i, align 8, !tbaa !15
  %call2.i1008 = invoke noundef nonnull align 8 dereferenceable(8) ptr @_ZSt16__ostream_insertIcSt11char_traitsIcEERSt13basic_ostreamIT_T0_ES6_PKS3_l(ptr noundef nonnull align 8 dereferenceable(8) %1, ptr noundef %116, i64 noundef %117)
          to label %invoke.cont156 unwind label %lpad2

invoke.cont156:                                   ; preds = %if.end
  call void @llvm.lifetime.start.p0(i64 32, ptr nonnull %ref.tmp158) #16
  call void @llvm.lifetime.start.p0(i64 32, ptr nonnull %ref.tmp159) #16
  %118 = getelementptr inbounds %"class.std::__cxx11::basic_string", ptr %ref.tmp159, i64 0, i32 2
  store ptr %118, ptr %ref.tmp159, align 8, !tbaa !10
  call void @llvm.memcpy.p0.p0.i64(ptr noundef nonnull align 8 dereferenceable(7) %118, ptr noundef nonnull align 1 dereferenceable(7) @.str.31, i64 7, i1 false)
  %_M_string_length.i.i.i.i1017 = getelementptr inbounds %"class.std::__cxx11::basic_string", ptr %ref.tmp159, i64 0, i32 1
  store i64 7, ptr %_M_string_length.i.i.i.i1017, align 8, !tbaa !15
  %arrayidx.i.i.i1018 = getelementptr inbounds i8, ptr %ref.tmp159, i64 23
  store i8 0, ptr %arrayidx.i.i.i1018, align 1, !tbaa !16
  %threads = getelementptr inbounds %"struct.benchmark::BenchmarkReporter::Run", ptr %run, i64 0, i32 10
  %119 = load i64, ptr %threads, align 8, !tbaa !96
  invoke fastcc void @_ZN9benchmark12_GLOBAL__N_18FormatKVERKNSt7__cxx1112basic_stringIcSt11char_traitsIcESaIcEEEl(ptr noalias nonnull align 8 %ref.tmp158, ptr noundef nonnull align 8 dereferenceable(32) %ref.tmp159, i64 noundef %119)
          to label %invoke.cont164 unwind label %lpad163

invoke.cont164:                                   ; preds = %invoke.cont156
  %120 = load ptr, ptr %ref.tmp158, align 8, !tbaa !12
  %_M_string_length.i.i1022 = getelementptr inbounds %"class.std::__cxx11::basic_string", ptr %ref.tmp158, i64 0, i32 1
  %121 = load i64, ptr %_M_string_length.i.i1022, align 8, !tbaa !15
  %call2.i1023 = invoke noundef nonnull align 8 dereferenceable(8) ptr @_ZSt16__ostream_insertIcSt11char_traitsIcEERSt13basic_ostreamIT_T0_ES6_PKS3_l(ptr noundef nonnull align 8 dereferenceable(8) %call2.i1008, ptr noundef %120, i64 noundef %121)
          to label %invoke.cont166 unwind label %lpad165

invoke.cont166:                                   ; preds = %invoke.cont164
  %call1.i1026 = invoke noundef nonnull align 8 dereferenceable(8) ptr @_ZSt16__ostream_insertIcSt11char_traitsIcEERSt13basic_ostreamIT_T0_ES6_PKS3_l(ptr noundef nonnull align 8 dereferenceable(8) %call2.i1023, ptr noundef nonnull @.str.4, i64 noundef 2)
          to label %invoke.cont168 unwind label %lpad165

invoke.cont168:                                   ; preds = %invoke.cont166
  %122 = load ptr, ptr %ref.tmp158, align 8, !tbaa !12
  %123 = getelementptr inbounds %"class.std::__cxx11::basic_string", ptr %ref.tmp158, i64 0, i32 2
  %cmp.i.i.i1028 = icmp eq ptr %122, %123
  br i1 %cmp.i.i.i1028, label %_ZNSt7__cxx1112basic_stringIcSt11char_traitsIcESaIcEED2Ev.exit1030, label %if.then.i.i1029

if.then.i.i1029:                                  ; preds = %invoke.cont168
  call void @_ZdlPv(ptr noundef %122) #17
  br label %_ZNSt7__cxx1112basic_stringIcSt11char_traitsIcESaIcEED2Ev.exit1030

_ZNSt7__cxx1112basic_stringIcSt11char_traitsIcESaIcEED2Ev.exit1030: ; preds = %invoke.cont168, %if.then.i.i1029
  %124 = load ptr, ptr %ref.tmp159, align 8, !tbaa !12
  %cmp.i.i.i1031 = icmp eq ptr %124, %118
  br i1 %cmp.i.i.i1031, label %_ZNSt7__cxx1112basic_stringIcSt11char_traitsIcESaIcEED2Ev.exit1033, label %if.then.i.i1032

if.then.i.i1032:                                  ; preds = %_ZNSt7__cxx1112basic_stringIcSt11char_traitsIcESaIcEED2Ev.exit1030
  call void @_ZdlPv(ptr noundef %124) #17
  br label %_ZNSt7__cxx1112basic_stringIcSt11char_traitsIcESaIcEED2Ev.exit1033

_ZNSt7__cxx1112basic_stringIcSt11char_traitsIcESaIcEED2Ev.exit1033: ; preds = %_ZNSt7__cxx1112basic_stringIcSt11char_traitsIcESaIcEED2Ev.exit1030, %if.then.i.i1032
  call void @llvm.lifetime.end.p0(i64 32, ptr nonnull %ref.tmp159) #16
  call void @llvm.lifetime.end.p0(i64 32, ptr nonnull %ref.tmp158) #16
  %125 = load i32, ptr %45, align 8, !tbaa !93
  %cmp177 = icmp eq i32 %125, 1
  br i1 %cmp177, label %if.then178, label %if.end223

if.then178:                                       ; preds = %_ZNSt7__cxx1112basic_stringIcSt11char_traitsIcESaIcEED2Ev.exit1033
  %126 = load ptr, ptr %indent, align 8, !tbaa !12
  %127 = load i64, ptr %_M_string_length.i.i, align 8, !tbaa !15
  %call2.i1035 = invoke noundef nonnull align 8 dereferenceable(8) ptr @_ZSt16__ostream_insertIcSt11char_traitsIcEERSt13basic_ostreamIT_T0_ES6_PKS3_l(ptr noundef nonnull align 8 dereferenceable(8) %1, ptr noundef %126, i64 noundef %127)
          to label %invoke.cont179 unwind label %lpad2

invoke.cont179:                                   ; preds = %if.then178
  call void @llvm.lifetime.start.p0(i64 32, ptr nonnull %ref.tmp181) #16
  call void @llvm.lifetime.start.p0(i64 32, ptr nonnull %ref.tmp182) #16
  %128 = getelementptr inbounds %"class.std::__cxx11::basic_string", ptr %ref.tmp182, i64 0, i32 2
  store ptr %128, ptr %ref.tmp182, align 8, !tbaa !10
  call void @llvm.memcpy.p0.p0.i64(ptr noundef nonnull align 8 dereferenceable(14) %128, ptr noundef nonnull align 1 dereferenceable(14) @.str.32, i64 14, i1 false)
  %_M_string_length.i.i.i.i1044 = getelementptr inbounds %"class.std::__cxx11::basic_string", ptr %ref.tmp182, i64 0, i32 1
  store i64 14, ptr %_M_string_length.i.i.i.i1044, align 8, !tbaa !15
  %arrayidx.i.i.i1045 = getelementptr inbounds %"class.std::__cxx11::basic_string", ptr %ref.tmp182, i64 0, i32 2, i32 1, i64 6
  store i8 0, ptr %arrayidx.i.i.i1045, align 2, !tbaa !16
  %aggregate_name = getelementptr inbounds %"struct.benchmark::BenchmarkReporter::Run", ptr %run, i64 0, i32 4
  invoke fastcc void @_ZN9benchmark12_GLOBAL__N_18FormatKVERKNSt7__cxx1112basic_stringIcSt11char_traitsIcESaIcEEES8_(ptr noalias nonnull align 8 %ref.tmp181, ptr noundef nonnull align 8 dereferenceable(32) %ref.tmp182, ptr noundef nonnull align 8 dereferenceable(32) %aggregate_name)
          to label %invoke.cont187 unwind label %lpad186

invoke.cont187:                                   ; preds = %invoke.cont179
  %129 = load ptr, ptr %ref.tmp181, align 8, !tbaa !12
  %_M_string_length.i.i1049 = getelementptr inbounds %"class.std::__cxx11::basic_string", ptr %ref.tmp181, i64 0, i32 1
  %130 = load i64, ptr %_M_string_length.i.i1049, align 8, !tbaa !15
  %call2.i1050 = invoke noundef nonnull align 8 dereferenceable(8) ptr @_ZSt16__ostream_insertIcSt11char_traitsIcEERSt13basic_ostreamIT_T0_ES6_PKS3_l(ptr noundef nonnull align 8 dereferenceable(8) %call2.i1035, ptr noundef %129, i64 noundef %130)
          to label %invoke.cont189 unwind label %lpad188

invoke.cont189:                                   ; preds = %invoke.cont187
  %call1.i1053 = invoke noundef nonnull align 8 dereferenceable(8) ptr @_ZSt16__ostream_insertIcSt11char_traitsIcEERSt13basic_ostreamIT_T0_ES6_PKS3_l(ptr noundef nonnull align 8 dereferenceable(8) %call2.i1050, ptr noundef nonnull @.str.4, i64 noundef 2)
          to label %invoke.cont191 unwind label %lpad188

invoke.cont191:                                   ; preds = %invoke.cont189
  %131 = load ptr, ptr %ref.tmp181, align 8, !tbaa !12
  %132 = getelementptr inbounds %"class.std::__cxx11::basic_string", ptr %ref.tmp181, i64 0, i32 2
  %cmp.i.i.i1055 = icmp eq ptr %131, %132
  br i1 %cmp.i.i.i1055, label %_ZNSt7__cxx1112basic_stringIcSt11char_traitsIcESaIcEED2Ev.exit1057, label %if.then.i.i1056

if.then.i.i1056:                                  ; preds = %invoke.cont191
  call void @_ZdlPv(ptr noundef %131) #17
  br label %_ZNSt7__cxx1112basic_stringIcSt11char_traitsIcESaIcEED2Ev.exit1057

_ZNSt7__cxx1112basic_stringIcSt11char_traitsIcESaIcEED2Ev.exit1057: ; preds = %invoke.cont191, %if.then.i.i1056
  %133 = load ptr, ptr %ref.tmp182, align 8, !tbaa !12
  %cmp.i.i.i1058 = icmp eq ptr %133, %128
  br i1 %cmp.i.i.i1058, label %_ZNSt7__cxx1112basic_stringIcSt11char_traitsIcESaIcEED2Ev.exit1060, label %if.then.i.i1059

if.then.i.i1059:                                  ; preds = %_ZNSt7__cxx1112basic_stringIcSt11char_traitsIcESaIcEED2Ev.exit1057
  call void @_ZdlPv(ptr noundef %133) #17
  br label %_ZNSt7__cxx1112basic_stringIcSt11char_traitsIcESaIcEED2Ev.exit1060

_ZNSt7__cxx1112basic_stringIcSt11char_traitsIcESaIcEED2Ev.exit1060: ; preds = %_ZNSt7__cxx1112basic_stringIcSt11char_traitsIcESaIcEED2Ev.exit1057, %if.then.i.i1059
  call void @llvm.lifetime.end.p0(i64 32, ptr nonnull %ref.tmp182) #16
  call void @llvm.lifetime.end.p0(i64 32, ptr nonnull %ref.tmp181) #16
  %134 = load ptr, ptr %indent, align 8, !tbaa !12
  %135 = load i64, ptr %_M_string_length.i.i, align 8, !tbaa !15
  %call2.i1062 = invoke noundef nonnull align 8 dereferenceable(8) ptr @_ZSt16__ostream_insertIcSt11char_traitsIcEERSt13basic_ostreamIT_T0_ES6_PKS3_l(ptr noundef nonnull align 8 dereferenceable(8) %1, ptr noundef %134, i64 noundef %135)
          to label %invoke.cont199 unwind label %lpad2

invoke.cont199:                                   ; preds = %_ZNSt7__cxx1112basic_stringIcSt11char_traitsIcESaIcEED2Ev.exit1060
  call void @llvm.lifetime.start.p0(i64 32, ptr nonnull %ref.tmp201) #16
  call void @llvm.lifetime.start.p0(i64 32, ptr nonnull %ref.tmp202) #16
  %136 = getelementptr inbounds %"class.std::__cxx11::basic_string", ptr %ref.tmp202, i64 0, i32 2
  store ptr %136, ptr %ref.tmp202, align 8, !tbaa !10
  call void @llvm.memcpy.p0.p0.i64(ptr noundef nonnull align 8 dereferenceable(14) %136, ptr noundef nonnull align 1 dereferenceable(14) @.str.33, i64 14, i1 false)
  %_M_string_length.i.i.i.i1071 = getelementptr inbounds %"class.std::__cxx11::basic_string", ptr %ref.tmp202, i64 0, i32 1
  store i64 14, ptr %_M_string_length.i.i.i.i1071, align 8, !tbaa !15
  %arrayidx.i.i.i1072 = getelementptr inbounds %"class.std::__cxx11::basic_string", ptr %ref.tmp202, i64 0, i32 2, i32 1, i64 6
  store i8 0, ptr %arrayidx.i.i.i1072, align 2, !tbaa !16
  %137 = getelementptr i8, ptr %run, i64 280
  %ref.tmp206.val.val = load i32, ptr %137, align 8, !tbaa !97
  %switch.i1076 = icmp eq i32 %ref.tmp206.val.val, 0
  %.str.66..str.67.i = select i1 %switch.i1076, ptr @.str.66, ptr @.str.67
  invoke fastcc void @_ZN9benchmark12_GLOBAL__N_18FormatKVERKNSt7__cxx1112basic_stringIcSt11char_traitsIcESaIcEEEPKc(ptr noalias nonnull align 8 %ref.tmp201, ptr noundef nonnull align 8 dereferenceable(32) %ref.tmp202, ptr noundef nonnull %.str.66..str.67.i)
          to label %invoke.cont210 unwind label %lpad207

invoke.cont210:                                   ; preds = %invoke.cont199
  %138 = load ptr, ptr %ref.tmp201, align 8, !tbaa !12
  %_M_string_length.i.i1077 = getelementptr inbounds %"class.std::__cxx11::basic_string", ptr %ref.tmp201, i64 0, i32 1
  %139 = load i64, ptr %_M_string_length.i.i1077, align 8, !tbaa !15
  %call2.i1078 = invoke noundef nonnull align 8 dereferenceable(8) ptr @_ZSt16__ostream_insertIcSt11char_traitsIcEERSt13basic_ostreamIT_T0_ES6_PKS3_l(ptr noundef nonnull align 8 dereferenceable(8) %call2.i1062, ptr noundef %138, i64 noundef %139)
          to label %invoke.cont212 unwind label %lpad211

invoke.cont212:                                   ; preds = %invoke.cont210
  %call1.i1081 = invoke noundef nonnull align 8 dereferenceable(8) ptr @_ZSt16__ostream_insertIcSt11char_traitsIcEERSt13basic_ostreamIT_T0_ES6_PKS3_l(ptr noundef nonnull align 8 dereferenceable(8) %call2.i1078, ptr noundef nonnull @.str.4, i64 noundef 2)
          to label %invoke.cont214 unwind label %lpad211

invoke.cont214:                                   ; preds = %invoke.cont212
  %140 = load ptr, ptr %ref.tmp201, align 8, !tbaa !12
  %141 = getelementptr inbounds %"class.std::__cxx11::basic_string", ptr %ref.tmp201, i64 0, i32 2
  %cmp.i.i.i1083 = icmp eq ptr %140, %141
  br i1 %cmp.i.i.i1083, label %_ZNSt7__cxx1112basic_stringIcSt11char_traitsIcESaIcEED2Ev.exit1085, label %if.then.i.i1084

if.then.i.i1084:                                  ; preds = %invoke.cont214
  call void @_ZdlPv(ptr noundef %140) #17
  br label %_ZNSt7__cxx1112basic_stringIcSt11char_traitsIcESaIcEED2Ev.exit1085

_ZNSt7__cxx1112basic_stringIcSt11char_traitsIcESaIcEED2Ev.exit1085: ; preds = %invoke.cont214, %if.then.i.i1084
  %142 = load ptr, ptr %ref.tmp202, align 8, !tbaa !12
  %cmp.i.i.i1086 = icmp eq ptr %142, %136
  br i1 %cmp.i.i.i1086, label %_ZNSt7__cxx1112basic_stringIcSt11char_traitsIcESaIcEED2Ev.exit1088, label %if.then.i.i1087

if.then.i.i1087:                                  ; preds = %_ZNSt7__cxx1112basic_stringIcSt11char_traitsIcESaIcEED2Ev.exit1085
  call void @_ZdlPv(ptr noundef %142) #17
  br label %_ZNSt7__cxx1112basic_stringIcSt11char_traitsIcESaIcEED2Ev.exit1088

_ZNSt7__cxx1112basic_stringIcSt11char_traitsIcESaIcEED2Ev.exit1088: ; preds = %_ZNSt7__cxx1112basic_stringIcSt11char_traitsIcESaIcEED2Ev.exit1085, %if.then.i.i1087
  call void @llvm.lifetime.end.p0(i64 32, ptr nonnull %ref.tmp202) #16
  call void @llvm.lifetime.end.p0(i64 32, ptr nonnull %ref.tmp201) #16
  br label %if.end223

lpad163:                                          ; preds = %invoke.cont156
  %143 = landingpad { ptr, i32 }
          cleanup
  br label %ehcleanup171

lpad165:                                          ; preds = %invoke.cont166, %invoke.cont164
  %144 = landingpad { ptr, i32 }
          cleanup
  %145 = load ptr, ptr %ref.tmp158, align 8, !tbaa !12
  %146 = getelementptr inbounds %"class.std::__cxx11::basic_string", ptr %ref.tmp158, i64 0, i32 2
  %cmp.i.i.i1089 = icmp eq ptr %145, %146
  br i1 %cmp.i.i.i1089, label %ehcleanup171, label %if.then.i.i1090

if.then.i.i1090:                                  ; preds = %lpad165
  call void @_ZdlPv(ptr noundef %145) #17
  br label %ehcleanup171

ehcleanup171:                                     ; preds = %if.then.i.i1090, %lpad165, %lpad163
  %.pn711 = phi { ptr, i32 } [ %143, %lpad163 ], [ %144, %lpad165 ], [ %144, %if.then.i.i1090 ]
  %147 = load ptr, ptr %ref.tmp159, align 8, !tbaa !12
  %cmp.i.i.i1092 = icmp eq ptr %147, %118
  br i1 %cmp.i.i.i1092, label %ehcleanup172, label %if.then.i.i1093

if.then.i.i1093:                                  ; preds = %ehcleanup171
  call void @_ZdlPv(ptr noundef %147) #17
  br label %ehcleanup172

ehcleanup172:                                     ; preds = %if.then.i.i1093, %ehcleanup171
  call void @llvm.lifetime.end.p0(i64 32, ptr nonnull %ref.tmp159) #16
  call void @llvm.lifetime.end.p0(i64 32, ptr nonnull %ref.tmp158) #16
  br label %ehcleanup621

lpad186:                                          ; preds = %invoke.cont179
  %148 = landingpad { ptr, i32 }
          cleanup
  br label %ehcleanup194

lpad188:                                          ; preds = %invoke.cont189, %invoke.cont187
  %149 = landingpad { ptr, i32 }
          cleanup
  %150 = load ptr, ptr %ref.tmp181, align 8, !tbaa !12
  %151 = getelementptr inbounds %"class.std::__cxx11::basic_string", ptr %ref.tmp181, i64 0, i32 2
  %cmp.i.i.i1095 = icmp eq ptr %150, %151
  br i1 %cmp.i.i.i1095, label %ehcleanup194, label %if.then.i.i1096

if.then.i.i1096:                                  ; preds = %lpad188
  call void @_ZdlPv(ptr noundef %150) #17
  br label %ehcleanup194

ehcleanup194:                                     ; preds = %if.then.i.i1096, %lpad188, %lpad186
  %.pn768 = phi { ptr, i32 } [ %148, %lpad186 ], [ %149, %lpad188 ], [ %149, %if.then.i.i1096 ]
  %152 = load ptr, ptr %ref.tmp182, align 8, !tbaa !12
  %cmp.i.i.i1098 = icmp eq ptr %152, %128
  br i1 %cmp.i.i.i1098, label %ehcleanup195, label %if.then.i.i1099

if.then.i.i1099:                                  ; preds = %ehcleanup194
  call void @_ZdlPv(ptr noundef %152) #17
  br label %ehcleanup195

ehcleanup195:                                     ; preds = %if.then.i.i1099, %ehcleanup194
  call void @llvm.lifetime.end.p0(i64 32, ptr nonnull %ref.tmp182) #16
  call void @llvm.lifetime.end.p0(i64 32, ptr nonnull %ref.tmp181) #16
  br label %ehcleanup621

lpad207:                                          ; preds = %invoke.cont199
  %153 = landingpad { ptr, i32 }
          cleanup
  br label %ehcleanup217

lpad211:                                          ; preds = %invoke.cont212, %invoke.cont210
  %154 = landingpad { ptr, i32 }
          cleanup
  %155 = load ptr, ptr %ref.tmp201, align 8, !tbaa !12
  %156 = getelementptr inbounds %"class.std::__cxx11::basic_string", ptr %ref.tmp201, i64 0, i32 2
  %cmp.i.i.i1101 = icmp eq ptr %155, %156
  br i1 %cmp.i.i.i1101, label %ehcleanup217, label %if.then.i.i1102

if.then.i.i1102:                                  ; preds = %lpad211
  call void @_ZdlPv(ptr noundef %155) #17
  br label %ehcleanup217

ehcleanup217:                                     ; preds = %if.then.i.i1102, %lpad211, %lpad207
  %.pn771 = phi { ptr, i32 } [ %153, %lpad207 ], [ %154, %lpad211 ], [ %154, %if.then.i.i1102 ]
  %157 = load ptr, ptr %ref.tmp202, align 8, !tbaa !12
  %cmp.i.i.i1104 = icmp eq ptr %157, %136
  br i1 %cmp.i.i.i1104, label %ehcleanup219, label %if.then.i.i1105

if.then.i.i1105:                                  ; preds = %ehcleanup217
  call void @_ZdlPv(ptr noundef %157) #17
  br label %ehcleanup219

ehcleanup219:                                     ; preds = %if.then.i.i1105, %ehcleanup217
  call void @llvm.lifetime.end.p0(i64 32, ptr nonnull %ref.tmp202) #16
  call void @llvm.lifetime.end.p0(i64 32, ptr nonnull %ref.tmp201) #16
  br label %ehcleanup621

if.end223:                                        ; preds = %_ZNSt7__cxx1112basic_stringIcSt11char_traitsIcESaIcEED2Ev.exit1088, %_ZNSt7__cxx1112basic_stringIcSt11char_traitsIcESaIcEED2Ev.exit1033
  %error_occurred = getelementptr inbounds %"struct.benchmark::BenchmarkReporter::Run", ptr %run, i64 0, i32 7
  %158 = load i8, ptr %error_occurred, align 8, !tbaa !98, !range !77, !noundef !78
  %tobool.not = icmp eq i8 %158, 0
  br i1 %tobool.not, label %if.end267, label %if.then224

if.then224:                                       ; preds = %if.end223
  %159 = load ptr, ptr %indent, align 8, !tbaa !12
  %160 = load i64, ptr %_M_string_length.i.i, align 8, !tbaa !15
  %call2.i1108 = invoke noundef nonnull align 8 dereferenceable(8) ptr @_ZSt16__ostream_insertIcSt11char_traitsIcEERSt13basic_ostreamIT_T0_ES6_PKS3_l(ptr noundef nonnull align 8 dereferenceable(8) %1, ptr noundef %159, i64 noundef %160)
          to label %invoke.cont225 unwind label %lpad2

invoke.cont225:                                   ; preds = %if.then224
  call void @llvm.lifetime.start.p0(i64 32, ptr nonnull %ref.tmp227) #16
  call void @llvm.lifetime.start.p0(i64 32, ptr nonnull %ref.tmp228) #16
  %161 = getelementptr inbounds %"class.std::__cxx11::basic_string", ptr %ref.tmp228, i64 0, i32 2
  store ptr %161, ptr %ref.tmp228, align 8, !tbaa !10
  call void @llvm.memcpy.p0.p0.i64(ptr noundef nonnull align 8 dereferenceable(14) %161, ptr noundef nonnull align 1 dereferenceable(14) @.str.34, i64 14, i1 false)
  %_M_string_length.i.i.i.i1117 = getelementptr inbounds %"class.std::__cxx11::basic_string", ptr %ref.tmp228, i64 0, i32 1
  store i64 14, ptr %_M_string_length.i.i.i.i1117, align 8, !tbaa !15
  %arrayidx.i.i.i1118 = getelementptr inbounds %"class.std::__cxx11::basic_string", ptr %ref.tmp228, i64 0, i32 2, i32 1, i64 6
  store i8 0, ptr %arrayidx.i.i.i1118, align 2, !tbaa !16
  %162 = load i8, ptr %error_occurred, align 8, !tbaa !98, !range !77, !noundef !78
  call void @llvm.lifetime.start.p0(i64 32, ptr nonnull %ref.tmp.i) #16, !noalias !99
  invoke fastcc void @_ZN9benchmark12_GLOBAL__N_19StrEscapeERKNSt7__cxx1112basic_stringIcSt11char_traitsIcESaIcEEE(ptr noalias nonnull align 8 %ref.tmp.i, ptr noundef nonnull align 8 dereferenceable(32) %ref.tmp228)
          to label %.noexc unwind label %lpad234

.noexc:                                           ; preds = %invoke.cont225
  %tobool233.not = icmp eq i8 %162, 0
  %163 = load ptr, ptr %ref.tmp.i, align 8, !tbaa !12, !noalias !99
  %cond.i = select i1 %tobool233.not, ptr @.str.63, ptr @.str.62
  invoke void (ptr, ptr, ...) @_ZN9benchmark9StrFormatB5cxx11EPKcz(ptr nonnull sret(%"class.std::__cxx11::basic_string") align 8 %ref.tmp227, ptr noundef nonnull @.str.61, ptr noundef %163, ptr noundef nonnull %cond.i)
          to label %invoke.cont.i unwind label %lpad.i

invoke.cont.i:                                    ; preds = %.noexc
  %164 = load ptr, ptr %ref.tmp.i, align 8, !tbaa !12, !noalias !99
  %165 = getelementptr inbounds %"class.std::__cxx11::basic_string", ptr %ref.tmp.i, i64 0, i32 2
  %cmp.i.i.i.i = icmp eq ptr %164, %165
  br i1 %cmp.i.i.i.i, label %invoke.cont235, label %if.then.i.i.i

if.then.i.i.i:                                    ; preds = %invoke.cont.i
  call void @_ZdlPv(ptr noundef %164) #17
  br label %invoke.cont235

lpad.i:                                           ; preds = %.noexc
  %166 = landingpad { ptr, i32 }
          cleanup
  %167 = load ptr, ptr %ref.tmp.i, align 8, !tbaa !12, !noalias !99
  %168 = getelementptr inbounds %"class.std::__cxx11::basic_string", ptr %ref.tmp.i, i64 0, i32 2
  %cmp.i.i.i2.i = icmp eq ptr %167, %168
  br i1 %cmp.i.i.i2.i, label %_ZNSt7__cxx1112basic_stringIcSt11char_traitsIcESaIcEED2Ev.exit4.i, label %if.then.i.i3.i

if.then.i.i3.i:                                   ; preds = %lpad.i
  call void @_ZdlPv(ptr noundef %167) #17
  br label %_ZNSt7__cxx1112basic_stringIcSt11char_traitsIcESaIcEED2Ev.exit4.i

_ZNSt7__cxx1112basic_stringIcSt11char_traitsIcESaIcEED2Ev.exit4.i: ; preds = %if.then.i.i3.i, %lpad.i
  call void @llvm.lifetime.end.p0(i64 32, ptr nonnull %ref.tmp.i) #16, !noalias !99
  br label %ehcleanup242

invoke.cont235:                                   ; preds = %if.then.i.i.i, %invoke.cont.i
  call void @llvm.lifetime.end.p0(i64 32, ptr nonnull %ref.tmp.i) #16, !noalias !99
  %169 = load ptr, ptr %ref.tmp227, align 8, !tbaa !12
  %_M_string_length.i.i1122 = getelementptr inbounds %"class.std::__cxx11::basic_string", ptr %ref.tmp227, i64 0, i32 1
  %170 = load i64, ptr %_M_string_length.i.i1122, align 8, !tbaa !15
  %call2.i1123 = invoke noundef nonnull align 8 dereferenceable(8) ptr @_ZSt16__ostream_insertIcSt11char_traitsIcEERSt13basic_ostreamIT_T0_ES6_PKS3_l(ptr noundef nonnull align 8 dereferenceable(8) %call2.i1108, ptr noundef %169, i64 noundef %170)
          to label %invoke.cont237 unwind label %lpad236

invoke.cont237:                                   ; preds = %invoke.cont235
  %call1.i1126 = invoke noundef nonnull align 8 dereferenceable(8) ptr @_ZSt16__ostream_insertIcSt11char_traitsIcEERSt13basic_ostreamIT_T0_ES6_PKS3_l(ptr noundef nonnull align 8 dereferenceable(8) %call2.i1123, ptr noundef nonnull @.str.4, i64 noundef 2)
          to label %invoke.cont239 unwind label %lpad236

invoke.cont239:                                   ; preds = %invoke.cont237
  %171 = load ptr, ptr %ref.tmp227, align 8, !tbaa !12
  %172 = getelementptr inbounds %"class.std::__cxx11::basic_string", ptr %ref.tmp227, i64 0, i32 2
  %cmp.i.i.i1128 = icmp eq ptr %171, %172
  br i1 %cmp.i.i.i1128, label %_ZNSt7__cxx1112basic_stringIcSt11char_traitsIcESaIcEED2Ev.exit1131, label %if.then.i.i1129

if.then.i.i1129:                                  ; preds = %invoke.cont239
  call void @_ZdlPv(ptr noundef %171) #17
  br label %_ZNSt7__cxx1112basic_stringIcSt11char_traitsIcESaIcEED2Ev.exit1131

_ZNSt7__cxx1112basic_stringIcSt11char_traitsIcESaIcEED2Ev.exit1131: ; preds = %invoke.cont239, %if.then.i.i1129
  %173 = load ptr, ptr %ref.tmp228, align 8, !tbaa !12
  %cmp.i.i.i1132 = icmp eq ptr %173, %161
  br i1 %cmp.i.i.i1132, label %_ZNSt7__cxx1112basic_stringIcSt11char_traitsIcESaIcEED2Ev.exit1135, label %if.then.i.i1133

if.then.i.i1133:                                  ; preds = %_ZNSt7__cxx1112basic_stringIcSt11char_traitsIcESaIcEED2Ev.exit1131
  call void @_ZdlPv(ptr noundef %173) #17
  br label %_ZNSt7__cxx1112basic_stringIcSt11char_traitsIcESaIcEED2Ev.exit1135

_ZNSt7__cxx1112basic_stringIcSt11char_traitsIcESaIcEED2Ev.exit1135: ; preds = %_ZNSt7__cxx1112basic_stringIcSt11char_traitsIcESaIcEED2Ev.exit1131, %if.then.i.i1133
  call void @llvm.lifetime.end.p0(i64 32, ptr nonnull %ref.tmp228) #16
  call void @llvm.lifetime.end.p0(i64 32, ptr nonnull %ref.tmp227) #16
  %174 = load ptr, ptr %indent, align 8, !tbaa !12
  %175 = load i64, ptr %_M_string_length.i.i, align 8, !tbaa !15
  %call2.i1137 = invoke noundef nonnull align 8 dereferenceable(8) ptr @_ZSt16__ostream_insertIcSt11char_traitsIcEERSt13basic_ostreamIT_T0_ES6_PKS3_l(ptr noundef nonnull align 8 dereferenceable(8) %1, ptr noundef %174, i64 noundef %175)
          to label %invoke.cont247 unwind label %lpad2

invoke.cont247:                                   ; preds = %_ZNSt7__cxx1112basic_stringIcSt11char_traitsIcESaIcEED2Ev.exit1135
  call void @llvm.lifetime.start.p0(i64 32, ptr nonnull %ref.tmp249) #16
  call void @llvm.lifetime.start.p0(i64 32, ptr nonnull %ref.tmp250) #16
  %176 = getelementptr inbounds %"class.std::__cxx11::basic_string", ptr %ref.tmp250, i64 0, i32 2
  store ptr %176, ptr %ref.tmp250, align 8, !tbaa !10
  call void @llvm.memcpy.p0.p0.i64(ptr noundef nonnull align 8 dereferenceable(13) %176, ptr noundef nonnull align 1 dereferenceable(13) @.str.35, i64 13, i1 false)
  %_M_string_length.i.i.i.i1146 = getelementptr inbounds %"class.std::__cxx11::basic_string", ptr %ref.tmp250, i64 0, i32 1
  store i64 13, ptr %_M_string_length.i.i.i.i1146, align 8, !tbaa !15
  %arrayidx.i.i.i1147 = getelementptr inbounds %"class.std::__cxx11::basic_string", ptr %ref.tmp250, i64 0, i32 2, i32 1, i64 5
  store i8 0, ptr %arrayidx.i.i.i1147, align 1, !tbaa !16
  %error_message = getelementptr inbounds %"struct.benchmark::BenchmarkReporter::Run", ptr %run, i64 0, i32 8
  invoke fastcc void @_ZN9benchmark12_GLOBAL__N_18FormatKVERKNSt7__cxx1112basic_stringIcSt11char_traitsIcESaIcEEES8_(ptr noalias nonnull align 8 %ref.tmp249, ptr noundef nonnull align 8 dereferenceable(32) %ref.tmp250, ptr noundef nonnull align 8 dereferenceable(32) %error_message)
          to label %invoke.cont255 unwind label %lpad254

invoke.cont255:                                   ; preds = %invoke.cont247
  %177 = load ptr, ptr %ref.tmp249, align 8, !tbaa !12
  %_M_string_length.i.i1151 = getelementptr inbounds %"class.std::__cxx11::basic_string", ptr %ref.tmp249, i64 0, i32 1
  %178 = load i64, ptr %_M_string_length.i.i1151, align 8, !tbaa !15
  %call2.i1152 = invoke noundef nonnull align 8 dereferenceable(8) ptr @_ZSt16__ostream_insertIcSt11char_traitsIcEERSt13basic_ostreamIT_T0_ES6_PKS3_l(ptr noundef nonnull align 8 dereferenceable(8) %call2.i1137, ptr noundef %177, i64 noundef %178)
          to label %invoke.cont257 unwind label %lpad256

invoke.cont257:                                   ; preds = %invoke.cont255
  %call1.i1155 = invoke noundef nonnull align 8 dereferenceable(8) ptr @_ZSt16__ostream_insertIcSt11char_traitsIcEERSt13basic_ostreamIT_T0_ES6_PKS3_l(ptr noundef nonnull align 8 dereferenceable(8) %call2.i1152, ptr noundef nonnull @.str.4, i64 noundef 2)
          to label %invoke.cont259 unwind label %lpad256

invoke.cont259:                                   ; preds = %invoke.cont257
  %179 = load ptr, ptr %ref.tmp249, align 8, !tbaa !12
  %180 = getelementptr inbounds %"class.std::__cxx11::basic_string", ptr %ref.tmp249, i64 0, i32 2
  %cmp.i.i.i1157 = icmp eq ptr %179, %180
  br i1 %cmp.i.i.i1157, label %_ZNSt7__cxx1112basic_stringIcSt11char_traitsIcESaIcEED2Ev.exit1160, label %if.then.i.i1158

if.then.i.i1158:                                  ; preds = %invoke.cont259
  call void @_ZdlPv(ptr noundef %179) #17
  br label %_ZNSt7__cxx1112basic_stringIcSt11char_traitsIcESaIcEED2Ev.exit1160

_ZNSt7__cxx1112basic_stringIcSt11char_traitsIcESaIcEED2Ev.exit1160: ; preds = %invoke.cont259, %if.then.i.i1158
  %181 = load ptr, ptr %ref.tmp250, align 8, !tbaa !12
  %cmp.i.i.i1161 = icmp eq ptr %181, %176
  br i1 %cmp.i.i.i1161, label %_ZNSt7__cxx1112basic_stringIcSt11char_traitsIcESaIcEED2Ev.exit1164, label %if.then.i.i1162

if.then.i.i1162:                                  ; preds = %_ZNSt7__cxx1112basic_stringIcSt11char_traitsIcESaIcEED2Ev.exit1160
  call void @_ZdlPv(ptr noundef %181) #17
  br label %_ZNSt7__cxx1112basic_stringIcSt11char_traitsIcESaIcEED2Ev.exit1164

_ZNSt7__cxx1112basic_stringIcSt11char_traitsIcESaIcEED2Ev.exit1164: ; preds = %_ZNSt7__cxx1112basic_stringIcSt11char_traitsIcESaIcEED2Ev.exit1160, %if.then.i.i1162
  call void @llvm.lifetime.end.p0(i64 32, ptr nonnull %ref.tmp250) #16
  call void @llvm.lifetime.end.p0(i64 32, ptr nonnull %ref.tmp249) #16
  br label %if.end267

lpad234:                                          ; preds = %invoke.cont225
  %182 = landingpad { ptr, i32 }
          cleanup
  br label %ehcleanup242

lpad236:                                          ; preds = %invoke.cont237, %invoke.cont235
  %183 = landingpad { ptr, i32 }
          cleanup
  %184 = load ptr, ptr %ref.tmp227, align 8, !tbaa !12
  %185 = getelementptr inbounds %"class.std::__cxx11::basic_string", ptr %ref.tmp227, i64 0, i32 2
  %cmp.i.i.i1165 = icmp eq ptr %184, %185
  br i1 %cmp.i.i.i1165, label %ehcleanup242, label %if.then.i.i1166

if.then.i.i1166:                                  ; preds = %lpad236
  call void @_ZdlPv(ptr noundef %184) #17
  br label %ehcleanup242

ehcleanup242:                                     ; preds = %if.then.i.i1166, %lpad236, %lpad234, %_ZNSt7__cxx1112basic_stringIcSt11char_traitsIcESaIcEED2Ev.exit4.i
  %.pn762 = phi { ptr, i32 } [ %182, %lpad234 ], [ %166, %_ZNSt7__cxx1112basic_stringIcSt11char_traitsIcESaIcEED2Ev.exit4.i ], [ %183, %lpad236 ], [ %183, %if.then.i.i1166 ]
  %186 = load ptr, ptr %ref.tmp228, align 8, !tbaa !12
  %cmp.i.i.i1169 = icmp eq ptr %186, %161
  br i1 %cmp.i.i.i1169, label %ehcleanup243, label %if.then.i.i1170

if.then.i.i1170:                                  ; preds = %ehcleanup242
  call void @_ZdlPv(ptr noundef %186) #17
  br label %ehcleanup243

ehcleanup243:                                     ; preds = %if.then.i.i1170, %ehcleanup242
  call void @llvm.lifetime.end.p0(i64 32, ptr nonnull %ref.tmp228) #16
  call void @llvm.lifetime.end.p0(i64 32, ptr nonnull %ref.tmp227) #16
  br label %ehcleanup621

lpad254:                                          ; preds = %invoke.cont247
  %187 = landingpad { ptr, i32 }
          cleanup
  br label %ehcleanup262

lpad256:                                          ; preds = %invoke.cont257, %invoke.cont255
  %188 = landingpad { ptr, i32 }
          cleanup
  %189 = load ptr, ptr %ref.tmp249, align 8, !tbaa !12
  %190 = getelementptr inbounds %"class.std::__cxx11::basic_string", ptr %ref.tmp249, i64 0, i32 2
  %cmp.i.i.i1173 = icmp eq ptr %189, %190
  br i1 %cmp.i.i.i1173, label %ehcleanup262, label %if.then.i.i1174

if.then.i.i1174:                                  ; preds = %lpad256
  call void @_ZdlPv(ptr noundef %189) #17
  br label %ehcleanup262

ehcleanup262:                                     ; preds = %if.then.i.i1174, %lpad256, %lpad254
  %.pn765 = phi { ptr, i32 } [ %187, %lpad254 ], [ %188, %lpad256 ], [ %188, %if.then.i.i1174 ]
  %191 = load ptr, ptr %ref.tmp250, align 8, !tbaa !12
  %cmp.i.i.i1177 = icmp eq ptr %191, %176
  br i1 %cmp.i.i.i1177, label %ehcleanup263, label %if.then.i.i1178

if.then.i.i1178:                                  ; preds = %ehcleanup262
  call void @_ZdlPv(ptr noundef %191) #17
  br label %ehcleanup263

ehcleanup263:                                     ; preds = %if.then.i.i1178, %ehcleanup262
  call void @llvm.lifetime.end.p0(i64 32, ptr nonnull %ref.tmp250) #16
  call void @llvm.lifetime.end.p0(i64 32, ptr nonnull %ref.tmp249) #16
  br label %ehcleanup621

if.end267:                                        ; preds = %_ZNSt7__cxx1112basic_stringIcSt11char_traitsIcESaIcEED2Ev.exit1164, %if.end223
  %report_big_o = getelementptr inbounds %"struct.benchmark::BenchmarkReporter::Run", ptr %run, i64 0, i32 21
  %192 = load i8, ptr %report_big_o, align 8, !tbaa !102, !range !77, !noundef !78
  %tobool268.not = icmp eq i8 %192, 0
  %report_rms = getelementptr inbounds %"struct.benchmark::BenchmarkReporter::Run", ptr %run, i64 0, i32 22
  %193 = load i8, ptr %report_rms, align 1, !range !77
  %tobool269.not = icmp eq i8 %193, 0
  %or.cond = select i1 %tobool268.not, i1 %tobool269.not, i1 false
  br i1 %or.cond, label %if.then270, label %if.else398

if.then270:                                       ; preds = %if.end267
  %194 = load ptr, ptr %indent, align 8, !tbaa !12
  %195 = load i64, ptr %_M_string_length.i.i, align 8, !tbaa !15
  %call2.i1182 = invoke noundef nonnull align 8 dereferenceable(8) ptr @_ZSt16__ostream_insertIcSt11char_traitsIcEERSt13basic_ostreamIT_T0_ES6_PKS3_l(ptr noundef nonnull align 8 dereferenceable(8) %1, ptr noundef %194, i64 noundef %195)
          to label %invoke.cont271 unwind label %lpad2

invoke.cont271:                                   ; preds = %if.then270
  call void @llvm.lifetime.start.p0(i64 32, ptr nonnull %ref.tmp273) #16
  call void @llvm.lifetime.start.p0(i64 32, ptr nonnull %ref.tmp274) #16
  %196 = getelementptr inbounds %"class.std::__cxx11::basic_string", ptr %ref.tmp274, i64 0, i32 2
  store ptr %196, ptr %ref.tmp274, align 8, !tbaa !10
  call void @llvm.memcpy.p0.p0.i64(ptr noundef nonnull align 8 dereferenceable(10) %196, ptr noundef nonnull align 1 dereferenceable(10) @.str.36, i64 10, i1 false)
  %_M_string_length.i.i.i.i1191 = getelementptr inbounds %"class.std::__cxx11::basic_string", ptr %ref.tmp274, i64 0, i32 1
  store i64 10, ptr %_M_string_length.i.i.i.i1191, align 8, !tbaa !15
  %arrayidx.i.i.i1192 = getelementptr inbounds %"class.std::__cxx11::basic_string", ptr %ref.tmp274, i64 0, i32 2, i32 1, i64 2
  store i8 0, ptr %arrayidx.i.i.i1192, align 2, !tbaa !16
  %iterations = getelementptr inbounds %"struct.benchmark::BenchmarkReporter::Run", ptr %run, i64 0, i32 9
  %197 = load i64, ptr %iterations, align 8, !tbaa !103
  call void @llvm.experimental.noalias.scope.decl(metadata !104)
  call void @llvm.lifetime.start.p0(i64 392, ptr nonnull %ss.i) #16, !noalias !104
  invoke void @_ZNSt7__cxx1118basic_stringstreamIcSt11char_traitsIcESaIcEEC1Ev(ptr noundef nonnull align 8 dereferenceable(128) %ss.i)
          to label %.noexc1203 unwind label %lpad278

.noexc1203:                                       ; preds = %invoke.cont271
  %add.ptr.i = getelementptr inbounds i8, ptr %ss.i, i64 16
  call void @llvm.lifetime.start.p0(i64 1, ptr nonnull %__c.addr.i.i), !noalias !104
  store i8 34, ptr %__c.addr.i.i, align 1, !tbaa !16, !noalias !104
  %vtable.i.i = load ptr, ptr %add.ptr.i, align 8, !tbaa !54, !noalias !104
  %vbase.offset.ptr.i.i = getelementptr i8, ptr %vtable.i.i, i64 -24
  %vbase.offset.i.i = load i64, ptr %vbase.offset.ptr.i.i, align 8, !noalias !104
  %add.ptr.i.i = getelementptr inbounds i8, ptr %add.ptr.i, i64 %vbase.offset.i.i
  %_M_width.i.i.i = getelementptr inbounds %"class.std::ios_base", ptr %add.ptr.i.i, i64 0, i32 2
  %198 = load i64, ptr %_M_width.i.i.i, align 8, !tbaa !56, !noalias !104
  %cmp.not.i.i = icmp eq i64 %198, 0
  br i1 %cmp.not.i.i, label %if.end.i.i1198, label %if.then.i.i1197

if.then.i.i1197:                                  ; preds = %.noexc1203
  %call1.i17.i = invoke noundef nonnull align 8 dereferenceable(8) ptr @_ZSt16__ostream_insertIcSt11char_traitsIcEERSt13basic_ostreamIT_T0_ES6_PKS3_l(ptr noundef nonnull align 8 dereferenceable(8) %add.ptr.i, ptr noundef nonnull %__c.addr.i.i, i64 noundef 1)
          to label %invoke.cont.i1199 unwind label %lpad.i1202, !noalias !104

if.end.i.i1198:                                   ; preds = %.noexc1203
  %call2.i18.i = invoke noundef nonnull align 8 dereferenceable(8) ptr @_ZNSo3putEc(ptr noundef nonnull align 8 dereferenceable(8) %add.ptr.i, i8 noundef signext 34)
          to label %invoke.cont.i1199 unwind label %lpad.i1202, !noalias !104

invoke.cont.i1199:                                ; preds = %if.end.i.i1198, %if.then.i.i1197
  %retval.0.i.i = phi ptr [ %call1.i17.i, %if.then.i.i1197 ], [ %add.ptr.i, %if.end.i.i1198 ]
  call void @llvm.lifetime.end.p0(i64 1, ptr nonnull %__c.addr.i.i), !noalias !104
  call void @llvm.lifetime.start.p0(i64 32, ptr nonnull %ref.tmp.i1196) #16, !noalias !104
  invoke fastcc void @_ZN9benchmark12_GLOBAL__N_19StrEscapeERKNSt7__cxx1112basic_stringIcSt11char_traitsIcESaIcEEE(ptr noalias nonnull align 8 %ref.tmp.i1196, ptr noundef nonnull align 8 dereferenceable(32) %ref.tmp274)
          to label %invoke.cont2.i unwind label %lpad1.i, !noalias !104

invoke.cont2.i:                                   ; preds = %invoke.cont.i1199
  %199 = load ptr, ptr %ref.tmp.i1196, align 8, !tbaa !12, !noalias !104
  %_M_string_length.i.i.i = getelementptr inbounds %"class.std::__cxx11::basic_string", ptr %ref.tmp.i1196, i64 0, i32 1
  %200 = load i64, ptr %_M_string_length.i.i.i, align 8, !tbaa !15, !noalias !104
  %call2.i20.i = invoke noundef nonnull align 8 dereferenceable(8) ptr @_ZSt16__ostream_insertIcSt11char_traitsIcEERSt13basic_ostreamIT_T0_ES6_PKS3_l(ptr noundef nonnull align 8 dereferenceable(8) %retval.0.i.i, ptr noundef %199, i64 noundef %200)
          to label %invoke.cont4.i unwind label %lpad3.i, !noalias !104

invoke.cont4.i:                                   ; preds = %invoke.cont2.i
  %call1.i23.i = invoke noundef nonnull align 8 dereferenceable(8) ptr @_ZSt16__ostream_insertIcSt11char_traitsIcEERSt13basic_ostreamIT_T0_ES6_PKS3_l(ptr noundef nonnull align 8 dereferenceable(8) %call2.i20.i, ptr noundef nonnull @.str.58, i64 noundef 3)
          to label %invoke.cont6.i unwind label %lpad3.i, !noalias !104

invoke.cont6.i:                                   ; preds = %invoke.cont4.i
  %call.i24.i = invoke noundef nonnull align 8 dereferenceable(8) ptr @_ZNSo9_M_insertImEERSoT_(ptr noundef nonnull align 8 dereferenceable(8) %call2.i20.i, i64 noundef %197)
          to label %invoke.cont8.i unwind label %lpad3.i, !noalias !104

invoke.cont8.i:                                   ; preds = %invoke.cont6.i
  %201 = load ptr, ptr %ref.tmp.i1196, align 8, !tbaa !12, !noalias !104
  %202 = getelementptr inbounds %"class.std::__cxx11::basic_string", ptr %ref.tmp.i1196, i64 0, i32 2
  %cmp.i.i.i.i1200 = icmp eq ptr %201, %202
  br i1 %cmp.i.i.i.i1200, label %_ZNSt7__cxx1112basic_stringIcSt11char_traitsIcESaIcEED2Ev.exit.i, label %if.then.i.i.i1201

if.then.i.i.i1201:                                ; preds = %invoke.cont8.i
  call void @_ZdlPv(ptr noundef %201) #17, !noalias !104
  br label %_ZNSt7__cxx1112basic_stringIcSt11char_traitsIcESaIcEED2Ev.exit.i

_ZNSt7__cxx1112basic_stringIcSt11char_traitsIcESaIcEED2Ev.exit.i: ; preds = %if.then.i.i.i1201, %invoke.cont8.i
  call void @llvm.lifetime.end.p0(i64 32, ptr nonnull %ref.tmp.i1196) #16, !noalias !104
  call void @llvm.experimental.noalias.scope.decl(metadata !107)
  call void @llvm.experimental.noalias.scope.decl(metadata !110)
  %203 = getelementptr inbounds %"class.std::__cxx11::basic_string", ptr %ref.tmp273, i64 0, i32 2
  store ptr %203, ptr %ref.tmp273, align 8, !tbaa !10, !alias.scope !113
  %_M_string_length.i.i.i.i.i.i = getelementptr inbounds %"class.std::__cxx11::basic_string", ptr %ref.tmp273, i64 0, i32 1
  store i64 0, ptr %_M_string_length.i.i.i.i.i.i, align 8, !tbaa !15, !alias.scope !113
  store i8 0, ptr %203, align 8, !tbaa !16, !alias.scope !113
  %_M_out_cur.i.i.i.i.i = getelementptr inbounds %"class.std::__cxx11::basic_stringstream", ptr %ss.i, i64 0, i32 1, i32 0, i32 5
  %204 = load ptr, ptr %_M_out_cur.i.i.i.i.i, align 8, !tbaa !69, !noalias !113
  %tobool.not.not.i.i.i.i = icmp eq ptr %204, null
  %_M_in_end.i.i.i.i.i = getelementptr inbounds %"class.std::__cxx11::basic_stringstream", ptr %ss.i, i64 0, i32 1, i32 0, i32 3
