; ModuleID = '/usr/local/google/home/aeubanks/repos/test-suite/SingleSource/Benchmarks/Adobe-C++/simple_types_loop_invariant.cpp'
source_filename = "/usr/local/google/home/aeubanks/repos/test-suite/SingleSource/Benchmarks/Adobe-C++/simple_types_loop_invariant.cpp"
target datalayout = "e-m:e-p270:32:32-p271:32:32-p272:64:64-i64:64-f80:128-n8:16:32:64-S128"
target triple = "x86_64-unknown-linux-gnu"

%struct.one_result = type { double, ptr }

$_Z14test_variable1Ia19custom_add_variableIaEEvPT_iS2_PKc = comdat any

$_Z22test_hoisted_variable1Ia19custom_add_variableIaEEvPT_iS2_PKc = comdat any

$_Z14test_variable4Ia28custom_add_multiple_variableIaEEvPT_iS2_S2_S2_S2_PKc = comdat any

$_Z14test_variable1Ia19custom_sub_variableIaEEvPT_iS2_PKc = comdat any

$_Z14test_variable4Ia28custom_sub_multiple_variableIaEEvPT_iS2_S2_S2_S2_PKc = comdat any

$_Z14test_variable1Ia24custom_multiply_variableIaEEvPT_iS2_PKc = comdat any

$_Z14test_variable4Ia33custom_multiply_multiple_variableIaEEvPT_iS2_S2_S2_S2_PKc = comdat any

$_Z14test_variable4Ia34custom_multiply_multiple_variable2IaEEvPT_iS2_S2_S2_S2_PKc = comdat any

$_Z14test_variable1Ia22custom_divide_variableIaEEvPT_iS2_PKc = comdat any

$_Z14test_variable4Ia31custom_divide_multiple_variableIaEEvPT_iS2_S2_S2_S2_PKc = comdat any

$_Z14test_variable4Ia32custom_divide_multiple_variable2IaEEvPT_iS2_S2_S2_S2_PKc = comdat any

$_Z14test_variable4Ia30custom_mixed_multiple_variableIaEEvPT_iS2_S2_S2_S2_PKc = comdat any

$_Z14test_variable1Ia19custom_variable_andIaEEvPT_iS2_PKc = comdat any

$_Z14test_variable4Ia28custom_multiple_variable_andIaEEvPT_iS2_S2_S2_S2_PKc = comdat any

$_Z14test_variable1Ia18custom_variable_orIaEEvPT_iS2_PKc = comdat any

$_Z14test_variable4Ia27custom_multiple_variable_orIaEEvPT_iS2_S2_S2_S2_PKc = comdat any

$_Z14test_variable1Ia19custom_variable_xorIaEEvPT_iS2_PKc = comdat any

$_Z14test_variable4Ia28custom_multiple_variable_xorIaEEvPT_iS2_S2_S2_S2_PKc = comdat any

$_Z14test_variable1Ih19custom_add_variableIhEEvPT_iS2_PKc = comdat any

$_Z22test_hoisted_variable1Ih19custom_add_variableIhEEvPT_iS2_PKc = comdat any

$_Z14test_variable4Ih28custom_add_multiple_variableIhEEvPT_iS2_S2_S2_S2_PKc = comdat any

$_Z14test_variable1Ih19custom_sub_variableIhEEvPT_iS2_PKc = comdat any

$_Z14test_variable4Ih28custom_sub_multiple_variableIhEEvPT_iS2_S2_S2_S2_PKc = comdat any

$_Z14test_variable1Ih24custom_multiply_variableIhEEvPT_iS2_PKc = comdat any

$_Z14test_variable4Ih33custom_multiply_multiple_variableIhEEvPT_iS2_S2_S2_S2_PKc = comdat any

$_Z14test_variable4Ih34custom_multiply_multiple_variable2IhEEvPT_iS2_S2_S2_S2_PKc = comdat any

$_Z14test_variable1Ih22custom_divide_variableIhEEvPT_iS2_PKc = comdat any

$_Z14test_variable4Ih31custom_divide_multiple_variableIhEEvPT_iS2_S2_S2_S2_PKc = comdat any

$_Z14test_variable4Ih32custom_divide_multiple_variable2IhEEvPT_iS2_S2_S2_S2_PKc = comdat any

$_Z14test_variable4Ih30custom_mixed_multiple_variableIhEEvPT_iS2_S2_S2_S2_PKc = comdat any

$_Z14test_variable1Ih19custom_variable_andIhEEvPT_iS2_PKc = comdat any

$_Z14test_variable4Ih28custom_multiple_variable_andIhEEvPT_iS2_S2_S2_S2_PKc = comdat any

$_Z14test_variable1Ih18custom_variable_orIhEEvPT_iS2_PKc = comdat any

$_Z14test_variable4Ih27custom_multiple_variable_orIhEEvPT_iS2_S2_S2_S2_PKc = comdat any

$_Z14test_variable1Ih19custom_variable_xorIhEEvPT_iS2_PKc = comdat any

$_Z14test_variable4Ih28custom_multiple_variable_xorIhEEvPT_iS2_S2_S2_S2_PKc = comdat any

$_Z14test_variable1Is19custom_add_variableIsEEvPT_iS2_PKc = comdat any

$_Z22test_hoisted_variable1Is19custom_add_variableIsEEvPT_iS2_PKc = comdat any

$_Z14test_variable4Is28custom_add_multiple_variableIsEEvPT_iS2_S2_S2_S2_PKc = comdat any

$_Z14test_variable1Is19custom_sub_variableIsEEvPT_iS2_PKc = comdat any

$_Z14test_variable4Is28custom_sub_multiple_variableIsEEvPT_iS2_S2_S2_S2_PKc = comdat any

$_Z14test_variable1Is24custom_multiply_variableIsEEvPT_iS2_PKc = comdat any

$_Z14test_variable4Is33custom_multiply_multiple_variableIsEEvPT_iS2_S2_S2_S2_PKc = comdat any

$_Z14test_variable4Is34custom_multiply_multiple_variable2IsEEvPT_iS2_S2_S2_S2_PKc = comdat any

$_Z14test_variable1Is22custom_divide_variableIsEEvPT_iS2_PKc = comdat any

$_Z14test_variable4Is31custom_divide_multiple_variableIsEEvPT_iS2_S2_S2_S2_PKc = comdat any

$_Z14test_variable4Is32custom_divide_multiple_variable2IsEEvPT_iS2_S2_S2_S2_PKc = comdat any

$_Z14test_variable4Is30custom_mixed_multiple_variableIsEEvPT_iS2_S2_S2_S2_PKc = comdat any

$_Z14test_variable1Is19custom_variable_andIsEEvPT_iS2_PKc = comdat any

$_Z14test_variable4Is28custom_multiple_variable_andIsEEvPT_iS2_S2_S2_S2_PKc = comdat any

$_Z14test_variable1Is18custom_variable_orIsEEvPT_iS2_PKc = comdat any

$_Z14test_variable4Is27custom_multiple_variable_orIsEEvPT_iS2_S2_S2_S2_PKc = comdat any

$_Z14test_variable1Is19custom_variable_xorIsEEvPT_iS2_PKc = comdat any

$_Z14test_variable4Is28custom_multiple_variable_xorIsEEvPT_iS2_S2_S2_S2_PKc = comdat any

$_Z14test_variable1It19custom_add_variableItEEvPT_iS2_PKc = comdat any

$_Z22test_hoisted_variable1It19custom_add_variableItEEvPT_iS2_PKc = comdat any

$_Z14test_variable4It28custom_add_multiple_variableItEEvPT_iS2_S2_S2_S2_PKc = comdat any

$_Z14test_variable1It19custom_sub_variableItEEvPT_iS2_PKc = comdat any

$_Z14test_variable4It28custom_sub_multiple_variableItEEvPT_iS2_S2_S2_S2_PKc = comdat any

$_Z14test_variable1It24custom_multiply_variableItEEvPT_iS2_PKc = comdat any

$_Z14test_variable4It33custom_multiply_multiple_variableItEEvPT_iS2_S2_S2_S2_PKc = comdat any

$_Z14test_variable4It34custom_multiply_multiple_variable2ItEEvPT_iS2_S2_S2_S2_PKc = comdat any

$_Z14test_variable1It22custom_divide_variableItEEvPT_iS2_PKc = comdat any

$_Z14test_variable4It31custom_divide_multiple_variableItEEvPT_iS2_S2_S2_S2_PKc = comdat any

$_Z14test_variable4It32custom_divide_multiple_variable2ItEEvPT_iS2_S2_S2_S2_PKc = comdat any

$_Z14test_variable4It30custom_mixed_multiple_variableItEEvPT_iS2_S2_S2_S2_PKc = comdat any

$_Z14test_variable1It19custom_variable_andItEEvPT_iS2_PKc = comdat any

$_Z14test_variable4It28custom_multiple_variable_andItEEvPT_iS2_S2_S2_S2_PKc = comdat any

$_Z14test_variable1It18custom_variable_orItEEvPT_iS2_PKc = comdat any

$_Z14test_variable4It27custom_multiple_variable_orItEEvPT_iS2_S2_S2_S2_PKc = comdat any

$_Z14test_variable1It19custom_variable_xorItEEvPT_iS2_PKc = comdat any

$_Z14test_variable4It28custom_multiple_variable_xorItEEvPT_iS2_S2_S2_S2_PKc = comdat any

$_Z14test_variable1Ii19custom_add_variableIiEEvPT_iS2_PKc = comdat any

$_Z22test_hoisted_variable1Ii19custom_add_variableIiEEvPT_iS2_PKc = comdat any

$_Z14test_variable4Ii28custom_add_multiple_variableIiEEvPT_iS2_S2_S2_S2_PKc = comdat any

$_Z14test_variable1Ii19custom_sub_variableIiEEvPT_iS2_PKc = comdat any

$_Z14test_variable4Ii28custom_sub_multiple_variableIiEEvPT_iS2_S2_S2_S2_PKc = comdat any

$_Z14test_variable1Ii24custom_multiply_variableIiEEvPT_iS2_PKc = comdat any

$_Z14test_variable4Ii33custom_multiply_multiple_variableIiEEvPT_iS2_S2_S2_S2_PKc = comdat any

$_Z14test_variable4Ii34custom_multiply_multiple_variable2IiEEvPT_iS2_S2_S2_S2_PKc = comdat any

$_Z14test_variable1Ii22custom_divide_variableIiEEvPT_iS2_PKc = comdat any

$_Z14test_variable4Ii31custom_divide_multiple_variableIiEEvPT_iS2_S2_S2_S2_PKc = comdat any

$_Z14test_variable4Ii32custom_divide_multiple_variable2IiEEvPT_iS2_S2_S2_S2_PKc = comdat any

$_Z14test_variable4Ii30custom_mixed_multiple_variableIiEEvPT_iS2_S2_S2_S2_PKc = comdat any

$_Z14test_variable1Ii19custom_variable_andIiEEvPT_iS2_PKc = comdat any

$_Z14test_variable4Ii28custom_multiple_variable_andIiEEvPT_iS2_S2_S2_S2_PKc = comdat any

$_Z14test_variable1Ii18custom_variable_orIiEEvPT_iS2_PKc = comdat any

$_Z14test_variable4Ii27custom_multiple_variable_orIiEEvPT_iS2_S2_S2_S2_PKc = comdat any

$_Z14test_variable1Ii19custom_variable_xorIiEEvPT_iS2_PKc = comdat any

$_Z14test_variable4Ii28custom_multiple_variable_xorIiEEvPT_iS2_S2_S2_S2_PKc = comdat any

$_Z14test_variable1Ij19custom_add_variableIjEEvPT_iS2_PKc = comdat any

$_Z22test_hoisted_variable1Ij19custom_add_variableIjEEvPT_iS2_PKc = comdat any

$_Z14test_variable4Ij28custom_add_multiple_variableIjEEvPT_iS2_S2_S2_S2_PKc = comdat any

$_Z14test_variable1Ij19custom_sub_variableIjEEvPT_iS2_PKc = comdat any

$_Z14test_variable4Ij28custom_sub_multiple_variableIjEEvPT_iS2_S2_S2_S2_PKc = comdat any

$_Z14test_variable1Ij24custom_multiply_variableIjEEvPT_iS2_PKc = comdat any

$_Z14test_variable4Ij33custom_multiply_multiple_variableIjEEvPT_iS2_S2_S2_S2_PKc = comdat any

$_Z14test_variable4Ij34custom_multiply_multiple_variable2IjEEvPT_iS2_S2_S2_S2_PKc = comdat any

$_Z14test_variable1Ij22custom_divide_variableIjEEvPT_iS2_PKc = comdat any

$_Z14test_variable4Ij31custom_divide_multiple_variableIjEEvPT_iS2_S2_S2_S2_PKc = comdat any

$_Z14test_variable4Ij32custom_divide_multiple_variable2IjEEvPT_iS2_S2_S2_S2_PKc = comdat any

$_Z14test_variable4Ij30custom_mixed_multiple_variableIjEEvPT_iS2_S2_S2_S2_PKc = comdat any

$_Z14test_variable1Ij19custom_variable_andIjEEvPT_iS2_PKc = comdat any

$_Z14test_variable4Ij28custom_multiple_variable_andIjEEvPT_iS2_S2_S2_S2_PKc = comdat any

$_Z14test_variable1Ij18custom_variable_orIjEEvPT_iS2_PKc = comdat any

$_Z14test_variable4Ij27custom_multiple_variable_orIjEEvPT_iS2_S2_S2_S2_PKc = comdat any

$_Z14test_variable1Ij19custom_variable_xorIjEEvPT_iS2_PKc = comdat any

$_Z14test_variable4Ij28custom_multiple_variable_xorIjEEvPT_iS2_S2_S2_S2_PKc = comdat any

$_Z14test_variable1Il19custom_add_variableIlEEvPT_iS2_PKc = comdat any

$_Z22test_hoisted_variable1Il19custom_add_variableIlEEvPT_iS2_PKc = comdat any

$_Z14test_variable4Il28custom_add_multiple_variableIlEEvPT_iS2_S2_S2_S2_PKc = comdat any

$_Z14test_variable1Il19custom_sub_variableIlEEvPT_iS2_PKc = comdat any

$_Z14test_variable4Il28custom_sub_multiple_variableIlEEvPT_iS2_S2_S2_S2_PKc = comdat any

$_Z14test_variable1Il24custom_multiply_variableIlEEvPT_iS2_PKc = comdat any

$_Z14test_variable4Il33custom_multiply_multiple_variableIlEEvPT_iS2_S2_S2_S2_PKc = comdat any

$_Z14test_variable4Il34custom_multiply_multiple_variable2IlEEvPT_iS2_S2_S2_S2_PKc = comdat any

$_Z14test_variable1Il22custom_divide_variableIlEEvPT_iS2_PKc = comdat any

$_Z14test_variable4Il31custom_divide_multiple_variableIlEEvPT_iS2_S2_S2_S2_PKc = comdat any

$_Z14test_variable4Il32custom_divide_multiple_variable2IlEEvPT_iS2_S2_S2_S2_PKc = comdat any

$_Z14test_variable4Il30custom_mixed_multiple_variableIlEEvPT_iS2_S2_S2_S2_PKc = comdat any

$_Z14test_variable1Il19custom_variable_andIlEEvPT_iS2_PKc = comdat any

$_Z14test_variable4Il28custom_multiple_variable_andIlEEvPT_iS2_S2_S2_S2_PKc = comdat any

$_Z14test_variable1Il18custom_variable_orIlEEvPT_iS2_PKc = comdat any

$_Z14test_variable4Il27custom_multiple_variable_orIlEEvPT_iS2_S2_S2_S2_PKc = comdat any

$_Z14test_variable1Il19custom_variable_xorIlEEvPT_iS2_PKc = comdat any

$_Z14test_variable4Il28custom_multiple_variable_xorIlEEvPT_iS2_S2_S2_S2_PKc = comdat any

$_Z14test_variable1Im19custom_add_variableImEEvPT_iS2_PKc = comdat any

$_Z22test_hoisted_variable1Im19custom_add_variableImEEvPT_iS2_PKc = comdat any

$_Z14test_variable4Im28custom_add_multiple_variableImEEvPT_iS2_S2_S2_S2_PKc = comdat any

$_Z14test_variable1Im19custom_sub_variableImEEvPT_iS2_PKc = comdat any

$_Z14test_variable4Im28custom_sub_multiple_variableImEEvPT_iS2_S2_S2_S2_PKc = comdat any

$_Z14test_variable1Im24custom_multiply_variableImEEvPT_iS2_PKc = comdat any

$_Z14test_variable4Im33custom_multiply_multiple_variableImEEvPT_iS2_S2_S2_S2_PKc = comdat any

$_Z14test_variable4Im34custom_multiply_multiple_variable2ImEEvPT_iS2_S2_S2_S2_PKc = comdat any

$_Z14test_variable1Im22custom_divide_variableImEEvPT_iS2_PKc = comdat any

$_Z14test_variable4Im31custom_divide_multiple_variableImEEvPT_iS2_S2_S2_S2_PKc = comdat any

$_Z14test_variable4Im32custom_divide_multiple_variable2ImEEvPT_iS2_S2_S2_S2_PKc = comdat any

$_Z14test_variable4Im30custom_mixed_multiple_variableImEEvPT_iS2_S2_S2_S2_PKc = comdat any

$_Z14test_variable1Im19custom_variable_andImEEvPT_iS2_PKc = comdat any

$_Z14test_variable4Im28custom_multiple_variable_andImEEvPT_iS2_S2_S2_S2_PKc = comdat any

$_Z14test_variable1Im18custom_variable_orImEEvPT_iS2_PKc = comdat any

$_Z14test_variable4Im27custom_multiple_variable_orImEEvPT_iS2_S2_S2_S2_PKc = comdat any

$_Z14test_variable1Im19custom_variable_xorImEEvPT_iS2_PKc = comdat any

$_Z14test_variable4Im28custom_multiple_variable_xorImEEvPT_iS2_S2_S2_S2_PKc = comdat any

$_Z14test_variable1If19custom_add_variableIfEEvPT_iS2_PKc = comdat any

$_Z22test_hoisted_variable1If19custom_add_variableIfEEvPT_iS2_PKc = comdat any

$_Z14test_variable4If28custom_add_multiple_variableIfEEvPT_iS2_S2_S2_S2_PKc = comdat any

$_Z14test_variable1If19custom_sub_variableIfEEvPT_iS2_PKc = comdat any

$_Z14test_variable4If28custom_sub_multiple_variableIfEEvPT_iS2_S2_S2_S2_PKc = comdat any

$_Z14test_variable1If24custom_multiply_variableIfEEvPT_iS2_PKc = comdat any

$_Z14test_variable4If33custom_multiply_multiple_variableIfEEvPT_iS2_S2_S2_S2_PKc = comdat any

$_Z14test_variable4If34custom_multiply_multiple_variable2IfEEvPT_iS2_S2_S2_S2_PKc = comdat any

$_Z14test_variable1If22custom_divide_variableIfEEvPT_iS2_PKc = comdat any

$_Z14test_variable4If31custom_divide_multiple_variableIfEEvPT_iS2_S2_S2_S2_PKc = comdat any

$_Z14test_variable4If32custom_divide_multiple_variable2IfEEvPT_iS2_S2_S2_S2_PKc = comdat any

$_Z14test_variable4If30custom_mixed_multiple_variableIfEEvPT_iS2_S2_S2_S2_PKc = comdat any

$_Z14test_variable1Id19custom_add_variableIdEEvPT_iS2_PKc = comdat any

$_Z22test_hoisted_variable1Id19custom_add_variableIdEEvPT_iS2_PKc = comdat any

$_Z14test_variable4Id28custom_add_multiple_variableIdEEvPT_iS2_S2_S2_S2_PKc = comdat any

$_Z14test_variable1Id19custom_sub_variableIdEEvPT_iS2_PKc = comdat any

$_Z14test_variable4Id28custom_sub_multiple_variableIdEEvPT_iS2_S2_S2_S2_PKc = comdat any

$_Z14test_variable1Id24custom_multiply_variableIdEEvPT_iS2_PKc = comdat any

$_Z14test_variable4Id33custom_multiply_multiple_variableIdEEvPT_iS2_S2_S2_S2_PKc = comdat any

$_Z14test_variable4Id34custom_multiply_multiple_variable2IdEEvPT_iS2_S2_S2_S2_PKc = comdat any

$_Z14test_variable1Id22custom_divide_variableIdEEvPT_iS2_PKc = comdat any

$_Z14test_variable4Id31custom_divide_multiple_variableIdEEvPT_iS2_S2_S2_S2_PKc = comdat any

$_Z14test_variable4Id32custom_divide_multiple_variable2IdEEvPT_iS2_S2_S2_S2_PKc = comdat any

$_Z14test_variable4Id30custom_mixed_multiple_variableIdEEvPT_iS2_S2_S2_S2_PKc = comdat any

@results = dso_local local_unnamed_addr global ptr null, align 8
@current_test = dso_local local_unnamed_addr global i32 0, align 4
@allocated_results = dso_local local_unnamed_addr global i32 0, align 4
@.str = private unnamed_addr constant [31 x i8] c"Could not allocate %d results\0A\00", align 1
@.str.1 = private unnamed_addr constant [60 x i8] c"\0Atest %*s description   absolute   operations   ratio with\0A\00", align 1
@.str.2 = private unnamed_addr constant [2 x i8] c" \00", align 1
@.str.3 = private unnamed_addr constant [43 x i8] c"number %*s time       per second   test0\0A\0A\00", align 1
@.str.4 = private unnamed_addr constant [43 x i8] c"%2i %*s\22%s\22  %5.2f sec   %5.2f M     %.2f\0A\00", align 1
@.str.5 = private unnamed_addr constant [1 x i8] zeroinitializer, align 1
@.str.6 = private unnamed_addr constant [39 x i8] c"\0ATotal absolute time for %s: %.2f sec\0A\00", align 1
@.str.7 = private unnamed_addr constant [20 x i8] c"\0A%s Penalty: %.2f\0A\0A\00", align 1
@.str.8 = private unnamed_addr constant [34 x i8] c"\0Atest %*s description   absolute\0A\00", align 1
@.str.9 = private unnamed_addr constant [18 x i8] c"number %*s time\0A\0A\00", align 1
@.str.10 = private unnamed_addr constant [24 x i8] c"%2i %*s\22%s\22  %5.2f sec\0A\00", align 1
@start_time = dso_local local_unnamed_addr global i64 0, align 8
@end_time = dso_local local_unnamed_addr global i64 0, align 8
@iterations = dso_local local_unnamed_addr global i32 1000, align 4
@init_value = dso_local local_unnamed_addr global double 1.000000e+00, align 8
@dataDouble = dso_local global [8000 x double] zeroinitializer, align 16
@dataFloat = dso_local global [8000 x float] zeroinitializer, align 16
@data64unsigned = dso_local global [8000 x i64] zeroinitializer, align 16
@data64 = dso_local global [8000 x i64] zeroinitializer, align 16
@data32unsigned = dso_local global [8000 x i32] zeroinitializer, align 16
@data32 = dso_local global [8000 x i32] zeroinitializer, align 16
@data16unsigned = dso_local global [8000 x i16] zeroinitializer, align 16
@data16 = dso_local global [8000 x i16] zeroinitializer, align 16
@data8unsigned = dso_local global [8000 x i8] zeroinitializer, align 16
@data8 = dso_local global [8000 x i8] zeroinitializer, align 16
@.str.11 = private unnamed_addr constant [20 x i8] c"int8_t variable add\00", align 1
@.str.12 = private unnamed_addr constant [28 x i8] c"int8_t variable add hoisted\00", align 1
@.str.13 = private unnamed_addr constant [30 x i8] c"int8_t multiple variable adds\00", align 1
@.str.14 = private unnamed_addr constant [25 x i8] c"int8_t variable subtract\00", align 1
@.str.15 = private unnamed_addr constant [35 x i8] c"int8_t multiple variable subtracts\00", align 1
@.str.16 = private unnamed_addr constant [25 x i8] c"int8_t variable multiply\00", align 1
@.str.17 = private unnamed_addr constant [36 x i8] c"int8_t multiple variable multiplies\00", align 1
@.str.18 = private unnamed_addr constant [37 x i8] c"int8_t multiple variable multiplies2\00", align 1
@.str.19 = private unnamed_addr constant [23 x i8] c"int8_t variable divide\00", align 1
@.str.20 = private unnamed_addr constant [33 x i8] c"int8_t multiple variable divides\00", align 1
@.str.21 = private unnamed_addr constant [34 x i8] c"int8_t multiple variable divides2\00", align 1
@.str.22 = private unnamed_addr constant [31 x i8] c"int8_t multiple variable mixed\00", align 1
@.str.23 = private unnamed_addr constant [20 x i8] c"int8_t variable and\00", align 1
@.str.24 = private unnamed_addr constant [29 x i8] c"int8_t multiple variable and\00", align 1
@.str.25 = private unnamed_addr constant [19 x i8] c"int8_t variable or\00", align 1
@.str.26 = private unnamed_addr constant [28 x i8] c"int8_t multiple variable or\00", align 1
@.str.27 = private unnamed_addr constant [20 x i8] c"int8_t variable xor\00", align 1
@.str.28 = private unnamed_addr constant [29 x i8] c"int8_t multiple variable xor\00", align 1
@.str.29 = private unnamed_addr constant [21 x i8] c"uint8_t variable add\00", align 1
@.str.30 = private unnamed_addr constant [29 x i8] c"uint8_t variable add hoisted\00", align 1
@.str.31 = private unnamed_addr constant [31 x i8] c"uint8_t multiple variable adds\00", align 1
@.str.32 = private unnamed_addr constant [26 x i8] c"uint8_t variable subtract\00", align 1
@.str.33 = private unnamed_addr constant [36 x i8] c"uint8_t multiple variable subtracts\00", align 1
@.str.34 = private unnamed_addr constant [26 x i8] c"uint8_t variable multiply\00", align 1
@.str.35 = private unnamed_addr constant [37 x i8] c"uint8_t multiple variable multiplies\00", align 1
@.str.36 = private unnamed_addr constant [38 x i8] c"uint8_t multiple variable multiplies2\00", align 1
@.str.37 = private unnamed_addr constant [24 x i8] c"uint8_t variable divide\00", align 1
@.str.38 = private unnamed_addr constant [34 x i8] c"uint8_t multiple variable divides\00", align 1
@.str.39 = private unnamed_addr constant [35 x i8] c"uint8_t multiple variable divides2\00", align 1
@.str.40 = private unnamed_addr constant [32 x i8] c"uint8_t multiple variable mixed\00", align 1
@.str.41 = private unnamed_addr constant [21 x i8] c"uint8_t variable and\00", align 1
@.str.42 = private unnamed_addr constant [30 x i8] c"uint8_t multiple variable and\00", align 1
@.str.43 = private unnamed_addr constant [20 x i8] c"uint8_t variable or\00", align 1
@.str.44 = private unnamed_addr constant [29 x i8] c"uint8_t multiple variable or\00", align 1
@.str.45 = private unnamed_addr constant [21 x i8] c"uint8_t variable xor\00", align 1
@.str.46 = private unnamed_addr constant [30 x i8] c"uint8_t multiple variable xor\00", align 1
@.str.47 = private unnamed_addr constant [21 x i8] c"int16_t variable add\00", align 1
@.str.48 = private unnamed_addr constant [29 x i8] c"int16_t variable add hoisted\00", align 1
@.str.49 = private unnamed_addr constant [31 x i8] c"int16_t multiple variable adds\00", align 1
@.str.50 = private unnamed_addr constant [26 x i8] c"int16_t variable subtract\00", align 1
@.str.51 = private unnamed_addr constant [36 x i8] c"int16_t multiple variable subtracts\00", align 1
@.str.52 = private unnamed_addr constant [26 x i8] c"int16_t variable multiply\00", align 1
@.str.53 = private unnamed_addr constant [37 x i8] c"int16_t multiple variable multiplies\00", align 1
@.str.54 = private unnamed_addr constant [38 x i8] c"int16_t multiple variable multiplies2\00", align 1
@.str.55 = private unnamed_addr constant [24 x i8] c"int16_t variable divide\00", align 1
@.str.56 = private unnamed_addr constant [34 x i8] c"int16_t multiple variable divides\00", align 1
@.str.57 = private unnamed_addr constant [35 x i8] c"int16_t multiple variable divides2\00", align 1
@.str.58 = private unnamed_addr constant [32 x i8] c"int16_t multiple variable mixed\00", align 1
@.str.59 = private unnamed_addr constant [21 x i8] c"int16_t variable and\00", align 1
@.str.60 = private unnamed_addr constant [30 x i8] c"int16_t multiple variable and\00", align 1
@.str.61 = private unnamed_addr constant [20 x i8] c"int16_t variable or\00", align 1
@.str.62 = private unnamed_addr constant [29 x i8] c"int16_t multiple variable or\00", align 1
@.str.63 = private unnamed_addr constant [21 x i8] c"int16_t variable xor\00", align 1
@.str.64 = private unnamed_addr constant [30 x i8] c"int16_t multiple variable xor\00", align 1
@.str.65 = private unnamed_addr constant [22 x i8] c"uint16_t variable add\00", align 1
@.str.66 = private unnamed_addr constant [30 x i8] c"uint16_t variable add hoisted\00", align 1
@.str.67 = private unnamed_addr constant [32 x i8] c"uint16_t multiple variable adds\00", align 1
@.str.68 = private unnamed_addr constant [27 x i8] c"uint16_t variable subtract\00", align 1
@.str.69 = private unnamed_addr constant [37 x i8] c"uint16_t multiple variable subtracts\00", align 1
@.str.70 = private unnamed_addr constant [27 x i8] c"uint16_t variable multiply\00", align 1
@.str.71 = private unnamed_addr constant [38 x i8] c"uint16_t multiple variable multiplies\00", align 1
@.str.72 = private unnamed_addr constant [39 x i8] c"uint16_t multiple variable multiplies2\00", align 1
@.str.73 = private unnamed_addr constant [25 x i8] c"uint16_t variable divide\00", align 1
@.str.74 = private unnamed_addr constant [35 x i8] c"uint16_t multiple variable divides\00", align 1
@.str.75 = private unnamed_addr constant [36 x i8] c"uint16_t multiple variable divides2\00", align 1
@.str.76 = private unnamed_addr constant [33 x i8] c"uint16_t multiple variable mixed\00", align 1
@.str.77 = private unnamed_addr constant [22 x i8] c"uint16_t variable and\00", align 1
@.str.78 = private unnamed_addr constant [31 x i8] c"uint16_t multiple variable and\00", align 1
@.str.79 = private unnamed_addr constant [21 x i8] c"uint16_t variable or\00", align 1
@.str.80 = private unnamed_addr constant [30 x i8] c"uint16_t multiple variable or\00", align 1
@.str.81 = private unnamed_addr constant [22 x i8] c"uint16_t variable xor\00", align 1
@.str.82 = private unnamed_addr constant [31 x i8] c"uint16_t multiple variable xor\00", align 1
@.str.83 = private unnamed_addr constant [21 x i8] c"int32_t variable add\00", align 1
@.str.84 = private unnamed_addr constant [29 x i8] c"int32_t variable add hoisted\00", align 1
@.str.85 = private unnamed_addr constant [31 x i8] c"int32_t multiple variable adds\00", align 1
@.str.86 = private unnamed_addr constant [26 x i8] c"int32_t variable subtract\00", align 1
@.str.87 = private unnamed_addr constant [36 x i8] c"int32_t multiple variable subtracts\00", align 1
@.str.88 = private unnamed_addr constant [26 x i8] c"int32_t variable multiply\00", align 1
@.str.89 = private unnamed_addr constant [37 x i8] c"int32_t multiple variable multiplies\00", align 1
@.str.90 = private unnamed_addr constant [38 x i8] c"int32_t multiple variable multiplies2\00", align 1
@.str.91 = private unnamed_addr constant [24 x i8] c"int32_t variable divide\00", align 1
@.str.92 = private unnamed_addr constant [34 x i8] c"int32_t multiple variable divides\00", align 1
@.str.93 = private unnamed_addr constant [35 x i8] c"int32_t multiple variable divides2\00", align 1
@.str.94 = private unnamed_addr constant [32 x i8] c"int32_t multiple variable mixed\00", align 1
@.str.95 = private unnamed_addr constant [21 x i8] c"int32_t variable and\00", align 1
@.str.96 = private unnamed_addr constant [30 x i8] c"int32_t multiple variable and\00", align 1
@.str.97 = private unnamed_addr constant [20 x i8] c"int32_t variable or\00", align 1
@.str.98 = private unnamed_addr constant [29 x i8] c"int32_t multiple variable or\00", align 1
@.str.99 = private unnamed_addr constant [21 x i8] c"int32_t variable xor\00", align 1
@.str.100 = private unnamed_addr constant [30 x i8] c"int32_t multiple variable xor\00", align 1
@.str.101 = private unnamed_addr constant [22 x i8] c"uint32_t variable add\00", align 1
@.str.102 = private unnamed_addr constant [30 x i8] c"uint32_t variable add hoisted\00", align 1
@.str.103 = private unnamed_addr constant [32 x i8] c"uint32_t multiple variable adds\00", align 1
@.str.104 = private unnamed_addr constant [27 x i8] c"uint32_t variable subtract\00", align 1
@.str.105 = private unnamed_addr constant [37 x i8] c"uint32_t multiple variable subtracts\00", align 1
@.str.106 = private unnamed_addr constant [27 x i8] c"uint32_t variable multiply\00", align 1
@.str.107 = private unnamed_addr constant [38 x i8] c"uint32_t multiple variable multiplies\00", align 1
@.str.108 = private unnamed_addr constant [39 x i8] c"uint32_t multiple variable multiplies2\00", align 1
@.str.109 = private unnamed_addr constant [25 x i8] c"uint32_t variable divide\00", align 1
@.str.110 = private unnamed_addr constant [35 x i8] c"uint32_t multiple variable divides\00", align 1
@.str.111 = private unnamed_addr constant [36 x i8] c"uint32_t multiple variable divides2\00", align 1
@.str.112 = private unnamed_addr constant [33 x i8] c"uint32_t multiple variable mixed\00", align 1
@.str.113 = private unnamed_addr constant [22 x i8] c"uint32_t variable and\00", align 1
@.str.114 = private unnamed_addr constant [31 x i8] c"uint32_t multiple variable and\00", align 1
@.str.115 = private unnamed_addr constant [21 x i8] c"uint32_t variable or\00", align 1
@.str.116 = private unnamed_addr constant [30 x i8] c"uint32_t multiple variable or\00", align 1
@.str.117 = private unnamed_addr constant [22 x i8] c"uint32_t variable xor\00", align 1
@.str.118 = private unnamed_addr constant [31 x i8] c"uint32_t multiple variable xor\00", align 1
@.str.119 = private unnamed_addr constant [21 x i8] c"int64_t variable add\00", align 1
@.str.120 = private unnamed_addr constant [29 x i8] c"int64_t variable add hoisted\00", align 1
@.str.121 = private unnamed_addr constant [31 x i8] c"int64_t multiple variable adds\00", align 1
@.str.122 = private unnamed_addr constant [26 x i8] c"int64_t variable subtract\00", align 1
@.str.123 = private unnamed_addr constant [36 x i8] c"int64_t multiple variable subtracts\00", align 1
@.str.124 = private unnamed_addr constant [26 x i8] c"int64_t variable multiply\00", align 1
@.str.125 = private unnamed_addr constant [37 x i8] c"int64_t multiple variable multiplies\00", align 1
@.str.126 = private unnamed_addr constant [38 x i8] c"int64_t multiple variable multiplies2\00", align 1
@.str.127 = private unnamed_addr constant [24 x i8] c"int64_t variable divide\00", align 1
@.str.128 = private unnamed_addr constant [34 x i8] c"int64_t multiple variable divides\00", align 1
@.str.129 = private unnamed_addr constant [35 x i8] c"int64_t multiple variable divides2\00", align 1
@.str.130 = private unnamed_addr constant [32 x i8] c"int64_t multiple variable mixed\00", align 1
@.str.131 = private unnamed_addr constant [21 x i8] c"int64_t variable and\00", align 1
@.str.132 = private unnamed_addr constant [30 x i8] c"int64_t multiple variable and\00", align 1
@.str.133 = private unnamed_addr constant [20 x i8] c"int64_t variable or\00", align 1
@.str.134 = private unnamed_addr constant [29 x i8] c"int64_t multiple variable or\00", align 1
@.str.135 = private unnamed_addr constant [21 x i8] c"int64_t variable xor\00", align 1
@.str.136 = private unnamed_addr constant [30 x i8] c"int64_t multiple variable xor\00", align 1
@.str.137 = private unnamed_addr constant [22 x i8] c"uint64_t variable add\00", align 1
@.str.138 = private unnamed_addr constant [30 x i8] c"uint64_t variable add hoisted\00", align 1
@.str.139 = private unnamed_addr constant [32 x i8] c"uint64_t multiple variable adds\00", align 1
@.str.140 = private unnamed_addr constant [27 x i8] c"uint64_t variable subtract\00", align 1
@.str.141 = private unnamed_addr constant [37 x i8] c"uint64_t multiple variable subtracts\00", align 1
@.str.142 = private unnamed_addr constant [27 x i8] c"uint64_t variable multiply\00", align 1
@.str.143 = private unnamed_addr constant [38 x i8] c"uint64_t multiple variable multiplies\00", align 1
@.str.144 = private unnamed_addr constant [39 x i8] c"uint64_t multiple variable multiplies2\00", align 1
@.str.145 = private unnamed_addr constant [25 x i8] c"uint64_t variable divide\00", align 1
@.str.146 = private unnamed_addr constant [35 x i8] c"uint64_t multiple variable divides\00", align 1
@.str.147 = private unnamed_addr constant [36 x i8] c"uint64_t multiple variable divides2\00", align 1
@.str.148 = private unnamed_addr constant [33 x i8] c"uint64_t multiple variable mixed\00", align 1
@.str.149 = private unnamed_addr constant [22 x i8] c"uint64_t variable and\00", align 1
@.str.150 = private unnamed_addr constant [31 x i8] c"uint64_t multiple variable and\00", align 1
@.str.151 = private unnamed_addr constant [21 x i8] c"uint64_t variable or\00", align 1
@.str.152 = private unnamed_addr constant [30 x i8] c"uint64_t multiple variable or\00", align 1
@.str.153 = private unnamed_addr constant [22 x i8] c"uint64_t variable xor\00", align 1
@.str.154 = private unnamed_addr constant [31 x i8] c"uint64_t multiple variable xor\00", align 1
@.str.155 = private unnamed_addr constant [19 x i8] c"float variable add\00", align 1
@.str.156 = private unnamed_addr constant [27 x i8] c"float variable add hoisted\00", align 1
@.str.157 = private unnamed_addr constant [29 x i8] c"float multiple variable adds\00", align 1
@.str.158 = private unnamed_addr constant [24 x i8] c"float variable subtract\00", align 1
@.str.159 = private unnamed_addr constant [34 x i8] c"float multiple variable subtracts\00", align 1
@.str.160 = private unnamed_addr constant [24 x i8] c"float variable multiply\00", align 1
@.str.161 = private unnamed_addr constant [35 x i8] c"float multiple variable multiplies\00", align 1
@.str.162 = private unnamed_addr constant [36 x i8] c"float multiple variable multiplies2\00", align 1
@.str.163 = private unnamed_addr constant [22 x i8] c"float variable divide\00", align 1
@.str.164 = private unnamed_addr constant [32 x i8] c"float multiple variable divides\00", align 1
@.str.165 = private unnamed_addr constant [33 x i8] c"float multiple variable divides2\00", align 1
@.str.166 = private unnamed_addr constant [30 x i8] c"float multiple variable mixed\00", align 1
@.str.167 = private unnamed_addr constant [20 x i8] c"double variable add\00", align 1
@.str.168 = private unnamed_addr constant [28 x i8] c"double variable add hoisted\00", align 1
@.str.169 = private unnamed_addr constant [30 x i8] c"double multiple variable adds\00", align 1
@.str.170 = private unnamed_addr constant [25 x i8] c"double variable subtract\00", align 1
@.str.171 = private unnamed_addr constant [35 x i8] c"double multiple variable subtracts\00", align 1
@.str.172 = private unnamed_addr constant [25 x i8] c"double variable multiply\00", align 1
@.str.173 = private unnamed_addr constant [36 x i8] c"double multiple variable multiplies\00", align 1
@.str.174 = private unnamed_addr constant [37 x i8] c"double multiple variable multiplies2\00", align 1
@.str.175 = private unnamed_addr constant [23 x i8] c"double variable divide\00", align 1
@.str.176 = private unnamed_addr constant [33 x i8] c"double multiple variable divides\00", align 1
@.str.177 = private unnamed_addr constant [34 x i8] c"double multiple variable divides2\00", align 1
@.str.178 = private unnamed_addr constant [31 x i8] c"double multiple variable mixed\00", align 1
@.str.179 = private unnamed_addr constant [16 x i8] c"test %i failed\0A\00", align 1

; Function Attrs: mustprogress nounwind uwtable
define dso_local void @_Z13record_resultdPKc(double noundef %0, ptr noundef %1) local_unnamed_addr #0 {
  %3 = load ptr, ptr @results, align 8, !tbaa !5
  %4 = icmp eq ptr %3, null
  br i1 %4, label %5, label %7

5:                                                ; preds = %2
  %6 = load i32, ptr @allocated_results, align 4, !tbaa !9
  br label %11

7:                                                ; preds = %2
  %8 = load i32, ptr @current_test, align 4, !tbaa !9
  %9 = load i32, ptr @allocated_results, align 4, !tbaa !9
  %10 = icmp slt i32 %8, %9
  br i1 %10, label %23, label %11

11:                                               ; preds = %5, %7
  %12 = phi i32 [ %6, %5 ], [ %9, %7 ]
  %13 = add nsw i32 %12, 10
  store i32 %13, ptr @allocated_results, align 4, !tbaa !9
  %14 = sext i32 %13 to i64
  %15 = shl nsw i64 %14, 4
  %16 = tail call ptr @realloc(ptr noundef %3, i64 noundef %15) #14
  store ptr %16, ptr @results, align 8, !tbaa !5
  %17 = icmp eq ptr %16, null
  br i1 %17, label %20, label %18

18:                                               ; preds = %11
  %19 = load i32, ptr @current_test, align 4, !tbaa !9
  br label %23

20:                                               ; preds = %11
  %21 = load i32, ptr @allocated_results, align 4, !tbaa !9
  %22 = tail call i32 (ptr, ...) @printf(ptr noundef nonnull dereferenceable(1) @.str, i32 noundef %21)
  tail call void @exit(i32 noundef -1) #15
  unreachable

23:                                               ; preds = %18, %7
  %24 = phi i32 [ %19, %18 ], [ %8, %7 ]
  %25 = phi ptr [ %16, %18 ], [ %3, %7 ]
  %26 = sext i32 %24 to i64
  %27 = getelementptr inbounds %struct.one_result, ptr %25, i64 %26
  store double %0, ptr %27, align 8, !tbaa !11
  %28 = getelementptr inbounds %struct.one_result, ptr %25, i64 %26, i32 1
  store ptr %1, ptr %28, align 8, !tbaa !14
  %29 = add nsw i32 %24, 1
  store i32 %29, ptr @current_test, align 4, !tbaa !9
  ret void
}

; Function Attrs: mustprogress nounwind willreturn allockind("realloc") allocsize(1) memory(argmem: readwrite, inaccessiblemem: readwrite)
declare noalias noundef ptr @realloc(ptr allocptr nocapture noundef, i64 noundef) local_unnamed_addr #1

; Function Attrs: nofree nounwind
declare noundef i32 @printf(ptr nocapture noundef readonly, ...) local_unnamed_addr #2

; Function Attrs: noreturn nounwind
declare void @exit(i32 noundef) local_unnamed_addr #3

; Function Attrs: mustprogress nofree nounwind uwtable
define dso_local void @_Z9summarizePKciiii(ptr noundef %0, i32 noundef %1, i32 noundef %2, i32 noundef %3, i32 noundef %4) local_unnamed_addr #4 {
  %6 = sitofp i32 %1 to double
  %7 = sitofp i32 %2 to double
  %8 = fmul double %6, %7
  %9 = fdiv double %8, 1.000000e+06
  %10 = load i32, ptr @current_test, align 4, !tbaa !9
  %11 = icmp sgt i32 %10, 0
  br i1 %11, label %12, label %25

12:                                               ; preds = %5
  %13 = load ptr, ptr @results, align 8, !tbaa !5
  %14 = zext i32 %10 to i64
  br label %15

15:                                               ; preds = %12, %15
  %16 = phi i64 [ 0, %12 ], [ %23, %15 ]
  %17 = phi i32 [ 12, %12 ], [ %22, %15 ]
  %18 = getelementptr inbounds %struct.one_result, ptr %13, i64 %16, i32 1
  %19 = load ptr, ptr %18, align 8, !tbaa !14
  %20 = tail call i64 @strlen(ptr noundef nonnull dereferenceable(1) %19) #16
  %21 = trunc i64 %20 to i32
  %22 = tail call i32 @llvm.smax.i32(i32 %17, i32 %21)
  %23 = add nuw nsw i64 %16, 1
  %24 = icmp eq i64 %23, %14
  br i1 %24, label %25, label %15, !llvm.loop !15

25:                                               ; preds = %15, %5
  %26 = phi i32 [ 12, %5 ], [ %22, %15 ]
  %27 = add nsw i32 %26, -12
  %28 = tail call i32 (ptr, ...) @printf(ptr noundef nonnull dereferenceable(1) @.str.1, i32 noundef %27, ptr noundef nonnull @.str.2)
  %29 = tail call i32 (ptr, ...) @printf(ptr noundef nonnull dereferenceable(1) @.str.3, i32 noundef %26, ptr noundef nonnull @.str.2)
  %30 = load i32, ptr @current_test, align 4, !tbaa !9
  %31 = icmp sgt i32 %30, 0
  br i1 %31, label %41, label %97

32:                                               ; preds = %41
  %33 = icmp sgt i32 %57, 0
  br i1 %33, label %34, label %97

34:                                               ; preds = %32
  %35 = load ptr, ptr @results, align 8, !tbaa !5
  %36 = zext i32 %57 to i64
  %37 = and i64 %36, 3
  %38 = icmp ult i32 %57, 4
  br i1 %38, label %82, label %39

39:                                               ; preds = %34
  %40 = and i64 %36, 4294967292
  br label %60

41:                                               ; preds = %25, %41
  %42 = phi i64 [ %56, %41 ], [ 0, %25 ]
  %43 = load ptr, ptr @results, align 8, !tbaa !5
  %44 = getelementptr inbounds %struct.one_result, ptr %43, i64 %42
  %45 = getelementptr inbounds %struct.one_result, ptr %43, i64 %42, i32 1
  %46 = load ptr, ptr %45, align 8, !tbaa !14
  %47 = tail call i64 @strlen(ptr noundef nonnull dereferenceable(1) %46) #16
  %48 = trunc i64 %47 to i32
  %49 = sub i32 %26, %48
  %50 = load double, ptr %44, align 8, !tbaa !11
  %51 = fdiv double %9, %50
  %52 = load double, ptr %43, align 8, !tbaa !11
  %53 = fdiv double %50, %52
  %54 = trunc i64 %42 to i32
  %55 = tail call i32 (ptr, ...) @printf(ptr noundef nonnull dereferenceable(1) @.str.4, i32 noundef %54, i32 noundef %49, ptr noundef nonnull @.str.5, ptr noundef %46, double noundef %50, double noundef %51, double noundef %53)
  %56 = add nuw nsw i64 %42, 1
  %57 = load i32, ptr @current_test, align 4, !tbaa !9
  %58 = sext i32 %57 to i64
  %59 = icmp slt i64 %56, %58
  br i1 %59, label %41, label %32, !llvm.loop !17

60:                                               ; preds = %60, %39
  %61 = phi i64 [ 0, %39 ], [ %79, %60 ]
  %62 = phi double [ 0.000000e+00, %39 ], [ %78, %60 ]
  %63 = phi i64 [ 0, %39 ], [ %80, %60 ]
  %64 = getelementptr inbounds %struct.one_result, ptr %35, i64 %61
  %65 = load double, ptr %64, align 8, !tbaa !11
  %66 = fadd double %62, %65
  %67 = or i64 %61, 1
  %68 = getelementptr inbounds %struct.one_result, ptr %35, i64 %67
  %69 = load double, ptr %68, align 8, !tbaa !11
  %70 = fadd double %66, %69
  %71 = or i64 %61, 2
  %72 = getelementptr inbounds %struct.one_result, ptr %35, i64 %71
  %73 = load double, ptr %72, align 8, !tbaa !11
  %74 = fadd double %70, %73
  %75 = or i64 %61, 3
  %76 = getelementptr inbounds %struct.one_result, ptr %35, i64 %75
  %77 = load double, ptr %76, align 8, !tbaa !11
  %78 = fadd double %74, %77
  %79 = add nuw nsw i64 %61, 4
  %80 = add i64 %63, 4
  %81 = icmp eq i64 %80, %40
  br i1 %81, label %82, label %60, !llvm.loop !18

82:                                               ; preds = %60, %34
  %83 = phi double [ undef, %34 ], [ %78, %60 ]
  %84 = phi i64 [ 0, %34 ], [ %79, %60 ]
  %85 = phi double [ 0.000000e+00, %34 ], [ %78, %60 ]
  %86 = icmp eq i64 %37, 0
  br i1 %86, label %97, label %87

87:                                               ; preds = %82, %87
  %88 = phi i64 [ %94, %87 ], [ %84, %82 ]
  %89 = phi double [ %93, %87 ], [ %85, %82 ]
  %90 = phi i64 [ %95, %87 ], [ 0, %82 ]
  %91 = getelementptr inbounds %struct.one_result, ptr %35, i64 %88
  %92 = load double, ptr %91, align 8, !tbaa !11
  %93 = fadd double %89, %92
  %94 = add nuw nsw i64 %88, 1
  %95 = add i64 %90, 1
  %96 = icmp eq i64 %95, %37
  br i1 %96, label %97, label %87, !llvm.loop !19

97:                                               ; preds = %82, %87, %25, %32
  %98 = phi double [ 0.000000e+00, %32 ], [ 0.000000e+00, %25 ], [ %83, %82 ], [ %93, %87 ]
  %99 = tail call i32 (ptr, ...) @printf(ptr noundef nonnull dereferenceable(1) @.str.6, ptr noundef %0, double noundef %98)
  %100 = load i32, ptr @current_test, align 4, !tbaa !9
  %101 = icmp sgt i32 %100, 1
  %102 = icmp ne i32 %4, 0
  %103 = and i1 %102, %101
  br i1 %103, label %104, label %124

104:                                              ; preds = %97, %104
  %105 = phi i64 [ %114, %104 ], [ 1, %97 ]
  %106 = phi double [ %113, %104 ], [ 0.000000e+00, %97 ]
  %107 = load ptr, ptr @results, align 8, !tbaa !5
  %108 = getelementptr inbounds %struct.one_result, ptr %107, i64 %105
  %109 = load double, ptr %108, align 8, !tbaa !11
  %110 = load double, ptr %107, align 8, !tbaa !11
  %111 = fdiv double %109, %110
  %112 = tail call double @log(double noundef %111) #17
  %113 = fadd double %106, %112
  %114 = add nuw nsw i64 %105, 1
  %115 = load i32, ptr @current_test, align 4, !tbaa !9
  %116 = sext i32 %115 to i64
  %117 = icmp slt i64 %114, %116
  br i1 %117, label %104, label %118, !llvm.loop !21

118:                                              ; preds = %104
  %119 = add nsw i32 %115, -1
  %120 = sitofp i32 %119 to double
  %121 = fdiv double %113, %120
  %122 = tail call double @exp(double noundef %121) #17
  %123 = tail call i32 (ptr, ...) @printf(ptr noundef nonnull dereferenceable(1) @.str.7, ptr noundef %0, double noundef %122)
  br label %124

124:                                              ; preds = %118, %97
  store i32 0, ptr @current_test, align 4, !tbaa !9
  ret void
}

; Function Attrs: mustprogress nofree nounwind willreturn memory(argmem: read)
declare i64 @strlen(ptr nocapture noundef) local_unnamed_addr #5

; Function Attrs: mustprogress nofree nounwind willreturn memory(write)
declare double @log(double noundef) local_unnamed_addr #6

; Function Attrs: mustprogress nofree nounwind willreturn memory(write)
declare double @exp(double noundef) local_unnamed_addr #6

; Function Attrs: mustprogress nofree nounwind uwtable
define dso_local void @_Z17summarize_simplefP8_IO_FILEPKc(ptr nocapture noundef %0, ptr noundef %1) local_unnamed_addr #4 {
  %3 = load i32, ptr @current_test, align 4, !tbaa !9
  %4 = icmp sgt i32 %3, 0
  br i1 %4, label %5, label %18

5:                                                ; preds = %2
  %6 = load ptr, ptr @results, align 8, !tbaa !5
  %7 = zext i32 %3 to i64
  br label %8

8:                                                ; preds = %5, %8
  %9 = phi i64 [ 0, %5 ], [ %16, %8 ]
  %10 = phi i32 [ 12, %5 ], [ %15, %8 ]
  %11 = getelementptr inbounds %struct.one_result, ptr %6, i64 %9, i32 1
  %12 = load ptr, ptr %11, align 8, !tbaa !14
  %13 = tail call i64 @strlen(ptr noundef nonnull dereferenceable(1) %12) #16
  %14 = trunc i64 %13 to i32
  %15 = tail call i32 @llvm.smax.i32(i32 %10, i32 %14)
  %16 = add nuw nsw i64 %9, 1
  %17 = icmp eq i64 %16, %7
  br i1 %17, label %18, label %8, !llvm.loop !22

18:                                               ; preds = %8, %2
  %19 = phi i32 [ 12, %2 ], [ %15, %8 ]
  %20 = add nsw i32 %19, -12
  %21 = tail call i32 (ptr, ptr, ...) @fprintf(ptr noundef %0, ptr noundef nonnull @.str.8, i32 noundef %20, ptr noundef nonnull @.str.2)
  %22 = tail call i32 (ptr, ptr, ...) @fprintf(ptr noundef %0, ptr noundef nonnull @.str.9, i32 noundef %19, ptr noundef nonnull @.str.2)
  %23 = load i32, ptr @current_test, align 4, !tbaa !9
  %24 = icmp sgt i32 %23, 0
  br i1 %24, label %34, label %87

25:                                               ; preds = %34
  %26 = icmp sgt i32 %47, 0
  br i1 %26, label %27, label %87

27:                                               ; preds = %25
  %28 = load ptr, ptr @results, align 8, !tbaa !5
  %29 = zext i32 %47 to i64
  %30 = and i64 %29, 3
  %31 = icmp ult i32 %47, 4
  br i1 %31, label %72, label %32

32:                                               ; preds = %27
  %33 = and i64 %29, 4294967292
  br label %50

34:                                               ; preds = %18, %34
  %35 = phi i64 [ %46, %34 ], [ 0, %18 ]
  %36 = load ptr, ptr @results, align 8, !tbaa !5
  %37 = getelementptr inbounds %struct.one_result, ptr %36, i64 %35
  %38 = getelementptr inbounds %struct.one_result, ptr %36, i64 %35, i32 1
  %39 = load ptr, ptr %38, align 8, !tbaa !14
  %40 = tail call i64 @strlen(ptr noundef nonnull dereferenceable(1) %39) #16
  %41 = trunc i64 %40 to i32
  %42 = sub i32 %19, %41
  %43 = load double, ptr %37, align 8, !tbaa !11
  %44 = trunc i64 %35 to i32
  %45 = tail call i32 (ptr, ptr, ...) @fprintf(ptr noundef %0, ptr noundef nonnull @.str.10, i32 noundef %44, i32 noundef %42, ptr noundef nonnull @.str.5, ptr noundef %39, double noundef %43)
  %46 = add nuw nsw i64 %35, 1
  %47 = load i32, ptr @current_test, align 4, !tbaa !9
  %48 = sext i32 %47 to i64
  %49 = icmp slt i64 %46, %48
  br i1 %49, label %34, label %25, !llvm.loop !23

50:                                               ; preds = %50, %32
  %51 = phi i64 [ 0, %32 ], [ %69, %50 ]
  %52 = phi double [ 0.000000e+00, %32 ], [ %68, %50 ]
  %53 = phi i64 [ 0, %32 ], [ %70, %50 ]
  %54 = getelementptr inbounds %struct.one_result, ptr %28, i64 %51
  %55 = load double, ptr %54, align 8, !tbaa !11
  %56 = fadd double %52, %55
  %57 = or i64 %51, 1
  %58 = getelementptr inbounds %struct.one_result, ptr %28, i64 %57
  %59 = load double, ptr %58, align 8, !tbaa !11
  %60 = fadd double %56, %59
  %61 = or i64 %51, 2
  %62 = getelementptr inbounds %struct.one_result, ptr %28, i64 %61
  %63 = load double, ptr %62, align 8, !tbaa !11
  %64 = fadd double %60, %63
  %65 = or i64 %51, 3
  %66 = getelementptr inbounds %struct.one_result, ptr %28, i64 %65
  %67 = load double, ptr %66, align 8, !tbaa !11
  %68 = fadd double %64, %67
  %69 = add nuw nsw i64 %51, 4
  %70 = add i64 %53, 4
  %71 = icmp eq i64 %70, %33
  br i1 %71, label %72, label %50, !llvm.loop !24

72:                                               ; preds = %50, %27
  %73 = phi double [ undef, %27 ], [ %68, %50 ]
  %74 = phi i64 [ 0, %27 ], [ %69, %50 ]
  %75 = phi double [ 0.000000e+00, %27 ], [ %68, %50 ]
  %76 = icmp eq i64 %30, 0
  br i1 %76, label %87, label %77

77:                                               ; preds = %72, %77
  %78 = phi i64 [ %84, %77 ], [ %74, %72 ]
  %79 = phi double [ %83, %77 ], [ %75, %72 ]
  %80 = phi i64 [ %85, %77 ], [ 0, %72 ]
  %81 = getelementptr inbounds %struct.one_result, ptr %28, i64 %78
  %82 = load double, ptr %81, align 8, !tbaa !11
  %83 = fadd double %79, %82
  %84 = add nuw nsw i64 %78, 1
  %85 = add i64 %80, 1
  %86 = icmp eq i64 %85, %30
  br i1 %86, label %87, label %77, !llvm.loop !25

87:                                               ; preds = %72, %77, %18, %25
  %88 = phi double [ 0.000000e+00, %25 ], [ 0.000000e+00, %18 ], [ %73, %72 ], [ %83, %77 ]
  %89 = tail call i32 (ptr, ptr, ...) @fprintf(ptr noundef %0, ptr noundef nonnull @.str.6, ptr noundef %1, double noundef %88)
  store i32 0, ptr @current_test, align 4, !tbaa !9
  ret void
}

; Function Attrs: nofree nounwind
declare noundef i32 @fprintf(ptr nocapture noundef, ptr nocapture noundef readonly, ...) local_unnamed_addr #2

; Function Attrs: mustprogress nounwind uwtable
define dso_local void @_Z11start_timerv() local_unnamed_addr #0 {
  %1 = tail call i64 @clock() #17
  store i64 %1, ptr @start_time, align 8, !tbaa !26
  ret void
}

; Function Attrs: nounwind
declare i64 @clock() local_unnamed_addr #7

; Function Attrs: mustprogress nounwind uwtable
define dso_local noundef double @_Z5timerv() local_unnamed_addr #0 {
  %1 = tail call i64 @clock() #17
  store i64 %1, ptr @end_time, align 8, !tbaa !26
  %2 = load i64, ptr @start_time, align 8, !tbaa !26
  %3 = sub nsw i64 %1, %2
  %4 = sitofp i64 %3 to double
  %5 = fdiv double %4, 1.000000e+06
  ret double %5
}

; Function Attrs: mustprogress norecurse uwtable
define dso_local noundef i32 @main(i32 noundef %0, ptr nocapture noundef readonly %1) local_unnamed_addr #8 {
  %3 = icmp sgt i32 %0, 1
  br i1 %3, label %4, label %19

4:                                                ; preds = %2
  %5 = getelementptr inbounds ptr, ptr %1, i64 1
  %6 = load ptr, ptr %5, align 8, !tbaa !5
  %7 = tail call i64 @strtol(ptr nocapture noundef nonnull %6, ptr noundef null, i32 noundef 10) #17
  %8 = trunc i64 %7 to i32
  store i32 %8, ptr @iterations, align 4, !tbaa !9
  %9 = icmp eq i32 %0, 2
  br i1 %9, label %19, label %10

10:                                               ; preds = %4
  %11 = getelementptr inbounds ptr, ptr %1, i64 2
  %12 = load ptr, ptr %11, align 8, !tbaa !5
  %13 = tail call double @strtod(ptr nocapture noundef nonnull %12, ptr noundef null) #17
  store double %13, ptr @init_value, align 8, !tbaa !28
  %14 = icmp ugt i32 %0, 3
  br i1 %14, label %15, label %19

15:                                               ; preds = %10
  %16 = getelementptr inbounds ptr, ptr %1, i64 3
  %17 = load ptr, ptr %16, align 8, !tbaa !5
  %18 = tail call double @strtod(ptr nocapture noundef nonnull %17, ptr noundef null) #17
  br label %19

19:                                               ; preds = %2, %4, %15, %10
  %20 = phi double [ %18, %15 ], [ 1.000000e+00, %10 ], [ 1.000000e+00, %4 ], [ 1.000000e+00, %2 ]
  %21 = load double, ptr @init_value, align 8, !tbaa !28
  %22 = fptosi double %21 to i8
  tail call void @llvm.memset.p0.i64(ptr noundef nonnull align 16 dereferenceable(8000) @data8, i8 %22, i64 8000, i1 false), !tbaa !29
  %23 = fptosi double %20 to i8
  %24 = shl i8 %23, 1
  %25 = add i8 %23, 2
  %26 = sext i8 %24 to i16
  %27 = sext i8 %25 to i16
  %28 = sdiv i16 %26, %27
  %29 = trunc i16 %28 to i8
  %30 = add i8 %29, %23
  tail call void @_Z14test_variable1Ia19custom_add_variableIaEEvPT_iS2_PKc(ptr noundef nonnull @data8, i32 noundef 8000, i8 noundef signext %23, ptr noundef nonnull @.str.11)
  tail call void @_Z22test_hoisted_variable1Ia19custom_add_variableIaEEvPT_iS2_PKc(ptr noundef nonnull @data8, i32 noundef 8000, i8 noundef signext %23, ptr noundef nonnull @.str.12)
  tail call void @_Z14test_variable4Ia28custom_add_multiple_variableIaEEvPT_iS2_S2_S2_S2_PKc(ptr noundef nonnull @data8, i32 noundef 8000, i8 noundef signext %23, i8 noundef signext %24, i8 noundef signext %25, i8 noundef signext %30, ptr noundef nonnull @.str.13)
  tail call void @_Z14test_variable1Ia19custom_sub_variableIaEEvPT_iS2_PKc(ptr noundef nonnull @data8, i32 noundef 8000, i8 noundef signext %23, ptr noundef nonnull @.str.14)
  tail call void @_Z14test_variable4Ia28custom_sub_multiple_variableIaEEvPT_iS2_S2_S2_S2_PKc(ptr noundef nonnull @data8, i32 noundef 8000, i8 noundef signext %23, i8 noundef signext %24, i8 noundef signext %25, i8 noundef signext %30, ptr noundef nonnull @.str.15)
  tail call void @_Z14test_variable1Ia24custom_multiply_variableIaEEvPT_iS2_PKc(ptr noundef nonnull @data8, i32 noundef 8000, i8 noundef signext %23, ptr noundef nonnull @.str.16)
  tail call void @_Z14test_variable4Ia33custom_multiply_multiple_variableIaEEvPT_iS2_S2_S2_S2_PKc(ptr noundef nonnull @data8, i32 noundef 8000, i8 noundef signext %23, i8 noundef signext %24, i8 noundef signext %25, i8 noundef signext %30, ptr noundef nonnull @.str.17)
  tail call void @_Z14test_variable4Ia34custom_multiply_multiple_variable2IaEEvPT_iS2_S2_S2_S2_PKc(ptr noundef nonnull @data8, i32 noundef 8000, i8 noundef signext %23, i8 noundef signext %24, i8 noundef signext %25, i8 noundef signext %30, ptr noundef nonnull @.str.18)
  tail call void @_Z14test_variable1Ia22custom_divide_variableIaEEvPT_iS2_PKc(ptr noundef nonnull @data8, i32 noundef 8000, i8 noundef signext %23, ptr noundef nonnull @.str.19)
  tail call void @_Z14test_variable4Ia31custom_divide_multiple_variableIaEEvPT_iS2_S2_S2_S2_PKc(ptr noundef nonnull @data8, i32 noundef 8000, i8 noundef signext %23, i8 noundef signext %24, i8 noundef signext %25, i8 noundef signext %30, ptr noundef nonnull @.str.20)
  tail call void @_Z14test_variable4Ia32custom_divide_multiple_variable2IaEEvPT_iS2_S2_S2_S2_PKc(ptr noundef nonnull @data8, i32 noundef 8000, i8 noundef signext %23, i8 noundef signext %24, i8 noundef signext %25, i8 noundef signext %30, ptr noundef nonnull @.str.21)
  tail call void @_Z14test_variable4Ia30custom_mixed_multiple_variableIaEEvPT_iS2_S2_S2_S2_PKc(ptr noundef nonnull @data8, i32 noundef 8000, i8 noundef signext %23, i8 noundef signext %24, i8 noundef signext %25, i8 noundef signext %30, ptr noundef nonnull @.str.22)
  tail call void @_Z14test_variable1Ia19custom_variable_andIaEEvPT_iS2_PKc(ptr noundef nonnull @data8, i32 noundef 8000, i8 noundef signext %23, ptr noundef nonnull @.str.23)
  tail call void @_Z14test_variable4Ia28custom_multiple_variable_andIaEEvPT_iS2_S2_S2_S2_PKc(ptr noundef nonnull @data8, i32 noundef 8000, i8 noundef signext %23, i8 noundef signext %24, i8 noundef signext %25, i8 noundef signext %30, ptr noundef nonnull @.str.24)
  tail call void @_Z14test_variable1Ia18custom_variable_orIaEEvPT_iS2_PKc(ptr noundef nonnull @data8, i32 noundef 8000, i8 noundef signext %23, ptr noundef nonnull @.str.25)
  tail call void @_Z14test_variable4Ia27custom_multiple_variable_orIaEEvPT_iS2_S2_S2_S2_PKc(ptr noundef nonnull @data8, i32 noundef 8000, i8 noundef signext %23, i8 noundef signext %24, i8 noundef signext %25, i8 noundef signext %30, ptr noundef nonnull @.str.26)
  tail call void @_Z14test_variable1Ia19custom_variable_xorIaEEvPT_iS2_PKc(ptr noundef nonnull @data8, i32 noundef 8000, i8 noundef signext %23, ptr noundef nonnull @.str.27)
  tail call void @_Z14test_variable4Ia28custom_multiple_variable_xorIaEEvPT_iS2_S2_S2_S2_PKc(ptr noundef nonnull @data8, i32 noundef 8000, i8 noundef signext %23, i8 noundef signext %24, i8 noundef signext %25, i8 noundef signext %30, ptr noundef nonnull @.str.28)
  %31 = load double, ptr @init_value, align 8, !tbaa !28
  %32 = fptoui double %31 to i8
  tail call void @llvm.memset.p0.i64(ptr noundef nonnull align 16 dereferenceable(8000) @data8unsigned, i8 %32, i64 8000, i1 false), !tbaa !29
  %33 = fptoui double %20 to i8
  %34 = shl i8 %33, 1
  %35 = add i8 %33, 2
  %36 = udiv i8 %34, %35
  %37 = add i8 %36, %33
  tail call void @_Z14test_variable1Ih19custom_add_variableIhEEvPT_iS2_PKc(ptr noundef nonnull @data8unsigned, i32 noundef 8000, i8 noundef zeroext %33, ptr noundef nonnull @.str.29)
  tail call void @_Z22test_hoisted_variable1Ih19custom_add_variableIhEEvPT_iS2_PKc(ptr noundef nonnull @data8unsigned, i32 noundef 8000, i8 noundef zeroext %33, ptr noundef nonnull @.str.30)
  tail call void @_Z14test_variable4Ih28custom_add_multiple_variableIhEEvPT_iS2_S2_S2_S2_PKc(ptr noundef nonnull @data8unsigned, i32 noundef 8000, i8 noundef zeroext %33, i8 noundef zeroext %34, i8 noundef zeroext %35, i8 noundef zeroext %37, ptr noundef nonnull @.str.31)
  tail call void @_Z14test_variable1Ih19custom_sub_variableIhEEvPT_iS2_PKc(ptr noundef nonnull @data8unsigned, i32 noundef 8000, i8 noundef zeroext %33, ptr noundef nonnull @.str.32)
  tail call void @_Z14test_variable4Ih28custom_sub_multiple_variableIhEEvPT_iS2_S2_S2_S2_PKc(ptr noundef nonnull @data8unsigned, i32 noundef 8000, i8 noundef zeroext %33, i8 noundef zeroext %34, i8 noundef zeroext %35, i8 noundef zeroext %37, ptr noundef nonnull @.str.33)
  tail call void @_Z14test_variable1Ih24custom_multiply_variableIhEEvPT_iS2_PKc(ptr noundef nonnull @data8unsigned, i32 noundef 8000, i8 noundef zeroext %33, ptr noundef nonnull @.str.34)
  tail call void @_Z14test_variable4Ih33custom_multiply_multiple_variableIhEEvPT_iS2_S2_S2_S2_PKc(ptr noundef nonnull @data8unsigned, i32 noundef 8000, i8 noundef zeroext %33, i8 noundef zeroext %34, i8 noundef zeroext %35, i8 noundef zeroext %37, ptr noundef nonnull @.str.35)
  tail call void @_Z14test_variable4Ih34custom_multiply_multiple_variable2IhEEvPT_iS2_S2_S2_S2_PKc(ptr noundef nonnull @data8unsigned, i32 noundef 8000, i8 noundef zeroext %33, i8 noundef zeroext %34, i8 noundef zeroext %35, i8 noundef zeroext %37, ptr noundef nonnull @.str.36)
  tail call void @_Z14test_variable1Ih22custom_divide_variableIhEEvPT_iS2_PKc(ptr noundef nonnull @data8unsigned, i32 noundef 8000, i8 noundef zeroext %33, ptr noundef nonnull @.str.37)
  tail call void @_Z14test_variable4Ih31custom_divide_multiple_variableIhEEvPT_iS2_S2_S2_S2_PKc(ptr noundef nonnull @data8unsigned, i32 noundef 8000, i8 noundef zeroext %33, i8 noundef zeroext %34, i8 noundef zeroext %35, i8 noundef zeroext %37, ptr noundef nonnull @.str.38)
  tail call void @_Z14test_variable4Ih32custom_divide_multiple_variable2IhEEvPT_iS2_S2_S2_S2_PKc(ptr noundef nonnull @data8unsigned, i32 noundef 8000, i8 noundef zeroext %33, i8 noundef zeroext %34, i8 noundef zeroext %35, i8 noundef zeroext %37, ptr noundef nonnull @.str.39)
  tail call void @_Z14test_variable4Ih30custom_mixed_multiple_variableIhEEvPT_iS2_S2_S2_S2_PKc(ptr noundef nonnull @data8unsigned, i32 noundef 8000, i8 noundef zeroext %33, i8 noundef zeroext %34, i8 noundef zeroext %35, i8 noundef zeroext %37, ptr noundef nonnull @.str.40)
  tail call void @_Z14test_variable1Ih19custom_variable_andIhEEvPT_iS2_PKc(ptr noundef nonnull @data8unsigned, i32 noundef 8000, i8 noundef zeroext %33, ptr noundef nonnull @.str.41)
  tail call void @_Z14test_variable4Ih28custom_multiple_variable_andIhEEvPT_iS2_S2_S2_S2_PKc(ptr noundef nonnull @data8unsigned, i32 noundef 8000, i8 noundef zeroext %33, i8 noundef zeroext %34, i8 noundef zeroext %35, i8 noundef zeroext %37, ptr noundef nonnull @.str.42)
  tail call void @_Z14test_variable1Ih18custom_variable_orIhEEvPT_iS2_PKc(ptr noundef nonnull @data8unsigned, i32 noundef 8000, i8 noundef zeroext %33, ptr noundef nonnull @.str.43)
  tail call void @_Z14test_variable4Ih27custom_multiple_variable_orIhEEvPT_iS2_S2_S2_S2_PKc(ptr noundef nonnull @data8unsigned, i32 noundef 8000, i8 noundef zeroext %33, i8 noundef zeroext %34, i8 noundef zeroext %35, i8 noundef zeroext %37, ptr noundef nonnull @.str.44)
  tail call void @_Z14test_variable1Ih19custom_variable_xorIhEEvPT_iS2_PKc(ptr noundef nonnull @data8unsigned, i32 noundef 8000, i8 noundef zeroext %33, ptr noundef nonnull @.str.45)
  tail call void @_Z14test_variable4Ih28custom_multiple_variable_xorIhEEvPT_iS2_S2_S2_S2_PKc(ptr noundef nonnull @data8unsigned, i32 noundef 8000, i8 noundef zeroext %33, i8 noundef zeroext %34, i8 noundef zeroext %35, i8 noundef zeroext %37, ptr noundef nonnull @.str.46)
  %38 = load double, ptr @init_value, align 8, !tbaa !28
  %39 = fptosi double %38 to i16
  %40 = insertelement <8 x i16> poison, i16 %39, i64 0
  %41 = shufflevector <8 x i16> %40, <8 x i16> poison, <8 x i32> zeroinitializer
  %42 = insertelement <8 x i16> poison, i16 %39, i64 0
  %43 = shufflevector <8 x i16> %42, <8 x i16> poison, <8 x i32> zeroinitializer
  br label %44

44:                                               ; preds = %44, %19
  %45 = phi i64 [ 0, %19 ], [ %65, %44 ]
  %46 = shl nuw i64 %45, 1
  %47 = getelementptr i8, ptr @data16, i64 %46
  store <8 x i16> %41, ptr %47, align 16, !tbaa !30
  %48 = getelementptr i16, ptr %47, i64 8
  store <8 x i16> %43, ptr %48, align 16, !tbaa !30
  %49 = shl nuw i64 %45, 1
  %50 = add i64 %49, 32
  %51 = getelementptr i8, ptr @data16, i64 %50
  store <8 x i16> %41, ptr %51, align 16, !tbaa !30
  %52 = getelementptr i16, ptr %51, i64 8
  store <8 x i16> %43, ptr %52, align 16, !tbaa !30
  %53 = shl nuw i64 %45, 1
  %54 = add i64 %53, 64
  %55 = getelementptr i8, ptr @data16, i64 %54
  store <8 x i16> %41, ptr %55, align 16, !tbaa !30
  %56 = getelementptr i16, ptr %55, i64 8
  store <8 x i16> %43, ptr %56, align 16, !tbaa !30
  %57 = shl nuw i64 %45, 1
  %58 = add i64 %57, 96
  %59 = getelementptr i8, ptr @data16, i64 %58
  store <8 x i16> %41, ptr %59, align 16, !tbaa !30
  %60 = getelementptr i16, ptr %59, i64 8
  store <8 x i16> %43, ptr %60, align 16, !tbaa !30
  %61 = shl nuw i64 %45, 1
  %62 = add i64 %61, 128
  %63 = getelementptr i8, ptr @data16, i64 %62
  store <8 x i16> %41, ptr %63, align 16, !tbaa !30
  %64 = getelementptr i16, ptr %63, i64 8
  store <8 x i16> %43, ptr %64, align 16, !tbaa !30
  %65 = add nuw nsw i64 %45, 80
  %66 = icmp eq i64 %65, 8000
  br i1 %66, label %67, label %44, !llvm.loop !32

67:                                               ; preds = %44
  %68 = fptosi double %20 to i16
  %69 = shl i16 %68, 1
  %70 = add i16 %68, 2
  %71 = sext i16 %69 to i32
  %72 = sext i16 %70 to i32
  %73 = sdiv i32 %71, %72
  %74 = trunc i32 %73 to i16
  %75 = add i16 %74, %68
  tail call void @_Z14test_variable1Is19custom_add_variableIsEEvPT_iS2_PKc(ptr noundef nonnull @data16, i32 noundef 8000, i16 noundef signext %68, ptr noundef nonnull @.str.47)
  tail call void @_Z22test_hoisted_variable1Is19custom_add_variableIsEEvPT_iS2_PKc(ptr noundef nonnull @data16, i32 noundef 8000, i16 noundef signext %68, ptr noundef nonnull @.str.48)
  tail call void @_Z14test_variable4Is28custom_add_multiple_variableIsEEvPT_iS2_S2_S2_S2_PKc(ptr noundef nonnull @data16, i32 noundef 8000, i16 noundef signext %68, i16 noundef signext %69, i16 noundef signext %70, i16 noundef signext %75, ptr noundef nonnull @.str.49)
  tail call void @_Z14test_variable1Is19custom_sub_variableIsEEvPT_iS2_PKc(ptr noundef nonnull @data16, i32 noundef 8000, i16 noundef signext %68, ptr noundef nonnull @.str.50)
  tail call void @_Z14test_variable4Is28custom_sub_multiple_variableIsEEvPT_iS2_S2_S2_S2_PKc(ptr noundef nonnull @data16, i32 noundef 8000, i16 noundef signext %68, i16 noundef signext %69, i16 noundef signext %70, i16 noundef signext %75, ptr noundef nonnull @.str.51)
  tail call void @_Z14test_variable1Is24custom_multiply_variableIsEEvPT_iS2_PKc(ptr noundef nonnull @data16, i32 noundef 8000, i16 noundef signext %68, ptr noundef nonnull @.str.52)
  tail call void @_Z14test_variable4Is33custom_multiply_multiple_variableIsEEvPT_iS2_S2_S2_S2_PKc(ptr noundef nonnull @data16, i32 noundef 8000, i16 noundef signext %68, i16 noundef signext %69, i16 noundef signext %70, i16 noundef signext %75, ptr noundef nonnull @.str.53)
  tail call void @_Z14test_variable4Is34custom_multiply_multiple_variable2IsEEvPT_iS2_S2_S2_S2_PKc(ptr noundef nonnull @data16, i32 noundef 8000, i16 noundef signext %68, i16 noundef signext %69, i16 noundef signext %70, i16 noundef signext %75, ptr noundef nonnull @.str.54)
  tail call void @_Z14test_variable1Is22custom_divide_variableIsEEvPT_iS2_PKc(ptr noundef nonnull @data16, i32 noundef 8000, i16 noundef signext %68, ptr noundef nonnull @.str.55)
  tail call void @_Z14test_variable4Is31custom_divide_multiple_variableIsEEvPT_iS2_S2_S2_S2_PKc(ptr noundef nonnull @data16, i32 noundef 8000, i16 noundef signext %68, i16 noundef signext %69, i16 noundef signext %70, i16 noundef signext %75, ptr noundef nonnull @.str.56)
  tail call void @_Z14test_variable4Is32custom_divide_multiple_variable2IsEEvPT_iS2_S2_S2_S2_PKc(ptr noundef nonnull @data16, i32 noundef 8000, i16 noundef signext %68, i16 noundef signext %69, i16 noundef signext %70, i16 noundef signext %75, ptr noundef nonnull @.str.57)
  tail call void @_Z14test_variable4Is30custom_mixed_multiple_variableIsEEvPT_iS2_S2_S2_S2_PKc(ptr noundef nonnull @data16, i32 noundef 8000, i16 noundef signext %68, i16 noundef signext %69, i16 noundef signext %70, i16 noundef signext %75, ptr noundef nonnull @.str.58)
  tail call void @_Z14test_variable1Is19custom_variable_andIsEEvPT_iS2_PKc(ptr noundef nonnull @data16, i32 noundef 8000, i16 noundef signext %68, ptr noundef nonnull @.str.59)
  tail call void @_Z14test_variable4Is28custom_multiple_variable_andIsEEvPT_iS2_S2_S2_S2_PKc(ptr noundef nonnull @data16, i32 noundef 8000, i16 noundef signext %68, i16 noundef signext %69, i16 noundef signext %70, i16 noundef signext %75, ptr noundef nonnull @.str.60)
  tail call void @_Z14test_variable1Is18custom_variable_orIsEEvPT_iS2_PKc(ptr noundef nonnull @data16, i32 noundef 8000, i16 noundef signext %68, ptr noundef nonnull @.str.61)
  tail call void @_Z14test_variable4Is27custom_multiple_variable_orIsEEvPT_iS2_S2_S2_S2_PKc(ptr noundef nonnull @data16, i32 noundef 8000, i16 noundef signext %68, i16 noundef signext %69, i16 noundef signext %70, i16 noundef signext %75, ptr noundef nonnull @.str.62)
  tail call void @_Z14test_variable1Is19custom_variable_xorIsEEvPT_iS2_PKc(ptr noundef nonnull @data16, i32 noundef 8000, i16 noundef signext %68, ptr noundef nonnull @.str.63)
  tail call void @_Z14test_variable4Is28custom_multiple_variable_xorIsEEvPT_iS2_S2_S2_S2_PKc(ptr noundef nonnull @data16, i32 noundef 8000, i16 noundef signext %68, i16 noundef signext %69, i16 noundef signext %70, i16 noundef signext %75, ptr noundef nonnull @.str.64)
  %76 = load double, ptr @init_value, align 8, !tbaa !28
  %77 = fptoui double %76 to i16
  %78 = insertelement <8 x i16> poison, i16 %77, i64 0
  %79 = shufflevector <8 x i16> %78, <8 x i16> poison, <8 x i32> zeroinitializer
  %80 = insertelement <8 x i16> poison, i16 %77, i64 0
  %81 = shufflevector <8 x i16> %80, <8 x i16> poison, <8 x i32> zeroinitializer
  br label %82

82:                                               ; preds = %82, %67
  %83 = phi i64 [ 0, %67 ], [ %103, %82 ]
  %84 = shl nuw i64 %83, 1
  %85 = getelementptr i8, ptr @data16unsigned, i64 %84
  store <8 x i16> %79, ptr %85, align 16, !tbaa !30
  %86 = getelementptr i16, ptr %85, i64 8
  store <8 x i16> %81, ptr %86, align 16, !tbaa !30
  %87 = shl nuw i64 %83, 1
  %88 = add i64 %87, 32
  %89 = getelementptr i8, ptr @data16unsigned, i64 %88
  store <8 x i16> %79, ptr %89, align 16, !tbaa !30
  %90 = getelementptr i16, ptr %89, i64 8
  store <8 x i16> %81, ptr %90, align 16, !tbaa !30
  %91 = shl nuw i64 %83, 1
  %92 = add i64 %91, 64
  %93 = getelementptr i8, ptr @data16unsigned, i64 %92
  store <8 x i16> %79, ptr %93, align 16, !tbaa !30
  %94 = getelementptr i16, ptr %93, i64 8
  store <8 x i16> %81, ptr %94, align 16, !tbaa !30
  %95 = shl nuw i64 %83, 1
  %96 = add i64 %95, 96
  %97 = getelementptr i8, ptr @data16unsigned, i64 %96
  store <8 x i16> %79, ptr %97, align 16, !tbaa !30
  %98 = getelementptr i16, ptr %97, i64 8
  store <8 x i16> %81, ptr %98, align 16, !tbaa !30
  %99 = shl nuw i64 %83, 1
  %100 = add i64 %99, 128
  %101 = getelementptr i8, ptr @data16unsigned, i64 %100
  store <8 x i16> %79, ptr %101, align 16, !tbaa !30
  %102 = getelementptr i16, ptr %101, i64 8
  store <8 x i16> %81, ptr %102, align 16, !tbaa !30
  %103 = add nuw nsw i64 %83, 80
  %104 = icmp eq i64 %103, 8000
  br i1 %104, label %105, label %82, !llvm.loop !35

105:                                              ; preds = %82
  %106 = fptoui double %20 to i16
  %107 = shl i16 %106, 1
  %108 = add i16 %106, 2
  %109 = udiv i16 %107, %108
  %110 = add i16 %109, %106
  tail call void @_Z14test_variable1It19custom_add_variableItEEvPT_iS2_PKc(ptr noundef nonnull @data16unsigned, i32 noundef 8000, i16 noundef zeroext %106, ptr noundef nonnull @.str.65)
  tail call void @_Z22test_hoisted_variable1It19custom_add_variableItEEvPT_iS2_PKc(ptr noundef nonnull @data16unsigned, i32 noundef 8000, i16 noundef zeroext %106, ptr noundef nonnull @.str.66)
  tail call void @_Z14test_variable4It28custom_add_multiple_variableItEEvPT_iS2_S2_S2_S2_PKc(ptr noundef nonnull @data16unsigned, i32 noundef 8000, i16 noundef zeroext %106, i16 noundef zeroext %107, i16 noundef zeroext %108, i16 noundef zeroext %110, ptr noundef nonnull @.str.67)
  tail call void @_Z14test_variable1It19custom_sub_variableItEEvPT_iS2_PKc(ptr noundef nonnull @data16unsigned, i32 noundef 8000, i16 noundef zeroext %106, ptr noundef nonnull @.str.68)
  tail call void @_Z14test_variable4It28custom_sub_multiple_variableItEEvPT_iS2_S2_S2_S2_PKc(ptr noundef nonnull @data16unsigned, i32 noundef 8000, i16 noundef zeroext %106, i16 noundef zeroext %107, i16 noundef zeroext %108, i16 noundef zeroext %110, ptr noundef nonnull @.str.69)
  tail call void @_Z14test_variable1It24custom_multiply_variableItEEvPT_iS2_PKc(ptr noundef nonnull @data16unsigned, i32 noundef 8000, i16 noundef zeroext %106, ptr noundef nonnull @.str.70)
  tail call void @_Z14test_variable4It33custom_multiply_multiple_variableItEEvPT_iS2_S2_S2_S2_PKc(ptr noundef nonnull @data16unsigned, i32 noundef 8000, i16 noundef zeroext %106, i16 noundef zeroext %107, i16 noundef zeroext %108, i16 noundef zeroext %110, ptr noundef nonnull @.str.71)
  tail call void @_Z14test_variable4It34custom_multiply_multiple_variable2ItEEvPT_iS2_S2_S2_S2_PKc(ptr noundef nonnull @data16unsigned, i32 noundef 8000, i16 noundef zeroext %106, i16 noundef zeroext %107, i16 noundef zeroext %108, i16 noundef zeroext %110, ptr noundef nonnull @.str.72)
  tail call void @_Z14test_variable1It22custom_divide_variableItEEvPT_iS2_PKc(ptr noundef nonnull @data16unsigned, i32 noundef 8000, i16 noundef zeroext %106, ptr noundef nonnull @.str.73)
  tail call void @_Z14test_variable4It31custom_divide_multiple_variableItEEvPT_iS2_S2_S2_S2_PKc(ptr noundef nonnull @data16unsigned, i32 noundef 8000, i16 noundef zeroext %106, i16 noundef zeroext %107, i16 noundef zeroext %108, i16 noundef zeroext %110, ptr noundef nonnull @.str.74)
  tail call void @_Z14test_variable4It32custom_divide_multiple_variable2ItEEvPT_iS2_S2_S2_S2_PKc(ptr noundef nonnull @data16unsigned, i32 noundef 8000, i16 noundef zeroext %106, i16 noundef zeroext %107, i16 noundef zeroext %108, i16 noundef zeroext %110, ptr noundef nonnull @.str.75)
  tail call void @_Z14test_variable4It30custom_mixed_multiple_variableItEEvPT_iS2_S2_S2_S2_PKc(ptr noundef nonnull @data16unsigned, i32 noundef 8000, i16 noundef zeroext %106, i16 noundef zeroext %107, i16 noundef zeroext %108, i16 noundef zeroext %110, ptr noundef nonnull @.str.76)
  tail call void @_Z14test_variable1It19custom_variable_andItEEvPT_iS2_PKc(ptr noundef nonnull @data16unsigned, i32 noundef 8000, i16 noundef zeroext %106, ptr noundef nonnull @.str.77)
  tail call void @_Z14test_variable4It28custom_multiple_variable_andItEEvPT_iS2_S2_S2_S2_PKc(ptr noundef nonnull @data16unsigned, i32 noundef 8000, i16 noundef zeroext %106, i16 noundef zeroext %107, i16 noundef zeroext %108, i16 noundef zeroext %110, ptr noundef nonnull @.str.78)
  tail call void @_Z14test_variable1It18custom_variable_orItEEvPT_iS2_PKc(ptr noundef nonnull @data16unsigned, i32 noundef 8000, i16 noundef zeroext %106, ptr noundef nonnull @.str.79)
  tail call void @_Z14test_variable4It27custom_multiple_variable_orItEEvPT_iS2_S2_S2_S2_PKc(ptr noundef nonnull @data16unsigned, i32 noundef 8000, i16 noundef zeroext %106, i16 noundef zeroext %107, i16 noundef zeroext %108, i16 noundef zeroext %110, ptr noundef nonnull @.str.80)
  tail call void @_Z14test_variable1It19custom_variable_xorItEEvPT_iS2_PKc(ptr noundef nonnull @data16unsigned, i32 noundef 8000, i16 noundef zeroext %106, ptr noundef nonnull @.str.81)
  tail call void @_Z14test_variable4It28custom_multiple_variable_xorItEEvPT_iS2_S2_S2_S2_PKc(ptr noundef nonnull @data16unsigned, i32 noundef 8000, i16 noundef zeroext %106, i16 noundef zeroext %107, i16 noundef zeroext %108, i16 noundef zeroext %110, ptr noundef nonnull @.str.82)
  %111 = load double, ptr @init_value, align 8, !tbaa !28
  %112 = fptosi double %111 to i32
  %113 = insertelement <4 x i32> poison, i32 %112, i64 0
  %114 = shufflevector <4 x i32> %113, <4 x i32> poison, <4 x i32> zeroinitializer
  %115 = insertelement <4 x i32> poison, i32 %112, i64 0
  %116 = shufflevector <4 x i32> %115, <4 x i32> poison, <4 x i32> zeroinitializer
  br label %117

117:                                              ; preds = %117, %105
  %118 = phi i64 [ 0, %105 ], [ %138, %117 ]
  %119 = shl i64 %118, 2
  %120 = getelementptr i8, ptr @data32, i64 %119
  store <4 x i32> %114, ptr %120, align 16, !tbaa !9
  %121 = getelementptr i32, ptr %120, i64 4
  store <4 x i32> %116, ptr %121, align 16, !tbaa !9
  %122 = shl i64 %118, 2
  %123 = add i64 %122, 32
  %124 = getelementptr i8, ptr @data32, i64 %123
  store <4 x i32> %114, ptr %124, align 16, !tbaa !9
  %125 = getelementptr i32, ptr %124, i64 4
  store <4 x i32> %116, ptr %125, align 16, !tbaa !9
  %126 = shl i64 %118, 2
  %127 = add i64 %126, 64
  %128 = getelementptr i8, ptr @data32, i64 %127
  store <4 x i32> %114, ptr %128, align 16, !tbaa !9
  %129 = getelementptr i32, ptr %128, i64 4
  store <4 x i32> %116, ptr %129, align 16, !tbaa !9
  %130 = shl i64 %118, 2
  %131 = add i64 %130, 96
  %132 = getelementptr i8, ptr @data32, i64 %131
  store <4 x i32> %114, ptr %132, align 16, !tbaa !9
  %133 = getelementptr i32, ptr %132, i64 4
  store <4 x i32> %116, ptr %133, align 16, !tbaa !9
  %134 = shl i64 %118, 2
  %135 = add i64 %134, 128
  %136 = getelementptr i8, ptr @data32, i64 %135
  store <4 x i32> %114, ptr %136, align 16, !tbaa !9
  %137 = getelementptr i32, ptr %136, i64 4
  store <4 x i32> %116, ptr %137, align 16, !tbaa !9
  %138 = add nuw nsw i64 %118, 40
  %139 = icmp eq i64 %138, 8000
  br i1 %139, label %140, label %117, !llvm.loop !36

140:                                              ; preds = %117
  %141 = fptosi double %20 to i32
  %142 = shl nsw i32 %141, 1
  %143 = add nsw i32 %141, 2
  %144 = sdiv i32 %142, %143
  %145 = add nsw i32 %144, %141
  tail call void @_Z14test_variable1Ii19custom_add_variableIiEEvPT_iS2_PKc(ptr noundef nonnull @data32, i32 noundef 8000, i32 noundef %141, ptr noundef nonnull @.str.83)
  tail call void @_Z22test_hoisted_variable1Ii19custom_add_variableIiEEvPT_iS2_PKc(ptr noundef nonnull @data32, i32 noundef 8000, i32 noundef %141, ptr noundef nonnull @.str.84)
  tail call void @_Z14test_variable4Ii28custom_add_multiple_variableIiEEvPT_iS2_S2_S2_S2_PKc(ptr noundef nonnull @data32, i32 noundef 8000, i32 noundef %141, i32 noundef %142, i32 noundef %143, i32 noundef %145, ptr noundef nonnull @.str.85)
  tail call void @_Z14test_variable1Ii19custom_sub_variableIiEEvPT_iS2_PKc(ptr noundef nonnull @data32, i32 noundef 8000, i32 noundef %141, ptr noundef nonnull @.str.86)
  tail call void @_Z14test_variable4Ii28custom_sub_multiple_variableIiEEvPT_iS2_S2_S2_S2_PKc(ptr noundef nonnull @data32, i32 noundef 8000, i32 noundef %141, i32 noundef %142, i32 noundef %143, i32 noundef %145, ptr noundef nonnull @.str.87)
  tail call void @_Z14test_variable1Ii24custom_multiply_variableIiEEvPT_iS2_PKc(ptr noundef nonnull @data32, i32 noundef 8000, i32 noundef %141, ptr noundef nonnull @.str.88)
  tail call void @_Z14test_variable4Ii33custom_multiply_multiple_variableIiEEvPT_iS2_S2_S2_S2_PKc(ptr noundef nonnull @data32, i32 noundef 8000, i32 noundef %141, i32 noundef %142, i32 noundef %143, i32 noundef %145, ptr noundef nonnull @.str.89)
  tail call void @_Z14test_variable4Ii34custom_multiply_multiple_variable2IiEEvPT_iS2_S2_S2_S2_PKc(ptr noundef nonnull @data32, i32 noundef 8000, i32 noundef %141, i32 noundef %142, i32 noundef %143, i32 noundef %145, ptr noundef nonnull @.str.90)
  tail call void @_Z14test_variable1Ii22custom_divide_variableIiEEvPT_iS2_PKc(ptr noundef nonnull @data32, i32 noundef 8000, i32 noundef %141, ptr noundef nonnull @.str.91)
  tail call void @_Z14test_variable4Ii31custom_divide_multiple_variableIiEEvPT_iS2_S2_S2_S2_PKc(ptr noundef nonnull @data32, i32 noundef 8000, i32 noundef %141, i32 noundef %142, i32 noundef %143, i32 noundef %145, ptr noundef nonnull @.str.92)
  tail call void @_Z14test_variable4Ii32custom_divide_multiple_variable2IiEEvPT_iS2_S2_S2_S2_PKc(ptr noundef nonnull @data32, i32 noundef 8000, i32 noundef %141, i32 noundef %142, i32 noundef %143, i32 noundef %145, ptr noundef nonnull @.str.93)
  tail call void @_Z14test_variable4Ii30custom_mixed_multiple_variableIiEEvPT_iS2_S2_S2_S2_PKc(ptr noundef nonnull @data32, i32 noundef 8000, i32 noundef %141, i32 noundef %142, i32 noundef %143, i32 noundef %145, ptr noundef nonnull @.str.94)
  tail call void @_Z14test_variable1Ii19custom_variable_andIiEEvPT_iS2_PKc(ptr noundef nonnull @data32, i32 noundef 8000, i32 noundef %141, ptr noundef nonnull @.str.95)
  tail call void @_Z14test_variable4Ii28custom_multiple_variable_andIiEEvPT_iS2_S2_S2_S2_PKc(ptr noundef nonnull @data32, i32 noundef 8000, i32 noundef %141, i32 noundef %142, i32 noundef %143, i32 noundef %145, ptr noundef nonnull @.str.96)
  tail call void @_Z14test_variable1Ii18custom_variable_orIiEEvPT_iS2_PKc(ptr noundef nonnull @data32, i32 noundef 8000, i32 noundef %141, ptr noundef nonnull @.str.97)
  tail call void @_Z14test_variable4Ii27custom_multiple_variable_orIiEEvPT_iS2_S2_S2_S2_PKc(ptr noundef nonnull @data32, i32 noundef 8000, i32 noundef %141, i32 noundef %142, i32 noundef %143, i32 noundef %145, ptr noundef nonnull @.str.98)
  tail call void @_Z14test_variable1Ii19custom_variable_xorIiEEvPT_iS2_PKc(ptr noundef nonnull @data32, i32 noundef 8000, i32 noundef %141, ptr noundef nonnull @.str.99)
  tail call void @_Z14test_variable4Ii28custom_multiple_variable_xorIiEEvPT_iS2_S2_S2_S2_PKc(ptr noundef nonnull @data32, i32 noundef 8000, i32 noundef %141, i32 noundef %142, i32 noundef %143, i32 noundef %145, ptr noundef nonnull @.str.100)
  %146 = load double, ptr @init_value, align 8, !tbaa !28
  %147 = fptoui double %146 to i32
  %148 = insertelement <4 x i32> poison, i32 %147, i64 0
  %149 = shufflevector <4 x i32> %148, <4 x i32> poison, <4 x i32> zeroinitializer
  %150 = insertelement <4 x i32> poison, i32 %147, i64 0
  %151 = shufflevector <4 x i32> %150, <4 x i32> poison, <4 x i32> zeroinitializer
  br label %152

152:                                              ; preds = %152, %140
  %153 = phi i64 [ 0, %140 ], [ %173, %152 ]
  %154 = shl i64 %153, 2
  %155 = getelementptr i8, ptr @data32unsigned, i64 %154
  store <4 x i32> %149, ptr %155, align 16, !tbaa !9
  %156 = getelementptr i32, ptr %155, i64 4
  store <4 x i32> %151, ptr %156, align 16, !tbaa !9
  %157 = shl i64 %153, 2
  %158 = add i64 %157, 32
  %159 = getelementptr i8, ptr @data32unsigned, i64 %158
  store <4 x i32> %149, ptr %159, align 16, !tbaa !9
  %160 = getelementptr i32, ptr %159, i64 4
  store <4 x i32> %151, ptr %160, align 16, !tbaa !9
  %161 = shl i64 %153, 2
  %162 = add i64 %161, 64
  %163 = getelementptr i8, ptr @data32unsigned, i64 %162
  store <4 x i32> %149, ptr %163, align 16, !tbaa !9
  %164 = getelementptr i32, ptr %163, i64 4
  store <4 x i32> %151, ptr %164, align 16, !tbaa !9
  %165 = shl i64 %153, 2
  %166 = add i64 %165, 96
  %167 = getelementptr i8, ptr @data32unsigned, i64 %166
  store <4 x i32> %149, ptr %167, align 16, !tbaa !9
  %168 = getelementptr i32, ptr %167, i64 4
  store <4 x i32> %151, ptr %168, align 16, !tbaa !9
  %169 = shl i64 %153, 2
  %170 = add i64 %169, 128
  %171 = getelementptr i8, ptr @data32unsigned, i64 %170
  store <4 x i32> %149, ptr %171, align 16, !tbaa !9
  %172 = getelementptr i32, ptr %171, i64 4
  store <4 x i32> %151, ptr %172, align 16, !tbaa !9
  %173 = add nuw nsw i64 %153, 40
  %174 = icmp eq i64 %173, 8000
  br i1 %174, label %175, label %152, !llvm.loop !37

175:                                              ; preds = %152
  %176 = fptoui double %20 to i32
  %177 = shl i32 %176, 1
  %178 = add i32 %176, 2
  %179 = udiv i32 %177, %178
  %180 = add i32 %179, %176
  tail call void @_Z14test_variable1Ij19custom_add_variableIjEEvPT_iS2_PKc(ptr noundef nonnull @data32unsigned, i32 noundef 8000, i32 noundef %176, ptr noundef nonnull @.str.101)
  tail call void @_Z22test_hoisted_variable1Ij19custom_add_variableIjEEvPT_iS2_PKc(ptr noundef nonnull @data32unsigned, i32 noundef 8000, i32 noundef %176, ptr noundef nonnull @.str.102)
  tail call void @_Z14test_variable4Ij28custom_add_multiple_variableIjEEvPT_iS2_S2_S2_S2_PKc(ptr noundef nonnull @data32unsigned, i32 noundef 8000, i32 noundef %176, i32 noundef %177, i32 noundef %178, i32 noundef %180, ptr noundef nonnull @.str.103)
  tail call void @_Z14test_variable1Ij19custom_sub_variableIjEEvPT_iS2_PKc(ptr noundef nonnull @data32unsigned, i32 noundef 8000, i32 noundef %176, ptr noundef nonnull @.str.104)
  tail call void @_Z14test_variable4Ij28custom_sub_multiple_variableIjEEvPT_iS2_S2_S2_S2_PKc(ptr noundef nonnull @data32unsigned, i32 noundef 8000, i32 noundef %176, i32 noundef %177, i32 noundef %178, i32 noundef %180, ptr noundef nonnull @.str.105)
  tail call void @_Z14test_variable1Ij24custom_multiply_variableIjEEvPT_iS2_PKc(ptr noundef nonnull @data32unsigned, i32 noundef 8000, i32 noundef %176, ptr noundef nonnull @.str.106)
  tail call void @_Z14test_variable4Ij33custom_multiply_multiple_variableIjEEvPT_iS2_S2_S2_S2_PKc(ptr noundef nonnull @data32unsigned, i32 noundef 8000, i32 noundef %176, i32 noundef %177, i32 noundef %178, i32 noundef %180, ptr noundef nonnull @.str.107)
  tail call void @_Z14test_variable4Ij34custom_multiply_multiple_variable2IjEEvPT_iS2_S2_S2_S2_PKc(ptr noundef nonnull @data32unsigned, i32 noundef 8000, i32 noundef %176, i32 noundef %177, i32 noundef %178, i32 noundef %180, ptr noundef nonnull @.str.108)
  tail call void @_Z14test_variable1Ij22custom_divide_variableIjEEvPT_iS2_PKc(ptr noundef nonnull @data32unsigned, i32 noundef 8000, i32 noundef %176, ptr noundef nonnull @.str.109)
  tail call void @_Z14test_variable4Ij31custom_divide_multiple_variableIjEEvPT_iS2_S2_S2_S2_PKc(ptr noundef nonnull @data32unsigned, i32 noundef 8000, i32 noundef %176, i32 noundef %177, i32 noundef %178, i32 noundef %180, ptr noundef nonnull @.str.110)
  tail call void @_Z14test_variable4Ij32custom_divide_multiple_variable2IjEEvPT_iS2_S2_S2_S2_PKc(ptr noundef nonnull @data32unsigned, i32 noundef 8000, i32 noundef %176, i32 noundef %177, i32 noundef %178, i32 noundef %180, ptr noundef nonnull @.str.111)
  tail call void @_Z14test_variable4Ij30custom_mixed_multiple_variableIjEEvPT_iS2_S2_S2_S2_PKc(ptr noundef nonnull @data32unsigned, i32 noundef 8000, i32 noundef %176, i32 noundef %177, i32 noundef %178, i32 noundef %180, ptr noundef nonnull @.str.112)
  tail call void @_Z14test_variable1Ij19custom_variable_andIjEEvPT_iS2_PKc(ptr noundef nonnull @data32unsigned, i32 noundef 8000, i32 noundef %176, ptr noundef nonnull @.str.113)
  tail call void @_Z14test_variable4Ij28custom_multiple_variable_andIjEEvPT_iS2_S2_S2_S2_PKc(ptr noundef nonnull @data32unsigned, i32 noundef 8000, i32 noundef %176, i32 noundef %177, i32 noundef %178, i32 noundef %180, ptr noundef nonnull @.str.114)
  tail call void @_Z14test_variable1Ij18custom_variable_orIjEEvPT_iS2_PKc(ptr noundef nonnull @data32unsigned, i32 noundef 8000, i32 noundef %176, ptr noundef nonnull @.str.115)
  tail call void @_Z14test_variable4Ij27custom_multiple_variable_orIjEEvPT_iS2_S2_S2_S2_PKc(ptr noundef nonnull @data32unsigned, i32 noundef 8000, i32 noundef %176, i32 noundef %177, i32 noundef %178, i32 noundef %180, ptr noundef nonnull @.str.116)
  tail call void @_Z14test_variable1Ij19custom_variable_xorIjEEvPT_iS2_PKc(ptr noundef nonnull @data32unsigned, i32 noundef 8000, i32 noundef %176, ptr noundef nonnull @.str.117)
  tail call void @_Z14test_variable4Ij28custom_multiple_variable_xorIjEEvPT_iS2_S2_S2_S2_PKc(ptr noundef nonnull @data32unsigned, i32 noundef 8000, i32 noundef %176, i32 noundef %177, i32 noundef %178, i32 noundef %180, ptr noundef nonnull @.str.118)
  %181 = load double, ptr @init_value, align 8, !tbaa !28
  %182 = fptosi double %181 to i64
  %183 = insertelement <2 x i64> poison, i64 %182, i64 0
  %184 = shufflevector <2 x i64> %183, <2 x i64> poison, <2 x i32> zeroinitializer
  %185 = insertelement <2 x i64> poison, i64 %182, i64 0
  %186 = shufflevector <2 x i64> %185, <2 x i64> poison, <2 x i32> zeroinitializer
  br label %187

187:                                              ; preds = %187, %175
  %188 = phi i64 [ 0, %175 ], [ %208, %187 ]
  %189 = shl i64 %188, 3
  %190 = getelementptr i8, ptr @data64, i64 %189
  store <2 x i64> %184, ptr %190, align 16, !tbaa !26
  %191 = getelementptr i64, ptr %190, i64 2
  store <2 x i64> %186, ptr %191, align 16, !tbaa !26
  %192 = shl i64 %188, 3
  %193 = add i64 %192, 32
  %194 = getelementptr i8, ptr @data64, i64 %193
  store <2 x i64> %184, ptr %194, align 16, !tbaa !26
  %195 = getelementptr i64, ptr %194, i64 2
  store <2 x i64> %186, ptr %195, align 16, !tbaa !26
  %196 = shl i64 %188, 3
  %197 = add i64 %196, 64
  %198 = getelementptr i8, ptr @data64, i64 %197
  store <2 x i64> %184, ptr %198, align 16, !tbaa !26
  %199 = getelementptr i64, ptr %198, i64 2
  store <2 x i64> %186, ptr %199, align 16, !tbaa !26
  %200 = shl i64 %188, 3
  %201 = add i64 %200, 96
  %202 = getelementptr i8, ptr @data64, i64 %201
  store <2 x i64> %184, ptr %202, align 16, !tbaa !26
  %203 = getelementptr i64, ptr %202, i64 2
  store <2 x i64> %186, ptr %203, align 16, !tbaa !26
  %204 = shl i64 %188, 3
  %205 = add i64 %204, 128
  %206 = getelementptr i8, ptr @data64, i64 %205
  store <2 x i64> %184, ptr %206, align 16, !tbaa !26
  %207 = getelementptr i64, ptr %206, i64 2
  store <2 x i64> %186, ptr %207, align 16, !tbaa !26
  %208 = add nuw nsw i64 %188, 20
  %209 = icmp eq i64 %208, 8000
  br i1 %209, label %210, label %187, !llvm.loop !38

210:                                              ; preds = %187
  %211 = fptosi double %20 to i64
  %212 = shl nsw i64 %211, 1
  %213 = add nsw i64 %211, 2
  %214 = sdiv i64 %212, %213
  %215 = add nsw i64 %214, %211
  tail call void @_Z14test_variable1Il19custom_add_variableIlEEvPT_iS2_PKc(ptr noundef nonnull @data64, i32 noundef 8000, i64 noundef %211, ptr noundef nonnull @.str.119)
  tail call void @_Z22test_hoisted_variable1Il19custom_add_variableIlEEvPT_iS2_PKc(ptr noundef nonnull @data64, i32 noundef 8000, i64 noundef %211, ptr noundef nonnull @.str.120)
  tail call void @_Z14test_variable4Il28custom_add_multiple_variableIlEEvPT_iS2_S2_S2_S2_PKc(ptr noundef nonnull @data64, i32 noundef 8000, i64 noundef %211, i64 noundef %212, i64 noundef %213, i64 noundef %215, ptr noundef nonnull @.str.121)
  tail call void @_Z14test_variable1Il19custom_sub_variableIlEEvPT_iS2_PKc(ptr noundef nonnull @data64, i32 noundef 8000, i64 noundef %211, ptr noundef nonnull @.str.122)
  tail call void @_Z14test_variable4Il28custom_sub_multiple_variableIlEEvPT_iS2_S2_S2_S2_PKc(ptr noundef nonnull @data64, i32 noundef 8000, i64 noundef %211, i64 noundef %212, i64 noundef %213, i64 noundef %215, ptr noundef nonnull @.str.123)
  tail call void @_Z14test_variable1Il24custom_multiply_variableIlEEvPT_iS2_PKc(ptr noundef nonnull @data64, i32 noundef 8000, i64 noundef %211, ptr noundef nonnull @.str.124)
  tail call void @_Z14test_variable4Il33custom_multiply_multiple_variableIlEEvPT_iS2_S2_S2_S2_PKc(ptr noundef nonnull @data64, i32 noundef 8000, i64 noundef %211, i64 noundef %212, i64 noundef %213, i64 noundef %215, ptr noundef nonnull @.str.125)
  tail call void @_Z14test_variable4Il34custom_multiply_multiple_variable2IlEEvPT_iS2_S2_S2_S2_PKc(ptr noundef nonnull @data64, i32 noundef 8000, i64 noundef %211, i64 noundef %212, i64 noundef %213, i64 noundef %215, ptr noundef nonnull @.str.126)
  tail call void @_Z14test_variable1Il22custom_divide_variableIlEEvPT_iS2_PKc(ptr noundef nonnull @data64, i32 noundef 8000, i64 noundef %211, ptr noundef nonnull @.str.127)
  tail call void @_Z14test_variable4Il31custom_divide_multiple_variableIlEEvPT_iS2_S2_S2_S2_PKc(ptr noundef nonnull @data64, i32 noundef 8000, i64 noundef %211, i64 noundef %212, i64 noundef %213, i64 noundef %215, ptr noundef nonnull @.str.128)
  tail call void @_Z14test_variable4Il32custom_divide_multiple_variable2IlEEvPT_iS2_S2_S2_S2_PKc(ptr noundef nonnull @data64, i32 noundef 8000, i64 noundef %211, i64 noundef %212, i64 noundef %213, i64 noundef %215, ptr noundef nonnull @.str.129)
  tail call void @_Z14test_variable4Il30custom_mixed_multiple_variableIlEEvPT_iS2_S2_S2_S2_PKc(ptr noundef nonnull @data64, i32 noundef 8000, i64 noundef %211, i64 noundef %212, i64 noundef %213, i64 noundef %215, ptr noundef nonnull @.str.130)
  tail call void @_Z14test_variable1Il19custom_variable_andIlEEvPT_iS2_PKc(ptr noundef nonnull @data64, i32 noundef 8000, i64 noundef %211, ptr noundef nonnull @.str.131)
  tail call void @_Z14test_variable4Il28custom_multiple_variable_andIlEEvPT_iS2_S2_S2_S2_PKc(ptr noundef nonnull @data64, i32 noundef 8000, i64 noundef %211, i64 noundef %212, i64 noundef %213, i64 noundef %215, ptr noundef nonnull @.str.132)
  tail call void @_Z14test_variable1Il18custom_variable_orIlEEvPT_iS2_PKc(ptr noundef nonnull @data64, i32 noundef 8000, i64 noundef %211, ptr noundef nonnull @.str.133)
  tail call void @_Z14test_variable4Il27custom_multiple_variable_orIlEEvPT_iS2_S2_S2_S2_PKc(ptr noundef nonnull @data64, i32 noundef 8000, i64 noundef %211, i64 noundef %212, i64 noundef %213, i64 noundef %215, ptr noundef nonnull @.str.134)
  tail call void @_Z14test_variable1Il19custom_variable_xorIlEEvPT_iS2_PKc(ptr noundef nonnull @data64, i32 noundef 8000, i64 noundef %211, ptr noundef nonnull @.str.135)
  tail call void @_Z14test_variable4Il28custom_multiple_variable_xorIlEEvPT_iS2_S2_S2_S2_PKc(ptr noundef nonnull @data64, i32 noundef 8000, i64 noundef %211, i64 noundef %212, i64 noundef %213, i64 noundef %215, ptr noundef nonnull @.str.136)
  %216 = load double, ptr @init_value, align 8, !tbaa !28
  %217 = fptoui double %216 to i64
  %218 = insertelement <2 x i64> poison, i64 %217, i64 0
  %219 = shufflevector <2 x i64> %218, <2 x i64> poison, <2 x i32> zeroinitializer
  %220 = insertelement <2 x i64> poison, i64 %217, i64 0
  %221 = shufflevector <2 x i64> %220, <2 x i64> poison, <2 x i32> zeroinitializer
  br label %222

222:                                              ; preds = %222, %210
  %223 = phi i64 [ 0, %210 ], [ %243, %222 ]
  %224 = shl i64 %223, 3
  %225 = getelementptr i8, ptr @data64unsigned, i64 %224
  store <2 x i64> %219, ptr %225, align 16, !tbaa !26
  %226 = getelementptr i64, ptr %225, i64 2
  store <2 x i64> %221, ptr %226, align 16, !tbaa !26
  %227 = shl i64 %223, 3
  %228 = add i64 %227, 32
  %229 = getelementptr i8, ptr @data64unsigned, i64 %228
  store <2 x i64> %219, ptr %229, align 16, !tbaa !26
  %230 = getelementptr i64, ptr %229, i64 2
  store <2 x i64> %221, ptr %230, align 16, !tbaa !26
  %231 = shl i64 %223, 3
  %232 = add i64 %231, 64
  %233 = getelementptr i8, ptr @data64unsigned, i64 %232
  store <2 x i64> %219, ptr %233, align 16, !tbaa !26
  %234 = getelementptr i64, ptr %233, i64 2
  store <2 x i64> %221, ptr %234, align 16, !tbaa !26
  %235 = shl i64 %223, 3
  %236 = add i64 %235, 96
  %237 = getelementptr i8, ptr @data64unsigned, i64 %236
  store <2 x i64> %219, ptr %237, align 16, !tbaa !26
  %238 = getelementptr i64, ptr %237, i64 2
  store <2 x i64> %221, ptr %238, align 16, !tbaa !26
  %239 = shl i64 %223, 3
  %240 = add i64 %239, 128
  %241 = getelementptr i8, ptr @data64unsigned, i64 %240
  store <2 x i64> %219, ptr %241, align 16, !tbaa !26
  %242 = getelementptr i64, ptr %241, i64 2
  store <2 x i64> %221, ptr %242, align 16, !tbaa !26
  %243 = add nuw nsw i64 %223, 20
  %244 = icmp eq i64 %243, 8000
  br i1 %244, label %245, label %222, !llvm.loop !39

245:                                              ; preds = %222
  %246 = fptoui double %20 to i64
  %247 = shl i64 %246, 1
  %248 = add i64 %246, 2
  %249 = udiv i64 %247, %248
  %250 = add i64 %249, %246
  tail call void @_Z14test_variable1Im19custom_add_variableImEEvPT_iS2_PKc(ptr noundef nonnull @data64unsigned, i32 noundef 8000, i64 noundef %246, ptr noundef nonnull @.str.137)
  tail call void @_Z22test_hoisted_variable1Im19custom_add_variableImEEvPT_iS2_PKc(ptr noundef nonnull @data64unsigned, i32 noundef 8000, i64 noundef %246, ptr noundef nonnull @.str.138)
  tail call void @_Z14test_variable4Im28custom_add_multiple_variableImEEvPT_iS2_S2_S2_S2_PKc(ptr noundef nonnull @data64unsigned, i32 noundef 8000, i64 noundef %246, i64 noundef %247, i64 noundef %248, i64 noundef %250, ptr noundef nonnull @.str.139)
  tail call void @_Z14test_variable1Im19custom_sub_variableImEEvPT_iS2_PKc(ptr noundef nonnull @data64unsigned, i32 noundef 8000, i64 noundef %246, ptr noundef nonnull @.str.140)
  tail call void @_Z14test_variable4Im28custom_sub_multiple_variableImEEvPT_iS2_S2_S2_S2_PKc(ptr noundef nonnull @data64unsigned, i32 noundef 8000, i64 noundef %246, i64 noundef %247, i64 noundef %248, i64 noundef %250, ptr noundef nonnull @.str.141)
  tail call void @_Z14test_variable1Im24custom_multiply_variableImEEvPT_iS2_PKc(ptr noundef nonnull @data64unsigned, i32 noundef 8000, i64 noundef %246, ptr noundef nonnull @.str.142)
  tail call void @_Z14test_variable4Im33custom_multiply_multiple_variableImEEvPT_iS2_S2_S2_S2_PKc(ptr noundef nonnull @data64unsigned, i32 noundef 8000, i64 noundef %246, i64 noundef %247, i64 noundef %248, i64 noundef %250, ptr noundef nonnull @.str.143)
  tail call void @_Z14test_variable4Im34custom_multiply_multiple_variable2ImEEvPT_iS2_S2_S2_S2_PKc(ptr noundef nonnull @data64unsigned, i32 noundef 8000, i64 noundef %246, i64 noundef %247, i64 noundef %248, i64 noundef %250, ptr noundef nonnull @.str.144)
  tail call void @_Z14test_variable1Im22custom_divide_variableImEEvPT_iS2_PKc(ptr noundef nonnull @data64unsigned, i32 noundef 8000, i64 noundef %246, ptr noundef nonnull @.str.145)
  tail call void @_Z14test_variable4Im31custom_divide_multiple_variableImEEvPT_iS2_S2_S2_S2_PKc(ptr noundef nonnull @data64unsigned, i32 noundef 8000, i64 noundef %246, i64 noundef %247, i64 noundef %248, i64 noundef %250, ptr noundef nonnull @.str.146)
  tail call void @_Z14test_variable4Im32custom_divide_multiple_variable2ImEEvPT_iS2_S2_S2_S2_PKc(ptr noundef nonnull @data64unsigned, i32 noundef 8000, i64 noundef %246, i64 noundef %247, i64 noundef %248, i64 noundef %250, ptr noundef nonnull @.str.147)
  tail call void @_Z14test_variable4Im30custom_mixed_multiple_variableImEEvPT_iS2_S2_S2_S2_PKc(ptr noundef nonnull @data64unsigned, i32 noundef 8000, i64 noundef %246, i64 noundef %247, i64 noundef %248, i64 noundef %250, ptr noundef nonnull @.str.148)
  tail call void @_Z14test_variable1Im19custom_variable_andImEEvPT_iS2_PKc(ptr noundef nonnull @data64unsigned, i32 noundef 8000, i64 noundef %246, ptr noundef nonnull @.str.149)
  tail call void @_Z14test_variable4Im28custom_multiple_variable_andImEEvPT_iS2_S2_S2_S2_PKc(ptr noundef nonnull @data64unsigned, i32 noundef 8000, i64 noundef %246, i64 noundef %247, i64 noundef %248, i64 noundef %250, ptr noundef nonnull @.str.150)
  tail call void @_Z14test_variable1Im18custom_variable_orImEEvPT_iS2_PKc(ptr noundef nonnull @data64unsigned, i32 noundef 8000, i64 noundef %246, ptr noundef nonnull @.str.151)
  tail call void @_Z14test_variable4Im27custom_multiple_variable_orImEEvPT_iS2_S2_S2_S2_PKc(ptr noundef nonnull @data64unsigned, i32 noundef 8000, i64 noundef %246, i64 noundef %247, i64 noundef %248, i64 noundef %250, ptr noundef nonnull @.str.152)
  tail call void @_Z14test_variable1Im19custom_variable_xorImEEvPT_iS2_PKc(ptr noundef nonnull @data64unsigned, i32 noundef 8000, i64 noundef %246, ptr noundef nonnull @.str.153)
  tail call void @_Z14test_variable4Im28custom_multiple_variable_xorImEEvPT_iS2_S2_S2_S2_PKc(ptr noundef nonnull @data64unsigned, i32 noundef 8000, i64 noundef %246, i64 noundef %247, i64 noundef %248, i64 noundef %250, ptr noundef nonnull @.str.154)
  %251 = load double, ptr @init_value, align 8, !tbaa !28
  %252 = fptrunc double %251 to float
  %253 = insertelement <4 x float> poison, float %252, i64 0
  %254 = shufflevector <4 x float> %253, <4 x float> poison, <4 x i32> zeroinitializer
  %255 = insertelement <4 x float> poison, float %252, i64 0
  %256 = shufflevector <4 x float> %255, <4 x float> poison, <4 x i32> zeroinitializer
  br label %257

257:                                              ; preds = %257, %245
  %258 = phi i64 [ 0, %245 ], [ %278, %257 ]
  %259 = shl i64 %258, 2
  %260 = getelementptr i8, ptr @dataFloat, i64 %259
  store <4 x float> %254, ptr %260, align 16, !tbaa !40
  %261 = getelementptr float, ptr %260, i64 4
  store <4 x float> %256, ptr %261, align 16, !tbaa !40
  %262 = shl i64 %258, 2
  %263 = add i64 %262, 32
  %264 = getelementptr i8, ptr @dataFloat, i64 %263
  store <4 x float> %254, ptr %264, align 16, !tbaa !40
  %265 = getelementptr float, ptr %264, i64 4
  store <4 x float> %256, ptr %265, align 16, !tbaa !40
  %266 = shl i64 %258, 2
  %267 = add i64 %266, 64
  %268 = getelementptr i8, ptr @dataFloat, i64 %267
  store <4 x float> %254, ptr %268, align 16, !tbaa !40
  %269 = getelementptr float, ptr %268, i64 4
  store <4 x float> %256, ptr %269, align 16, !tbaa !40
  %270 = shl i64 %258, 2
  %271 = add i64 %270, 96
  %272 = getelementptr i8, ptr @dataFloat, i64 %271
  store <4 x float> %254, ptr %272, align 16, !tbaa !40
  %273 = getelementptr float, ptr %272, i64 4
  store <4 x float> %256, ptr %273, align 16, !tbaa !40
  %274 = shl i64 %258, 2
  %275 = add i64 %274, 128
  %276 = getelementptr i8, ptr @dataFloat, i64 %275
  store <4 x float> %254, ptr %276, align 16, !tbaa !40
  %277 = getelementptr float, ptr %276, i64 4
  store <4 x float> %256, ptr %277, align 16, !tbaa !40
  %278 = add nuw nsw i64 %258, 40
  %279 = icmp eq i64 %278, 8000
  br i1 %279, label %280, label %257, !llvm.loop !42

280:                                              ; preds = %257
  %281 = fptrunc double %20 to float
  %282 = fmul float %281, 2.000000e+00
  %283 = fadd float %281, 2.000000e+00
  %284 = fdiv float %282, %283
  %285 = fadd float %284, %281
  tail call void @_Z14test_variable1If19custom_add_variableIfEEvPT_iS2_PKc(ptr noundef nonnull @dataFloat, i32 noundef 8000, float noundef %281, ptr noundef nonnull @.str.155)
  tail call void @_Z22test_hoisted_variable1If19custom_add_variableIfEEvPT_iS2_PKc(ptr noundef nonnull @dataFloat, i32 noundef 8000, float noundef %281, ptr noundef nonnull @.str.156)
  tail call void @_Z14test_variable4If28custom_add_multiple_variableIfEEvPT_iS2_S2_S2_S2_PKc(ptr noundef nonnull @dataFloat, i32 noundef 8000, float noundef %281, float noundef %282, float noundef %283, float noundef %285, ptr noundef nonnull @.str.157)
  tail call void @_Z14test_variable1If19custom_sub_variableIfEEvPT_iS2_PKc(ptr noundef nonnull @dataFloat, i32 noundef 8000, float noundef %281, ptr noundef nonnull @.str.158)
  tail call void @_Z14test_variable4If28custom_sub_multiple_variableIfEEvPT_iS2_S2_S2_S2_PKc(ptr noundef nonnull @dataFloat, i32 noundef 8000, float noundef %281, float noundef %282, float noundef %283, float noundef %285, ptr noundef nonnull @.str.159)
  tail call void @_Z14test_variable1If24custom_multiply_variableIfEEvPT_iS2_PKc(ptr noundef nonnull @dataFloat, i32 noundef 8000, float noundef %281, ptr noundef nonnull @.str.160)
  tail call void @_Z14test_variable4If33custom_multiply_multiple_variableIfEEvPT_iS2_S2_S2_S2_PKc(ptr noundef nonnull @dataFloat, i32 noundef 8000, float noundef %281, float noundef %282, float noundef %283, float noundef %285, ptr noundef nonnull @.str.161)
  tail call void @_Z14test_variable4If34custom_multiply_multiple_variable2IfEEvPT_iS2_S2_S2_S2_PKc(ptr noundef nonnull @dataFloat, i32 noundef 8000, float noundef %281, float noundef %282, float noundef %283, float noundef %285, ptr noundef nonnull @.str.162)
  tail call void @_Z14test_variable1If22custom_divide_variableIfEEvPT_iS2_PKc(ptr noundef nonnull @dataFloat, i32 noundef 8000, float noundef %281, ptr noundef nonnull @.str.163)
  tail call void @_Z14test_variable4If31custom_divide_multiple_variableIfEEvPT_iS2_S2_S2_S2_PKc(ptr noundef nonnull @dataFloat, i32 noundef 8000, float noundef %281, float noundef %282, float noundef %283, float noundef %285, ptr noundef nonnull @.str.164)
  tail call void @_Z14test_variable4If32custom_divide_multiple_variable2IfEEvPT_iS2_S2_S2_S2_PKc(ptr noundef nonnull @dataFloat, i32 noundef 8000, float noundef %281, float noundef %282, float noundef %283, float noundef %285, ptr noundef nonnull @.str.165)
  tail call void @_Z14test_variable4If30custom_mixed_multiple_variableIfEEvPT_iS2_S2_S2_S2_PKc(ptr noundef nonnull @dataFloat, i32 noundef 8000, float noundef %281, float noundef %282, float noundef %283, float noundef %285, ptr noundef nonnull @.str.166)
  %286 = load double, ptr @init_value, align 8, !tbaa !28
  %287 = insertelement <2 x double> poison, double %286, i64 0
  %288 = shufflevector <2 x double> %287, <2 x double> poison, <2 x i32> zeroinitializer
  %289 = insertelement <2 x double> poison, double %286, i64 0
  %290 = shufflevector <2 x double> %289, <2 x double> poison, <2 x i32> zeroinitializer
  br label %291

291:                                              ; preds = %291, %280
  %292 = phi i64 [ 0, %280 ], [ %312, %291 ]
  %293 = shl i64 %292, 3
  %294 = getelementptr i8, ptr @dataDouble, i64 %293
  store <2 x double> %288, ptr %294, align 16, !tbaa !28
  %295 = getelementptr double, ptr %294, i64 2
  store <2 x double> %290, ptr %295, align 16, !tbaa !28
  %296 = shl i64 %292, 3
  %297 = add i64 %296, 32
  %298 = getelementptr i8, ptr @dataDouble, i64 %297
  store <2 x double> %288, ptr %298, align 16, !tbaa !28
  %299 = getelementptr double, ptr %298, i64 2
  store <2 x double> %290, ptr %299, align 16, !tbaa !28
  %300 = shl i64 %292, 3
  %301 = add i64 %300, 64
  %302 = getelementptr i8, ptr @dataDouble, i64 %301
  store <2 x double> %288, ptr %302, align 16, !tbaa !28
  %303 = getelementptr double, ptr %302, i64 2
  store <2 x double> %290, ptr %303, align 16, !tbaa !28
  %304 = shl i64 %292, 3
  %305 = add i64 %304, 96
  %306 = getelementptr i8, ptr @dataDouble, i64 %305
  store <2 x double> %288, ptr %306, align 16, !tbaa !28
  %307 = getelementptr double, ptr %306, i64 2
  store <2 x double> %290, ptr %307, align 16, !tbaa !28
  %308 = shl i64 %292, 3
  %309 = add i64 %308, 128
  %310 = getelementptr i8, ptr @dataDouble, i64 %309
  store <2 x double> %288, ptr %310, align 16, !tbaa !28
  %311 = getelementptr double, ptr %310, i64 2
  store <2 x double> %290, ptr %311, align 16, !tbaa !28
  %312 = add nuw nsw i64 %292, 20
  %313 = icmp eq i64 %312, 8000
  br i1 %313, label %314, label %291, !llvm.loop !43

314:                                              ; preds = %291
  %315 = fmul double %20, 2.000000e+00
  %316 = fadd double %20, 2.000000e+00
  %317 = fdiv double %315, %316
  %318 = fadd double %20, %317
  tail call void @_Z14test_variable1Id19custom_add_variableIdEEvPT_iS2_PKc(ptr noundef nonnull @dataDouble, i32 noundef 8000, double noundef %20, ptr noundef nonnull @.str.167)
  tail call void @_Z22test_hoisted_variable1Id19custom_add_variableIdEEvPT_iS2_PKc(ptr noundef nonnull @dataDouble, i32 noundef 8000, double noundef %20, ptr noundef nonnull @.str.168)
  tail call void @_Z14test_variable4Id28custom_add_multiple_variableIdEEvPT_iS2_S2_S2_S2_PKc(ptr noundef nonnull @dataDouble, i32 noundef 8000, double noundef %20, double noundef %315, double noundef %316, double noundef %318, ptr noundef nonnull @.str.169)
  tail call void @_Z14test_variable1Id19custom_sub_variableIdEEvPT_iS2_PKc(ptr noundef nonnull @dataDouble, i32 noundef 8000, double noundef %20, ptr noundef nonnull @.str.170)
  tail call void @_Z14test_variable4Id28custom_sub_multiple_variableIdEEvPT_iS2_S2_S2_S2_PKc(ptr noundef nonnull @dataDouble, i32 noundef 8000, double noundef %20, double noundef %315, double noundef %316, double noundef %318, ptr noundef nonnull @.str.171)
  tail call void @_Z14test_variable1Id24custom_multiply_variableIdEEvPT_iS2_PKc(ptr noundef nonnull @dataDouble, i32 noundef 8000, double noundef %20, ptr noundef nonnull @.str.172)
  tail call void @_Z14test_variable4Id33custom_multiply_multiple_variableIdEEvPT_iS2_S2_S2_S2_PKc(ptr noundef nonnull @dataDouble, i32 noundef 8000, double noundef %20, double noundef %315, double noundef %316, double noundef %318, ptr noundef nonnull @.str.173)
  tail call void @_Z14test_variable4Id34custom_multiply_multiple_variable2IdEEvPT_iS2_S2_S2_S2_PKc(ptr noundef nonnull @dataDouble, i32 noundef 8000, double noundef %20, double noundef %315, double noundef %316, double noundef %318, ptr noundef nonnull @.str.174)
  tail call void @_Z14test_variable1Id22custom_divide_variableIdEEvPT_iS2_PKc(ptr noundef nonnull @dataDouble, i32 noundef 8000, double noundef %20, ptr noundef nonnull @.str.175)
  tail call void @_Z14test_variable4Id31custom_divide_multiple_variableIdEEvPT_iS2_S2_S2_S2_PKc(ptr noundef nonnull @dataDouble, i32 noundef 8000, double noundef %20, double noundef %315, double noundef %316, double noundef %318, ptr noundef nonnull @.str.176)
  tail call void @_Z14test_variable4Id32custom_divide_multiple_variable2IdEEvPT_iS2_S2_S2_S2_PKc(ptr noundef nonnull @dataDouble, i32 noundef 8000, double noundef %20, double noundef %315, double noundef %316, double noundef %318, ptr noundef nonnull @.str.177)
  tail call void @_Z14test_variable4Id30custom_mixed_multiple_variableIdEEvPT_iS2_S2_S2_S2_PKc(ptr noundef nonnull @dataDouble, i32 noundef 8000, double noundef %20, double noundef %315, double noundef %316, double noundef %318, ptr noundef nonnull @.str.178)
  ret i32 0
}

; Function Attrs: mustprogress uwtable
define linkonce_odr dso_local void @_Z14test_variable1Ia19custom_add_variableIaEEvPT_iS2_PKc(ptr noundef %0, i32 noundef %1, i8 noundef signext %2, ptr noundef %3) local_unnamed_addr #9 comdat {
  %5 = tail call i64 @clock() #17
  store i64 %5, ptr @start_time, align 8, !tbaa !26
  %6 = load i32, ptr @iterations, align 4, !tbaa !9
  %7 = icmp sgt i32 %6, 0
  br i1 %7, label %8, label %110

8:                                                ; preds = %4
  %9 = icmp sgt i32 %1, 0
  br i1 %9, label %12, label %10

10:                                               ; preds = %8
  %11 = load double, ptr @init_value, align 8, !tbaa !28
  br label %92

12:                                               ; preds = %8
  %13 = zext i32 %1 to i64
  %14 = icmp ult i32 %1, 8
  %15 = icmp ult i32 %1, 32
  %16 = and i64 %13, 4294967264
  %17 = insertelement <16 x i8> poison, i8 %2, i64 0
  %18 = shufflevector <16 x i8> %17, <16 x i8> poison, <16 x i32> zeroinitializer
  %19 = insertelement <16 x i8> poison, i8 %2, i64 0
  %20 = shufflevector <16 x i8> %19, <16 x i8> poison, <16 x i32> zeroinitializer
  %21 = icmp eq i64 %16, %13
  %22 = and i64 %13, 24
  %23 = icmp eq i64 %22, 0
  %24 = and i64 %13, 4294967288
  %25 = insertelement <8 x i8> poison, i8 %2, i64 0
  %26 = shufflevector <8 x i8> %25, <8 x i8> poison, <8 x i32> zeroinitializer
  %27 = icmp eq i64 %24, %13
  br label %28

28:                                               ; preds = %12, %72
  %29 = phi i32 [ %73, %72 ], [ %6, %12 ]
  %30 = phi i32 [ %74, %72 ], [ 0, %12 ]
  br i1 %14, label %65, label %31

31:                                               ; preds = %28
  br i1 %15, label %50, label %32

32:                                               ; preds = %31, %32
  %33 = phi i64 [ %44, %32 ], [ 0, %31 ]
  %34 = phi <16 x i8> [ %42, %32 ], [ zeroinitializer, %31 ]
  %35 = phi <16 x i8> [ %43, %32 ], [ zeroinitializer, %31 ]
  %36 = getelementptr inbounds i8, ptr %0, i64 %33
  %37 = load <16 x i8>, ptr %36, align 1, !tbaa !29
  %38 = getelementptr inbounds i8, ptr %36, i64 16
  %39 = load <16 x i8>, ptr %38, align 1, !tbaa !29
  %40 = add <16 x i8> %34, %18
  %41 = add <16 x i8> %35, %20
  %42 = add <16 x i8> %40, %37
  %43 = add <16 x i8> %41, %39
  %44 = add nuw i64 %33, 32
  %45 = icmp eq i64 %44, %16
  br i1 %45, label %46, label %32, !llvm.loop !44

46:                                               ; preds = %32
  %47 = add <16 x i8> %43, %42
  %48 = tail call i8 @llvm.vector.reduce.add.v16i8(<16 x i8> %47)
  br i1 %21, label %85, label %49

49:                                               ; preds = %46
  br i1 %23, label %65, label %50

50:                                               ; preds = %31, %49
  %51 = phi i8 [ 0, %31 ], [ %48, %49 ]
  %52 = phi i64 [ 0, %31 ], [ %16, %49 ]
  %53 = insertelement <8 x i8> <i8 poison, i8 0, i8 0, i8 0, i8 0, i8 0, i8 0, i8 0>, i8 %51, i64 0
  br label %54

54:                                               ; preds = %54, %50
  %55 = phi i64 [ %52, %50 ], [ %61, %54 ]
  %56 = phi <8 x i8> [ %53, %50 ], [ %60, %54 ]
  %57 = getelementptr inbounds i8, ptr %0, i64 %55
  %58 = load <8 x i8>, ptr %57, align 1, !tbaa !29
  %59 = add <8 x i8> %56, %26
  %60 = add <8 x i8> %59, %58
  %61 = add nuw i64 %55, 8
  %62 = icmp eq i64 %61, %24
  br i1 %62, label %63, label %54, !llvm.loop !45

63:                                               ; preds = %54
  %64 = tail call i8 @llvm.vector.reduce.add.v8i8(<8 x i8> %60)
  br i1 %27, label %85, label %65

65:                                               ; preds = %28, %49, %63
  %66 = phi i64 [ 0, %28 ], [ %16, %49 ], [ %24, %63 ]
  %67 = phi i8 [ 0, %28 ], [ %48, %49 ], [ %64, %63 ]
  br label %76

68:                                               ; preds = %85
  %69 = load i32, ptr @current_test, align 4, !tbaa !9
  %70 = tail call i32 (ptr, ...) @printf(ptr noundef nonnull dereferenceable(1) @.str.179, i32 noundef %69)
  %71 = load i32, ptr @iterations, align 4, !tbaa !9
  br label %72

72:                                               ; preds = %68, %85
  %73 = phi i32 [ %71, %68 ], [ %29, %85 ]
  %74 = add nuw nsw i32 %30, 1
  %75 = icmp slt i32 %74, %73
  br i1 %75, label %28, label %110, !llvm.loop !46

76:                                               ; preds = %65, %76
  %77 = phi i64 [ %83, %76 ], [ %66, %65 ]
  %78 = phi i8 [ %82, %76 ], [ %67, %65 ]
  %79 = getelementptr inbounds i8, ptr %0, i64 %77
  %80 = load i8, ptr %79, align 1, !tbaa !29
  %81 = add i8 %78, %2
  %82 = add i8 %81, %80
  %83 = add nuw nsw i64 %77, 1
  %84 = icmp eq i64 %83, %13
  br i1 %84, label %85, label %76, !llvm.loop !47

85:                                               ; preds = %76, %63, %46
  %86 = phi i8 [ %48, %46 ], [ %64, %63 ], [ %82, %76 ]
  %87 = load double, ptr @init_value, align 8, !tbaa !28
  %88 = fptosi double %87 to i8
  %89 = add i8 %88, %2
  %90 = shl i8 %89, 6
  %91 = icmp eq i8 %90, %86
  br i1 %91, label %72, label %68

92:                                               ; preds = %10, %105
  %93 = phi i32 [ %106, %105 ], [ %6, %10 ]
  %94 = phi double [ %107, %105 ], [ %11, %10 ]
  %95 = phi i32 [ %108, %105 ], [ 0, %10 ]
  %96 = fptosi double %94 to i8
  %97 = add i8 %96, %2
  %98 = and i8 %97, 3
  %99 = icmp eq i8 %98, 0
  br i1 %99, label %105, label %100

100:                                              ; preds = %92
  %101 = load i32, ptr @current_test, align 4, !tbaa !9
  %102 = tail call i32 (ptr, ...) @printf(ptr noundef nonnull dereferenceable(1) @.str.179, i32 noundef %101)
  %103 = load double, ptr @init_value, align 8, !tbaa !28
  %104 = load i32, ptr @iterations, align 4, !tbaa !9
  br label %105

105:                                              ; preds = %92, %100
  %106 = phi i32 [ %93, %92 ], [ %104, %100 ]
  %107 = phi double [ %94, %92 ], [ %103, %100 ]
  %108 = add nuw nsw i32 %95, 1
  %109 = icmp slt i32 %108, %106
  br i1 %109, label %92, label %110, !llvm.loop !46

110:                                              ; preds = %105, %72, %4
  %111 = tail call i64 @clock() #17
  store i64 %111, ptr @end_time, align 8, !tbaa !26
  %112 = load i64, ptr @start_time, align 8, !tbaa !26
  %113 = load ptr, ptr @results, align 8, !tbaa !5
  %114 = icmp eq ptr %113, null
  br i1 %114, label %115, label %117

115:                                              ; preds = %110
  %116 = load i32, ptr @allocated_results, align 4, !tbaa !9
  br label %121

117:                                              ; preds = %110
  %118 = load i32, ptr @current_test, align 4, !tbaa !9
  %119 = load i32, ptr @allocated_results, align 4, !tbaa !9
  %120 = icmp slt i32 %118, %119
  br i1 %120, label %133, label %121

121:                                              ; preds = %117, %115
  %122 = phi i32 [ %116, %115 ], [ %119, %117 ]
  %123 = add nsw i32 %122, 10
  store i32 %123, ptr @allocated_results, align 4, !tbaa !9
  %124 = sext i32 %123 to i64
  %125 = shl nsw i64 %124, 4
  %126 = tail call ptr @realloc(ptr noundef %113, i64 noundef %125) #14
  store ptr %126, ptr @results, align 8, !tbaa !5
  %127 = icmp eq ptr %126, null
  br i1 %127, label %130, label %128

128:                                              ; preds = %121
  %129 = load i32, ptr @current_test, align 4, !tbaa !9
  br label %133

130:                                              ; preds = %121
  %131 = load i32, ptr @allocated_results, align 4, !tbaa !9
  %132 = tail call i32 (ptr, ...) @printf(ptr noundef nonnull dereferenceable(1) @.str, i32 noundef %131)
  tail call void @exit(i32 noundef -1) #15
  unreachable

133:                                              ; preds = %117, %128
  %134 = phi i32 [ %129, %128 ], [ %118, %117 ]
  %135 = phi ptr [ %126, %128 ], [ %113, %117 ]
  %136 = sub nsw i64 %111, %112
  %137 = sitofp i64 %136 to double
  %138 = fdiv double %137, 1.000000e+06
  %139 = sext i32 %134 to i64
  %140 = getelementptr inbounds %struct.one_result, ptr %135, i64 %139
  store double %138, ptr %140, align 8, !tbaa !11
  %141 = getelementptr inbounds %struct.one_result, ptr %135, i64 %139, i32 1
  store ptr %3, ptr %141, align 8, !tbaa !14
  %142 = add nsw i32 %134, 1
  store i32 %142, ptr @current_test, align 4, !tbaa !9
  ret void
}

; Function Attrs: mustprogress uwtable
define linkonce_odr dso_local void @_Z22test_hoisted_variable1Ia19custom_add_variableIaEEvPT_iS2_PKc(ptr noundef %0, i32 noundef %1, i8 noundef signext %2, ptr noundef %3) local_unnamed_addr #9 comdat {
  %5 = tail call i64 @clock() #17
  store i64 %5, ptr @start_time, align 8, !tbaa !26
  %6 = load i32, ptr @iterations, align 4, !tbaa !9
  %7 = icmp sgt i32 %6, 0
  br i1 %7, label %8, label %103

8:                                                ; preds = %4
  %9 = icmp sgt i32 %1, 0
  %10 = trunc i32 %1 to i8
  %11 = mul i8 %10, %2
  br i1 %9, label %14, label %12

12:                                               ; preds = %8
  %13 = load double, ptr @init_value, align 8, !tbaa !28
  br label %85

14:                                               ; preds = %8
  %15 = zext i32 %1 to i64
  %16 = icmp ult i32 %1, 8
  %17 = icmp ult i32 %1, 32
  %18 = and i64 %15, 4294967264
  %19 = icmp eq i64 %18, %15
  %20 = and i64 %15, 24
  %21 = icmp eq i64 %20, 0
  %22 = and i64 %15, 4294967288
  %23 = icmp eq i64 %22, %15
  br label %24

24:                                               ; preds = %14, %65
  %25 = phi i32 [ %66, %65 ], [ %6, %14 ]
  %26 = phi i32 [ %67, %65 ], [ 0, %14 ]
  br i1 %16, label %58, label %27

27:                                               ; preds = %24
  br i1 %17, label %44, label %28

28:                                               ; preds = %27, %28
  %29 = phi i64 [ %38, %28 ], [ 0, %27 ]
  %30 = phi <16 x i8> [ %36, %28 ], [ zeroinitializer, %27 ]
  %31 = phi <16 x i8> [ %37, %28 ], [ zeroinitializer, %27 ]
  %32 = getelementptr inbounds i8, ptr %0, i64 %29
  %33 = load <16 x i8>, ptr %32, align 1, !tbaa !29
  %34 = getelementptr inbounds i8, ptr %32, i64 16
  %35 = load <16 x i8>, ptr %34, align 1, !tbaa !29
  %36 = add <16 x i8> %33, %30
  %37 = add <16 x i8> %35, %31
  %38 = add nuw i64 %29, 32
  %39 = icmp eq i64 %38, %18
  br i1 %39, label %40, label %28, !llvm.loop !48

40:                                               ; preds = %28
  %41 = add <16 x i8> %37, %36
  %42 = tail call i8 @llvm.vector.reduce.add.v16i8(<16 x i8> %41)
  br i1 %19, label %77, label %43

43:                                               ; preds = %40
  br i1 %21, label %58, label %44

44:                                               ; preds = %27, %43
  %45 = phi i8 [ 0, %27 ], [ %42, %43 ]
  %46 = phi i64 [ 0, %27 ], [ %18, %43 ]
  %47 = insertelement <8 x i8> <i8 poison, i8 0, i8 0, i8 0, i8 0, i8 0, i8 0, i8 0>, i8 %45, i64 0
  br label %48

48:                                               ; preds = %48, %44
  %49 = phi i64 [ %46, %44 ], [ %54, %48 ]
  %50 = phi <8 x i8> [ %47, %44 ], [ %53, %48 ]
  %51 = getelementptr inbounds i8, ptr %0, i64 %49
  %52 = load <8 x i8>, ptr %51, align 1, !tbaa !29
  %53 = add <8 x i8> %52, %50
  %54 = add nuw i64 %49, 8
  %55 = icmp eq i64 %54, %22
  br i1 %55, label %56, label %48, !llvm.loop !49

56:                                               ; preds = %48
  %57 = tail call i8 @llvm.vector.reduce.add.v8i8(<8 x i8> %53)
  br i1 %23, label %77, label %58

58:                                               ; preds = %24, %43, %56
  %59 = phi i64 [ 0, %24 ], [ %18, %43 ], [ %22, %56 ]
  %60 = phi i8 [ 0, %24 ], [ %42, %43 ], [ %57, %56 ]
  br label %69

61:                                               ; preds = %77
  %62 = load i32, ptr @current_test, align 4, !tbaa !9
  %63 = tail call i32 (ptr, ...) @printf(ptr noundef nonnull dereferenceable(1) @.str.179, i32 noundef %62)
  %64 = load i32, ptr @iterations, align 4, !tbaa !9
  br label %65

65:                                               ; preds = %61, %77
  %66 = phi i32 [ %64, %61 ], [ %25, %77 ]
  %67 = add nuw nsw i32 %26, 1
  %68 = icmp slt i32 %67, %66
  br i1 %68, label %24, label %103, !llvm.loop !50

69:                                               ; preds = %58, %69
  %70 = phi i64 [ %75, %69 ], [ %59, %58 ]
  %71 = phi i8 [ %74, %69 ], [ %60, %58 ]
  %72 = getelementptr inbounds i8, ptr %0, i64 %70
  %73 = load i8, ptr %72, align 1, !tbaa !29
  %74 = add i8 %73, %71
  %75 = add nuw nsw i64 %70, 1
  %76 = icmp eq i64 %75, %15
  br i1 %76, label %77, label %69, !llvm.loop !51

77:                                               ; preds = %69, %56, %40
  %78 = phi i8 [ %42, %40 ], [ %57, %56 ], [ %74, %69 ]
  %79 = add i8 %78, %11
  %80 = load double, ptr @init_value, align 8, !tbaa !28
  %81 = fptosi double %80 to i8
  %82 = add i8 %81, %2
  %83 = shl i8 %82, 6
  %84 = icmp eq i8 %83, %79
  br i1 %84, label %65, label %61

85:                                               ; preds = %12, %98
  %86 = phi i32 [ %99, %98 ], [ %6, %12 ]
  %87 = phi double [ %100, %98 ], [ %13, %12 ]
  %88 = phi i32 [ %101, %98 ], [ 0, %12 ]
  %89 = fptosi double %87 to i8
  %90 = add i8 %89, %2
  %91 = shl i8 %90, 6
  %92 = icmp eq i8 %91, %11
  br i1 %92, label %98, label %93

93:                                               ; preds = %85
  %94 = load i32, ptr @current_test, align 4, !tbaa !9
  %95 = tail call i32 (ptr, ...) @printf(ptr noundef nonnull dereferenceable(1) @.str.179, i32 noundef %94)
  %96 = load double, ptr @init_value, align 8, !tbaa !28
  %97 = load i32, ptr @iterations, align 4, !tbaa !9
  br label %98

98:                                               ; preds = %85, %93
  %99 = phi i32 [ %86, %85 ], [ %97, %93 ]
  %100 = phi double [ %87, %85 ], [ %96, %93 ]
  %101 = add nuw nsw i32 %88, 1
  %102 = icmp slt i32 %101, %99
  br i1 %102, label %85, label %103, !llvm.loop !50

103:                                              ; preds = %98, %65, %4
  %104 = tail call i64 @clock() #17
  store i64 %104, ptr @end_time, align 8, !tbaa !26
  %105 = load i64, ptr @start_time, align 8, !tbaa !26
  %106 = load ptr, ptr @results, align 8, !tbaa !5
  %107 = icmp eq ptr %106, null
  br i1 %107, label %108, label %110

108:                                              ; preds = %103
  %109 = load i32, ptr @allocated_results, align 4, !tbaa !9
  br label %114

110:                                              ; preds = %103
  %111 = load i32, ptr @current_test, align 4, !tbaa !9
  %112 = load i32, ptr @allocated_results, align 4, !tbaa !9
  %113 = icmp slt i32 %111, %112
  br i1 %113, label %126, label %114

114:                                              ; preds = %110, %108
  %115 = phi i32 [ %109, %108 ], [ %112, %110 ]
  %116 = add nsw i32 %115, 10
  store i32 %116, ptr @allocated_results, align 4, !tbaa !9
  %117 = sext i32 %116 to i64
  %118 = shl nsw i64 %117, 4
  %119 = tail call ptr @realloc(ptr noundef %106, i64 noundef %118) #14
  store ptr %119, ptr @results, align 8, !tbaa !5
  %120 = icmp eq ptr %119, null
  br i1 %120, label %123, label %121

121:                                              ; preds = %114
  %122 = load i32, ptr @current_test, align 4, !tbaa !9
  br label %126

123:                                              ; preds = %114
  %124 = load i32, ptr @allocated_results, align 4, !tbaa !9
  %125 = tail call i32 (ptr, ...) @printf(ptr noundef nonnull dereferenceable(1) @.str, i32 noundef %124)
  tail call void @exit(i32 noundef -1) #15
  unreachable

126:                                              ; preds = %110, %121
  %127 = phi i32 [ %122, %121 ], [ %111, %110 ]
  %128 = phi ptr [ %119, %121 ], [ %106, %110 ]
  %129 = sub nsw i64 %104, %105
  %130 = sitofp i64 %129 to double
  %131 = fdiv double %130, 1.000000e+06
  %132 = sext i32 %127 to i64
  %133 = getelementptr inbounds %struct.one_result, ptr %128, i64 %132
  store double %131, ptr %133, align 8, !tbaa !11
  %134 = getelementptr inbounds %struct.one_result, ptr %128, i64 %132, i32 1
  store ptr %3, ptr %134, align 8, !tbaa !14
  %135 = add nsw i32 %127, 1
  store i32 %135, ptr @current_test, align 4, !tbaa !9
  ret void
}

; Function Attrs: mustprogress uwtable
define linkonce_odr dso_local void @_Z14test_variable4Ia28custom_add_multiple_variableIaEEvPT_iS2_S2_S2_S2_PKc(ptr noundef %0, i32 noundef %1, i8 noundef signext %2, i8 noundef signext %3, i8 noundef signext %4, i8 noundef signext %5, ptr noundef %6) local_unnamed_addr #9 comdat {
  %8 = tail call i64 @clock() #17
  store i64 %8, ptr @start_time, align 8, !tbaa !26
  %9 = load i32, ptr @iterations, align 4, !tbaa !9
  %10 = icmp sgt i32 %9, 0
  br i1 %10, label %11, label %116

11:                                               ; preds = %7
  %12 = icmp sgt i32 %1, 0
  %13 = add i8 %3, %2
  %14 = add i8 %13, %4
  %15 = add i8 %14, %5
  br i1 %12, label %18, label %16

16:                                               ; preds = %11
  %17 = load double, ptr @init_value, align 8, !tbaa !28
  br label %98

18:                                               ; preds = %11
  %19 = zext i32 %1 to i64
  %20 = icmp ult i32 %1, 8
  %21 = icmp ult i32 %1, 32
  %22 = and i64 %19, 4294967264
  %23 = insertelement <16 x i8> poison, i8 %15, i64 0
  %24 = shufflevector <16 x i8> %23, <16 x i8> poison, <16 x i32> zeroinitializer
  %25 = insertelement <16 x i8> poison, i8 %15, i64 0
  %26 = shufflevector <16 x i8> %25, <16 x i8> poison, <16 x i32> zeroinitializer
  %27 = icmp eq i64 %22, %19
  %28 = and i64 %19, 24
  %29 = icmp eq i64 %28, 0
  %30 = and i64 %19, 4294967288
  %31 = insertelement <8 x i8> poison, i8 %15, i64 0
  %32 = shufflevector <8 x i8> %31, <8 x i8> poison, <8 x i32> zeroinitializer
  %33 = icmp eq i64 %30, %19
  br label %34

34:                                               ; preds = %18, %78
  %35 = phi i32 [ %79, %78 ], [ %9, %18 ]
  %36 = phi i32 [ %80, %78 ], [ 0, %18 ]
  br i1 %20, label %71, label %37

37:                                               ; preds = %34
  br i1 %21, label %56, label %38

38:                                               ; preds = %37, %38
  %39 = phi i64 [ %50, %38 ], [ 0, %37 ]
  %40 = phi <16 x i8> [ %48, %38 ], [ zeroinitializer, %37 ]
  %41 = phi <16 x i8> [ %49, %38 ], [ zeroinitializer, %37 ]
  %42 = getelementptr inbounds i8, ptr %0, i64 %39
  %43 = load <16 x i8>, ptr %42, align 1, !tbaa !29
  %44 = getelementptr inbounds i8, ptr %42, i64 16
  %45 = load <16 x i8>, ptr %44, align 1, !tbaa !29
  %46 = add <16 x i8> %24, %40
  %47 = add <16 x i8> %26, %41
  %48 = add <16 x i8> %46, %43
  %49 = add <16 x i8> %47, %45
  %50 = add nuw i64 %39, 32
  %51 = icmp eq i64 %50, %22
  br i1 %51, label %52, label %38, !llvm.loop !52

52:                                               ; preds = %38
  %53 = add <16 x i8> %49, %48
  %54 = tail call i8 @llvm.vector.reduce.add.v16i8(<16 x i8> %53)
  br i1 %27, label %91, label %55

55:                                               ; preds = %52
  br i1 %29, label %71, label %56

56:                                               ; preds = %37, %55
  %57 = phi i8 [ 0, %37 ], [ %54, %55 ]
  %58 = phi i64 [ 0, %37 ], [ %22, %55 ]
  %59 = insertelement <8 x i8> <i8 poison, i8 0, i8 0, i8 0, i8 0, i8 0, i8 0, i8 0>, i8 %57, i64 0
  br label %60

60:                                               ; preds = %60, %56
  %61 = phi i64 [ %58, %56 ], [ %67, %60 ]
  %62 = phi <8 x i8> [ %59, %56 ], [ %66, %60 ]
  %63 = getelementptr inbounds i8, ptr %0, i64 %61
  %64 = load <8 x i8>, ptr %63, align 1, !tbaa !29
  %65 = add <8 x i8> %32, %62
  %66 = add <8 x i8> %65, %64
  %67 = add nuw i64 %61, 8
  %68 = icmp eq i64 %67, %30
  br i1 %68, label %69, label %60, !llvm.loop !53

69:                                               ; preds = %60
  %70 = tail call i8 @llvm.vector.reduce.add.v8i8(<8 x i8> %66)
  br i1 %33, label %91, label %71

71:                                               ; preds = %34, %55, %69
  %72 = phi i64 [ 0, %34 ], [ %22, %55 ], [ %30, %69 ]
  %73 = phi i8 [ 0, %34 ], [ %54, %55 ], [ %70, %69 ]
  br label %82

74:                                               ; preds = %91
  %75 = load i32, ptr @current_test, align 4, !tbaa !9
  %76 = tail call i32 (ptr, ...) @printf(ptr noundef nonnull dereferenceable(1) @.str.179, i32 noundef %75)
  %77 = load i32, ptr @iterations, align 4, !tbaa !9
  br label %78

78:                                               ; preds = %74, %91
  %79 = phi i32 [ %77, %74 ], [ %35, %91 ]
  %80 = add nuw nsw i32 %36, 1
  %81 = icmp slt i32 %80, %79
  br i1 %81, label %34, label %116, !llvm.loop !54

82:                                               ; preds = %71, %82
  %83 = phi i64 [ %89, %82 ], [ %72, %71 ]
  %84 = phi i8 [ %88, %82 ], [ %73, %71 ]
  %85 = getelementptr inbounds i8, ptr %0, i64 %83
  %86 = load i8, ptr %85, align 1, !tbaa !29
  %87 = add i8 %15, %84
  %88 = add i8 %87, %86
  %89 = add nuw nsw i64 %83, 1
  %90 = icmp eq i64 %89, %19
  br i1 %90, label %91, label %82, !llvm.loop !55

91:                                               ; preds = %82, %69, %52
  %92 = phi i8 [ %54, %52 ], [ %70, %69 ], [ %88, %82 ]
  %93 = load double, ptr @init_value, align 8, !tbaa !28
  %94 = fptosi double %93 to i8
  %95 = add i8 %15, %94
  %96 = shl i8 %95, 6
  %97 = icmp eq i8 %96, %92
  br i1 %97, label %78, label %74

98:                                               ; preds = %16, %111
  %99 = phi i32 [ %112, %111 ], [ %9, %16 ]
  %100 = phi double [ %113, %111 ], [ %17, %16 ]
  %101 = phi i32 [ %114, %111 ], [ 0, %16 ]
  %102 = fptosi double %100 to i8
  %103 = add i8 %15, %102
  %104 = and i8 %103, 3
  %105 = icmp eq i8 %104, 0
  br i1 %105, label %111, label %106

106:                                              ; preds = %98
  %107 = load i32, ptr @current_test, align 4, !tbaa !9
  %108 = tail call i32 (ptr, ...) @printf(ptr noundef nonnull dereferenceable(1) @.str.179, i32 noundef %107)
  %109 = load double, ptr @init_value, align 8, !tbaa !28
  %110 = load i32, ptr @iterations, align 4, !tbaa !9
  br label %111

111:                                              ; preds = %98, %106
  %112 = phi i32 [ %99, %98 ], [ %110, %106 ]
  %113 = phi double [ %100, %98 ], [ %109, %106 ]
  %114 = add nuw nsw i32 %101, 1
  %115 = icmp slt i32 %114, %112
  br i1 %115, label %98, label %116, !llvm.loop !54

116:                                              ; preds = %111, %78, %7
  %117 = tail call i64 @clock() #17
  store i64 %117, ptr @end_time, align 8, !tbaa !26
  %118 = load i64, ptr @start_time, align 8, !tbaa !26
  %119 = load ptr, ptr @results, align 8, !tbaa !5
  %120 = icmp eq ptr %119, null
  br i1 %120, label %121, label %123

121:                                              ; preds = %116
  %122 = load i32, ptr @allocated_results, align 4, !tbaa !9
  br label %127

123:                                              ; preds = %116
  %124 = load i32, ptr @current_test, align 4, !tbaa !9
  %125 = load i32, ptr @allocated_results, align 4, !tbaa !9
  %126 = icmp slt i32 %124, %125
  br i1 %126, label %139, label %127

127:                                              ; preds = %123, %121
  %128 = phi i32 [ %122, %121 ], [ %125, %123 ]
  %129 = add nsw i32 %128, 10
  store i32 %129, ptr @allocated_results, align 4, !tbaa !9
  %130 = sext i32 %129 to i64
  %131 = shl nsw i64 %130, 4
  %132 = tail call ptr @realloc(ptr noundef %119, i64 noundef %131) #14
  store ptr %132, ptr @results, align 8, !tbaa !5
  %133 = icmp eq ptr %132, null
  br i1 %133, label %136, label %134

134:                                              ; preds = %127
  %135 = load i32, ptr @current_test, align 4, !tbaa !9
  br label %139

136:                                              ; preds = %127
  %137 = load i32, ptr @allocated_results, align 4, !tbaa !9
  %138 = tail call i32 (ptr, ...) @printf(ptr noundef nonnull dereferenceable(1) @.str, i32 noundef %137)
  tail call void @exit(i32 noundef -1) #15
  unreachable

139:                                              ; preds = %123, %134
  %140 = phi i32 [ %135, %134 ], [ %124, %123 ]
  %141 = phi ptr [ %132, %134 ], [ %119, %123 ]
  %142 = sub nsw i64 %117, %118
  %143 = sitofp i64 %142 to double
  %144 = fdiv double %143, 1.000000e+06
  %145 = sext i32 %140 to i64
  %146 = getelementptr inbounds %struct.one_result, ptr %141, i64 %145
  store double %144, ptr %146, align 8, !tbaa !11
  %147 = getelementptr inbounds %struct.one_result, ptr %141, i64 %145, i32 1
  store ptr %6, ptr %147, align 8, !tbaa !14
  %148 = add nsw i32 %140, 1
  store i32 %148, ptr @current_test, align 4, !tbaa !9
  ret void
}

; Function Attrs: mustprogress uwtable
define linkonce_odr dso_local void @_Z14test_variable1Ia19custom_sub_variableIaEEvPT_iS2_PKc(ptr noundef %0, i32 noundef %1, i8 noundef signext %2, ptr noundef %3) local_unnamed_addr #9 comdat {
  %5 = tail call i64 @clock() #17
  store i64 %5, ptr @start_time, align 8, !tbaa !26
  %6 = load i32, ptr @iterations, align 4, !tbaa !9
  %7 = icmp sgt i32 %6, 0
  br i1 %7, label %8, label %110

8:                                                ; preds = %4
  %9 = icmp sgt i32 %1, 0
  br i1 %9, label %12, label %10

10:                                               ; preds = %8
  %11 = load double, ptr @init_value, align 8, !tbaa !28
  br label %92

12:                                               ; preds = %8
  %13 = zext i32 %1 to i64
  %14 = icmp ult i32 %1, 8
  %15 = icmp ult i32 %1, 32
  %16 = and i64 %13, 4294967264
  %17 = insertelement <16 x i8> poison, i8 %2, i64 0
  %18 = shufflevector <16 x i8> %17, <16 x i8> poison, <16 x i32> zeroinitializer
  %19 = insertelement <16 x i8> poison, i8 %2, i64 0
  %20 = shufflevector <16 x i8> %19, <16 x i8> poison, <16 x i32> zeroinitializer
  %21 = icmp eq i64 %16, %13
  %22 = and i64 %13, 24
  %23 = icmp eq i64 %22, 0
  %24 = and i64 %13, 4294967288
  %25 = insertelement <8 x i8> poison, i8 %2, i64 0
  %26 = shufflevector <8 x i8> %25, <8 x i8> poison, <8 x i32> zeroinitializer
  %27 = icmp eq i64 %24, %13
  br label %28

28:                                               ; preds = %12, %72
  %29 = phi i32 [ %73, %72 ], [ %6, %12 ]
  %30 = phi i32 [ %74, %72 ], [ 0, %12 ]
  br i1 %14, label %65, label %31

31:                                               ; preds = %28
  br i1 %15, label %50, label %32

32:                                               ; preds = %31, %32
  %33 = phi i64 [ %44, %32 ], [ 0, %31 ]
  %34 = phi <16 x i8> [ %42, %32 ], [ zeroinitializer, %31 ]
  %35 = phi <16 x i8> [ %43, %32 ], [ zeroinitializer, %31 ]
  %36 = getelementptr inbounds i8, ptr %0, i64 %33
  %37 = load <16 x i8>, ptr %36, align 1, !tbaa !29
  %38 = getelementptr inbounds i8, ptr %36, i64 16
  %39 = load <16 x i8>, ptr %38, align 1, !tbaa !29
  %40 = sub <16 x i8> %34, %18
  %41 = sub <16 x i8> %35, %20
  %42 = add <16 x i8> %40, %37
  %43 = add <16 x i8> %41, %39
  %44 = add nuw i64 %33, 32
  %45 = icmp eq i64 %44, %16
  br i1 %45, label %46, label %32, !llvm.loop !56

46:                                               ; preds = %32
  %47 = add <16 x i8> %43, %42
  %48 = tail call i8 @llvm.vector.reduce.add.v16i8(<16 x i8> %47)
  br i1 %21, label %85, label %49

49:                                               ; preds = %46
  br i1 %23, label %65, label %50

50:                                               ; preds = %31, %49
  %51 = phi i8 [ 0, %31 ], [ %48, %49 ]
  %52 = phi i64 [ 0, %31 ], [ %16, %49 ]
  %53 = insertelement <8 x i8> <i8 poison, i8 0, i8 0, i8 0, i8 0, i8 0, i8 0, i8 0>, i8 %51, i64 0
  br label %54

54:                                               ; preds = %54, %50
  %55 = phi i64 [ %52, %50 ], [ %61, %54 ]
  %56 = phi <8 x i8> [ %53, %50 ], [ %60, %54 ]
  %57 = getelementptr inbounds i8, ptr %0, i64 %55
  %58 = load <8 x i8>, ptr %57, align 1, !tbaa !29
  %59 = sub <8 x i8> %56, %26
  %60 = add <8 x i8> %59, %58
  %61 = add nuw i64 %55, 8
  %62 = icmp eq i64 %61, %24
  br i1 %62, label %63, label %54, !llvm.loop !57

63:                                               ; preds = %54
  %64 = tail call i8 @llvm.vector.reduce.add.v8i8(<8 x i8> %60)
  br i1 %27, label %85, label %65

65:                                               ; preds = %28, %49, %63
  %66 = phi i64 [ 0, %28 ], [ %16, %49 ], [ %24, %63 ]
  %67 = phi i8 [ 0, %28 ], [ %48, %49 ], [ %64, %63 ]
  br label %76

68:                                               ; preds = %85
  %69 = load i32, ptr @current_test, align 4, !tbaa !9
  %70 = tail call i32 (ptr, ...) @printf(ptr noundef nonnull dereferenceable(1) @.str.179, i32 noundef %69)
  %71 = load i32, ptr @iterations, align 4, !tbaa !9
  br label %72

72:                                               ; preds = %68, %85
  %73 = phi i32 [ %71, %68 ], [ %29, %85 ]
  %74 = add nuw nsw i32 %30, 1
  %75 = icmp slt i32 %74, %73
  br i1 %75, label %28, label %110, !llvm.loop !58

76:                                               ; preds = %65, %76
  %77 = phi i64 [ %83, %76 ], [ %66, %65 ]
  %78 = phi i8 [ %82, %76 ], [ %67, %65 ]
  %79 = getelementptr inbounds i8, ptr %0, i64 %77
  %80 = load i8, ptr %79, align 1, !tbaa !29
  %81 = sub i8 %78, %2
  %82 = add i8 %81, %80
  %83 = add nuw nsw i64 %77, 1
  %84 = icmp eq i64 %83, %13
  br i1 %84, label %85, label %76, !llvm.loop !59

85:                                               ; preds = %76, %63, %46
  %86 = phi i8 [ %48, %46 ], [ %64, %63 ], [ %82, %76 ]
  %87 = load double, ptr @init_value, align 8, !tbaa !28
  %88 = fptosi double %87 to i8
  %89 = sub i8 %88, %2
  %90 = shl i8 %89, 6
  %91 = icmp eq i8 %90, %86
  br i1 %91, label %72, label %68

92:                                               ; preds = %10, %105
  %93 = phi i32 [ %106, %105 ], [ %6, %10 ]
  %94 = phi double [ %107, %105 ], [ %11, %10 ]
  %95 = phi i32 [ %108, %105 ], [ 0, %10 ]
  %96 = fptosi double %94 to i8
  %97 = sub i8 %96, %2
  %98 = and i8 %97, 3
  %99 = icmp eq i8 %98, 0
  br i1 %99, label %105, label %100

100:                                              ; preds = %92
  %101 = load i32, ptr @current_test, align 4, !tbaa !9
  %102 = tail call i32 (ptr, ...) @printf(ptr noundef nonnull dereferenceable(1) @.str.179, i32 noundef %101)
  %103 = load double, ptr @init_value, align 8, !tbaa !28
  %104 = load i32, ptr @iterations, align 4, !tbaa !9
  br label %105

105:                                              ; preds = %92, %100
  %106 = phi i32 [ %93, %92 ], [ %104, %100 ]
  %107 = phi double [ %94, %92 ], [ %103, %100 ]
  %108 = add nuw nsw i32 %95, 1
  %109 = icmp slt i32 %108, %106
  br i1 %109, label %92, label %110, !llvm.loop !58

110:                                              ; preds = %105, %72, %4
  %111 = tail call i64 @clock() #17
  store i64 %111, ptr @end_time, align 8, !tbaa !26
  %112 = load i64, ptr @start_time, align 8, !tbaa !26
  %113 = load ptr, ptr @results, align 8, !tbaa !5
  %114 = icmp eq ptr %113, null
  br i1 %114, label %115, label %117

115:                                              ; preds = %110
  %116 = load i32, ptr @allocated_results, align 4, !tbaa !9
  br label %121

117:                                              ; preds = %110
  %118 = load i32, ptr @current_test, align 4, !tbaa !9
  %119 = load i32, ptr @allocated_results, align 4, !tbaa !9
  %120 = icmp slt i32 %118, %119
  br i1 %120, label %133, label %121

121:                                              ; preds = %117, %115
  %122 = phi i32 [ %116, %115 ], [ %119, %117 ]
  %123 = add nsw i32 %122, 10
  store i32 %123, ptr @allocated_results, align 4, !tbaa !9
  %124 = sext i32 %123 to i64
  %125 = shl nsw i64 %124, 4
  %126 = tail call ptr @realloc(ptr noundef %113, i64 noundef %125) #14
  store ptr %126, ptr @results, align 8, !tbaa !5
  %127 = icmp eq ptr %126, null
  br i1 %127, label %130, label %128

128:                                              ; preds = %121
  %129 = load i32, ptr @current_test, align 4, !tbaa !9
  br label %133

130:                                              ; preds = %121
  %131 = load i32, ptr @allocated_results, align 4, !tbaa !9
  %132 = tail call i32 (ptr, ...) @printf(ptr noundef nonnull dereferenceable(1) @.str, i32 noundef %131)
  tail call void @exit(i32 noundef -1) #15
  unreachable

133:                                              ; preds = %117, %128
  %134 = phi i32 [ %129, %128 ], [ %118, %117 ]
  %135 = phi ptr [ %126, %128 ], [ %113, %117 ]
  %136 = sub nsw i64 %111, %112
  %137 = sitofp i64 %136 to double
  %138 = fdiv double %137, 1.000000e+06
  %139 = sext i32 %134 to i64
  %140 = getelementptr inbounds %struct.one_result, ptr %135, i64 %139
  store double %138, ptr %140, align 8, !tbaa !11
  %141 = getelementptr inbounds %struct.one_result, ptr %135, i64 %139, i32 1
  store ptr %3, ptr %141, align 8, !tbaa !14
  %142 = add nsw i32 %134, 1
  store i32 %142, ptr @current_test, align 4, !tbaa !9
  ret void
}

; Function Attrs: mustprogress uwtable
define linkonce_odr dso_local void @_Z14test_variable4Ia28custom_sub_multiple_variableIaEEvPT_iS2_S2_S2_S2_PKc(ptr noundef %0, i32 noundef %1, i8 noundef signext %2, i8 noundef signext %3, i8 noundef signext %4, i8 noundef signext %5, ptr noundef %6) local_unnamed_addr #9 comdat {
  %8 = tail call i64 @clock() #17
  store i64 %8, ptr @start_time, align 8, !tbaa !26
  %9 = load i32, ptr @iterations, align 4, !tbaa !9
  %10 = icmp sgt i32 %9, 0
  br i1 %10, label %11, label %116

11:                                               ; preds = %7
  %12 = icmp sgt i32 %1, 0
  %13 = add i8 %3, %2
  %14 = add i8 %13, %4
  %15 = add i8 %14, %5
  br i1 %12, label %18, label %16

16:                                               ; preds = %11
  %17 = load double, ptr @init_value, align 8, !tbaa !28
  br label %98

18:                                               ; preds = %11
  %19 = zext i32 %1 to i64
  %20 = icmp ult i32 %1, 8
  %21 = icmp ult i32 %1, 32
  %22 = and i64 %19, 4294967264
  %23 = insertelement <16 x i8> poison, i8 %15, i64 0
  %24 = shufflevector <16 x i8> %23, <16 x i8> poison, <16 x i32> zeroinitializer
  %25 = insertelement <16 x i8> poison, i8 %15, i64 0
  %26 = shufflevector <16 x i8> %25, <16 x i8> poison, <16 x i32> zeroinitializer
  %27 = icmp eq i64 %22, %19
  %28 = and i64 %19, 24
  %29 = icmp eq i64 %28, 0
  %30 = and i64 %19, 4294967288
  %31 = insertelement <8 x i8> poison, i8 %15, i64 0
  %32 = shufflevector <8 x i8> %31, <8 x i8> poison, <8 x i32> zeroinitializer
  %33 = icmp eq i64 %30, %19
  br label %34

34:                                               ; preds = %18, %78
  %35 = phi i32 [ %79, %78 ], [ %9, %18 ]
  %36 = phi i32 [ %80, %78 ], [ 0, %18 ]
  br i1 %20, label %71, label %37

37:                                               ; preds = %34
  br i1 %21, label %56, label %38

38:                                               ; preds = %37, %38
  %39 = phi i64 [ %50, %38 ], [ 0, %37 ]
  %40 = phi <16 x i8> [ %48, %38 ], [ zeroinitializer, %37 ]
  %41 = phi <16 x i8> [ %49, %38 ], [ zeroinitializer, %37 ]
  %42 = getelementptr inbounds i8, ptr %0, i64 %39
  %43 = load <16 x i8>, ptr %42, align 1, !tbaa !29
  %44 = getelementptr inbounds i8, ptr %42, i64 16
  %45 = load <16 x i8>, ptr %44, align 1, !tbaa !29
  %46 = sub <16 x i8> %40, %24
  %47 = sub <16 x i8> %41, %26
  %48 = add <16 x i8> %46, %43
  %49 = add <16 x i8> %47, %45
  %50 = add nuw i64 %39, 32
  %51 = icmp eq i64 %50, %22
  br i1 %51, label %52, label %38, !llvm.loop !60

52:                                               ; preds = %38
  %53 = add <16 x i8> %49, %48
  %54 = tail call i8 @llvm.vector.reduce.add.v16i8(<16 x i8> %53)
  br i1 %27, label %91, label %55

55:                                               ; preds = %52
  br i1 %29, label %71, label %56

56:                                               ; preds = %37, %55
  %57 = phi i8 [ 0, %37 ], [ %54, %55 ]
  %58 = phi i64 [ 0, %37 ], [ %22, %55 ]
  %59 = insertelement <8 x i8> <i8 poison, i8 0, i8 0, i8 0, i8 0, i8 0, i8 0, i8 0>, i8 %57, i64 0
  br label %60

60:                                               ; preds = %60, %56
  %61 = phi i64 [ %58, %56 ], [ %67, %60 ]
  %62 = phi <8 x i8> [ %59, %56 ], [ %66, %60 ]
  %63 = getelementptr inbounds i8, ptr %0, i64 %61
  %64 = load <8 x i8>, ptr %63, align 1, !tbaa !29
  %65 = sub <8 x i8> %62, %32
  %66 = add <8 x i8> %65, %64
  %67 = add nuw i64 %61, 8
  %68 = icmp eq i64 %67, %30
  br i1 %68, label %69, label %60, !llvm.loop !61

69:                                               ; preds = %60
  %70 = tail call i8 @llvm.vector.reduce.add.v8i8(<8 x i8> %66)
  br i1 %33, label %91, label %71

71:                                               ; preds = %34, %55, %69
  %72 = phi i64 [ 0, %34 ], [ %22, %55 ], [ %30, %69 ]
  %73 = phi i8 [ 0, %34 ], [ %54, %55 ], [ %70, %69 ]
  br label %82

74:                                               ; preds = %91
  %75 = load i32, ptr @current_test, align 4, !tbaa !9
  %76 = tail call i32 (ptr, ...) @printf(ptr noundef nonnull dereferenceable(1) @.str.179, i32 noundef %75)
  %77 = load i32, ptr @iterations, align 4, !tbaa !9
  br label %78

78:                                               ; preds = %74, %91
  %79 = phi i32 [ %77, %74 ], [ %35, %91 ]
  %80 = add nuw nsw i32 %36, 1
  %81 = icmp slt i32 %80, %79
  br i1 %81, label %34, label %116, !llvm.loop !62

82:                                               ; preds = %71, %82
  %83 = phi i64 [ %89, %82 ], [ %72, %71 ]
  %84 = phi i8 [ %88, %82 ], [ %73, %71 ]
  %85 = getelementptr inbounds i8, ptr %0, i64 %83
  %86 = load i8, ptr %85, align 1, !tbaa !29
  %87 = sub i8 %84, %15
  %88 = add i8 %87, %86
  %89 = add nuw nsw i64 %83, 1
  %90 = icmp eq i64 %89, %19
  br i1 %90, label %91, label %82, !llvm.loop !63

91:                                               ; preds = %82, %69, %52
  %92 = phi i8 [ %54, %52 ], [ %70, %69 ], [ %88, %82 ]
  %93 = load double, ptr @init_value, align 8, !tbaa !28
  %94 = fptosi double %93 to i8
  %95 = sub i8 %94, %15
  %96 = shl i8 %95, 6
  %97 = icmp eq i8 %96, %92
  br i1 %97, label %78, label %74

98:                                               ; preds = %16, %111
  %99 = phi i32 [ %112, %111 ], [ %9, %16 ]
  %100 = phi double [ %113, %111 ], [ %17, %16 ]
  %101 = phi i32 [ %114, %111 ], [ 0, %16 ]
  %102 = fptosi double %100 to i8
  %103 = sub i8 %102, %15
  %104 = and i8 %103, 3
  %105 = icmp eq i8 %104, 0
  br i1 %105, label %111, label %106

106:                                              ; preds = %98
  %107 = load i32, ptr @current_test, align 4, !tbaa !9
  %108 = tail call i32 (ptr, ...) @printf(ptr noundef nonnull dereferenceable(1) @.str.179, i32 noundef %107)
  %109 = load double, ptr @init_value, align 8, !tbaa !28
  %110 = load i32, ptr @iterations, align 4, !tbaa !9
  br label %111

111:                                              ; preds = %98, %106
  %112 = phi i32 [ %99, %98 ], [ %110, %106 ]
  %113 = phi double [ %100, %98 ], [ %109, %106 ]
  %114 = add nuw nsw i32 %101, 1
  %115 = icmp slt i32 %114, %112
  br i1 %115, label %98, label %116, !llvm.loop !62

116:                                              ; preds = %111, %78, %7
  %117 = tail call i64 @clock() #17
  store i64 %117, ptr @end_time, align 8, !tbaa !26
  %118 = load i64, ptr @start_time, align 8, !tbaa !26
  %119 = load ptr, ptr @results, align 8, !tbaa !5
  %120 = icmp eq ptr %119, null
  br i1 %120, label %121, label %123

121:                                              ; preds = %116
  %122 = load i32, ptr @allocated_results, align 4, !tbaa !9
  br label %127

123:                                              ; preds = %116
  %124 = load i32, ptr @current_test, align 4, !tbaa !9
  %125 = load i32, ptr @allocated_results, align 4, !tbaa !9
  %126 = icmp slt i32 %124, %125
  br i1 %126, label %139, label %127

127:                                              ; preds = %123, %121
  %128 = phi i32 [ %122, %121 ], [ %125, %123 ]
  %129 = add nsw i32 %128, 10
  store i32 %129, ptr @allocated_results, align 4, !tbaa !9
  %130 = sext i32 %129 to i64
  %131 = shl nsw i64 %130, 4
  %132 = tail call ptr @realloc(ptr noundef %119, i64 noundef %131) #14
  store ptr %132, ptr @results, align 8, !tbaa !5
  %133 = icmp eq ptr %132, null
  br i1 %133, label %136, label %134

134:                                              ; preds = %127
  %135 = load i32, ptr @current_test, align 4, !tbaa !9
  br label %139

136:                                              ; preds = %127
  %137 = load i32, ptr @allocated_results, align 4, !tbaa !9
  %138 = tail call i32 (ptr, ...) @printf(ptr noundef nonnull dereferenceable(1) @.str, i32 noundef %137)
  tail call void @exit(i32 noundef -1) #15
  unreachable

139:                                              ; preds = %123, %134
  %140 = phi i32 [ %135, %134 ], [ %124, %123 ]
  %141 = phi ptr [ %132, %134 ], [ %119, %123 ]
  %142 = sub nsw i64 %117, %118
  %143 = sitofp i64 %142 to double
  %144 = fdiv double %143, 1.000000e+06
  %145 = sext i32 %140 to i64
  %146 = getelementptr inbounds %struct.one_result, ptr %141, i64 %145
  store double %144, ptr %146, align 8, !tbaa !11
  %147 = getelementptr inbounds %struct.one_result, ptr %141, i64 %145, i32 1
  store ptr %6, ptr %147, align 8, !tbaa !14
  %148 = add nsw i32 %140, 1
  store i32 %148, ptr @current_test, align 4, !tbaa !9
  ret void
}

; Function Attrs: mustprogress uwtable
define linkonce_odr dso_local void @_Z14test_variable1Ia24custom_multiply_variableIaEEvPT_iS2_PKc(ptr noundef %0, i32 noundef %1, i8 noundef signext %2, ptr noundef %3) local_unnamed_addr #9 comdat {
  %5 = tail call i64 @clock() #17
  store i64 %5, ptr @start_time, align 8, !tbaa !26
  %6 = load i32, ptr @iterations, align 4, !tbaa !9
  %7 = icmp sgt i32 %6, 0
  br i1 %7, label %8, label %109

8:                                                ; preds = %4
  %9 = icmp sgt i32 %1, 0
  %10 = shl i8 %2, 6
  br i1 %9, label %13, label %11

11:                                               ; preds = %8
  %12 = load double, ptr @init_value, align 8, !tbaa !28
  br label %92

13:                                               ; preds = %8
  %14 = zext i32 %1 to i64
  %15 = icmp ult i32 %1, 8
  %16 = icmp ult i32 %1, 32
  %17 = and i64 %14, 4294967264
  %18 = insertelement <16 x i8> poison, i8 %2, i64 0
  %19 = shufflevector <16 x i8> %18, <16 x i8> poison, <16 x i32> zeroinitializer
  %20 = insertelement <16 x i8> poison, i8 %2, i64 0
  %21 = shufflevector <16 x i8> %20, <16 x i8> poison, <16 x i32> zeroinitializer
  %22 = icmp eq i64 %17, %14
  %23 = and i64 %14, 24
  %24 = icmp eq i64 %23, 0
  %25 = and i64 %14, 4294967288
  %26 = insertelement <8 x i8> poison, i8 %2, i64 0
  %27 = shufflevector <8 x i8> %26, <8 x i8> poison, <8 x i32> zeroinitializer
  %28 = icmp eq i64 %25, %14
  br label %29

29:                                               ; preds = %13, %73
  %30 = phi i32 [ %74, %73 ], [ %6, %13 ]
  %31 = phi i32 [ %75, %73 ], [ 0, %13 ]
  br i1 %15, label %66, label %32

32:                                               ; preds = %29
  br i1 %16, label %51, label %33

33:                                               ; preds = %32, %33
  %34 = phi i64 [ %45, %33 ], [ 0, %32 ]
  %35 = phi <16 x i8> [ %43, %33 ], [ zeroinitializer, %32 ]
  %36 = phi <16 x i8> [ %44, %33 ], [ zeroinitializer, %32 ]
  %37 = getelementptr inbounds i8, ptr %0, i64 %34
  %38 = load <16 x i8>, ptr %37, align 1, !tbaa !29
  %39 = getelementptr inbounds i8, ptr %37, i64 16
  %40 = load <16 x i8>, ptr %39, align 1, !tbaa !29
  %41 = mul <16 x i8> %38, %19
  %42 = mul <16 x i8> %40, %21
  %43 = add <16 x i8> %41, %35
  %44 = add <16 x i8> %42, %36
  %45 = add nuw i64 %34, 32
  %46 = icmp eq i64 %45, %17
  br i1 %46, label %47, label %33, !llvm.loop !64

47:                                               ; preds = %33
  %48 = add <16 x i8> %44, %43
  %49 = tail call i8 @llvm.vector.reduce.add.v16i8(<16 x i8> %48)
  br i1 %22, label %86, label %50

50:                                               ; preds = %47
  br i1 %24, label %66, label %51

51:                                               ; preds = %32, %50
  %52 = phi i8 [ 0, %32 ], [ %49, %50 ]
  %53 = phi i64 [ 0, %32 ], [ %17, %50 ]
  %54 = insertelement <8 x i8> <i8 poison, i8 0, i8 0, i8 0, i8 0, i8 0, i8 0, i8 0>, i8 %52, i64 0
  br label %55

55:                                               ; preds = %55, %51
  %56 = phi i64 [ %53, %51 ], [ %62, %55 ]
  %57 = phi <8 x i8> [ %54, %51 ], [ %61, %55 ]
  %58 = getelementptr inbounds i8, ptr %0, i64 %56
  %59 = load <8 x i8>, ptr %58, align 1, !tbaa !29
  %60 = mul <8 x i8> %59, %27
  %61 = add <8 x i8> %60, %57
  %62 = add nuw i64 %56, 8
  %63 = icmp eq i64 %62, %25
  br i1 %63, label %64, label %55, !llvm.loop !65

64:                                               ; preds = %55
  %65 = tail call i8 @llvm.vector.reduce.add.v8i8(<8 x i8> %61)
  br i1 %28, label %86, label %66

66:                                               ; preds = %29, %50, %64
  %67 = phi i64 [ 0, %29 ], [ %17, %50 ], [ %25, %64 ]
  %68 = phi i8 [ 0, %29 ], [ %49, %50 ], [ %65, %64 ]
  br label %77

69:                                               ; preds = %86
  %70 = load i32, ptr @current_test, align 4, !tbaa !9
  %71 = tail call i32 (ptr, ...) @printf(ptr noundef nonnull dereferenceable(1) @.str.179, i32 noundef %70)
  %72 = load i32, ptr @iterations, align 4, !tbaa !9
  br label %73

73:                                               ; preds = %69, %86
  %74 = phi i32 [ %72, %69 ], [ %30, %86 ]
  %75 = add nuw nsw i32 %31, 1
  %76 = icmp slt i32 %75, %74
  br i1 %76, label %29, label %109, !llvm.loop !66

77:                                               ; preds = %66, %77
  %78 = phi i64 [ %84, %77 ], [ %67, %66 ]
  %79 = phi i8 [ %83, %77 ], [ %68, %66 ]
  %80 = getelementptr inbounds i8, ptr %0, i64 %78
  %81 = load i8, ptr %80, align 1, !tbaa !29
  %82 = mul i8 %81, %2
  %83 = add i8 %82, %79
  %84 = add nuw nsw i64 %78, 1
  %85 = icmp eq i64 %84, %14
  br i1 %85, label %86, label %77, !llvm.loop !67

86:                                               ; preds = %77, %64, %47
  %87 = phi i8 [ %49, %47 ], [ %65, %64 ], [ %83, %77 ]
  %88 = load double, ptr @init_value, align 8, !tbaa !28
  %89 = fptosi double %88 to i8
  %90 = mul i8 %10, %89
  %91 = icmp eq i8 %90, %87
  br i1 %91, label %73, label %69

92:                                               ; preds = %11, %104
  %93 = phi i32 [ %105, %104 ], [ %6, %11 ]
  %94 = phi double [ %106, %104 ], [ %12, %11 ]
  %95 = phi i32 [ %107, %104 ], [ 0, %11 ]
  %96 = fptosi double %94 to i8
  %97 = mul i8 %10, %96
  %98 = icmp eq i8 %97, 0
  br i1 %98, label %104, label %99

99:                                               ; preds = %92
  %100 = load i32, ptr @current_test, align 4, !tbaa !9
  %101 = tail call i32 (ptr, ...) @printf(ptr noundef nonnull dereferenceable(1) @.str.179, i32 noundef %100)
  %102 = load double, ptr @init_value, align 8, !tbaa !28
  %103 = load i32, ptr @iterations, align 4, !tbaa !9
  br label %104

104:                                              ; preds = %92, %99
  %105 = phi i32 [ %93, %92 ], [ %103, %99 ]
  %106 = phi double [ %94, %92 ], [ %102, %99 ]
  %107 = add nuw nsw i32 %95, 1
  %108 = icmp slt i32 %107, %105
  br i1 %108, label %92, label %109, !llvm.loop !66

109:                                              ; preds = %104, %73, %4
  %110 = tail call i64 @clock() #17
  store i64 %110, ptr @end_time, align 8, !tbaa !26
  %111 = load i64, ptr @start_time, align 8, !tbaa !26
  %112 = load ptr, ptr @results, align 8, !tbaa !5
  %113 = icmp eq ptr %112, null
  br i1 %113, label %114, label %116

114:                                              ; preds = %109
  %115 = load i32, ptr @allocated_results, align 4, !tbaa !9
  br label %120

116:                                              ; preds = %109
  %117 = load i32, ptr @current_test, align 4, !tbaa !9
  %118 = load i32, ptr @allocated_results, align 4, !tbaa !9
  %119 = icmp slt i32 %117, %118
  br i1 %119, label %132, label %120

120:                                              ; preds = %116, %114
  %121 = phi i32 [ %115, %114 ], [ %118, %116 ]
  %122 = add nsw i32 %121, 10
  store i32 %122, ptr @allocated_results, align 4, !tbaa !9
  %123 = sext i32 %122 to i64
  %124 = shl nsw i64 %123, 4
  %125 = tail call ptr @realloc(ptr noundef %112, i64 noundef %124) #14
  store ptr %125, ptr @results, align 8, !tbaa !5
  %126 = icmp eq ptr %125, null
  br i1 %126, label %129, label %127

127:                                              ; preds = %120
  %128 = load i32, ptr @current_test, align 4, !tbaa !9
  br label %132

129:                                              ; preds = %120
  %130 = load i32, ptr @allocated_results, align 4, !tbaa !9
  %131 = tail call i32 (ptr, ...) @printf(ptr noundef nonnull dereferenceable(1) @.str, i32 noundef %130)
  tail call void @exit(i32 noundef -1) #15
  unreachable

132:                                              ; preds = %116, %127
  %133 = phi i32 [ %128, %127 ], [ %117, %116 ]
  %134 = phi ptr [ %125, %127 ], [ %112, %116 ]
  %135 = sub nsw i64 %110, %111
  %136 = sitofp i64 %135 to double
  %137 = fdiv double %136, 1.000000e+06
  %138 = sext i32 %133 to i64
  %139 = getelementptr inbounds %struct.one_result, ptr %134, i64 %138
  store double %137, ptr %139, align 8, !tbaa !11
  %140 = getelementptr inbounds %struct.one_result, ptr %134, i64 %138, i32 1
  store ptr %3, ptr %140, align 8, !tbaa !14
  %141 = add nsw i32 %133, 1
  store i32 %141, ptr @current_test, align 4, !tbaa !9
  ret void
}

; Function Attrs: mustprogress uwtable
define linkonce_odr dso_local void @_Z14test_variable4Ia33custom_multiply_multiple_variableIaEEvPT_iS2_S2_S2_S2_PKc(ptr noundef %0, i32 noundef %1, i8 noundef signext %2, i8 noundef signext %3, i8 noundef signext %4, i8 noundef signext %5, ptr noundef %6) local_unnamed_addr #9 comdat {
  %8 = tail call i64 @clock() #17
  store i64 %8, ptr @start_time, align 8, !tbaa !26
  %9 = load i32, ptr @iterations, align 4, !tbaa !9
  %10 = icmp sgt i32 %9, 0
  br i1 %10, label %11, label %117

11:                                               ; preds = %7
  %12 = icmp sgt i32 %1, 0
  %13 = mul i8 %4, %3
  %14 = mul i8 %13, %2
  %15 = mul i8 %14, %5
  %16 = shl i8 %13, 6
  %17 = mul i8 %16, %2
  %18 = mul i8 %17, %5
  br i1 %12, label %21, label %19

19:                                               ; preds = %11
  %20 = load double, ptr @init_value, align 8, !tbaa !28
  br label %100

21:                                               ; preds = %11
  %22 = zext i32 %1 to i64
  %23 = icmp ult i32 %1, 8
  %24 = icmp ult i32 %1, 32
  %25 = and i64 %22, 4294967264
  %26 = insertelement <16 x i8> poison, i8 %15, i64 0
  %27 = shufflevector <16 x i8> %26, <16 x i8> poison, <16 x i32> zeroinitializer
  %28 = insertelement <16 x i8> poison, i8 %15, i64 0
  %29 = shufflevector <16 x i8> %28, <16 x i8> poison, <16 x i32> zeroinitializer
  %30 = icmp eq i64 %25, %22
  %31 = and i64 %22, 24
  %32 = icmp eq i64 %31, 0
  %33 = and i64 %22, 4294967288
  %34 = insertelement <8 x i8> poison, i8 %15, i64 0
  %35 = shufflevector <8 x i8> %34, <8 x i8> poison, <8 x i32> zeroinitializer
  %36 = icmp eq i64 %33, %22
  br label %37

37:                                               ; preds = %21, %81
  %38 = phi i32 [ %82, %81 ], [ %9, %21 ]
  %39 = phi i32 [ %83, %81 ], [ 0, %21 ]
  br i1 %23, label %74, label %40

40:                                               ; preds = %37
  br i1 %24, label %59, label %41

41:                                               ; preds = %40, %41
  %42 = phi i64 [ %53, %41 ], [ 0, %40 ]
  %43 = phi <16 x i8> [ %51, %41 ], [ zeroinitializer, %40 ]
  %44 = phi <16 x i8> [ %52, %41 ], [ zeroinitializer, %40 ]
  %45 = getelementptr inbounds i8, ptr %0, i64 %42
  %46 = load <16 x i8>, ptr %45, align 1, !tbaa !29
  %47 = getelementptr inbounds i8, ptr %45, i64 16
  %48 = load <16 x i8>, ptr %47, align 1, !tbaa !29
  %49 = mul <16 x i8> %27, %46
  %50 = mul <16 x i8> %29, %48
  %51 = add <16 x i8> %49, %43
  %52 = add <16 x i8> %50, %44
  %53 = add nuw i64 %42, 32
  %54 = icmp eq i64 %53, %25
  br i1 %54, label %55, label %41, !llvm.loop !68

55:                                               ; preds = %41
  %56 = add <16 x i8> %52, %51
  %57 = tail call i8 @llvm.vector.reduce.add.v16i8(<16 x i8> %56)
  br i1 %30, label %94, label %58

58:                                               ; preds = %55
  br i1 %32, label %74, label %59

59:                                               ; preds = %40, %58
  %60 = phi i8 [ 0, %40 ], [ %57, %58 ]
  %61 = phi i64 [ 0, %40 ], [ %25, %58 ]
  %62 = insertelement <8 x i8> <i8 poison, i8 0, i8 0, i8 0, i8 0, i8 0, i8 0, i8 0>, i8 %60, i64 0
  br label %63

63:                                               ; preds = %63, %59
  %64 = phi i64 [ %61, %59 ], [ %70, %63 ]
  %65 = phi <8 x i8> [ %62, %59 ], [ %69, %63 ]
  %66 = getelementptr inbounds i8, ptr %0, i64 %64
  %67 = load <8 x i8>, ptr %66, align 1, !tbaa !29
  %68 = mul <8 x i8> %35, %67
  %69 = add <8 x i8> %68, %65
  %70 = add nuw i64 %64, 8
  %71 = icmp eq i64 %70, %33
  br i1 %71, label %72, label %63, !llvm.loop !69

72:                                               ; preds = %63
  %73 = tail call i8 @llvm.vector.reduce.add.v8i8(<8 x i8> %69)
  br i1 %36, label %94, label %74

74:                                               ; preds = %37, %58, %72
  %75 = phi i64 [ 0, %37 ], [ %25, %58 ], [ %33, %72 ]
  %76 = phi i8 [ 0, %37 ], [ %57, %58 ], [ %73, %72 ]
  br label %85

77:                                               ; preds = %94
  %78 = load i32, ptr @current_test, align 4, !tbaa !9
  %79 = tail call i32 (ptr, ...) @printf(ptr noundef nonnull dereferenceable(1) @.str.179, i32 noundef %78)
  %80 = load i32, ptr @iterations, align 4, !tbaa !9
  br label %81

81:                                               ; preds = %77, %94
  %82 = phi i32 [ %80, %77 ], [ %38, %94 ]
  %83 = add nuw nsw i32 %39, 1
  %84 = icmp slt i32 %83, %82
  br i1 %84, label %37, label %117, !llvm.loop !70

85:                                               ; preds = %74, %85
  %86 = phi i64 [ %92, %85 ], [ %75, %74 ]
  %87 = phi i8 [ %91, %85 ], [ %76, %74 ]
  %88 = getelementptr inbounds i8, ptr %0, i64 %86
  %89 = load i8, ptr %88, align 1, !tbaa !29
  %90 = mul i8 %15, %89
  %91 = add i8 %90, %87
  %92 = add nuw nsw i64 %86, 1
  %93 = icmp eq i64 %92, %22
  br i1 %93, label %94, label %85, !llvm.loop !71

94:                                               ; preds = %85, %72, %55
  %95 = phi i8 [ %57, %55 ], [ %73, %72 ], [ %91, %85 ]
  %96 = load double, ptr @init_value, align 8, !tbaa !28
  %97 = fptosi double %96 to i8
  %98 = mul i8 %18, %97
  %99 = icmp eq i8 %98, %95
  br i1 %99, label %81, label %77

100:                                              ; preds = %19, %112
  %101 = phi i32 [ %113, %112 ], [ %9, %19 ]
  %102 = phi double [ %114, %112 ], [ %20, %19 ]
  %103 = phi i32 [ %115, %112 ], [ 0, %19 ]
  %104 = fptosi double %102 to i8
  %105 = mul i8 %18, %104
  %106 = icmp eq i8 %105, 0
  br i1 %106, label %112, label %107

107:                                              ; preds = %100
  %108 = load i32, ptr @current_test, align 4, !tbaa !9
  %109 = tail call i32 (ptr, ...) @printf(ptr noundef nonnull dereferenceable(1) @.str.179, i32 noundef %108)
  %110 = load double, ptr @init_value, align 8, !tbaa !28
  %111 = load i32, ptr @iterations, align 4, !tbaa !9
  br label %112

112:                                              ; preds = %100, %107
  %113 = phi i32 [ %101, %100 ], [ %111, %107 ]
  %114 = phi double [ %102, %100 ], [ %110, %107 ]
  %115 = add nuw nsw i32 %103, 1
  %116 = icmp slt i32 %115, %113
  br i1 %116, label %100, label %117, !llvm.loop !70

117:                                              ; preds = %112, %81, %7
  %118 = tail call i64 @clock() #17
  store i64 %118, ptr @end_time, align 8, !tbaa !26
  %119 = load i64, ptr @start_time, align 8, !tbaa !26
  %120 = load ptr, ptr @results, align 8, !tbaa !5
  %121 = icmp eq ptr %120, null
  br i1 %121, label %122, label %124

122:                                              ; preds = %117
  %123 = load i32, ptr @allocated_results, align 4, !tbaa !9
  br label %128

124:                                              ; preds = %117
  %125 = load i32, ptr @current_test, align 4, !tbaa !9
  %126 = load i32, ptr @allocated_results, align 4, !tbaa !9
  %127 = icmp slt i32 %125, %126
  br i1 %127, label %140, label %128

128:                                              ; preds = %124, %122
  %129 = phi i32 [ %123, %122 ], [ %126, %124 ]
  %130 = add nsw i32 %129, 10
  store i32 %130, ptr @allocated_results, align 4, !tbaa !9
  %131 = sext i32 %130 to i64
  %132 = shl nsw i64 %131, 4
  %133 = tail call ptr @realloc(ptr noundef %120, i64 noundef %132) #14
  store ptr %133, ptr @results, align 8, !tbaa !5
  %134 = icmp eq ptr %133, null
  br i1 %134, label %137, label %135

135:                                              ; preds = %128
  %136 = load i32, ptr @current_test, align 4, !tbaa !9
  br label %140

137:                                              ; preds = %128
  %138 = load i32, ptr @allocated_results, align 4, !tbaa !9
  %139 = tail call i32 (ptr, ...) @printf(ptr noundef nonnull dereferenceable(1) @.str, i32 noundef %138)
  tail call void @exit(i32 noundef -1) #15
  unreachable

140:                                              ; preds = %124, %135
  %141 = phi i32 [ %136, %135 ], [ %125, %124 ]
  %142 = phi ptr [ %133, %135 ], [ %120, %124 ]
  %143 = sub nsw i64 %118, %119
  %144 = sitofp i64 %143 to double
  %145 = fdiv double %144, 1.000000e+06
  %146 = sext i32 %141 to i64
  %147 = getelementptr inbounds %struct.one_result, ptr %142, i64 %146
  store double %145, ptr %147, align 8, !tbaa !11
  %148 = getelementptr inbounds %struct.one_result, ptr %142, i64 %146, i32 1
  store ptr %6, ptr %148, align 8, !tbaa !14
  %149 = add nsw i32 %141, 1
  store i32 %149, ptr @current_test, align 4, !tbaa !9
  ret void
}

; Function Attrs: mustprogress uwtable
define linkonce_odr dso_local void @_Z14test_variable4Ia34custom_multiply_multiple_variable2IaEEvPT_iS2_S2_S2_S2_PKc(ptr noundef %0, i32 noundef %1, i8 noundef signext %2, i8 noundef signext %3, i8 noundef signext %4, i8 noundef signext %5, ptr noundef %6) local_unnamed_addr #9 comdat {
  %8 = tail call i64 @clock() #17
  store i64 %8, ptr @start_time, align 8, !tbaa !26
  %9 = load i32, ptr @iterations, align 4, !tbaa !9
  %10 = icmp sgt i32 %9, 0
  br i1 %10, label %11, label %116

11:                                               ; preds = %7
  %12 = icmp sgt i32 %1, 0
  %13 = mul i8 %3, %2
  %14 = mul i8 %13, %4
  %15 = mul i8 %14, %5
  br i1 %12, label %18, label %16

16:                                               ; preds = %11
  %17 = load double, ptr @init_value, align 8, !tbaa !28
  br label %98

18:                                               ; preds = %11
  %19 = zext i32 %1 to i64
  %20 = icmp ult i32 %1, 8
  %21 = icmp ult i32 %1, 32
  %22 = and i64 %19, 4294967264
  %23 = insertelement <16 x i8> poison, i8 %15, i64 0
  %24 = shufflevector <16 x i8> %23, <16 x i8> poison, <16 x i32> zeroinitializer
  %25 = insertelement <16 x i8> poison, i8 %15, i64 0
  %26 = shufflevector <16 x i8> %25, <16 x i8> poison, <16 x i32> zeroinitializer
  %27 = icmp eq i64 %22, %19
  %28 = and i64 %19, 24
  %29 = icmp eq i64 %28, 0
  %30 = and i64 %19, 4294967288
  %31 = insertelement <8 x i8> poison, i8 %15, i64 0
  %32 = shufflevector <8 x i8> %31, <8 x i8> poison, <8 x i32> zeroinitializer
  %33 = icmp eq i64 %30, %19
  br label %34

34:                                               ; preds = %18, %78
  %35 = phi i32 [ %79, %78 ], [ %9, %18 ]
  %36 = phi i32 [ %80, %78 ], [ 0, %18 ]
  br i1 %20, label %71, label %37

37:                                               ; preds = %34
  br i1 %21, label %56, label %38

38:                                               ; preds = %37, %38
  %39 = phi i64 [ %50, %38 ], [ 0, %37 ]
  %40 = phi <16 x i8> [ %48, %38 ], [ zeroinitializer, %37 ]
  %41 = phi <16 x i8> [ %49, %38 ], [ zeroinitializer, %37 ]
  %42 = getelementptr inbounds i8, ptr %0, i64 %39
  %43 = load <16 x i8>, ptr %42, align 1, !tbaa !29
  %44 = getelementptr inbounds i8, ptr %42, i64 16
  %45 = load <16 x i8>, ptr %44, align 1, !tbaa !29
  %46 = add <16 x i8> %40, %24
  %47 = add <16 x i8> %41, %26
  %48 = add <16 x i8> %46, %43
  %49 = add <16 x i8> %47, %45
  %50 = add nuw i64 %39, 32
  %51 = icmp eq i64 %50, %22
  br i1 %51, label %52, label %38, !llvm.loop !72

52:                                               ; preds = %38
  %53 = add <16 x i8> %49, %48
  %54 = tail call i8 @llvm.vector.reduce.add.v16i8(<16 x i8> %53)
  br i1 %27, label %91, label %55

55:                                               ; preds = %52
  br i1 %29, label %71, label %56

56:                                               ; preds = %37, %55
  %57 = phi i8 [ 0, %37 ], [ %54, %55 ]
  %58 = phi i64 [ 0, %37 ], [ %22, %55 ]
  %59 = insertelement <8 x i8> <i8 poison, i8 0, i8 0, i8 0, i8 0, i8 0, i8 0, i8 0>, i8 %57, i64 0
  br label %60

60:                                               ; preds = %60, %56
  %61 = phi i64 [ %58, %56 ], [ %67, %60 ]
  %62 = phi <8 x i8> [ %59, %56 ], [ %66, %60 ]
  %63 = getelementptr inbounds i8, ptr %0, i64 %61
  %64 = load <8 x i8>, ptr %63, align 1, !tbaa !29
  %65 = add <8 x i8> %62, %32
  %66 = add <8 x i8> %65, %64
  %67 = add nuw i64 %61, 8
  %68 = icmp eq i64 %67, %30
  br i1 %68, label %69, label %60, !llvm.loop !73

69:                                               ; preds = %60
  %70 = tail call i8 @llvm.vector.reduce.add.v8i8(<8 x i8> %66)
  br i1 %33, label %91, label %71

71:                                               ; preds = %34, %55, %69
  %72 = phi i64 [ 0, %34 ], [ %22, %55 ], [ %30, %69 ]
  %73 = phi i8 [ 0, %34 ], [ %54, %55 ], [ %70, %69 ]
  br label %82

74:                                               ; preds = %91
  %75 = load i32, ptr @current_test, align 4, !tbaa !9
  %76 = tail call i32 (ptr, ...) @printf(ptr noundef nonnull dereferenceable(1) @.str.179, i32 noundef %75)
  %77 = load i32, ptr @iterations, align 4, !tbaa !9
  br label %78

78:                                               ; preds = %74, %91
  %79 = phi i32 [ %77, %74 ], [ %35, %91 ]
  %80 = add nuw nsw i32 %36, 1
  %81 = icmp slt i32 %80, %79
  br i1 %81, label %34, label %116, !llvm.loop !74

82:                                               ; preds = %71, %82
  %83 = phi i64 [ %89, %82 ], [ %72, %71 ]
  %84 = phi i8 [ %88, %82 ], [ %73, %71 ]
  %85 = getelementptr inbounds i8, ptr %0, i64 %83
  %86 = load i8, ptr %85, align 1, !tbaa !29
  %87 = add i8 %84, %15
  %88 = add i8 %87, %86
  %89 = add nuw nsw i64 %83, 1
  %90 = icmp eq i64 %89, %19
  br i1 %90, label %91, label %82, !llvm.loop !75

91:                                               ; preds = %82, %69, %52
  %92 = phi i8 [ %54, %52 ], [ %70, %69 ], [ %88, %82 ]
  %93 = load double, ptr @init_value, align 8, !tbaa !28
  %94 = fptosi double %93 to i8
  %95 = add i8 %15, %94
  %96 = shl i8 %95, 6
  %97 = icmp eq i8 %96, %92
  br i1 %97, label %78, label %74

98:                                               ; preds = %16, %111
  %99 = phi i32 [ %112, %111 ], [ %9, %16 ]
  %100 = phi double [ %113, %111 ], [ %17, %16 ]
  %101 = phi i32 [ %114, %111 ], [ 0, %16 ]
  %102 = fptosi double %100 to i8
  %103 = add i8 %15, %102
  %104 = and i8 %103, 3
  %105 = icmp eq i8 %104, 0
  br i1 %105, label %111, label %106

106:                                              ; preds = %98
  %107 = load i32, ptr @current_test, align 4, !tbaa !9
  %108 = tail call i32 (ptr, ...) @printf(ptr noundef nonnull dereferenceable(1) @.str.179, i32 noundef %107)
  %109 = load double, ptr @init_value, align 8, !tbaa !28
  %110 = load i32, ptr @iterations, align 4, !tbaa !9
  br label %111

111:                                              ; preds = %98, %106
  %112 = phi i32 [ %99, %98 ], [ %110, %106 ]
  %113 = phi double [ %100, %98 ], [ %109, %106 ]
  %114 = add nuw nsw i32 %101, 1
  %115 = icmp slt i32 %114, %112
  br i1 %115, label %98, label %116, !llvm.loop !74

116:                                              ; preds = %111, %78, %7
  %117 = tail call i64 @clock() #17
  store i64 %117, ptr @end_time, align 8, !tbaa !26
  %118 = load i64, ptr @start_time, align 8, !tbaa !26
  %119 = load ptr, ptr @results, align 8, !tbaa !5
  %120 = icmp eq ptr %119, null
  br i1 %120, label %121, label %123

121:                                              ; preds = %116
  %122 = load i32, ptr @allocated_results, align 4, !tbaa !9
  br label %127

123:                                              ; preds = %116
  %124 = load i32, ptr @current_test, align 4, !tbaa !9
  %125 = load i32, ptr @allocated_results, align 4, !tbaa !9
  %126 = icmp slt i32 %124, %125
  br i1 %126, label %139, label %127

127:                                              ; preds = %123, %121
  %128 = phi i32 [ %122, %121 ], [ %125, %123 ]
  %129 = add nsw i32 %128, 10
  store i32 %129, ptr @allocated_results, align 4, !tbaa !9
  %130 = sext i32 %129 to i64
  %131 = shl nsw i64 %130, 4
  %132 = tail call ptr @realloc(ptr noundef %119, i64 noundef %131) #14
  store ptr %132, ptr @results, align 8, !tbaa !5
  %133 = icmp eq ptr %132, null
  br i1 %133, label %136, label %134

134:                                              ; preds = %127
  %135 = load i32, ptr @current_test, align 4, !tbaa !9
  br label %139

136:                                              ; preds = %127
  %137 = load i32, ptr @allocated_results, align 4, !tbaa !9
  %138 = tail call i32 (ptr, ...) @printf(ptr noundef nonnull dereferenceable(1) @.str, i32 noundef %137)
  tail call void @exit(i32 noundef -1) #15
  unreachable

139:                                              ; preds = %123, %134
  %140 = phi i32 [ %135, %134 ], [ %124, %123 ]
  %141 = phi ptr [ %132, %134 ], [ %119, %123 ]
  %142 = sub nsw i64 %117, %118
  %143 = sitofp i64 %142 to double
  %144 = fdiv double %143, 1.000000e+06
  %145 = sext i32 %140 to i64
  %146 = getelementptr inbounds %struct.one_result, ptr %141, i64 %145
  store double %144, ptr %146, align 8, !tbaa !11
  %147 = getelementptr inbounds %struct.one_result, ptr %141, i64 %145, i32 1
  store ptr %6, ptr %147, align 8, !tbaa !14
  %148 = add nsw i32 %140, 1
  store i32 %148, ptr @current_test, align 4, !tbaa !9
  ret void
}

; Function Attrs: mustprogress uwtable
define linkonce_odr dso_local void @_Z14test_variable1Ia22custom_divide_variableIaEEvPT_iS2_PKc(ptr noundef %0, i32 noundef %1, i8 noundef signext %2, ptr noundef %3) local_unnamed_addr #9 comdat {
  %5 = tail call i64 @clock() #17
  store i64 %5, ptr @start_time, align 8, !tbaa !26
  %6 = load i32, ptr @iterations, align 4, !tbaa !9
  %7 = icmp sgt i32 %6, 0
  br i1 %7, label %8, label %89

8:                                                ; preds = %4
  %9 = icmp sgt i32 %1, 0
  %10 = sext i8 %2 to i16
  br i1 %9, label %13, label %11

11:                                               ; preds = %8
  %12 = load double, ptr @init_value, align 8, !tbaa !28
  br label %70

13:                                               ; preds = %8
  %14 = zext i32 %1 to i64
  %15 = and i64 %14, 1
  %16 = icmp eq i32 %1, 1
  %17 = and i64 %14, 4294967294
  %18 = icmp eq i64 %15, 0
  br label %19

19:                                               ; preds = %13, %26
  %20 = phi i32 [ %27, %26 ], [ %6, %13 ]
  %21 = phi i32 [ %28, %26 ], [ 0, %13 ]
  br i1 %16, label %50, label %30

22:                                               ; preds = %61
  %23 = load i32, ptr @current_test, align 4, !tbaa !9
  %24 = tail call i32 (ptr, ...) @printf(ptr noundef nonnull dereferenceable(1) @.str.179, i32 noundef %23)
  %25 = load i32, ptr @iterations, align 4, !tbaa !9
  br label %26

26:                                               ; preds = %22, %61
  %27 = phi i32 [ %25, %22 ], [ %20, %61 ]
  %28 = add nuw nsw i32 %21, 1
  %29 = icmp slt i32 %28, %27
  br i1 %29, label %19, label %89, !llvm.loop !76

30:                                               ; preds = %19, %30
  %31 = phi i64 [ %47, %30 ], [ 0, %19 ]
  %32 = phi i8 [ %46, %30 ], [ 0, %19 ]
  %33 = phi i64 [ %48, %30 ], [ 0, %19 ]
  %34 = getelementptr inbounds i8, ptr %0, i64 %31
  %35 = load i8, ptr %34, align 1, !tbaa !29
  %36 = sext i8 %35 to i16
  %37 = sdiv i16 %36, %10
  %38 = trunc i16 %37 to i8
  %39 = add i8 %32, %38
  %40 = or i64 %31, 1
  %41 = getelementptr inbounds i8, ptr %0, i64 %40
  %42 = load i8, ptr %41, align 1, !tbaa !29
  %43 = sext i8 %42 to i16
  %44 = sdiv i16 %43, %10
  %45 = trunc i16 %44 to i8
  %46 = add i8 %39, %45
  %47 = add nuw nsw i64 %31, 2
  %48 = add i64 %33, 2
  %49 = icmp eq i64 %48, %17
  br i1 %49, label %50, label %30, !llvm.loop !77

50:                                               ; preds = %30, %19
  %51 = phi i8 [ undef, %19 ], [ %46, %30 ]
  %52 = phi i64 [ 0, %19 ], [ %47, %30 ]
  %53 = phi i8 [ 0, %19 ], [ %46, %30 ]
  br i1 %18, label %61, label %54

54:                                               ; preds = %50
  %55 = getelementptr inbounds i8, ptr %0, i64 %52
  %56 = load i8, ptr %55, align 1, !tbaa !29
  %57 = sext i8 %56 to i16
  %58 = sdiv i16 %57, %10
  %59 = trunc i16 %58 to i8
  %60 = add i8 %53, %59
  br label %61

61:                                               ; preds = %50, %54
  %62 = phi i8 [ %51, %50 ], [ %60, %54 ]
  %63 = load double, ptr @init_value, align 8, !tbaa !28
  %64 = fptosi double %63 to i8
  %65 = sext i8 %64 to i16
  %66 = sdiv i16 %65, %10
  %67 = trunc i16 %66 to i8
  %68 = shl i8 %67, 6
  %69 = icmp eq i8 %68, %62
  br i1 %69, label %26, label %22

70:                                               ; preds = %11, %84
  %71 = phi i32 [ %85, %84 ], [ %6, %11 ]
  %72 = phi double [ %86, %84 ], [ %12, %11 ]
  %73 = phi i32 [ %87, %84 ], [ 0, %11 ]
  %74 = fptosi double %72 to i8
  %75 = sext i8 %74 to i16
  %76 = sdiv i16 %75, %10
  %77 = and i16 %76, 3
  %78 = icmp eq i16 %77, 0
  br i1 %78, label %84, label %79

79:                                               ; preds = %70
  %80 = load i32, ptr @current_test, align 4, !tbaa !9
  %81 = tail call i32 (ptr, ...) @printf(ptr noundef nonnull dereferenceable(1) @.str.179, i32 noundef %80)
  %82 = load double, ptr @init_value, align 8, !tbaa !28
  %83 = load i32, ptr @iterations, align 4, !tbaa !9
  br label %84

84:                                               ; preds = %70, %79
  %85 = phi i32 [ %71, %70 ], [ %83, %79 ]
  %86 = phi double [ %72, %70 ], [ %82, %79 ]
  %87 = add nuw nsw i32 %73, 1
  %88 = icmp slt i32 %87, %85
  br i1 %88, label %70, label %89, !llvm.loop !76

89:                                               ; preds = %84, %26, %4
  %90 = tail call i64 @clock() #17
  store i64 %90, ptr @end_time, align 8, !tbaa !26
  %91 = load i64, ptr @start_time, align 8, !tbaa !26
  %92 = load ptr, ptr @results, align 8, !tbaa !5
  %93 = icmp eq ptr %92, null
  br i1 %93, label %94, label %96

94:                                               ; preds = %89
  %95 = load i32, ptr @allocated_results, align 4, !tbaa !9
  br label %100

96:                                               ; preds = %89
  %97 = load i32, ptr @current_test, align 4, !tbaa !9
  %98 = load i32, ptr @allocated_results, align 4, !tbaa !9
  %99 = icmp slt i32 %97, %98
  br i1 %99, label %112, label %100

100:                                              ; preds = %96, %94
  %101 = phi i32 [ %95, %94 ], [ %98, %96 ]
  %102 = add nsw i32 %101, 10
  store i32 %102, ptr @allocated_results, align 4, !tbaa !9
  %103 = sext i32 %102 to i64
  %104 = shl nsw i64 %103, 4
  %105 = tail call ptr @realloc(ptr noundef %92, i64 noundef %104) #14
  store ptr %105, ptr @results, align 8, !tbaa !5
  %106 = icmp eq ptr %105, null
  br i1 %106, label %109, label %107

107:                                              ; preds = %100
  %108 = load i32, ptr @current_test, align 4, !tbaa !9
  br label %112

109:                                              ; preds = %100
  %110 = load i32, ptr @allocated_results, align 4, !tbaa !9
  %111 = tail call i32 (ptr, ...) @printf(ptr noundef nonnull dereferenceable(1) @.str, i32 noundef %110)
  tail call void @exit(i32 noundef -1) #15
  unreachable

112:                                              ; preds = %96, %107
  %113 = phi i32 [ %108, %107 ], [ %97, %96 ]
  %114 = phi ptr [ %105, %107 ], [ %92, %96 ]
  %115 = sub nsw i64 %90, %91
  %116 = sitofp i64 %115 to double
  %117 = fdiv double %116, 1.000000e+06
  %118 = sext i32 %113 to i64
  %119 = getelementptr inbounds %struct.one_result, ptr %114, i64 %118
  store double %117, ptr %119, align 8, !tbaa !11
  %120 = getelementptr inbounds %struct.one_result, ptr %114, i64 %118, i32 1
  store ptr %3, ptr %120, align 8, !tbaa !14
  %121 = add nsw i32 %113, 1
  store i32 %121, ptr @current_test, align 4, !tbaa !9
  ret void
}

; Function Attrs: mustprogress uwtable
define linkonce_odr dso_local void @_Z14test_variable4Ia31custom_divide_multiple_variableIaEEvPT_iS2_S2_S2_S2_PKc(ptr noundef %0, i32 noundef %1, i8 noundef signext %2, i8 noundef signext %3, i8 noundef signext %4, i8 noundef signext %5, ptr noundef %6) local_unnamed_addr #9 comdat {
  %8 = tail call i64 @clock() #17
  store i64 %8, ptr @start_time, align 8, !tbaa !26
  %9 = load i32, ptr @iterations, align 4, !tbaa !9
  %10 = icmp sgt i32 %9, 0
  br i1 %10, label %11, label %79

11:                                               ; preds = %7
  %12 = icmp sgt i32 %1, 0
  %13 = sext i8 %2 to i16
  %14 = sext i8 %3 to i16
  %15 = sext i8 %4 to i16
  %16 = sext i8 %5 to i16
  br i1 %12, label %19, label %17

17:                                               ; preds = %11
  %18 = load double, ptr @init_value, align 8, !tbaa !28
  br label %57

19:                                               ; preds = %11
  %20 = zext i32 %1 to i64
  br label %21

21:                                               ; preds = %19, %28
  %22 = phi i32 [ %29, %28 ], [ %9, %19 ]
  %23 = phi i32 [ %30, %28 ], [ 0, %19 ]
  br label %32

24:                                               ; preds = %46
  %25 = load i32, ptr @current_test, align 4, !tbaa !9
  %26 = tail call i32 (ptr, ...) @printf(ptr noundef nonnull dereferenceable(1) @.str.179, i32 noundef %25)
  %27 = load i32, ptr @iterations, align 4, !tbaa !9
  br label %28

28:                                               ; preds = %24, %46
  %29 = phi i32 [ %27, %24 ], [ %22, %46 ]
  %30 = add nuw nsw i32 %23, 1
  %31 = icmp slt i32 %30, %29
  br i1 %31, label %21, label %79, !llvm.loop !78

32:                                               ; preds = %21, %32
  %33 = phi i64 [ 0, %21 ], [ %44, %32 ]
  %34 = phi i8 [ 0, %21 ], [ %43, %32 ]
  %35 = getelementptr inbounds i8, ptr %0, i64 %33
  %36 = load i8, ptr %35, align 1, !tbaa !29
  %37 = sext i8 %36 to i16
  %38 = sdiv i16 %37, %13
  %39 = sdiv i16 %38, %14
  %40 = sdiv i16 %39, %15
  %41 = sdiv i16 %40, %16
  %42 = trunc i16 %41 to i8
  %43 = add i8 %34, %42
  %44 = add nuw nsw i64 %33, 1
  %45 = icmp eq i64 %44, %20
  br i1 %45, label %46, label %32, !llvm.loop !79

46:                                               ; preds = %32
  %47 = load double, ptr @init_value, align 8, !tbaa !28
  %48 = fptosi double %47 to i8
  %49 = sext i8 %48 to i16
  %50 = sdiv i16 %49, %13
  %51 = sdiv i16 %50, %14
  %52 = sdiv i16 %51, %15
  %53 = sdiv i16 %52, %16
  %54 = trunc i16 %53 to i8
  %55 = shl i8 %54, 6
  %56 = icmp eq i8 %55, %43
  br i1 %56, label %28, label %24

57:                                               ; preds = %17, %74
  %58 = phi i32 [ %75, %74 ], [ %9, %17 ]
  %59 = phi double [ %76, %74 ], [ %18, %17 ]
  %60 = phi i32 [ %77, %74 ], [ 0, %17 ]
  %61 = fptosi double %59 to i8
  %62 = sext i8 %61 to i16
  %63 = sdiv i16 %62, %13
  %64 = sdiv i16 %63, %14
  %65 = sdiv i16 %64, %15
  %66 = sdiv i16 %65, %16
  %67 = and i16 %66, 3
  %68 = icmp eq i16 %67, 0
  br i1 %68, label %74, label %69

69:                                               ; preds = %57
  %70 = load i32, ptr @current_test, align 4, !tbaa !9
  %71 = tail call i32 (ptr, ...) @printf(ptr noundef nonnull dereferenceable(1) @.str.179, i32 noundef %70)
  %72 = load double, ptr @init_value, align 8, !tbaa !28
  %73 = load i32, ptr @iterations, align 4, !tbaa !9
  br label %74

74:                                               ; preds = %57, %69
  %75 = phi i32 [ %58, %57 ], [ %73, %69 ]
  %76 = phi double [ %59, %57 ], [ %72, %69 ]
  %77 = add nuw nsw i32 %60, 1
  %78 = icmp slt i32 %77, %75
  br i1 %78, label %57, label %79, !llvm.loop !78

79:                                               ; preds = %74, %28, %7
  %80 = tail call i64 @clock() #17
  store i64 %80, ptr @end_time, align 8, !tbaa !26
  %81 = load i64, ptr @start_time, align 8, !tbaa !26
  %82 = load ptr, ptr @results, align 8, !tbaa !5
  %83 = icmp eq ptr %82, null
  br i1 %83, label %84, label %86

84:                                               ; preds = %79
  %85 = load i32, ptr @allocated_results, align 4, !tbaa !9
  br label %90

86:                                               ; preds = %79
  %87 = load i32, ptr @current_test, align 4, !tbaa !9
  %88 = load i32, ptr @allocated_results, align 4, !tbaa !9
  %89 = icmp slt i32 %87, %88
  br i1 %89, label %102, label %90

90:                                               ; preds = %86, %84
  %91 = phi i32 [ %85, %84 ], [ %88, %86 ]
  %92 = add nsw i32 %91, 10
  store i32 %92, ptr @allocated_results, align 4, !tbaa !9
  %93 = sext i32 %92 to i64
  %94 = shl nsw i64 %93, 4
  %95 = tail call ptr @realloc(ptr noundef %82, i64 noundef %94) #14
  store ptr %95, ptr @results, align 8, !tbaa !5
  %96 = icmp eq ptr %95, null
  br i1 %96, label %99, label %97

97:                                               ; preds = %90
  %98 = load i32, ptr @current_test, align 4, !tbaa !9
  br label %102

99:                                               ; preds = %90
  %100 = load i32, ptr @allocated_results, align 4, !tbaa !9
  %101 = tail call i32 (ptr, ...) @printf(ptr noundef nonnull dereferenceable(1) @.str, i32 noundef %100)
  tail call void @exit(i32 noundef -1) #15
  unreachable

102:                                              ; preds = %86, %97
  %103 = phi i32 [ %98, %97 ], [ %87, %86 ]
  %104 = phi ptr [ %95, %97 ], [ %82, %86 ]
  %105 = sub nsw i64 %80, %81
  %106 = sitofp i64 %105 to double
  %107 = fdiv double %106, 1.000000e+06
  %108 = sext i32 %103 to i64
  %109 = getelementptr inbounds %struct.one_result, ptr %104, i64 %108
  store double %107, ptr %109, align 8, !tbaa !11
  %110 = getelementptr inbounds %struct.one_result, ptr %104, i64 %108, i32 1
  store ptr %6, ptr %110, align 8, !tbaa !14
  %111 = add nsw i32 %103, 1
  store i32 %111, ptr @current_test, align 4, !tbaa !9
  ret void
}

; Function Attrs: mustprogress uwtable
define linkonce_odr dso_local void @_Z14test_variable4Ia32custom_divide_multiple_variable2IaEEvPT_iS2_S2_S2_S2_PKc(ptr noundef %0, i32 noundef %1, i8 noundef signext %2, i8 noundef signext %3, i8 noundef signext %4, i8 noundef signext %5, ptr noundef %6) local_unnamed_addr #9 comdat {
  %8 = tail call i64 @clock() #17
  store i64 %8, ptr @start_time, align 8, !tbaa !26
  %9 = load i32, ptr @iterations, align 4, !tbaa !9
  %10 = icmp sgt i32 %9, 0
  br i1 %10, label %11, label %121

11:                                               ; preds = %7
  %12 = icmp sgt i32 %1, 0
  %13 = sext i8 %2 to i16
  %14 = sext i8 %3 to i16
  %15 = sdiv i16 %13, %14
  %16 = sext i8 %4 to i16
  %17 = sdiv i16 %15, %16
  %18 = sext i8 %5 to i16
  %19 = sdiv i16 %17, %18
  %20 = trunc i16 %19 to i8
  br i1 %12, label %23, label %21

21:                                               ; preds = %11
  %22 = load double, ptr @init_value, align 8, !tbaa !28
  br label %103

23:                                               ; preds = %11
  %24 = zext i32 %1 to i64
  %25 = icmp ult i32 %1, 8
  %26 = icmp ult i32 %1, 32
  %27 = and i64 %24, 4294967264
  %28 = insertelement <16 x i8> poison, i8 %20, i64 0
  %29 = shufflevector <16 x i8> %28, <16 x i8> poison, <16 x i32> zeroinitializer
  %30 = insertelement <16 x i8> poison, i8 %20, i64 0
  %31 = shufflevector <16 x i8> %30, <16 x i8> poison, <16 x i32> zeroinitializer
  %32 = icmp eq i64 %27, %24
  %33 = and i64 %24, 24
  %34 = icmp eq i64 %33, 0
  %35 = and i64 %24, 4294967288
  %36 = insertelement <8 x i8> poison, i8 %20, i64 0
  %37 = shufflevector <8 x i8> %36, <8 x i8> poison, <8 x i32> zeroinitializer
  %38 = icmp eq i64 %35, %24
  br label %39

39:                                               ; preds = %83, %23
  %40 = phi i32 [ %9, %23 ], [ %84, %83 ]
  %41 = phi i32 [ 0, %23 ], [ %85, %83 ]
  br i1 %25, label %76, label %42

42:                                               ; preds = %39
  br i1 %26, label %61, label %43

43:                                               ; preds = %42, %43
  %44 = phi i64 [ %55, %43 ], [ 0, %42 ]
  %45 = phi <16 x i8> [ %53, %43 ], [ zeroinitializer, %42 ]
  %46 = phi <16 x i8> [ %54, %43 ], [ zeroinitializer, %42 ]
  %47 = getelementptr inbounds i8, ptr %0, i64 %44
  %48 = load <16 x i8>, ptr %47, align 1, !tbaa !29
  %49 = getelementptr inbounds i8, ptr %47, i64 16
  %50 = load <16 x i8>, ptr %49, align 1, !tbaa !29
  %51 = add <16 x i8> %48, %45
  %52 = add <16 x i8> %50, %46
  %53 = add <16 x i8> %51, %29
  %54 = add <16 x i8> %52, %31
  %55 = add nuw i64 %44, 32
  %56 = icmp eq i64 %55, %27
  br i1 %56, label %57, label %43, !llvm.loop !80

57:                                               ; preds = %43
  %58 = add <16 x i8> %54, %53
  %59 = tail call i8 @llvm.vector.reduce.add.v16i8(<16 x i8> %58)
  br i1 %32, label %96, label %60

60:                                               ; preds = %57
  br i1 %34, label %76, label %61

61:                                               ; preds = %42, %60
  %62 = phi i8 [ 0, %42 ], [ %59, %60 ]
  %63 = phi i64 [ 0, %42 ], [ %27, %60 ]
  %64 = insertelement <8 x i8> <i8 poison, i8 0, i8 0, i8 0, i8 0, i8 0, i8 0, i8 0>, i8 %62, i64 0
  br label %65

65:                                               ; preds = %65, %61
  %66 = phi i64 [ %63, %61 ], [ %72, %65 ]
  %67 = phi <8 x i8> [ %64, %61 ], [ %71, %65 ]
  %68 = getelementptr inbounds i8, ptr %0, i64 %66
  %69 = load <8 x i8>, ptr %68, align 1, !tbaa !29
  %70 = add <8 x i8> %69, %67
  %71 = add <8 x i8> %70, %37
  %72 = add nuw i64 %66, 8
  %73 = icmp eq i64 %72, %35
  br i1 %73, label %74, label %65, !llvm.loop !81

74:                                               ; preds = %65
  %75 = tail call i8 @llvm.vector.reduce.add.v8i8(<8 x i8> %71)
  br i1 %38, label %96, label %76

76:                                               ; preds = %39, %60, %74
  %77 = phi i64 [ 0, %39 ], [ %27, %60 ], [ %35, %74 ]
  %78 = phi i8 [ 0, %39 ], [ %59, %60 ], [ %75, %74 ]
  br label %87

79:                                               ; preds = %96
  %80 = load i32, ptr @current_test, align 4, !tbaa !9
  %81 = tail call i32 (ptr, ...) @printf(ptr noundef nonnull dereferenceable(1) @.str.179, i32 noundef %80)
  %82 = load i32, ptr @iterations, align 4, !tbaa !9
  br label %83

83:                                               ; preds = %79, %96
  %84 = phi i32 [ %82, %79 ], [ %40, %96 ]
  %85 = add nuw nsw i32 %41, 1
  %86 = icmp slt i32 %85, %84
  br i1 %86, label %39, label %121, !llvm.loop !82

87:                                               ; preds = %76, %87
  %88 = phi i64 [ %94, %87 ], [ %77, %76 ]
  %89 = phi i8 [ %93, %87 ], [ %78, %76 ]
  %90 = getelementptr inbounds i8, ptr %0, i64 %88
  %91 = load i8, ptr %90, align 1, !tbaa !29
  %92 = add i8 %91, %89
  %93 = add i8 %92, %20
  %94 = add nuw nsw i64 %88, 1
  %95 = icmp eq i64 %94, %24
  br i1 %95, label %96, label %87, !llvm.loop !83

96:                                               ; preds = %87, %74, %57
  %97 = phi i8 [ %59, %57 ], [ %75, %74 ], [ %93, %87 ]
  %98 = load double, ptr @init_value, align 8, !tbaa !28
  %99 = fptosi double %98 to i8
  %100 = add i8 %20, %99
  %101 = shl i8 %100, 6
  %102 = icmp eq i8 %101, %97
  br i1 %102, label %83, label %79

103:                                              ; preds = %21, %116
  %104 = phi i32 [ %117, %116 ], [ %9, %21 ]
  %105 = phi double [ %118, %116 ], [ %22, %21 ]
  %106 = phi i32 [ %119, %116 ], [ 0, %21 ]
  %107 = fptosi double %105 to i8
  %108 = add i8 %20, %107
  %109 = and i8 %108, 3
  %110 = icmp eq i8 %109, 0
  br i1 %110, label %116, label %111

111:                                              ; preds = %103
  %112 = load i32, ptr @current_test, align 4, !tbaa !9
  %113 = tail call i32 (ptr, ...) @printf(ptr noundef nonnull dereferenceable(1) @.str.179, i32 noundef %112)
  %114 = load double, ptr @init_value, align 8, !tbaa !28
  %115 = load i32, ptr @iterations, align 4, !tbaa !9
  br label %116

116:                                              ; preds = %103, %111
  %117 = phi i32 [ %104, %103 ], [ %115, %111 ]
  %118 = phi double [ %105, %103 ], [ %114, %111 ]
  %119 = add nuw nsw i32 %106, 1
  %120 = icmp slt i32 %119, %117
  br i1 %120, label %103, label %121, !llvm.loop !82

121:                                              ; preds = %116, %83, %7
  %122 = tail call i64 @clock() #17
  store i64 %122, ptr @end_time, align 8, !tbaa !26
  %123 = load i64, ptr @start_time, align 8, !tbaa !26
  %124 = load ptr, ptr @results, align 8, !tbaa !5
  %125 = icmp eq ptr %124, null
  br i1 %125, label %126, label %128

126:                                              ; preds = %121
  %127 = load i32, ptr @allocated_results, align 4, !tbaa !9
  br label %132

128:                                              ; preds = %121
  %129 = load i32, ptr @current_test, align 4, !tbaa !9
  %130 = load i32, ptr @allocated_results, align 4, !tbaa !9
  %131 = icmp slt i32 %129, %130
  br i1 %131, label %144, label %132

132:                                              ; preds = %128, %126
  %133 = phi i32 [ %127, %126 ], [ %130, %128 ]
  %134 = add nsw i32 %133, 10
  store i32 %134, ptr @allocated_results, align 4, !tbaa !9
  %135 = sext i32 %134 to i64
  %136 = shl nsw i64 %135, 4
  %137 = tail call ptr @realloc(ptr noundef %124, i64 noundef %136) #14
  store ptr %137, ptr @results, align 8, !tbaa !5
  %138 = icmp eq ptr %137, null
  br i1 %138, label %141, label %139

139:                                              ; preds = %132
  %140 = load i32, ptr @current_test, align 4, !tbaa !9
  br label %144

141:                                              ; preds = %132
  %142 = load i32, ptr @allocated_results, align 4, !tbaa !9
  %143 = tail call i32 (ptr, ...) @printf(ptr noundef nonnull dereferenceable(1) @.str, i32 noundef %142)
  tail call void @exit(i32 noundef -1) #15
  unreachable

144:                                              ; preds = %128, %139
  %145 = phi i32 [ %140, %139 ], [ %129, %128 ]
  %146 = phi ptr [ %137, %139 ], [ %124, %128 ]
  %147 = sub nsw i64 %122, %123
  %148 = sitofp i64 %147 to double
  %149 = fdiv double %148, 1.000000e+06
  %150 = sext i32 %145 to i64
  %151 = getelementptr inbounds %struct.one_result, ptr %146, i64 %150
  store double %149, ptr %151, align 8, !tbaa !11
  %152 = getelementptr inbounds %struct.one_result, ptr %146, i64 %150, i32 1
  store ptr %6, ptr %152, align 8, !tbaa !14
  %153 = add nsw i32 %145, 1
  store i32 %153, ptr @current_test, align 4, !tbaa !9
  ret void
}

; Function Attrs: mustprogress uwtable
define linkonce_odr dso_local void @_Z14test_variable4Ia30custom_mixed_multiple_variableIaEEvPT_iS2_S2_S2_S2_PKc(ptr noundef %0, i32 noundef %1, i8 noundef signext %2, i8 noundef signext %3, i8 noundef signext %4, i8 noundef signext %5, ptr noundef %6) local_unnamed_addr #9 comdat {
  %8 = tail call i64 @clock() #17
  store i64 %8, ptr @start_time, align 8, !tbaa !26
  %9 = load i32, ptr @iterations, align 4, !tbaa !9
  %10 = icmp sgt i32 %9, 0
  br i1 %10, label %11, label %131

11:                                               ; preds = %7
  %12 = icmp sgt i32 %1, 0
  %13 = sext i8 %3 to i16
  %14 = sext i8 %4 to i16
  %15 = mul nsw i16 %14, %13
  %16 = sext i8 %5 to i16
  %17 = sdiv i16 %15, %16
  %18 = trunc i16 %17 to i8
  br i1 %12, label %21, label %19

19:                                               ; preds = %11
  %20 = load double, ptr @init_value, align 8, !tbaa !28
  br label %112

21:                                               ; preds = %11
  %22 = zext i32 %1 to i64
  %23 = icmp ult i32 %1, 8
  %24 = icmp ult i32 %1, 32
  %25 = and i64 %22, 4294967264
  %26 = insertelement <16 x i8> poison, i8 %2, i64 0
  %27 = shufflevector <16 x i8> %26, <16 x i8> poison, <16 x i32> zeroinitializer
  %28 = insertelement <16 x i8> poison, i8 %2, i64 0
  %29 = shufflevector <16 x i8> %28, <16 x i8> poison, <16 x i32> zeroinitializer
  %30 = insertelement <16 x i8> poison, i8 %18, i64 0
  %31 = shufflevector <16 x i8> %30, <16 x i8> poison, <16 x i32> zeroinitializer
  %32 = insertelement <16 x i8> poison, i8 %18, i64 0
  %33 = shufflevector <16 x i8> %32, <16 x i8> poison, <16 x i32> zeroinitializer
  %34 = icmp eq i64 %25, %22
  %35 = and i64 %22, 24
  %36 = icmp eq i64 %35, 0
  %37 = and i64 %22, 4294967288
  %38 = insertelement <8 x i8> poison, i8 %2, i64 0
  %39 = shufflevector <8 x i8> %38, <8 x i8> poison, <8 x i32> zeroinitializer
  %40 = insertelement <8 x i8> poison, i8 %18, i64 0
  %41 = shufflevector <8 x i8> %40, <8 x i8> poison, <8 x i32> zeroinitializer
  %42 = icmp eq i64 %37, %22
  br label %43

43:                                               ; preds = %90, %21
  %44 = phi i32 [ %9, %21 ], [ %91, %90 ]
  %45 = phi i32 [ 0, %21 ], [ %92, %90 ]
  br i1 %23, label %83, label %46

46:                                               ; preds = %43
  br i1 %24, label %67, label %47

47:                                               ; preds = %46, %47
  %48 = phi i64 [ %61, %47 ], [ 0, %46 ]
  %49 = phi <16 x i8> [ %59, %47 ], [ zeroinitializer, %46 ]
  %50 = phi <16 x i8> [ %60, %47 ], [ zeroinitializer, %46 ]
  %51 = getelementptr inbounds i8, ptr %0, i64 %48
  %52 = load <16 x i8>, ptr %51, align 1, !tbaa !29
  %53 = getelementptr inbounds i8, ptr %51, i64 16
  %54 = load <16 x i8>, ptr %53, align 1, !tbaa !29
  %55 = add <16 x i8> %49, %27
  %56 = add <16 x i8> %50, %29
  %57 = add <16 x i8> %55, %52
  %58 = add <16 x i8> %56, %54
  %59 = sub <16 x i8> %57, %31
  %60 = sub <16 x i8> %58, %33
  %61 = add nuw i64 %48, 32
  %62 = icmp eq i64 %61, %25
  br i1 %62, label %63, label %47, !llvm.loop !84

63:                                               ; preds = %47
  %64 = add <16 x i8> %60, %59
  %65 = tail call i8 @llvm.vector.reduce.add.v16i8(<16 x i8> %64)
  br i1 %34, label %104, label %66

66:                                               ; preds = %63
  br i1 %36, label %83, label %67

67:                                               ; preds = %46, %66
  %68 = phi i8 [ 0, %46 ], [ %65, %66 ]
  %69 = phi i64 [ 0, %46 ], [ %25, %66 ]
  %70 = insertelement <8 x i8> <i8 poison, i8 0, i8 0, i8 0, i8 0, i8 0, i8 0, i8 0>, i8 %68, i64 0
  br label %71

71:                                               ; preds = %71, %67
  %72 = phi i64 [ %69, %67 ], [ %79, %71 ]
  %73 = phi <8 x i8> [ %70, %67 ], [ %78, %71 ]
  %74 = getelementptr inbounds i8, ptr %0, i64 %72
  %75 = load <8 x i8>, ptr %74, align 1, !tbaa !29
  %76 = add <8 x i8> %73, %39
  %77 = add <8 x i8> %76, %75
  %78 = sub <8 x i8> %77, %41
  %79 = add nuw i64 %72, 8
  %80 = icmp eq i64 %79, %37
  br i1 %80, label %81, label %71, !llvm.loop !85

81:                                               ; preds = %71
  %82 = tail call i8 @llvm.vector.reduce.add.v8i8(<8 x i8> %78)
  br i1 %42, label %104, label %83

83:                                               ; preds = %43, %66, %81
  %84 = phi i64 [ 0, %43 ], [ %25, %66 ], [ %37, %81 ]
  %85 = phi i8 [ 0, %43 ], [ %65, %66 ], [ %82, %81 ]
  br label %94

86:                                               ; preds = %104
  %87 = load i32, ptr @current_test, align 4, !tbaa !9
  %88 = tail call i32 (ptr, ...) @printf(ptr noundef nonnull dereferenceable(1) @.str.179, i32 noundef %87)
  %89 = load i32, ptr @iterations, align 4, !tbaa !9
  br label %90

90:                                               ; preds = %86, %104
  %91 = phi i32 [ %89, %86 ], [ %44, %104 ]
  %92 = add nuw nsw i32 %45, 1
  %93 = icmp slt i32 %92, %91
  br i1 %93, label %43, label %131, !llvm.loop !86

94:                                               ; preds = %83, %94
  %95 = phi i64 [ %102, %94 ], [ %84, %83 ]
  %96 = phi i8 [ %101, %94 ], [ %85, %83 ]
  %97 = getelementptr inbounds i8, ptr %0, i64 %95
  %98 = load i8, ptr %97, align 1, !tbaa !29
  %99 = add i8 %96, %2
  %100 = add i8 %99, %98
  %101 = sub i8 %100, %18
  %102 = add nuw nsw i64 %95, 1
  %103 = icmp eq i64 %102, %22
  br i1 %103, label %104, label %94, !llvm.loop !87

104:                                              ; preds = %94, %81, %63
  %105 = phi i8 [ %65, %63 ], [ %82, %81 ], [ %101, %94 ]
  %106 = load double, ptr @init_value, align 8, !tbaa !28
  %107 = fptosi double %106 to i8
  %108 = add i8 %107, %2
  %109 = sub i8 %108, %18
  %110 = shl i8 %109, 6
  %111 = icmp eq i8 %110, %105
  br i1 %111, label %90, label %86

112:                                              ; preds = %19, %126
  %113 = phi i32 [ %127, %126 ], [ %9, %19 ]
  %114 = phi double [ %128, %126 ], [ %20, %19 ]
  %115 = phi i32 [ %129, %126 ], [ 0, %19 ]
  %116 = fptosi double %114 to i8
  %117 = add i8 %116, %2
  %118 = sub i8 %117, %18
  %119 = and i8 %118, 3
  %120 = icmp eq i8 %119, 0
  br i1 %120, label %126, label %121

121:                                              ; preds = %112
  %122 = load i32, ptr @current_test, align 4, !tbaa !9
  %123 = tail call i32 (ptr, ...) @printf(ptr noundef nonnull dereferenceable(1) @.str.179, i32 noundef %122)
  %124 = load double, ptr @init_value, align 8, !tbaa !28
  %125 = load i32, ptr @iterations, align 4, !tbaa !9
  br label %126

126:                                              ; preds = %112, %121
  %127 = phi i32 [ %113, %112 ], [ %125, %121 ]
  %128 = phi double [ %114, %112 ], [ %124, %121 ]
  %129 = add nuw nsw i32 %115, 1
  %130 = icmp slt i32 %129, %127
  br i1 %130, label %112, label %131, !llvm.loop !86

131:                                              ; preds = %126, %90, %7
  %132 = tail call i64 @clock() #17
  store i64 %132, ptr @end_time, align 8, !tbaa !26
  %133 = load i64, ptr @start_time, align 8, !tbaa !26
  %134 = load ptr, ptr @results, align 8, !tbaa !5
  %135 = icmp eq ptr %134, null
  br i1 %135, label %136, label %138

136:                                              ; preds = %131
  %137 = load i32, ptr @allocated_results, align 4, !tbaa !9
  br label %142

138:                                              ; preds = %131
  %139 = load i32, ptr @current_test, align 4, !tbaa !9
  %140 = load i32, ptr @allocated_results, align 4, !tbaa !9
  %141 = icmp slt i32 %139, %140
  br i1 %141, label %154, label %142

142:                                              ; preds = %138, %136
  %143 = phi i32 [ %137, %136 ], [ %140, %138 ]
  %144 = add nsw i32 %143, 10
  store i32 %144, ptr @allocated_results, align 4, !tbaa !9
  %145 = sext i32 %144 to i64
  %146 = shl nsw i64 %145, 4
  %147 = tail call ptr @realloc(ptr noundef %134, i64 noundef %146) #14
  store ptr %147, ptr @results, align 8, !tbaa !5
  %148 = icmp eq ptr %147, null
  br i1 %148, label %151, label %149

149:                                              ; preds = %142
  %150 = load i32, ptr @current_test, align 4, !tbaa !9
  br label %154

151:                                              ; preds = %142
  %152 = load i32, ptr @allocated_results, align 4, !tbaa !9
  %153 = tail call i32 (ptr, ...) @printf(ptr noundef nonnull dereferenceable(1) @.str, i32 noundef %152)
  tail call void @exit(i32 noundef -1) #15
  unreachable

154:                                              ; preds = %138, %149
  %155 = phi i32 [ %150, %149 ], [ %139, %138 ]
  %156 = phi ptr [ %147, %149 ], [ %134, %138 ]
  %157 = sub nsw i64 %132, %133
  %158 = sitofp i64 %157 to double
  %159 = fdiv double %158, 1.000000e+06
  %160 = sext i32 %155 to i64
  %161 = getelementptr inbounds %struct.one_result, ptr %156, i64 %160
  store double %159, ptr %161, align 8, !tbaa !11
  %162 = getelementptr inbounds %struct.one_result, ptr %156, i64 %160, i32 1
  store ptr %6, ptr %162, align 8, !tbaa !14
  %163 = add nsw i32 %155, 1
  store i32 %163, ptr @current_test, align 4, !tbaa !9
  ret void
}

; Function Attrs: mustprogress uwtable
define linkonce_odr dso_local void @_Z14test_variable1Ia19custom_variable_andIaEEvPT_iS2_PKc(ptr noundef %0, i32 noundef %1, i8 noundef signext %2, ptr noundef %3) local_unnamed_addr #9 comdat {
  %5 = tail call i64 @clock() #17
  store i64 %5, ptr @start_time, align 8, !tbaa !26
  %6 = load i32, ptr @iterations, align 4, !tbaa !9
  %7 = icmp sgt i32 %6, 0
  br i1 %7, label %8, label %110

8:                                                ; preds = %4
  %9 = icmp sgt i32 %1, 0
  br i1 %9, label %12, label %10

10:                                               ; preds = %8
  %11 = load double, ptr @init_value, align 8, !tbaa !28
  br label %92

12:                                               ; preds = %8
  %13 = zext i32 %1 to i64
  %14 = icmp ult i32 %1, 8
  %15 = icmp ult i32 %1, 32
  %16 = and i64 %13, 4294967264
  %17 = insertelement <16 x i8> poison, i8 %2, i64 0
  %18 = shufflevector <16 x i8> %17, <16 x i8> poison, <16 x i32> zeroinitializer
  %19 = insertelement <16 x i8> poison, i8 %2, i64 0
  %20 = shufflevector <16 x i8> %19, <16 x i8> poison, <16 x i32> zeroinitializer
  %21 = icmp eq i64 %16, %13
  %22 = and i64 %13, 24
  %23 = icmp eq i64 %22, 0
  %24 = and i64 %13, 4294967288
  %25 = insertelement <8 x i8> poison, i8 %2, i64 0
  %26 = shufflevector <8 x i8> %25, <8 x i8> poison, <8 x i32> zeroinitializer
  %27 = icmp eq i64 %24, %13
  br label %28

28:                                               ; preds = %12, %72
  %29 = phi i32 [ %73, %72 ], [ %6, %12 ]
  %30 = phi i32 [ %74, %72 ], [ 0, %12 ]
  br i1 %14, label %65, label %31

31:                                               ; preds = %28
  br i1 %15, label %50, label %32

32:                                               ; preds = %31, %32
  %33 = phi i64 [ %44, %32 ], [ 0, %31 ]
  %34 = phi <16 x i8> [ %42, %32 ], [ zeroinitializer, %31 ]
  %35 = phi <16 x i8> [ %43, %32 ], [ zeroinitializer, %31 ]
  %36 = getelementptr inbounds i8, ptr %0, i64 %33
  %37 = load <16 x i8>, ptr %36, align 1, !tbaa !29
  %38 = getelementptr inbounds i8, ptr %36, i64 16
  %39 = load <16 x i8>, ptr %38, align 1, !tbaa !29
  %40 = and <16 x i8> %37, %18
  %41 = and <16 x i8> %39, %20
  %42 = add <16 x i8> %40, %34
  %43 = add <16 x i8> %41, %35
  %44 = add nuw i64 %33, 32
  %45 = icmp eq i64 %44, %16
  br i1 %45, label %46, label %32, !llvm.loop !88

46:                                               ; preds = %32
  %47 = add <16 x i8> %43, %42
  %48 = tail call i8 @llvm.vector.reduce.add.v16i8(<16 x i8> %47)
  br i1 %21, label %85, label %49

49:                                               ; preds = %46
  br i1 %23, label %65, label %50

50:                                               ; preds = %31, %49
  %51 = phi i8 [ 0, %31 ], [ %48, %49 ]
  %52 = phi i64 [ 0, %31 ], [ %16, %49 ]
  %53 = insertelement <8 x i8> <i8 poison, i8 0, i8 0, i8 0, i8 0, i8 0, i8 0, i8 0>, i8 %51, i64 0
  br label %54

54:                                               ; preds = %54, %50
  %55 = phi i64 [ %52, %50 ], [ %61, %54 ]
  %56 = phi <8 x i8> [ %53, %50 ], [ %60, %54 ]
  %57 = getelementptr inbounds i8, ptr %0, i64 %55
  %58 = load <8 x i8>, ptr %57, align 1, !tbaa !29
  %59 = and <8 x i8> %58, %26
  %60 = add <8 x i8> %59, %56
  %61 = add nuw i64 %55, 8
  %62 = icmp eq i64 %61, %24
  br i1 %62, label %63, label %54, !llvm.loop !89

63:                                               ; preds = %54
  %64 = tail call i8 @llvm.vector.reduce.add.v8i8(<8 x i8> %60)
  br i1 %27, label %85, label %65

65:                                               ; preds = %28, %49, %63
  %66 = phi i64 [ 0, %28 ], [ %16, %49 ], [ %24, %63 ]
  %67 = phi i8 [ 0, %28 ], [ %48, %49 ], [ %64, %63 ]
  br label %76

68:                                               ; preds = %85
  %69 = load i32, ptr @current_test, align 4, !tbaa !9
  %70 = tail call i32 (ptr, ...) @printf(ptr noundef nonnull dereferenceable(1) @.str.179, i32 noundef %69)
  %71 = load i32, ptr @iterations, align 4, !tbaa !9
  br label %72

72:                                               ; preds = %68, %85
  %73 = phi i32 [ %71, %68 ], [ %29, %85 ]
  %74 = add nuw nsw i32 %30, 1
  %75 = icmp slt i32 %74, %73
  br i1 %75, label %28, label %110, !llvm.loop !90

76:                                               ; preds = %65, %76
  %77 = phi i64 [ %83, %76 ], [ %66, %65 ]
  %78 = phi i8 [ %82, %76 ], [ %67, %65 ]
  %79 = getelementptr inbounds i8, ptr %0, i64 %77
  %80 = load i8, ptr %79, align 1, !tbaa !29
  %81 = and i8 %80, %2
  %82 = add i8 %81, %78
  %83 = add nuw nsw i64 %77, 1
  %84 = icmp eq i64 %83, %13
  br i1 %84, label %85, label %76, !llvm.loop !91

85:                                               ; preds = %76, %63, %46
  %86 = phi i8 [ %48, %46 ], [ %64, %63 ], [ %82, %76 ]
  %87 = load double, ptr @init_value, align 8, !tbaa !28
  %88 = fptosi double %87 to i8
  %89 = and i8 %88, %2
  %90 = shl i8 %89, 6
  %91 = icmp eq i8 %90, %86
  br i1 %91, label %72, label %68

92:                                               ; preds = %10, %105
  %93 = phi i32 [ %106, %105 ], [ %6, %10 ]
  %94 = phi double [ %107, %105 ], [ %11, %10 ]
  %95 = phi i32 [ %108, %105 ], [ 0, %10 ]
  %96 = fptosi double %94 to i8
  %97 = and i8 %96, %2
  %98 = and i8 %97, 3
  %99 = icmp eq i8 %98, 0
  br i1 %99, label %105, label %100

100:                                              ; preds = %92
  %101 = load i32, ptr @current_test, align 4, !tbaa !9
  %102 = tail call i32 (ptr, ...) @printf(ptr noundef nonnull dereferenceable(1) @.str.179, i32 noundef %101)
  %103 = load double, ptr @init_value, align 8, !tbaa !28
  %104 = load i32, ptr @iterations, align 4, !tbaa !9
  br label %105

105:                                              ; preds = %92, %100
  %106 = phi i32 [ %93, %92 ], [ %104, %100 ]
  %107 = phi double [ %94, %92 ], [ %103, %100 ]
  %108 = add nuw nsw i32 %95, 1
  %109 = icmp slt i32 %108, %106
  br i1 %109, label %92, label %110, !llvm.loop !90

110:                                              ; preds = %105, %72, %4
  %111 = tail call i64 @clock() #17
  store i64 %111, ptr @end_time, align 8, !tbaa !26
  %112 = load i64, ptr @start_time, align 8, !tbaa !26
  %113 = load ptr, ptr @results, align 8, !tbaa !5
  %114 = icmp eq ptr %113, null
  br i1 %114, label %115, label %117

115:                                              ; preds = %110
  %116 = load i32, ptr @allocated_results, align 4, !tbaa !9
  br label %121

117:                                              ; preds = %110
  %118 = load i32, ptr @current_test, align 4, !tbaa !9
  %119 = load i32, ptr @allocated_results, align 4, !tbaa !9
  %120 = icmp slt i32 %118, %119
  br i1 %120, label %133, label %121

121:                                              ; preds = %117, %115
  %122 = phi i32 [ %116, %115 ], [ %119, %117 ]
  %123 = add nsw i32 %122, 10
  store i32 %123, ptr @allocated_results, align 4, !tbaa !9
  %124 = sext i32 %123 to i64
  %125 = shl nsw i64 %124, 4
  %126 = tail call ptr @realloc(ptr noundef %113, i64 noundef %125) #14
  store ptr %126, ptr @results, align 8, !tbaa !5
  %127 = icmp eq ptr %126, null
  br i1 %127, label %130, label %128

128:                                              ; preds = %121
  %129 = load i32, ptr @current_test, align 4, !tbaa !9
  br label %133

130:                                              ; preds = %121
  %131 = load i32, ptr @allocated_results, align 4, !tbaa !9
  %132 = tail call i32 (ptr, ...) @printf(ptr noundef nonnull dereferenceable(1) @.str, i32 noundef %131)
  tail call void @exit(i32 noundef -1) #15
  unreachable

133:                                              ; preds = %117, %128
  %134 = phi i32 [ %129, %128 ], [ %118, %117 ]
  %135 = phi ptr [ %126, %128 ], [ %113, %117 ]
  %136 = sub nsw i64 %111, %112
  %137 = sitofp i64 %136 to double
  %138 = fdiv double %137, 1.000000e+06
  %139 = sext i32 %134 to i64
  %140 = getelementptr inbounds %struct.one_result, ptr %135, i64 %139
  store double %138, ptr %140, align 8, !tbaa !11
  %141 = getelementptr inbounds %struct.one_result, ptr %135, i64 %139, i32 1
  store ptr %3, ptr %141, align 8, !tbaa !14
  %142 = add nsw i32 %134, 1
  store i32 %142, ptr @current_test, align 4, !tbaa !9
  ret void
}

; Function Attrs: mustprogress uwtable
define linkonce_odr dso_local void @_Z14test_variable4Ia28custom_multiple_variable_andIaEEvPT_iS2_S2_S2_S2_PKc(ptr noundef %0, i32 noundef %1, i8 noundef signext %2, i8 noundef signext %3, i8 noundef signext %4, i8 noundef signext %5, ptr noundef %6) local_unnamed_addr #9 comdat {
  %8 = tail call i64 @clock() #17
  store i64 %8, ptr @start_time, align 8, !tbaa !26
  %9 = load i32, ptr @iterations, align 4, !tbaa !9
  %10 = icmp sgt i32 %9, 0
  br i1 %10, label %11, label %128

11:                                               ; preds = %7
  %12 = icmp sgt i32 %1, 0
  %13 = and i8 %3, %2
  %14 = and i8 %13, %4
  %15 = and i8 %14, %5
  br i1 %12, label %18, label %16

16:                                               ; preds = %11
  %17 = load double, ptr @init_value, align 8, !tbaa !28
  br label %110

18:                                               ; preds = %11
  %19 = zext i32 %1 to i64
  %20 = icmp ult i32 %1, 8
  %21 = icmp ult i32 %1, 32
  %22 = and i64 %19, 4294967264
  %23 = and i8 %3, %2
  %24 = and i8 %3, %2
  %25 = and i8 %23, %4
  %26 = and i8 %24, %4
  %27 = and i8 %25, %5
  %28 = insertelement <16 x i8> poison, i8 %27, i64 0
  %29 = shufflevector <16 x i8> %28, <16 x i8> poison, <16 x i32> zeroinitializer
  %30 = and i8 %26, %5
  %31 = insertelement <16 x i8> poison, i8 %30, i64 0
  %32 = shufflevector <16 x i8> %31, <16 x i8> poison, <16 x i32> zeroinitializer
  %33 = icmp eq i64 %22, %19
  %34 = and i64 %19, 24
  %35 = icmp eq i64 %34, 0
  %36 = and i64 %19, 4294967288
  %37 = and i8 %3, %2
  %38 = and i8 %37, %4
  %39 = and i8 %38, %5
  %40 = insertelement <8 x i8> poison, i8 %39, i64 0
  %41 = shufflevector <8 x i8> %40, <8 x i8> poison, <8 x i32> zeroinitializer
  %42 = icmp eq i64 %36, %19
  br label %43

43:                                               ; preds = %18, %87
  %44 = phi i32 [ %88, %87 ], [ %9, %18 ]
  %45 = phi i32 [ %89, %87 ], [ 0, %18 ]
  br i1 %20, label %80, label %46

46:                                               ; preds = %43
  br i1 %21, label %65, label %47

47:                                               ; preds = %46, %47
  %48 = phi i64 [ %59, %47 ], [ 0, %46 ]
  %49 = phi <16 x i8> [ %57, %47 ], [ zeroinitializer, %46 ]
  %50 = phi <16 x i8> [ %58, %47 ], [ zeroinitializer, %46 ]
  %51 = getelementptr inbounds i8, ptr %0, i64 %48
  %52 = load <16 x i8>, ptr %51, align 1, !tbaa !29
  %53 = getelementptr inbounds i8, ptr %51, i64 16
  %54 = load <16 x i8>, ptr %53, align 1, !tbaa !29
  %55 = and <16 x i8> %29, %52
  %56 = and <16 x i8> %32, %54
  %57 = add <16 x i8> %55, %49
  %58 = add <16 x i8> %56, %50
  %59 = add nuw i64 %48, 32
  %60 = icmp eq i64 %59, %22
  br i1 %60, label %61, label %47, !llvm.loop !92

61:                                               ; preds = %47
  %62 = add <16 x i8> %58, %57
  %63 = tail call i8 @llvm.vector.reduce.add.v16i8(<16 x i8> %62)
  br i1 %33, label %103, label %64

64:                                               ; preds = %61
  br i1 %35, label %80, label %65

65:                                               ; preds = %46, %64
  %66 = phi i8 [ 0, %46 ], [ %63, %64 ]
  %67 = phi i64 [ 0, %46 ], [ %22, %64 ]
  %68 = insertelement <8 x i8> <i8 poison, i8 0, i8 0, i8 0, i8 0, i8 0, i8 0, i8 0>, i8 %66, i64 0
  br label %69

69:                                               ; preds = %69, %65
  %70 = phi i64 [ %67, %65 ], [ %76, %69 ]
  %71 = phi <8 x i8> [ %68, %65 ], [ %75, %69 ]
  %72 = getelementptr inbounds i8, ptr %0, i64 %70
  %73 = load <8 x i8>, ptr %72, align 1, !tbaa !29
  %74 = and <8 x i8> %41, %73
  %75 = add <8 x i8> %74, %71
  %76 = add nuw i64 %70, 8
  %77 = icmp eq i64 %76, %36
  br i1 %77, label %78, label %69, !llvm.loop !93

78:                                               ; preds = %69
  %79 = tail call i8 @llvm.vector.reduce.add.v8i8(<8 x i8> %75)
  br i1 %42, label %103, label %80

80:                                               ; preds = %43, %64, %78
  %81 = phi i64 [ 0, %43 ], [ %22, %64 ], [ %36, %78 ]
  %82 = phi i8 [ 0, %43 ], [ %63, %64 ], [ %79, %78 ]
  br label %91

83:                                               ; preds = %103
  %84 = load i32, ptr @current_test, align 4, !tbaa !9
  %85 = tail call i32 (ptr, ...) @printf(ptr noundef nonnull dereferenceable(1) @.str.179, i32 noundef %84)
  %86 = load i32, ptr @iterations, align 4, !tbaa !9
  br label %87

87:                                               ; preds = %83, %103
  %88 = phi i32 [ %86, %83 ], [ %44, %103 ]
  %89 = add nuw nsw i32 %45, 1
  %90 = icmp slt i32 %89, %88
  br i1 %90, label %43, label %128, !llvm.loop !94

91:                                               ; preds = %80, %91
  %92 = phi i64 [ %101, %91 ], [ %81, %80 ]
  %93 = phi i8 [ %100, %91 ], [ %82, %80 ]
  %94 = getelementptr inbounds i8, ptr %0, i64 %92
  %95 = load i8, ptr %94, align 1, !tbaa !29
  %96 = and i8 %95, %2
  %97 = and i8 %96, %3
  %98 = and i8 %97, %4
  %99 = and i8 %98, %5
  %100 = add i8 %99, %93
  %101 = add nuw nsw i64 %92, 1
  %102 = icmp eq i64 %101, %19
  br i1 %102, label %103, label %91, !llvm.loop !95

103:                                              ; preds = %91, %78, %61
  %104 = phi i8 [ %63, %61 ], [ %79, %78 ], [ %100, %91 ]
  %105 = load double, ptr @init_value, align 8, !tbaa !28
  %106 = fptosi double %105 to i8
  %107 = and i8 %15, %106
  %108 = shl i8 %107, 6
  %109 = icmp eq i8 %108, %104
  br i1 %109, label %87, label %83

110:                                              ; preds = %16, %123
  %111 = phi i32 [ %124, %123 ], [ %9, %16 ]
  %112 = phi double [ %125, %123 ], [ %17, %16 ]
  %113 = phi i32 [ %126, %123 ], [ 0, %16 ]
  %114 = fptosi double %112 to i8
  %115 = and i8 %15, %114
  %116 = and i8 %115, 3
  %117 = icmp eq i8 %116, 0
  br i1 %117, label %123, label %118

118:                                              ; preds = %110
  %119 = load i32, ptr @current_test, align 4, !tbaa !9
  %120 = tail call i32 (ptr, ...) @printf(ptr noundef nonnull dereferenceable(1) @.str.179, i32 noundef %119)
  %121 = load double, ptr @init_value, align 8, !tbaa !28
  %122 = load i32, ptr @iterations, align 4, !tbaa !9
  br label %123

123:                                              ; preds = %110, %118
  %124 = phi i32 [ %111, %110 ], [ %122, %118 ]
  %125 = phi double [ %112, %110 ], [ %121, %118 ]
  %126 = add nuw nsw i32 %113, 1
  %127 = icmp slt i32 %126, %124
  br i1 %127, label %110, label %128, !llvm.loop !94

128:                                              ; preds = %123, %87, %7
  %129 = tail call i64 @clock() #17
  store i64 %129, ptr @end_time, align 8, !tbaa !26
  %130 = load i64, ptr @start_time, align 8, !tbaa !26
  %131 = load ptr, ptr @results, align 8, !tbaa !5
  %132 = icmp eq ptr %131, null
  br i1 %132, label %133, label %135

133:                                              ; preds = %128
  %134 = load i32, ptr @allocated_results, align 4, !tbaa !9
  br label %139

135:                                              ; preds = %128
  %136 = load i32, ptr @current_test, align 4, !tbaa !9
  %137 = load i32, ptr @allocated_results, align 4, !tbaa !9
  %138 = icmp slt i32 %136, %137
  br i1 %138, label %151, label %139

139:                                              ; preds = %135, %133
  %140 = phi i32 [ %134, %133 ], [ %137, %135 ]
  %141 = add nsw i32 %140, 10
  store i32 %141, ptr @allocated_results, align 4, !tbaa !9
  %142 = sext i32 %141 to i64
  %143 = shl nsw i64 %142, 4
  %144 = tail call ptr @realloc(ptr noundef %131, i64 noundef %143) #14
  store ptr %144, ptr @results, align 8, !tbaa !5
  %145 = icmp eq ptr %144, null
  br i1 %145, label %148, label %146

146:                                              ; preds = %139
  %147 = load i32, ptr @current_test, align 4, !tbaa !9
  br label %151

148:                                              ; preds = %139
  %149 = load i32, ptr @allocated_results, align 4, !tbaa !9
  %150 = tail call i32 (ptr, ...) @printf(ptr noundef nonnull dereferenceable(1) @.str, i32 noundef %149)
  tail call void @exit(i32 noundef -1) #15
  unreachable

151:                                              ; preds = %135, %146
  %152 = phi i32 [ %147, %146 ], [ %136, %135 ]
  %153 = phi ptr [ %144, %146 ], [ %131, %135 ]
  %154 = sub nsw i64 %129, %130
  %155 = sitofp i64 %154 to double
  %156 = fdiv double %155, 1.000000e+06
  %157 = sext i32 %152 to i64
  %158 = getelementptr inbounds %struct.one_result, ptr %153, i64 %157
  store double %156, ptr %158, align 8, !tbaa !11
  %159 = getelementptr inbounds %struct.one_result, ptr %153, i64 %157, i32 1
  store ptr %6, ptr %159, align 8, !tbaa !14
  %160 = add nsw i32 %152, 1
  store i32 %160, ptr @current_test, align 4, !tbaa !9
  ret void
}

; Function Attrs: mustprogress uwtable
define linkonce_odr dso_local void @_Z14test_variable1Ia18custom_variable_orIaEEvPT_iS2_PKc(ptr noundef %0, i32 noundef %1, i8 noundef signext %2, ptr noundef %3) local_unnamed_addr #9 comdat {
  %5 = tail call i64 @clock() #17
  store i64 %5, ptr @start_time, align 8, !tbaa !26
  %6 = load i32, ptr @iterations, align 4, !tbaa !9
  %7 = icmp sgt i32 %6, 0
  br i1 %7, label %8, label %110

8:                                                ; preds = %4
  %9 = icmp sgt i32 %1, 0
  br i1 %9, label %12, label %10

10:                                               ; preds = %8
  %11 = load double, ptr @init_value, align 8, !tbaa !28
  br label %92

12:                                               ; preds = %8
  %13 = zext i32 %1 to i64
  %14 = icmp ult i32 %1, 8
  %15 = icmp ult i32 %1, 32
  %16 = and i64 %13, 4294967264
  %17 = insertelement <16 x i8> poison, i8 %2, i64 0
  %18 = shufflevector <16 x i8> %17, <16 x i8> poison, <16 x i32> zeroinitializer
  %19 = insertelement <16 x i8> poison, i8 %2, i64 0
  %20 = shufflevector <16 x i8> %19, <16 x i8> poison, <16 x i32> zeroinitializer
  %21 = icmp eq i64 %16, %13
  %22 = and i64 %13, 24
  %23 = icmp eq i64 %22, 0
  %24 = and i64 %13, 4294967288
  %25 = insertelement <8 x i8> poison, i8 %2, i64 0
  %26 = shufflevector <8 x i8> %25, <8 x i8> poison, <8 x i32> zeroinitializer
  %27 = icmp eq i64 %24, %13
  br label %28

28:                                               ; preds = %12, %72
  %29 = phi i32 [ %73, %72 ], [ %6, %12 ]
  %30 = phi i32 [ %74, %72 ], [ 0, %12 ]
  br i1 %14, label %65, label %31

31:                                               ; preds = %28
  br i1 %15, label %50, label %32

32:                                               ; preds = %31, %32
  %33 = phi i64 [ %44, %32 ], [ 0, %31 ]
  %34 = phi <16 x i8> [ %42, %32 ], [ zeroinitializer, %31 ]
  %35 = phi <16 x i8> [ %43, %32 ], [ zeroinitializer, %31 ]
  %36 = getelementptr inbounds i8, ptr %0, i64 %33
  %37 = load <16 x i8>, ptr %36, align 1, !tbaa !29
  %38 = getelementptr inbounds i8, ptr %36, i64 16
  %39 = load <16 x i8>, ptr %38, align 1, !tbaa !29
  %40 = or <16 x i8> %37, %18
  %41 = or <16 x i8> %39, %20
  %42 = add <16 x i8> %40, %34
  %43 = add <16 x i8> %41, %35
  %44 = add nuw i64 %33, 32
  %45 = icmp eq i64 %44, %16
  br i1 %45, label %46, label %32, !llvm.loop !96

46:                                               ; preds = %32
  %47 = add <16 x i8> %43, %42
  %48 = tail call i8 @llvm.vector.reduce.add.v16i8(<16 x i8> %47)
  br i1 %21, label %85, label %49

49:                                               ; preds = %46
  br i1 %23, label %65, label %50

50:                                               ; preds = %31, %49
  %51 = phi i8 [ 0, %31 ], [ %48, %49 ]
  %52 = phi i64 [ 0, %31 ], [ %16, %49 ]
  %53 = insertelement <8 x i8> <i8 poison, i8 0, i8 0, i8 0, i8 0, i8 0, i8 0, i8 0>, i8 %51, i64 0
  br label %54

54:                                               ; preds = %54, %50
  %55 = phi i64 [ %52, %50 ], [ %61, %54 ]
  %56 = phi <8 x i8> [ %53, %50 ], [ %60, %54 ]
  %57 = getelementptr inbounds i8, ptr %0, i64 %55
  %58 = load <8 x i8>, ptr %57, align 1, !tbaa !29
  %59 = or <8 x i8> %58, %26
  %60 = add <8 x i8> %59, %56
  %61 = add nuw i64 %55, 8
  %62 = icmp eq i64 %61, %24
  br i1 %62, label %63, label %54, !llvm.loop !97

63:                                               ; preds = %54
  %64 = tail call i8 @llvm.vector.reduce.add.v8i8(<8 x i8> %60)
  br i1 %27, label %85, label %65

65:                                               ; preds = %28, %49, %63
  %66 = phi i64 [ 0, %28 ], [ %16, %49 ], [ %24, %63 ]
  %67 = phi i8 [ 0, %28 ], [ %48, %49 ], [ %64, %63 ]
  br label %76

68:                                               ; preds = %85
  %69 = load i32, ptr @current_test, align 4, !tbaa !9
  %70 = tail call i32 (ptr, ...) @printf(ptr noundef nonnull dereferenceable(1) @.str.179, i32 noundef %69)
  %71 = load i32, ptr @iterations, align 4, !tbaa !9
  br label %72

72:                                               ; preds = %68, %85
  %73 = phi i32 [ %71, %68 ], [ %29, %85 ]
  %74 = add nuw nsw i32 %30, 1
  %75 = icmp slt i32 %74, %73
  br i1 %75, label %28, label %110, !llvm.loop !98

76:                                               ; preds = %65, %76
  %77 = phi i64 [ %83, %76 ], [ %66, %65 ]
  %78 = phi i8 [ %82, %76 ], [ %67, %65 ]
  %79 = getelementptr inbounds i8, ptr %0, i64 %77
  %80 = load i8, ptr %79, align 1, !tbaa !29
  %81 = or i8 %80, %2
  %82 = add i8 %81, %78
  %83 = add nuw nsw i64 %77, 1
  %84 = icmp eq i64 %83, %13
  br i1 %84, label %85, label %76, !llvm.loop !99

85:                                               ; preds = %76, %63, %46
  %86 = phi i8 [ %48, %46 ], [ %64, %63 ], [ %82, %76 ]
  %87 = load double, ptr @init_value, align 8, !tbaa !28
  %88 = fptosi double %87 to i8
  %89 = or i8 %88, %2
  %90 = shl i8 %89, 6
  %91 = icmp eq i8 %90, %86
  br i1 %91, label %72, label %68

92:                                               ; preds = %10, %105
  %93 = phi i32 [ %106, %105 ], [ %6, %10 ]
  %94 = phi double [ %107, %105 ], [ %11, %10 ]
  %95 = phi i32 [ %108, %105 ], [ 0, %10 ]
  %96 = fptosi double %94 to i8
  %97 = or i8 %96, %2
  %98 = and i8 %97, 3
  %99 = icmp eq i8 %98, 0
  br i1 %99, label %105, label %100

100:                                              ; preds = %92
  %101 = load i32, ptr @current_test, align 4, !tbaa !9
  %102 = tail call i32 (ptr, ...) @printf(ptr noundef nonnull dereferenceable(1) @.str.179, i32 noundef %101)
  %103 = load double, ptr @init_value, align 8, !tbaa !28
  %104 = load i32, ptr @iterations, align 4, !tbaa !9
  br label %105

105:                                              ; preds = %92, %100
  %106 = phi i32 [ %93, %92 ], [ %104, %100 ]
  %107 = phi double [ %94, %92 ], [ %103, %100 ]
  %108 = add nuw nsw i32 %95, 1
  %109 = icmp slt i32 %108, %106
  br i1 %109, label %92, label %110, !llvm.loop !98

110:                                              ; preds = %105, %72, %4
  %111 = tail call i64 @clock() #17
  store i64 %111, ptr @end_time, align 8, !tbaa !26
  %112 = load i64, ptr @start_time, align 8, !tbaa !26
  %113 = load ptr, ptr @results, align 8, !tbaa !5
  %114 = icmp eq ptr %113, null
  br i1 %114, label %115, label %117

115:                                              ; preds = %110
  %116 = load i32, ptr @allocated_results, align 4, !tbaa !9
  br label %121

117:                                              ; preds = %110
  %118 = load i32, ptr @current_test, align 4, !tbaa !9
  %119 = load i32, ptr @allocated_results, align 4, !tbaa !9
  %120 = icmp slt i32 %118, %119
  br i1 %120, label %133, label %121

121:                                              ; preds = %117, %115
  %122 = phi i32 [ %116, %115 ], [ %119, %117 ]
  %123 = add nsw i32 %122, 10
  store i32 %123, ptr @allocated_results, align 4, !tbaa !9
  %124 = sext i32 %123 to i64
  %125 = shl nsw i64 %124, 4
  %126 = tail call ptr @realloc(ptr noundef %113, i64 noundef %125) #14
  store ptr %126, ptr @results, align 8, !tbaa !5
  %127 = icmp eq ptr %126, null
  br i1 %127, label %130, label %128

128:                                              ; preds = %121
  %129 = load i32, ptr @current_test, align 4, !tbaa !9
  br label %133

130:                                              ; preds = %121
  %131 = load i32, ptr @allocated_results, align 4, !tbaa !9
  %132 = tail call i32 (ptr, ...) @printf(ptr noundef nonnull dereferenceable(1) @.str, i32 noundef %131)
  tail call void @exit(i32 noundef -1) #15
  unreachable

133:                                              ; preds = %117, %128
  %134 = phi i32 [ %129, %128 ], [ %118, %117 ]
  %135 = phi ptr [ %126, %128 ], [ %113, %117 ]
  %136 = sub nsw i64 %111, %112
  %137 = sitofp i64 %136 to double
  %138 = fdiv double %137, 1.000000e+06
  %139 = sext i32 %134 to i64
  %140 = getelementptr inbounds %struct.one_result, ptr %135, i64 %139
  store double %138, ptr %140, align 8, !tbaa !11
  %141 = getelementptr inbounds %struct.one_result, ptr %135, i64 %139, i32 1
  store ptr %3, ptr %141, align 8, !tbaa !14
  %142 = add nsw i32 %134, 1
  store i32 %142, ptr @current_test, align 4, !tbaa !9
  ret void
}

; Function Attrs: mustprogress uwtable
define linkonce_odr dso_local void @_Z14test_variable4Ia27custom_multiple_variable_orIaEEvPT_iS2_S2_S2_S2_PKc(ptr noundef %0, i32 noundef %1, i8 noundef signext %2, i8 noundef signext %3, i8 noundef signext %4, i8 noundef signext %5, ptr noundef %6) local_unnamed_addr #9 comdat {
  %8 = tail call i64 @clock() #17
  store i64 %8, ptr @start_time, align 8, !tbaa !26
  %9 = load i32, ptr @iterations, align 4, !tbaa !9
  %10 = icmp sgt i32 %9, 0
  br i1 %10, label %11, label %128

11:                                               ; preds = %7
  %12 = icmp sgt i32 %1, 0
  %13 = or i8 %3, %2
  %14 = or i8 %13, %4
  %15 = or i8 %14, %5
  br i1 %12, label %18, label %16

16:                                               ; preds = %11
  %17 = load double, ptr @init_value, align 8, !tbaa !28
  br label %110

18:                                               ; preds = %11
  %19 = zext i32 %1 to i64
  %20 = icmp ult i32 %1, 8
  %21 = icmp ult i32 %1, 32
  %22 = and i64 %19, 4294967264
  %23 = or i8 %3, %2
  %24 = or i8 %3, %2
  %25 = or i8 %23, %4
  %26 = or i8 %24, %4
  %27 = or i8 %25, %5
  %28 = insertelement <16 x i8> poison, i8 %27, i64 0
  %29 = shufflevector <16 x i8> %28, <16 x i8> poison, <16 x i32> zeroinitializer
  %30 = or i8 %26, %5
  %31 = insertelement <16 x i8> poison, i8 %30, i64 0
  %32 = shufflevector <16 x i8> %31, <16 x i8> poison, <16 x i32> zeroinitializer
  %33 = icmp eq i64 %22, %19
  %34 = and i64 %19, 24
  %35 = icmp eq i64 %34, 0
  %36 = and i64 %19, 4294967288
  %37 = or i8 %3, %2
  %38 = or i8 %37, %4
  %39 = or i8 %38, %5
  %40 = insertelement <8 x i8> poison, i8 %39, i64 0
  %41 = shufflevector <8 x i8> %40, <8 x i8> poison, <8 x i32> zeroinitializer
  %42 = icmp eq i64 %36, %19
  br label %43

43:                                               ; preds = %18, %87
  %44 = phi i32 [ %88, %87 ], [ %9, %18 ]
  %45 = phi i32 [ %89, %87 ], [ 0, %18 ]
  br i1 %20, label %80, label %46

46:                                               ; preds = %43
  br i1 %21, label %65, label %47

47:                                               ; preds = %46, %47
  %48 = phi i64 [ %59, %47 ], [ 0, %46 ]
  %49 = phi <16 x i8> [ %57, %47 ], [ zeroinitializer, %46 ]
  %50 = phi <16 x i8> [ %58, %47 ], [ zeroinitializer, %46 ]
  %51 = getelementptr inbounds i8, ptr %0, i64 %48
  %52 = load <16 x i8>, ptr %51, align 1, !tbaa !29
  %53 = getelementptr inbounds i8, ptr %51, i64 16
  %54 = load <16 x i8>, ptr %53, align 1, !tbaa !29
  %55 = or <16 x i8> %29, %52
  %56 = or <16 x i8> %32, %54
  %57 = add <16 x i8> %55, %49
  %58 = add <16 x i8> %56, %50
  %59 = add nuw i64 %48, 32
  %60 = icmp eq i64 %59, %22
  br i1 %60, label %61, label %47, !llvm.loop !100

61:                                               ; preds = %47
  %62 = add <16 x i8> %58, %57
  %63 = tail call i8 @llvm.vector.reduce.add.v16i8(<16 x i8> %62)
  br i1 %33, label %103, label %64

64:                                               ; preds = %61
  br i1 %35, label %80, label %65

65:                                               ; preds = %46, %64
  %66 = phi i8 [ 0, %46 ], [ %63, %64 ]
  %67 = phi i64 [ 0, %46 ], [ %22, %64 ]
  %68 = insertelement <8 x i8> <i8 poison, i8 0, i8 0, i8 0, i8 0, i8 0, i8 0, i8 0>, i8 %66, i64 0
  br label %69

69:                                               ; preds = %69, %65
  %70 = phi i64 [ %67, %65 ], [ %76, %69 ]
  %71 = phi <8 x i8> [ %68, %65 ], [ %75, %69 ]
  %72 = getelementptr inbounds i8, ptr %0, i64 %70
  %73 = load <8 x i8>, ptr %72, align 1, !tbaa !29
  %74 = or <8 x i8> %41, %73
  %75 = add <8 x i8> %74, %71
  %76 = add nuw i64 %70, 8
  %77 = icmp eq i64 %76, %36
  br i1 %77, label %78, label %69, !llvm.loop !101

78:                                               ; preds = %69
  %79 = tail call i8 @llvm.vector.reduce.add.v8i8(<8 x i8> %75)
  br i1 %42, label %103, label %80

80:                                               ; preds = %43, %64, %78
  %81 = phi i64 [ 0, %43 ], [ %22, %64 ], [ %36, %78 ]
  %82 = phi i8 [ 0, %43 ], [ %63, %64 ], [ %79, %78 ]
  br label %91

83:                                               ; preds = %103
  %84 = load i32, ptr @current_test, align 4, !tbaa !9
  %85 = tail call i32 (ptr, ...) @printf(ptr noundef nonnull dereferenceable(1) @.str.179, i32 noundef %84)
  %86 = load i32, ptr @iterations, align 4, !tbaa !9
  br label %87

87:                                               ; preds = %83, %103
  %88 = phi i32 [ %86, %83 ], [ %44, %103 ]
  %89 = add nuw nsw i32 %45, 1
  %90 = icmp slt i32 %89, %88
  br i1 %90, label %43, label %128, !llvm.loop !102

91:                                               ; preds = %80, %91
  %92 = phi i64 [ %101, %91 ], [ %81, %80 ]
  %93 = phi i8 [ %100, %91 ], [ %82, %80 ]
  %94 = getelementptr inbounds i8, ptr %0, i64 %92
  %95 = load i8, ptr %94, align 1, !tbaa !29
  %96 = or i8 %95, %2
  %97 = or i8 %96, %3
  %98 = or i8 %97, %4
  %99 = or i8 %98, %5
  %100 = add i8 %99, %93
  %101 = add nuw nsw i64 %92, 1
  %102 = icmp eq i64 %101, %19
  br i1 %102, label %103, label %91, !llvm.loop !103

103:                                              ; preds = %91, %78, %61
  %104 = phi i8 [ %63, %61 ], [ %79, %78 ], [ %100, %91 ]
  %105 = load double, ptr @init_value, align 8, !tbaa !28
  %106 = fptosi double %105 to i8
  %107 = or i8 %15, %106
  %108 = shl i8 %107, 6
  %109 = icmp eq i8 %108, %104
  br i1 %109, label %87, label %83

110:                                              ; preds = %16, %123
  %111 = phi i32 [ %124, %123 ], [ %9, %16 ]
  %112 = phi double [ %125, %123 ], [ %17, %16 ]
  %113 = phi i32 [ %126, %123 ], [ 0, %16 ]
  %114 = fptosi double %112 to i8
  %115 = or i8 %15, %114
  %116 = and i8 %115, 3
  %117 = icmp eq i8 %116, 0
  br i1 %117, label %123, label %118

118:                                              ; preds = %110
  %119 = load i32, ptr @current_test, align 4, !tbaa !9
  %120 = tail call i32 (ptr, ...) @printf(ptr noundef nonnull dereferenceable(1) @.str.179, i32 noundef %119)
  %121 = load double, ptr @init_value, align 8, !tbaa !28
  %122 = load i32, ptr @iterations, align 4, !tbaa !9
  br label %123

123:                                              ; preds = %110, %118
  %124 = phi i32 [ %111, %110 ], [ %122, %118 ]
  %125 = phi double [ %112, %110 ], [ %121, %118 ]
  %126 = add nuw nsw i32 %113, 1
  %127 = icmp slt i32 %126, %124
  br i1 %127, label %110, label %128, !llvm.loop !102

128:                                              ; preds = %123, %87, %7
  %129 = tail call i64 @clock() #17
  store i64 %129, ptr @end_time, align 8, !tbaa !26
  %130 = load i64, ptr @start_time, align 8, !tbaa !26
  %131 = load ptr, ptr @results, align 8, !tbaa !5
  %132 = icmp eq ptr %131, null
  br i1 %132, label %133, label %135

133:                                              ; preds = %128
  %134 = load i32, ptr @allocated_results, align 4, !tbaa !9
  br label %139

135:                                              ; preds = %128
  %136 = load i32, ptr @current_test, align 4, !tbaa !9
  %137 = load i32, ptr @allocated_results, align 4, !tbaa !9
  %138 = icmp slt i32 %136, %137
  br i1 %138, label %151, label %139

139:                                              ; preds = %135, %133
  %140 = phi i32 [ %134, %133 ], [ %137, %135 ]
  %141 = add nsw i32 %140, 10
  store i32 %141, ptr @allocated_results, align 4, !tbaa !9
  %142 = sext i32 %141 to i64
  %143 = shl nsw i64 %142, 4
  %144 = tail call ptr @realloc(ptr noundef %131, i64 noundef %143) #14
  store ptr %144, ptr @results, align 8, !tbaa !5
  %145 = icmp eq ptr %144, null
  br i1 %145, label %148, label %146

146:                                              ; preds = %139
  %147 = load i32, ptr @current_test, align 4, !tbaa !9
  br label %151

148:                                              ; preds = %139
  %149 = load i32, ptr @allocated_results, align 4, !tbaa !9
  %150 = tail call i32 (ptr, ...) @printf(ptr noundef nonnull dereferenceable(1) @.str, i32 noundef %149)
  tail call void @exit(i32 noundef -1) #15
  unreachable

151:                                              ; preds = %135, %146
  %152 = phi i32 [ %147, %146 ], [ %136, %135 ]
  %153 = phi ptr [ %144, %146 ], [ %131, %135 ]
  %154 = sub nsw i64 %129, %130
  %155 = sitofp i64 %154 to double
  %156 = fdiv double %155, 1.000000e+06
  %157 = sext i32 %152 to i64
  %158 = getelementptr inbounds %struct.one_result, ptr %153, i64 %157
  store double %156, ptr %158, align 8, !tbaa !11
  %159 = getelementptr inbounds %struct.one_result, ptr %153, i64 %157, i32 1
  store ptr %6, ptr %159, align 8, !tbaa !14
  %160 = add nsw i32 %152, 1
  store i32 %160, ptr @current_test, align 4, !tbaa !9
  ret void
}

; Function Attrs: mustprogress uwtable
define linkonce_odr dso_local void @_Z14test_variable1Ia19custom_variable_xorIaEEvPT_iS2_PKc(ptr noundef %0, i32 noundef %1, i8 noundef signext %2, ptr noundef %3) local_unnamed_addr #9 comdat {
  %5 = tail call i64 @clock() #17
  store i64 %5, ptr @start_time, align 8, !tbaa !26
  %6 = load i32, ptr @iterations, align 4, !tbaa !9
  %7 = icmp sgt i32 %6, 0
  br i1 %7, label %8, label %110

8:                                                ; preds = %4
  %9 = icmp sgt i32 %1, 0
  br i1 %9, label %12, label %10

10:                                               ; preds = %8
  %11 = load double, ptr @init_value, align 8, !tbaa !28
  br label %92

12:                                               ; preds = %8
  %13 = zext i32 %1 to i64
  %14 = icmp ult i32 %1, 8
  %15 = icmp ult i32 %1, 32
  %16 = and i64 %13, 4294967264
  %17 = insertelement <16 x i8> poison, i8 %2, i64 0
  %18 = shufflevector <16 x i8> %17, <16 x i8> poison, <16 x i32> zeroinitializer
  %19 = insertelement <16 x i8> poison, i8 %2, i64 0
  %20 = shufflevector <16 x i8> %19, <16 x i8> poison, <16 x i32> zeroinitializer
  %21 = icmp eq i64 %16, %13
  %22 = and i64 %13, 24
  %23 = icmp eq i64 %22, 0
  %24 = and i64 %13, 4294967288
  %25 = insertelement <8 x i8> poison, i8 %2, i64 0
  %26 = shufflevector <8 x i8> %25, <8 x i8> poison, <8 x i32> zeroinitializer
  %27 = icmp eq i64 %24, %13
  br label %28

28:                                               ; preds = %12, %72
  %29 = phi i32 [ %73, %72 ], [ %6, %12 ]
  %30 = phi i32 [ %74, %72 ], [ 0, %12 ]
  br i1 %14, label %65, label %31

31:                                               ; preds = %28
  br i1 %15, label %50, label %32

32:                                               ; preds = %31, %32
  %33 = phi i64 [ %44, %32 ], [ 0, %31 ]
  %34 = phi <16 x i8> [ %42, %32 ], [ zeroinitializer, %31 ]
  %35 = phi <16 x i8> [ %43, %32 ], [ zeroinitializer, %31 ]
  %36 = getelementptr inbounds i8, ptr %0, i64 %33
  %37 = load <16 x i8>, ptr %36, align 1, !tbaa !29
  %38 = getelementptr inbounds i8, ptr %36, i64 16
  %39 = load <16 x i8>, ptr %38, align 1, !tbaa !29
  %40 = xor <16 x i8> %37, %18
  %41 = xor <16 x i8> %39, %20
  %42 = add <16 x i8> %40, %34
  %43 = add <16 x i8> %41, %35
  %44 = add nuw i64 %33, 32
  %45 = icmp eq i64 %44, %16
  br i1 %45, label %46, label %32, !llvm.loop !104

46:                                               ; preds = %32
  %47 = add <16 x i8> %43, %42
  %48 = tail call i8 @llvm.vector.reduce.add.v16i8(<16 x i8> %47)
  br i1 %21, label %85, label %49

49:                                               ; preds = %46
  br i1 %23, label %65, label %50

50:                                               ; preds = %31, %49
  %51 = phi i8 [ 0, %31 ], [ %48, %49 ]
  %52 = phi i64 [ 0, %31 ], [ %16, %49 ]
  %53 = insertelement <8 x i8> <i8 poison, i8 0, i8 0, i8 0, i8 0, i8 0, i8 0, i8 0>, i8 %51, i64 0
  br label %54

54:                                               ; preds = %54, %50
  %55 = phi i64 [ %52, %50 ], [ %61, %54 ]
  %56 = phi <8 x i8> [ %53, %50 ], [ %60, %54 ]
  %57 = getelementptr inbounds i8, ptr %0, i64 %55
  %58 = load <8 x i8>, ptr %57, align 1, !tbaa !29
  %59 = xor <8 x i8> %58, %26
  %60 = add <8 x i8> %59, %56
  %61 = add nuw i64 %55, 8
  %62 = icmp eq i64 %61, %24
  br i1 %62, label %63, label %54, !llvm.loop !105

63:                                               ; preds = %54
  %64 = tail call i8 @llvm.vector.reduce.add.v8i8(<8 x i8> %60)
  br i1 %27, label %85, label %65

65:                                               ; preds = %28, %49, %63
  %66 = phi i64 [ 0, %28 ], [ %16, %49 ], [ %24, %63 ]
  %67 = phi i8 [ 0, %28 ], [ %48, %49 ], [ %64, %63 ]
  br label %76

68:                                               ; preds = %85
  %69 = load i32, ptr @current_test, align 4, !tbaa !9
  %70 = tail call i32 (ptr, ...) @printf(ptr noundef nonnull dereferenceable(1) @.str.179, i32 noundef %69)
  %71 = load i32, ptr @iterations, align 4, !tbaa !9
  br label %72

72:                                               ; preds = %68, %85
  %73 = phi i32 [ %71, %68 ], [ %29, %85 ]
  %74 = add nuw nsw i32 %30, 1
  %75 = icmp slt i32 %74, %73
  br i1 %75, label %28, label %110, !llvm.loop !106

76:                                               ; preds = %65, %76
  %77 = phi i64 [ %83, %76 ], [ %66, %65 ]
  %78 = phi i8 [ %82, %76 ], [ %67, %65 ]
  %79 = getelementptr inbounds i8, ptr %0, i64 %77
  %80 = load i8, ptr %79, align 1, !tbaa !29
  %81 = xor i8 %80, %2
  %82 = add i8 %81, %78
  %83 = add nuw nsw i64 %77, 1
  %84 = icmp eq i64 %83, %13
  br i1 %84, label %85, label %76, !llvm.loop !107

85:                                               ; preds = %76, %63, %46
  %86 = phi i8 [ %48, %46 ], [ %64, %63 ], [ %82, %76 ]
  %87 = load double, ptr @init_value, align 8, !tbaa !28
  %88 = fptosi double %87 to i8
  %89 = xor i8 %88, %2
  %90 = shl i8 %89, 6
  %91 = icmp eq i8 %90, %86
  br i1 %91, label %72, label %68

92:                                               ; preds = %10, %105
  %93 = phi i32 [ %106, %105 ], [ %6, %10 ]
  %94 = phi double [ %107, %105 ], [ %11, %10 ]
  %95 = phi i32 [ %108, %105 ], [ 0, %10 ]
  %96 = fptosi double %94 to i8
  %97 = xor i8 %96, %2
  %98 = and i8 %97, 3
  %99 = icmp eq i8 %98, 0
  br i1 %99, label %105, label %100

100:                                              ; preds = %92
  %101 = load i32, ptr @current_test, align 4, !tbaa !9
  %102 = tail call i32 (ptr, ...) @printf(ptr noundef nonnull dereferenceable(1) @.str.179, i32 noundef %101)
  %103 = load double, ptr @init_value, align 8, !tbaa !28
  %104 = load i32, ptr @iterations, align 4, !tbaa !9
  br label %105

105:                                              ; preds = %92, %100
  %106 = phi i32 [ %93, %92 ], [ %104, %100 ]
  %107 = phi double [ %94, %92 ], [ %103, %100 ]
  %108 = add nuw nsw i32 %95, 1
  %109 = icmp slt i32 %108, %106
  br i1 %109, label %92, label %110, !llvm.loop !106

110:                                              ; preds = %105, %72, %4
  %111 = tail call i64 @clock() #17
  store i64 %111, ptr @end_time, align 8, !tbaa !26
  %112 = load i64, ptr @start_time, align 8, !tbaa !26
  %113 = load ptr, ptr @results, align 8, !tbaa !5
  %114 = icmp eq ptr %113, null
  br i1 %114, label %115, label %117

115:                                              ; preds = %110
  %116 = load i32, ptr @allocated_results, align 4, !tbaa !9
  br label %121

117:                                              ; preds = %110
  %118 = load i32, ptr @current_test, align 4, !tbaa !9
  %119 = load i32, ptr @allocated_results, align 4, !tbaa !9
  %120 = icmp slt i32 %118, %119
  br i1 %120, label %133, label %121

121:                                              ; preds = %117, %115
  %122 = phi i32 [ %116, %115 ], [ %119, %117 ]
  %123 = add nsw i32 %122, 10
  store i32 %123, ptr @allocated_results, align 4, !tbaa !9
  %124 = sext i32 %123 to i64
  %125 = shl nsw i64 %124, 4
  %126 = tail call ptr @realloc(ptr noundef %113, i64 noundef %125) #14
  store ptr %126, ptr @results, align 8, !tbaa !5
  %127 = icmp eq ptr %126, null
  br i1 %127, label %130, label %128

128:                                              ; preds = %121
  %129 = load i32, ptr @current_test, align 4, !tbaa !9
  br label %133

130:                                              ; preds = %121
  %131 = load i32, ptr @allocated_results, align 4, !tbaa !9
  %132 = tail call i32 (ptr, ...) @printf(ptr noundef nonnull dereferenceable(1) @.str, i32 noundef %131)
  tail call void @exit(i32 noundef -1) #15
  unreachable

133:                                              ; preds = %117, %128
  %134 = phi i32 [ %129, %128 ], [ %118, %117 ]
  %135 = phi ptr [ %126, %128 ], [ %113, %117 ]
  %136 = sub nsw i64 %111, %112
  %137 = sitofp i64 %136 to double
  %138 = fdiv double %137, 1.000000e+06
  %139 = sext i32 %134 to i64
  %140 = getelementptr inbounds %struct.one_result, ptr %135, i64 %139
  store double %138, ptr %140, align 8, !tbaa !11
  %141 = getelementptr inbounds %struct.one_result, ptr %135, i64 %139, i32 1
  store ptr %3, ptr %141, align 8, !tbaa !14
  %142 = add nsw i32 %134, 1
  store i32 %142, ptr @current_test, align 4, !tbaa !9
  ret void
}

; Function Attrs: mustprogress uwtable
define linkonce_odr dso_local void @_Z14test_variable4Ia28custom_multiple_variable_xorIaEEvPT_iS2_S2_S2_S2_PKc(ptr noundef %0, i32 noundef %1, i8 noundef signext %2, i8 noundef signext %3, i8 noundef signext %4, i8 noundef signext %5, ptr noundef %6) local_unnamed_addr #9 comdat {
  %8 = tail call i64 @clock() #17
  store i64 %8, ptr @start_time, align 8, !tbaa !26
  %9 = load i32, ptr @iterations, align 4, !tbaa !9
  %10 = icmp sgt i32 %9, 0
  br i1 %10, label %11, label %128

11:                                               ; preds = %7
  %12 = icmp sgt i32 %1, 0
  %13 = xor i8 %3, %2
  %14 = xor i8 %13, %4
  %15 = xor i8 %14, %5
  br i1 %12, label %18, label %16

16:                                               ; preds = %11
  %17 = load double, ptr @init_value, align 8, !tbaa !28
  br label %110

18:                                               ; preds = %11
  %19 = zext i32 %1 to i64
  %20 = icmp ult i32 %1, 8
  %21 = icmp ult i32 %1, 32
  %22 = and i64 %19, 4294967264
  %23 = xor i8 %3, %2
  %24 = xor i8 %3, %2
  %25 = xor i8 %23, %4
  %26 = xor i8 %24, %4
  %27 = xor i8 %25, %5
  %28 = insertelement <16 x i8> poison, i8 %27, i64 0
  %29 = shufflevector <16 x i8> %28, <16 x i8> poison, <16 x i32> zeroinitializer
  %30 = xor i8 %26, %5
  %31 = insertelement <16 x i8> poison, i8 %30, i64 0
  %32 = shufflevector <16 x i8> %31, <16 x i8> poison, <16 x i32> zeroinitializer
  %33 = icmp eq i64 %22, %19
  %34 = and i64 %19, 24
  %35 = icmp eq i64 %34, 0
  %36 = and i64 %19, 4294967288
  %37 = xor i8 %3, %2
  %38 = xor i8 %37, %4
  %39 = xor i8 %38, %5
  %40 = insertelement <8 x i8> poison, i8 %39, i64 0
  %41 = shufflevector <8 x i8> %40, <8 x i8> poison, <8 x i32> zeroinitializer
  %42 = icmp eq i64 %36, %19
  br label %43

43:                                               ; preds = %18, %87
  %44 = phi i32 [ %88, %87 ], [ %9, %18 ]
  %45 = phi i32 [ %89, %87 ], [ 0, %18 ]
  br i1 %20, label %80, label %46

46:                                               ; preds = %43
  br i1 %21, label %65, label %47

47:                                               ; preds = %46, %47
  %48 = phi i64 [ %59, %47 ], [ 0, %46 ]
  %49 = phi <16 x i8> [ %57, %47 ], [ zeroinitializer, %46 ]
  %50 = phi <16 x i8> [ %58, %47 ], [ zeroinitializer, %46 ]
  %51 = getelementptr inbounds i8, ptr %0, i64 %48
  %52 = load <16 x i8>, ptr %51, align 1, !tbaa !29
  %53 = getelementptr inbounds i8, ptr %51, i64 16
  %54 = load <16 x i8>, ptr %53, align 1, !tbaa !29
  %55 = xor <16 x i8> %29, %52
  %56 = xor <16 x i8> %32, %54
  %57 = add <16 x i8> %55, %49
  %58 = add <16 x i8> %56, %50
  %59 = add nuw i64 %48, 32
  %60 = icmp eq i64 %59, %22
  br i1 %60, label %61, label %47, !llvm.loop !108

61:                                               ; preds = %47
  %62 = add <16 x i8> %58, %57
  %63 = tail call i8 @llvm.vector.reduce.add.v16i8(<16 x i8> %62)
  br i1 %33, label %103, label %64

64:                                               ; preds = %61
  br i1 %35, label %80, label %65

65:                                               ; preds = %46, %64
  %66 = phi i8 [ 0, %46 ], [ %63, %64 ]
  %67 = phi i64 [ 0, %46 ], [ %22, %64 ]
  %68 = insertelement <8 x i8> <i8 poison, i8 0, i8 0, i8 0, i8 0, i8 0, i8 0, i8 0>, i8 %66, i64 0
  br label %69

69:                                               ; preds = %69, %65
  %70 = phi i64 [ %67, %65 ], [ %76, %69 ]
  %71 = phi <8 x i8> [ %68, %65 ], [ %75, %69 ]
  %72 = getelementptr inbounds i8, ptr %0, i64 %70
  %73 = load <8 x i8>, ptr %72, align 1, !tbaa !29
  %74 = xor <8 x i8> %41, %73
  %75 = add <8 x i8> %74, %71
  %76 = add nuw i64 %70, 8
  %77 = icmp eq i64 %76, %36
  br i1 %77, label %78, label %69, !llvm.loop !109

78:                                               ; preds = %69
  %79 = tail call i8 @llvm.vector.reduce.add.v8i8(<8 x i8> %75)
  br i1 %42, label %103, label %80

80:                                               ; preds = %43, %64, %78
  %81 = phi i64 [ 0, %43 ], [ %22, %64 ], [ %36, %78 ]
  %82 = phi i8 [ 0, %43 ], [ %63, %64 ], [ %79, %78 ]
  br label %91

83:                                               ; preds = %103
  %84 = load i32, ptr @current_test, align 4, !tbaa !9
  %85 = tail call i32 (ptr, ...) @printf(ptr noundef nonnull dereferenceable(1) @.str.179, i32 noundef %84)
  %86 = load i32, ptr @iterations, align 4, !tbaa !9
  br label %87

87:                                               ; preds = %83, %103
  %88 = phi i32 [ %86, %83 ], [ %44, %103 ]
  %89 = add nuw nsw i32 %45, 1
  %90 = icmp slt i32 %89, %88
  br i1 %90, label %43, label %128, !llvm.loop !110

91:                                               ; preds = %80, %91
  %92 = phi i64 [ %101, %91 ], [ %81, %80 ]
  %93 = phi i8 [ %100, %91 ], [ %82, %80 ]
  %94 = getelementptr inbounds i8, ptr %0, i64 %92
  %95 = load i8, ptr %94, align 1, !tbaa !29
  %96 = xor i8 %95, %2
  %97 = xor i8 %96, %3
  %98 = xor i8 %97, %4
  %99 = xor i8 %98, %5
  %100 = add i8 %99, %93
  %101 = add nuw nsw i64 %92, 1
  %102 = icmp eq i64 %101, %19
  br i1 %102, label %103, label %91, !llvm.loop !111

103:                                              ; preds = %91, %78, %61
  %104 = phi i8 [ %63, %61 ], [ %79, %78 ], [ %100, %91 ]
  %105 = load double, ptr @init_value, align 8, !tbaa !28
  %106 = fptosi double %105 to i8
  %107 = xor i8 %15, %106
  %108 = shl i8 %107, 6
  %109 = icmp eq i8 %108, %104
  br i1 %109, label %87, label %83

110:                                              ; preds = %16, %123
  %111 = phi i32 [ %124, %123 ], [ %9, %16 ]
  %112 = phi double [ %125, %123 ], [ %17, %16 ]
  %113 = phi i32 [ %126, %123 ], [ 0, %16 ]
  %114 = fptosi double %112 to i8
  %115 = xor i8 %15, %114
  %116 = and i8 %115, 3
  %117 = icmp eq i8 %116, 0
  br i1 %117, label %123, label %118

118:                                              ; preds = %110
  %119 = load i32, ptr @current_test, align 4, !tbaa !9
  %120 = tail call i32 (ptr, ...) @printf(ptr noundef nonnull dereferenceable(1) @.str.179, i32 noundef %119)
  %121 = load double, ptr @init_value, align 8, !tbaa !28
  %122 = load i32, ptr @iterations, align 4, !tbaa !9
  br label %123

123:                                              ; preds = %110, %118
  %124 = phi i32 [ %111, %110 ], [ %122, %118 ]
