; ModuleID = '/usr/local/google/home/aeubanks/repos/test-suite/MultiSource/Benchmarks/DOE-ProxyApps-C++/CLAMR/mesh.cpp'
source_filename = "/usr/local/google/home/aeubanks/repos/test-suite/MultiSource/Benchmarks/DOE-ProxyApps-C++/CLAMR/mesh.cpp"
target datalayout = "e-m:e-p270:32:32-p271:32:32-p272:64:64-i64:64-f80:128-n8:16:32:64-S128"
target triple = "x86_64-unknown-linux-gnu"

%"class.std::vector" = type { %"struct.std::_Vector_base" }
%"struct.std::_Vector_base" = type { %"struct.std::_Vector_base<int, std::allocator<int>>::_Vector_impl" }
%"struct.std::_Vector_base<int, std::allocator<int>>::_Vector_impl" = type { %"struct.std::_Vector_base<int, std::allocator<int>>::_Vector_impl_data" }
%"struct.std::_Vector_base<int, std::allocator<int>>::_Vector_impl_data" = type { ptr, ptr, ptr }
%class.Mesh = type { i32, %class.MallocPlus, %class.MallocPlus, [24 x double], [24 x i64], [4 x i32], [4 x i32], i8, i8, i32, i32, i32, i32, i32, ptr, ptr, float, double, i32, %"class.std::vector", %"class.std::vector", %"class.std::vector", %"class.std::vector", ptr, %struct.TKDTree, %"class.std::vector", %"class.std::vector", %"class.std::vector", %"class.std::vector", %"class.std::vector", %"class.std::vector", %"class.std::vector", %"class.std::vector", %"class.std::vector.11", %"class.std::vector.11", %"class.std::vector.11", i32, i32, i32, i32, i32, i32, i32, i32, i32, i64, i64, i64, double, double, double, double, double, double, double, double, double, double, double, double, double, double, double, %"class.std::vector", ptr, ptr, ptr, ptr, ptr, ptr, ptr, ptr, ptr, ptr, ptr, %"class.std::vector.11", %"class.std::vector.11", %"class.std::vector.11", %"class.std::vector.11", %"class.std::vector.11", %"class.std::vector.11", i32, i32, %"class.std::vector", %"class.std::vector", %"class.std::vector", %"class.std::vector", %"class.std::vector", %"class.std::vector", %"class.std::vector", %"class.std::vector", %"class.std::vector", %"class.std::vector", %"class.std::vector", %"class.std::vector", %"class.std::vector", %"class.std::vector", %"class.std::vector", %"class.std::vector", %"class.std::vector", %"class.std::vector", %"class.std::vector", %"class.std::vector", %"class.std::vector", %"class.std::vector", %"class.std::vector", %"class.std::vector", %"class.std::vector", %"class.std::vector", %"class.std::vector", %"class.std::vector", %"class.std::vector", %"class.std::vector" }
%class.MallocPlus = type { %"class.std::map", %"class.std::map.0" }
%"class.std::map" = type { %"class.std::_Rb_tree" }
%"class.std::_Rb_tree" = type { %"struct.std::_Rb_tree<std::__cxx11::basic_string<char>, std::pair<const std::__cxx11::basic_string<char>, malloc_plus_memory_entry *>, std::_Select1st<std::pair<const std::__cxx11::basic_string<char>, malloc_plus_memory_entry *>>, std::less<std::__cxx11::basic_string<char>>>::_Rb_tree_impl" }
%"struct.std::_Rb_tree<std::__cxx11::basic_string<char>, std::pair<const std::__cxx11::basic_string<char>, malloc_plus_memory_entry *>, std::_Select1st<std::pair<const std::__cxx11::basic_string<char>, malloc_plus_memory_entry *>>, std::less<std::__cxx11::basic_string<char>>>::_Rb_tree_impl" = type { %"struct.std::_Rb_tree_key_compare", %"struct.std::_Rb_tree_header" }
%"struct.std::_Rb_tree_key_compare" = type { %"struct.std::less" }
%"struct.std::less" = type { i8 }
%"struct.std::_Rb_tree_header" = type { %"struct.std::_Rb_tree_node_base", i64 }
%"struct.std::_Rb_tree_node_base" = type { i32, ptr, ptr, ptr }
%"class.std::map.0" = type { %"class.std::_Rb_tree.1" }
%"class.std::_Rb_tree.1" = type { %"struct.std::_Rb_tree<void *, std::pair<void *const, malloc_plus_memory_entry *>, std::_Select1st<std::pair<void *const, malloc_plus_memory_entry *>>, std::less<void *>>::_Rb_tree_impl" }
%"struct.std::_Rb_tree<void *, std::pair<void *const, malloc_plus_memory_entry *>, std::_Select1st<std::pair<void *const, malloc_plus_memory_entry *>>, std::less<void *>>::_Rb_tree_impl" = type { %"struct.std::_Rb_tree_key_compare.5", %"struct.std::_Rb_tree_header" }
%"struct.std::_Rb_tree_key_compare.5" = type { %"struct.std::less.6" }
%"struct.std::less.6" = type { i8 }
%struct.TKDTree = type { %struct.TBounds, i32, i32, ptr, i8, i32, ptr, ptr }
%struct.TBounds = type { %struct.TVector, %struct.TVector }
%struct.TVector = type { double, double }
%"class.std::vector.11" = type { %"struct.std::_Vector_base.12" }
%"struct.std::_Vector_base.12" = type { %"struct.std::_Vector_base<double, std::allocator<double>>::_Vector_impl" }
%"struct.std::_Vector_base<double, std::allocator<double>>::_Vector_impl" = type { %"struct.std::_Vector_base<double, std::allocator<double>>::_Vector_impl_data" }
%"struct.std::_Vector_base<double, std::allocator<double>>::_Vector_impl_data" = type { ptr, ptr, ptr }
%struct.timeval = type { i64, i64 }
%"struct.std::_Rb_tree<void *, std::pair<void *const, malloc_plus_memory_entry *>, std::_Select1st<std::pair<void *const, malloc_plus_memory_entry *>>, std::less<void *>>::_Alloc_node" = type { ptr }
%"struct.std::_Rb_tree<std::__cxx11::basic_string<char>, std::pair<const std::__cxx11::basic_string<char>, malloc_plus_memory_entry *>, std::_Select1st<std::pair<const std::__cxx11::basic_string<char>, malloc_plus_memory_entry *>>, std::less<std::__cxx11::basic_string<char>>>::_Alloc_node" = type { ptr }
%struct.malloc_plus_memory_entry = type { ptr, i64, ptr, i64, i64, i32, ptr }
%"struct.std::_Rb_tree_node.28" = type { %"struct.std::_Rb_tree_node_base", %"struct.__gnu_cxx::__aligned_membuf.29" }
%"struct.__gnu_cxx::__aligned_membuf.29" = type { [40 x i8] }
%"class.std::__cxx11::basic_string" = type { %"struct.std::__cxx11::basic_string<char>::_Alloc_hider", i64, %union.anon }
%"struct.std::__cxx11::basic_string<char>::_Alloc_hider" = type { ptr }
%union.anon = type { i64, [8 x i8] }
%"struct.std::pair.30" = type { %"class.std::__cxx11::basic_string", ptr }
%"struct.std::_Rb_tree_node" = type { %"struct.std::_Rb_tree_node_base", %"struct.__gnu_cxx::__aligned_membuf" }
%"struct.__gnu_cxx::__aligned_membuf" = type { [16 x i8] }
%"struct.__gnu_cxx::__ops::_Iter_less_iter" = type { i8 }

$_ZNSt6vectorIiSaIiEED2Ev = comdat any

$_ZN10MallocPlusD2Ev = comdat any

$__clang_call_terminate = comdat any

$_ZNSt3mapINSt7__cxx1112basic_stringIcSt11char_traitsIcESaIcEEEP24malloc_plus_memory_entrySt4lessIS5_ESaISt4pairIKS5_S7_EEED2Ev = comdat any

$_ZNSt8_Rb_treeIPvSt4pairIKS0_P24malloc_plus_memory_entryESt10_Select1stIS5_ESt4lessIS0_ESaIS5_EE8_M_eraseEPSt13_Rb_tree_nodeIS5_E = comdat any

$_ZNSt8_Rb_treeINSt7__cxx1112basic_stringIcSt11char_traitsIcESaIcEEESt4pairIKS5_P24malloc_plus_memory_entryESt10_Select1stISA_ESt4lessIS5_ESaISA_EE8_M_eraseEPSt13_Rb_tree_nodeISA_E = comdat any

$_ZNSt8_Rb_treeINSt7__cxx1112basic_stringIcSt11char_traitsIcESaIcEEESt4pairIKS5_P24malloc_plus_memory_entryESt10_Select1stISA_ESt4lessIS5_ESaISA_EE7_M_copyILb0ENSG_11_Alloc_nodeEEEPSt13_Rb_tree_nodeISA_ESL_PSt18_Rb_tree_node_baseRT0_ = comdat any

$_ZNSt8_Rb_treeINSt7__cxx1112basic_stringIcSt11char_traitsIcESaIcEEESt4pairIKS5_P24malloc_plus_memory_entryESt10_Select1stISA_ESt4lessIS5_ESaISA_EE17_M_construct_nodeIJRKSA_EEEvPSt13_Rb_tree_nodeISA_EDpOT_ = comdat any

$_ZNSt8_Rb_treeIPvSt4pairIKS0_P24malloc_plus_memory_entryESt10_Select1stIS5_ESt4lessIS0_ESaIS5_EE7_M_copyILb0ENSB_11_Alloc_nodeEEEPSt13_Rb_tree_nodeIS5_ESG_PSt18_Rb_tree_node_baseRT0_ = comdat any

$_ZNSt6vectorIiSaIiEE17_M_default_appendEm = comdat any

$_ZNSt6vectorIdSaIdEE17_M_default_appendEm = comdat any

$_ZNSt6vectorIiSaIiEE14_M_fill_insertEN9__gnu_cxx17__normal_iteratorIPiS1_EEmRKi = comdat any

$_ZSt16__introsort_loopIN9__gnu_cxx17__normal_iteratorIPdSt6vectorIdSaIdEEEElNS0_5__ops15_Iter_less_iterEEvT_S9_T0_T1_ = comdat any

$_ZSt22__final_insertion_sortIN9__gnu_cxx17__normal_iteratorIPdSt6vectorIdSaIdEEEENS0_5__ops15_Iter_less_iterEEvT_S9_T0_ = comdat any

$_ZSt11__make_heapIN9__gnu_cxx17__normal_iteratorIPdSt6vectorIdSaIdEEEENS0_5__ops15_Iter_less_iterEEvT_S9_RT0_ = comdat any

$_ZSt16__introsort_loopIN9__gnu_cxx17__normal_iteratorIPxSt6vectorIxSaIxEEEElNS0_5__ops15_Iter_less_iterEEvT_S9_T0_T1_ = comdat any

$_ZSt22__final_insertion_sortIN9__gnu_cxx17__normal_iteratorIPxSt6vectorIxSaIxEEEENS0_5__ops15_Iter_less_iterEEvT_S9_T0_ = comdat any

$_ZSt11__make_heapIN9__gnu_cxx17__normal_iteratorIPxSt6vectorIxSaIxEEEENS0_5__ops15_Iter_less_iterEEvT_S9_RT0_ = comdat any

$_ZSt16__introsort_loopIN9__gnu_cxx17__normal_iteratorIPiSt6vectorIiSaIiEEEElNS0_5__ops15_Iter_less_iterEEvT_S9_T0_T1_ = comdat any

$_ZSt22__final_insertion_sortIN9__gnu_cxx17__normal_iteratorIPiSt6vectorIiSaIiEEEENS0_5__ops15_Iter_less_iterEEvT_S9_T0_ = comdat any

$_ZSt11__make_heapIN9__gnu_cxx17__normal_iteratorIPiSt6vectorIiSaIiEEEENS0_5__ops15_Iter_less_iterEEvT_S9_RT0_ = comdat any

@do_stencil_warning = dso_local local_unnamed_addr global i32 0, align 4
@calc_neighbor_type = dso_local local_unnamed_addr global i32 0, align 4
@dynamic_load_balance_on = dso_local local_unnamed_addr global i8 0, align 1
@neighbor_remap = dso_local local_unnamed_addr global i8 0, align 1
@.str = private unnamed_addr constant [13 x i8] c"grid%02d.gph\00", align 1
@.str.1 = private unnamed_addr constant [2 x i8] c"w\00", align 1
@.str.2 = private unnamed_addr constant [26 x i8] c"viewport %lf %lf %lf %lf\0A\00", align 1
@.str.3 = private unnamed_addr constant [29 x i8] c"rect  %lf   %lf   %lf   %lf\0A\00", align 1
@.str.4 = private unnamed_addr constant [19 x i8] c"line_init %lf %lf\0A\00", align 1
@.str.5 = private unnamed_addr constant [14 x i8] c"line %lf %lf\0A\00", align 1
@.str.6 = private unnamed_addr constant [17 x i8] c"text %lf %lf %d\0A\00", align 1
@.str.7 = private unnamed_addr constant [10 x i8] c"levmax %d\00", align 1
@.str.8 = private unnamed_addr constant [10 x i8] c"cells %ld\00", align 1
@.str.9 = private unnamed_addr constant [9 x i8] c"numpe %d\00", align 1
@.str.10 = private unnamed_addr constant [8 x i8] c"ndim %d\00", align 1
@.str.11 = private unnamed_addr constant [14 x i8] c"xaxis %lf %lf\00", align 1
@.str.12 = private unnamed_addr constant [14 x i8] c"yaxis %lf %lf\00", align 1
@.str.13 = private unnamed_addr constant [14 x i8] c"zaxis %lf %lf\00", align 1
@.str.14 = private unnamed_addr constant [12 x i8] c"%d %d %d %d\00", align 1
@.str.17 = private unnamed_addr constant [46 x i8] c"%6d %6d   %4d  %4d   %4d  %4d  %4d  %4d  %4d \00", align 1
@.str.18 = private unnamed_addr constant [29 x i8] c"%8.2lf %8.2lf %8.2lf %8.2lf\0A\00", align 1
@.str.19 = private unnamed_addr constant [63 x i8] c"%d:   index global  i     j     lev   nlft  nrht  nbot  ntop \0A\00", align 1
@.str.20 = private unnamed_addr constant [50 x i8] c"%d: %6d  %6d %4d  %4d   %4d  %4d  %4d  %4d  %4d \0A\00", align 1
@.str.21 = private unnamed_addr constant [32 x i8] c"%d:    index   i     j     lev\0A\00", align 1
@.str.22 = private unnamed_addr constant [27 x i8] c"%d: %6d  %4d  %4d   %4d  \0A\00", align 1
@.str.23 = private unnamed_addr constant [80 x i8] c"DEBUG rezone 3 at cycle %d celltype_global & celltype_check_global %d %d  %d  \0A\00", align 1
@.str.24 = private unnamed_addr constant [66 x i8] c"DEBUG rezone 3 at cycle %d i_global & i_check_global %d %d  %d  \0A\00", align 1
@.str.25 = private unnamed_addr constant [66 x i8] c"DEBUG rezone 3 at cycle %d j_global & j_check_global %d %d  %d  \0A\00", align 1
@.str.26 = private unnamed_addr constant [74 x i8] c"DEBUG rezone 3 at cycle %d level_global & level_check_global %d %d  %d  \0A\00", align 1
@.str.27 = private unnamed_addr constant [67 x i8] c"DEBUG graphics at cycle %d x_global & x_check_global  %d %lf %lf \0A\00", align 1
@.str.28 = private unnamed_addr constant [68 x i8] c"DEBUG graphics at cycle %d dx_global & dx_check_global %d %lf %lf \0A\00", align 1
@.str.29 = private unnamed_addr constant [67 x i8] c"DEBUG graphics at cycle %d y_global & y_check_global  %d %lf %lf \0A\00", align 1
@.str.30 = private unnamed_addr constant [68 x i8] c"DEBUG graphics at cycle %d dy_global & dy_check_global %d %lf %lf \0A\00", align 1
@.str.31 = private unnamed_addr constant [67 x i8] c"DEBUG graphics at cycle %d H_global & H_check_global  %d %lf %lf \0A\00", align 1
@.str.32 = private unnamed_addr constant [88 x i8] c"%d: DEBUG refine_potential 3 at cycle %d cell %d mpot_global & mpot_save_global %d %d \0A\00", align 1
@_ZZN4Mesh10rezone_allEiiSt6vectorIiSaIiEEiR10MallocPlusE13celltype_save = internal global %"class.std::vector" zeroinitializer, align 8
@_ZGVZN4Mesh10rezone_allEiiSt6vectorIiSaIiEEiR10MallocPlusE13celltype_save = internal global i64 0, align 8
@__dso_handle = external hidden global i8
@_ZZN4Mesh10rezone_allEiiSt6vectorIiSaIiEEiR10MallocPlusE10new_ncells = internal unnamed_addr global i32 0, align 4
@_ZZN4Mesh10rezone_allEiiSt6vectorIiSaIiEEiR10MallocPlusE5i_old = internal global ptr null, align 8
@_ZZN4Mesh10rezone_allEiiSt6vectorIiSaIiEEiR10MallocPlusE5j_old = internal global ptr null, align 8
@_ZZN4Mesh10rezone_allEiiSt6vectorIiSaIiEEiR10MallocPlusE9level_old = internal global ptr null, align 8
@_ZZN4Mesh10rezone_allEiiSt6vectorIiSaIiEEiR10MallocPlusE6new_ic = internal global %"class.std::vector" zeroinitializer, align 8
@_ZGVZN4Mesh10rezone_allEiiSt6vectorIiSaIiEEiR10MallocPlusE6new_ic = internal global i64 0, align 8
@.str.33 = private unnamed_addr constant [6 x i8] c"i_old\00", align 1
@.str.34 = private unnamed_addr constant [6 x i8] c"j_old\00", align 1
@.str.35 = private unnamed_addr constant [10 x i8] c"level_old\00", align 1
@_ZZN4Mesh10rezone_allEiiSt6vectorIiSaIiEEiR10MallocPlusE5order = internal global %"class.std::vector" zeroinitializer, align 8
@_ZGVZN4Mesh10rezone_allEiiSt6vectorIiSaIiEEiR10MallocPlusE5order = internal global i64 0, align 8
@.str.36 = private unnamed_addr constant [18 x i8] c"state_temp_double\00", align 1
@.str.37 = private unnamed_addr constant [17 x i8] c"state_temp_float\00", align 1
@_ZZN4Mesh10rezone_allEiiSt6vectorIiSaIiEEiR10MallocPlusE8nlft_old = internal global ptr null, align 8
@_ZZN4Mesh10rezone_allEiiSt6vectorIiSaIiEEiR10MallocPlusE8nrht_old = internal global ptr null, align 8
@_ZZN4Mesh10rezone_allEiiSt6vectorIiSaIiEEiR10MallocPlusE8nbot_old = internal global ptr null, align 8
@_ZZN4Mesh10rezone_allEiiSt6vectorIiSaIiEEiR10MallocPlusE8ntop_old = internal global ptr null, align 8
@.str.38 = private unnamed_addr constant [9 x i8] c"nlft_old\00", align 1
@.str.39 = private unnamed_addr constant [9 x i8] c"nrht_old\00", align 1
@.str.40 = private unnamed_addr constant [9 x i8] c"nbot_old\00", align 1
@.str.41 = private unnamed_addr constant [9 x i8] c"ntop_old\00", align 1
@_ZZN4Mesh14calc_neighborsEiE9nlft_size = internal unnamed_addr global i32 0, align 4
@.str.42 = private unnamed_addr constant [5 x i8] c"nlft\00", align 1
@.str.43 = private unnamed_addr constant [5 x i8] c"nrht\00", align 1
@.str.44 = private unnamed_addr constant [5 x i8] c"nbot\00", align 1
@.str.45 = private unnamed_addr constant [5 x i8] c"ntop\00", align 1
@write_hash = external local_unnamed_addr global ptr, align 8
@read_hash = external local_unnamed_addr global ptr, align 8
@_ZZN4Mesh20calc_neighbors_localEvE4hash = internal unnamed_addr global ptr null, align 8
@_ZZN4Mesh20calc_neighbors_localEvE8imaxcalc = internal unnamed_addr global i32 0, align 4
@_ZZN4Mesh20calc_neighbors_localEvE8jmaxcalc = internal unnamed_addr global i32 0, align 4
@.str.47 = private unnamed_addr constant [21 x i8] c"hash table size %ld\0A\00", align 1
@.str.49 = private unnamed_addr constant [9 x i8] c"celltype\00", align 1
@.str.50 = private unnamed_addr constant [2 x i8] c"i\00", align 1
@.str.51 = private unnamed_addr constant [2 x i8] c"j\00", align 1
@.str.52 = private unnamed_addr constant [6 x i8] c"level\00", align 1
@.str.54 = private unnamed_addr constant [21 x i8] c"Dimensionality : %d\0A\00", align 1
@.str.55 = private unnamed_addr constant [58 x i8] c"Parallel info  : mype %d numpe %d noffset %d parallel %d\0A\00", align 1
@.str.56 = private unnamed_addr constant [47 x i8] c"Sizes          : ncells %ld ncells_ghost %ld\0A\0A\00", align 1
@.str.57 = private unnamed_addr constant [52 x i8] c"vector celltype  ptr : %p nelements %ld elsize %ld\0A\00", align 1
@.str.58 = private unnamed_addr constant [52 x i8] c"vector level     ptr : %p nelements %ld elsize %ld\0A\00", align 1
@.str.59 = private unnamed_addr constant [52 x i8] c"vector i         ptr : %p nelements %ld elsize %ld\0A\00", align 1
@.str.60 = private unnamed_addr constant [52 x i8] c"vector j         ptr : %p nelements %ld elsize %ld\0A\00", align 1
@.str.61 = private unnamed_addr constant [52 x i8] c"vector nlft      ptr : %p nelements %ld elsize %ld\0A\00", align 1
@.str.62 = private unnamed_addr constant [52 x i8] c"vector nrht      ptr : %p nelements %ld elsize %ld\0A\00", align 1
@.str.63 = private unnamed_addr constant [52 x i8] c"vector nbot      ptr : %p nelements %ld elsize %ld\0A\00", align 1
@.str.64 = private unnamed_addr constant [52 x i8] c"vector ntop      ptr : %p nelements %ld elsize %ld\0A\00", align 1
@localStencil = external local_unnamed_addr global i8, align 1
@.str.66 = private unnamed_addr constant [105 x i8] c"/usr/local/google/home/aeubanks/repos/test-suite/MultiSource/Benchmarks/DOE-ProxyApps-C++/CLAMR/mesh.cpp\00", align 1
@.str.67 = private unnamed_addr constant [35 x i8] c"DEBUG -- x face_flag for level %d\0A\00", align 1
@.str.68 = private unnamed_addr constant [38 x i8] c"DEBUG -- sizes isize+1 %d jsize+1 %d\0A\00", align 1
@.str.69 = private unnamed_addr constant [28 x i8] c"                           \00", align 1
@.str.70 = private unnamed_addr constant [6 x i8] c" %4d \00", align 1
@.str.72 = private unnamed_addr constant [27 x i8] c"DEBUG -- j  %4d:          \00", align 1
@.str.73 = private unnamed_addr constant [7 x i8] c"      \00", align 1
@.str.74 = private unnamed_addr constant [35 x i8] c"DEBUG -- y face_flag for level %d\0A\00", align 1
@.str.75 = private unnamed_addr constant [11 x i8] c"          \00", align 1
@.str.76 = private unnamed_addr constant [19 x i8] c"CPU: %.*s%-30.30s\09\00", align 1
@reltable._ZN4Mesh12timer_outputE11mesh_timers17mesh_device_typesi = internal unnamed_addr constant [24 x i32] [i32 trunc (i64 sub (i64 ptrtoint (ptr @.str.113 to i64), i64 ptrtoint (ptr @reltable._ZN4Mesh12timer_outputE11mesh_timers17mesh_device_typesi to i64)) to i32), i32 trunc (i64 sub (i64 ptrtoint (ptr @.str.114 to i64), i64 ptrtoint (ptr @reltable._ZN4Mesh12timer_outputE11mesh_timers17mesh_device_typesi to i64)) to i32), i32 trunc (i64 sub (i64 ptrtoint (ptr @.str.115 to i64), i64 ptrtoint (ptr @reltable._ZN4Mesh12timer_outputE11mesh_timers17mesh_device_typesi to i64)) to i32), i32 trunc (i64 sub (i64 ptrtoint (ptr @.str.116 to i64), i64 ptrtoint (ptr @reltable._ZN4Mesh12timer_outputE11mesh_timers17mesh_device_typesi to i64)) to i32), i32 trunc (i64 sub (i64 ptrtoint (ptr @.str.117 to i64), i64 ptrtoint (ptr @reltable._ZN4Mesh12timer_outputE11mesh_timers17mesh_device_typesi to i64)) to i32), i32 trunc (i64 sub (i64 ptrtoint (ptr @.str.118 to i64), i64 ptrtoint (ptr @reltable._ZN4Mesh12timer_outputE11mesh_timers17mesh_device_typesi to i64)) to i32), i32 trunc (i64 sub (i64 ptrtoint (ptr @.str.119 to i64), i64 ptrtoint (ptr @reltable._ZN4Mesh12timer_outputE11mesh_timers17mesh_device_typesi to i64)) to i32), i32 trunc (i64 sub (i64 ptrtoint (ptr @.str.120 to i64), i64 ptrtoint (ptr @reltable._ZN4Mesh12timer_outputE11mesh_timers17mesh_device_typesi to i64)) to i32), i32 trunc (i64 sub (i64 ptrtoint (ptr @.str.121 to i64), i64 ptrtoint (ptr @reltable._ZN4Mesh12timer_outputE11mesh_timers17mesh_device_typesi to i64)) to i32), i32 trunc (i64 sub (i64 ptrtoint (ptr @.str.122 to i64), i64 ptrtoint (ptr @reltable._ZN4Mesh12timer_outputE11mesh_timers17mesh_device_typesi to i64)) to i32), i32 trunc (i64 sub (i64 ptrtoint (ptr @.str.123 to i64), i64 ptrtoint (ptr @reltable._ZN4Mesh12timer_outputE11mesh_timers17mesh_device_typesi to i64)) to i32), i32 trunc (i64 sub (i64 ptrtoint (ptr @.str.124 to i64), i64 ptrtoint (ptr @reltable._ZN4Mesh12timer_outputE11mesh_timers17mesh_device_typesi to i64)) to i32), i32 trunc (i64 sub (i64 ptrtoint (ptr @.str.125 to i64), i64 ptrtoint (ptr @reltable._ZN4Mesh12timer_outputE11mesh_timers17mesh_device_typesi to i64)) to i32), i32 trunc (i64 sub (i64 ptrtoint (ptr @.str.126 to i64), i64 ptrtoint (ptr @reltable._ZN4Mesh12timer_outputE11mesh_timers17mesh_device_typesi to i64)) to i32), i32 trunc (i64 sub (i64 ptrtoint (ptr @.str.127 to i64), i64 ptrtoint (ptr @reltable._ZN4Mesh12timer_outputE11mesh_timers17mesh_device_typesi to i64)) to i32), i32 trunc (i64 sub (i64 ptrtoint (ptr @.str.128 to i64), i64 ptrtoint (ptr @reltable._ZN4Mesh12timer_outputE11mesh_timers17mesh_device_typesi to i64)) to i32), i32 trunc (i64 sub (i64 ptrtoint (ptr @.str.129 to i64), i64 ptrtoint (ptr @reltable._ZN4Mesh12timer_outputE11mesh_timers17mesh_device_typesi to i64)) to i32), i32 trunc (i64 sub (i64 ptrtoint (ptr @.str.130 to i64), i64 ptrtoint (ptr @reltable._ZN4Mesh12timer_outputE11mesh_timers17mesh_device_typesi to i64)) to i32), i32 trunc (i64 sub (i64 ptrtoint (ptr @.str.131 to i64), i64 ptrtoint (ptr @reltable._ZN4Mesh12timer_outputE11mesh_timers17mesh_device_typesi to i64)) to i32), i32 trunc (i64 sub (i64 ptrtoint (ptr @.str.132 to i64), i64 ptrtoint (ptr @reltable._ZN4Mesh12timer_outputE11mesh_timers17mesh_device_typesi to i64)) to i32), i32 trunc (i64 sub (i64 ptrtoint (ptr @.str.133 to i64), i64 ptrtoint (ptr @reltable._ZN4Mesh12timer_outputE11mesh_timers17mesh_device_typesi to i64)) to i32), i32 trunc (i64 sub (i64 ptrtoint (ptr @.str.134 to i64), i64 ptrtoint (ptr @reltable._ZN4Mesh12timer_outputE11mesh_timers17mesh_device_typesi to i64)) to i32), i32 trunc (i64 sub (i64 ptrtoint (ptr @.str.135 to i64), i64 ptrtoint (ptr @reltable._ZN4Mesh12timer_outputE11mesh_timers17mesh_device_typesi to i64)) to i32), i32 trunc (i64 sub (i64 ptrtoint (ptr @.str.136 to i64), i64 ptrtoint (ptr @reltable._ZN4Mesh12timer_outputE11mesh_timers17mesh_device_typesi to i64)) to i32)], align 4
@.str.77 = private unnamed_addr constant [19 x i8] c"GPU: %.*s%-30.30s\09\00", align 1
@.str.78 = private unnamed_addr constant [2 x i8] c"s\00", align 1
@.str.79 = private unnamed_addr constant [4 x i8] c"%s\09\00", align 1
@.str.80 = private unnamed_addr constant [11 x i8] c"%.*s%8.4f\09\00", align 1
@.str.82 = private unnamed_addr constant [51 x i8] c"%.*s%8.4f\09%.*s%8.4f\09%.*s%8.4f   %s min/median/max\0A\00", align 1
@.str.83 = private unnamed_addr constant [12 x i8] c"%.*s%10lld\09\00", align 1
@.str.84 = private unnamed_addr constant [54 x i8] c"%.*s%10lld\09%.*s%10lld\09%.*s%10lld   %s min/median/max\0A\00", align 1
@.str.85 = private unnamed_addr constant [10 x i8] c"%.*s%10d\09\00", align 1
@.str.86 = private unnamed_addr constant [48 x i8] c"%.*s%10d\09%.*s%10d\09%.*s%10d   %s min/median/max\0A\00", align 1
@.str.87 = private unnamed_addr constant [8 x i8] c"storage\00", align 1
@.str.88 = private unnamed_addr constant [19 x i8] c"mesh_int_dist_vals\00", align 1
@.str.89 = private unnamed_addr constant [14 x i8] c"mesh_int_vals\00", align 1
@.str.90 = private unnamed_addr constant [17 x i8] c"mesh_double_vals\00", align 1
@.str.91 = private unnamed_addr constant [18 x i8] c"mesh_cpu_counters\00", align 1
@.str.92 = private unnamed_addr constant [18 x i8] c"mesh_gpu_counters\00", align 1
@.str.93 = private unnamed_addr constant [16 x i8] c"mesh_cpu_timers\00", align 1
@.str.94 = private unnamed_addr constant [16 x i8] c"mesh_gpu_timers\00", align 1
@.str.95 = private unnamed_addr constant [83 x i8] c"CRUX version mismatch for mesh data, version on file is %d, version in code is %d\0A\00", align 1
@.str.96 = private unnamed_addr constant [7 x i8] c"ncells\00", align 1
@.str.97 = private unnamed_addr constant [13 x i8] c"ncells_ghost\00", align 1
@.str.98 = private unnamed_addr constant [20 x i8] c"offtile_local_count\00", align 1
@.str.99 = private unnamed_addr constant [18 x i8] c"CRUX_MESH_VERSION\00", align 1
@.str.100 = private unnamed_addr constant [5 x i8] c"ndim\00", align 1
@.str.101 = private unnamed_addr constant [6 x i8] c"levmx\00", align 1
@.str.103 = private unnamed_addr constant [17 x i8] c"       %-30s %d\0A\00", align 1
@.str.105 = private unnamed_addr constant [20 x i8] c"offtile_ratio_local\00", align 1
@.str.107 = private unnamed_addr constant [18 x i8] c"       %-30s %lf\0A\00", align 1
@.str.112 = private unnamed_addr constant [19 x i8] c"       %-30s %lld\0A\00", align 1
@.str.113 = private unnamed_addr constant [21 x i8] c"mesh_timer_count_BCs\00", align 1
@.str.114 = private unnamed_addr constant [26 x i8] c"mesh_timer_calc_neighbors\00", align 1
@.str.115 = private unnamed_addr constant [22 x i8] c"mesh_timer_hash_setup\00", align 1
@.str.116 = private unnamed_addr constant [22 x i8] c"mesh_timer_hash_query\00", align 1
@.str.117 = private unnamed_addr constant [25 x i8] c"mesh_timer_find_boundary\00", align 1
@.str.118 = private unnamed_addr constant [22 x i8] c"mesh_timer_push_setup\00", align 1
@.str.119 = private unnamed_addr constant [25 x i8] c"mesh_timer_push_boundary\00", align 1
@.str.120 = private unnamed_addr constant [22 x i8] c"mesh_timer_local_list\00", align 1
@.str.121 = private unnamed_addr constant [18 x i8] c"mesh_timer_layer1\00", align 1
@.str.122 = private unnamed_addr constant [18 x i8] c"mesh_timer_layer2\00", align 1
@.str.123 = private unnamed_addr constant [22 x i8] c"mesh_timer_layer_list\00", align 1
@.str.124 = private unnamed_addr constant [26 x i8] c"mesh_timer_copy_mesh_data\00", align 1
@.str.125 = private unnamed_addr constant [27 x i8] c"mesh_timer_fill_mesh_ghost\00", align 1
@.str.126 = private unnamed_addr constant [28 x i8] c"mesh_timer_fill_neigh_ghost\00", align 1
@.str.127 = private unnamed_addr constant [28 x i8] c"mesh_timer_set_corner_neigh\00", align 1
@.str.128 = private unnamed_addr constant [24 x i8] c"mesh_timer_neigh_adjust\00", align 1
@.str.129 = private unnamed_addr constant [22 x i8] c"mesh_timer_setup_comm\00", align 1
@.str.130 = private unnamed_addr constant [24 x i8] c"mesh_timer_kdtree_setup\00", align 1
@.str.131 = private unnamed_addr constant [24 x i8] c"mesh_timer_kdtree_query\00", align 1
@.str.132 = private unnamed_addr constant [25 x i8] c"mesh_timer_refine_smooth\00", align 1
@.str.133 = private unnamed_addr constant [22 x i8] c"mesh_timer_rezone_all\00", align 1
@.str.134 = private unnamed_addr constant [21 x i8] c"mesh_timer_partition\00", align 1
@.str.135 = private unnamed_addr constant [36 x i8] c"mesh_timer_calc_spatial_coordinates\00", align 1
@.str.136 = private unnamed_addr constant [24 x i8] c"mesh_timer_load_balance\00", align 1
@.str.137 = private unnamed_addr constant [20 x i8] c"mesh_counter_rezone\00", align 1
@.str.138 = private unnamed_addr constant [27 x i8] c"mesh_counter_refine_smooth\00", align 1
@.str.139 = private unnamed_addr constant [24 x i8] c"mesh_counter_calc_neigh\00", align 1
@.str.140 = private unnamed_addr constant [26 x i8] c"mesh_counter_load_balance\00", align 1
@.str.141 = private unnamed_addr constant [26 x i8] c"vector::_M_default_append\00", align 1
@.str.142 = private unnamed_addr constant [49 x i8] c"cannot create std::vector larger than max_size()\00", align 1
@.str.143 = private unnamed_addr constant [26 x i8] c"vector::_M_realloc_insert\00", align 1
@.str.144 = private unnamed_addr constant [23 x i8] c"vector::_M_fill_insert\00", align 1
@str = private unnamed_addr constant [94 x i8] c"index orig index   i     j     lev   nlft  nrht  nbot  ntop   xlow    xhigh     ylow    yhigh\00", align 1
@str.145 = private unnamed_addr constant [52 x i8] c"Error -- cells read does not match number specified\00", align 1
@str.146 = private unnamed_addr constant [31 x i8] c"Nonlocal case for the stencil.\00", align 1
@str.147 = private unnamed_addr constant [38 x i8] c"Using k-D tree to calculate neighbors\00", align 1
@str.148 = private unnamed_addr constant [41 x i8] c"Using hash tables to calculate neighbors\00", align 1
@str.149 = private unnamed_addr constant [29 x i8] c" ---- Mesh object info -----\00", align 1
@str.151 = private unnamed_addr constant [40 x i8] c"       === Restored mesh gpu timers ===\00", align 1
@str.153 = private unnamed_addr constant [40 x i8] c"       === Restored mesh cpu timers ===\00", align 1
@str.155 = private unnamed_addr constant [42 x i8] c"       === Restored mesh cpu counters ===\00", align 1
@str.157 = private unnamed_addr constant [42 x i8] c"       === Restored mesh gpu counters ===\00", align 1
@str.159 = private unnamed_addr constant [41 x i8] c"       === Restored mesh double_vals ===\00", align 1
@str.160 = private unnamed_addr constant [43 x i8] c"       === Restored mesh int_dist_vals ===\00", align 1
@str.162 = private unnamed_addr constant [38 x i8] c"       === Restored mesh int_vals ===\00", align 1

@_ZN4MeshC1EP8_IO_FILEPi = dso_local unnamed_addr alias void (ptr, ptr, ptr), ptr @_ZN4MeshC2EP8_IO_FILEPi
@_ZN4MeshC1Eiiiiddiii = dso_local unnamed_addr alias void (ptr, i32, i32, i32, i32, double, double, i32, i32, i32), ptr @_ZN4MeshC2Eiiiiddiii

; Function Attrs: mustprogress nofree nounwind uwtable
define dso_local void @_ZN4Mesh10write_gridEi(ptr nocapture noundef nonnull readonly align 8 dereferenceable(2288) %0, i32 noundef %1) local_unnamed_addr #0 align 2 {
  %3 = alloca [20 x i8], align 16
  call void @llvm.lifetime.start.p0(i64 20, ptr nonnull %3) #31
  %4 = tail call i32 @llvm.smax.i32(i32 %1, i32 0)
  %5 = call i32 (ptr, ptr, ...) @sprintf(ptr noundef nonnull dereferenceable(1) %3, ptr noundef nonnull dereferenceable(1) @.str, i32 noundef %4) #31
  %6 = call noalias ptr @fopen(ptr noundef nonnull %3, ptr noundef nonnull @.str.1)
  %7 = getelementptr inbounds %class.Mesh, ptr %0, i64 0, i32 48
  %8 = load double, ptr %7, align 8, !tbaa !5
  %9 = getelementptr inbounds %class.Mesh, ptr %0, i64 0, i32 50
  %10 = load double, ptr %9, align 8, !tbaa !40
  %11 = getelementptr inbounds %class.Mesh, ptr %0, i64 0, i32 49
  %12 = load double, ptr %11, align 8, !tbaa !41
  %13 = getelementptr inbounds %class.Mesh, ptr %0, i64 0, i32 51
  %14 = load double, ptr %13, align 8, !tbaa !42
  %15 = tail call i32 (ptr, ptr, ...) @fprintf(ptr noundef %6, ptr noundef nonnull @.str.2, double noundef %8, double noundef %10, double noundef %12, double noundef %14)
  %16 = getelementptr inbounds %class.Mesh, ptr %0, i64 0, i32 45
  %17 = load i64, ptr %16, align 8, !tbaa !43
  %18 = icmp eq i64 %17, 0
  br i1 %18, label %24, label %19

19:                                               ; preds = %2
  %20 = getelementptr inbounds %class.Mesh, ptr %0, i64 0, i32 75
  %21 = getelementptr inbounds %class.Mesh, ptr %0, i64 0, i32 77
  %22 = getelementptr inbounds %class.Mesh, ptr %0, i64 0, i32 76
  %23 = getelementptr inbounds %class.Mesh, ptr %0, i64 0, i32 78
  br label %44

24:                                               ; preds = %44, %2
  %25 = getelementptr inbounds %class.Mesh, ptr %0, i64 0, i32 75
  %26 = load ptr, ptr %25, align 8, !tbaa !44
  %27 = load double, ptr %26, align 8, !tbaa !45
  %28 = getelementptr inbounds %class.Mesh, ptr %0, i64 0, i32 76
  %29 = load ptr, ptr %28, align 8, !tbaa !44
  %30 = load double, ptr %29, align 8, !tbaa !45
  %31 = fmul double %30, 5.000000e-01
  %32 = fadd double %27, %31
  %33 = getelementptr inbounds %class.Mesh, ptr %0, i64 0, i32 77
  %34 = load ptr, ptr %33, align 8, !tbaa !44
  %35 = load double, ptr %34, align 8, !tbaa !45
  %36 = getelementptr inbounds %class.Mesh, ptr %0, i64 0, i32 78
  %37 = load ptr, ptr %36, align 8, !tbaa !44
  %38 = load double, ptr %37, align 8, !tbaa !45
  %39 = fmul double %38, 5.000000e-01
  %40 = fadd double %35, %39
  %41 = tail call i32 (ptr, ptr, ...) @fprintf(ptr noundef %6, ptr noundef nonnull @.str.4, double noundef %32, double noundef %40)
  %42 = load i64, ptr %16, align 8, !tbaa !43
  %43 = icmp ugt i64 %42, 1
  br i1 %43, label %68, label %65

44:                                               ; preds = %19, %44
  %45 = phi i64 [ 0, %19 ], [ %62, %44 ]
  %46 = load ptr, ptr %20, align 8, !tbaa !44
  %47 = getelementptr inbounds double, ptr %46, i64 %45
  %48 = load double, ptr %47, align 8, !tbaa !45
  %49 = load ptr, ptr %21, align 8, !tbaa !44
  %50 = getelementptr inbounds double, ptr %49, i64 %45
  %51 = load double, ptr %50, align 8, !tbaa !45
  %52 = load ptr, ptr %22, align 8, !tbaa !44
  %53 = getelementptr inbounds double, ptr %52, i64 %45
  %54 = load double, ptr %53, align 8, !tbaa !45
  %55 = fadd double %48, %54
  %56 = load ptr, ptr %23, align 8, !tbaa !44
  %57 = getelementptr inbounds double, ptr %56, i64 %45
  %58 = load double, ptr %57, align 8, !tbaa !45
  %59 = fadd double %51, %58
  %60 = tail call i32 (ptr, ptr, ...) @fprintf(ptr noundef %6, ptr noundef nonnull @.str.3, double noundef %48, double noundef %51, double noundef %55, double noundef %59)
  %61 = add nuw nsw i64 %45, 1
  %62 = and i64 %61, 4294967295
  %63 = load i64, ptr %16, align 8, !tbaa !43
  %64 = icmp ugt i64 %63, %62
  br i1 %64, label %44, label %24, !llvm.loop !46

65:                                               ; preds = %68, %24
  %66 = phi i64 [ %42, %24 ], [ %89, %68 ]
  %67 = icmp eq i64 %66, 0
  br i1 %67, label %91, label %93

68:                                               ; preds = %24, %68
  %69 = phi i64 [ %88, %68 ], [ 1, %24 ]
  %70 = load ptr, ptr %25, align 8, !tbaa !44
  %71 = getelementptr inbounds double, ptr %70, i64 %69
  %72 = load double, ptr %71, align 8, !tbaa !45
  %73 = load ptr, ptr %28, align 8, !tbaa !44
  %74 = getelementptr inbounds double, ptr %73, i64 %69
  %75 = load double, ptr %74, align 8, !tbaa !45
  %76 = fmul double %75, 5.000000e-01
  %77 = fadd double %72, %76
  %78 = load ptr, ptr %33, align 8, !tbaa !44
  %79 = getelementptr inbounds double, ptr %78, i64 %69
  %80 = load double, ptr %79, align 8, !tbaa !45
  %81 = load ptr, ptr %36, align 8, !tbaa !44
  %82 = getelementptr inbounds double, ptr %81, i64 %69
  %83 = load double, ptr %82, align 8, !tbaa !45
  %84 = fmul double %83, 5.000000e-01
  %85 = fadd double %80, %84
  %86 = tail call i32 (ptr, ptr, ...) @fprintf(ptr noundef %6, ptr noundef nonnull @.str.5, double noundef %77, double noundef %85)
  %87 = add nuw nsw i64 %69, 1
  %88 = and i64 %87, 4294967295
  %89 = load i64, ptr %16, align 8, !tbaa !43
  %90 = icmp ugt i64 %89, %88
  br i1 %90, label %68, label %65, !llvm.loop !48

91:                                               ; preds = %93, %65
  %92 = tail call i32 @fclose(ptr noundef %6)
  call void @llvm.lifetime.end.p0(i64 20, ptr nonnull %3) #31
  ret void

93:                                               ; preds = %65, %93
  %94 = phi i64 [ %114, %93 ], [ 0, %65 ]
  %95 = trunc i64 %94 to i32
  %96 = load ptr, ptr %25, align 8, !tbaa !44
  %97 = getelementptr inbounds double, ptr %96, i64 %94
  %98 = load double, ptr %97, align 8, !tbaa !45
  %99 = load ptr, ptr %28, align 8, !tbaa !44
  %100 = getelementptr inbounds double, ptr %99, i64 %94
  %101 = load double, ptr %100, align 8, !tbaa !45
  %102 = fmul double %101, 5.000000e-01
  %103 = fadd double %98, %102
  %104 = load ptr, ptr %33, align 8, !tbaa !44
  %105 = getelementptr inbounds double, ptr %104, i64 %94
  %106 = load double, ptr %105, align 8, !tbaa !45
  %107 = load ptr, ptr %36, align 8, !tbaa !44
  %108 = getelementptr inbounds double, ptr %107, i64 %94
  %109 = load double, ptr %108, align 8, !tbaa !45
  %110 = fmul double %109, 5.000000e-01
  %111 = fadd double %106, %110
  %112 = tail call i32 (ptr, ptr, ...) @fprintf(ptr noundef %6, ptr noundef nonnull @.str.6, double noundef %103, double noundef %111, i32 noundef %95)
  %113 = add nuw nsw i64 %94, 1
  %114 = and i64 %113, 4294967295
  %115 = load i64, ptr %16, align 8, !tbaa !43
  %116 = icmp ugt i64 %115, %114
  br i1 %116, label %93, label %91, !llvm.loop !49
}

; Function Attrs: mustprogress nocallback nofree nosync nounwind willreturn memory(argmem: readwrite)
declare void @llvm.lifetime.start.p0(i64 immarg, ptr nocapture) #1

; Function Attrs: nofree nounwind
declare noundef i32 @sprintf(ptr noalias nocapture noundef writeonly, ptr nocapture noundef readonly, ...) local_unnamed_addr #2

; Function Attrs: nofree nounwind
declare noalias noundef ptr @fopen(ptr nocapture noundef readonly, ptr nocapture noundef readonly) local_unnamed_addr #2

; Function Attrs: nofree nounwind
declare noundef i32 @fprintf(ptr nocapture noundef, ptr nocapture noundef readonly, ...) local_unnamed_addr #2

; Function Attrs: mustprogress nocallback nofree nosync nounwind willreturn memory(argmem: readwrite)
declare void @llvm.lifetime.end.p0(i64 immarg, ptr nocapture) #1

; Function Attrs: nofree nounwind
declare noundef i32 @fclose(ptr nocapture noundef) local_unnamed_addr #2

; Function Attrs: uwtable
define dso_local void @_ZN4MeshC2EP8_IO_FILEPi(ptr noundef nonnull align 8 dereferenceable(2288) %0, ptr nocapture noundef %1, ptr noundef %2) unnamed_addr #3 align 2 personality ptr @__gxx_personality_v0 {
  %4 = alloca [80 x i8], align 16
  %5 = alloca i64, align 8
  %6 = getelementptr inbounds %class.Mesh, ptr %0, i64 0, i32 1, i32 0, i32 0, i32 0, i32 1
  store i32 0, ptr %6, align 8, !tbaa !50
  %7 = getelementptr inbounds %class.Mesh, ptr %0, i64 0, i32 1, i32 0, i32 0, i32 0, i32 1, i32 0, i32 1
  store ptr null, ptr %7, align 8, !tbaa !51
  %8 = getelementptr inbounds %class.Mesh, ptr %0, i64 0, i32 1, i32 0, i32 0, i32 0, i32 1, i32 0, i32 2
  store ptr %6, ptr %8, align 8, !tbaa !52
  %9 = getelementptr inbounds %class.Mesh, ptr %0, i64 0, i32 1, i32 0, i32 0, i32 0, i32 1, i32 0, i32 3
  store ptr %6, ptr %9, align 8, !tbaa !53
  %10 = getelementptr inbounds %class.Mesh, ptr %0, i64 0, i32 1, i32 0, i32 0, i32 0, i32 1, i32 1
  store i64 0, ptr %10, align 8, !tbaa !54
  %11 = getelementptr inbounds %class.Mesh, ptr %0, i64 0, i32 1, i32 1, i32 0, i32 0, i32 1
  store i32 0, ptr %11, align 8, !tbaa !50
  %12 = getelementptr inbounds %class.Mesh, ptr %0, i64 0, i32 1, i32 1, i32 0, i32 0, i32 1, i32 0, i32 1
  store ptr null, ptr %12, align 8, !tbaa !51
  %13 = getelementptr inbounds %class.Mesh, ptr %0, i64 0, i32 1, i32 1, i32 0, i32 0, i32 1, i32 0, i32 2
  store ptr %11, ptr %13, align 8, !tbaa !52
  %14 = getelementptr inbounds %class.Mesh, ptr %0, i64 0, i32 1, i32 1, i32 0, i32 0, i32 1, i32 0, i32 3
  store ptr %11, ptr %14, align 8, !tbaa !53
  %15 = getelementptr inbounds %class.Mesh, ptr %0, i64 0, i32 1, i32 1, i32 0, i32 0, i32 1, i32 1
  store i64 0, ptr %15, align 8, !tbaa !54
  %16 = getelementptr inbounds %class.Mesh, ptr %0, i64 0, i32 2, i32 0, i32 0, i32 0, i32 1
  store i32 0, ptr %16, align 8, !tbaa !50
  %17 = getelementptr inbounds %class.Mesh, ptr %0, i64 0, i32 2, i32 0, i32 0, i32 0, i32 1, i32 0, i32 1
  store ptr null, ptr %17, align 8, !tbaa !51
  %18 = getelementptr inbounds %class.Mesh, ptr %0, i64 0, i32 2, i32 0, i32 0, i32 0, i32 1, i32 0, i32 2
  store ptr %16, ptr %18, align 8, !tbaa !52
  %19 = getelementptr inbounds %class.Mesh, ptr %0, i64 0, i32 2, i32 0, i32 0, i32 0, i32 1, i32 0, i32 3
  store ptr %16, ptr %19, align 8, !tbaa !53
  %20 = getelementptr inbounds %class.Mesh, ptr %0, i64 0, i32 2, i32 0, i32 0, i32 0, i32 1, i32 1
  store i64 0, ptr %20, align 8, !tbaa !54
  %21 = getelementptr inbounds %class.Mesh, ptr %0, i64 0, i32 2, i32 1, i32 0, i32 0, i32 1
  store i32 0, ptr %21, align 8, !tbaa !50
  %22 = getelementptr inbounds %class.Mesh, ptr %0, i64 0, i32 2, i32 1, i32 0, i32 0, i32 1, i32 0, i32 1
  store ptr null, ptr %22, align 8, !tbaa !51
  %23 = getelementptr inbounds %class.Mesh, ptr %0, i64 0, i32 2, i32 1, i32 0, i32 0, i32 1, i32 0, i32 2
  store ptr %21, ptr %23, align 8, !tbaa !52
  %24 = getelementptr inbounds %class.Mesh, ptr %0, i64 0, i32 2, i32 1, i32 0, i32 0, i32 1, i32 0, i32 3
  store ptr %21, ptr %24, align 8, !tbaa !53
  %25 = getelementptr inbounds %class.Mesh, ptr %0, i64 0, i32 2, i32 1, i32 0, i32 0, i32 1, i32 1
  store i64 0, ptr %25, align 8, !tbaa !54
  %26 = getelementptr inbounds %class.Mesh, ptr %0, i64 0, i32 19
  %27 = getelementptr inbounds %class.Mesh, ptr %0, i64 0, i32 20
  %28 = getelementptr inbounds %class.Mesh, ptr %0, i64 0, i32 21
  %29 = getelementptr inbounds %class.Mesh, ptr %0, i64 0, i32 22
  %30 = getelementptr inbounds %class.Mesh, ptr %0, i64 0, i32 25
  %31 = getelementptr inbounds %class.Mesh, ptr %0, i64 0, i32 26
  %32 = getelementptr inbounds %class.Mesh, ptr %0, i64 0, i32 27
  %33 = getelementptr inbounds %class.Mesh, ptr %0, i64 0, i32 28
  %34 = getelementptr inbounds %class.Mesh, ptr %0, i64 0, i32 29
  %35 = getelementptr inbounds %class.Mesh, ptr %0, i64 0, i32 30
  %36 = getelementptr inbounds %class.Mesh, ptr %0, i64 0, i32 31
  %37 = getelementptr inbounds %class.Mesh, ptr %0, i64 0, i32 32
  %38 = getelementptr inbounds %class.Mesh, ptr %0, i64 0, i32 33
  %39 = getelementptr inbounds %class.Mesh, ptr %0, i64 0, i32 34
  %40 = getelementptr inbounds %class.Mesh, ptr %0, i64 0, i32 35
  %41 = getelementptr inbounds %class.Mesh, ptr %0, i64 0, i32 63
  tail call void @llvm.memset.p0.i64(ptr noundef nonnull align 8 dereferenceable(24) %41, i8 0, i64 24, i1 false)
  %42 = getelementptr inbounds %class.Mesh, ptr %0, i64 0, i32 75
  %43 = getelementptr inbounds %class.Mesh, ptr %0, i64 0, i32 76
  %44 = getelementptr inbounds %class.Mesh, ptr %0, i64 0, i32 77
  %45 = getelementptr inbounds %class.Mesh, ptr %0, i64 0, i32 78
  %46 = getelementptr inbounds %class.Mesh, ptr %0, i64 0, i32 79
  %47 = getelementptr inbounds %class.Mesh, ptr %0, i64 0, i32 80
  %48 = getelementptr inbounds %class.Mesh, ptr %0, i64 0, i32 83
  %49 = getelementptr inbounds %class.Mesh, ptr %0, i64 0, i32 84
  %50 = getelementptr inbounds %class.Mesh, ptr %0, i64 0, i32 85
  %51 = getelementptr inbounds %class.Mesh, ptr %0, i64 0, i32 86
  %52 = getelementptr inbounds %class.Mesh, ptr %0, i64 0, i32 87
  %53 = getelementptr inbounds %class.Mesh, ptr %0, i64 0, i32 88
  %54 = getelementptr inbounds %class.Mesh, ptr %0, i64 0, i32 89
  %55 = getelementptr inbounds %class.Mesh, ptr %0, i64 0, i32 90
  %56 = getelementptr inbounds %class.Mesh, ptr %0, i64 0, i32 91
  %57 = getelementptr inbounds %class.Mesh, ptr %0, i64 0, i32 92
  %58 = getelementptr inbounds %class.Mesh, ptr %0, i64 0, i32 93
  %59 = getelementptr inbounds %class.Mesh, ptr %0, i64 0, i32 94
  %60 = getelementptr inbounds %class.Mesh, ptr %0, i64 0, i32 95
  %61 = getelementptr inbounds %class.Mesh, ptr %0, i64 0, i32 96
  %62 = getelementptr inbounds %class.Mesh, ptr %0, i64 0, i32 97
  %63 = getelementptr inbounds %class.Mesh, ptr %0, i64 0, i32 98
  %64 = getelementptr inbounds %class.Mesh, ptr %0, i64 0, i32 99
  %65 = getelementptr inbounds %class.Mesh, ptr %0, i64 0, i32 100
  %66 = getelementptr inbounds %class.Mesh, ptr %0, i64 0, i32 101
  %67 = getelementptr inbounds %class.Mesh, ptr %0, i64 0, i32 102
  %68 = getelementptr inbounds %class.Mesh, ptr %0, i64 0, i32 103
  %69 = getelementptr inbounds %class.Mesh, ptr %0, i64 0, i32 104
  %70 = getelementptr inbounds %class.Mesh, ptr %0, i64 0, i32 105
  %71 = getelementptr inbounds %class.Mesh, ptr %0, i64 0, i32 106
  %72 = getelementptr inbounds %class.Mesh, ptr %0, i64 0, i32 107
  %73 = getelementptr inbounds %class.Mesh, ptr %0, i64 0, i32 108
  %74 = getelementptr inbounds %class.Mesh, ptr %0, i64 0, i32 109
  %75 = getelementptr inbounds %class.Mesh, ptr %0, i64 0, i32 110
  %76 = getelementptr inbounds %class.Mesh, ptr %0, i64 0, i32 111
  %77 = getelementptr inbounds %class.Mesh, ptr %0, i64 0, i32 112
  tail call void @llvm.memset.p0.i64(ptr noundef nonnull align 8 dereferenceable(96) %26, i8 0, i64 96, i1 false)
  tail call void @llvm.memset.p0.i64(ptr noundef nonnull align 8 dereferenceable(264) %30, i8 0, i64 264, i1 false)
  tail call void @llvm.memset.p0.i64(ptr noundef nonnull align 8 dereferenceable(144) %42, i8 0, i64 144, i1 false)
  tail call void @llvm.memset.p0.i64(ptr noundef nonnull align 8 dereferenceable(720) %48, i8 0, i64 720, i1 false)
  call void @llvm.lifetime.start.p0(i64 80, ptr nonnull %4) #31
  %78 = getelementptr inbounds %class.Mesh, ptr %0, i64 0, i32 38
  store i32 1, ptr %78, align 8, !tbaa !55
  call void @llvm.lifetime.start.p0(i64 8, ptr nonnull %5) #31
  %79 = call i64 @time(ptr noundef nonnull %5) #31
  %80 = load i64, ptr %5, align 8, !tbaa !56
  call void @srand48(i64 noundef %80) #31
  %81 = call ptr @fgets(ptr noundef nonnull %4, i32 noundef 80, ptr noundef %1)
  %82 = icmp eq ptr %81, null
  br i1 %82, label %83, label %86

83:                                               ; preds = %3
  call void @exit(i32 noundef -1) #32
  unreachable

84:                                               ; preds = %160, %157, %153, %143
  %85 = landingpad { ptr, i32 }
          cleanup
  br label %195

86:                                               ; preds = %3
  %87 = getelementptr inbounds %class.Mesh, ptr %0, i64 0, i32 36
  %88 = call i32 (ptr, ptr, ...) @__isoc99_sscanf(ptr noundef nonnull %4, ptr noundef nonnull @.str.7, ptr noundef nonnull %87) #31
  %89 = call ptr @fgets(ptr noundef nonnull %4, i32 noundef 80, ptr noundef %1)
  %90 = icmp eq ptr %89, null
  br i1 %90, label %91, label %92

91:                                               ; preds = %86
  call void @exit(i32 noundef -1) #32
  unreachable

92:                                               ; preds = %86
  %93 = getelementptr inbounds %class.Mesh, ptr %0, i64 0, i32 45
  %94 = call i32 (ptr, ptr, ...) @__isoc99_sscanf(ptr noundef nonnull %4, ptr noundef nonnull @.str.8, ptr noundef nonnull %93) #31
  %95 = call ptr @fgets(ptr noundef nonnull %4, i32 noundef 80, ptr noundef %1)
  %96 = icmp eq ptr %95, null
  br i1 %96, label %97, label %98

97:                                               ; preds = %92
  call void @exit(i32 noundef -1) #32
  unreachable

98:                                               ; preds = %92
  %99 = call i32 (ptr, ptr, ...) @__isoc99_sscanf(ptr noundef nonnull %4, ptr noundef nonnull @.str.9, ptr noundef %2) #31
  %100 = call ptr @fgets(ptr noundef nonnull %4, i32 noundef 80, ptr noundef %1)
  %101 = icmp eq ptr %100, null
  br i1 %101, label %102, label %103

102:                                              ; preds = %98
  call void @exit(i32 noundef -1) #32
  unreachable

103:                                              ; preds = %98
  %104 = call i32 (ptr, ptr, ...) @__isoc99_sscanf(ptr noundef nonnull %4, ptr noundef nonnull @.str.10, ptr noundef nonnull %0) #31
  %105 = call ptr @fgets(ptr noundef nonnull %4, i32 noundef 80, ptr noundef %1)
  %106 = icmp eq ptr %105, null
  br i1 %106, label %107, label %108

107:                                              ; preds = %103
  call void @exit(i32 noundef -1) #32
  unreachable

108:                                              ; preds = %103
  %109 = getelementptr inbounds %class.Mesh, ptr %0, i64 0, i32 48
  %110 = getelementptr inbounds %class.Mesh, ptr %0, i64 0, i32 60
  %111 = call i32 (ptr, ptr, ...) @__isoc99_sscanf(ptr noundef nonnull %4, ptr noundef nonnull @.str.11, ptr noundef nonnull %109, ptr noundef nonnull %110) #31
  %112 = call ptr @fgets(ptr noundef nonnull %4, i32 noundef 80, ptr noundef %1)
  %113 = icmp eq ptr %112, null
  br i1 %113, label %114, label %115

114:                                              ; preds = %108
  call void @exit(i32 noundef -1) #32
  unreachable

115:                                              ; preds = %108
  %116 = getelementptr inbounds %class.Mesh, ptr %0, i64 0, i32 50
  %117 = getelementptr inbounds %class.Mesh, ptr %0, i64 0, i32 61
  %118 = call i32 (ptr, ptr, ...) @__isoc99_sscanf(ptr noundef nonnull %4, ptr noundef nonnull @.str.12, ptr noundef nonnull %116, ptr noundef nonnull %117) #31
  %119 = load i32, ptr %0, align 8, !tbaa !57
  %120 = icmp eq i32 %119, 3
  br i1 %120, label %121, label %129

121:                                              ; preds = %115
  %122 = call ptr @fgets(ptr noundef nonnull %4, i32 noundef 80, ptr noundef %1)
  %123 = icmp eq ptr %122, null
  br i1 %123, label %124, label %125

124:                                              ; preds = %121
  call void @exit(i32 noundef -1) #32
  unreachable

125:                                              ; preds = %121
  %126 = getelementptr inbounds %class.Mesh, ptr %0, i64 0, i32 52
  %127 = getelementptr inbounds %class.Mesh, ptr %0, i64 0, i32 62
  %128 = call i32 (ptr, ptr, ...) @__isoc99_sscanf(ptr noundef nonnull %4, ptr noundef nonnull @.str.13, ptr noundef nonnull %126, ptr noundef nonnull %127) #31
  br label %129

129:                                              ; preds = %125, %115
  %130 = call ptr @fgets(ptr noundef nonnull %4, i32 noundef 80, ptr noundef %1)
  %131 = icmp eq ptr %130, null
  br i1 %131, label %132, label %133

132:                                              ; preds = %129
  call void @exit(i32 noundef -1) #32
  unreachable

133:                                              ; preds = %129
  %134 = load i64, ptr %93, align 8, !tbaa !43
  %135 = getelementptr inbounds %class.Mesh, ptr %0, i64 0, i32 63, i32 0, i32 0, i32 0, i32 1
  %136 = load ptr, ptr %135, align 8, !tbaa !58
  %137 = load ptr, ptr %41, align 8, !tbaa !59
  %138 = ptrtoint ptr %136 to i64
  %139 = ptrtoint ptr %137 to i64
  %140 = sub i64 %138, %139
  %141 = ashr exact i64 %140, 2
  %142 = icmp ugt i64 %134, %141
  br i1 %142, label %143, label %147

143:                                              ; preds = %133
  %144 = sub i64 %134, %141
  invoke void @_ZNSt6vectorIiSaIiEE17_M_default_appendEm(ptr noundef nonnull align 8 dereferenceable(24) %41, i64 noundef %144)
          to label %145 unwind label %84

145:                                              ; preds = %143
  %146 = load i64, ptr %93, align 8, !tbaa !43
  br label %153

147:                                              ; preds = %133
  %148 = icmp ult i64 %134, %141
  br i1 %148, label %149, label %153

149:                                              ; preds = %147
  %150 = getelementptr inbounds i32, ptr %137, i64 %134
  %151 = icmp eq ptr %136, %150
  br i1 %151, label %153, label %152

152:                                              ; preds = %149
  store ptr %150, ptr %135, align 8, !tbaa !58
  br label %153

153:                                              ; preds = %145, %152, %149, %147
  %154 = phi i64 [ %146, %145 ], [ %134, %152 ], [ %134, %149 ], [ %134, %147 ]
  %155 = getelementptr inbounds %class.Mesh, ptr %0, i64 0, i32 1
  %156 = invoke noundef ptr @_ZN10MallocPlus13memory_mallocEmmPKci(ptr noundef nonnull align 8 dereferenceable(96) %155, i64 noundef %154, i64 noundef 4, ptr noundef nonnull @.str.50, i32 noundef 16)
          to label %157 unwind label %84

157:                                              ; preds = %153
  %158 = getelementptr inbounds %class.Mesh, ptr %0, i64 0, i32 64
  store ptr %156, ptr %158, align 8, !tbaa !60
  %159 = invoke noundef ptr @_ZN10MallocPlus13memory_mallocEmmPKci(ptr noundef nonnull align 8 dereferenceable(96) %155, i64 noundef %154, i64 noundef 4, ptr noundef nonnull @.str.51, i32 noundef 16)
          to label %160 unwind label %84

160:                                              ; preds = %157
  %161 = getelementptr inbounds %class.Mesh, ptr %0, i64 0, i32 65
  store ptr %159, ptr %161, align 8, !tbaa !61
  %162 = invoke noundef ptr @_ZN10MallocPlus13memory_mallocEmmPKci(ptr noundef nonnull align 8 dereferenceable(96) %155, i64 noundef %154, i64 noundef 4, ptr noundef nonnull @.str.52, i32 noundef 16)
          to label %163 unwind label %84

163:                                              ; preds = %160
  %164 = getelementptr inbounds %class.Mesh, ptr %0, i64 0, i32 67
  store ptr %162, ptr %164, align 8, !tbaa !62
  %165 = call ptr @fgets(ptr noundef nonnull %4, i32 noundef 80, ptr noundef %1)
  %166 = icmp eq ptr %165, null
  br i1 %166, label %184, label %167

167:                                              ; preds = %163, %167
  %168 = phi i32 [ %179, %167 ], [ 0, %163 ]
  %169 = zext i32 %168 to i64
  %170 = load ptr, ptr %41, align 8, !tbaa !59
  %171 = getelementptr inbounds i32, ptr %170, i64 %169
  %172 = load ptr, ptr %158, align 8, !tbaa !60
  %173 = getelementptr inbounds i32, ptr %172, i64 %169
  %174 = load ptr, ptr %161, align 8, !tbaa !61
  %175 = getelementptr inbounds i32, ptr %174, i64 %169
  %176 = load ptr, ptr %164, align 8, !tbaa !62
  %177 = getelementptr inbounds i32, ptr %176, i64 %169
  %178 = call i32 (ptr, ptr, ...) @__isoc99_sscanf(ptr noundef nonnull %4, ptr noundef nonnull @.str.14, ptr noundef %171, ptr noundef %173, ptr noundef %175, ptr noundef %177) #31
  %179 = add i32 %168, 1
  %180 = call ptr @fgets(ptr noundef nonnull %4, i32 noundef 80, ptr noundef %1)
  %181 = icmp eq ptr %180, null
  br i1 %181, label %184, label %167, !llvm.loop !63

182:                                              ; preds = %186, %184
  %183 = landingpad { ptr, i32 }
          cleanup
  br label %195

184:                                              ; preds = %167, %163
  %185 = phi i32 [ 0, %163 ], [ %179, %167 ]
  store i32 0, ptr %78, align 8, !tbaa !55
  invoke void @_ZN4Mesh24calc_spatial_coordinatesEi(ptr noundef nonnull align 8 dereferenceable(2288) %0, i32 noundef 0)
          to label %186 unwind label %182

186:                                              ; preds = %184
  %187 = getelementptr inbounds %class.Mesh, ptr %0, i64 0, i32 24
  invoke void @KDTree_Initialize(ptr noundef nonnull %187)
          to label %188 unwind label %182

188:                                              ; preds = %186
  call void @_ZN4Mesh5printEv(ptr noundef nonnull align 8 dereferenceable(2288) %0)
  %189 = zext i32 %185 to i64
  %190 = load i64, ptr %93, align 8, !tbaa !43
  %191 = icmp eq i64 %190, %189
  br i1 %191, label %194, label %192

192:                                              ; preds = %188
  %193 = call i32 @puts(ptr nonnull dereferenceable(1) @str.145)
  br label %194

194:                                              ; preds = %192, %188
  call void @llvm.lifetime.end.p0(i64 8, ptr nonnull %5) #31
  call void @llvm.lifetime.end.p0(i64 80, ptr nonnull %4) #31
  ret void

195:                                              ; preds = %182, %84
  %196 = phi { ptr, i32 } [ %183, %182 ], [ %85, %84 ]
  call void @llvm.lifetime.end.p0(i64 8, ptr nonnull %5) #31
  call void @llvm.lifetime.end.p0(i64 80, ptr nonnull %4) #31
  %197 = load ptr, ptr %77, align 8, !tbaa !59
  %198 = icmp eq ptr %197, null
  br i1 %198, label %200, label %199

199:                                              ; preds = %195
  call void @_ZdlPv(ptr noundef nonnull %197) #33
  br label %200

200:                                              ; preds = %195, %199
  %201 = load ptr, ptr %76, align 8, !tbaa !59
  %202 = icmp eq ptr %201, null
  br i1 %202, label %204, label %203

203:                                              ; preds = %200
  call void @_ZdlPv(ptr noundef nonnull %201) #33
  br label %204

204:                                              ; preds = %200, %203
  %205 = load ptr, ptr %75, align 8, !tbaa !59
  %206 = icmp eq ptr %205, null
  br i1 %206, label %208, label %207

207:                                              ; preds = %204
  call void @_ZdlPv(ptr noundef nonnull %205) #33
  br label %208

208:                                              ; preds = %204, %207
  %209 = load ptr, ptr %74, align 8, !tbaa !59
  %210 = icmp eq ptr %209, null
  br i1 %210, label %212, label %211

211:                                              ; preds = %208
  call void @_ZdlPv(ptr noundef nonnull %209) #33
  br label %212

212:                                              ; preds = %208, %211
  %213 = load ptr, ptr %73, align 8, !tbaa !59
  %214 = icmp eq ptr %213, null
  br i1 %214, label %216, label %215

215:                                              ; preds = %212
  call void @_ZdlPv(ptr noundef nonnull %213) #33
  br label %216

216:                                              ; preds = %212, %215
  %217 = load ptr, ptr %72, align 8, !tbaa !59
  %218 = icmp eq ptr %217, null
  br i1 %218, label %220, label %219

219:                                              ; preds = %216
  call void @_ZdlPv(ptr noundef nonnull %217) #33
  br label %220

220:                                              ; preds = %216, %219
  %221 = load ptr, ptr %71, align 8, !tbaa !59
  %222 = icmp eq ptr %221, null
  br i1 %222, label %224, label %223

223:                                              ; preds = %220
  call void @_ZdlPv(ptr noundef nonnull %221) #33
  br label %224

224:                                              ; preds = %220, %223
  %225 = load ptr, ptr %70, align 8, !tbaa !59
  %226 = icmp eq ptr %225, null
  br i1 %226, label %228, label %227

227:                                              ; preds = %224
  call void @_ZdlPv(ptr noundef nonnull %225) #33
  br label %228

228:                                              ; preds = %224, %227
  %229 = load ptr, ptr %69, align 8, !tbaa !59
  %230 = icmp eq ptr %229, null
  br i1 %230, label %232, label %231

231:                                              ; preds = %228
  call void @_ZdlPv(ptr noundef nonnull %229) #33
  br label %232

232:                                              ; preds = %228, %231
  %233 = load ptr, ptr %68, align 8, !tbaa !59
  %234 = icmp eq ptr %233, null
  br i1 %234, label %236, label %235

235:                                              ; preds = %232
  call void @_ZdlPv(ptr noundef nonnull %233) #33
  br label %236

236:                                              ; preds = %232, %235
  %237 = load ptr, ptr %67, align 8, !tbaa !59
  %238 = icmp eq ptr %237, null
  br i1 %238, label %240, label %239

239:                                              ; preds = %236
  call void @_ZdlPv(ptr noundef nonnull %237) #33
  br label %240

240:                                              ; preds = %236, %239
  %241 = load ptr, ptr %66, align 8, !tbaa !59
  %242 = icmp eq ptr %241, null
  br i1 %242, label %244, label %243

243:                                              ; preds = %240
  call void @_ZdlPv(ptr noundef nonnull %241) #33
  br label %244

244:                                              ; preds = %240, %243
  %245 = load ptr, ptr %65, align 8, !tbaa !59
  %246 = icmp eq ptr %245, null
  br i1 %246, label %248, label %247

247:                                              ; preds = %244
  call void @_ZdlPv(ptr noundef nonnull %245) #33
  br label %248

248:                                              ; preds = %244, %247
  %249 = load ptr, ptr %64, align 8, !tbaa !59
  %250 = icmp eq ptr %249, null
  br i1 %250, label %252, label %251

251:                                              ; preds = %248
  call void @_ZdlPv(ptr noundef nonnull %249) #33
  br label %252

252:                                              ; preds = %248, %251
  %253 = load ptr, ptr %63, align 8, !tbaa !59
  %254 = icmp eq ptr %253, null
  br i1 %254, label %256, label %255

255:                                              ; preds = %252
  call void @_ZdlPv(ptr noundef nonnull %253) #33
  br label %256

256:                                              ; preds = %252, %255
  %257 = load ptr, ptr %62, align 8, !tbaa !59
  %258 = icmp eq ptr %257, null
  br i1 %258, label %260, label %259

259:                                              ; preds = %256
  call void @_ZdlPv(ptr noundef nonnull %257) #33
  br label %260

260:                                              ; preds = %256, %259
  %261 = load ptr, ptr %61, align 8, !tbaa !59
  %262 = icmp eq ptr %261, null
  br i1 %262, label %264, label %263

263:                                              ; preds = %260
  call void @_ZdlPv(ptr noundef nonnull %261) #33
  br label %264

264:                                              ; preds = %260, %263
  %265 = load ptr, ptr %60, align 8, !tbaa !59
  %266 = icmp eq ptr %265, null
  br i1 %266, label %268, label %267

267:                                              ; preds = %264
  call void @_ZdlPv(ptr noundef nonnull %265) #33
  br label %268

268:                                              ; preds = %264, %267
  %269 = load ptr, ptr %59, align 8, !tbaa !59
  %270 = icmp eq ptr %269, null
  br i1 %270, label %272, label %271

271:                                              ; preds = %268
  call void @_ZdlPv(ptr noundef nonnull %269) #33
  br label %272

272:                                              ; preds = %268, %271
  %273 = load ptr, ptr %58, align 8, !tbaa !59
  %274 = icmp eq ptr %273, null
  br i1 %274, label %276, label %275

275:                                              ; preds = %272
  call void @_ZdlPv(ptr noundef nonnull %273) #33
  br label %276

276:                                              ; preds = %272, %275
  %277 = load ptr, ptr %57, align 8, !tbaa !59
  %278 = icmp eq ptr %277, null
  br i1 %278, label %280, label %279

279:                                              ; preds = %276
  call void @_ZdlPv(ptr noundef nonnull %277) #33
  br label %280

280:                                              ; preds = %276, %279
  %281 = load ptr, ptr %56, align 8, !tbaa !59
  %282 = icmp eq ptr %281, null
  br i1 %282, label %284, label %283

283:                                              ; preds = %280
  call void @_ZdlPv(ptr noundef nonnull %281) #33
  br label %284

284:                                              ; preds = %280, %283
  %285 = load ptr, ptr %55, align 8, !tbaa !59
  %286 = icmp eq ptr %285, null
  br i1 %286, label %288, label %287

287:                                              ; preds = %284
  call void @_ZdlPv(ptr noundef nonnull %285) #33
  br label %288

288:                                              ; preds = %284, %287
  %289 = load ptr, ptr %54, align 8, !tbaa !59
  %290 = icmp eq ptr %289, null
  br i1 %290, label %292, label %291

291:                                              ; preds = %288
  call void @_ZdlPv(ptr noundef nonnull %289) #33
  br label %292

292:                                              ; preds = %288, %291
  %293 = load ptr, ptr %53, align 8, !tbaa !59
  %294 = icmp eq ptr %293, null
  br i1 %294, label %296, label %295

295:                                              ; preds = %292
  call void @_ZdlPv(ptr noundef nonnull %293) #33
  br label %296

296:                                              ; preds = %292, %295
  %297 = load ptr, ptr %52, align 8, !tbaa !59
  %298 = icmp eq ptr %297, null
  br i1 %298, label %300, label %299

299:                                              ; preds = %296
  call void @_ZdlPv(ptr noundef nonnull %297) #33
  br label %300

300:                                              ; preds = %296, %299
  %301 = load ptr, ptr %51, align 8, !tbaa !59
  %302 = icmp eq ptr %301, null
  br i1 %302, label %304, label %303

303:                                              ; preds = %300
  call void @_ZdlPv(ptr noundef nonnull %301) #33
  br label %304

304:                                              ; preds = %300, %303
  %305 = load ptr, ptr %50, align 8, !tbaa !59
  %306 = icmp eq ptr %305, null
  br i1 %306, label %308, label %307

307:                                              ; preds = %304
  call void @_ZdlPv(ptr noundef nonnull %305) #33
  br label %308

308:                                              ; preds = %304, %307
  %309 = load ptr, ptr %49, align 8, !tbaa !59
  %310 = icmp eq ptr %309, null
  br i1 %310, label %312, label %311

311:                                              ; preds = %308
  call void @_ZdlPv(ptr noundef nonnull %309) #33
  br label %312

312:                                              ; preds = %308, %311
  %313 = load ptr, ptr %48, align 8, !tbaa !59
  %314 = icmp eq ptr %313, null
  br i1 %314, label %316, label %315

315:                                              ; preds = %312
  call void @_ZdlPv(ptr noundef nonnull %313) #33
  br label %316

316:                                              ; preds = %312, %315
  %317 = load ptr, ptr %47, align 8, !tbaa !44
  %318 = icmp eq ptr %317, null
  br i1 %318, label %320, label %319

319:                                              ; preds = %316
  call void @_ZdlPv(ptr noundef nonnull %317) #33
  br label %320

320:                                              ; preds = %316, %319
  %321 = load ptr, ptr %46, align 8, !tbaa !44
  %322 = icmp eq ptr %321, null
  br i1 %322, label %324, label %323

323:                                              ; preds = %320
  call void @_ZdlPv(ptr noundef nonnull %321) #33
  br label %324

324:                                              ; preds = %320, %323
  %325 = load ptr, ptr %45, align 8, !tbaa !44
  %326 = icmp eq ptr %325, null
  br i1 %326, label %328, label %327

327:                                              ; preds = %324
  call void @_ZdlPv(ptr noundef nonnull %325) #33
  br label %328

328:                                              ; preds = %324, %327
  %329 = load ptr, ptr %44, align 8, !tbaa !44
  %330 = icmp eq ptr %329, null
  br i1 %330, label %332, label %331

331:                                              ; preds = %328
  call void @_ZdlPv(ptr noundef nonnull %329) #33
  br label %332

332:                                              ; preds = %328, %331
  %333 = load ptr, ptr %43, align 8, !tbaa !44
  %334 = icmp eq ptr %333, null
  br i1 %334, label %336, label %335

335:                                              ; preds = %332
  call void @_ZdlPv(ptr noundef nonnull %333) #33
  br label %336

336:                                              ; preds = %332, %335
  %337 = load ptr, ptr %42, align 8, !tbaa !44
  %338 = icmp eq ptr %337, null
  br i1 %338, label %340, label %339

339:                                              ; preds = %336
  call void @_ZdlPv(ptr noundef nonnull %337) #33
  br label %340

340:                                              ; preds = %336, %339
  %341 = load ptr, ptr %41, align 8, !tbaa !59
  %342 = icmp eq ptr %341, null
  br i1 %342, label %344, label %343

343:                                              ; preds = %340
  call void @_ZdlPv(ptr noundef nonnull %341) #33
  br label %344

344:                                              ; preds = %340, %343
  %345 = load ptr, ptr %40, align 8, !tbaa !44
  %346 = icmp eq ptr %345, null
  br i1 %346, label %348, label %347

347:                                              ; preds = %344
  call void @_ZdlPv(ptr noundef nonnull %345) #33
  br label %348

348:                                              ; preds = %344, %347
  %349 = load ptr, ptr %39, align 8, !tbaa !44
  %350 = icmp eq ptr %349, null
  br i1 %350, label %352, label %351

351:                                              ; preds = %348
  call void @_ZdlPv(ptr noundef nonnull %349) #33
  br label %352

352:                                              ; preds = %348, %351
  %353 = load ptr, ptr %38, align 8, !tbaa !44
  %354 = icmp eq ptr %353, null
  br i1 %354, label %356, label %355

355:                                              ; preds = %352
  call void @_ZdlPv(ptr noundef nonnull %353) #33
  br label %356

356:                                              ; preds = %352, %355
  %357 = load ptr, ptr %37, align 8, !tbaa !59
  %358 = icmp eq ptr %357, null
  br i1 %358, label %360, label %359

359:                                              ; preds = %356
  call void @_ZdlPv(ptr noundef nonnull %357) #33
  br label %360

360:                                              ; preds = %356, %359
  %361 = load ptr, ptr %36, align 8, !tbaa !59
  %362 = icmp eq ptr %361, null
  br i1 %362, label %364, label %363

363:                                              ; preds = %360
  call void @_ZdlPv(ptr noundef nonnull %361) #33
  br label %364

364:                                              ; preds = %360, %363
  %365 = load ptr, ptr %35, align 8, !tbaa !59
  %366 = icmp eq ptr %365, null
  br i1 %366, label %368, label %367

367:                                              ; preds = %364
  call void @_ZdlPv(ptr noundef nonnull %365) #33
  br label %368

368:                                              ; preds = %364, %367
  %369 = load ptr, ptr %34, align 8, !tbaa !59
  %370 = icmp eq ptr %369, null
  br i1 %370, label %372, label %371

371:                                              ; preds = %368
  call void @_ZdlPv(ptr noundef nonnull %369) #33
  br label %372

372:                                              ; preds = %368, %371
  %373 = load ptr, ptr %33, align 8, !tbaa !59
  %374 = icmp eq ptr %373, null
  br i1 %374, label %376, label %375

375:                                              ; preds = %372
  call void @_ZdlPv(ptr noundef nonnull %373) #33
  br label %376

376:                                              ; preds = %372, %375
  %377 = load ptr, ptr %32, align 8, !tbaa !59
  %378 = icmp eq ptr %377, null
  br i1 %378, label %380, label %379

379:                                              ; preds = %376
  call void @_ZdlPv(ptr noundef nonnull %377) #33
  br label %380

380:                                              ; preds = %376, %379
  %381 = load ptr, ptr %31, align 8, !tbaa !59
  %382 = icmp eq ptr %381, null
  br i1 %382, label %384, label %383

383:                                              ; preds = %380
  call void @_ZdlPv(ptr noundef nonnull %381) #33
  br label %384

384:                                              ; preds = %380, %383
  %385 = load ptr, ptr %30, align 8, !tbaa !59
  %386 = icmp eq ptr %385, null
  br i1 %386, label %388, label %387

387:                                              ; preds = %384
  call void @_ZdlPv(ptr noundef nonnull %385) #33
  br label %388

388:                                              ; preds = %384, %387
  %389 = load ptr, ptr %29, align 8, !tbaa !59
  %390 = icmp eq ptr %389, null
  br i1 %390, label %392, label %391

391:                                              ; preds = %388
  call void @_ZdlPv(ptr noundef nonnull %389) #33
  br label %392

392:                                              ; preds = %388, %391
  %393 = load ptr, ptr %28, align 8, !tbaa !59
  %394 = icmp eq ptr %393, null
  br i1 %394, label %396, label %395

395:                                              ; preds = %392
  call void @_ZdlPv(ptr noundef nonnull %393) #33
  br label %396

396:                                              ; preds = %392, %395
  %397 = load ptr, ptr %27, align 8, !tbaa !59
  %398 = icmp eq ptr %397, null
  br i1 %398, label %400, label %399

399:                                              ; preds = %396
  call void @_ZdlPv(ptr noundef nonnull %397) #33
  br label %400

400:                                              ; preds = %396, %399
  %401 = load ptr, ptr %26, align 8, !tbaa !59
  %402 = icmp eq ptr %401, null
  br i1 %402, label %404, label %403

403:                                              ; preds = %400
  call void @_ZdlPv(ptr noundef nonnull %401) #33
  br label %404

404:                                              ; preds = %400, %403
  %405 = getelementptr inbounds %class.Mesh, ptr %0, i64 0, i32 2
  %406 = getelementptr inbounds %class.Mesh, ptr %0, i64 0, i32 1
  call void @_ZN10MallocPlusD2Ev(ptr noundef nonnull align 8 dereferenceable(96) %405) #31
  call void @_ZN10MallocPlusD2Ev(ptr noundef nonnull align 8 dereferenceable(96) %406) #31
  resume { ptr, i32 } %196
}

; Function Attrs: nounwind
declare i64 @time(ptr noundef) local_unnamed_addr #4

; Function Attrs: nounwind
declare void @srand48(i64 noundef) local_unnamed_addr #4

; Function Attrs: nofree nounwind
declare noundef ptr @fgets(ptr noundef, i32 noundef, ptr nocapture noundef) local_unnamed_addr #2

declare i32 @__gxx_personality_v0(...)

; Function Attrs: noreturn nounwind
declare void @exit(i32 noundef) local_unnamed_addr #5

; Function Attrs: nofree nounwind
declare noundef i32 @__isoc99_sscanf(ptr nocapture noundef readonly, ptr nocapture noundef readonly, ...) local_unnamed_addr #2

; Function Attrs: mustprogress uwtable
define dso_local void @_ZN4Mesh8allocateEm(ptr noundef nonnull align 8 dereferenceable(2288) %0, i64 noundef %1) local_unnamed_addr #6 align 2 {
  %3 = getelementptr inbounds %class.Mesh, ptr %0, i64 0, i32 1
  %4 = tail call noundef ptr @_ZN10MallocPlus13memory_mallocEmmPKci(ptr noundef nonnull align 8 dereferenceable(96) %3, i64 noundef %1, i64 noundef 4, ptr noundef nonnull @.str.50, i32 noundef 16)
  %5 = getelementptr inbounds %class.Mesh, ptr %0, i64 0, i32 64
  store ptr %4, ptr %5, align 8, !tbaa !60
  %6 = tail call noundef ptr @_ZN10MallocPlus13memory_mallocEmmPKci(ptr noundef nonnull align 8 dereferenceable(96) %3, i64 noundef %1, i64 noundef 4, ptr noundef nonnull @.str.51, i32 noundef 16)
  %7 = getelementptr inbounds %class.Mesh, ptr %0, i64 0, i32 65
  store ptr %6, ptr %7, align 8, !tbaa !61
  %8 = tail call noundef ptr @_ZN10MallocPlus13memory_mallocEmmPKci(ptr noundef nonnull align 8 dereferenceable(96) %3, i64 noundef %1, i64 noundef 4, ptr noundef nonnull @.str.52, i32 noundef 16)
  %9 = getelementptr inbounds %class.Mesh, ptr %0, i64 0, i32 67
  store ptr %8, ptr %9, align 8, !tbaa !62
  ret void
}

; Function Attrs: mustprogress uwtable
define dso_local void @_ZN4Mesh24calc_spatial_coordinatesEi(ptr noundef nonnull align 8 dereferenceable(2288) %0, i32 noundef %1) local_unnamed_addr #6 align 2 personality ptr @__gxx_personality_v0 {
  %3 = alloca %struct.timeval, align 8
  call void @llvm.lifetime.start.p0(i64 16, ptr nonnull %3) #31
  call void @cpu_timer_start(ptr noundef nonnull %3)
  %4 = getelementptr inbounds %class.Mesh, ptr %0, i64 0, i32 75
  %5 = getelementptr inbounds %class.Mesh, ptr %0, i64 0, i32 45
  %6 = load i64, ptr %5, align 8, !tbaa !43
  %7 = getelementptr inbounds %class.Mesh, ptr %0, i64 0, i32 75, i32 0, i32 0, i32 0, i32 1
  %8 = load ptr, ptr %7, align 8, !tbaa !64
  %9 = load ptr, ptr %4, align 8, !tbaa !44
  %10 = ptrtoint ptr %8 to i64
  %11 = ptrtoint ptr %9 to i64
  %12 = sub i64 %10, %11
  %13 = ashr exact i64 %12, 3
  %14 = icmp ugt i64 %6, %13
  br i1 %14, label %15, label %18

15:                                               ; preds = %2
  %16 = sub i64 %6, %13
  call void @_ZNSt6vectorIdSaIdEE17_M_default_appendEm(ptr noundef nonnull align 8 dereferenceable(24) %4, i64 noundef %16)
  %17 = load i64, ptr %5, align 8, !tbaa !43
  br label %24

18:                                               ; preds = %2
  %19 = icmp ult i64 %6, %13
  br i1 %19, label %20, label %24

20:                                               ; preds = %18
  %21 = getelementptr inbounds double, ptr %9, i64 %6
  %22 = icmp eq ptr %8, %21
  br i1 %22, label %24, label %23

23:                                               ; preds = %20
  store ptr %21, ptr %7, align 8, !tbaa !64
  br label %24

24:                                               ; preds = %15, %18, %20, %23
  %25 = phi i64 [ %17, %15 ], [ %6, %18 ], [ %6, %20 ], [ %6, %23 ]
  %26 = getelementptr inbounds %class.Mesh, ptr %0, i64 0, i32 76
  %27 = getelementptr inbounds %class.Mesh, ptr %0, i64 0, i32 76, i32 0, i32 0, i32 0, i32 1
  %28 = load ptr, ptr %27, align 8, !tbaa !64
  %29 = load ptr, ptr %26, align 8, !tbaa !44
  %30 = ptrtoint ptr %28 to i64
  %31 = ptrtoint ptr %29 to i64
  %32 = sub i64 %30, %31
  %33 = ashr exact i64 %32, 3
  %34 = icmp ugt i64 %25, %33
  br i1 %34, label %35, label %38

35:                                               ; preds = %24
  %36 = sub i64 %25, %33
  call void @_ZNSt6vectorIdSaIdEE17_M_default_appendEm(ptr noundef nonnull align 8 dereferenceable(24) %26, i64 noundef %36)
  %37 = load i64, ptr %5, align 8, !tbaa !43
  br label %44

38:                                               ; preds = %24
  %39 = icmp ult i64 %25, %33
  br i1 %39, label %40, label %44

40:                                               ; preds = %38
  %41 = getelementptr inbounds double, ptr %29, i64 %25
  %42 = icmp eq ptr %28, %41
  br i1 %42, label %44, label %43

43:                                               ; preds = %40
  store ptr %41, ptr %27, align 8, !tbaa !64
  br label %44

44:                                               ; preds = %35, %38, %40, %43
  %45 = phi i64 [ %37, %35 ], [ %25, %38 ], [ %25, %40 ], [ %25, %43 ]
  %46 = getelementptr inbounds %class.Mesh, ptr %0, i64 0, i32 77
  %47 = getelementptr inbounds %class.Mesh, ptr %0, i64 0, i32 77, i32 0, i32 0, i32 0, i32 1
  %48 = load ptr, ptr %47, align 8, !tbaa !64
  %49 = load ptr, ptr %46, align 8, !tbaa !44
  %50 = ptrtoint ptr %48 to i64
  %51 = ptrtoint ptr %49 to i64
  %52 = sub i64 %50, %51
  %53 = ashr exact i64 %52, 3
  %54 = icmp ugt i64 %45, %53
  br i1 %54, label %55, label %58

55:                                               ; preds = %44
  %56 = sub i64 %45, %53
  call void @_ZNSt6vectorIdSaIdEE17_M_default_appendEm(ptr noundef nonnull align 8 dereferenceable(24) %46, i64 noundef %56)
  %57 = load i64, ptr %5, align 8, !tbaa !43
  br label %64

58:                                               ; preds = %44
  %59 = icmp ult i64 %45, %53
  br i1 %59, label %60, label %64

60:                                               ; preds = %58
  %61 = getelementptr inbounds double, ptr %49, i64 %45
  %62 = icmp eq ptr %48, %61
  br i1 %62, label %64, label %63

63:                                               ; preds = %60
  store ptr %61, ptr %47, align 8, !tbaa !64
  br label %64

64:                                               ; preds = %55, %58, %60, %63
  %65 = phi i64 [ %57, %55 ], [ %45, %58 ], [ %45, %60 ], [ %45, %63 ]
  %66 = getelementptr inbounds %class.Mesh, ptr %0, i64 0, i32 78
  %67 = getelementptr inbounds %class.Mesh, ptr %0, i64 0, i32 78, i32 0, i32 0, i32 0, i32 1
  %68 = load ptr, ptr %67, align 8, !tbaa !64
  %69 = load ptr, ptr %66, align 8, !tbaa !44
  %70 = ptrtoint ptr %68 to i64
  %71 = ptrtoint ptr %69 to i64
  %72 = sub i64 %70, %71
  %73 = ashr exact i64 %72, 3
  %74 = icmp ugt i64 %65, %73
  br i1 %74, label %75, label %77

75:                                               ; preds = %64
  %76 = sub i64 %65, %73
  call void @_ZNSt6vectorIdSaIdEE17_M_default_appendEm(ptr noundef nonnull align 8 dereferenceable(24) %66, i64 noundef %76)
  br label %83

77:                                               ; preds = %64
  %78 = icmp ult i64 %65, %73
  br i1 %78, label %79, label %83

79:                                               ; preds = %77
  %80 = getelementptr inbounds double, ptr %69, i64 %65
  %81 = icmp eq ptr %68, %80
  br i1 %81, label %83, label %82

82:                                               ; preds = %79
  store ptr %80, ptr %67, align 8, !tbaa !64
  br label %83

83:                                               ; preds = %75, %77, %79, %82
  %84 = getelementptr inbounds %class.Mesh, ptr %0, i64 0, i32 14
  %85 = load ptr, ptr %84, align 8, !tbaa !65
  %86 = icmp eq ptr %85, null
  br i1 %86, label %87, label %89

87:                                               ; preds = %83
  %88 = call noalias dereferenceable_or_null(4) ptr @malloc(i64 noundef 4) #34
  store ptr %88, ptr %84, align 8, !tbaa !65
  br label %89

89:                                               ; preds = %87, %83
  %90 = phi ptr [ %88, %87 ], [ %85, %83 ]
  %91 = getelementptr inbounds %class.Mesh, ptr %0, i64 0, i32 15
  %92 = load ptr, ptr %91, align 8, !tbaa !66
  %93 = icmp eq ptr %92, null
  br i1 %93, label %94, label %96

94:                                               ; preds = %89
  %95 = call noalias dereferenceable_or_null(4) ptr @malloc(i64 noundef 4) #34
  store ptr %95, ptr %91, align 8, !tbaa !66
  br label %96

96:                                               ; preds = %89, %94
  %97 = phi ptr [ %95, %94 ], [ %92, %89 ]
  %98 = load i64, ptr %5, align 8, !tbaa !43
  %99 = trunc i64 %98 to i32
  store i32 0, ptr %90, align 4, !tbaa !67
  store i32 %99, ptr %97, align 4, !tbaa !67
  %100 = getelementptr inbounds %class.Mesh, ptr %0, i64 0, i32 37
  %101 = load i32, ptr %100, align 4, !tbaa !68
  %102 = icmp eq i32 %101, 0
  %103 = icmp eq i32 %99, 0
  br i1 %102, label %123, label %104

104:                                              ; preds = %96
  br i1 %103, label %212, label %105

105:                                              ; preds = %104
  %106 = getelementptr inbounds %class.Mesh, ptr %0, i64 0, i32 67
  %107 = load ptr, ptr %106, align 8, !tbaa !62
  %108 = getelementptr inbounds %class.Mesh, ptr %0, i64 0, i32 48
  %109 = getelementptr inbounds %class.Mesh, ptr %0, i64 0, i32 33
  %110 = load ptr, ptr %109, align 8, !tbaa !44
  %111 = getelementptr inbounds %class.Mesh, ptr %0, i64 0, i32 64
  %112 = load ptr, ptr %111, align 8, !tbaa !60
  %113 = load ptr, ptr %4, align 8, !tbaa !44
  %114 = load ptr, ptr %26, align 8, !tbaa !44
  %115 = getelementptr inbounds %class.Mesh, ptr %0, i64 0, i32 50
  %116 = getelementptr inbounds %class.Mesh, ptr %0, i64 0, i32 34
  %117 = load ptr, ptr %116, align 8, !tbaa !44
  %118 = getelementptr inbounds %class.Mesh, ptr %0, i64 0, i32 65
  %119 = load ptr, ptr %118, align 8, !tbaa !61
  %120 = load ptr, ptr %46, align 8, !tbaa !44
  %121 = load ptr, ptr %66, align 8, !tbaa !44
  %122 = and i64 %98, 4294967295
  br label %146

123:                                              ; preds = %96
  br i1 %103, label %212, label %124

124:                                              ; preds = %123
  %125 = getelementptr inbounds %class.Mesh, ptr %0, i64 0, i32 67
  %126 = load ptr, ptr %125, align 8, !tbaa !62
  %127 = getelementptr inbounds %class.Mesh, ptr %0, i64 0, i32 48
  %128 = getelementptr inbounds %class.Mesh, ptr %0, i64 0, i32 33
  %129 = load ptr, ptr %128, align 8, !tbaa !44
  %130 = getelementptr inbounds %class.Mesh, ptr %0, i64 0, i32 64
  %131 = load ptr, ptr %130, align 8, !tbaa !60
  %132 = getelementptr inbounds %class.Mesh, ptr %0, i64 0, i32 26
  %133 = load ptr, ptr %132, align 8, !tbaa !59
  %134 = load ptr, ptr %4, align 8, !tbaa !44
  %135 = load ptr, ptr %26, align 8, !tbaa !44
  %136 = getelementptr inbounds %class.Mesh, ptr %0, i64 0, i32 50
  %137 = getelementptr inbounds %class.Mesh, ptr %0, i64 0, i32 34
  %138 = load ptr, ptr %137, align 8, !tbaa !44
  %139 = getelementptr inbounds %class.Mesh, ptr %0, i64 0, i32 65
  %140 = load ptr, ptr %139, align 8, !tbaa !61
  %141 = getelementptr inbounds %class.Mesh, ptr %0, i64 0, i32 28
  %142 = load ptr, ptr %141, align 8, !tbaa !59
  %143 = load ptr, ptr %46, align 8, !tbaa !44
  %144 = load ptr, ptr %66, align 8, !tbaa !44
  %145 = and i64 %98, 4294967295
  br label %177

146:                                              ; preds = %105, %146
  %147 = phi i64 [ 0, %105 ], [ %175, %146 ]
  %148 = getelementptr inbounds i32, ptr %107, i64 %147
  %149 = load i32, ptr %148, align 4, !tbaa !67
  %150 = load double, ptr %108, align 8, !tbaa !5
  %151 = sext i32 %149 to i64
  %152 = getelementptr inbounds double, ptr %110, i64 %151
  %153 = load double, ptr %152, align 8, !tbaa !45
  %154 = getelementptr inbounds i32, ptr %112, i64 %147
  %155 = load i32, ptr %154, align 4, !tbaa !67
  %156 = sub nsw i32 %155, %1
  %157 = sitofp i32 %156 to double
  %158 = fmul double %153, %157
  %159 = fadd double %150, %158
  %160 = getelementptr inbounds double, ptr %113, i64 %147
  store double %159, ptr %160, align 8, !tbaa !45
  %161 = load double, ptr %152, align 8, !tbaa !45
  %162 = getelementptr inbounds double, ptr %114, i64 %147
  store double %161, ptr %162, align 8, !tbaa !45
  %163 = load double, ptr %115, align 8, !tbaa !40
  %164 = getelementptr inbounds double, ptr %117, i64 %151
  %165 = load double, ptr %164, align 8, !tbaa !45
  %166 = getelementptr inbounds i32, ptr %119, i64 %147
  %167 = load i32, ptr %166, align 4, !tbaa !67
  %168 = sub nsw i32 %167, %1
  %169 = sitofp i32 %168 to double
  %170 = fmul double %165, %169
  %171 = fadd double %163, %170
  %172 = getelementptr inbounds double, ptr %120, i64 %147
  store double %171, ptr %172, align 8, !tbaa !45
  %173 = load double, ptr %164, align 8, !tbaa !45
  %174 = getelementptr inbounds double, ptr %121, i64 %147
  store double %173, ptr %174, align 8, !tbaa !45
  %175 = add nuw nsw i64 %147, 1
  %176 = icmp eq i64 %175, %122
  br i1 %176, label %212, label %146, !llvm.loop !69

177:                                              ; preds = %124, %177
  %178 = phi i64 [ 0, %124 ], [ %210, %177 ]
  %179 = getelementptr inbounds i32, ptr %126, i64 %178
  %180 = load i32, ptr %179, align 4, !tbaa !67
  %181 = load double, ptr %127, align 8, !tbaa !5
  %182 = sext i32 %180 to i64
  %183 = getelementptr inbounds double, ptr %129, i64 %182
  %184 = load double, ptr %183, align 8, !tbaa !45
  %185 = getelementptr inbounds i32, ptr %131, i64 %178
  %186 = load i32, ptr %185, align 4, !tbaa !67
  %187 = getelementptr inbounds i32, ptr %133, i64 %182
  %188 = load i32, ptr %187, align 4, !tbaa !67
  %189 = sub nsw i32 %186, %188
  %190 = sitofp i32 %189 to double
  %191 = fmul double %184, %190
  %192 = fadd double %181, %191
  %193 = getelementptr inbounds double, ptr %134, i64 %178
  store double %192, ptr %193, align 8, !tbaa !45
  %194 = load double, ptr %183, align 8, !tbaa !45
  %195 = getelementptr inbounds double, ptr %135, i64 %178
  store double %194, ptr %195, align 8, !tbaa !45
  %196 = load double, ptr %136, align 8, !tbaa !40
  %197 = getelementptr inbounds double, ptr %138, i64 %182
  %198 = load double, ptr %197, align 8, !tbaa !45
  %199 = getelementptr inbounds i32, ptr %140, i64 %178
  %200 = load i32, ptr %199, align 4, !tbaa !67
  %201 = getelementptr inbounds i32, ptr %142, i64 %182
  %202 = load i32, ptr %201, align 4, !tbaa !67
  %203 = sub nsw i32 %200, %202
  %204 = sitofp i32 %203 to double
  %205 = fmul double %198, %204
  %206 = fadd double %196, %205
  %207 = getelementptr inbounds double, ptr %143, i64 %178
  store double %206, ptr %207, align 8, !tbaa !45
  %208 = load double, ptr %197, align 8, !tbaa !45
  %209 = getelementptr inbounds double, ptr %144, i64 %178
  store double %208, ptr %209, align 8, !tbaa !45
  %210 = add nuw nsw i64 %178, 1
  %211 = icmp eq i64 %210, %145
  br i1 %211, label %212, label %177, !llvm.loop !70

212:                                              ; preds = %146, %177, %104, %123
  %213 = load i64, ptr %3, align 8, !tbaa.struct !71
  %214 = getelementptr inbounds i8, ptr %3, i64 8
  %215 = load i64, ptr %214, align 8, !tbaa.struct !72
  %216 = call double @cpu_timer_stop(i64 %213, i64 %215)
  %217 = getelementptr inbounds %class.Mesh, ptr %0, i64 0, i32 3, i64 22
  %218 = load double, ptr %217, align 8, !tbaa !45
  %219 = fadd double %216, %218
  store double %219, ptr %217, align 8, !tbaa !45
  call void @llvm.lifetime.end.p0(i64 16, ptr nonnull %3) #31
  ret void
}

declare void @KDTree_Initialize(ptr noundef) local_unnamed_addr #7

; Function Attrs: mustprogress nofree nounwind uwtable
define dso_local void @_ZN4Mesh5printEv(ptr nocapture noundef nonnull readonly align 8 dereferenceable(2288) %0) local_unnamed_addr #0 align 2 {
  %2 = tail call i32 @puts(ptr nonnull dereferenceable(1) @str)
  %3 = getelementptr inbounds %class.Mesh, ptr %0, i64 0, i32 45
  %4 = load i64, ptr %3, align 8, !tbaa !43
  %5 = icmp eq i64 %4, 0
  br i1 %5, label %19, label %6

6:                                                ; preds = %1
  %7 = getelementptr inbounds %class.Mesh, ptr %0, i64 0, i32 63
  %8 = getelementptr inbounds %class.Mesh, ptr %0, i64 0, i32 64
  %9 = getelementptr inbounds %class.Mesh, ptr %0, i64 0, i32 65
  %10 = getelementptr inbounds %class.Mesh, ptr %0, i64 0, i32 67
  %11 = getelementptr inbounds %class.Mesh, ptr %0, i64 0, i32 69
  %12 = getelementptr inbounds %class.Mesh, ptr %0, i64 0, i32 70
  %13 = getelementptr inbounds %class.Mesh, ptr %0, i64 0, i32 71
  %14 = getelementptr inbounds %class.Mesh, ptr %0, i64 0, i32 72
  %15 = getelementptr inbounds %class.Mesh, ptr %0, i64 0, i32 75
  %16 = getelementptr inbounds %class.Mesh, ptr %0, i64 0, i32 76
  %17 = getelementptr inbounds %class.Mesh, ptr %0, i64 0, i32 77
  %18 = getelementptr inbounds %class.Mesh, ptr %0, i64 0, i32 78
  br label %20

19:                                               ; preds = %20, %1
  ret void

20:                                               ; preds = %6, %20
  %21 = phi i64 [ 0, %6 ], [ %64, %20 ]
  %22 = trunc i64 %21 to i32
  %23 = load ptr, ptr %7, align 8, !tbaa !59
  %24 = getelementptr inbounds i32, ptr %23, i64 %21
  %25 = load i32, ptr %24, align 4, !tbaa !67
  %26 = load ptr, ptr %8, align 8, !tbaa !60
  %27 = getelementptr inbounds i32, ptr %26, i64 %21
  %28 = load i32, ptr %27, align 4, !tbaa !67
  %29 = load ptr, ptr %9, align 8, !tbaa !61
  %30 = getelementptr inbounds i32, ptr %29, i64 %21
  %31 = load i32, ptr %30, align 4, !tbaa !67
  %32 = load ptr, ptr %10, align 8, !tbaa !62
  %33 = getelementptr inbounds i32, ptr %32, i64 %21
  %34 = load i32, ptr %33, align 4, !tbaa !67
  %35 = load ptr, ptr %11, align 8, !tbaa !73
  %36 = getelementptr inbounds i32, ptr %35, i64 %21
  %37 = load i32, ptr %36, align 4, !tbaa !67
  %38 = load ptr, ptr %12, align 8, !tbaa !74
  %39 = getelementptr inbounds i32, ptr %38, i64 %21
  %40 = load i32, ptr %39, align 4, !tbaa !67
  %41 = load ptr, ptr %13, align 8, !tbaa !75
  %42 = getelementptr inbounds i32, ptr %41, i64 %21
  %43 = load i32, ptr %42, align 4, !tbaa !67
  %44 = load ptr, ptr %14, align 8, !tbaa !76
  %45 = getelementptr inbounds i32, ptr %44, i64 %21
  %46 = load i32, ptr %45, align 4, !tbaa !67
  %47 = tail call i32 (ptr, ...) @printf(ptr noundef nonnull dereferenceable(1) @.str.17, i32 noundef %22, i32 noundef %25, i32 noundef %28, i32 noundef %31, i32 noundef %34, i32 noundef %37, i32 noundef %40, i32 noundef %43, i32 noundef %46)
  %48 = load ptr, ptr %15, align 8, !tbaa !44
  %49 = getelementptr inbounds double, ptr %48, i64 %21
  %50 = load double, ptr %49, align 8, !tbaa !45
  %51 = load ptr, ptr %16, align 8, !tbaa !44
  %52 = getelementptr inbounds double, ptr %51, i64 %21
  %53 = load double, ptr %52, align 8, !tbaa !45
  %54 = fadd double %50, %53
  %55 = load ptr, ptr %17, align 8, !tbaa !44
  %56 = getelementptr inbounds double, ptr %55, i64 %21
  %57 = load double, ptr %56, align 8, !tbaa !45
  %58 = load ptr, ptr %18, align 8, !tbaa !44
  %59 = getelementptr inbounds double, ptr %58, i64 %21
  %60 = load double, ptr %59, align 8, !tbaa !45
  %61 = fadd double %57, %60
  %62 = tail call i32 (ptr, ...) @printf(ptr noundef nonnull dereferenceable(1) @.str.18, double noundef %50, double noundef %54, double noundef %57, double noundef %61)
  %63 = add nuw nsw i64 %21, 1
  %64 = and i64 %63, 4294967295
  %65 = load i64, ptr %3, align 8, !tbaa !43
  %66 = icmp ugt i64 %65, %64
  br i1 %66, label %20, label %19, !llvm.loop !77
}

; Function Attrs: nofree nounwind
declare noundef i32 @printf(ptr nocapture noundef readonly, ...) local_unnamed_addr #2

; Function Attrs: nounwind uwtable
define linkonce_odr dso_local void @_ZNSt6vectorIiSaIiEED2Ev(ptr noundef nonnull align 8 dereferenceable(24) %0) unnamed_addr #8 comdat align 2 personality ptr @__gxx_personality_v0 {
  %2 = load ptr, ptr %0, align 8, !tbaa !59
  %3 = icmp eq ptr %2, null
  br i1 %3, label %5, label %4

4:                                                ; preds = %1
  tail call void @_ZdlPv(ptr noundef nonnull %2) #33
  br label %5

5:                                                ; preds = %1, %4
  ret void
}

; Function Attrs: inlinehint nounwind uwtable
define linkonce_odr dso_local void @_ZN10MallocPlusD2Ev(ptr noundef nonnull align 8 dereferenceable(96) %0) unnamed_addr #9 comdat align 2 personality ptr @__gxx_personality_v0 {
  %2 = getelementptr inbounds %class.MallocPlus, ptr %0, i64 0, i32 1
  %3 = getelementptr inbounds %class.MallocPlus, ptr %0, i64 0, i32 1, i32 0, i32 0, i32 1, i32 0, i32 1
  %4 = load ptr, ptr %3, align 8, !tbaa !51
  invoke void @_ZNSt8_Rb_treeIPvSt4pairIKS0_P24malloc_plus_memory_entryESt10_Select1stIS5_ESt4lessIS0_ESaIS5_EE8_M_eraseEPSt13_Rb_tree_nodeIS5_E(ptr noundef nonnull align 8 dereferenceable(48) %2, ptr noundef %4)
          to label %8 unwind label %5

5:                                                ; preds = %1
  %6 = landingpad { ptr, i32 }
          catch ptr null
  %7 = extractvalue { ptr, i32 } %6, 0
  tail call void @__clang_call_terminate(ptr %7) #32
  unreachable

8:                                                ; preds = %1
  %9 = getelementptr inbounds i8, ptr %0, i64 16
  %10 = load ptr, ptr %9, align 8, !tbaa !51
  invoke void @_ZNSt8_Rb_treeINSt7__cxx1112basic_stringIcSt11char_traitsIcESaIcEEESt4pairIKS5_P24malloc_plus_memory_entryESt10_Select1stISA_ESt4lessIS5_ESaISA_EE8_M_eraseEPSt13_Rb_tree_nodeISA_E(ptr noundef nonnull align 8 dereferenceable(48) %0, ptr noundef %10)
          to label %14 unwind label %11

11:                                               ; preds = %8
  %12 = landingpad { ptr, i32 }
          catch ptr null
  %13 = extractvalue { ptr, i32 } %12, 0
  tail call void @__clang_call_terminate(ptr %13) #32
  unreachable

14:                                               ; preds = %8
  ret void
}

; Function Attrs: mustprogress uwtable
define dso_local void @_ZN4Mesh11print_localEv(ptr noundef nonnull align 8 dereferenceable(2288) %0) local_unnamed_addr #6 align 2 {
  %2 = getelementptr inbounds %class.Mesh, ptr %0, i64 0, i32 1
  %3 = getelementptr inbounds %class.Mesh, ptr %0, i64 0, i32 69
  %4 = load ptr, ptr %3, align 8, !tbaa !73
  %5 = tail call noundef i64 @_ZN10MallocPlus15get_memory_sizeEPv(ptr noundef nonnull align 8 dereferenceable(96) %2, ptr noundef %4)
  %6 = getelementptr inbounds %class.Mesh, ptr %0, i64 0, i32 47
  %7 = load i64, ptr %6, align 8, !tbaa !78
  %8 = icmp ult i64 %5, %7
  %9 = getelementptr inbounds %class.Mesh, ptr %0, i64 0, i32 23
  %10 = load ptr, ptr %9, align 8, !tbaa !79
  %11 = getelementptr inbounds %class.Mesh, ptr %0, i64 0, i32 9
  %12 = load i32, ptr %11, align 4, !tbaa !80
  br i1 %8, label %106, label %13

13:                                               ; preds = %1
  %14 = tail call i32 (ptr, ptr, ...) @fprintf(ptr noundef %10, ptr noundef nonnull @.str.19, i32 noundef %12)
  %15 = getelementptr inbounds %class.Mesh, ptr %0, i64 0, i32 45
  %16 = load i64, ptr %15, align 8, !tbaa !43
  %17 = icmp eq i64 %16, 0
  br i1 %17, label %28, label %18

18:                                               ; preds = %13
  %19 = getelementptr inbounds %class.Mesh, ptr %0, i64 0, i32 13
  %20 = getelementptr inbounds %class.Mesh, ptr %0, i64 0, i32 64
  %21 = getelementptr inbounds %class.Mesh, ptr %0, i64 0, i32 65
  %22 = getelementptr inbounds %class.Mesh, ptr %0, i64 0, i32 67
  %23 = getelementptr inbounds %class.Mesh, ptr %0, i64 0, i32 70
  %24 = getelementptr inbounds %class.Mesh, ptr %0, i64 0, i32 71
  %25 = getelementptr inbounds %class.Mesh, ptr %0, i64 0, i32 72
  br label %40

26:                                               ; preds = %40
  %27 = and i64 %71, 4294967295
  br label %28

28:                                               ; preds = %26, %13
  %29 = phi i64 [ 0, %13 ], [ %27, %26 ]
  %30 = load i64, ptr %6, align 8, !tbaa !78
  %31 = icmp ugt i64 %30, %29
  br i1 %31, label %32, label %133

32:                                               ; preds = %28
  %33 = getelementptr inbounds %class.Mesh, ptr %0, i64 0, i32 13
  %34 = getelementptr inbounds %class.Mesh, ptr %0, i64 0, i32 64
  %35 = getelementptr inbounds %class.Mesh, ptr %0, i64 0, i32 65
  %36 = getelementptr inbounds %class.Mesh, ptr %0, i64 0, i32 67
  %37 = getelementptr inbounds %class.Mesh, ptr %0, i64 0, i32 70
  %38 = getelementptr inbounds %class.Mesh, ptr %0, i64 0, i32 71
  %39 = getelementptr inbounds %class.Mesh, ptr %0, i64 0, i32 72
  br label %73

40:                                               ; preds = %18, %40
  %41 = phi i64 [ 0, %18 ], [ %70, %40 ]
  %42 = trunc i64 %41 to i32
  %43 = load ptr, ptr %9, align 8, !tbaa !79
  %44 = load i32, ptr %11, align 4, !tbaa !80
  %45 = load i32, ptr %19, align 4, !tbaa !81
  %46 = add i32 %45, %42
  %47 = load ptr, ptr %20, align 8, !tbaa !60
  %48 = getelementptr inbounds i32, ptr %47, i64 %41
  %49 = load i32, ptr %48, align 4, !tbaa !67
  %50 = load ptr, ptr %21, align 8, !tbaa !61
  %51 = getelementptr inbounds i32, ptr %50, i64 %41
  %52 = load i32, ptr %51, align 4, !tbaa !67
  %53 = load ptr, ptr %22, align 8, !tbaa !62
  %54 = getelementptr inbounds i32, ptr %53, i64 %41
  %55 = load i32, ptr %54, align 4, !tbaa !67
  %56 = load ptr, ptr %3, align 8, !tbaa !73
  %57 = getelementptr inbounds i32, ptr %56, i64 %41
  %58 = load i32, ptr %57, align 4, !tbaa !67
  %59 = load ptr, ptr %23, align 8, !tbaa !74
  %60 = getelementptr inbounds i32, ptr %59, i64 %41
  %61 = load i32, ptr %60, align 4, !tbaa !67
  %62 = load ptr, ptr %24, align 8, !tbaa !75
  %63 = getelementptr inbounds i32, ptr %62, i64 %41
  %64 = load i32, ptr %63, align 4, !tbaa !67
  %65 = load ptr, ptr %25, align 8, !tbaa !76
  %66 = getelementptr inbounds i32, ptr %65, i64 %41
  %67 = load i32, ptr %66, align 4, !tbaa !67
  %68 = tail call i32 (ptr, ptr, ...) @fprintf(ptr noundef %43, ptr noundef nonnull @.str.20, i32 noundef %44, i32 noundef %42, i32 noundef %46, i32 noundef %49, i32 noundef %52, i32 noundef %55, i32 noundef %58, i32 noundef %61, i32 noundef %64, i32 noundef %67)
  %69 = add nuw nsw i64 %41, 1
  %70 = and i64 %69, 4294967295
  %71 = load i64, ptr %15, align 8, !tbaa !43
  %72 = icmp ugt i64 %71, %70
  br i1 %72, label %40, label %26, !llvm.loop !82

73:                                               ; preds = %32, %73
  %74 = phi i64 [ %29, %32 ], [ %103, %73 ]
  %75 = trunc i64 %74 to i32
  %76 = load ptr, ptr %9, align 8, !tbaa !79
  %77 = load i32, ptr %11, align 4, !tbaa !80
  %78 = load i32, ptr %33, align 4, !tbaa !81
  %79 = add i32 %78, %75
  %80 = load ptr, ptr %34, align 8, !tbaa !60
  %81 = getelementptr inbounds i32, ptr %80, i64 %74
  %82 = load i32, ptr %81, align 4, !tbaa !67
  %83 = load ptr, ptr %35, align 8, !tbaa !61
  %84 = getelementptr inbounds i32, ptr %83, i64 %74
  %85 = load i32, ptr %84, align 4, !tbaa !67
  %86 = load ptr, ptr %36, align 8, !tbaa !62
  %87 = getelementptr inbounds i32, ptr %86, i64 %74
  %88 = load i32, ptr %87, align 4, !tbaa !67
  %89 = load ptr, ptr %3, align 8, !tbaa !73
  %90 = getelementptr inbounds i32, ptr %89, i64 %74
  %91 = load i32, ptr %90, align 4, !tbaa !67
  %92 = load ptr, ptr %37, align 8, !tbaa !74
  %93 = getelementptr inbounds i32, ptr %92, i64 %74
  %94 = load i32, ptr %93, align 4, !tbaa !67
  %95 = load ptr, ptr %38, align 8, !tbaa !75
  %96 = getelementptr inbounds i32, ptr %95, i64 %74
  %97 = load i32, ptr %96, align 4, !tbaa !67
  %98 = load ptr, ptr %39, align 8, !tbaa !76
  %99 = getelementptr inbounds i32, ptr %98, i64 %74
  %100 = load i32, ptr %99, align 4, !tbaa !67
  %101 = tail call i32 (ptr, ptr, ...) @fprintf(ptr noundef %76, ptr noundef nonnull @.str.20, i32 noundef %77, i32 noundef %75, i32 noundef %79, i32 noundef %82, i32 noundef %85, i32 noundef %88, i32 noundef %91, i32 noundef %94, i32 noundef %97, i32 noundef %100)
  %102 = add nuw nsw i64 %74, 1
  %103 = and i64 %102, 4294967295
  %104 = load i64, ptr %6, align 8, !tbaa !78
  %105 = icmp ugt i64 %104, %103
  br i1 %105, label %73, label %133, !llvm.loop !83

106:                                              ; preds = %1
  %107 = tail call i32 (ptr, ptr, ...) @fprintf(ptr noundef %10, ptr noundef nonnull @.str.21, i32 noundef %12)
  %108 = load i64, ptr %6, align 8, !tbaa !78
  %109 = icmp eq i64 %108, 0
  br i1 %109, label %133, label %110

110:                                              ; preds = %106
  %111 = getelementptr inbounds %class.Mesh, ptr %0, i64 0, i32 64
  %112 = getelementptr inbounds %class.Mesh, ptr %0, i64 0, i32 65
  %113 = getelementptr inbounds %class.Mesh, ptr %0, i64 0, i32 67
  br label %114

114:                                              ; preds = %110, %114
  %115 = phi i64 [ 0, %110 ], [ %130, %114 ]
  %116 = trunc i64 %115 to i32
  %117 = load ptr, ptr %9, align 8, !tbaa !79
  %118 = load i32, ptr %11, align 4, !tbaa !80
  %119 = load ptr, ptr %111, align 8, !tbaa !60
  %120 = getelementptr inbounds i32, ptr %119, i64 %115
  %121 = load i32, ptr %120, align 4, !tbaa !67
  %122 = load ptr, ptr %112, align 8, !tbaa !61
  %123 = getelementptr inbounds i32, ptr %122, i64 %115
  %124 = load i32, ptr %123, align 4, !tbaa !67
  %125 = load ptr, ptr %113, align 8, !tbaa !62
  %126 = getelementptr inbounds i32, ptr %125, i64 %115
  %127 = load i32, ptr %126, align 4, !tbaa !67
  %128 = tail call i32 (ptr, ptr, ...) @fprintf(ptr noundef %117, ptr noundef nonnull @.str.22, i32 noundef %118, i32 noundef %116, i32 noundef %121, i32 noundef %124, i32 noundef %127)
  %129 = add nuw nsw i64 %115, 1
  %130 = and i64 %129, 4294967295
  %131 = load i64, ptr %6, align 8, !tbaa !78
  %132 = icmp ugt i64 %131, %130
  br i1 %132, label %114, label %133, !llvm.loop !84

133:                                              ; preds = %73, %114, %28, %106
  ret void
}

declare noundef i64 @_ZN10MallocPlus15get_memory_sizeEPv(ptr noundef nonnull align 8 dereferenceable(96), ptr noundef) local_unnamed_addr #7

; Function Attrs: mustprogress nofree norecurse nosync nounwind willreturn memory(none) uwtable
define dso_local void @_ZN4Mesh41compare_neighbors_cpu_local_to_cpu_globalEjjPS_PiS1_(ptr nocapture noundef nonnull align 8 dereferenceable(2288) %0, i32 noundef %1, i32 noundef %2, ptr nocapture noundef %3, ptr nocapture noundef %4, ptr nocapture noundef %5) local_unnamed_addr #10 align 2 {
  ret void
}

; Function Attrs: uwtable
define dso_local void @_ZN4Mesh39compare_indices_cpu_local_to_cpu_globalEjPS_PiS1_i(ptr nocapture noundef nonnull readnone align 8 dereferenceable(2288) %0, i32 noundef %1, ptr nocapture noundef readonly %2, ptr nocapture noundef readnone %3, ptr nocapture noundef readnone %4, i32 noundef %5) local_unnamed_addr #3 align 2 personality ptr @__gxx_personality_v0 {
  %7 = getelementptr inbounds %class.Mesh, ptr %2, i64 0, i32 68
  %8 = load ptr, ptr %7, align 8, !tbaa !85
  %9 = getelementptr inbounds %class.Mesh, ptr %2, i64 0, i32 64
  %10 = load ptr, ptr %9, align 8, !tbaa !60
  %11 = getelementptr inbounds %class.Mesh, ptr %2, i64 0, i32 65
  %12 = load ptr, ptr %11, align 8, !tbaa !61
  %13 = getelementptr inbounds %class.Mesh, ptr %2, i64 0, i32 67
  %14 = load ptr, ptr %13, align 8, !tbaa !62
  %15 = zext i32 %1 to i64
  %16 = icmp eq i32 %1, 0
  br i1 %16, label %44, label %17

17:                                               ; preds = %6
  %18 = shl nuw nsw i64 %15, 2
  %19 = tail call noalias noundef nonnull ptr @_Znwm(i64 noundef %18) #35
  store i32 0, ptr %19, align 4, !tbaa !67
  %20 = icmp eq i32 %1, 1
  br i1 %20, label %24, label %21

21:                                               ; preds = %17
  %22 = getelementptr i32, ptr %19, i64 1
  %23 = add nsw i64 %18, -4
  tail call void @llvm.memset.p0.i64(ptr align 4 %22, i8 0, i64 %23, i1 false), !tbaa !67
  br label %24

24:                                               ; preds = %21, %17
  %25 = invoke noalias noundef nonnull ptr @_Znwm(i64 noundef %18) #35
          to label %26 unwind label %45

26:                                               ; preds = %24
  store i32 0, ptr %25, align 4, !tbaa !67
  br i1 %20, label %30, label %27

27:                                               ; preds = %26
  %28 = getelementptr i32, ptr %25, i64 1
  %29 = add nsw i64 %18, -4
  tail call void @llvm.memset.p0.i64(ptr align 4 %28, i8 0, i64 %29, i1 false), !tbaa !67
  br label %30

30:                                               ; preds = %27, %26
  %31 = invoke noalias noundef nonnull ptr @_Znwm(i64 noundef %18) #35
          to label %32 unwind label %47

32:                                               ; preds = %30
  store i32 0, ptr %31, align 4, !tbaa !67
  br i1 %20, label %36, label %33

33:                                               ; preds = %32
  %34 = getelementptr i32, ptr %31, i64 1
  %35 = add nsw i64 %18, -4
  tail call void @llvm.memset.p0.i64(ptr align 4 %34, i8 0, i64 %35, i1 false), !tbaa !67
  br label %36

36:                                               ; preds = %33, %32
  %37 = invoke noalias noundef nonnull ptr @_Znwm(i64 noundef %18) #35
          to label %38 unwind label %49

38:                                               ; preds = %36
  store i32 0, ptr %37, align 4, !tbaa !67
  br i1 %20, label %39, label %40

39:                                               ; preds = %40, %38
  br label %51

40:                                               ; preds = %38
  %41 = getelementptr i32, ptr %37, i64 1
  %42 = add nsw i64 %18, -4
  tail call void @llvm.memset.p0.i64(ptr align 4 %41, i8 0, i64 %42, i1 false), !tbaa !67
  br label %39

43:                                               ; preds = %88
  tail call void @_ZdlPv(ptr noundef nonnull %37) #33
  tail call void @_ZdlPv(ptr noundef nonnull %31) #33
  tail call void @_ZdlPv(ptr noundef nonnull %25) #33
  tail call void @_ZdlPv(ptr noundef nonnull %19) #33
  br label %44

44:                                               ; preds = %6, %43
  ret void

45:                                               ; preds = %24
  %46 = landingpad { ptr, i32 }
          cleanup
  br label %93

47:                                               ; preds = %30
  %48 = landingpad { ptr, i32 }
          cleanup
  br label %91

49:                                               ; preds = %36
  %50 = landingpad { ptr, i32 }
          cleanup
  tail call void @_ZdlPv(ptr noundef nonnull %31) #33
  br label %91

51:                                               ; preds = %39, %88
  %52 = phi i64 [ %89, %88 ], [ 0, %39 ]
  %53 = getelementptr inbounds i32, ptr %8, i64 %52
  %54 = load i32, ptr %53, align 4, !tbaa !67
  %55 = getelementptr inbounds i32, ptr %37, i64 %52
  %56 = load i32, ptr %55, align 4, !tbaa !67
  %57 = icmp eq i32 %54, %56
  br i1 %57, label %61, label %58

58:                                               ; preds = %51
  %59 = trunc i64 %52 to i32
  %60 = tail call i32 (ptr, ...) @printf(ptr noundef nonnull dereferenceable(1) @.str.23, i32 noundef %5, i32 noundef %59, i32 noundef %54, i32 noundef %56)
  br label %61

61:                                               ; preds = %58, %51
  %62 = getelementptr inbounds i32, ptr %10, i64 %52
  %63 = load i32, ptr %62, align 4, !tbaa !67
  %64 = getelementptr inbounds i32, ptr %19, i64 %52
  %65 = load i32, ptr %64, align 4, !tbaa !67
  %66 = icmp eq i32 %63, %65
  br i1 %66, label %70, label %67

67:                                               ; preds = %61
  %68 = trunc i64 %52 to i32
  %69 = tail call i32 (ptr, ...) @printf(ptr noundef nonnull dereferenceable(1) @.str.24, i32 noundef %5, i32 noundef %68, i32 noundef %63, i32 noundef %65)
  br label %70

70:                                               ; preds = %67, %61
  %71 = getelementptr inbounds i32, ptr %12, i64 %52
  %72 = load i32, ptr %71, align 4, !tbaa !67
  %73 = getelementptr inbounds i32, ptr %25, i64 %52
  %74 = load i32, ptr %73, align 4, !tbaa !67
  %75 = icmp eq i32 %72, %74
  br i1 %75, label %79, label %76

76:                                               ; preds = %70
  %77 = trunc i64 %52 to i32
  %78 = tail call i32 (ptr, ...) @printf(ptr noundef nonnull dereferenceable(1) @.str.25, i32 noundef %5, i32 noundef %77, i32 noundef %72, i32 noundef %74)
  br label %79

79:                                               ; preds = %76, %70
  %80 = getelementptr inbounds i32, ptr %14, i64 %52
  %81 = load i32, ptr %80, align 4, !tbaa !67
  %82 = getelementptr inbounds i32, ptr %31, i64 %52
  %83 = load i32, ptr %82, align 4, !tbaa !67
  %84 = icmp eq i32 %81, %83
  br i1 %84, label %88, label %85

85:                                               ; preds = %79
  %86 = trunc i64 %52 to i32
  %87 = tail call i32 (ptr, ...) @printf(ptr noundef nonnull dereferenceable(1) @.str.26, i32 noundef %5, i32 noundef %86, i32 noundef %81, i32 noundef %83)
  br label %88

88:                                               ; preds = %79, %85
  %89 = add nuw nsw i64 %52, 1
  %90 = icmp eq i64 %89, %15
  br i1 %90, label %43, label %51, !llvm.loop !86

91:                                               ; preds = %47, %49
  %92 = phi { ptr, i32 } [ %48, %47 ], [ %50, %49 ]
  tail call void @_ZdlPv(ptr noundef nonnull %25) #33
  br label %93

93:                                               ; preds = %91, %45
  %94 = phi { ptr, i32 } [ %46, %45 ], [ %92, %91 ]
  tail call void @_ZdlPv(ptr noundef nonnull %19) #33
  resume { ptr, i32 } %94
}

; Function Attrs: uwtable
define dso_local void @_ZN4Mesh50compare_coordinates_cpu_local_to_cpu_global_doubleEjPiS0_PdS1_S1_S1_S1_S1_S1_S1_S1_S1_i(ptr nocapture noundef nonnull readnone align 8 dereferenceable(2288) %0, i32 noundef %1, ptr nocapture noundef readnone %2, ptr nocapture noundef readnone %3, ptr nocapture noundef readnone %4, ptr nocapture noundef readnone %5, ptr nocapture noundef readnone %6, ptr nocapture noundef readnone %7, ptr nocapture noundef readnone %8, ptr nocapture noundef readonly %9, ptr nocapture noundef readonly %10, ptr nocapture noundef readonly %11, ptr nocapture noundef readonly %12, ptr nocapture noundef readonly %13, i32 noundef %14) local_unnamed_addr #3 align 2 personality ptr @__gxx_personality_v0 {
  %16 = zext i32 %1 to i64
  %17 = icmp eq i32 %1, 0
  br i1 %17, label %51, label %18

18:                                               ; preds = %15
  %19 = shl nuw nsw i64 %16, 3
  %20 = tail call noalias noundef nonnull ptr @_Znwm(i64 noundef %19) #35
  store double 0.000000e+00, ptr %20, align 8, !tbaa !45
  %21 = icmp eq i32 %1, 1
  br i1 %21, label %25, label %22

22:                                               ; preds = %18
  %23 = getelementptr double, ptr %20, i64 1
  %24 = add nsw i64 %19, -8
  tail call void @llvm.memset.p0.i64(ptr align 8 %23, i8 0, i64 %24, i1 false), !tbaa !45
  br label %25

25:                                               ; preds = %22, %18
  %26 = invoke noalias noundef nonnull ptr @_Znwm(i64 noundef %19) #35
          to label %27 unwind label %52

27:                                               ; preds = %25
  store double 0.000000e+00, ptr %26, align 8, !tbaa !45
  br i1 %21, label %31, label %28

28:                                               ; preds = %27
  %29 = getelementptr double, ptr %26, i64 1
  %30 = add nsw i64 %19, -8
  tail call void @llvm.memset.p0.i64(ptr align 8 %29, i8 0, i64 %30, i1 false), !tbaa !45
  br label %31

31:                                               ; preds = %28, %27
  %32 = invoke noalias noundef nonnull ptr @_Znwm(i64 noundef %19) #35
          to label %33 unwind label %54

33:                                               ; preds = %31
  store double 0.000000e+00, ptr %32, align 8, !tbaa !45
  br i1 %21, label %37, label %34

34:                                               ; preds = %33
  %35 = getelementptr double, ptr %32, i64 1
  %36 = add nsw i64 %19, -8
  tail call void @llvm.memset.p0.i64(ptr align 8 %35, i8 0, i64 %36, i1 false), !tbaa !45
  br label %37

37:                                               ; preds = %34, %33
  %38 = invoke noalias noundef nonnull ptr @_Znwm(i64 noundef %19) #35
          to label %39 unwind label %56

39:                                               ; preds = %37
  store double 0.000000e+00, ptr %38, align 8, !tbaa !45
  br i1 %21, label %43, label %40

40:                                               ; preds = %39
  %41 = getelementptr double, ptr %38, i64 1
  %42 = add nsw i64 %19, -8
  tail call void @llvm.memset.p0.i64(ptr align 8 %41, i8 0, i64 %42, i1 false), !tbaa !45
  br label %43

43:                                               ; preds = %40, %39
  %44 = invoke noalias noundef nonnull ptr @_Znwm(i64 noundef %19) #35
          to label %45 unwind label %58

45:                                               ; preds = %43
  store double 0.000000e+00, ptr %44, align 8, !tbaa !45
  br i1 %21, label %46, label %47

46:                                               ; preds = %47, %45
  br label %60

47:                                               ; preds = %45
  %48 = getelementptr double, ptr %44, i64 1
  %49 = add nsw i64 %19, -8
  tail call void @llvm.memset.p0.i64(ptr align 8 %48, i8 0, i64 %49, i1 false), !tbaa !45
  br label %46

50:                                               ; preds = %116
  tail call void @_ZdlPv(ptr noundef nonnull %44) #33
  tail call void @_ZdlPv(ptr noundef nonnull %38) #33
  tail call void @_ZdlPv(ptr noundef nonnull %32) #33
  tail call void @_ZdlPv(ptr noundef nonnull %26) #33
  tail call void @_ZdlPv(ptr noundef nonnull %20) #33
  br label %51

51:                                               ; preds = %15, %50
  ret void

52:                                               ; preds = %25
  %53 = landingpad { ptr, i32 }
          cleanup
  br label %123

54:                                               ; preds = %31
  %55 = landingpad { ptr, i32 }
          cleanup
  br label %121

56:                                               ; preds = %37
  %57 = landingpad { ptr, i32 }
          cleanup
  br label %119

58:                                               ; preds = %43
  %59 = landingpad { ptr, i32 }
          cleanup
  tail call void @_ZdlPv(ptr noundef nonnull %38) #33
  br label %119

60:                                               ; preds = %46, %116
  %61 = phi i64 [ %117, %116 ], [ 0, %46 ]
  %62 = getelementptr inbounds double, ptr %9, i64 %61
  %63 = load double, ptr %62, align 8, !tbaa !45
  %64 = getelementptr inbounds double, ptr %20, i64 %61
  %65 = load double, ptr %64, align 8, !tbaa !45
  %66 = fsub double %63, %65
  %67 = tail call double @llvm.fabs.f64(double %66)
  %68 = fcmp ogt double %67, 2.500000e-02
  br i1 %68, label %69, label %72

69:                                               ; preds = %60
  %70 = trunc i64 %61 to i32
  %71 = tail call i32 (ptr, ...) @printf(ptr noundef nonnull dereferenceable(1) @.str.27, i32 noundef %14, i32 noundef %70, double noundef %63, double noundef %65)
  br label %72

72:                                               ; preds = %69, %60
  %73 = getelementptr inbounds double, ptr %10, i64 %61
  %74 = load double, ptr %73, align 8, !tbaa !45
  %75 = getelementptr inbounds double, ptr %26, i64 %61
  %76 = load double, ptr %75, align 8, !tbaa !45
  %77 = fsub double %74, %76
  %78 = tail call double @llvm.fabs.f64(double %77)
  %79 = fcmp ogt double %78, 2.500000e-02
  br i1 %79, label %80, label %83

80:                                               ; preds = %72
  %81 = trunc i64 %61 to i32
  %82 = tail call i32 (ptr, ...) @printf(ptr noundef nonnull dereferenceable(1) @.str.28, i32 noundef %14, i32 noundef %81, double noundef %74, double noundef %76)
  br label %83

83:                                               ; preds = %80, %72
  %84 = getelementptr inbounds double, ptr %11, i64 %61
  %85 = load double, ptr %84, align 8, !tbaa !45
  %86 = getelementptr inbounds double, ptr %32, i64 %61
  %87 = load double, ptr %86, align 8, !tbaa !45
  %88 = fsub double %85, %87
  %89 = tail call double @llvm.fabs.f64(double %88)
  %90 = fcmp ogt double %89, 2.500000e-02
  br i1 %90, label %91, label %94

91:                                               ; preds = %83
  %92 = trunc i64 %61 to i32
  %93 = tail call i32 (ptr, ...) @printf(ptr noundef nonnull dereferenceable(1) @.str.29, i32 noundef %14, i32 noundef %92, double noundef %85, double noundef %87)
  br label %94

94:                                               ; preds = %91, %83
  %95 = getelementptr inbounds double, ptr %12, i64 %61
  %96 = load double, ptr %95, align 8, !tbaa !45
  %97 = getelementptr inbounds double, ptr %38, i64 %61
  %98 = load double, ptr %97, align 8, !tbaa !45
  %99 = fsub double %96, %98
  %100 = tail call double @llvm.fabs.f64(double %99)
  %101 = fcmp ogt double %100, 2.500000e-02
  br i1 %101, label %102, label %105

102:                                              ; preds = %94
  %103 = trunc i64 %61 to i32
  %104 = tail call i32 (ptr, ...) @printf(ptr noundef nonnull dereferenceable(1) @.str.30, i32 noundef %14, i32 noundef %103, double noundef %96, double noundef %98)
  br label %105

105:                                              ; preds = %102, %94
  %106 = getelementptr inbounds double, ptr %13, i64 %61
  %107 = load double, ptr %106, align 8, !tbaa !45
  %108 = getelementptr inbounds double, ptr %44, i64 %61
  %109 = load double, ptr %108, align 8, !tbaa !45
  %110 = fsub double %107, %109
  %111 = tail call double @llvm.fabs.f64(double %110)
  %112 = fcmp ogt double %111, 2.500000e-02
  br i1 %112, label %113, label %116

113:                                              ; preds = %105
  %114 = trunc i64 %61 to i32
  %115 = tail call i32 (ptr, ...) @printf(ptr noundef nonnull dereferenceable(1) @.str.31, i32 noundef %14, i32 noundef %114, double noundef %107, double noundef %109)
  br label %116

116:                                              ; preds = %105, %113
  %117 = add nuw nsw i64 %61, 1
  %118 = icmp eq i64 %117, %16
  br i1 %118, label %50, label %60, !llvm.loop !87

119:                                              ; preds = %56, %58
  %120 = phi { ptr, i32 } [ %57, %56 ], [ %59, %58 ]
  tail call void @_ZdlPv(ptr noundef nonnull %32) #33
  br label %121

121:                                              ; preds = %54, %119
  %122 = phi { ptr, i32 } [ %55, %54 ], [ %120, %119 ]
  tail call void @_ZdlPv(ptr noundef nonnull %26) #33
  br label %123

123:                                              ; preds = %121, %52
  %124 = phi { ptr, i32 } [ %53, %52 ], [ %122, %121 ]
  tail call void @_ZdlPv(ptr noundef nonnull %20) #33
  resume { ptr, i32 } %124
}

; Function Attrs: mustprogress nocallback nofree nosync nounwind speculatable willreturn memory(none)
declare double @llvm.fabs.f64(double) #11

; Function Attrs: uwtable
define dso_local void @_ZN4Mesh49compare_coordinates_cpu_local_to_cpu_global_floatEjPiS0_PdS1_S1_S1_PfS1_S1_S1_S1_S2_i(ptr nocapture noundef nonnull readnone align 8 dereferenceable(2288) %0, i32 noundef %1, ptr nocapture noundef readnone %2, ptr nocapture noundef readnone %3, ptr nocapture noundef readnone %4, ptr nocapture noundef readnone %5, ptr nocapture noundef readnone %6, ptr nocapture noundef readnone %7, ptr nocapture noundef readnone %8, ptr nocapture noundef readonly %9, ptr nocapture noundef readonly %10, ptr nocapture noundef readonly %11, ptr nocapture noundef readonly %12, ptr nocapture noundef readonly %13, i32 noundef %14) local_unnamed_addr #3 align 2 personality ptr @__gxx_personality_v0 {
  %16 = zext i32 %1 to i64
  %17 = icmp eq i32 %1, 0
  br i1 %17, label %52, label %18

18:                                               ; preds = %15
  %19 = shl nuw nsw i64 %16, 3
  %20 = tail call noalias noundef nonnull ptr @_Znwm(i64 noundef %19) #35
  store double 0.000000e+00, ptr %20, align 8, !tbaa !45
  %21 = icmp eq i32 %1, 1
  br i1 %21, label %25, label %22

22:                                               ; preds = %18
  %23 = getelementptr double, ptr %20, i64 1
  %24 = add nsw i64 %19, -8
  tail call void @llvm.memset.p0.i64(ptr align 8 %23, i8 0, i64 %24, i1 false), !tbaa !45
  br label %25

25:                                               ; preds = %22, %18
  %26 = invoke noalias noundef nonnull ptr @_Znwm(i64 noundef %19) #35
          to label %27 unwind label %53

27:                                               ; preds = %25
  store double 0.000000e+00, ptr %26, align 8, !tbaa !45
  br i1 %21, label %31, label %28

28:                                               ; preds = %27
  %29 = getelementptr double, ptr %26, i64 1
  %30 = add nsw i64 %19, -8
  tail call void @llvm.memset.p0.i64(ptr align 8 %29, i8 0, i64 %30, i1 false), !tbaa !45
  br label %31

31:                                               ; preds = %28, %27
  %32 = invoke noalias noundef nonnull ptr @_Znwm(i64 noundef %19) #35
          to label %33 unwind label %55

33:                                               ; preds = %31
  store double 0.000000e+00, ptr %32, align 8, !tbaa !45
  br i1 %21, label %37, label %34

34:                                               ; preds = %33
  %35 = getelementptr double, ptr %32, i64 1
  %36 = add nsw i64 %19, -8
  tail call void @llvm.memset.p0.i64(ptr align 8 %35, i8 0, i64 %36, i1 false), !tbaa !45
  br label %37

37:                                               ; preds = %34, %33
  %38 = invoke noalias noundef nonnull ptr @_Znwm(i64 noundef %19) #35
          to label %39 unwind label %57

39:                                               ; preds = %37
  store double 0.000000e+00, ptr %38, align 8, !tbaa !45
  br i1 %21, label %43, label %40

40:                                               ; preds = %39
  %41 = getelementptr double, ptr %38, i64 1
  %42 = add nsw i64 %19, -8
  tail call void @llvm.memset.p0.i64(ptr align 8 %41, i8 0, i64 %42, i1 false), !tbaa !45
  br label %43

43:                                               ; preds = %40, %39
  %44 = shl nuw nsw i64 %16, 2
  %45 = invoke noalias noundef nonnull ptr @_Znwm(i64 noundef %44) #35
          to label %46 unwind label %59

46:                                               ; preds = %43
  store float 0.000000e+00, ptr %45, align 4, !tbaa !88
  br i1 %21, label %47, label %48

47:                                               ; preds = %48, %46
  br label %61

48:                                               ; preds = %46
  %49 = getelementptr float, ptr %45, i64 1
  %50 = add nsw i64 %44, -4
  tail call void @llvm.memset.p0.i64(ptr align 4 %49, i8 0, i64 %50, i1 false), !tbaa !88
  br label %47

51:                                               ; preds = %120
  tail call void @_ZdlPv(ptr noundef nonnull %45) #33
  tail call void @_ZdlPv(ptr noundef nonnull %38) #33
  tail call void @_ZdlPv(ptr noundef nonnull %32) #33
  tail call void @_ZdlPv(ptr noundef nonnull %26) #33
  tail call void @_ZdlPv(ptr noundef nonnull %20) #33
  br label %52

52:                                               ; preds = %15, %51
  ret void

53:                                               ; preds = %25
  %54 = landingpad { ptr, i32 }
          cleanup
  br label %127

55:                                               ; preds = %31
  %56 = landingpad { ptr, i32 }
          cleanup
  br label %125

57:                                               ; preds = %37
  %58 = landingpad { ptr, i32 }
          cleanup
  br label %123

59:                                               ; preds = %43
  %60 = landingpad { ptr, i32 }
          cleanup
  tail call void @_ZdlPv(ptr noundef nonnull %38) #33
  br label %123

61:                                               ; preds = %47, %120
  %62 = phi i64 [ %121, %120 ], [ 0, %47 ]
  %63 = getelementptr inbounds double, ptr %9, i64 %62
  %64 = load double, ptr %63, align 8, !tbaa !45
  %65 = getelementptr inbounds double, ptr %20, i64 %62
  %66 = load double, ptr %65, align 8, !tbaa !45
  %67 = fsub double %64, %66
  %68 = tail call double @llvm.fabs.f64(double %67)
  %69 = fcmp ogt double %68, 2.500000e-02
  br i1 %69, label %70, label %73

70:                                               ; preds = %61
  %71 = trunc i64 %62 to i32
  %72 = tail call i32 (ptr, ...) @printf(ptr noundef nonnull dereferenceable(1) @.str.27, i32 noundef %14, i32 noundef %71, double noundef %64, double noundef %66)
  br label %73

73:                                               ; preds = %70, %61
  %74 = getelementptr inbounds double, ptr %10, i64 %62
  %75 = load double, ptr %74, align 8, !tbaa !45
  %76 = getelementptr inbounds double, ptr %26, i64 %62
  %77 = load double, ptr %76, align 8, !tbaa !45
  %78 = fsub double %75, %77
  %79 = tail call double @llvm.fabs.f64(double %78)
  %80 = fcmp ogt double %79, 2.500000e-02
  br i1 %80, label %81, label %84

81:                                               ; preds = %73
  %82 = trunc i64 %62 to i32
  %83 = tail call i32 (ptr, ...) @printf(ptr noundef nonnull dereferenceable(1) @.str.28, i32 noundef %14, i32 noundef %82, double noundef %75, double noundef %77)
  br label %84

84:                                               ; preds = %81, %73
  %85 = getelementptr inbounds double, ptr %11, i64 %62
  %86 = load double, ptr %85, align 8, !tbaa !45
  %87 = getelementptr inbounds double, ptr %32, i64 %62
  %88 = load double, ptr %87, align 8, !tbaa !45
  %89 = fsub double %86, %88
  %90 = tail call double @llvm.fabs.f64(double %89)
  %91 = fcmp ogt double %90, 2.500000e-02
  br i1 %91, label %92, label %95

92:                                               ; preds = %84
  %93 = trunc i64 %62 to i32
  %94 = tail call i32 (ptr, ...) @printf(ptr noundef nonnull dereferenceable(1) @.str.29, i32 noundef %14, i32 noundef %93, double noundef %86, double noundef %88)
  br label %95

95:                                               ; preds = %92, %84
  %96 = getelementptr inbounds double, ptr %12, i64 %62
  %97 = load double, ptr %96, align 8, !tbaa !45
  %98 = getelementptr inbounds double, ptr %38, i64 %62
  %99 = load double, ptr %98, align 8, !tbaa !45
  %100 = fsub double %97, %99
  %101 = tail call double @llvm.fabs.f64(double %100)
  %102 = fcmp ogt double %101, 2.500000e-02
  br i1 %102, label %103, label %106

103:                                              ; preds = %95
  %104 = trunc i64 %62 to i32
  %105 = tail call i32 (ptr, ...) @printf(ptr noundef nonnull dereferenceable(1) @.str.30, i32 noundef %14, i32 noundef %104, double noundef %97, double noundef %99)
  br label %106

106:                                              ; preds = %103, %95
  %107 = getelementptr inbounds float, ptr %13, i64 %62
  %108 = load float, ptr %107, align 4, !tbaa !88
  %109 = getelementptr inbounds float, ptr %45, i64 %62
  %110 = load float, ptr %109, align 4, !tbaa !88
  %111 = fsub float %108, %110
  %112 = tail call float @llvm.fabs.f32(float %111)
  %113 = fpext float %112 to double
  %114 = fcmp ogt double %113, 2.500000e-02
  br i1 %114, label %115, label %120

115:                                              ; preds = %106
  %116 = fpext float %108 to double
  %117 = fpext float %110 to double
  %118 = trunc i64 %62 to i32
  %119 = tail call i32 (ptr, ...) @printf(ptr noundef nonnull dereferenceable(1) @.str.31, i32 noundef %14, i32 noundef %118, double noundef %116, double noundef %117)
  br label %120

120:                                              ; preds = %106, %115
  %121 = add nuw nsw i64 %62, 1
  %122 = icmp eq i64 %121, %16
  br i1 %122, label %51, label %61, !llvm.loop !89

123:                                              ; preds = %57, %59
  %124 = phi { ptr, i32 } [ %58, %57 ], [ %60, %59 ]
  tail call void @_ZdlPv(ptr noundef nonnull %32) #33
  br label %125

125:                                              ; preds = %55, %123
  %126 = phi { ptr, i32 } [ %56, %55 ], [ %124, %123 ]
  tail call void @_ZdlPv(ptr noundef nonnull %26) #33
  br label %127

127:                                              ; preds = %125, %53
  %128 = phi { ptr, i32 } [ %54, %53 ], [ %126, %125 ]
  tail call void @_ZdlPv(ptr noundef nonnull %20) #33
  resume { ptr, i32 } %128
}

; Function Attrs: uwtable
define dso_local void @_ZN4Mesh36compare_mpot_cpu_local_to_cpu_globalEjPiS0_S0_S0_i(ptr nocapture noundef nonnull readonly align 8 dereferenceable(2288) %0, i32 noundef %1, ptr nocapture noundef readnone %2, ptr nocapture noundef readnone %3, ptr nocapture noundef readnone %4, ptr nocapture noundef readonly %5, i32 noundef %6) local_unnamed_addr #3 align 2 personality ptr @__gxx_personality_v0 {
  %8 = icmp eq i32 %1, 0
  br i1 %8, label %21, label %9

9:                                                ; preds = %7
  %10 = zext i32 %1 to i64
  %11 = shl nuw nsw i64 %10, 2
  %12 = tail call noalias noundef nonnull ptr @_Znwm(i64 noundef %11) #35
  store i32 0, ptr %12, align 4, !tbaa !67
  %13 = icmp eq i32 %1, 1
  br i1 %13, label %17, label %14

14:                                               ; preds = %9
  %15 = getelementptr i32, ptr %12, i64 1
  %16 = add nsw i64 %11, -4
  tail call void @llvm.memset.p0.i64(ptr align 4 %15, i8 0, i64 %16, i1 false), !tbaa !67
  br label %17

17:                                               ; preds = %14, %9
  %18 = getelementptr inbounds %class.Mesh, ptr %0, i64 0, i32 9
  %19 = zext i32 %1 to i64
  br label %22

20:                                               ; preds = %35
  tail call void @_ZdlPv(ptr noundef nonnull %12) #33
  br label %21

21:                                               ; preds = %7, %20
  ret void

22:                                               ; preds = %17, %35
  %23 = phi i64 [ 0, %17 ], [ %36, %35 ]
  %24 = getelementptr inbounds i32, ptr %5, i64 %23
  %25 = load i32, ptr %24, align 4, !tbaa !67
  %26 = getelementptr inbounds i32, ptr %12, i64 %23
  %27 = load i32, ptr %26, align 4, !tbaa !67
  %28 = icmp ne i32 %25, %27
  %29 = load i32, ptr %18, align 4
  %30 = icmp eq i32 %29, 0
  %31 = select i1 %28, i1 %30, i1 false
  br i1 %31, label %32, label %35

32:                                               ; preds = %22
  %33 = trunc i64 %23 to i32
  %34 = tail call i32 (ptr, ...) @printf(ptr noundef nonnull dereferenceable(1) @.str.32, i32 noundef 0, i32 noundef %6, i32 noundef %33, i32 noundef %25, i32 noundef %27)
  br label %35

35:                                               ; preds = %22, %32
  %36 = add nuw nsw i64 %23, 1
  %37 = icmp eq i64 %36, %19
  br i1 %37, label %20, label %22, !llvm.loop !90
}

; Function Attrs: uwtable
define dso_local void @_ZN4MeshC2Eiiiiddiii(ptr noundef nonnull align 8 dereferenceable(2288) %0, i32 noundef %1, i32 noundef %2, i32 noundef %3, i32 noundef %4, double noundef %5, double noundef %6, i32 noundef %7, i32 noundef %8, i32 %9) unnamed_addr #3 align 2 personality ptr @__gxx_personality_v0 {
  %11 = alloca [4 x i32], align 16
  %12 = alloca [4 x i32], align 16
  %13 = getelementptr inbounds %class.Mesh, ptr %0, i64 0, i32 1, i32 0, i32 0, i32 0, i32 1
  store i32 0, ptr %13, align 8, !tbaa !50
  %14 = getelementptr inbounds %class.Mesh, ptr %0, i64 0, i32 1, i32 0, i32 0, i32 0, i32 1, i32 0, i32 1
  store ptr null, ptr %14, align 8, !tbaa !51
  %15 = getelementptr inbounds %class.Mesh, ptr %0, i64 0, i32 1, i32 0, i32 0, i32 0, i32 1, i32 0, i32 2
  store ptr %13, ptr %15, align 8, !tbaa !52
  %16 = getelementptr inbounds %class.Mesh, ptr %0, i64 0, i32 1, i32 0, i32 0, i32 0, i32 1, i32 0, i32 3
  store ptr %13, ptr %16, align 8, !tbaa !53
  %17 = getelementptr inbounds %class.Mesh, ptr %0, i64 0, i32 1, i32 0, i32 0, i32 0, i32 1, i32 1
  store i64 0, ptr %17, align 8, !tbaa !54
  %18 = getelementptr inbounds %class.Mesh, ptr %0, i64 0, i32 1, i32 1, i32 0, i32 0, i32 1
  store i32 0, ptr %18, align 8, !tbaa !50
  %19 = getelementptr inbounds %class.Mesh, ptr %0, i64 0, i32 1, i32 1, i32 0, i32 0, i32 1, i32 0, i32 1
  store ptr null, ptr %19, align 8, !tbaa !51
  %20 = getelementptr inbounds %class.Mesh, ptr %0, i64 0, i32 1, i32 1, i32 0, i32 0, i32 1, i32 0, i32 2
  store ptr %18, ptr %20, align 8, !tbaa !52
  %21 = getelementptr inbounds %class.Mesh, ptr %0, i64 0, i32 1, i32 1, i32 0, i32 0, i32 1, i32 0, i32 3
  store ptr %18, ptr %21, align 8, !tbaa !53
  %22 = getelementptr inbounds %class.Mesh, ptr %0, i64 0, i32 1, i32 1, i32 0, i32 0, i32 1, i32 1
  store i64 0, ptr %22, align 8, !tbaa !54
  %23 = getelementptr inbounds %class.Mesh, ptr %0, i64 0, i32 2, i32 0, i32 0, i32 0, i32 1
  store i32 0, ptr %23, align 8, !tbaa !50
  %24 = getelementptr inbounds %class.Mesh, ptr %0, i64 0, i32 2, i32 0, i32 0, i32 0, i32 1, i32 0, i32 1
  store ptr null, ptr %24, align 8, !tbaa !51
  %25 = getelementptr inbounds %class.Mesh, ptr %0, i64 0, i32 2, i32 0, i32 0, i32 0, i32 1, i32 0, i32 2
  store ptr %23, ptr %25, align 8, !tbaa !52
  %26 = getelementptr inbounds %class.Mesh, ptr %0, i64 0, i32 2, i32 0, i32 0, i32 0, i32 1, i32 0, i32 3
  store ptr %23, ptr %26, align 8, !tbaa !53
  %27 = getelementptr inbounds %class.Mesh, ptr %0, i64 0, i32 2, i32 0, i32 0, i32 0, i32 1, i32 1
  store i64 0, ptr %27, align 8, !tbaa !54
  %28 = getelementptr inbounds %class.Mesh, ptr %0, i64 0, i32 2, i32 1, i32 0, i32 0, i32 1
  store i32 0, ptr %28, align 8, !tbaa !50
  %29 = getelementptr inbounds %class.Mesh, ptr %0, i64 0, i32 2, i32 1, i32 0, i32 0, i32 1, i32 0, i32 1
  store ptr null, ptr %29, align 8, !tbaa !51
  %30 = getelementptr inbounds %class.Mesh, ptr %0, i64 0, i32 2, i32 1, i32 0, i32 0, i32 1, i32 0, i32 2
  store ptr %28, ptr %30, align 8, !tbaa !52
  %31 = getelementptr inbounds %class.Mesh, ptr %0, i64 0, i32 2, i32 1, i32 0, i32 0, i32 1, i32 0, i32 3
  store ptr %28, ptr %31, align 8, !tbaa !53
  %32 = getelementptr inbounds %class.Mesh, ptr %0, i64 0, i32 2, i32 1, i32 0, i32 0, i32 1, i32 1
  %33 = getelementptr inbounds %class.Mesh, ptr %0, i64 0, i32 19
  %34 = getelementptr inbounds %class.Mesh, ptr %0, i64 0, i32 20
  %35 = getelementptr inbounds %class.Mesh, ptr %0, i64 0, i32 21
  %36 = getelementptr inbounds %class.Mesh, ptr %0, i64 0, i32 22
  %37 = getelementptr inbounds %class.Mesh, ptr %0, i64 0, i32 25
  %38 = getelementptr inbounds %class.Mesh, ptr %0, i64 0, i32 26
  %39 = getelementptr inbounds %class.Mesh, ptr %0, i64 0, i32 27
  %40 = getelementptr inbounds %class.Mesh, ptr %0, i64 0, i32 28
  %41 = getelementptr inbounds %class.Mesh, ptr %0, i64 0, i32 29
  %42 = getelementptr inbounds %class.Mesh, ptr %0, i64 0, i32 30
  %43 = getelementptr inbounds %class.Mesh, ptr %0, i64 0, i32 31
  %44 = getelementptr inbounds %class.Mesh, ptr %0, i64 0, i32 32
  %45 = getelementptr inbounds %class.Mesh, ptr %0, i64 0, i32 33
  %46 = getelementptr inbounds %class.Mesh, ptr %0, i64 0, i32 34
  %47 = getelementptr inbounds %class.Mesh, ptr %0, i64 0, i32 35
  %48 = getelementptr inbounds %class.Mesh, ptr %0, i64 0, i32 63
  tail call void @llvm.memset.p0.i64(ptr noundef nonnull align 8 dereferenceable(24) %48, i8 0, i64 24, i1 false)
  %49 = getelementptr inbounds %class.Mesh, ptr %0, i64 0, i32 75
  %50 = getelementptr inbounds %class.Mesh, ptr %0, i64 0, i32 76
  %51 = getelementptr inbounds %class.Mesh, ptr %0, i64 0, i32 77
  %52 = getelementptr inbounds %class.Mesh, ptr %0, i64 0, i32 78
  %53 = getelementptr inbounds %class.Mesh, ptr %0, i64 0, i32 79
  %54 = getelementptr inbounds %class.Mesh, ptr %0, i64 0, i32 80
  %55 = getelementptr inbounds %class.Mesh, ptr %0, i64 0, i32 83
  %56 = getelementptr inbounds %class.Mesh, ptr %0, i64 0, i32 84
  %57 = getelementptr inbounds %class.Mesh, ptr %0, i64 0, i32 85
  %58 = getelementptr inbounds %class.Mesh, ptr %0, i64 0, i32 86
  %59 = getelementptr inbounds %class.Mesh, ptr %0, i64 0, i32 87
  %60 = getelementptr inbounds %class.Mesh, ptr %0, i64 0, i32 88
  %61 = getelementptr inbounds %class.Mesh, ptr %0, i64 0, i32 89
  %62 = getelementptr inbounds %class.Mesh, ptr %0, i64 0, i32 90
  %63 = getelementptr inbounds %class.Mesh, ptr %0, i64 0, i32 91
  %64 = getelementptr inbounds %class.Mesh, ptr %0, i64 0, i32 92
  %65 = getelementptr inbounds %class.Mesh, ptr %0, i64 0, i32 93
  %66 = getelementptr inbounds %class.Mesh, ptr %0, i64 0, i32 94
  %67 = getelementptr inbounds %class.Mesh, ptr %0, i64 0, i32 95
  %68 = getelementptr inbounds %class.Mesh, ptr %0, i64 0, i32 96
  %69 = getelementptr inbounds %class.Mesh, ptr %0, i64 0, i32 97
  %70 = getelementptr inbounds %class.Mesh, ptr %0, i64 0, i32 98
  %71 = getelementptr inbounds %class.Mesh, ptr %0, i64 0, i32 99
  %72 = getelementptr inbounds %class.Mesh, ptr %0, i64 0, i32 100
  %73 = getelementptr inbounds %class.Mesh, ptr %0, i64 0, i32 101
  %74 = getelementptr inbounds %class.Mesh, ptr %0, i64 0, i32 102
  %75 = getelementptr inbounds %class.Mesh, ptr %0, i64 0, i32 103
  %76 = getelementptr inbounds %class.Mesh, ptr %0, i64 0, i32 104
  %77 = getelementptr inbounds %class.Mesh, ptr %0, i64 0, i32 105
  %78 = getelementptr inbounds %class.Mesh, ptr %0, i64 0, i32 106
  %79 = getelementptr inbounds %class.Mesh, ptr %0, i64 0, i32 107
  %80 = getelementptr inbounds %class.Mesh, ptr %0, i64 0, i32 108
  %81 = getelementptr inbounds %class.Mesh, ptr %0, i64 0, i32 109
  %82 = getelementptr inbounds %class.Mesh, ptr %0, i64 0, i32 110
  %83 = getelementptr inbounds %class.Mesh, ptr %0, i64 0, i32 111
  %84 = getelementptr inbounds %class.Mesh, ptr %0, i64 0, i32 112
  %85 = getelementptr inbounds %class.Mesh, ptr %0, i64 0, i32 14
  %86 = getelementptr inbounds %class.Mesh, ptr %0, i64 0, i32 1
  %87 = getelementptr inbounds %class.Mesh, ptr %0, i64 0, i32 2
  tail call void @llvm.memset.p0.i64(ptr noundef nonnull align 8 dereferenceable(424) %32, i8 0, i64 424, i1 false)
  tail call void @llvm.memset.p0.i64(ptr noundef nonnull align 8 dereferenceable(16) %85, i8 0, i64 16, i1 false)
  tail call void @llvm.memset.p0.i64(ptr noundef nonnull align 8 dereferenceable(96) %33, i8 0, i64 96, i1 false)
  tail call void @llvm.memset.p0.i64(ptr noundef nonnull align 8 dereferenceable(264) %37, i8 0, i64 264, i1 false)
  tail call void @llvm.memset.p0.i64(ptr noundef nonnull align 8 dereferenceable(144) %49, i8 0, i64 144, i1 false)
  tail call void @llvm.memset.p0.i64(ptr noundef nonnull align 8 dereferenceable(720) %55, i8 0, i64 720, i1 false)
  store i32 %4, ptr %0, align 8, !tbaa !57
  %88 = getelementptr inbounds %class.Mesh, ptr %0, i64 0, i32 36
  store i32 %3, ptr %88, align 8, !tbaa !91
  %89 = getelementptr inbounds %class.Mesh, ptr %0, i64 0, i32 17
  store double 0.000000e+00, ptr %89, align 8, !tbaa !92
  %90 = getelementptr inbounds %class.Mesh, ptr %0, i64 0, i32 18
  store i32 1, ptr %90, align 8, !tbaa !93
  %91 = getelementptr inbounds %class.Mesh, ptr %0, i64 0, i32 9
  store i32 0, ptr %91, align 4, !tbaa !80
  %92 = getelementptr inbounds %class.Mesh, ptr %0, i64 0, i32 10
  store i32 1, ptr %92, align 8, !tbaa !94
  %93 = getelementptr inbounds %class.Mesh, ptr %0, i64 0, i32 45
  store i64 0, ptr %93, align 8, !tbaa !43
  %94 = getelementptr inbounds %class.Mesh, ptr %0, i64 0, i32 47
  store i64 0, ptr %94, align 8, !tbaa !78
  %95 = getelementptr inbounds %class.Mesh, ptr %0, i64 0, i32 11
  store i32 %8, ptr %95, align 4, !tbaa !95
  %96 = getelementptr inbounds %class.Mesh, ptr %0, i64 0, i32 13
  store i32 0, ptr %96, align 4, !tbaa !81
  %97 = getelementptr inbounds %class.Mesh, ptr %0, i64 0, i32 16
  %98 = getelementptr inbounds %class.Mesh, ptr %0, i64 0, i32 12
  store i32 0, ptr %98, align 8, !tbaa !96
  store float 1.000000e+00, ptr %97, align 8, !tbaa !97
  %99 = getelementptr inbounds %class.Mesh, ptr %0, i64 0, i32 60
  store double %5, ptr %99, align 8, !tbaa !98
  %100 = getelementptr inbounds %class.Mesh, ptr %0, i64 0, i32 61
  store double %6, ptr %100, align 8, !tbaa !99
  %101 = getelementptr inbounds %class.Mesh, ptr %0, i64 0, i32 37
  store i32 %7, ptr %101, align 4, !tbaa !68
  %102 = getelementptr inbounds %class.Mesh, ptr %0, i64 0, i32 39
  store i32 0, ptr %102, align 4, !tbaa !100
  %103 = getelementptr inbounds %class.Mesh, ptr %0, i64 0, i32 41
  store i32 0, ptr %103, align 4, !tbaa !101
  %104 = add nsw i32 %1, 1
  %105 = getelementptr inbounds %class.Mesh, ptr %0, i64 0, i32 40
  store i32 %104, ptr %105, align 8, !tbaa !102
  %106 = add nsw i32 %2, 1
  %107 = getelementptr inbounds %class.Mesh, ptr %0, i64 0, i32 42
  store i32 %106, ptr %107, align 8, !tbaa !103
  %108 = icmp eq i32 %7, 0
  br i1 %108, label %112, label %109

109:                                              ; preds = %10
  %110 = add nsw i32 %1, 2
  %111 = add nsw i32 %2, 2
  store i32 0, ptr %102, align 4, !tbaa !100
  store i32 0, ptr %103, align 4, !tbaa !101
  store i32 %104, ptr %105, align 8, !tbaa !102
  store i32 %106, ptr %107, align 8, !tbaa !103
  br label %112

112:                                              ; preds = %109, %10
  %113 = phi i32 [ %110, %109 ], [ %1, %10 ]
  %114 = phi i32 [ %111, %109 ], [ %2, %10 ]
  %115 = insertelement <2 x double> poison, double %5, i64 0
  %116 = shufflevector <2 x double> %115, <2 x double> poison, <2 x i32> zeroinitializer
  %117 = fmul <2 x double> %116, <double -5.000000e-01, double 5.000000e-01>
  %118 = sitofp i32 %113 to double
  %119 = getelementptr inbounds %class.Mesh, ptr %0, i64 0, i32 48
  %120 = insertelement <2 x double> poison, double %6, i64 0
  %121 = shufflevector <2 x double> %120, <2 x double> poison, <2 x i32> zeroinitializer
  %122 = fmul <2 x double> %121, <double -5.000000e-01, double 5.000000e-01>
  %123 = sitofp i32 %114 to double
  %124 = getelementptr inbounds %class.Mesh, ptr %0, i64 0, i32 50
  %125 = insertelement <2 x double> poison, double %118, i64 0
  %126 = shufflevector <2 x double> %125, <2 x double> poison, <2 x i32> zeroinitializer
  %127 = fmul <2 x double> %117, %126
  store <2 x double> %127, ptr %119, align 8, !tbaa !45
  %128 = insertelement <2 x double> poison, double %123, i64 0
  %129 = shufflevector <2 x double> %128, <2 x double> poison, <2 x i32> zeroinitializer
  %130 = fmul <2 x double> %122, %129
  store <2 x double> %130, ptr %124, align 8, !tbaa !45
  %131 = add nsw i32 %3, 1
  %132 = sext i32 %131 to i64
  %133 = getelementptr inbounds %class.Mesh, ptr %0, i64 0, i32 32, i32 0, i32 0, i32 0, i32 1
  %134 = load ptr, ptr %133, align 8, !tbaa !58
  %135 = load ptr, ptr %44, align 8, !tbaa !59
  %136 = ptrtoint ptr %134 to i64
  %137 = ptrtoint ptr %135 to i64
  %138 = sub i64 %136, %137
  %139 = ashr exact i64 %138, 2
  %140 = icmp ult i64 %139, %132
  br i1 %140, label %141, label %143

141:                                              ; preds = %112
  %142 = sub nsw i64 %132, %139
  invoke void @_ZNSt6vectorIiSaIiEE17_M_default_appendEm(ptr noundef nonnull align 8 dereferenceable(24) %44, i64 noundef %142)
          to label %149 unwind label %277

143:                                              ; preds = %112
  %144 = icmp ugt i64 %139, %132
  br i1 %144, label %145, label %149

145:                                              ; preds = %143
  %146 = getelementptr inbounds i32, ptr %135, i64 %132
  %147 = icmp eq ptr %134, %146
  br i1 %147, label %149, label %148

148:                                              ; preds = %145
  store ptr %146, ptr %133, align 8, !tbaa !58
  br label %149

149:                                              ; preds = %148, %145, %143, %141
  %150 = getelementptr inbounds %class.Mesh, ptr %0, i64 0, i32 26, i32 0, i32 0, i32 0, i32 1
  %151 = load ptr, ptr %150, align 8, !tbaa !58
  %152 = load ptr, ptr %38, align 8, !tbaa !59
  %153 = ptrtoint ptr %151 to i64
  %154 = ptrtoint ptr %152 to i64
  %155 = sub i64 %153, %154
  %156 = ashr exact i64 %155, 2
  %157 = icmp ult i64 %156, %132
  br i1 %157, label %158, label %160

158:                                              ; preds = %149
  %159 = sub nsw i64 %132, %156
  invoke void @_ZNSt6vectorIiSaIiEE17_M_default_appendEm(ptr noundef nonnull align 8 dereferenceable(24) %38, i64 noundef %159)
          to label %166 unwind label %277

160:                                              ; preds = %149
  %161 = icmp ugt i64 %156, %132
  br i1 %161, label %162, label %166

162:                                              ; preds = %160
  %163 = getelementptr inbounds i32, ptr %152, i64 %132
  %164 = icmp eq ptr %151, %163
  br i1 %164, label %166, label %165

165:                                              ; preds = %162
  store ptr %163, ptr %150, align 8, !tbaa !58
  br label %166

166:                                              ; preds = %165, %162, %160, %158
  %167 = getelementptr inbounds %class.Mesh, ptr %0, i64 0, i32 28, i32 0, i32 0, i32 0, i32 1
  %168 = load ptr, ptr %167, align 8, !tbaa !58
  %169 = load ptr, ptr %40, align 8, !tbaa !59
  %170 = ptrtoint ptr %168 to i64
  %171 = ptrtoint ptr %169 to i64
  %172 = sub i64 %170, %171
  %173 = ashr exact i64 %172, 2
  %174 = icmp ult i64 %173, %132
  br i1 %174, label %175, label %177

175:                                              ; preds = %166
  %176 = sub nsw i64 %132, %173
  invoke void @_ZNSt6vectorIiSaIiEE17_M_default_appendEm(ptr noundef nonnull align 8 dereferenceable(24) %40, i64 noundef %176)
          to label %183 unwind label %277

177:                                              ; preds = %166
  %178 = icmp ugt i64 %173, %132
  br i1 %178, label %179, label %183

179:                                              ; preds = %177
  %180 = getelementptr inbounds i32, ptr %169, i64 %132
  %181 = icmp eq ptr %168, %180
  br i1 %181, label %183, label %182

182:                                              ; preds = %179
  store ptr %180, ptr %167, align 8, !tbaa !58
  br label %183

183:                                              ; preds = %182, %179, %177, %175
  %184 = getelementptr inbounds %class.Mesh, ptr %0, i64 0, i32 27, i32 0, i32 0, i32 0, i32 1
  %185 = load ptr, ptr %184, align 8, !tbaa !58
  %186 = load ptr, ptr %39, align 8, !tbaa !59
  %187 = ptrtoint ptr %185 to i64
  %188 = ptrtoint ptr %186 to i64
  %189 = sub i64 %187, %188
  %190 = ashr exact i64 %189, 2
  %191 = icmp ult i64 %190, %132
  br i1 %191, label %192, label %194

192:                                              ; preds = %183
  %193 = sub nsw i64 %132, %190
  invoke void @_ZNSt6vectorIiSaIiEE17_M_default_appendEm(ptr noundef nonnull align 8 dereferenceable(24) %39, i64 noundef %193)
          to label %200 unwind label %277

194:                                              ; preds = %183
  %195 = icmp ugt i64 %190, %132
  br i1 %195, label %196, label %200

196:                                              ; preds = %194
  %197 = getelementptr inbounds i32, ptr %186, i64 %132
  %198 = icmp eq ptr %185, %197
  br i1 %198, label %200, label %199

199:                                              ; preds = %196
  store ptr %197, ptr %184, align 8, !tbaa !58
  br label %200

200:                                              ; preds = %199, %196, %194, %192
  %201 = getelementptr inbounds %class.Mesh, ptr %0, i64 0, i32 29, i32 0, i32 0, i32 0, i32 1
  %202 = load ptr, ptr %201, align 8, !tbaa !58
  %203 = load ptr, ptr %41, align 8, !tbaa !59
  %204 = ptrtoint ptr %202 to i64
  %205 = ptrtoint ptr %203 to i64
  %206 = sub i64 %204, %205
  %207 = ashr exact i64 %206, 2
  %208 = icmp ult i64 %207, %132
  br i1 %208, label %209, label %211

209:                                              ; preds = %200
  %210 = sub nsw i64 %132, %207
  invoke void @_ZNSt6vectorIiSaIiEE17_M_default_appendEm(ptr noundef nonnull align 8 dereferenceable(24) %41, i64 noundef %210)
          to label %217 unwind label %277

211:                                              ; preds = %200
  %212 = icmp ugt i64 %207, %132
  br i1 %212, label %213, label %217

213:                                              ; preds = %211
  %214 = getelementptr inbounds i32, ptr %203, i64 %132
  %215 = icmp eq ptr %202, %214
  br i1 %215, label %217, label %216

216:                                              ; preds = %213
  store ptr %214, ptr %201, align 8, !tbaa !58
  br label %217

217:                                              ; preds = %216, %213, %211, %209
  %218 = getelementptr inbounds %class.Mesh, ptr %0, i64 0, i32 33, i32 0, i32 0, i32 0, i32 1
  %219 = load ptr, ptr %218, align 8, !tbaa !64
  %220 = load ptr, ptr %45, align 8, !tbaa !44
  %221 = ptrtoint ptr %219 to i64
  %222 = ptrtoint ptr %220 to i64
  %223 = sub i64 %221, %222
  %224 = ashr exact i64 %223, 3
  %225 = icmp ult i64 %224, %132
  br i1 %225, label %226, label %228

226:                                              ; preds = %217
  %227 = sub nsw i64 %132, %224
  invoke void @_ZNSt6vectorIdSaIdEE17_M_default_appendEm(ptr noundef nonnull align 8 dereferenceable(24) %45, i64 noundef %227)
          to label %234 unwind label %277

228:                                              ; preds = %217
  %229 = icmp ugt i64 %224, %132
  br i1 %229, label %230, label %234

230:                                              ; preds = %228
  %231 = getelementptr inbounds double, ptr %220, i64 %132
  %232 = icmp eq ptr %219, %231
  br i1 %232, label %234, label %233

233:                                              ; preds = %230
  store ptr %231, ptr %218, align 8, !tbaa !64
  br label %234

234:                                              ; preds = %233, %230, %228, %226
  %235 = getelementptr inbounds %class.Mesh, ptr %0, i64 0, i32 34, i32 0, i32 0, i32 0, i32 1
  %236 = load ptr, ptr %235, align 8, !tbaa !64
  %237 = load ptr, ptr %46, align 8, !tbaa !44
  %238 = ptrtoint ptr %236 to i64
  %239 = ptrtoint ptr %237 to i64
  %240 = sub i64 %238, %239
  %241 = ashr exact i64 %240, 3
  %242 = icmp ult i64 %241, %132
  br i1 %242, label %243, label %247

243:                                              ; preds = %234
  %244 = sub nsw i64 %132, %241
  invoke void @_ZNSt6vectorIdSaIdEE17_M_default_appendEm(ptr noundef nonnull align 8 dereferenceable(24) %46, i64 noundef %244)
          to label %245 unwind label %277

245:                                              ; preds = %243
  %246 = load ptr, ptr %46, align 8, !tbaa !44
  br label %253

247:                                              ; preds = %234
  %248 = icmp ugt i64 %241, %132
  br i1 %248, label %249, label %253

249:                                              ; preds = %247
  %250 = getelementptr inbounds double, ptr %237, i64 %132
  %251 = icmp eq ptr %236, %250
  br i1 %251, label %253, label %252

252:                                              ; preds = %249
  store ptr %250, ptr %235, align 8, !tbaa !64
  br label %253

253:                                              ; preds = %245, %252, %249, %247
  %254 = phi ptr [ %246, %245 ], [ %237, %252 ], [ %237, %249 ], [ %237, %247 ]
  %255 = load i32, ptr %102, align 4, !tbaa !100
  %256 = add nsw i32 %255, 1
  %257 = load ptr, ptr %38, align 8, !tbaa !59
  store i32 %256, ptr %257, align 4, !tbaa !67
  %258 = load i32, ptr %105, align 8, !tbaa !102
  %259 = add nsw i32 %258, -1
  %260 = load ptr, ptr %39, align 8, !tbaa !59
  store i32 %259, ptr %260, align 4, !tbaa !67
  %261 = load i32, ptr %103, align 4, !tbaa !101
  %262 = add nsw i32 %261, 1
  %263 = load ptr, ptr %40, align 8, !tbaa !59
  store i32 %262, ptr %263, align 4, !tbaa !67
  %264 = load i32, ptr %107, align 8, !tbaa !103
  %265 = add nsw i32 %264, -1
  %266 = load ptr, ptr %41, align 8, !tbaa !59
  store i32 %265, ptr %266, align 4, !tbaa !67
  %267 = load double, ptr %99, align 8, !tbaa !98
  %268 = load ptr, ptr %45, align 8, !tbaa !44
  store double %267, ptr %268, align 8, !tbaa !45
  %269 = load double, ptr %100, align 8, !tbaa !99
  store double %269, ptr %254, align 8, !tbaa !45
  %270 = load i32, ptr %88, align 8, !tbaa !91
  %271 = icmp slt i32 %270, 1
  br i1 %271, label %272, label %279

272:                                              ; preds = %279, %253
  %273 = phi i32 [ %270, %253 ], [ %309, %279 ]
  %274 = icmp eq i32 %131, 0
  br i1 %274, label %314, label %275

275:                                              ; preds = %272
  %276 = load ptr, ptr %44, align 8, !tbaa !59
  br label %329

277:                                              ; preds = %243, %226, %209, %192, %175, %158, %141
  %278 = landingpad { ptr, i32 }
          cleanup
  br label %463

279:                                              ; preds = %253, %279
  %280 = phi i64 [ %308, %279 ], [ 1, %253 ]
  %281 = add nsw i64 %280, -1
  %282 = getelementptr inbounds i32, ptr %257, i64 %281
  %283 = load i32, ptr %282, align 4, !tbaa !67
  %284 = shl nsw i32 %283, 1
  %285 = getelementptr inbounds i32, ptr %257, i64 %280
  store i32 %284, ptr %285, align 4, !tbaa !67
  %286 = getelementptr inbounds i32, ptr %260, i64 %281
  %287 = load i32, ptr %286, align 4, !tbaa !67
  %288 = shl nsw i32 %287, 1
  %289 = or i32 %288, 1
  %290 = getelementptr inbounds i32, ptr %260, i64 %280
  store i32 %289, ptr %290, align 4, !tbaa !67
  %291 = getelementptr inbounds i32, ptr %263, i64 %281
  %292 = load i32, ptr %291, align 4, !tbaa !67
  %293 = shl nsw i32 %292, 1
  %294 = getelementptr inbounds i32, ptr %263, i64 %280
  store i32 %293, ptr %294, align 4, !tbaa !67
  %295 = getelementptr inbounds i32, ptr %266, i64 %281
  %296 = load i32, ptr %295, align 4, !tbaa !67
  %297 = shl nsw i32 %296, 1
  %298 = or i32 %297, 1
  %299 = getelementptr inbounds i32, ptr %266, i64 %280
  store i32 %298, ptr %299, align 4, !tbaa !67
  %300 = getelementptr inbounds double, ptr %268, i64 %281
  %301 = load double, ptr %300, align 8, !tbaa !45
  %302 = fmul double %301, 5.000000e-01
  %303 = getelementptr inbounds double, ptr %268, i64 %280
  store double %302, ptr %303, align 8, !tbaa !45
  %304 = getelementptr inbounds double, ptr %254, i64 %281
  %305 = load double, ptr %304, align 8, !tbaa !45
  %306 = fmul double %305, 5.000000e-01
  %307 = getelementptr inbounds double, ptr %254, i64 %280
  store double %306, ptr %307, align 8, !tbaa !45
  %308 = add nuw nsw i64 %280, 1
  %309 = load i32, ptr %88, align 8, !tbaa !91
  %310 = sext i32 %309 to i64
  %311 = icmp slt i64 %280, %310
  br i1 %311, label %279, label %272, !llvm.loop !104

312:                                              ; preds = %329
  %313 = load i32, ptr %88, align 8, !tbaa !91
  br label %314

314:                                              ; preds = %312, %272
  %315 = phi i32 [ %313, %312 ], [ %273, %272 ]
  %316 = getelementptr inbounds %class.Mesh, ptr %0, i64 0, i32 38
  store i32 0, ptr %316, align 8, !tbaa !55
  call void @llvm.lifetime.start.p0(i64 16, ptr nonnull %11) #31
  store i32 0, ptr %11, align 16, !tbaa !67
  %317 = getelementptr inbounds i32, ptr %11, i64 1
  store i32 0, ptr %317, align 4, !tbaa !67
  %318 = getelementptr inbounds i32, ptr %11, i64 2
  %319 = load i32, ptr %105, align 8, !tbaa !102
  store i32 %319, ptr %318, align 8, !tbaa !67
  %320 = getelementptr inbounds i32, ptr %11, i64 3
  store i32 %319, ptr %320, align 4, !tbaa !67
  call void @llvm.lifetime.start.p0(i64 16, ptr nonnull %12) #31
  store i32 0, ptr %12, align 16, !tbaa !67
  %321 = getelementptr inbounds i32, ptr %12, i64 1
  %322 = load i32, ptr %107, align 8, !tbaa !103
  store i32 %322, ptr %321, align 4, !tbaa !67
  %323 = getelementptr inbounds i32, ptr %12, i64 2
  store i32 0, ptr %323, align 8, !tbaa !67
  %324 = getelementptr inbounds i32, ptr %12, i64 3
  store i32 %322, ptr %324, align 4, !tbaa !67
  %325 = getelementptr inbounds %class.Mesh, ptr %0, i64 0, i32 19, i32 0, i32 0, i32 0, i32 1
  %326 = getelementptr inbounds %class.Mesh, ptr %0, i64 0, i32 19, i32 0, i32 0, i32 0, i32 2
  %327 = getelementptr inbounds %class.Mesh, ptr %0, i64 0, i32 20, i32 0, i32 0, i32 0, i32 1
  %328 = getelementptr inbounds %class.Mesh, ptr %0, i64 0, i32 20, i32 0, i32 0, i32 0, i32 2
  br label %341

329:                                              ; preds = %275, %329
  %330 = phi i64 [ 0, %275 ], [ %335, %329 ]
  %331 = trunc i64 %330 to i32
  %332 = shl i32 2, %331
  %333 = getelementptr inbounds i32, ptr %276, i64 %330
  store i32 %332, ptr %333, align 4, !tbaa !67
  %334 = add nuw nsw i64 %330, 1
  %335 = and i64 %334, 4294967295
  %336 = icmp ult i64 %335, %132
  br i1 %336, label %329, label %312, !llvm.loop !105

337:                                              ; preds = %356
  %338 = getelementptr inbounds %class.Mesh, ptr %0, i64 0, i32 7
  store i8 1, ptr %338, align 8, !tbaa !106
  %339 = getelementptr inbounds %class.Mesh, ptr %0, i64 0, i32 8
  store i8 1, ptr %339, align 1, !tbaa !107
  %340 = getelementptr inbounds %class.Mesh, ptr %0, i64 0, i32 68
  tail call void @llvm.memset.p0.i64(ptr noundef nonnull align 8 dereferenceable(40) %340, i8 0, i64 40, i1 false)
  call void @llvm.lifetime.end.p0(i64 16, ptr nonnull %12) #31
  call void @llvm.lifetime.end.p0(i64 16, ptr nonnull %11) #31
  ret void

341:                                              ; preds = %314, %356
  %342 = phi i32 [ %315, %314 ], [ %357, %356 ]
  %343 = phi i32 [ %315, %314 ], [ %358, %356 ]
  %344 = phi i64 [ 0, %314 ], [ %359, %356 ]
  %345 = getelementptr inbounds [4 x i32], ptr %12, i64 0, i64 %344
  %346 = load i32, ptr %345, align 4, !tbaa !67
  %347 = shl i32 2, %343
  %348 = mul nsw i32 %347, %346
  %349 = add nsw i32 %346, 1
  %350 = mul nsw i32 %347, %349
  %351 = icmp slt i32 %348, %350
  br i1 %351, label %352, label %356

352:                                              ; preds = %341
  %353 = getelementptr inbounds [4 x i32], ptr %11, i64 0, i64 %344
  %354 = load i32, ptr %353, align 4, !tbaa !67
  %355 = add nsw i32 %354, 1
  br label %361

356:                                              ; preds = %372, %341
  %357 = phi i32 [ %342, %341 ], [ %374, %372 ]
  %358 = phi i32 [ %343, %341 ], [ %374, %372 ]
  %359 = add nuw nsw i64 %344, 1
  %360 = icmp eq i64 %359, 4
  br i1 %360, label %337, label %341, !llvm.loop !108

361:                                              ; preds = %352, %372
  %362 = phi i32 [ %342, %352 ], [ %374, %372 ]
  %363 = phi i32 [ %343, %352 ], [ %374, %372 ]
  %364 = phi i32 [ %347, %352 ], [ %373, %372 ]
  %365 = phi i32 [ %348, %352 ], [ %375, %372 ]
  %366 = mul nsw i32 %354, %364
  %367 = shl i32 2, %363
  %368 = mul nsw i32 %367, %355
  %369 = icmp slt i32 %366, %368
  br i1 %369, label %378, label %370

370:                                              ; preds = %361
  %371 = shl i32 2, %362
  br label %372

372:                                              ; preds = %451, %370
  %373 = phi i32 [ %371, %370 ], [ %454, %451 ]
  %374 = phi i32 [ %362, %370 ], [ %453, %451 ]
  %375 = add nsw i32 %365, 1
  %376 = mul nsw i32 %373, %349
  %377 = icmp slt i32 %375, %376
  br i1 %377, label %361, label %356, !llvm.loop !109

378:                                              ; preds = %361, %451
  %379 = phi i32 [ %452, %451 ], [ %366, %361 ]
  %380 = load ptr, ptr %325, align 8, !tbaa !58
  %381 = load ptr, ptr %326, align 8, !tbaa !110
  %382 = icmp eq ptr %380, %381
  br i1 %382, label %385, label %383

383:                                              ; preds = %378
  store i32 %379, ptr %380, align 4, !tbaa !67
  %384 = getelementptr inbounds i32, ptr %380, i64 1
  store ptr %384, ptr %325, align 8, !tbaa !58
  br label %416

385:                                              ; preds = %378
  %386 = load ptr, ptr %33, align 8, !tbaa !59
  %387 = ptrtoint ptr %380 to i64
  %388 = ptrtoint ptr %386 to i64
  %389 = sub i64 %387, %388
  %390 = icmp eq i64 %389, 9223372036854775804
  br i1 %390, label %391, label %393

391:                                              ; preds = %422, %385
  invoke void @_ZSt20__throw_length_errorPKc(ptr noundef nonnull @.str.143) #36
          to label %392 unwind label %459

392:                                              ; preds = %391
  unreachable

393:                                              ; preds = %385
  %394 = ashr exact i64 %389, 2
  %395 = tail call i64 @llvm.umax.i64(i64 %394, i64 1)
  %396 = add i64 %395, %394
  %397 = icmp ult i64 %396, %394
  %398 = icmp ugt i64 %396, 2305843009213693951
  %399 = or i1 %397, %398
  %400 = select i1 %399, i64 2305843009213693951, i64 %396
  %401 = icmp eq i64 %400, 0
  br i1 %401, label %405, label %402

402:                                              ; preds = %393
  %403 = shl nuw nsw i64 %400, 2
  %404 = invoke noalias noundef nonnull ptr @_Znwm(i64 noundef %403) #35
          to label %405 unwind label %457

405:                                              ; preds = %402, %393
  %406 = phi ptr [ null, %393 ], [ %404, %402 ]
  %407 = getelementptr inbounds i32, ptr %406, i64 %394
  store i32 %379, ptr %407, align 4, !tbaa !67
  %408 = icmp sgt i64 %389, 0
  br i1 %408, label %409, label %410

409:                                              ; preds = %405
  tail call void @llvm.memmove.p0.p0.i64(ptr nonnull align 4 %406, ptr align 4 %386, i64 %389, i1 false)
  br label %410

410:                                              ; preds = %409, %405
  %411 = getelementptr inbounds i32, ptr %407, i64 1
  %412 = icmp eq ptr %386, null
  br i1 %412, label %414, label %413

413:                                              ; preds = %410
  tail call void @_ZdlPv(ptr noundef nonnull %386) #33
  br label %414

414:                                              ; preds = %413, %410
  store ptr %406, ptr %33, align 8, !tbaa !59
  store ptr %411, ptr %325, align 8, !tbaa !58
  %415 = getelementptr inbounds i32, ptr %406, i64 %400
  store ptr %415, ptr %326, align 8, !tbaa !110
  br label %416

416:                                              ; preds = %414, %383
  %417 = load ptr, ptr %327, align 8, !tbaa !58
  %418 = load ptr, ptr %328, align 8, !tbaa !110
  %419 = icmp eq ptr %417, %418
  br i1 %419, label %422, label %420

420:                                              ; preds = %416
  store i32 %365, ptr %417, align 4, !tbaa !67
  %421 = getelementptr inbounds i32, ptr %417, i64 1
  store ptr %421, ptr %327, align 8, !tbaa !58
  br label %451

422:                                              ; preds = %416
  %423 = load ptr, ptr %34, align 8, !tbaa !59
  %424 = ptrtoint ptr %417 to i64
  %425 = ptrtoint ptr %423 to i64
  %426 = sub i64 %424, %425
  %427 = icmp eq i64 %426, 9223372036854775804
  br i1 %427, label %391, label %428

428:                                              ; preds = %422
  %429 = ashr exact i64 %426, 2
  %430 = tail call i64 @llvm.umax.i64(i64 %429, i64 1)
  %431 = add i64 %430, %429
  %432 = icmp ult i64 %431, %429
  %433 = icmp ugt i64 %431, 2305843009213693951
  %434 = or i1 %432, %433
  %435 = select i1 %434, i64 2305843009213693951, i64 %431
  %436 = icmp eq i64 %435, 0
  br i1 %436, label %440, label %437

437:                                              ; preds = %428
  %438 = shl nuw nsw i64 %435, 2
  %439 = invoke noalias noundef nonnull ptr @_Znwm(i64 noundef %438) #35
          to label %440 unwind label %457

440:                                              ; preds = %437, %428
  %441 = phi ptr [ null, %428 ], [ %439, %437 ]
  %442 = getelementptr inbounds i32, ptr %441, i64 %429
  store i32 %365, ptr %442, align 4, !tbaa !67
  %443 = icmp sgt i64 %426, 0
  br i1 %443, label %444, label %445

444:                                              ; preds = %440
  tail call void @llvm.memmove.p0.p0.i64(ptr nonnull align 4 %441, ptr align 4 %423, i64 %426, i1 false)
  br label %445

445:                                              ; preds = %444, %440
  %446 = getelementptr inbounds i32, ptr %442, i64 1
  %447 = icmp eq ptr %423, null
  br i1 %447, label %449, label %448

448:                                              ; preds = %445
  tail call void @_ZdlPv(ptr noundef nonnull %423) #33
  br label %449

449:                                              ; preds = %448, %445
  store ptr %441, ptr %34, align 8, !tbaa !59
  store ptr %446, ptr %327, align 8, !tbaa !58
  %450 = getelementptr inbounds i32, ptr %441, i64 %435
  store ptr %450, ptr %328, align 8, !tbaa !110
  br label %451

451:                                              ; preds = %449, %420
  %452 = add nsw i32 %379, 1
  %453 = load i32, ptr %88, align 8, !tbaa !91
  %454 = shl i32 2, %453
  %455 = mul nsw i32 %454, %355
  %456 = icmp slt i32 %452, %455
  br i1 %456, label %378, label %372, !llvm.loop !111

457:                                              ; preds = %402, %437
  %458 = landingpad { ptr, i32 }
          cleanup
  br label %461

459:                                              ; preds = %391
  %460 = landingpad { ptr, i32 }
          cleanup
  br label %461

461:                                              ; preds = %459, %457
  %462 = phi { ptr, i32 } [ %458, %457 ], [ %460, %459 ]
  call void @llvm.lifetime.end.p0(i64 16, ptr nonnull %12) #31
  call void @llvm.lifetime.end.p0(i64 16, ptr nonnull %11) #31
  br label %463

463:                                              ; preds = %461, %277
  %464 = phi { ptr, i32 } [ %462, %461 ], [ %278, %277 ]
  %465 = load ptr, ptr %84, align 8, !tbaa !59
  %466 = icmp eq ptr %465, null
  br i1 %466, label %468, label %467

467:                                              ; preds = %463
  tail call void @_ZdlPv(ptr noundef nonnull %465) #33
  br label %468

468:                                              ; preds = %463, %467
  %469 = load ptr, ptr %83, align 8, !tbaa !59
  %470 = icmp eq ptr %469, null
  br i1 %470, label %472, label %471

471:                                              ; preds = %468
  tail call void @_ZdlPv(ptr noundef nonnull %469) #33
  br label %472

472:                                              ; preds = %468, %471
  %473 = load ptr, ptr %82, align 8, !tbaa !59
  %474 = icmp eq ptr %473, null
  br i1 %474, label %476, label %475

475:                                              ; preds = %472
  tail call void @_ZdlPv(ptr noundef nonnull %473) #33
  br label %476

476:                                              ; preds = %472, %475
  %477 = load ptr, ptr %81, align 8, !tbaa !59
  %478 = icmp eq ptr %477, null
  br i1 %478, label %480, label %479

479:                                              ; preds = %476
  tail call void @_ZdlPv(ptr noundef nonnull %477) #33
  br label %480

480:                                              ; preds = %476, %479
  %481 = load ptr, ptr %80, align 8, !tbaa !59
  %482 = icmp eq ptr %481, null
  br i1 %482, label %484, label %483

483:                                              ; preds = %480
  tail call void @_ZdlPv(ptr noundef nonnull %481) #33
  br label %484

484:                                              ; preds = %480, %483
  %485 = load ptr, ptr %79, align 8, !tbaa !59
  %486 = icmp eq ptr %485, null
  br i1 %486, label %488, label %487

487:                                              ; preds = %484
  tail call void @_ZdlPv(ptr noundef nonnull %485) #33
  br label %488

488:                                              ; preds = %484, %487
  %489 = load ptr, ptr %78, align 8, !tbaa !59
  %490 = icmp eq ptr %489, null
  br i1 %490, label %492, label %491

491:                                              ; preds = %488
  tail call void @_ZdlPv(ptr noundef nonnull %489) #33
  br label %492

492:                                              ; preds = %488, %491
  %493 = load ptr, ptr %77, align 8, !tbaa !59
  %494 = icmp eq ptr %493, null
  br i1 %494, label %496, label %495

495:                                              ; preds = %492
  tail call void @_ZdlPv(ptr noundef nonnull %493) #33
  br label %496

496:                                              ; preds = %492, %495
  %497 = load ptr, ptr %76, align 8, !tbaa !59
  %498 = icmp eq ptr %497, null
  br i1 %498, label %500, label %499

499:                                              ; preds = %496
  tail call void @_ZdlPv(ptr noundef nonnull %497) #33
  br label %500

500:                                              ; preds = %496, %499
  %501 = load ptr, ptr %75, align 8, !tbaa !59
  %502 = icmp eq ptr %501, null
  br i1 %502, label %504, label %503

503:                                              ; preds = %500
  tail call void @_ZdlPv(ptr noundef nonnull %501) #33
  br label %504

504:                                              ; preds = %500, %503
  %505 = load ptr, ptr %74, align 8, !tbaa !59
  %506 = icmp eq ptr %505, null
  br i1 %506, label %508, label %507

507:                                              ; preds = %504
  tail call void @_ZdlPv(ptr noundef nonnull %505) #33
  br label %508

508:                                              ; preds = %504, %507
  %509 = load ptr, ptr %73, align 8, !tbaa !59
  %510 = icmp eq ptr %509, null
  br i1 %510, label %512, label %511

511:                                              ; preds = %508
  tail call void @_ZdlPv(ptr noundef nonnull %509) #33
  br label %512

512:                                              ; preds = %508, %511
  %513 = load ptr, ptr %72, align 8, !tbaa !59
  %514 = icmp eq ptr %513, null
  br i1 %514, label %516, label %515

515:                                              ; preds = %512
  tail call void @_ZdlPv(ptr noundef nonnull %513) #33
  br label %516

516:                                              ; preds = %512, %515
  %517 = load ptr, ptr %71, align 8, !tbaa !59
  %518 = icmp eq ptr %517, null
  br i1 %518, label %520, label %519

519:                                              ; preds = %516
  tail call void @_ZdlPv(ptr noundef nonnull %517) #33
  br label %520

520:                                              ; preds = %516, %519
  %521 = load ptr, ptr %70, align 8, !tbaa !59
  %522 = icmp eq ptr %521, null
  br i1 %522, label %524, label %523

523:                                              ; preds = %520
  tail call void @_ZdlPv(ptr noundef nonnull %521) #33
  br label %524

524:                                              ; preds = %520, %523
  %525 = load ptr, ptr %69, align 8, !tbaa !59
  %526 = icmp eq ptr %525, null
  br i1 %526, label %528, label %527

527:                                              ; preds = %524
  tail call void @_ZdlPv(ptr noundef nonnull %525) #33
  br label %528

528:                                              ; preds = %524, %527
  %529 = load ptr, ptr %68, align 8, !tbaa !59
  %530 = icmp eq ptr %529, null
  br i1 %530, label %532, label %531

531:                                              ; preds = %528
  tail call void @_ZdlPv(ptr noundef nonnull %529) #33
  br label %532

532:                                              ; preds = %528, %531
  %533 = load ptr, ptr %67, align 8, !tbaa !59
  %534 = icmp eq ptr %533, null
  br i1 %534, label %536, label %535

535:                                              ; preds = %532
  tail call void @_ZdlPv(ptr noundef nonnull %533) #33
  br label %536

536:                                              ; preds = %532, %535
  %537 = load ptr, ptr %66, align 8, !tbaa !59
  %538 = icmp eq ptr %537, null
  br i1 %538, label %540, label %539

539:                                              ; preds = %536
  tail call void @_ZdlPv(ptr noundef nonnull %537) #33
  br label %540

540:                                              ; preds = %536, %539
  %541 = load ptr, ptr %65, align 8, !tbaa !59
  %542 = icmp eq ptr %541, null
  br i1 %542, label %544, label %543

543:                                              ; preds = %540
  tail call void @_ZdlPv(ptr noundef nonnull %541) #33
  br label %544

544:                                              ; preds = %540, %543
  %545 = load ptr, ptr %64, align 8, !tbaa !59
  %546 = icmp eq ptr %545, null
  br i1 %546, label %548, label %547

547:                                              ; preds = %544
  tail call void @_ZdlPv(ptr noundef nonnull %545) #33
  br label %548

548:                                              ; preds = %544, %547
  %549 = load ptr, ptr %63, align 8, !tbaa !59
  %550 = icmp eq ptr %549, null
  br i1 %550, label %552, label %551

551:                                              ; preds = %548
  tail call void @_ZdlPv(ptr noundef nonnull %549) #33
  br label %552

552:                                              ; preds = %548, %551
  %553 = load ptr, ptr %62, align 8, !tbaa !59
  %554 = icmp eq ptr %553, null
  br i1 %554, label %556, label %555

555:                                              ; preds = %552
  tail call void @_ZdlPv(ptr noundef nonnull %553) #33
  br label %556

556:                                              ; preds = %552, %555
  %557 = load ptr, ptr %61, align 8, !tbaa !59
  %558 = icmp eq ptr %557, null
  br i1 %558, label %560, label %559

559:                                              ; preds = %556
  tail call void @_ZdlPv(ptr noundef nonnull %557) #33
  br label %560

560:                                              ; preds = %556, %559
  %561 = load ptr, ptr %60, align 8, !tbaa !59
  %562 = icmp eq ptr %561, null
  br i1 %562, label %564, label %563

563:                                              ; preds = %560
  tail call void @_ZdlPv(ptr noundef nonnull %561) #33
  br label %564

564:                                              ; preds = %560, %563
  %565 = load ptr, ptr %59, align 8, !tbaa !59
  %566 = icmp eq ptr %565, null
  br i1 %566, label %568, label %567

567:                                              ; preds = %564
  tail call void @_ZdlPv(ptr noundef nonnull %565) #33
  br label %568

568:                                              ; preds = %564, %567
  %569 = load ptr, ptr %58, align 8, !tbaa !59
  %570 = icmp eq ptr %569, null
  br i1 %570, label %572, label %571

571:                                              ; preds = %568
  tail call void @_ZdlPv(ptr noundef nonnull %569) #33
  br label %572

572:                                              ; preds = %568, %571
  %573 = load ptr, ptr %57, align 8, !tbaa !59
  %574 = icmp eq ptr %573, null
  br i1 %574, label %576, label %575

575:                                              ; preds = %572
  tail call void @_ZdlPv(ptr noundef nonnull %573) #33
  br label %576

576:                                              ; preds = %572, %575
  %577 = load ptr, ptr %56, align 8, !tbaa !59
  %578 = icmp eq ptr %577, null
  br i1 %578, label %580, label %579

579:                                              ; preds = %576
  tail call void @_ZdlPv(ptr noundef nonnull %577) #33
  br label %580

580:                                              ; preds = %576, %579
  %581 = load ptr, ptr %55, align 8, !tbaa !59
  %582 = icmp eq ptr %581, null
  br i1 %582, label %584, label %583

583:                                              ; preds = %580
  tail call void @_ZdlPv(ptr noundef nonnull %581) #33
  br label %584

584:                                              ; preds = %580, %583
  %585 = load ptr, ptr %54, align 8, !tbaa !44
  %586 = icmp eq ptr %585, null
  br i1 %586, label %588, label %587

587:                                              ; preds = %584
  tail call void @_ZdlPv(ptr noundef nonnull %585) #33
  br label %588

588:                                              ; preds = %584, %587
  %589 = load ptr, ptr %53, align 8, !tbaa !44
  %590 = icmp eq ptr %589, null
  br i1 %590, label %592, label %591

591:                                              ; preds = %588
  tail call void @_ZdlPv(ptr noundef nonnull %589) #33
  br label %592

592:                                              ; preds = %588, %591
  %593 = load ptr, ptr %52, align 8, !tbaa !44
  %594 = icmp eq ptr %593, null
  br i1 %594, label %596, label %595

595:                                              ; preds = %592
  tail call void @_ZdlPv(ptr noundef nonnull %593) #33
  br label %596

596:                                              ; preds = %592, %595
  %597 = load ptr, ptr %51, align 8, !tbaa !44
  %598 = icmp eq ptr %597, null
  br i1 %598, label %600, label %599

599:                                              ; preds = %596
  tail call void @_ZdlPv(ptr noundef nonnull %597) #33
  br label %600

600:                                              ; preds = %596, %599
  %601 = load ptr, ptr %50, align 8, !tbaa !44
  %602 = icmp eq ptr %601, null
  br i1 %602, label %604, label %603

603:                                              ; preds = %600
  tail call void @_ZdlPv(ptr noundef nonnull %601) #33
  br label %604

604:                                              ; preds = %600, %603
  %605 = load ptr, ptr %49, align 8, !tbaa !44
  %606 = icmp eq ptr %605, null
  br i1 %606, label %608, label %607

607:                                              ; preds = %604
  tail call void @_ZdlPv(ptr noundef nonnull %605) #33
  br label %608

608:                                              ; preds = %604, %607
  %609 = load ptr, ptr %48, align 8, !tbaa !59
  %610 = icmp eq ptr %609, null
  br i1 %610, label %612, label %611

611:                                              ; preds = %608
  tail call void @_ZdlPv(ptr noundef nonnull %609) #33
  br label %612

612:                                              ; preds = %608, %611
  %613 = load ptr, ptr %47, align 8, !tbaa !44
  %614 = icmp eq ptr %613, null
  br i1 %614, label %616, label %615

615:                                              ; preds = %612
  tail call void @_ZdlPv(ptr noundef nonnull %613) #33
  br label %616

616:                                              ; preds = %612, %615
  %617 = load ptr, ptr %46, align 8, !tbaa !44
  %618 = icmp eq ptr %617, null
  br i1 %618, label %620, label %619

619:                                              ; preds = %616
  tail call void @_ZdlPv(ptr noundef nonnull %617) #33
  br label %620

620:                                              ; preds = %616, %619
  %621 = load ptr, ptr %45, align 8, !tbaa !44
  %622 = icmp eq ptr %621, null
  br i1 %622, label %624, label %623

623:                                              ; preds = %620
  tail call void @_ZdlPv(ptr noundef nonnull %621) #33
  br label %624

624:                                              ; preds = %620, %623
  %625 = load ptr, ptr %44, align 8, !tbaa !59
  %626 = icmp eq ptr %625, null
  br i1 %626, label %628, label %627

627:                                              ; preds = %624
  tail call void @_ZdlPv(ptr noundef nonnull %625) #33
  br label %628

628:                                              ; preds = %624, %627
  %629 = load ptr, ptr %43, align 8, !tbaa !59
  %630 = icmp eq ptr %629, null
  br i1 %630, label %632, label %631

631:                                              ; preds = %628
  tail call void @_ZdlPv(ptr noundef nonnull %629) #33
  br label %632

632:                                              ; preds = %628, %631
  %633 = load ptr, ptr %42, align 8, !tbaa !59
  %634 = icmp eq ptr %633, null
  br i1 %634, label %636, label %635

635:                                              ; preds = %632
  tail call void @_ZdlPv(ptr noundef nonnull %633) #33
  br label %636

636:                                              ; preds = %632, %635
  %637 = load ptr, ptr %41, align 8, !tbaa !59
  %638 = icmp eq ptr %637, null
  br i1 %638, label %640, label %639

639:                                              ; preds = %636
  tail call void @_ZdlPv(ptr noundef nonnull %637) #33
  br label %640

640:                                              ; preds = %636, %639
  %641 = load ptr, ptr %40, align 8, !tbaa !59
  %642 = icmp eq ptr %641, null
  br i1 %642, label %644, label %643

643:                                              ; preds = %640
  tail call void @_ZdlPv(ptr noundef nonnull %641) #33
  br label %644

644:                                              ; preds = %640, %643
  %645 = load ptr, ptr %39, align 8, !tbaa !59
  %646 = icmp eq ptr %645, null
  br i1 %646, label %648, label %647

647:                                              ; preds = %644
  tail call void @_ZdlPv(ptr noundef nonnull %645) #33
  br label %648

648:                                              ; preds = %644, %647
  %649 = load ptr, ptr %38, align 8, !tbaa !59
  %650 = icmp eq ptr %649, null
  br i1 %650, label %652, label %651

651:                                              ; preds = %648
  tail call void @_ZdlPv(ptr noundef nonnull %649) #33
  br label %652

652:                                              ; preds = %648, %651
  %653 = load ptr, ptr %37, align 8, !tbaa !59
  %654 = icmp eq ptr %653, null
  br i1 %654, label %656, label %655

655:                                              ; preds = %652
  tail call void @_ZdlPv(ptr noundef nonnull %653) #33
  br label %656

656:                                              ; preds = %652, %655
  %657 = load ptr, ptr %36, align 8, !tbaa !59
  %658 = icmp eq ptr %657, null
  br i1 %658, label %660, label %659

659:                                              ; preds = %656
  tail call void @_ZdlPv(ptr noundef nonnull %657) #33
  br label %660

660:                                              ; preds = %656, %659
  %661 = load ptr, ptr %35, align 8, !tbaa !59
  %662 = icmp eq ptr %661, null
  br i1 %662, label %664, label %663

663:                                              ; preds = %660
  tail call void @_ZdlPv(ptr noundef nonnull %661) #33
  br label %664

664:                                              ; preds = %660, %663
  %665 = load ptr, ptr %34, align 8, !tbaa !59
  %666 = icmp eq ptr %665, null
  br i1 %666, label %668, label %667

667:                                              ; preds = %664
  tail call void @_ZdlPv(ptr noundef nonnull %665) #33
  br label %668

668:                                              ; preds = %664, %667
  %669 = load ptr, ptr %33, align 8, !tbaa !59
  %670 = icmp eq ptr %669, null
  br i1 %670, label %672, label %671

671:                                              ; preds = %668
  tail call void @_ZdlPv(ptr noundef nonnull %669) #33
  br label %672

672:                                              ; preds = %668, %671
  %673 = getelementptr inbounds %class.Mesh, ptr %0, i64 0, i32 2, i32 1
  %674 = load ptr, ptr %29, align 8, !tbaa !51
  invoke void @_ZNSt8_Rb_treeIPvSt4pairIKS0_P24malloc_plus_memory_entryESt10_Select1stIS5_ESt4lessIS0_ESaIS5_EE8_M_eraseEPSt13_Rb_tree_nodeIS5_E(ptr noundef nonnull align 8 dereferenceable(48) %673, ptr noundef %674)
          to label %678 unwind label %675

675:                                              ; preds = %672
  %676 = landingpad { ptr, i32 }
          catch ptr null
  %677 = extractvalue { ptr, i32 } %676, 0
  tail call void @__clang_call_terminate(ptr %677) #32
  unreachable

678:                                              ; preds = %672
  %679 = load ptr, ptr %24, align 8, !tbaa !51
  invoke void @_ZNSt8_Rb_treeINSt7__cxx1112basic_stringIcSt11char_traitsIcESaIcEEESt4pairIKS5_P24malloc_plus_memory_entryESt10_Select1stISA_ESt4lessIS5_ESaISA_EE8_M_eraseEPSt13_Rb_tree_nodeISA_E(ptr noundef nonnull align 8 dereferenceable(48) %87, ptr noundef %679)
          to label %683 unwind label %680

680:                                              ; preds = %678
  %681 = landingpad { ptr, i32 }
          catch ptr null
  %682 = extractvalue { ptr, i32 } %681, 0
  tail call void @__clang_call_terminate(ptr %682) #32
  unreachable

683:                                              ; preds = %678
  %684 = getelementptr inbounds %class.Mesh, ptr %0, i64 0, i32 1, i32 1
  %685 = load ptr, ptr %19, align 8, !tbaa !51
  invoke void @_ZNSt8_Rb_treeIPvSt4pairIKS0_P24malloc_plus_memory_entryESt10_Select1stIS5_ESt4lessIS0_ESaIS5_EE8_M_eraseEPSt13_Rb_tree_nodeIS5_E(ptr noundef nonnull align 8 dereferenceable(48) %684, ptr noundef %685)
          to label %689 unwind label %686

686:                                              ; preds = %683
  %687 = landingpad { ptr, i32 }
          catch ptr null
  %688 = extractvalue { ptr, i32 } %687, 0
  tail call void @__clang_call_terminate(ptr %688) #32
  unreachable

689:                                              ; preds = %683
  %690 = load ptr, ptr %14, align 8, !tbaa !51
  invoke void @_ZNSt8_Rb_treeINSt7__cxx1112basic_stringIcSt11char_traitsIcESaIcEEESt4pairIKS5_P24malloc_plus_memory_entryESt10_Select1stISA_ESt4lessIS5_ESaISA_EE8_M_eraseEPSt13_Rb_tree_nodeISA_E(ptr noundef nonnull align 8 dereferenceable(48) %86, ptr noundef %690)
          to label %694 unwind label %691

691:                                              ; preds = %689
  %692 = landingpad { ptr, i32 }
          catch ptr null
  %693 = extractvalue { ptr, i32 } %692, 0
  tail call void @__clang_call_terminate(ptr %693) #32
  unreachable

694:                                              ; preds = %689
  resume { ptr, i32 } %464
}

; Function Attrs: uwtable
define dso_local void @_ZN4Mesh4initEiid16partition_methodi(ptr noundef nonnull align 8 dereferenceable(2288) %0, i32 noundef %1, i32 noundef %2, double noundef %3, i32 noundef %4, i32 noundef %5) local_unnamed_addr #3 align 2 personality ptr @__gxx_personality_v0 {
  %7 = alloca %struct.TBounds, align 8
  %8 = alloca i32, align 4
  %9 = alloca %"class.std::vector", align 8
  %10 = alloca i32, align 4
  %11 = alloca i32, align 4
  %12 = alloca %class.MallocPlus, align 8
  %13 = alloca %"class.std::vector", align 8
  %14 = alloca [4 x i32], align 16
  %15 = alloca [4 x i32], align 16
  %16 = getelementptr inbounds %class.Mesh, ptr %0, i64 0, i32 45
  %17 = load i64, ptr %16, align 8, !tbaa !43
  %18 = icmp eq i64 %17, 0
  br i1 %18, label %98, label %19

19:                                               ; preds = %6
  %20 = getelementptr inbounds %class.Mesh, ptr %0, i64 0, i32 21
  %21 = getelementptr inbounds %class.Mesh, ptr %0, i64 0, i32 10
  %22 = load i32, ptr %21, align 8, !tbaa !94
  %23 = sext i32 %22 to i64
  %24 = getelementptr inbounds %class.Mesh, ptr %0, i64 0, i32 21, i32 0, i32 0, i32 0, i32 1
  %25 = load ptr, ptr %24, align 8, !tbaa !58
  %26 = load ptr, ptr %20, align 8, !tbaa !59
  %27 = ptrtoint ptr %25 to i64
  %28 = ptrtoint ptr %26 to i64
  %29 = sub i64 %27, %28
  %30 = ashr exact i64 %29, 2
  %31 = icmp ult i64 %30, %23
  br i1 %31, label %32, label %36

32:                                               ; preds = %19
  %33 = sub nsw i64 %23, %30
  tail call void @_ZNSt6vectorIiSaIiEE17_M_default_appendEm(ptr noundef nonnull align 8 dereferenceable(24) %20, i64 noundef %33)
  %34 = load i32, ptr %21, align 8, !tbaa !94
  %35 = sext i32 %34 to i64
  br label %42

36:                                               ; preds = %19
  %37 = icmp ugt i64 %30, %23
  br i1 %37, label %38, label %42

38:                                               ; preds = %36
  %39 = getelementptr inbounds i32, ptr %26, i64 %23
  %40 = icmp eq ptr %25, %39
  br i1 %40, label %42, label %41

41:                                               ; preds = %38
  store ptr %39, ptr %24, align 8, !tbaa !58
  br label %42

42:                                               ; preds = %32, %36, %38, %41
  %43 = phi i64 [ %35, %32 ], [ %23, %36 ], [ %23, %38 ], [ %23, %41 ]
  %44 = phi i32 [ %34, %32 ], [ %22, %36 ], [ %22, %38 ], [ %22, %41 ]
  %45 = getelementptr inbounds %class.Mesh, ptr %0, i64 0, i32 22
  %46 = getelementptr inbounds %class.Mesh, ptr %0, i64 0, i32 22, i32 0, i32 0, i32 0, i32 1
  %47 = load ptr, ptr %46, align 8, !tbaa !58
  %48 = load ptr, ptr %45, align 8, !tbaa !59
  %49 = ptrtoint ptr %47 to i64
  %50 = ptrtoint ptr %48 to i64
  %51 = sub i64 %49, %50
  %52 = ashr exact i64 %51, 2
  %53 = icmp ugt i64 %43, %52
  br i1 %53, label %54, label %57

54:                                               ; preds = %42
  %55 = sub nsw i64 %43, %52
  tail call void @_ZNSt6vectorIiSaIiEE17_M_default_appendEm(ptr noundef nonnull align 8 dereferenceable(24) %45, i64 noundef %55)
  %56 = load i32, ptr %21, align 8
  br label %63

57:                                               ; preds = %42
  %58 = icmp ult i64 %43, %52
  br i1 %58, label %59, label %63

59:                                               ; preds = %57
  %60 = getelementptr inbounds i32, ptr %48, i64 %43
  %61 = icmp eq ptr %47, %60
  br i1 %61, label %63, label %62

62:                                               ; preds = %59
  store ptr %60, ptr %46, align 8, !tbaa !58
  br label %63

63:                                               ; preds = %54, %57, %59, %62
  %64 = phi i32 [ %56, %54 ], [ %44, %57 ], [ %44, %59 ], [ %44, %62 ]
  %65 = getelementptr inbounds %class.Mesh, ptr %0, i64 0, i32 11
  %66 = load i32, ptr %65, align 4, !tbaa !95
  %67 = icmp ne i32 %66, 0
  %68 = icmp sgt i32 %64, 1
  %69 = select i1 %67, i1 %68, i1 false
  br i1 %69, label %94, label %70

70:                                               ; preds = %63
  %71 = getelementptr inbounds %class.Mesh, ptr %0, i64 0, i32 13
  store i32 0, ptr %71, align 4, !tbaa !81
  %72 = load i64, ptr %16, align 8, !tbaa !43
  %73 = getelementptr inbounds %class.Mesh, ptr %0, i64 0, i32 46
  store i64 %72, ptr %73, align 8, !tbaa !112
  %74 = getelementptr inbounds %class.Mesh, ptr %0, i64 0, i32 25
  %75 = getelementptr inbounds %class.Mesh, ptr %0, i64 0, i32 25, i32 0, i32 0, i32 0, i32 1
  %76 = load ptr, ptr %75, align 8, !tbaa !58
  %77 = load ptr, ptr %74, align 8, !tbaa !59
  %78 = ptrtoint ptr %76 to i64
  %79 = ptrtoint ptr %77 to i64
  %80 = sub i64 %78, %79
  %81 = ashr exact i64 %80, 2
  %82 = icmp ugt i64 %72, %81
  br i1 %82, label %83, label %86

83:                                               ; preds = %70
  %84 = sub i64 %72, %81
  tail call void @_ZNSt6vectorIiSaIiEE17_M_default_appendEm(ptr noundef nonnull align 8 dereferenceable(24) %74, i64 noundef %84)
  %85 = load i32, ptr %21, align 8, !tbaa !94
  br label %92

86:                                               ; preds = %70
  %87 = icmp ult i64 %72, %81
  br i1 %87, label %88, label %92

88:                                               ; preds = %86
  %89 = getelementptr inbounds i32, ptr %77, i64 %72
  %90 = icmp eq ptr %76, %89
  br i1 %90, label %92, label %91

91:                                               ; preds = %88
  store ptr %89, ptr %75, align 8, !tbaa !58
  br label %92

92:                                               ; preds = %83, %86, %88, %91
  %93 = phi i32 [ %85, %83 ], [ %64, %86 ], [ %64, %88 ], [ %64, %91 ]
  tail call void @_ZN4Mesh17calc_distributionEi(ptr noundef nonnull align 8 dereferenceable(2288) %0, i32 noundef %93)
  br label %94

94:                                               ; preds = %63, %92
  %95 = load i64, ptr %16, align 8, !tbaa !43
  tail call void @_ZN4Mesh13calc_celltypeEm(ptr noundef nonnull align 8 dereferenceable(2288) %0, i64 noundef %95)
  %96 = getelementptr inbounds %class.Mesh, ptr %0, i64 0, i32 36
  %97 = load i32, ptr %96, align 8, !tbaa !91
  br label %543

98:                                               ; preds = %6
  %99 = getelementptr inbounds %class.Mesh, ptr %0, i64 0, i32 37
  %100 = load i32, ptr %99, align 4, !tbaa !68
  %101 = icmp eq i32 %100, 0
  br i1 %101, label %107, label %102

102:                                              ; preds = %98
  %103 = add nsw i32 %1, 1
  %104 = add nsw i32 %2, 1
  %105 = add nsw i32 %1, 2
  %106 = add nsw i32 %2, 2
  br label %107

107:                                              ; preds = %102, %98
  %108 = phi i32 [ %104, %102 ], [ %2, %98 ]
  %109 = phi i32 [ %105, %102 ], [ %1, %98 ]
  %110 = phi i32 [ %106, %102 ], [ %2, %98 ]
  %111 = phi i32 [ %103, %102 ], [ %1, %98 ]
  %112 = phi i32 [ 0, %102 ], [ 1, %98 ]
  %113 = load i32, ptr %0, align 8, !tbaa !57
  %114 = icmp eq i32 %113, 2
  %115 = mul nsw i32 %110, %109
  %116 = shl nsw i32 %100, 2
  %117 = select i1 %114, i32 %116, i32 0
  %118 = sub nsw i32 %115, %117
  %119 = sext i32 %118 to i64
  store i64 %119, ptr %16, align 8, !tbaa !43
  %120 = getelementptr inbounds %class.Mesh, ptr %0, i64 0, i32 13
  store i32 0, ptr %120, align 4, !tbaa !81
  %121 = getelementptr inbounds %class.Mesh, ptr %0, i64 0, i32 11
  %122 = load i32, ptr %121, align 4, !tbaa !95
  %123 = icmp eq i32 %122, 0
  br i1 %123, label %223, label %124

124:                                              ; preds = %107
  %125 = getelementptr inbounds %class.Mesh, ptr %0, i64 0, i32 46
  store i64 %119, ptr %125, align 8, !tbaa !112
  %126 = getelementptr inbounds %class.Mesh, ptr %0, i64 0, i32 21
  %127 = getelementptr inbounds %class.Mesh, ptr %0, i64 0, i32 10
  %128 = load i32, ptr %127, align 8, !tbaa !94
  %129 = sext i32 %128 to i64
  %130 = getelementptr inbounds %class.Mesh, ptr %0, i64 0, i32 21, i32 0, i32 0, i32 0, i32 1
  %131 = load ptr, ptr %130, align 8, !tbaa !58
  %132 = load ptr, ptr %126, align 8, !tbaa !59
  %133 = ptrtoint ptr %131 to i64
  %134 = ptrtoint ptr %132 to i64
  %135 = sub i64 %133, %134
  %136 = ashr exact i64 %135, 2
  %137 = icmp ult i64 %136, %129
  br i1 %137, label %138, label %142

138:                                              ; preds = %124
  %139 = sub nsw i64 %129, %136
  tail call void @_ZNSt6vectorIiSaIiEE17_M_default_appendEm(ptr noundef nonnull align 8 dereferenceable(24) %126, i64 noundef %139)
  %140 = load i32, ptr %127, align 8, !tbaa !94
  %141 = sext i32 %140 to i64
  br label %148

142:                                              ; preds = %124
  %143 = icmp ugt i64 %136, %129
  br i1 %143, label %144, label %148

144:                                              ; preds = %142
  %145 = getelementptr inbounds i32, ptr %132, i64 %129
  %146 = icmp eq ptr %131, %145
  br i1 %146, label %148, label %147

147:                                              ; preds = %144
  store ptr %145, ptr %130, align 8, !tbaa !58
  br label %148

148:                                              ; preds = %138, %142, %144, %147
  %149 = phi i64 [ %141, %138 ], [ %129, %142 ], [ %129, %144 ], [ %129, %147 ]
  %150 = phi i32 [ %140, %138 ], [ %128, %142 ], [ %128, %144 ], [ %128, %147 ]
  %151 = getelementptr inbounds %class.Mesh, ptr %0, i64 0, i32 22
  %152 = getelementptr inbounds %class.Mesh, ptr %0, i64 0, i32 22, i32 0, i32 0, i32 0, i32 1
  %153 = load ptr, ptr %152, align 8, !tbaa !58
  %154 = load ptr, ptr %151, align 8, !tbaa !59
  %155 = ptrtoint ptr %153 to i64
  %156 = ptrtoint ptr %154 to i64
  %157 = sub i64 %155, %156
  %158 = ashr exact i64 %157, 2
  %159 = icmp ugt i64 %149, %158
  br i1 %159, label %160, label %163

160:                                              ; preds = %148
  %161 = sub nsw i64 %149, %158
  tail call void @_ZNSt6vectorIiSaIiEE17_M_default_appendEm(ptr noundef nonnull align 8 dereferenceable(24) %151, i64 noundef %161)
  %162 = load i32, ptr %127, align 8, !tbaa !94
  br label %169

163:                                              ; preds = %148
  %164 = icmp ult i64 %149, %158
  br i1 %164, label %165, label %169

165:                                              ; preds = %163
  %166 = getelementptr inbounds i32, ptr %154, i64 %149
  %167 = icmp eq ptr %153, %166
  br i1 %167, label %169, label %168

168:                                              ; preds = %165
  store ptr %166, ptr %152, align 8, !tbaa !58
  br label %169

169:                                              ; preds = %160, %163, %165, %168
  %170 = phi i32 [ %162, %160 ], [ %150, %163 ], [ %150, %165 ], [ %150, %168 ]
  %171 = icmp sgt i32 %170, 0
  br i1 %171, label %172, label %175

172:                                              ; preds = %169
  %173 = load i64, ptr %125, align 8, !tbaa !112
  %174 = load ptr, ptr %126, align 8, !tbaa !59
  br label %180

175:                                              ; preds = %197, %169
  %176 = load ptr, ptr %151, align 8, !tbaa !59
  store i32 0, ptr %176, align 4, !tbaa !67
  %177 = load i32, ptr %127, align 8, !tbaa !94
  %178 = icmp sgt i32 %177, 1
  %179 = load ptr, ptr %126, align 8, !tbaa !59
  br i1 %178, label %211, label %202

180:                                              ; preds = %172, %197
  %181 = phi i64 [ 0, %172 ], [ %200, %197 ]
  %182 = phi i32 [ %170, %172 ], [ %199, %197 ]
  %183 = sext i32 %182 to i64
  %184 = udiv i64 %173, %183
  %185 = trunc i64 %184 to i32
  %186 = getelementptr inbounds i32, ptr %174, i64 %181
  store i32 %185, ptr %186, align 4, !tbaa !67
  %187 = load i32, ptr %127, align 8, !tbaa !94
  %188 = sext i32 %187 to i64
  %189 = urem i64 %173, %188
  %190 = shl i64 %189, 32
  %191 = ashr exact i64 %190, 32
  %192 = icmp slt i64 %181, %191
  br i1 %192, label %193, label %197

193:                                              ; preds = %180
  %194 = add nsw i32 %185, 1
  store i32 %194, ptr %186, align 4, !tbaa !67
  %195 = load i32, ptr %127, align 8, !tbaa !94
  %196 = sext i32 %195 to i64
  br label %197

197:                                              ; preds = %180, %193
  %198 = phi i64 [ %188, %180 ], [ %196, %193 ]
  %199 = phi i32 [ %187, %180 ], [ %195, %193 ]
  %200 = add nuw nsw i64 %181, 1
  %201 = icmp slt i64 %200, %198
  br i1 %201, label %180, label %175, !llvm.loop !113

202:                                              ; preds = %211, %175
  %203 = getelementptr inbounds %class.Mesh, ptr %0, i64 0, i32 9
  %204 = load i32, ptr %203, align 4, !tbaa !80
  %205 = sext i32 %204 to i64
  %206 = getelementptr inbounds i32, ptr %179, i64 %205
  %207 = load i32, ptr %206, align 4, !tbaa !67
  %208 = sext i32 %207 to i64
  store i64 %208, ptr %16, align 8, !tbaa !43
  %209 = getelementptr inbounds i32, ptr %176, i64 %205
  %210 = load i32, ptr %209, align 4, !tbaa !67
  store i32 %210, ptr %120, align 4, !tbaa !81
  br label %223

211:                                              ; preds = %175, %211
  %212 = phi i32 [ %217, %211 ], [ 0, %175 ]
  %213 = phi i64 [ %219, %211 ], [ 1, %175 ]
  %214 = add nsw i64 %213, -1
  %215 = getelementptr inbounds i32, ptr %179, i64 %214
  %216 = load i32, ptr %215, align 4, !tbaa !67
  %217 = add nsw i32 %216, %212
  %218 = getelementptr inbounds i32, ptr %176, i64 %213
  store i32 %217, ptr %218, align 4, !tbaa !67
  %219 = add nuw nsw i64 %213, 1
  %220 = load i32, ptr %127, align 8, !tbaa !94
  %221 = sext i32 %220 to i64
  %222 = icmp slt i64 %219, %221
  br i1 %222, label %211, label %202, !llvm.loop !114

223:                                              ; preds = %202, %107
  %224 = phi i64 [ %208, %202 ], [ %119, %107 ]
  %225 = getelementptr inbounds %class.Mesh, ptr %0, i64 0, i32 1
  %226 = tail call noundef ptr @_ZN10MallocPlus13memory_mallocEmmPKci(ptr noundef nonnull align 8 dereferenceable(96) %225, i64 noundef %224, i64 noundef 4, ptr noundef nonnull @.str.50, i32 noundef 16)
  %227 = getelementptr inbounds %class.Mesh, ptr %0, i64 0, i32 64
  store ptr %226, ptr %227, align 8, !tbaa !60
  %228 = tail call noundef ptr @_ZN10MallocPlus13memory_mallocEmmPKci(ptr noundef nonnull align 8 dereferenceable(96) %225, i64 noundef %224, i64 noundef 4, ptr noundef nonnull @.str.51, i32 noundef 16)
  %229 = getelementptr inbounds %class.Mesh, ptr %0, i64 0, i32 65
  store ptr %228, ptr %229, align 8, !tbaa !61
  %230 = tail call noundef ptr @_ZN10MallocPlus13memory_mallocEmmPKci(ptr noundef nonnull align 8 dereferenceable(96) %225, i64 noundef %224, i64 noundef 4, ptr noundef nonnull @.str.52, i32 noundef 16)
  %231 = getelementptr inbounds %class.Mesh, ptr %0, i64 0, i32 67
  store ptr %230, ptr %231, align 8, !tbaa !62
  %232 = getelementptr inbounds %class.Mesh, ptr %0, i64 0, i32 63
  %233 = load i64, ptr %16, align 8, !tbaa !43
  %234 = getelementptr inbounds %class.Mesh, ptr %0, i64 0, i32 63, i32 0, i32 0, i32 0, i32 1
  %235 = load ptr, ptr %234, align 8, !tbaa !58
  %236 = load ptr, ptr %232, align 8, !tbaa !59
  %237 = ptrtoint ptr %235 to i64
  %238 = ptrtoint ptr %236 to i64
  %239 = sub i64 %237, %238
  %240 = ashr exact i64 %239, 2
  %241 = icmp ugt i64 %233, %240
  br i1 %241, label %242, label %244

242:                                              ; preds = %223
  %243 = sub i64 %233, %240
  tail call void @_ZNSt6vectorIiSaIiEE17_M_default_appendEm(ptr noundef nonnull align 8 dereferenceable(24) %232, i64 noundef %243)
  br label %250

244:                                              ; preds = %223
  %245 = icmp ult i64 %233, %240
  br i1 %245, label %246, label %250

246:                                              ; preds = %244
  %247 = getelementptr inbounds i32, ptr %236, i64 %233
  %248 = icmp eq ptr %235, %247
  br i1 %248, label %250, label %249

249:                                              ; preds = %246
  store ptr %247, ptr %234, align 8, !tbaa !58
  br label %250

250:                                              ; preds = %242, %244, %246, %249
  %251 = icmp sgt i32 %112, %108
  %252 = icmp sgt i32 %112, %111
  %253 = select i1 %251, i1 true, i1 %252
  br i1 %253, label %267, label %254

254:                                              ; preds = %250, %299
  %255 = phi i32 [ %300, %299 ], [ %112, %250 ]
  %256 = phi i32 [ %330, %299 ], [ 0, %250 ]
  %257 = icmp eq i32 %255, 0
  %258 = icmp eq i32 %255, %108
  %259 = load i64, ptr %16, align 8
  %260 = trunc i64 %259 to i32
  %261 = load ptr, ptr %232, align 8
  %262 = load ptr, ptr %227, align 8
  %263 = load ptr, ptr %229, align 8
  %264 = load ptr, ptr %231, align 8
  %265 = select i1 %257, i1 true, i1 %258
  %266 = select i1 %257, i1 true, i1 %258
  br label %302

267:                                              ; preds = %299, %250
  %268 = getelementptr inbounds %class.Mesh, ptr %0, i64 0, i32 10
  %269 = load i32, ptr %268, align 8, !tbaa !94
  tail call void @_ZN4Mesh15partition_cellsEiRSt6vectorIiSaIiEE16partition_method(ptr noundef nonnull align 8 dereferenceable(2288) %0, i32 noundef %269, ptr noundef nonnull align 8 dereferenceable(24) %232, i32 noundef %4)
  %270 = load i64, ptr %16, align 8, !tbaa !43
  tail call void @_ZN4Mesh13calc_celltypeEm(ptr noundef nonnull align 8 dereferenceable(2288) %0, i64 noundef %270)
  tail call void @_ZN4Mesh24calc_spatial_coordinatesEi(ptr noundef nonnull align 8 dereferenceable(2288) %0, i32 noundef 0)
  %271 = getelementptr inbounds %class.Mesh, ptr %0, i64 0, i32 36
  %272 = load i32, ptr %271, align 8, !tbaa !91
  %273 = icmp slt i32 %272, 1
  br i1 %273, label %333, label %274

274:                                              ; preds = %267
  %275 = getelementptr inbounds %class.Mesh, ptr %0, i64 0, i32 47
  %276 = getelementptr inbounds %class.Mesh, ptr %0, i64 0, i32 24
  %277 = getelementptr inbounds %class.Mesh, ptr %0, i64 0, i32 75
  %278 = getelementptr inbounds %class.Mesh, ptr %0, i64 0, i32 76
  %279 = getelementptr inbounds %struct.TBounds, ptr %7, i64 0, i32 1
  %280 = getelementptr inbounds %class.Mesh, ptr %0, i64 0, i32 77
  %281 = getelementptr inbounds %struct.TVector, ptr %7, i64 0, i32 1
  %282 = getelementptr inbounds %class.Mesh, ptr %0, i64 0, i32 78
  %283 = getelementptr inbounds %struct.TBounds, ptr %7, i64 0, i32 1, i32 1
  %284 = getelementptr inbounds %"struct.std::_Vector_base<int, std::allocator<int>>::_Vector_impl_data", ptr %9, i64 0, i32 2
  %285 = getelementptr inbounds %"struct.std::_Vector_base<int, std::allocator<int>>::_Vector_impl_data", ptr %9, i64 0, i32 1
  %286 = getelementptr inbounds i8, ptr %12, i64 8
  %287 = getelementptr inbounds i8, ptr %12, i64 16
  %288 = getelementptr inbounds i8, ptr %12, i64 24
  %289 = getelementptr inbounds i8, ptr %12, i64 32
  %290 = getelementptr inbounds i8, ptr %12, i64 40
  %291 = getelementptr inbounds %class.MallocPlus, ptr %12, i64 0, i32 1, i32 0, i32 0, i32 1
  %292 = getelementptr inbounds %class.MallocPlus, ptr %12, i64 0, i32 1, i32 0, i32 0, i32 1, i32 0, i32 1
  %293 = getelementptr inbounds %class.MallocPlus, ptr %12, i64 0, i32 1, i32 0, i32 0, i32 1, i32 0, i32 2
  %294 = getelementptr inbounds %class.MallocPlus, ptr %12, i64 0, i32 1, i32 0, i32 0, i32 1, i32 0, i32 3
  %295 = getelementptr inbounds %class.MallocPlus, ptr %12, i64 0, i32 1, i32 0, i32 0, i32 1, i32 1
  %296 = getelementptr inbounds %"struct.std::_Vector_base<int, std::allocator<int>>::_Vector_impl_data", ptr %13, i64 0, i32 1
  %297 = getelementptr inbounds %"struct.std::_Vector_base<int, std::allocator<int>>::_Vector_impl_data", ptr %13, i64 0, i32 2
  %298 = getelementptr inbounds %class.MallocPlus, ptr %12, i64 0, i32 1
  br label %342

299:                                              ; preds = %329
  %300 = add nuw i32 %255, 1
  %301 = icmp eq i32 %255, %108
  br i1 %301, label %267, label %254, !llvm.loop !115

302:                                              ; preds = %254, %329
  %303 = phi i32 [ %112, %254 ], [ %331, %329 ]
  %304 = phi i32 [ %256, %254 ], [ %330, %329 ]
  %305 = load i32, ptr %99, align 4, !tbaa !68
  %306 = icmp ne i32 %305, 0
  %307 = icmp eq i32 %303, 0
  %308 = select i1 %306, i1 %307, i1 false
  %309 = select i1 %308, i1 %265, i1 false
  br i1 %309, label %329, label %310

310:                                              ; preds = %302
  %311 = icmp eq i32 %303, %111
  %312 = select i1 %306, i1 %311, i1 false
  %313 = select i1 %312, i1 %266, i1 false
  br i1 %313, label %329, label %314

314:                                              ; preds = %310
  %315 = load i32, ptr %120, align 4, !tbaa !81
  %316 = icmp sge i32 %304, %315
  %317 = add i32 %315, %260
  %318 = icmp slt i32 %304, %317
  %319 = select i1 %316, i1 %318, i1 false
  br i1 %319, label %320, label %327

320:                                              ; preds = %314
  %321 = sub nsw i32 %304, %315
  %322 = sext i32 %321 to i64
  %323 = getelementptr inbounds i32, ptr %261, i64 %322
  store i32 %304, ptr %323, align 4, !tbaa !67
  %324 = getelementptr inbounds i32, ptr %262, i64 %322
  store i32 %303, ptr %324, align 4, !tbaa !67
  %325 = getelementptr inbounds i32, ptr %263, i64 %322
  store i32 %255, ptr %325, align 4, !tbaa !67
  %326 = getelementptr inbounds i32, ptr %264, i64 %322
  store i32 0, ptr %326, align 4, !tbaa !67
  br label %327

327:                                              ; preds = %320, %314
  %328 = add nsw i32 %304, 1
  br label %329

329:                                              ; preds = %310, %302, %327
  %330 = phi i32 [ %304, %302 ], [ %328, %327 ], [ %304, %310 ]
  %331 = add nuw i32 %303, 1
  %332 = icmp eq i32 %303, %111
  br i1 %332, label %299, label %302, !llvm.loop !116

333:                                              ; preds = %509, %267
  %334 = phi i32 [ %272, %267 ], [ %511, %509 ]
  %335 = load ptr, ptr %232, align 8, !tbaa !59
  %336 = load ptr, ptr %234, align 8, !tbaa !58
  %337 = icmp eq ptr %336, %335
  br i1 %337, label %339, label %338

338:                                              ; preds = %333
  store ptr %335, ptr %234, align 8, !tbaa !58
  br label %339

339:                                              ; preds = %333, %338
  %340 = load i64, ptr %16, align 8, !tbaa !43
  %341 = getelementptr inbounds %class.Mesh, ptr %0, i64 0, i32 47
  store i64 %340, ptr %341, align 8, !tbaa !78
  br label %543

342:                                              ; preds = %274, %509
  %343 = phi i32 [ 1, %274 ], [ %510, %509 ]
  %344 = load i64, ptr %16, align 8, !tbaa !43
  store i64 %344, ptr %275, align 8, !tbaa !78
  call void @_ZN4Mesh20calc_neighbors_localEv(ptr noundef nonnull align 8 dereferenceable(2288) %0)
  call void @KDTree_Initialize(ptr noundef nonnull %276)
  call void @llvm.lifetime.start.p0(i64 32, ptr nonnull %7) #31
  %345 = load i64, ptr %16, align 8, !tbaa !43
  %346 = icmp eq i64 %345, 0
  br i1 %346, label %347, label %348

347:                                              ; preds = %342
  call void @llvm.lifetime.end.p0(i64 32, ptr nonnull %7) #31
  call void @llvm.lifetime.start.p0(i64 4, ptr nonnull %8) #31
  br label %382

348:                                              ; preds = %342, %348
  %349 = phi i64 [ %367, %348 ], [ 0, %342 ]
  %350 = load ptr, ptr %277, align 8, !tbaa !44
  %351 = getelementptr inbounds double, ptr %350, i64 %349
  %352 = load double, ptr %351, align 8, !tbaa !45
  store double %352, ptr %7, align 8, !tbaa !117
  %353 = load double, ptr %351, align 8, !tbaa !45
  %354 = load ptr, ptr %278, align 8, !tbaa !44
  %355 = getelementptr inbounds double, ptr %354, i64 %349
  %356 = load double, ptr %355, align 8, !tbaa !45
  %357 = fadd double %353, %356
  store double %357, ptr %279, align 8, !tbaa !118
  %358 = load ptr, ptr %280, align 8, !tbaa !44
  %359 = getelementptr inbounds double, ptr %358, i64 %349
  %360 = load double, ptr %359, align 8, !tbaa !45
  store double %360, ptr %281, align 8, !tbaa !119
  %361 = load double, ptr %359, align 8, !tbaa !45
  %362 = load ptr, ptr %282, align 8, !tbaa !44
  %363 = getelementptr inbounds double, ptr %362, i64 %349
  %364 = load double, ptr %363, align 8, !tbaa !45
  %365 = fadd double %361, %364
  store double %365, ptr %283, align 8, !tbaa !120
  call void @KDTree_AddElement(ptr noundef nonnull %276, ptr noundef nonnull %7)
  %366 = add nuw nsw i64 %349, 1
  %367 = and i64 %366, 4294967295
  %368 = load i64, ptr %16, align 8, !tbaa !43
  %369 = icmp ugt i64 %368, %367
  br i1 %369, label %348, label %370, !llvm.loop !121

370:                                              ; preds = %348
  call void @llvm.lifetime.end.p0(i64 32, ptr nonnull %7) #31
  call void @llvm.lifetime.start.p0(i64 4, ptr nonnull %8) #31
  %371 = icmp ugt i64 %368, 2305843009213693951
  br i1 %371, label %372, label %373

372:                                              ; preds = %370
  call void @_ZSt20__throw_length_errorPKc(ptr noundef nonnull @.str.142) #36
  unreachable

373:                                              ; preds = %370
  %374 = icmp eq i64 %368, 0
  br i1 %374, label %382, label %375

375:                                              ; preds = %373
  %376 = shl nuw nsw i64 %368, 2
  %377 = call noalias noundef nonnull ptr @_Znwm(i64 noundef %376) #35
  store i32 0, ptr %377, align 4, !tbaa !67
  %378 = icmp eq i64 %368, 1
  br i1 %378, label %382, label %379

379:                                              ; preds = %375
  %380 = getelementptr i32, ptr %377, i64 1
  %381 = add nsw i64 %376, -4
  call void @llvm.memset.p0.i64(ptr align 4 %380, i8 0, i64 %381, i1 false), !tbaa !67
  br label %382

382:                                              ; preds = %347, %379, %375, %373
  %383 = phi i64 [ 1, %375 ], [ %368, %379 ], [ 0, %373 ], [ 0, %347 ]
  %384 = phi ptr [ %377, %375 ], [ %377, %379 ], [ null, %373 ], [ null, %347 ]
  %385 = trunc i64 %383 to i32
  %386 = load ptr, ptr %277, align 8, !tbaa !44
  %387 = load ptr, ptr %278, align 8, !tbaa !44
  %388 = load ptr, ptr %280, align 8, !tbaa !44
  %389 = load ptr, ptr %282, align 8, !tbaa !44
  invoke void @KDTree_QueryCircleIntersect_Double(ptr noundef nonnull %276, ptr noundef nonnull %8, ptr noundef %384, double noundef %3, i32 noundef %385, ptr noundef %386, ptr noundef %387, ptr noundef %388, ptr noundef %389)
          to label %390 unwind label %429

390:                                              ; preds = %382
  call void @llvm.lifetime.start.p0(i64 24, ptr nonnull %9) #31
  %391 = load i64, ptr %275, align 8, !tbaa !78
  %392 = icmp ugt i64 %391, 2305843009213693951
  br i1 %392, label %393, label %395

393:                                              ; preds = %390
  invoke void @_ZSt20__throw_length_errorPKc(ptr noundef nonnull @.str.142) #36
          to label %394 unwind label %433

394:                                              ; preds = %393
  unreachable

395:                                              ; preds = %390
  %396 = icmp eq i64 %391, 0
  br i1 %396, label %397, label %398

397:                                              ; preds = %395
  call void @llvm.memset.p0.i64(ptr noundef nonnull align 8 dereferenceable(24) %9, i8 0, i64 24, i1 false)
  br label %403

398:                                              ; preds = %395
  %399 = shl nuw nsw i64 %391, 2
  %400 = invoke noalias noundef nonnull ptr @_Znwm(i64 noundef %399) #35
          to label %401 unwind label %431

401:                                              ; preds = %398
  store ptr %400, ptr %9, align 8, !tbaa !59
  %402 = getelementptr inbounds i32, ptr %400, i64 %391
  store ptr %402, ptr %284, align 8, !tbaa !110
  call void @llvm.memset.p0.i64(ptr nonnull align 4 %400, i8 0, i64 %399, i1 false), !tbaa !67
  br label %403

403:                                              ; preds = %401, %397
  %404 = phi ptr [ null, %397 ], [ %400, %401 ]
  %405 = phi ptr [ null, %397 ], [ %402, %401 ]
  store ptr %405, ptr %285, align 8, !tbaa !58
  %406 = load i32, ptr %8, align 4, !tbaa !67
  %407 = icmp sgt i32 %406, 0
  br i1 %407, label %408, label %428

408:                                              ; preds = %403
  %409 = load ptr, ptr %231, align 8, !tbaa !62
  %410 = load i32, ptr %271, align 8, !tbaa !91
  %411 = sext i32 %406 to i64
  %412 = and i64 %411, 1
  %413 = icmp eq i32 %406, 1
  br i1 %413, label %416, label %414

414:                                              ; preds = %408
  %415 = and i64 %411, -2
  br label %435

416:                                              ; preds = %456, %408
  %417 = phi i64 [ 0, %408 ], [ %457, %456 ]
  %418 = icmp eq i64 %412, 0
  br i1 %418, label %428, label %419

419:                                              ; preds = %416
  %420 = getelementptr inbounds i32, ptr %384, i64 %417
  %421 = load i32, ptr %420, align 4, !tbaa !67
  %422 = sext i32 %421 to i64
  %423 = getelementptr inbounds i32, ptr %409, i64 %422
  %424 = load i32, ptr %423, align 4, !tbaa !67
  %425 = icmp slt i32 %424, %410
  br i1 %425, label %426, label %428

426:                                              ; preds = %419
  %427 = getelementptr inbounds i32, ptr %404, i64 %422
  store i32 1, ptr %427, align 4, !tbaa !67
  br label %428

428:                                              ; preds = %416, %426, %419, %403
  invoke void @KDTree_Destroy(ptr noundef nonnull %276)
          to label %460 unwind label %513

429:                                              ; preds = %382
  %430 = landingpad { ptr, i32 }
          cleanup
  br label %538

431:                                              ; preds = %398
  %432 = landingpad { ptr, i32 }
          cleanup
  br label %536

433:                                              ; preds = %393
  %434 = landingpad { ptr, i32 }
          cleanup
  br label %536

435:                                              ; preds = %456, %414
  %436 = phi i64 [ 0, %414 ], [ %457, %456 ]
  %437 = phi i64 [ 0, %414 ], [ %458, %456 ]
  %438 = getelementptr inbounds i32, ptr %384, i64 %436
  %439 = load i32, ptr %438, align 4, !tbaa !67
  %440 = sext i32 %439 to i64
  %441 = getelementptr inbounds i32, ptr %409, i64 %440
  %442 = load i32, ptr %441, align 4, !tbaa !67
  %443 = icmp slt i32 %442, %410
  br i1 %443, label %444, label %446

444:                                              ; preds = %435
  %445 = getelementptr inbounds i32, ptr %404, i64 %440
  store i32 1, ptr %445, align 4, !tbaa !67
  br label %446

446:                                              ; preds = %435, %444
  %447 = or i64 %436, 1
  %448 = getelementptr inbounds i32, ptr %384, i64 %447
  %449 = load i32, ptr %448, align 4, !tbaa !67
  %450 = sext i32 %449 to i64
  %451 = getelementptr inbounds i32, ptr %409, i64 %450
  %452 = load i32, ptr %451, align 4, !tbaa !67
  %453 = icmp slt i32 %452, %410
  br i1 %453, label %454, label %456

454:                                              ; preds = %446
  %455 = getelementptr inbounds i32, ptr %404, i64 %450
  store i32 1, ptr %455, align 4, !tbaa !67
  br label %456

456:                                              ; preds = %454, %446
  %457 = add nuw nsw i64 %436, 2
  %458 = add i64 %437, 2
  %459 = icmp eq i64 %458, %415
  br i1 %459, label %416, label %435, !llvm.loop !122

460:                                              ; preds = %428
  call void @llvm.lifetime.start.p0(i64 4, ptr nonnull %10) #31
  store i32 0, ptr %10, align 4, !tbaa !67
  call void @llvm.lifetime.start.p0(i64 4, ptr nonnull %11) #31
  store i32 0, ptr %11, align 4, !tbaa !67
  %461 = invoke noundef i64 @_ZN4Mesh13refine_smoothERSt6vectorIiSaIiEERiS4_(ptr noundef nonnull align 8 dereferenceable(2288) %0, ptr noundef nonnull align 8 dereferenceable(24) %9, ptr noundef nonnull align 4 dereferenceable(4) %10, ptr noundef nonnull align 4 dereferenceable(4) %11)
          to label %462 unwind label %515, !range !123

462:                                              ; preds = %460
  call void @llvm.lifetime.start.p0(i64 96, ptr nonnull %12) #31
  store i32 0, ptr %286, align 8, !tbaa !50
  store ptr null, ptr %287, align 8, !tbaa !51
  store ptr %286, ptr %288, align 8, !tbaa !52
  store ptr %286, ptr %289, align 8, !tbaa !53
  store i64 0, ptr %290, align 8, !tbaa !54
  store i32 0, ptr %291, align 8, !tbaa !50
  store ptr null, ptr %292, align 8, !tbaa !51
  store ptr %291, ptr %293, align 8, !tbaa !52
  store ptr %291, ptr %294, align 8, !tbaa !53
  store i64 0, ptr %295, align 8, !tbaa !54
  %463 = load i32, ptr %10, align 4, !tbaa !67
  %464 = load i32, ptr %11, align 4, !tbaa !67
  %465 = load ptr, ptr %285, align 8, !tbaa !58
  %466 = load ptr, ptr %9, align 8, !tbaa !59
  %467 = ptrtoint ptr %465 to i64
  %468 = ptrtoint ptr %466 to i64
  %469 = sub i64 %467, %468
  %470 = ashr exact i64 %469, 2
  call void @llvm.memset.p0.i64(ptr noundef nonnull align 8 dereferenceable(24) %13, i8 0, i64 24, i1 false)
  %471 = icmp eq ptr %465, %466
  br i1 %471, label %472, label %474

472:                                              ; preds = %462
  %473 = getelementptr inbounds i32, ptr null, i64 %470
  store i64 0, ptr %13, align 8
  store ptr %473, ptr %297, align 8, !tbaa !110
  br label %486

474:                                              ; preds = %462
  %475 = icmp ugt i64 %469, 9223372036854775804
  br i1 %475, label %476, label %482, !prof !124

476:                                              ; preds = %474
  %477 = icmp slt i64 %469, 0
  br i1 %477, label %478, label %480

478:                                              ; preds = %476
  invoke void @_ZSt28__throw_bad_array_new_lengthv() #36
          to label %479 unwind label %520

479:                                              ; preds = %478
  unreachable

480:                                              ; preds = %476
  invoke void @_ZSt17__throw_bad_allocv() #36
          to label %481 unwind label %520

481:                                              ; preds = %480
  unreachable

482:                                              ; preds = %474
  %483 = invoke noalias noundef nonnull ptr @_Znwm(i64 noundef %469) #35
          to label %484 unwind label %518

484:                                              ; preds = %482
  store ptr %483, ptr %13, align 8, !tbaa !59
  %485 = getelementptr inbounds i32, ptr %483, i64 %470
  store ptr %485, ptr %297, align 8, !tbaa !110
  call void @llvm.memmove.p0.p0.i64(ptr nonnull align 4 %483, ptr align 4 %466, i64 %469, i1 false)
  br label %486

486:                                              ; preds = %472, %484
  %487 = phi ptr [ %473, %472 ], [ %485, %484 ]
  %488 = phi ptr [ null, %472 ], [ %483, %484 ]
  store ptr %487, ptr %296, align 8, !tbaa !58
  invoke void @_ZN4Mesh10rezone_allEiiSt6vectorIiSaIiEEiR10MallocPlus(ptr noundef nonnull align 8 dereferenceable(2288) %0, i32 noundef %463, i32 noundef %464, ptr noundef nonnull %13, i32 noundef 0, ptr noundef nonnull align 8 dereferenceable(96) %12)
          to label %489 unwind label %522

489:                                              ; preds = %486
  %490 = icmp eq ptr %488, null
  br i1 %490, label %492, label %491

491:                                              ; preds = %489
  call void @_ZdlPv(ptr noundef nonnull %488) #33
  br label %492

492:                                              ; preds = %489, %491
  store i64 %461, ptr %16, align 8, !tbaa !43
  invoke void @_ZN4Mesh24calc_spatial_coordinatesEi(ptr noundef nonnull align 8 dereferenceable(2288) %0, i32 noundef 0)
          to label %493 unwind label %518

493:                                              ; preds = %492
  %494 = load ptr, ptr %292, align 8, !tbaa !51
  invoke void @_ZNSt8_Rb_treeIPvSt4pairIKS0_P24malloc_plus_memory_entryESt10_Select1stIS5_ESt4lessIS0_ESaIS5_EE8_M_eraseEPSt13_Rb_tree_nodeIS5_E(ptr noundef nonnull align 8 dereferenceable(48) %298, ptr noundef %494)
          to label %498 unwind label %495

495:                                              ; preds = %493
  %496 = landingpad { ptr, i32 }
          catch ptr null
  %497 = extractvalue { ptr, i32 } %496, 0
  call void @__clang_call_terminate(ptr %497) #32
  unreachable

498:                                              ; preds = %493
  %499 = load ptr, ptr %287, align 8, !tbaa !51
  invoke void @_ZNSt8_Rb_treeINSt7__cxx1112basic_stringIcSt11char_traitsIcESaIcEEESt4pairIKS5_P24malloc_plus_memory_entryESt10_Select1stISA_ESt4lessIS5_ESaISA_EE8_M_eraseEPSt13_Rb_tree_nodeISA_E(ptr noundef nonnull align 8 dereferenceable(48) %12, ptr noundef %499)
          to label %503 unwind label %500

500:                                              ; preds = %498
  %501 = landingpad { ptr, i32 }
          catch ptr null
  %502 = extractvalue { ptr, i32 } %501, 0
  call void @__clang_call_terminate(ptr %502) #32
  unreachable

503:                                              ; preds = %498
  call void @llvm.lifetime.end.p0(i64 96, ptr nonnull %12) #31
  call void @llvm.lifetime.end.p0(i64 4, ptr nonnull %11) #31
  call void @llvm.lifetime.end.p0(i64 4, ptr nonnull %10) #31
  %504 = icmp eq ptr %466, null
  br i1 %504, label %506, label %505

505:                                              ; preds = %503
  call void @_ZdlPv(ptr noundef nonnull %466) #33
  br label %506

506:                                              ; preds = %503, %505
  call void @llvm.lifetime.end.p0(i64 24, ptr nonnull %9) #31
  %507 = icmp eq ptr %384, null
  br i1 %507, label %509, label %508

508:                                              ; preds = %506
  call void @_ZdlPv(ptr noundef nonnull %384) #33
  br label %509

509:                                              ; preds = %506, %508
  call void @llvm.lifetime.end.p0(i64 4, ptr nonnull %8) #31
  %510 = add nuw nsw i32 %343, 1
  %511 = load i32, ptr %271, align 8, !tbaa !91
  %512 = icmp slt i32 %343, %511
  br i1 %512, label %342, label %333, !llvm.loop !125

513:                                              ; preds = %428
  %514 = landingpad { ptr, i32 }
          cleanup
  br label %531

515:                                              ; preds = %460
  %516 = landingpad { ptr, i32 }
          cleanup
  %517 = load ptr, ptr %9, align 8, !tbaa !59
  br label %528

518:                                              ; preds = %492, %482
  %519 = landingpad { ptr, i32 }
          cleanup
  br label %526

520:                                              ; preds = %478, %480
  %521 = landingpad { ptr, i32 }
          cleanup
  br label %526

522:                                              ; preds = %486
  %523 = landingpad { ptr, i32 }
          cleanup
  %524 = icmp eq ptr %488, null
  br i1 %524, label %526, label %525

525:                                              ; preds = %522
  call void @_ZdlPv(ptr noundef nonnull %488) #33
  br label %526

526:                                              ; preds = %518, %520, %525, %522
  %527 = phi { ptr, i32 } [ %523, %522 ], [ %523, %525 ], [ %519, %518 ], [ %521, %520 ]
  call void @_ZN10MallocPlusD2Ev(ptr noundef nonnull align 8 dereferenceable(96) %12) #31
  call void @llvm.lifetime.end.p0(i64 96, ptr nonnull %12) #31
  br label %528

528:                                              ; preds = %526, %515
  %529 = phi ptr [ %466, %526 ], [ %517, %515 ]
  %530 = phi { ptr, i32 } [ %527, %526 ], [ %516, %515 ]
  call void @llvm.lifetime.end.p0(i64 4, ptr nonnull %11) #31
  call void @llvm.lifetime.end.p0(i64 4, ptr nonnull %10) #31
  br label %531

531:                                              ; preds = %528, %513
  %532 = phi ptr [ %529, %528 ], [ %404, %513 ]
  %533 = phi { ptr, i32 } [ %530, %528 ], [ %514, %513 ]
  %534 = icmp eq ptr %532, null
  br i1 %534, label %536, label %535

535:                                              ; preds = %531
  call void @_ZdlPv(ptr noundef nonnull %532) #33
  br label %536

536:                                              ; preds = %431, %433, %535, %531
  %537 = phi { ptr, i32 } [ %533, %531 ], [ %533, %535 ], [ %432, %431 ], [ %434, %433 ]
  call void @llvm.lifetime.end.p0(i64 24, ptr nonnull %9) #31
  br label %538

538:                                              ; preds = %536, %429
  %539 = phi { ptr, i32 } [ %537, %536 ], [ %430, %429 ]
  %540 = icmp eq ptr %384, null
  br i1 %540, label %542, label %541

541:                                              ; preds = %538
  call void @_ZdlPv(ptr noundef nonnull %384) #33
  br label %542

542:                                              ; preds = %541, %538
  call void @llvm.lifetime.end.p0(i64 4, ptr nonnull %8) #31
  resume { ptr, i32 } %539

543:                                              ; preds = %339, %94
  %544 = phi i32 [ %334, %339 ], [ %97, %94 ]
  call void @llvm.lifetime.start.p0(i64 16, ptr nonnull %14) #31
  store i32 0, ptr %14, align 16, !tbaa !67
  %545 = getelementptr inbounds i32, ptr %14, i64 1
  store i32 0, ptr %545, align 4, !tbaa !67
  %546 = getelementptr inbounds i32, ptr %14, i64 2
  %547 = getelementptr inbounds %class.Mesh, ptr %0, i64 0, i32 40
  %548 = load i32, ptr %547, align 8, !tbaa !102
  store i32 %548, ptr %546, align 8, !tbaa !67
  %549 = getelementptr inbounds i32, ptr %14, i64 3
  store i32 %548, ptr %549, align 4, !tbaa !67
  call void @llvm.lifetime.start.p0(i64 16, ptr nonnull %15) #31
  store i32 0, ptr %15, align 16, !tbaa !67
  %550 = getelementptr inbounds i32, ptr %15, i64 1
  %551 = getelementptr inbounds %class.Mesh, ptr %0, i64 0, i32 42
  %552 = load i32, ptr %551, align 8, !tbaa !103
  store i32 %552, ptr %550, align 4, !tbaa !67
  %553 = getelementptr inbounds i32, ptr %15, i64 2
  store i32 0, ptr %553, align 8, !tbaa !67
  %554 = getelementptr inbounds i32, ptr %15, i64 3
  store i32 %552, ptr %554, align 4, !tbaa !67
  %555 = getelementptr inbounds %class.Mesh, ptr %0, i64 0, i32 36
  %556 = getelementptr inbounds %class.Mesh, ptr %0, i64 0, i32 19
  %557 = getelementptr inbounds %class.Mesh, ptr %0, i64 0, i32 19, i32 0, i32 0, i32 0, i32 1
  %558 = getelementptr inbounds %class.Mesh, ptr %0, i64 0, i32 19, i32 0, i32 0, i32 0, i32 2
  %559 = getelementptr inbounds %class.Mesh, ptr %0, i64 0, i32 20
  %560 = getelementptr inbounds %class.Mesh, ptr %0, i64 0, i32 20, i32 0, i32 0, i32 0, i32 1
  %561 = getelementptr inbounds %class.Mesh, ptr %0, i64 0, i32 20, i32 0, i32 0, i32 0, i32 2
  br label %563

562:                                              ; preds = %578
  call void @llvm.lifetime.end.p0(i64 16, ptr nonnull %15) #31
  call void @llvm.lifetime.end.p0(i64 16, ptr nonnull %14) #31
  ret void

563:                                              ; preds = %543, %578
  %564 = phi i32 [ %544, %543 ], [ %579, %578 ]
  %565 = phi i32 [ %544, %543 ], [ %580, %578 ]
  %566 = phi i64 [ 0, %543 ], [ %581, %578 ]
  %567 = getelementptr inbounds [4 x i32], ptr %15, i64 0, i64 %566
  %568 = load i32, ptr %567, align 4, !tbaa !67
  %569 = shl i32 2, %565
  %570 = mul nsw i32 %569, %568
  %571 = add nsw i32 %568, 1
  %572 = mul nsw i32 %569, %571
  %573 = icmp slt i32 %570, %572
  br i1 %573, label %574, label %578

574:                                              ; preds = %563
  %575 = getelementptr inbounds [4 x i32], ptr %14, i64 0, i64 %566
  %576 = load i32, ptr %575, align 4, !tbaa !67
  %577 = add nsw i32 %576, 1
  br label %583

578:                                              ; preds = %594, %563
  %579 = phi i32 [ %564, %563 ], [ %596, %594 ]
  %580 = phi i32 [ %565, %563 ], [ %596, %594 ]
  %581 = add nuw nsw i64 %566, 1
  %582 = icmp eq i64 %581, 4
  br i1 %582, label %562, label %563, !llvm.loop !126

583:                                              ; preds = %574, %594
  %584 = phi i32 [ %564, %574 ], [ %596, %594 ]
  %585 = phi i32 [ %565, %574 ], [ %596, %594 ]
  %586 = phi i32 [ %569, %574 ], [ %595, %594 ]
  %587 = phi i32 [ %570, %574 ], [ %597, %594 ]
  %588 = mul nsw i32 %576, %586
  %589 = shl i32 2, %585
  %590 = mul nsw i32 %589, %577
  %591 = icmp slt i32 %588, %590
  br i1 %591, label %600, label %592

592:                                              ; preds = %583
  %593 = shl i32 2, %584
  br label %594

594:                                              ; preds = %673, %592
  %595 = phi i32 [ %593, %592 ], [ %676, %673 ]
  %596 = phi i32 [ %584, %592 ], [ %675, %673 ]
  %597 = add nsw i32 %587, 1
  %598 = mul nsw i32 %595, %571
  %599 = icmp slt i32 %597, %598
  br i1 %599, label %583, label %578, !llvm.loop !127

600:                                              ; preds = %583, %673
  %601 = phi i32 [ %674, %673 ], [ %588, %583 ]
  %602 = load ptr, ptr %557, align 8, !tbaa !58
  %603 = load ptr, ptr %558, align 8, !tbaa !110
  %604 = icmp eq ptr %602, %603
  br i1 %604, label %607, label %605

605:                                              ; preds = %600
  store i32 %601, ptr %602, align 4, !tbaa !67
  %606 = getelementptr inbounds i32, ptr %602, i64 1
  store ptr %606, ptr %557, align 8, !tbaa !58
  br label %637

607:                                              ; preds = %600
  %608 = load ptr, ptr %556, align 8, !tbaa !59
  %609 = ptrtoint ptr %602 to i64
  %610 = ptrtoint ptr %608 to i64
  %611 = sub i64 %609, %610
  %612 = icmp eq i64 %611, 9223372036854775804
  br i1 %612, label %613, label %614

613:                                              ; preds = %607
  call void @_ZSt20__throw_length_errorPKc(ptr noundef nonnull @.str.143) #36
  unreachable

614:                                              ; preds = %607
  %615 = ashr exact i64 %611, 2
  %616 = call i64 @llvm.umax.i64(i64 %615, i64 1)
  %617 = add i64 %616, %615
  %618 = icmp ult i64 %617, %615
  %619 = icmp ugt i64 %617, 2305843009213693951
  %620 = or i1 %618, %619
  %621 = select i1 %620, i64 2305843009213693951, i64 %617
  %622 = icmp eq i64 %621, 0
  br i1 %622, label %626, label %623

623:                                              ; preds = %614
  %624 = shl nuw nsw i64 %621, 2
  %625 = call noalias noundef nonnull ptr @_Znwm(i64 noundef %624) #35
  br label %626

626:                                              ; preds = %623, %614
  %627 = phi ptr [ %625, %623 ], [ null, %614 ]
  %628 = getelementptr inbounds i32, ptr %627, i64 %615
  store i32 %601, ptr %628, align 4, !tbaa !67
  %629 = icmp sgt i64 %611, 0
  br i1 %629, label %630, label %631

630:                                              ; preds = %626
  call void @llvm.memmove.p0.p0.i64(ptr nonnull align 4 %627, ptr align 4 %608, i64 %611, i1 false)
  br label %631

631:                                              ; preds = %630, %626
  %632 = getelementptr inbounds i32, ptr %628, i64 1
  %633 = icmp eq ptr %608, null
  br i1 %633, label %635, label %634

634:                                              ; preds = %631
  call void @_ZdlPv(ptr noundef nonnull %608) #33
  br label %635

635:                                              ; preds = %634, %631
  store ptr %627, ptr %556, align 8, !tbaa !59
  store ptr %632, ptr %557, align 8, !tbaa !58
  %636 = getelementptr inbounds i32, ptr %627, i64 %621
  store ptr %636, ptr %558, align 8, !tbaa !110
  br label %637

637:                                              ; preds = %605, %635
  %638 = load ptr, ptr %560, align 8, !tbaa !58
  %639 = load ptr, ptr %561, align 8, !tbaa !110
  %640 = icmp eq ptr %638, %639
  br i1 %640, label %643, label %641

641:                                              ; preds = %637
  store i32 %587, ptr %638, align 4, !tbaa !67
  %642 = getelementptr inbounds i32, ptr %638, i64 1
  store ptr %642, ptr %560, align 8, !tbaa !58
  br label %673

643:                                              ; preds = %637
  %644 = load ptr, ptr %559, align 8, !tbaa !59
  %645 = ptrtoint ptr %638 to i64
  %646 = ptrtoint ptr %644 to i64
  %647 = sub i64 %645, %646
  %648 = icmp eq i64 %647, 9223372036854775804
  br i1 %648, label %649, label %650

649:                                              ; preds = %643
  call void @_ZSt20__throw_length_errorPKc(ptr noundef nonnull @.str.143) #36
  unreachable

650:                                              ; preds = %643
  %651 = ashr exact i64 %647, 2
  %652 = call i64 @llvm.umax.i64(i64 %651, i64 1)
  %653 = add i64 %652, %651
  %654 = icmp ult i64 %653, %651
  %655 = icmp ugt i64 %653, 2305843009213693951
  %656 = or i1 %654, %655
  %657 = select i1 %656, i64 2305843009213693951, i64 %653
  %658 = icmp eq i64 %657, 0
  br i1 %658, label %662, label %659

659:                                              ; preds = %650
  %660 = shl nuw nsw i64 %657, 2
  %661 = call noalias noundef nonnull ptr @_Znwm(i64 noundef %660) #35
  br label %662

662:                                              ; preds = %659, %650
  %663 = phi ptr [ %661, %659 ], [ null, %650 ]
  %664 = getelementptr inbounds i32, ptr %663, i64 %651
  store i32 %587, ptr %664, align 4, !tbaa !67
  %665 = icmp sgt i64 %647, 0
  br i1 %665, label %666, label %667

666:                                              ; preds = %662
  call void @llvm.memmove.p0.p0.i64(ptr nonnull align 4 %663, ptr align 4 %644, i64 %647, i1 false)
  br label %667

667:                                              ; preds = %666, %662
  %668 = getelementptr inbounds i32, ptr %664, i64 1
  %669 = icmp eq ptr %644, null
  br i1 %669, label %671, label %670

670:                                              ; preds = %667
  call void @_ZdlPv(ptr noundef nonnull %644) #33
  br label %671

671:                                              ; preds = %670, %667
  store ptr %663, ptr %559, align 8, !tbaa !59
  store ptr %668, ptr %560, align 8, !tbaa !58
  %672 = getelementptr inbounds i32, ptr %663, i64 %657
  store ptr %672, ptr %561, align 8, !tbaa !110
  br label %673

673:                                              ; preds = %641, %671
  %674 = add nsw i32 %601, 1
  %675 = load i32, ptr %555, align 8, !tbaa !91
  %676 = shl i32 2, %675
  %677 = mul nsw i32 %676, %577
  %678 = icmp slt i32 %674, %677
  br i1 %678, label %600, label %594, !llvm.loop !128
}

declare void @_ZN4Mesh17calc_distributionEi(ptr noundef nonnull align 8 dereferenceable(2288), i32 noundef) local_unnamed_addr #7

; Function Attrs: mustprogress uwtable
define dso_local void @_ZN4Mesh13calc_celltypeEm(ptr noundef nonnull align 8 dereferenceable(2288) %0, i64 noundef %1) local_unnamed_addr #6 align 2 {
  %3 = getelementptr inbounds %class.Mesh, ptr %0, i64 0, i32 68
  %4 = load ptr, ptr %3, align 8, !tbaa !85
  %5 = icmp eq ptr %4, null
  br i1 %5, label %15, label %6

6:                                                ; preds = %2
  %7 = getelementptr inbounds %class.Mesh, ptr %0, i64 0, i32 1
  %8 = tail call noundef i64 @_ZN10MallocPlus15get_memory_sizeEPv(ptr noundef nonnull align 8 dereferenceable(96) %7, ptr noundef nonnull %4)
  %9 = icmp ult i64 %8, %1
  br i1 %9, label %10, label %18

10:                                               ; preds = %6
  %11 = load ptr, ptr %3, align 8, !tbaa !85
  %12 = icmp eq ptr %11, null
  br i1 %12, label %15, label %13

13:                                               ; preds = %10
  %14 = tail call noundef ptr @_ZN10MallocPlus13memory_deleteEPv(ptr noundef nonnull align 8 dereferenceable(96) %7, ptr noundef nonnull %11)
  store ptr %14, ptr %3, align 8, !tbaa !85
  br label %15

15:                                               ; preds = %2, %13, %10
  %16 = getelementptr inbounds %class.Mesh, ptr %0, i64 0, i32 1
  %17 = tail call noundef ptr @_ZN10MallocPlus13memory_mallocEmmPKci(ptr noundef nonnull align 8 dereferenceable(96) %16, i64 noundef %1, i64 noundef 4, ptr noundef nonnull @.str.49, i32 noundef 0)
  store ptr %17, ptr %3, align 8, !tbaa !85
  br label %18

18:                                               ; preds = %15, %6
  %19 = icmp eq i64 %1, 0
  br i1 %19, label %36, label %20

20:                                               ; preds = %18
  %21 = load ptr, ptr %3, align 8, !tbaa !85
  %22 = getelementptr inbounds %class.Mesh, ptr %0, i64 0, i32 64
  %23 = load ptr, ptr %22, align 8, !tbaa !60
  %24 = getelementptr inbounds %class.Mesh, ptr %0, i64 0, i32 26
  %25 = getelementptr inbounds %class.Mesh, ptr %0, i64 0, i32 67
  %26 = load ptr, ptr %25, align 8, !tbaa !62
  %27 = load ptr, ptr %24, align 8, !tbaa !59
  %28 = getelementptr inbounds %class.Mesh, ptr %0, i64 0, i32 27
  %29 = load ptr, ptr %28, align 8, !tbaa !59
  %30 = getelementptr inbounds %class.Mesh, ptr %0, i64 0, i32 65
  %31 = load ptr, ptr %30, align 8, !tbaa !61
  %32 = getelementptr inbounds %class.Mesh, ptr %0, i64 0, i32 28
  %33 = load ptr, ptr %32, align 8, !tbaa !59
  %34 = getelementptr inbounds %class.Mesh, ptr %0, i64 0, i32 29
  %35 = load ptr, ptr %34, align 8, !tbaa !59
  br label %37

36:                                               ; preds = %81, %18
  ret void

37:                                               ; preds = %20, %81
  %38 = phi i64 [ 0, %20 ], [ %83, %81 ]
  %39 = getelementptr inbounds i32, ptr %21, i64 %38
  store i32 1, ptr %39, align 4, !tbaa !67
  %40 = shl nuw i64 %38, 32
  %41 = ashr exact i64 %40, 32
  %42 = getelementptr inbounds i32, ptr %23, i64 %41
  %43 = load i32, ptr %42, align 4, !tbaa !67
  %44 = getelementptr inbounds i32, ptr %26, i64 %41
  %45 = load i32, ptr %44, align 4, !tbaa !67
  %46 = sext i32 %45 to i64
  %47 = getelementptr inbounds i32, ptr %27, i64 %46
  %48 = load i32, ptr %47, align 4, !tbaa !67
  %49 = icmp slt i32 %43, %48
  br i1 %49, label %50, label %54

50:                                               ; preds = %37
  store i32 -1, ptr %39, align 4, !tbaa !67
  %51 = load i32, ptr %42, align 4, !tbaa !67
  %52 = load i32, ptr %44, align 4, !tbaa !67
  %53 = sext i32 %52 to i64
  br label %54

54:                                               ; preds = %50, %37
  %55 = phi i64 [ %53, %50 ], [ %46, %37 ]
  %56 = phi i32 [ %51, %50 ], [ %43, %37 ]
  %57 = getelementptr inbounds i32, ptr %29, i64 %55
  %58 = load i32, ptr %57, align 4, !tbaa !67
  %59 = icmp sgt i32 %56, %58
  br i1 %59, label %60, label %63

60:                                               ; preds = %54
  store i32 -2, ptr %39, align 4, !tbaa !67
  %61 = load i32, ptr %44, align 4, !tbaa !67
  %62 = sext i32 %61 to i64
  br label %63

63:                                               ; preds = %60, %54
  %64 = phi i64 [ %62, %60 ], [ %55, %54 ]
  %65 = getelementptr inbounds i32, ptr %31, i64 %41
  %66 = load i32, ptr %65, align 4, !tbaa !67
  %67 = getelementptr inbounds i32, ptr %33, i64 %64
  %68 = load i32, ptr %67, align 4, !tbaa !67
  %69 = icmp slt i32 %66, %68
  br i1 %69, label %70, label %74

70:                                               ; preds = %63
  store i32 -3, ptr %39, align 4, !tbaa !67
  %71 = load i32, ptr %65, align 4, !tbaa !67
  %72 = load i32, ptr %44, align 4, !tbaa !67
  %73 = sext i32 %72 to i64
  br label %74

74:                                               ; preds = %70, %63
  %75 = phi i64 [ %73, %70 ], [ %64, %63 ]
  %76 = phi i32 [ %71, %70 ], [ %66, %63 ]
  %77 = getelementptr inbounds i32, ptr %35, i64 %75
  %78 = load i32, ptr %77, align 4, !tbaa !67
  %79 = icmp sgt i32 %76, %78
  br i1 %79, label %80, label %81

80:                                               ; preds = %74
  store i32 -4, ptr %39, align 4, !tbaa !67
  br label %81

81:                                               ; preds = %74, %80
  %82 = add nuw nsw i64 %38, 1
  %83 = and i64 %82, 4294967295
  %84 = icmp ult i64 %83, %1
  br i1 %84, label %37, label %36, !llvm.loop !129
}

declare void @_ZN4Mesh15partition_cellsEiRSt6vectorIiSaIiEE16partition_method(ptr noundef nonnull align 8 dereferenceable(2288), i32 noundef, ptr noundef nonnull align 8 dereferenceable(24), i32 noundef) local_unnamed_addr #7

; Function Attrs: uwtable
define dso_local void @_ZN4Mesh20calc_neighbors_localEv(ptr noundef nonnull align 8 dereferenceable(2288) %0) local_unnamed_addr #3 align 2 personality ptr @__gxx_personality_v0 {
  %2 = alloca %struct.TBounds, align 8
  %3 = alloca %struct.timeval, align 8
  %4 = alloca %struct.timeval, align 8
  %5 = alloca %struct.timeval, align 8
  %6 = alloca %struct.TBounds, align 8
  %7 = alloca i32, align 4
  call void @llvm.lifetime.start.p0(i64 16, ptr nonnull %3) #31
  call void @cpu_timer_start(ptr noundef nonnull %3)
  %8 = getelementptr inbounds %class.Mesh, ptr %0, i64 0, i32 7
  %9 = load i8, ptr %8, align 8, !tbaa !106, !range !130, !noundef !131
  %10 = icmp eq i8 %9, 0
  br i1 %10, label %904, label %11

11:                                               ; preds = %1
  %12 = getelementptr inbounds %class.Mesh, ptr %0, i64 0, i32 5, i64 2
  %13 = load i32, ptr %12, align 8, !tbaa !67
  %14 = add nsw i32 %13, 1
  store i32 %14, ptr %12, align 8, !tbaa !67
  %15 = getelementptr inbounds %class.Mesh, ptr %0, i64 0, i32 1
  %16 = getelementptr inbounds %class.Mesh, ptr %0, i64 0, i32 69
  %17 = load ptr, ptr %16, align 8, !tbaa !73
  %18 = call noundef i64 @_ZN10MallocPlus15get_memory_sizeEPv(ptr noundef nonnull align 8 dereferenceable(96) %15, ptr noundef %17)
  %19 = getelementptr inbounds %class.Mesh, ptr %0, i64 0, i32 45
  %20 = load i64, ptr %19, align 8, !tbaa !43
  %21 = icmp ult i64 %18, %20
  br i1 %21, label %22, label %54

22:                                               ; preds = %11
  %23 = load ptr, ptr %16, align 8, !tbaa !73
  %24 = icmp eq ptr %23, null
  br i1 %24, label %27, label %25

25:                                               ; preds = %22
  %26 = call noundef ptr @_ZN10MallocPlus13memory_deleteEPv(ptr noundef nonnull align 8 dereferenceable(96) %15, ptr noundef nonnull %23)
  store ptr %26, ptr %16, align 8, !tbaa !73
  br label %27

27:                                               ; preds = %25, %22
  %28 = getelementptr inbounds %class.Mesh, ptr %0, i64 0, i32 70
  %29 = load ptr, ptr %28, align 8, !tbaa !74
  %30 = icmp eq ptr %29, null
  br i1 %30, label %33, label %31

31:                                               ; preds = %27
  %32 = call noundef ptr @_ZN10MallocPlus13memory_deleteEPv(ptr noundef nonnull align 8 dereferenceable(96) %15, ptr noundef nonnull %29)
  store ptr %32, ptr %28, align 8, !tbaa !74
  br label %33

33:                                               ; preds = %31, %27
  %34 = getelementptr inbounds %class.Mesh, ptr %0, i64 0, i32 71
  %35 = load ptr, ptr %34, align 8, !tbaa !75
  %36 = icmp eq ptr %35, null
  br i1 %36, label %39, label %37

37:                                               ; preds = %33
  %38 = call noundef ptr @_ZN10MallocPlus13memory_deleteEPv(ptr noundef nonnull align 8 dereferenceable(96) %15, ptr noundef nonnull %35)
  store ptr %38, ptr %34, align 8, !tbaa !75
  br label %39

39:                                               ; preds = %37, %33
  %40 = getelementptr inbounds %class.Mesh, ptr %0, i64 0, i32 72
  %41 = load ptr, ptr %40, align 8, !tbaa !76
  %42 = icmp eq ptr %41, null
  br i1 %42, label %45, label %43

43:                                               ; preds = %39
  %44 = call noundef ptr @_ZN10MallocPlus13memory_deleteEPv(ptr noundef nonnull align 8 dereferenceable(96) %15, ptr noundef nonnull %41)
  store ptr %44, ptr %40, align 8, !tbaa !76
  br label %45

45:                                               ; preds = %43, %39
  %46 = load i64, ptr %19, align 8, !tbaa !43
  %47 = call noundef ptr @_ZN10MallocPlus13memory_mallocEmmPKci(ptr noundef nonnull align 8 dereferenceable(96) %15, i64 noundef %46, i64 noundef 4, ptr noundef nonnull @.str.42, i32 noundef 4)
  store ptr %47, ptr %16, align 8, !tbaa !73
  %48 = load i64, ptr %19, align 8, !tbaa !43
  %49 = call noundef ptr @_ZN10MallocPlus13memory_mallocEmmPKci(ptr noundef nonnull align 8 dereferenceable(96) %15, i64 noundef %48, i64 noundef 4, ptr noundef nonnull @.str.43, i32 noundef 4)
  store ptr %49, ptr %28, align 8, !tbaa !74
  %50 = load i64, ptr %19, align 8, !tbaa !43
  %51 = call noundef ptr @_ZN10MallocPlus13memory_mallocEmmPKci(ptr noundef nonnull align 8 dereferenceable(96) %15, i64 noundef %50, i64 noundef 4, ptr noundef nonnull @.str.44, i32 noundef 4)
  store ptr %51, ptr %34, align 8, !tbaa !75
  %52 = load i64, ptr %19, align 8, !tbaa !43
  %53 = call noundef ptr @_ZN10MallocPlus13memory_mallocEmmPKci(ptr noundef nonnull align 8 dereferenceable(96) %15, i64 noundef %52, i64 noundef 4, ptr noundef nonnull @.str.45, i32 noundef 4)
  store ptr %53, ptr %40, align 8, !tbaa !76
  br label %54

54:                                               ; preds = %45, %11
  %55 = getelementptr inbounds %class.Mesh, ptr %0, i64 0, i32 14
  %56 = load ptr, ptr %55, align 8, !tbaa !65
  %57 = icmp eq ptr %56, null
  br i1 %57, label %58, label %60

58:                                               ; preds = %54
  %59 = call noalias dereferenceable_or_null(4) ptr @malloc(i64 noundef 4) #34
  store ptr %59, ptr %55, align 8, !tbaa !65
  br label %60

60:                                               ; preds = %58, %54
  %61 = phi ptr [ %59, %58 ], [ %56, %54 ]
  %62 = getelementptr inbounds %class.Mesh, ptr %0, i64 0, i32 15
  %63 = load ptr, ptr %62, align 8, !tbaa !66
  %64 = icmp eq ptr %63, null
  br i1 %64, label %65, label %67

65:                                               ; preds = %60
  %66 = call noalias dereferenceable_or_null(4) ptr @malloc(i64 noundef 4) #34
  store ptr %66, ptr %62, align 8, !tbaa !66
  br label %67

67:                                               ; preds = %60, %65
  %68 = phi ptr [ %66, %65 ], [ %63, %60 ]
  %69 = load i64, ptr %19, align 8, !tbaa !43
  %70 = trunc i64 %69 to i32
  store i32 0, ptr %61, align 4, !tbaa !67
  store i32 %70, ptr %68, align 4, !tbaa !67
  %71 = icmp sgt i32 %70, 0
  br i1 %71, label %72, label %136

72:                                               ; preds = %67
  %73 = load ptr, ptr %16, align 8, !tbaa !73
  %74 = getelementptr inbounds %class.Mesh, ptr %0, i64 0, i32 70
  %75 = load ptr, ptr %74, align 8, !tbaa !74
  %76 = getelementptr inbounds %class.Mesh, ptr %0, i64 0, i32 71
  %77 = load ptr, ptr %76, align 8, !tbaa !75
  %78 = getelementptr inbounds %class.Mesh, ptr %0, i64 0, i32 72
  %79 = load ptr, ptr %78, align 8, !tbaa !76
  %80 = and i64 %69, 4294967295
  %81 = icmp ult i64 %80, 32
  br i1 %81, label %121, label %82

82:                                               ; preds = %72
  %83 = ptrtoint ptr %79 to i64
  %84 = ptrtoint ptr %77 to i64
  %85 = ptrtoint ptr %75 to i64
  %86 = ptrtoint ptr %73 to i64
  %87 = sub i64 %85, %86
  %88 = icmp ult i64 %87, 32
  %89 = sub i64 %84, %86
  %90 = icmp ult i64 %89, 32
  %91 = or i1 %88, %90
  %92 = sub i64 %83, %86
  %93 = icmp ult i64 %92, 32
  %94 = or i1 %91, %93
  %95 = sub i64 %84, %85
  %96 = icmp ult i64 %95, 32
  %97 = or i1 %94, %96
  %98 = sub i64 %83, %85
  %99 = icmp ult i64 %98, 32
  %100 = or i1 %97, %99
  %101 = sub i64 %83, %84
  %102 = icmp ult i64 %101, 32
  %103 = or i1 %100, %102
  br i1 %103, label %121, label %104

104:                                              ; preds = %82
  %105 = and i64 %69, 7
  %106 = sub nsw i64 %80, %105
  br label %107

107:                                              ; preds = %107, %104
  %108 = phi i64 [ 0, %104 ], [ %117, %107 ]
  %109 = getelementptr inbounds i32, ptr %73, i64 %108
  store <4 x i32> <i32 -98, i32 -98, i32 -98, i32 -98>, ptr %109, align 4, !tbaa !67
  %110 = getelementptr inbounds i32, ptr %109, i64 4
  store <4 x i32> <i32 -98, i32 -98, i32 -98, i32 -98>, ptr %110, align 4, !tbaa !67
  %111 = getelementptr inbounds i32, ptr %75, i64 %108
  store <4 x i32> <i32 -98, i32 -98, i32 -98, i32 -98>, ptr %111, align 4, !tbaa !67
  %112 = getelementptr inbounds i32, ptr %111, i64 4
  store <4 x i32> <i32 -98, i32 -98, i32 -98, i32 -98>, ptr %112, align 4, !tbaa !67
  %113 = getelementptr inbounds i32, ptr %77, i64 %108
  store <4 x i32> <i32 -98, i32 -98, i32 -98, i32 -98>, ptr %113, align 4, !tbaa !67
  %114 = getelementptr inbounds i32, ptr %113, i64 4
  store <4 x i32> <i32 -98, i32 -98, i32 -98, i32 -98>, ptr %114, align 4, !tbaa !67
  %115 = getelementptr inbounds i32, ptr %79, i64 %108
  store <4 x i32> <i32 -98, i32 -98, i32 -98, i32 -98>, ptr %115, align 4, !tbaa !67
  %116 = getelementptr inbounds i32, ptr %115, i64 4
  store <4 x i32> <i32 -98, i32 -98, i32 -98, i32 -98>, ptr %116, align 4, !tbaa !67
  %117 = add nuw i64 %108, 8
  %118 = icmp eq i64 %117, %106
  br i1 %118, label %119, label %107, !llvm.loop !132

119:                                              ; preds = %107
  %120 = icmp eq i64 %105, 0
  br i1 %120, label %136, label %121

121:                                              ; preds = %82, %72, %119
  %122 = phi i64 [ 0, %82 ], [ 0, %72 ], [ %106, %119 ]
  %123 = sub i64 %69, %122
  %124 = add nsw i64 %122, 1
  %125 = and i64 %123, 1
  %126 = icmp eq i64 %125, 0
  br i1 %126, label %133, label %127

127:                                              ; preds = %121
  %128 = getelementptr inbounds i32, ptr %73, i64 %122
  store i32 -98, ptr %128, align 4, !tbaa !67
  %129 = getelementptr inbounds i32, ptr %75, i64 %122
  store i32 -98, ptr %129, align 4, !tbaa !67
  %130 = getelementptr inbounds i32, ptr %77, i64 %122
  store i32 -98, ptr %130, align 4, !tbaa !67
  %131 = getelementptr inbounds i32, ptr %79, i64 %122
  store i32 -98, ptr %131, align 4, !tbaa !67
  %132 = add nuw nsw i64 %122, 1
  br label %133

133:                                              ; preds = %127, %121
  %134 = phi i64 [ %122, %121 ], [ %132, %127 ]
  %135 = icmp eq i64 %80, %124
  br i1 %135, label %136, label %138

136:                                              ; preds = %133, %138, %119, %67
  %137 = load i32, ptr @calc_neighbor_type, align 4, !tbaa !67
  switch i32 %137, label %904 [
    i32 0, label %151
    i32 1, label %661
  ]

138:                                              ; preds = %133, %138
  %139 = phi i64 [ %149, %138 ], [ %134, %133 ]
  %140 = getelementptr inbounds i32, ptr %73, i64 %139
  store i32 -98, ptr %140, align 4, !tbaa !67
  %141 = getelementptr inbounds i32, ptr %75, i64 %139
  store i32 -98, ptr %141, align 4, !tbaa !67
  %142 = getelementptr inbounds i32, ptr %77, i64 %139
  store i32 -98, ptr %142, align 4, !tbaa !67
  %143 = getelementptr inbounds i32, ptr %79, i64 %139
  store i32 -98, ptr %143, align 4, !tbaa !67
  %144 = add nuw nsw i64 %139, 1
  %145 = getelementptr inbounds i32, ptr %73, i64 %144
  store i32 -98, ptr %145, align 4, !tbaa !67
  %146 = getelementptr inbounds i32, ptr %75, i64 %144
  store i32 -98, ptr %146, align 4, !tbaa !67
  %147 = getelementptr inbounds i32, ptr %77, i64 %144
  store i32 -98, ptr %147, align 4, !tbaa !67
  %148 = getelementptr inbounds i32, ptr %79, i64 %144
  store i32 -98, ptr %148, align 4, !tbaa !67
  %149 = add nuw nsw i64 %139, 2
  %150 = icmp eq i64 %149, %80
  br i1 %150, label %136, label %138, !llvm.loop !135

