; ModuleID = '/usr/local/google/home/aeubanks/repos/test-suite/MultiSource/Benchmarks/Bullet/btSequentialImpulseConstraintSolver.cpp'
source_filename = "/usr/local/google/home/aeubanks/repos/test-suite/MultiSource/Benchmarks/Bullet/btSequentialImpulseConstraintSolver.cpp"
target datalayout = "e-m:e-p270:32:32-p271:32:32-p272:64:64-i64:64-f80:128-n8:16:32:64-S128"
target triple = "x86_64-unknown-linux-gnu"

%class.btSequentialImpulseConstraintSolver = type { %class.btConstraintSolver, %class.btAlignedObjectArray, %class.btAlignedObjectArray.4, %class.btAlignedObjectArray.4, %class.btAlignedObjectArray.4, %class.btAlignedObjectArray.12, %class.btAlignedObjectArray.12, %class.btAlignedObjectArray.16, i64 }
%class.btConstraintSolver = type { ptr }
%class.btAlignedObjectArray = type <{ %class.btAlignedAllocator, [3 x i8], i32, i32, [4 x i8], ptr, i8, [7 x i8] }>
%class.btAlignedAllocator = type { i8 }
%class.btAlignedObjectArray.4 = type <{ %class.btAlignedAllocator.5, [3 x i8], i32, i32, [4 x i8], ptr, i8, [7 x i8] }>
%class.btAlignedAllocator.5 = type { i8 }
%class.btAlignedObjectArray.12 = type <{ %class.btAlignedAllocator.13, [3 x i8], i32, i32, [4 x i8], ptr, i8, [7 x i8] }>
%class.btAlignedAllocator.13 = type { i8 }
%class.btAlignedObjectArray.16 = type <{ %class.btAlignedAllocator.17, [3 x i8], i32, i32, [4 x i8], ptr, i8, [7 x i8] }>
%class.btAlignedAllocator.17 = type { i8 }
%struct.btSolverConstraint = type <{ %class.btVector3, %class.btVector3, %class.btVector3, %class.btVector3, %class.btVector3, float, float, float, float, %union.anon, %union.anon.7, %union.anon.8, %union.anon.9, %union.anon.10, float, float, float, float, float, [4 x i8] }>
%class.btVector3 = type { [4 x float] }
%union.anon = type { i32 }
%union.anon.7 = type { i32 }
%union.anon.8 = type { i32 }
%union.anon.9 = type { i32 }
%union.anon.10 = type { ptr }
%struct.btSolverBody = type { %class.btVector3, %class.btVector3, %class.btVector3, %class.btVector3, float, ptr, %class.btVector3, %class.btVector3 }
%class.btCollisionObject = type { ptr, %class.btTransform, %class.btTransform, %class.btVector3, %class.btVector3, %class.btVector3, i8, float, ptr, ptr, ptr, i32, i32, i32, i32, float, float, float, ptr, i32, float, float, float, i8, [7 x i8] }
%class.btTransform = type { %class.btMatrix3x3, %class.btVector3 }
%class.btMatrix3x3 = type { [3 x %class.btVector3] }
%class.btRigidBody = type <{ %class.btCollisionObject, %class.btMatrix3x3, %class.btVector3, %class.btVector3, float, %class.btVector3, %class.btVector3, %class.btVector3, %class.btVector3, %class.btVector3, %class.btVector3, %class.btVector3, float, float, i8, [3 x i8], float, float, float, float, float, float, ptr, %class.btAlignedObjectArray.0, i32, i32, i32, [4 x i8] }>
%class.btAlignedObjectArray.0 = type <{ %class.btAlignedAllocator.1, [3 x i8], i32, i32, [4 x i8], ptr, i8, [7 x i8] }>
%class.btAlignedAllocator.1 = type { i8 }
%class.btManifoldPoint = type <{ %class.btVector3, %class.btVector3, %class.btVector3, %class.btVector3, %class.btVector3, float, float, float, i32, i32, i32, i32, [4 x i8], ptr, float, i8, [3 x i8], float, float, i32, %class.btVector3, %class.btVector3, [4 x i8] }>
%class.btPersistentManifold = type { %struct.btTypedObject, [4 x i8], [4 x %class.btManifoldPoint], ptr, ptr, i32, float, float, i32 }
%struct.btTypedObject = type { i32 }
%struct.btContactSolverInfoData = type { float, float, float, float, float, i32, float, float, float, float, float, i32, float, float, float, i32, i32 }
%"struct.btTypedConstraint::btConstraintInfo2" = type { float, float, ptr, ptr, ptr, ptr, i32, ptr, ptr, ptr, ptr, ptr, i32 }
%"struct.btTypedConstraint::btConstraintInfo1" = type { i32, i32 }
%class.btTypedConstraint = type { ptr, %struct.btTypedObject, i32, i32, i8, ptr, ptr, float, float, %class.btVector3, %class.btVector3, %class.btVector3 }
%class.btQuaternion = type { %class.btQuadWord }
%class.btQuadWord = type { [4 x float] }

$_ZN20btAlignedObjectArrayIiED2Ev = comdat any

$__clang_call_terminate = comdat any

$_ZN20btAlignedObjectArrayI18btSolverConstraintED2Ev = comdat any

$_ZN20btAlignedObjectArrayI12btSolverBodyED2Ev = comdat any

$_ZN18btConstraintSolver12prepareSolveEii = comdat any

$_ZN18btConstraintSolver9allSolvedERK19btContactSolverInfoP12btIDebugDrawP12btStackAlloc = comdat any

$_ZN15btTransformUtil18integrateTransformERK11btTransformRK9btVector3S5_fRS0_ = comdat any

$_ZNK11btMatrix3x311getRotationER12btQuaternion = comdat any

$_ZTS18btConstraintSolver = comdat any

$_ZTI18btConstraintSolver = comdat any

@gNumSplitImpulseRecoveries = dso_local local_unnamed_addr global i32 0, align 4
@_ZTV35btSequentialImpulseConstraintSolver = dso_local unnamed_addr constant { [8 x ptr] } { [8 x ptr] [ptr null, ptr @_ZTI35btSequentialImpulseConstraintSolver, ptr @_ZN35btSequentialImpulseConstraintSolverD2Ev, ptr @_ZN35btSequentialImpulseConstraintSolverD0Ev, ptr @_ZN18btConstraintSolver12prepareSolveEii, ptr @_ZN35btSequentialImpulseConstraintSolver10solveGroupEPP17btCollisionObjectiPP20btPersistentManifoldiPP17btTypedConstraintiRK19btContactSolverInfoP12btIDebugDrawP12btStackAllocP12btDispatcher, ptr @_ZN18btConstraintSolver9allSolvedERK19btContactSolverInfoP12btIDebugDrawP12btStackAlloc, ptr @_ZN35btSequentialImpulseConstraintSolver5resetEv] }, align 8
@.str = private unnamed_addr constant [29 x i8] c"solveGroupCacheFriendlySetup\00", align 1
@.str.1 = private unnamed_addr constant [34 x i8] c"solveGroupCacheFriendlyIterations\00", align 1
@.str.2 = private unnamed_addr constant [11 x i8] c"solveGroup\00", align 1
@_ZTVN10__cxxabiv120__si_class_type_infoE = external global ptr
@_ZTS35btSequentialImpulseConstraintSolver = dso_local constant [38 x i8] c"35btSequentialImpulseConstraintSolver\00", align 1
@_ZTVN10__cxxabiv117__class_type_infoE = external global ptr
@_ZTS18btConstraintSolver = linkonce_odr dso_local constant [21 x i8] c"18btConstraintSolver\00", comdat, align 1
@_ZTI18btConstraintSolver = linkonce_odr dso_local constant { ptr, ptr } { ptr getelementptr inbounds (ptr, ptr @_ZTVN10__cxxabiv117__class_type_infoE, i64 2), ptr @_ZTS18btConstraintSolver }, comdat, align 8
@_ZTI35btSequentialImpulseConstraintSolver = dso_local constant { ptr, ptr, ptr } { ptr getelementptr inbounds (ptr, ptr @_ZTVN10__cxxabiv120__si_class_type_infoE, i64 2), ptr @_ZTS35btSequentialImpulseConstraintSolver, ptr @_ZTI18btConstraintSolver }, align 8

@_ZN35btSequentialImpulseConstraintSolverC1Ev = dso_local unnamed_addr alias void (ptr), ptr @_ZN35btSequentialImpulseConstraintSolverC2Ev
@_ZN35btSequentialImpulseConstraintSolverD1Ev = dso_local unnamed_addr alias void (ptr), ptr @_ZN35btSequentialImpulseConstraintSolverD2Ev

; Function Attrs: mustprogress nofree norecurse nosync nounwind willreturn memory(argmem: write) uwtable
define dso_local void @_ZN35btSequentialImpulseConstraintSolverC2Ev(ptr nocapture noundef nonnull writeonly align 8 dereferenceable(240) %0) unnamed_addr #0 align 2 personality ptr @__gxx_personality_v0 {
  store ptr getelementptr inbounds ({ [8 x ptr] }, ptr @_ZTV35btSequentialImpulseConstraintSolver, i64 0, inrange i32 0, i64 2), ptr %0, align 8, !tbaa !5
  %2 = getelementptr inbounds %class.btSequentialImpulseConstraintSolver, ptr %0, i64 0, i32 1, i32 6
  store i8 1, ptr %2, align 8, !tbaa !8
  %3 = getelementptr inbounds %class.btSequentialImpulseConstraintSolver, ptr %0, i64 0, i32 1, i32 5
  store ptr null, ptr %3, align 8, !tbaa !15
  %4 = getelementptr inbounds %class.btSequentialImpulseConstraintSolver, ptr %0, i64 0, i32 1, i32 2
  store i32 0, ptr %4, align 4, !tbaa !16
  %5 = getelementptr inbounds %class.btSequentialImpulseConstraintSolver, ptr %0, i64 0, i32 1, i32 3
  store i32 0, ptr %5, align 8, !tbaa !17
  %6 = getelementptr inbounds %class.btSequentialImpulseConstraintSolver, ptr %0, i64 0, i32 2, i32 6
  store i8 1, ptr %6, align 8, !tbaa !18
  %7 = getelementptr inbounds %class.btSequentialImpulseConstraintSolver, ptr %0, i64 0, i32 2, i32 5
  store ptr null, ptr %7, align 8, !tbaa !21
  %8 = getelementptr inbounds %class.btSequentialImpulseConstraintSolver, ptr %0, i64 0, i32 2, i32 2
  store i32 0, ptr %8, align 4, !tbaa !22
  %9 = getelementptr inbounds %class.btSequentialImpulseConstraintSolver, ptr %0, i64 0, i32 2, i32 3
  store i32 0, ptr %9, align 8, !tbaa !23
  %10 = getelementptr inbounds %class.btSequentialImpulseConstraintSolver, ptr %0, i64 0, i32 3, i32 6
  store i8 1, ptr %10, align 8, !tbaa !18
  %11 = getelementptr inbounds %class.btSequentialImpulseConstraintSolver, ptr %0, i64 0, i32 3, i32 5
  store ptr null, ptr %11, align 8, !tbaa !21
  %12 = getelementptr inbounds %class.btSequentialImpulseConstraintSolver, ptr %0, i64 0, i32 3, i32 2
  store i32 0, ptr %12, align 4, !tbaa !22
  %13 = getelementptr inbounds %class.btSequentialImpulseConstraintSolver, ptr %0, i64 0, i32 3, i32 3
  store i32 0, ptr %13, align 8, !tbaa !23
  %14 = getelementptr inbounds %class.btSequentialImpulseConstraintSolver, ptr %0, i64 0, i32 4, i32 6
  store i8 1, ptr %14, align 8, !tbaa !18
  %15 = getelementptr inbounds %class.btSequentialImpulseConstraintSolver, ptr %0, i64 0, i32 4, i32 5
  store ptr null, ptr %15, align 8, !tbaa !21
  %16 = getelementptr inbounds %class.btSequentialImpulseConstraintSolver, ptr %0, i64 0, i32 4, i32 2
  store i32 0, ptr %16, align 4, !tbaa !22
  %17 = getelementptr inbounds %class.btSequentialImpulseConstraintSolver, ptr %0, i64 0, i32 4, i32 3
  store i32 0, ptr %17, align 8, !tbaa !23
  %18 = getelementptr inbounds %class.btSequentialImpulseConstraintSolver, ptr %0, i64 0, i32 5, i32 6
  store i8 1, ptr %18, align 8, !tbaa !24
  %19 = getelementptr inbounds %class.btSequentialImpulseConstraintSolver, ptr %0, i64 0, i32 5, i32 5
  store ptr null, ptr %19, align 8, !tbaa !27
  %20 = getelementptr inbounds %class.btSequentialImpulseConstraintSolver, ptr %0, i64 0, i32 5, i32 2
  store i32 0, ptr %20, align 4, !tbaa !28
  %21 = getelementptr inbounds %class.btSequentialImpulseConstraintSolver, ptr %0, i64 0, i32 5, i32 3
  store i32 0, ptr %21, align 8, !tbaa !29
  %22 = getelementptr inbounds %class.btSequentialImpulseConstraintSolver, ptr %0, i64 0, i32 6, i32 6
  store i8 1, ptr %22, align 8, !tbaa !24
  %23 = getelementptr inbounds %class.btSequentialImpulseConstraintSolver, ptr %0, i64 0, i32 6, i32 5
  store ptr null, ptr %23, align 8, !tbaa !27
  %24 = getelementptr inbounds %class.btSequentialImpulseConstraintSolver, ptr %0, i64 0, i32 6, i32 2
  store i32 0, ptr %24, align 4, !tbaa !28
  %25 = getelementptr inbounds %class.btSequentialImpulseConstraintSolver, ptr %0, i64 0, i32 6, i32 3
  store i32 0, ptr %25, align 8, !tbaa !29
  %26 = getelementptr inbounds %class.btSequentialImpulseConstraintSolver, ptr %0, i64 0, i32 7, i32 6
  store i8 1, ptr %26, align 8, !tbaa !30
  %27 = getelementptr inbounds %class.btSequentialImpulseConstraintSolver, ptr %0, i64 0, i32 7, i32 5
  store ptr null, ptr %27, align 8, !tbaa !33
  %28 = getelementptr inbounds %class.btSequentialImpulseConstraintSolver, ptr %0, i64 0, i32 7, i32 2
  store i32 0, ptr %28, align 4, !tbaa !34
  %29 = getelementptr inbounds %class.btSequentialImpulseConstraintSolver, ptr %0, i64 0, i32 7, i32 3
  store i32 0, ptr %29, align 8, !tbaa !35
  %30 = getelementptr inbounds %class.btSequentialImpulseConstraintSolver, ptr %0, i64 0, i32 8
  store i64 0, ptr %30, align 8, !tbaa !36
  ret void
}

declare i32 @__gxx_personality_v0(...)

; Function Attrs: uwtable
define linkonce_odr dso_local void @_ZN20btAlignedObjectArrayIiED2Ev(ptr noundef nonnull align 8 dereferenceable(25) %0) unnamed_addr #1 comdat align 2 {
  %2 = getelementptr inbounds %class.btAlignedObjectArray.12, ptr %0, i64 0, i32 5
  %3 = load ptr, ptr %2, align 8, !tbaa !27
  %4 = icmp eq ptr %3, null
  %5 = getelementptr inbounds %class.btAlignedObjectArray.12, ptr %0, i64 0, i32 6
  %6 = load i8, ptr %5, align 8
  %7 = icmp eq i8 %6, 0
  %8 = select i1 %4, i1 true, i1 %7
  br i1 %8, label %10, label %9

9:                                                ; preds = %1
  tail call void @_Z21btAlignedFreeInternalPv(ptr noundef nonnull %3)
  br label %10

10:                                               ; preds = %1, %9
  %11 = getelementptr inbounds %class.btAlignedObjectArray.12, ptr %0, i64 0, i32 2
  store i8 1, ptr %5, align 8, !tbaa !24
  store ptr null, ptr %2, align 8, !tbaa !27
  store i32 0, ptr %11, align 4, !tbaa !28
  %12 = getelementptr inbounds %class.btAlignedObjectArray.12, ptr %0, i64 0, i32 3
  store i32 0, ptr %12, align 8, !tbaa !29
  ret void
}

; Function Attrs: noinline noreturn nounwind
define linkonce_odr hidden void @__clang_call_terminate(ptr noundef %0) local_unnamed_addr #2 comdat {
  %2 = tail call ptr @__cxa_begin_catch(ptr %0) #19
  tail call void @_ZSt9terminatev() #20
  unreachable
}

declare ptr @__cxa_begin_catch(ptr) local_unnamed_addr

declare void @_ZSt9terminatev() local_unnamed_addr

; Function Attrs: uwtable
define linkonce_odr dso_local void @_ZN20btAlignedObjectArrayI18btSolverConstraintED2Ev(ptr noundef nonnull align 8 dereferenceable(25) %0) unnamed_addr #1 comdat align 2 {
  %2 = getelementptr inbounds %class.btAlignedObjectArray.4, ptr %0, i64 0, i32 5
  %3 = load ptr, ptr %2, align 8, !tbaa !21
  %4 = icmp eq ptr %3, null
  %5 = getelementptr inbounds %class.btAlignedObjectArray.4, ptr %0, i64 0, i32 6
  %6 = load i8, ptr %5, align 8
  %7 = icmp eq i8 %6, 0
  %8 = select i1 %4, i1 true, i1 %7
  br i1 %8, label %10, label %9

9:                                                ; preds = %1
  tail call void @_Z21btAlignedFreeInternalPv(ptr noundef nonnull %3)
  br label %10

10:                                               ; preds = %1, %9
  %11 = getelementptr inbounds %class.btAlignedObjectArray.4, ptr %0, i64 0, i32 2
  store i8 1, ptr %5, align 8, !tbaa !18
  store ptr null, ptr %2, align 8, !tbaa !21
  store i32 0, ptr %11, align 4, !tbaa !22
  %12 = getelementptr inbounds %class.btAlignedObjectArray.4, ptr %0, i64 0, i32 3
  store i32 0, ptr %12, align 8, !tbaa !23
  ret void
}

; Function Attrs: uwtable
define linkonce_odr dso_local void @_ZN20btAlignedObjectArrayI12btSolverBodyED2Ev(ptr noundef nonnull align 8 dereferenceable(25) %0) unnamed_addr #1 comdat align 2 {
  %2 = getelementptr inbounds %class.btAlignedObjectArray, ptr %0, i64 0, i32 5
  %3 = load ptr, ptr %2, align 8, !tbaa !15
  %4 = icmp eq ptr %3, null
  %5 = getelementptr inbounds %class.btAlignedObjectArray, ptr %0, i64 0, i32 6
  %6 = load i8, ptr %5, align 8
  %7 = icmp eq i8 %6, 0
  %8 = select i1 %4, i1 true, i1 %7
  br i1 %8, label %10, label %9

9:                                                ; preds = %1
  tail call void @_Z21btAlignedFreeInternalPv(ptr noundef nonnull %3)
  br label %10

10:                                               ; preds = %1, %9
  %11 = getelementptr inbounds %class.btAlignedObjectArray, ptr %0, i64 0, i32 2
  store i8 1, ptr %5, align 8, !tbaa !8
  store ptr null, ptr %2, align 8, !tbaa !15
  store i32 0, ptr %11, align 4, !tbaa !16
  %12 = getelementptr inbounds %class.btAlignedObjectArray, ptr %0, i64 0, i32 3
  store i32 0, ptr %12, align 8, !tbaa !17
  ret void
}

; Function Attrs: uwtable
define dso_local void @_ZN35btSequentialImpulseConstraintSolverD2Ev(ptr noundef nonnull align 8 dereferenceable(240) %0) unnamed_addr #1 align 2 personality ptr @__gxx_personality_v0 {
  store ptr getelementptr inbounds ({ [8 x ptr] }, ptr @_ZTV35btSequentialImpulseConstraintSolver, i64 0, inrange i32 0, i64 2), ptr %0, align 8, !tbaa !5
  %2 = getelementptr inbounds %class.btSequentialImpulseConstraintSolver, ptr %0, i64 0, i32 7, i32 5
  %3 = load ptr, ptr %2, align 8, !tbaa !33
  %4 = icmp eq ptr %3, null
  %5 = getelementptr inbounds %class.btSequentialImpulseConstraintSolver, ptr %0, i64 0, i32 7, i32 6
  %6 = load i8, ptr %5, align 8
  %7 = icmp eq i8 %6, 0
  %8 = select i1 %4, i1 true, i1 %7
  br i1 %8, label %10, label %9

9:                                                ; preds = %1
  invoke void @_Z21btAlignedFreeInternalPv(ptr noundef nonnull %3)
          to label %10 unwind label %79

10:                                               ; preds = %1, %9
  %11 = getelementptr inbounds %class.btSequentialImpulseConstraintSolver, ptr %0, i64 0, i32 7, i32 2
  store i8 1, ptr %5, align 8, !tbaa !30
  store ptr null, ptr %2, align 8, !tbaa !33
  store i32 0, ptr %11, align 4, !tbaa !34
  %12 = getelementptr inbounds %class.btSequentialImpulseConstraintSolver, ptr %0, i64 0, i32 7, i32 3
  store i32 0, ptr %12, align 8, !tbaa !35
  %13 = getelementptr inbounds %class.btSequentialImpulseConstraintSolver, ptr %0, i64 0, i32 6, i32 5
  %14 = load ptr, ptr %13, align 8, !tbaa !27
  %15 = icmp eq ptr %14, null
  %16 = getelementptr inbounds %class.btSequentialImpulseConstraintSolver, ptr %0, i64 0, i32 6, i32 6
  %17 = load i8, ptr %16, align 8
  %18 = icmp eq i8 %17, 0
  %19 = select i1 %15, i1 true, i1 %18
  br i1 %19, label %21, label %20

20:                                               ; preds = %10
  invoke void @_Z21btAlignedFreeInternalPv(ptr noundef nonnull %14)
          to label %21 unwind label %82

21:                                               ; preds = %10, %20
  %22 = getelementptr inbounds %class.btSequentialImpulseConstraintSolver, ptr %0, i64 0, i32 6, i32 2
  store i8 1, ptr %16, align 8, !tbaa !24
  store ptr null, ptr %13, align 8, !tbaa !27
  store i32 0, ptr %22, align 4, !tbaa !28
  %23 = getelementptr inbounds %class.btSequentialImpulseConstraintSolver, ptr %0, i64 0, i32 6, i32 3
  store i32 0, ptr %23, align 8, !tbaa !29
  %24 = getelementptr inbounds %class.btSequentialImpulseConstraintSolver, ptr %0, i64 0, i32 5, i32 5
  %25 = load ptr, ptr %24, align 8, !tbaa !27
  %26 = icmp eq ptr %25, null
  %27 = getelementptr inbounds %class.btSequentialImpulseConstraintSolver, ptr %0, i64 0, i32 5, i32 6
  %28 = load i8, ptr %27, align 8
  %29 = icmp eq i8 %28, 0
  %30 = select i1 %26, i1 true, i1 %29
  br i1 %30, label %32, label %31

31:                                               ; preds = %21
  invoke void @_Z21btAlignedFreeInternalPv(ptr noundef nonnull %25)
          to label %32 unwind label %84

32:                                               ; preds = %21, %31
  %33 = getelementptr inbounds %class.btSequentialImpulseConstraintSolver, ptr %0, i64 0, i32 5, i32 2
  store i8 1, ptr %27, align 8, !tbaa !24
  store ptr null, ptr %24, align 8, !tbaa !27
  store i32 0, ptr %33, align 4, !tbaa !28
  %34 = getelementptr inbounds %class.btSequentialImpulseConstraintSolver, ptr %0, i64 0, i32 5, i32 3
  store i32 0, ptr %34, align 8, !tbaa !29
  %35 = getelementptr inbounds %class.btSequentialImpulseConstraintSolver, ptr %0, i64 0, i32 4, i32 5
  %36 = load ptr, ptr %35, align 8, !tbaa !21
  %37 = icmp eq ptr %36, null
  %38 = getelementptr inbounds %class.btSequentialImpulseConstraintSolver, ptr %0, i64 0, i32 4, i32 6
  %39 = load i8, ptr %38, align 8
  %40 = icmp eq i8 %39, 0
  %41 = select i1 %37, i1 true, i1 %40
  br i1 %41, label %43, label %42

42:                                               ; preds = %32
  invoke void @_Z21btAlignedFreeInternalPv(ptr noundef nonnull %36)
          to label %43 unwind label %89

43:                                               ; preds = %32, %42
  %44 = getelementptr inbounds %class.btSequentialImpulseConstraintSolver, ptr %0, i64 0, i32 4, i32 2
  store i8 1, ptr %38, align 8, !tbaa !18
  store ptr null, ptr %35, align 8, !tbaa !21
  store i32 0, ptr %44, align 4, !tbaa !22
  %45 = getelementptr inbounds %class.btSequentialImpulseConstraintSolver, ptr %0, i64 0, i32 4, i32 3
  store i32 0, ptr %45, align 8, !tbaa !23
  %46 = getelementptr inbounds %class.btSequentialImpulseConstraintSolver, ptr %0, i64 0, i32 3, i32 5
  %47 = load ptr, ptr %46, align 8, !tbaa !21
  %48 = icmp eq ptr %47, null
  %49 = getelementptr inbounds %class.btSequentialImpulseConstraintSolver, ptr %0, i64 0, i32 3, i32 6
  %50 = load i8, ptr %49, align 8
  %51 = icmp eq i8 %50, 0
  %52 = select i1 %48, i1 true, i1 %51
  br i1 %52, label %54, label %53

53:                                               ; preds = %43
  invoke void @_Z21btAlignedFreeInternalPv(ptr noundef nonnull %47)
          to label %54 unwind label %94

54:                                               ; preds = %43, %53
  %55 = getelementptr inbounds %class.btSequentialImpulseConstraintSolver, ptr %0, i64 0, i32 3, i32 2
  store i8 1, ptr %49, align 8, !tbaa !18
  store ptr null, ptr %46, align 8, !tbaa !21
  store i32 0, ptr %55, align 4, !tbaa !22
  %56 = getelementptr inbounds %class.btSequentialImpulseConstraintSolver, ptr %0, i64 0, i32 3, i32 3
  store i32 0, ptr %56, align 8, !tbaa !23
  %57 = getelementptr inbounds %class.btSequentialImpulseConstraintSolver, ptr %0, i64 0, i32 2, i32 5
  %58 = load ptr, ptr %57, align 8, !tbaa !21
  %59 = icmp eq ptr %58, null
  %60 = getelementptr inbounds %class.btSequentialImpulseConstraintSolver, ptr %0, i64 0, i32 2, i32 6
  %61 = load i8, ptr %60, align 8
  %62 = icmp eq i8 %61, 0
  %63 = select i1 %59, i1 true, i1 %62
  br i1 %63, label %65, label %64

64:                                               ; preds = %54
  invoke void @_Z21btAlignedFreeInternalPv(ptr noundef nonnull %58)
          to label %65 unwind label %99

65:                                               ; preds = %54, %64
  %66 = getelementptr inbounds %class.btSequentialImpulseConstraintSolver, ptr %0, i64 0, i32 2, i32 2
  store i8 1, ptr %60, align 8, !tbaa !18
  store ptr null, ptr %57, align 8, !tbaa !21
  store i32 0, ptr %66, align 4, !tbaa !22
  %67 = getelementptr inbounds %class.btSequentialImpulseConstraintSolver, ptr %0, i64 0, i32 2, i32 3
  store i32 0, ptr %67, align 8, !tbaa !23
  %68 = getelementptr inbounds %class.btSequentialImpulseConstraintSolver, ptr %0, i64 0, i32 1, i32 5
  %69 = load ptr, ptr %68, align 8, !tbaa !15
  %70 = icmp eq ptr %69, null
  %71 = getelementptr inbounds %class.btSequentialImpulseConstraintSolver, ptr %0, i64 0, i32 1, i32 6
  %72 = load i8, ptr %71, align 8
  %73 = icmp eq i8 %72, 0
  %74 = select i1 %70, i1 true, i1 %73
  br i1 %74, label %76, label %75

75:                                               ; preds = %65
  tail call void @_Z21btAlignedFreeInternalPv(ptr noundef nonnull %69)
  br label %76

76:                                               ; preds = %75, %65
  %77 = getelementptr inbounds %class.btSequentialImpulseConstraintSolver, ptr %0, i64 0, i32 1, i32 2
  store i8 1, ptr %71, align 8, !tbaa !8
  store ptr null, ptr %68, align 8, !tbaa !15
  store i32 0, ptr %77, align 4, !tbaa !16
  %78 = getelementptr inbounds %class.btSequentialImpulseConstraintSolver, ptr %0, i64 0, i32 1, i32 3
  store i32 0, ptr %78, align 8, !tbaa !17
  ret void

79:                                               ; preds = %9
  %80 = landingpad { ptr, i32 }
          cleanup
  %81 = getelementptr inbounds %class.btSequentialImpulseConstraintSolver, ptr %0, i64 0, i32 6
  invoke void @_ZN20btAlignedObjectArrayIiED2Ev(ptr noundef nonnull align 8 dereferenceable(25) %81)
          to label %86 unwind label %108

82:                                               ; preds = %20
  %83 = landingpad { ptr, i32 }
          cleanup
  br label %86

84:                                               ; preds = %31
  %85 = landingpad { ptr, i32 }
          cleanup
  br label %91

86:                                               ; preds = %79, %82
  %87 = phi { ptr, i32 } [ %83, %82 ], [ %80, %79 ]
  %88 = getelementptr inbounds %class.btSequentialImpulseConstraintSolver, ptr %0, i64 0, i32 5
  invoke void @_ZN20btAlignedObjectArrayIiED2Ev(ptr noundef nonnull align 8 dereferenceable(25) %88)
          to label %91 unwind label %108

89:                                               ; preds = %42
  %90 = landingpad { ptr, i32 }
          cleanup
  br label %96

91:                                               ; preds = %86, %84
  %92 = phi { ptr, i32 } [ %85, %84 ], [ %87, %86 ]
  %93 = getelementptr inbounds %class.btSequentialImpulseConstraintSolver, ptr %0, i64 0, i32 4
  invoke void @_ZN20btAlignedObjectArrayI18btSolverConstraintED2Ev(ptr noundef nonnull align 8 dereferenceable(25) %93)
          to label %96 unwind label %108

94:                                               ; preds = %53
  %95 = landingpad { ptr, i32 }
          cleanup
  br label %101

96:                                               ; preds = %91, %89
  %97 = phi { ptr, i32 } [ %90, %89 ], [ %92, %91 ]
  %98 = getelementptr inbounds %class.btSequentialImpulseConstraintSolver, ptr %0, i64 0, i32 3
  invoke void @_ZN20btAlignedObjectArrayI18btSolverConstraintED2Ev(ptr noundef nonnull align 8 dereferenceable(25) %98)
          to label %101 unwind label %108

99:                                               ; preds = %64
  %100 = landingpad { ptr, i32 }
          cleanup
  br label %104

101:                                              ; preds = %96, %94
  %102 = phi { ptr, i32 } [ %95, %94 ], [ %97, %96 ]
  %103 = getelementptr inbounds %class.btSequentialImpulseConstraintSolver, ptr %0, i64 0, i32 2
  invoke void @_ZN20btAlignedObjectArrayI18btSolverConstraintED2Ev(ptr noundef nonnull align 8 dereferenceable(25) %103)
          to label %104 unwind label %108

104:                                              ; preds = %101, %99
  %105 = phi { ptr, i32 } [ %100, %99 ], [ %102, %101 ]
  %106 = getelementptr inbounds %class.btSequentialImpulseConstraintSolver, ptr %0, i64 0, i32 1
  invoke void @_ZN20btAlignedObjectArrayI12btSolverBodyED2Ev(ptr noundef nonnull align 8 dereferenceable(25) %106)
          to label %107 unwind label %108

107:                                              ; preds = %104
  resume { ptr, i32 } %105

108:                                              ; preds = %104, %101, %96, %91, %86, %79
  %109 = landingpad { ptr, i32 }
          catch ptr null
  %110 = extractvalue { ptr, i32 } %109, 0
  tail call void @__clang_call_terminate(ptr %110) #20
  unreachable
}

; Function Attrs: uwtable
define dso_local void @_ZN35btSequentialImpulseConstraintSolverD0Ev(ptr noundef nonnull align 8 dereferenceable(240) %0) unnamed_addr #1 align 2 personality ptr @__gxx_personality_v0 {
  invoke void @_ZN35btSequentialImpulseConstraintSolverD2Ev(ptr noundef nonnull align 8 dereferenceable(240) %0)
          to label %2 unwind label %3

2:                                                ; preds = %1
  tail call void @_ZdlPv(ptr noundef nonnull %0) #21
  ret void

3:                                                ; preds = %1
  %4 = landingpad { ptr, i32 }
          cleanup
  tail call void @_ZdlPv(ptr noundef nonnull %0) #21
  resume { ptr, i32 } %4
}

; Function Attrs: nobuiltin nounwind
declare void @_ZdlPv(ptr noundef) local_unnamed_addr #3

; Function Attrs: mustprogress nofree nosync nounwind willreturn memory(argmem: readwrite) uwtable
define dso_local void @_ZN35btSequentialImpulseConstraintSolver37resolveSingleConstraintRowGenericSIMDER12btSolverBodyS1_RK18btSolverConstraint(ptr nocapture noundef nonnull readnone align 8 dereferenceable(240) %0, ptr nocapture noundef nonnull align 8 dereferenceable(112) %1, ptr nocapture noundef nonnull align 8 dereferenceable(112) %2, ptr nocapture noundef nonnull align 8 dereferenceable(140) %3) local_unnamed_addr #4 align 2 {
  tail call void @_ZN35btSequentialImpulseConstraintSolver33resolveSingleConstraintRowGenericER12btSolverBodyS1_RK18btSolverConstraint(ptr nonnull align 8 poison, ptr noundef nonnull align 8 dereferenceable(112) %1, ptr noundef nonnull align 8 dereferenceable(112) %2, ptr noundef nonnull align 8 dereferenceable(140) %3)
  ret void
}

; Function Attrs: mustprogress nofree nosync nounwind willreturn memory(argmem: readwrite) uwtable
define dso_local void @_ZN35btSequentialImpulseConstraintSolver33resolveSingleConstraintRowGenericER12btSolverBodyS1_RK18btSolverConstraint(ptr nocapture nonnull readnone align 8 %0, ptr nocapture noundef nonnull align 8 dereferenceable(112) %1, ptr nocapture noundef nonnull align 8 dereferenceable(112) %2, ptr nocapture noundef nonnull align 8 dereferenceable(140) %3) local_unnamed_addr #5 align 2 {
  %5 = getelementptr inbounds %struct.btSolverConstraint, ptr %3, i64 0, i32 14
  %6 = load float, ptr %5, align 8, !tbaa !40
  %7 = getelementptr inbounds %struct.btSolverConstraint, ptr %3, i64 0, i32 6
  %8 = load float, ptr %7, align 4, !tbaa !44
  %9 = getelementptr inbounds %struct.btSolverConstraint, ptr %3, i64 0, i32 15
  %10 = load float, ptr %9, align 4, !tbaa !45
  %11 = fneg float %8
  %12 = tail call float @llvm.fmuladd.f32(float %11, float %10, float %6)
  %13 = getelementptr inbounds %struct.btSolverConstraint, ptr %3, i64 0, i32 1
  %14 = load <2 x float>, ptr %13, align 8, !tbaa !46
  %15 = getelementptr inbounds [4 x float], ptr %1, i64 0, i64 1
  %16 = getelementptr inbounds %struct.btSolverConstraint, ptr %3, i64 0, i32 1, i32 0, i64 2
  %17 = getelementptr inbounds [4 x float], ptr %1, i64 0, i64 2
  %18 = getelementptr inbounds %struct.btSolverBody, ptr %1, i64 0, i32 1
  %19 = load float, ptr %3, align 8, !tbaa !46
  %20 = getelementptr inbounds [4 x float], ptr %3, i64 0, i64 1
  %21 = load float, ptr %20, align 4, !tbaa !46
  %22 = getelementptr inbounds %struct.btSolverBody, ptr %1, i64 0, i32 1, i32 0, i64 1
  %23 = getelementptr inbounds [4 x float], ptr %3, i64 0, i64 2
  %24 = getelementptr inbounds %struct.btSolverBody, ptr %1, i64 0, i32 1, i32 0, i64 2
  %25 = getelementptr inbounds [4 x float], ptr %2, i64 0, i64 1
  %26 = getelementptr inbounds [4 x float], ptr %2, i64 0, i64 2
  %27 = getelementptr inbounds %struct.btSolverConstraint, ptr %3, i64 0, i32 2
  %28 = getelementptr inbounds %struct.btSolverBody, ptr %2, i64 0, i32 1
  %29 = load float, ptr %27, align 8, !tbaa !46
  %30 = getelementptr inbounds %struct.btSolverConstraint, ptr %3, i64 0, i32 2, i32 0, i64 1
  %31 = load float, ptr %30, align 4, !tbaa !46
  %32 = getelementptr inbounds %struct.btSolverBody, ptr %2, i64 0, i32 1, i32 0, i64 1
  %33 = getelementptr inbounds %struct.btSolverConstraint, ptr %3, i64 0, i32 2, i32 0, i64 2
  %34 = getelementptr inbounds %struct.btSolverBody, ptr %2, i64 0, i32 1, i32 0, i64 2
  %35 = load <4 x float>, ptr %1, align 8
  %36 = shufflevector <4 x float> %35, <4 x float> poison, <2 x i32> <i32 0, i32 undef>
  %37 = load <4 x float>, ptr %15, align 4
  %38 = shufflevector <4 x float> %37, <4 x float> poison, <2 x i32> <i32 0, i32 undef>
  %39 = load <4 x float>, ptr %17, align 8
  %40 = shufflevector <4 x float> %39, <4 x float> poison, <2 x i32> <i32 0, i32 undef>
  %41 = load float, ptr %18, align 8, !tbaa !46
  %42 = load float, ptr %22, align 4, !tbaa !46
  %43 = shufflevector <2 x float> %14, <2 x float> poison, <2 x i32> <i32 1, i32 0>
  %44 = insertelement <2 x float> %43, float %21, i64 1
  %45 = insertelement <2 x float> %38, float %42, i64 1
  %46 = fmul <2 x float> %44, %45
  %47 = insertelement <2 x float> %14, float %19, i64 1
  %48 = insertelement <2 x float> %36, float %41, i64 1
  %49 = tail call <2 x float> @llvm.fmuladd.v2f32(<2 x float> %47, <2 x float> %48, <2 x float> %46)
  %50 = load float, ptr %23, align 8, !tbaa !46
  %51 = load float, ptr %24, align 8, !tbaa !46
  %52 = load float, ptr %16, align 8, !tbaa !46
  %53 = insertelement <2 x float> poison, float %52, i64 0
  %54 = insertelement <2 x float> %53, float %50, i64 1
  %55 = insertelement <2 x float> %40, float %51, i64 1
  %56 = tail call <2 x float> @llvm.fmuladd.v2f32(<2 x float> %54, <2 x float> %55, <2 x float> %49)
  %57 = shufflevector <2 x float> %56, <2 x float> poison, <2 x i32> <i32 1, i32 undef>
  %58 = fadd <2 x float> %56, %57
  %59 = extractelement <2 x float> %58, i64 0
  %60 = load float, ptr %2, align 8, !tbaa !46
  %61 = load float, ptr %25, align 4, !tbaa !46
  %62 = load float, ptr %26, align 8, !tbaa !46
  %63 = load <4 x float>, ptr %28, align 8
  %64 = shufflevector <4 x float> %63, <4 x float> poison, <2 x i32> <i32 0, i32 undef>
  %65 = load <4 x float>, ptr %32, align 4
  %66 = shufflevector <4 x float> %65, <4 x float> poison, <2 x i32> <i32 0, i32 undef>
  %67 = insertelement <2 x float> %14, float %31, i64 0
  %68 = insertelement <2 x float> %66, float %61, i64 1
  %69 = fmul <2 x float> %67, %68
  %70 = insertelement <2 x float> %43, float %29, i64 0
  %71 = insertelement <2 x float> %64, float %60, i64 1
  %72 = tail call <2 x float> @llvm.fmuladd.v2f32(<2 x float> %70, <2 x float> %71, <2 x float> %69)
  %73 = load <4 x float>, ptr %33, align 8
  %74 = shufflevector <4 x float> %73, <4 x float> poison, <2 x i32> <i32 0, i32 undef>
  %75 = load <4 x float>, ptr %34, align 8
  %76 = shufflevector <4 x float> %75, <4 x float> poison, <2 x i32> <i32 0, i32 undef>
  %77 = insertelement <2 x float> %74, float %52, i64 1
  %78 = insertelement <2 x float> %76, float %62, i64 1
  %79 = tail call <2 x float> @llvm.fmuladd.v2f32(<2 x float> %77, <2 x float> %78, <2 x float> %72)
  %80 = shufflevector <2 x float> %79, <2 x float> poison, <2 x i32> <i32 1, i32 undef>
  %81 = fsub <2 x float> %79, %80
  %82 = extractelement <2 x float> %81, i64 0
  %83 = getelementptr inbounds %struct.btSolverConstraint, ptr %3, i64 0, i32 8
  %84 = load float, ptr %83, align 4, !tbaa !47
  %85 = fneg float %59
  %86 = tail call float @llvm.fmuladd.f32(float %85, float %84, float %12)
  %87 = fneg float %82
  %88 = tail call float @llvm.fmuladd.f32(float %87, float %84, float %86)
  %89 = fadd float %8, %88
  %90 = getelementptr inbounds %struct.btSolverConstraint, ptr %3, i64 0, i32 16
  %91 = load float, ptr %90, align 8, !tbaa !48
  %92 = fcmp olt float %89, %91
  br i1 %92, label %93, label %95

93:                                               ; preds = %4
  %94 = fsub float %91, %8
  br label %101

95:                                               ; preds = %4
  %96 = getelementptr inbounds %struct.btSolverConstraint, ptr %3, i64 0, i32 17
  %97 = load float, ptr %96, align 4, !tbaa !49
  %98 = fcmp ogt float %89, %97
  br i1 %98, label %99, label %101

99:                                               ; preds = %95
  %100 = fsub float %97, %8
  br label %101

101:                                              ; preds = %95, %99, %93
  %102 = phi float [ %97, %99 ], [ %91, %93 ], [ %89, %95 ]
  %103 = phi float [ %100, %99 ], [ %94, %93 ], [ %88, %95 ]
  store float %102, ptr %7, align 4, !tbaa !44
  %104 = getelementptr inbounds %struct.btSolverBody, ptr %1, i64 0, i32 3
  %105 = getelementptr inbounds %struct.btSolverBody, ptr %1, i64 0, i32 3, i32 0, i64 2
  %106 = load float, ptr %105, align 8, !tbaa !46
  %107 = fmul float %52, %106
  %108 = getelementptr inbounds %struct.btSolverConstraint, ptr %3, i64 0, i32 3
  %109 = fmul float %103, %107
  %110 = load <2 x float>, ptr %104, align 8, !tbaa !46
  %111 = fmul <2 x float> %14, %110
  %112 = insertelement <2 x float> poison, float %103, i64 0
  %113 = shufflevector <2 x float> %112, <2 x float> poison, <2 x i32> zeroinitializer
  %114 = fmul <2 x float> %113, %111
  %115 = load <2 x float>, ptr %1, align 8, !tbaa !46
  %116 = fadd <2 x float> %114, %115
  store <2 x float> %116, ptr %1, align 8, !tbaa !46
  %117 = load float, ptr %17, align 8, !tbaa !46
  %118 = fadd float %109, %117
  store float %118, ptr %17, align 8, !tbaa !46
  %119 = getelementptr inbounds %struct.btSolverBody, ptr %1, i64 0, i32 2
  %120 = getelementptr inbounds %struct.btSolverBody, ptr %1, i64 0, i32 2, i32 0, i64 2
  %121 = load float, ptr %120, align 8, !tbaa !46
  %122 = fmul float %103, %121
  %123 = getelementptr inbounds %struct.btSolverConstraint, ptr %3, i64 0, i32 3, i32 0, i64 2
  %124 = load float, ptr %123, align 8, !tbaa !46
  %125 = fmul float %122, %124
  %126 = load <2 x float>, ptr %119, align 8, !tbaa !46
  %127 = fmul <2 x float> %113, %126
  %128 = load <2 x float>, ptr %108, align 8, !tbaa !46
  %129 = fmul <2 x float> %127, %128
  %130 = load <2 x float>, ptr %18, align 8, !tbaa !46
  %131 = fadd <2 x float> %129, %130
  store <2 x float> %131, ptr %18, align 8, !tbaa !46
  %132 = load float, ptr %24, align 8, !tbaa !46
  %133 = fadd float %125, %132
  store float %133, ptr %24, align 8, !tbaa !46
  %134 = load float, ptr %16, align 8, !tbaa !46
  %135 = fneg float %134
  %136 = getelementptr inbounds %struct.btSolverBody, ptr %2, i64 0, i32 3
  %137 = getelementptr inbounds %struct.btSolverBody, ptr %2, i64 0, i32 3, i32 0, i64 2
  %138 = load float, ptr %137, align 8, !tbaa !46
  %139 = fmul float %138, %135
  %140 = getelementptr inbounds %struct.btSolverConstraint, ptr %3, i64 0, i32 4
  %141 = fmul float %103, %139
  %142 = load <2 x float>, ptr %13, align 8, !tbaa !46
  %143 = fneg <2 x float> %142
  %144 = load <2 x float>, ptr %136, align 8, !tbaa !46
  %145 = fmul <2 x float> %144, %143
  %146 = fmul <2 x float> %113, %145
  %147 = load <2 x float>, ptr %2, align 8, !tbaa !46
  %148 = fadd <2 x float> %146, %147
  store <2 x float> %148, ptr %2, align 8, !tbaa !46
  %149 = load float, ptr %26, align 8, !tbaa !46
  %150 = fadd float %141, %149
  store float %150, ptr %26, align 8, !tbaa !46
  %151 = getelementptr inbounds %struct.btSolverBody, ptr %2, i64 0, i32 2
  %152 = getelementptr inbounds %struct.btSolverBody, ptr %2, i64 0, i32 2, i32 0, i64 2
  %153 = load float, ptr %152, align 8, !tbaa !46
  %154 = fmul float %103, %153
  %155 = getelementptr inbounds %struct.btSolverConstraint, ptr %3, i64 0, i32 4, i32 0, i64 2
  %156 = load float, ptr %155, align 8, !tbaa !46
  %157 = fmul float %154, %156
  %158 = load <2 x float>, ptr %151, align 8, !tbaa !46
  %159 = fmul <2 x float> %113, %158
  %160 = load <2 x float>, ptr %140, align 8, !tbaa !46
  %161 = fmul <2 x float> %159, %160
  %162 = load <2 x float>, ptr %28, align 8, !tbaa !46
  %163 = fadd <2 x float> %161, %162
  store <2 x float> %163, ptr %28, align 8, !tbaa !46
  %164 = load float, ptr %34, align 8, !tbaa !46
  %165 = fadd float %157, %164
  store float %165, ptr %34, align 8, !tbaa !46
  ret void
}

; Function Attrs: mustprogress nocallback nofree nosync nounwind willreturn memory(argmem: readwrite)
declare void @llvm.lifetime.start.p0(i64 immarg, ptr nocapture) #6

; Function Attrs: mustprogress nocallback nofree nosync nounwind speculatable willreturn memory(none)
declare float @llvm.fmuladd.f32(float, float, float) #7

; Function Attrs: mustprogress nocallback nofree nosync nounwind willreturn memory(argmem: readwrite)
declare void @llvm.lifetime.end.p0(i64 immarg, ptr nocapture) #6

; Function Attrs: mustprogress nofree nosync nounwind willreturn memory(argmem: readwrite) uwtable
define dso_local void @_ZN35btSequentialImpulseConstraintSolver40resolveSingleConstraintRowLowerLimitSIMDER12btSolverBodyS1_RK18btSolverConstraint(ptr nocapture noundef nonnull readnone align 8 dereferenceable(240) %0, ptr nocapture noundef nonnull align 8 dereferenceable(112) %1, ptr nocapture noundef nonnull align 8 dereferenceable(112) %2, ptr nocapture noundef nonnull align 8 dereferenceable(140) %3) local_unnamed_addr #4 align 2 {
  tail call void @_ZN35btSequentialImpulseConstraintSolver36resolveSingleConstraintRowLowerLimitER12btSolverBodyS1_RK18btSolverConstraint(ptr nonnull align 8 poison, ptr noundef nonnull align 8 dereferenceable(112) %1, ptr noundef nonnull align 8 dereferenceable(112) %2, ptr noundef nonnull align 8 dereferenceable(140) %3)
  ret void
}

; Function Attrs: mustprogress nofree nosync nounwind willreturn memory(argmem: readwrite) uwtable
define dso_local void @_ZN35btSequentialImpulseConstraintSolver36resolveSingleConstraintRowLowerLimitER12btSolverBodyS1_RK18btSolverConstraint(ptr nocapture nonnull readnone align 8 %0, ptr nocapture noundef nonnull align 8 dereferenceable(112) %1, ptr nocapture noundef nonnull align 8 dereferenceable(112) %2, ptr nocapture noundef nonnull align 8 dereferenceable(140) %3) local_unnamed_addr #5 align 2 {
  %5 = getelementptr inbounds %struct.btSolverConstraint, ptr %3, i64 0, i32 14
  %6 = load float, ptr %5, align 8, !tbaa !40
  %7 = getelementptr inbounds %struct.btSolverConstraint, ptr %3, i64 0, i32 6
  %8 = load float, ptr %7, align 4, !tbaa !44
  %9 = getelementptr inbounds %struct.btSolverConstraint, ptr %3, i64 0, i32 15
  %10 = load float, ptr %9, align 4, !tbaa !45
  %11 = fneg float %8
  %12 = tail call float @llvm.fmuladd.f32(float %11, float %10, float %6)
  %13 = getelementptr inbounds %struct.btSolverConstraint, ptr %3, i64 0, i32 1
  %14 = getelementptr inbounds [4 x float], ptr %1, i64 0, i64 1
  %15 = getelementptr inbounds %struct.btSolverConstraint, ptr %3, i64 0, i32 1, i32 0, i64 2
  %16 = getelementptr inbounds [4 x float], ptr %1, i64 0, i64 2
  %17 = getelementptr inbounds %struct.btSolverBody, ptr %1, i64 0, i32 1
  %18 = load float, ptr %3, align 8, !tbaa !46
  %19 = getelementptr inbounds [4 x float], ptr %3, i64 0, i64 1
  %20 = load float, ptr %19, align 4, !tbaa !46
  %21 = getelementptr inbounds %struct.btSolverBody, ptr %1, i64 0, i32 1, i32 0, i64 1
  %22 = getelementptr inbounds [4 x float], ptr %3, i64 0, i64 2
  %23 = getelementptr inbounds %struct.btSolverBody, ptr %1, i64 0, i32 1, i32 0, i64 2
  %24 = getelementptr inbounds [4 x float], ptr %2, i64 0, i64 1
  %25 = getelementptr inbounds [4 x float], ptr %2, i64 0, i64 2
  %26 = getelementptr inbounds %struct.btSolverConstraint, ptr %3, i64 0, i32 2
  %27 = getelementptr inbounds %struct.btSolverBody, ptr %2, i64 0, i32 1
  %28 = load float, ptr %26, align 8, !tbaa !46
  %29 = getelementptr inbounds %struct.btSolverConstraint, ptr %3, i64 0, i32 2, i32 0, i64 1
  %30 = load float, ptr %29, align 4, !tbaa !46
  %31 = getelementptr inbounds %struct.btSolverBody, ptr %2, i64 0, i32 1, i32 0, i64 1
  %32 = getelementptr inbounds %struct.btSolverConstraint, ptr %3, i64 0, i32 2, i32 0, i64 2
  %33 = getelementptr inbounds %struct.btSolverBody, ptr %2, i64 0, i32 1, i32 0, i64 2
  %34 = getelementptr inbounds %struct.btSolverConstraint, ptr %3, i64 0, i32 8
  %35 = load float, ptr %34, align 4, !tbaa !47
  %36 = getelementptr inbounds %struct.btSolverConstraint, ptr %3, i64 0, i32 16
  %37 = load float, ptr %36, align 8, !tbaa !48
  %38 = fsub float %37, %8
  %39 = getelementptr inbounds %struct.btSolverBody, ptr %1, i64 0, i32 3
  %40 = getelementptr inbounds %struct.btSolverBody, ptr %1, i64 0, i32 3, i32 0, i64 2
  %41 = getelementptr inbounds %struct.btSolverConstraint, ptr %3, i64 0, i32 3
  %42 = load <2 x float>, ptr %13, align 8, !tbaa !46
  %43 = load float, ptr %2, align 8, !tbaa !46
  %44 = load float, ptr %24, align 4, !tbaa !46
  %45 = load float, ptr %25, align 8, !tbaa !46
  %46 = load <4 x float>, ptr %27, align 8
  %47 = shufflevector <4 x float> %46, <4 x float> poison, <2 x i32> <i32 0, i32 undef>
  %48 = load <4 x float>, ptr %31, align 4
  %49 = shufflevector <4 x float> %48, <4 x float> poison, <2 x i32> <i32 0, i32 undef>
  %50 = load <4 x float>, ptr %32, align 8
  %51 = shufflevector <4 x float> %50, <4 x float> poison, <2 x i32> <i32 0, i32 undef>
  %52 = load <4 x float>, ptr %33, align 8
  %53 = shufflevector <4 x float> %52, <4 x float> poison, <2 x i32> <i32 0, i32 undef>
  %54 = load <4 x float>, ptr %1, align 8
  %55 = shufflevector <4 x float> %54, <4 x float> poison, <2 x i32> <i32 0, i32 undef>
  %56 = load <4 x float>, ptr %14, align 4
  %57 = shufflevector <4 x float> %56, <4 x float> poison, <2 x i32> <i32 0, i32 undef>
  %58 = load <4 x float>, ptr %16, align 8
  %59 = shufflevector <4 x float> %58, <4 x float> poison, <2 x i32> <i32 0, i32 undef>
  %60 = load float, ptr %17, align 8, !tbaa !46
  %61 = load float, ptr %21, align 4, !tbaa !46
  %62 = load float, ptr %22, align 8, !tbaa !46
  %63 = load float, ptr %23, align 8, !tbaa !46
  %64 = shufflevector <2 x float> %42, <2 x float> poison, <2 x i32> <i32 1, i32 0>
  %65 = insertelement <2 x float> %64, float %20, i64 1
  %66 = insertelement <2 x float> %57, float %61, i64 1
  %67 = fmul <2 x float> %65, %66
  %68 = insertelement <2 x float> %42, float %18, i64 1
  %69 = insertelement <2 x float> %55, float %60, i64 1
  %70 = tail call <2 x float> @llvm.fmuladd.v2f32(<2 x float> %68, <2 x float> %69, <2 x float> %67)
  %71 = load float, ptr %15, align 8, !tbaa !46
  %72 = insertelement <2 x float> poison, float %71, i64 0
  %73 = insertelement <2 x float> %72, float %62, i64 1
  %74 = insertelement <2 x float> %59, float %63, i64 1
  %75 = tail call <2 x float> @llvm.fmuladd.v2f32(<2 x float> %73, <2 x float> %74, <2 x float> %70)
  %76 = shufflevector <2 x float> %75, <2 x float> poison, <2 x i32> <i32 1, i32 undef>
  %77 = fadd <2 x float> %75, %76
  %78 = extractelement <2 x float> %77, i64 0
  %79 = insertelement <2 x float> %42, float %30, i64 0
  %80 = insertelement <2 x float> %49, float %44, i64 1
  %81 = fmul <2 x float> %79, %80
  %82 = insertelement <2 x float> %64, float %28, i64 0
  %83 = insertelement <2 x float> %47, float %43, i64 1
  %84 = tail call <2 x float> @llvm.fmuladd.v2f32(<2 x float> %82, <2 x float> %83, <2 x float> %81)
  %85 = insertelement <2 x float> %51, float %71, i64 1
  %86 = insertelement <2 x float> %53, float %45, i64 1
  %87 = tail call <2 x float> @llvm.fmuladd.v2f32(<2 x float> %85, <2 x float> %86, <2 x float> %84)
  %88 = shufflevector <2 x float> %87, <2 x float> poison, <2 x i32> <i32 1, i32 undef>
  %89 = fsub <2 x float> %87, %88
  %90 = extractelement <2 x float> %89, i64 0
  %91 = fneg float %78
  %92 = tail call float @llvm.fmuladd.f32(float %91, float %35, float %12)
  %93 = fneg float %90
  %94 = tail call float @llvm.fmuladd.f32(float %93, float %35, float %92)
  %95 = fadd float %8, %94
  %96 = fcmp olt float %95, %37
  %97 = select i1 %96, float %37, float %95
  %98 = select i1 %96, float %38, float %94
  store float %97, ptr %7, align 4, !tbaa !44
  %99 = load <2 x float>, ptr %39, align 8, !tbaa !46
  %100 = fmul <2 x float> %42, %99
  %101 = load float, ptr %40, align 8, !tbaa !46
  %102 = fmul float %71, %101
  %103 = insertelement <2 x float> poison, float %98, i64 0
  %104 = shufflevector <2 x float> %103, <2 x float> poison, <2 x i32> zeroinitializer
  %105 = fmul <2 x float> %100, %104
  %106 = fmul float %98, %102
  %107 = load <2 x float>, ptr %1, align 8, !tbaa !46
  %108 = fadd <2 x float> %105, %107
  store <2 x float> %108, ptr %1, align 8, !tbaa !46
  %109 = load float, ptr %16, align 8, !tbaa !46
  %110 = fadd float %106, %109
  store float %110, ptr %16, align 8, !tbaa !46
  %111 = getelementptr inbounds %struct.btSolverBody, ptr %1, i64 0, i32 2
  %112 = getelementptr inbounds %struct.btSolverBody, ptr %1, i64 0, i32 2, i32 0, i64 2
  %113 = load float, ptr %112, align 8, !tbaa !46
  %114 = fmul float %98, %113
  %115 = getelementptr inbounds %struct.btSolverConstraint, ptr %3, i64 0, i32 3, i32 0, i64 2
  %116 = load float, ptr %115, align 8, !tbaa !46
  %117 = fmul float %114, %116
  %118 = load <2 x float>, ptr %111, align 8, !tbaa !46
  %119 = fmul <2 x float> %104, %118
  %120 = load <2 x float>, ptr %41, align 8, !tbaa !46
  %121 = fmul <2 x float> %119, %120
  %122 = load <2 x float>, ptr %17, align 8, !tbaa !46
  %123 = fadd <2 x float> %121, %122
  store <2 x float> %123, ptr %17, align 8, !tbaa !46
  %124 = load float, ptr %23, align 8, !tbaa !46
  %125 = fadd float %117, %124
  store float %125, ptr %23, align 8, !tbaa !46
  %126 = load float, ptr %15, align 8, !tbaa !46
  %127 = fneg float %126
  %128 = getelementptr inbounds %struct.btSolverBody, ptr %2, i64 0, i32 3
  %129 = getelementptr inbounds %struct.btSolverBody, ptr %2, i64 0, i32 3, i32 0, i64 2
  %130 = load float, ptr %129, align 8, !tbaa !46
  %131 = fmul float %130, %127
  %132 = getelementptr inbounds %struct.btSolverConstraint, ptr %3, i64 0, i32 4
  %133 = fmul float %98, %131
  %134 = load <2 x float>, ptr %13, align 8, !tbaa !46
  %135 = fneg <2 x float> %134
  %136 = load <2 x float>, ptr %128, align 8, !tbaa !46
  %137 = fmul <2 x float> %136, %135
  %138 = fmul <2 x float> %104, %137
  %139 = load <2 x float>, ptr %2, align 8, !tbaa !46
  %140 = fadd <2 x float> %138, %139
  store <2 x float> %140, ptr %2, align 8, !tbaa !46
  %141 = load float, ptr %25, align 8, !tbaa !46
  %142 = fadd float %133, %141
  store float %142, ptr %25, align 8, !tbaa !46
  %143 = getelementptr inbounds %struct.btSolverBody, ptr %2, i64 0, i32 2
  %144 = getelementptr inbounds %struct.btSolverBody, ptr %2, i64 0, i32 2, i32 0, i64 2
  %145 = load float, ptr %144, align 8, !tbaa !46
  %146 = fmul float %98, %145
  %147 = getelementptr inbounds %struct.btSolverConstraint, ptr %3, i64 0, i32 4, i32 0, i64 2
  %148 = load float, ptr %147, align 8, !tbaa !46
  %149 = fmul float %146, %148
  %150 = load <2 x float>, ptr %143, align 8, !tbaa !46
  %151 = fmul <2 x float> %104, %150
  %152 = load <2 x float>, ptr %132, align 8, !tbaa !46
  %153 = fmul <2 x float> %151, %152
  %154 = load <2 x float>, ptr %27, align 8, !tbaa !46
  %155 = fadd <2 x float> %153, %154
  store <2 x float> %155, ptr %27, align 8, !tbaa !46
  %156 = load float, ptr %33, align 8, !tbaa !46
  %157 = fadd float %149, %156
  store float %157, ptr %33, align 8, !tbaa !46
  ret void
}

; Function Attrs: mustprogress nofree nosync nounwind willreturn memory(readwrite, inaccessiblemem: none) uwtable
define dso_local void @_ZN35btSequentialImpulseConstraintSolver43resolveSplitPenetrationImpulseCacheFriendlyER12btSolverBodyS1_RK18btSolverConstraint(ptr nocapture nonnull readnone align 8 %0, ptr nocapture noundef nonnull align 8 dereferenceable(112) %1, ptr nocapture noundef nonnull align 8 dereferenceable(112) %2, ptr nocapture noundef nonnull align 8 dereferenceable(140) %3) local_unnamed_addr #8 align 2 {
  %5 = getelementptr inbounds %struct.btSolverConstraint, ptr %3, i64 0, i32 18
  %6 = load float, ptr %5, align 8, !tbaa !50
  %7 = fcmp une float %6, 0.000000e+00
  br i1 %7, label %8, label %175

8:                                                ; preds = %4
  %9 = load i32, ptr @gNumSplitImpulseRecoveries, align 4, !tbaa !51
  %10 = add nsw i32 %9, 1
  store i32 %10, ptr @gNumSplitImpulseRecoveries, align 4, !tbaa !51
  %11 = getelementptr inbounds %struct.btSolverConstraint, ptr %3, i64 0, i32 5
  %12 = load float, ptr %11, align 8, !tbaa !52
  %13 = getelementptr inbounds %struct.btSolverConstraint, ptr %3, i64 0, i32 15
  %14 = load float, ptr %13, align 4, !tbaa !45
  %15 = fneg float %12
  %16 = tail call float @llvm.fmuladd.f32(float %15, float %14, float %6)
  %17 = getelementptr inbounds %struct.btSolverConstraint, ptr %3, i64 0, i32 1
  %18 = getelementptr inbounds %struct.btSolverBody, ptr %1, i64 0, i32 6
  %19 = load <2 x float>, ptr %17, align 8, !tbaa !46
  %20 = getelementptr inbounds %struct.btSolverBody, ptr %1, i64 0, i32 6, i32 0, i64 1
  %21 = getelementptr inbounds %struct.btSolverConstraint, ptr %3, i64 0, i32 1, i32 0, i64 2
  %22 = getelementptr inbounds %struct.btSolverBody, ptr %1, i64 0, i32 6, i32 0, i64 2
  %23 = getelementptr inbounds %struct.btSolverBody, ptr %1, i64 0, i32 7
  %24 = load float, ptr %3, align 8, !tbaa !46
  %25 = getelementptr inbounds [4 x float], ptr %3, i64 0, i64 1
  %26 = load float, ptr %25, align 4, !tbaa !46
  %27 = getelementptr inbounds %struct.btSolverBody, ptr %1, i64 0, i32 7, i32 0, i64 1
  %28 = getelementptr inbounds [4 x float], ptr %3, i64 0, i64 2
  %29 = getelementptr inbounds %struct.btSolverBody, ptr %1, i64 0, i32 7, i32 0, i64 2
  %30 = getelementptr inbounds %struct.btSolverBody, ptr %2, i64 0, i32 6
  %31 = getelementptr inbounds %struct.btSolverBody, ptr %2, i64 0, i32 6, i32 0, i64 1
  %32 = getelementptr inbounds %struct.btSolverBody, ptr %2, i64 0, i32 6, i32 0, i64 2
  %33 = getelementptr inbounds %struct.btSolverConstraint, ptr %3, i64 0, i32 2
  %34 = getelementptr inbounds %struct.btSolverBody, ptr %2, i64 0, i32 7
  %35 = load float, ptr %33, align 8, !tbaa !46
  %36 = getelementptr inbounds %struct.btSolverConstraint, ptr %3, i64 0, i32 2, i32 0, i64 1
  %37 = load float, ptr %36, align 4, !tbaa !46
  %38 = getelementptr inbounds %struct.btSolverBody, ptr %2, i64 0, i32 7, i32 0, i64 1
  %39 = getelementptr inbounds %struct.btSolverConstraint, ptr %3, i64 0, i32 2, i32 0, i64 2
  %40 = getelementptr inbounds %struct.btSolverBody, ptr %2, i64 0, i32 7, i32 0, i64 2
  %41 = load <4 x float>, ptr %18, align 8
  %42 = shufflevector <4 x float> %41, <4 x float> poison, <2 x i32> <i32 0, i32 undef>
  %43 = load <4 x float>, ptr %20, align 4
  %44 = shufflevector <4 x float> %43, <4 x float> poison, <2 x i32> <i32 0, i32 undef>
  %45 = load <4 x float>, ptr %22, align 8
  %46 = shufflevector <4 x float> %45, <4 x float> poison, <2 x i32> <i32 0, i32 undef>
  %47 = load float, ptr %23, align 8, !tbaa !46
  %48 = load float, ptr %27, align 4, !tbaa !46
  %49 = shufflevector <2 x float> %19, <2 x float> poison, <2 x i32> <i32 1, i32 0>
  %50 = insertelement <2 x float> %49, float %26, i64 1
  %51 = insertelement <2 x float> %44, float %48, i64 1
  %52 = fmul <2 x float> %50, %51
  %53 = insertelement <2 x float> %19, float %24, i64 1
  %54 = insertelement <2 x float> %42, float %47, i64 1
  %55 = tail call <2 x float> @llvm.fmuladd.v2f32(<2 x float> %53, <2 x float> %54, <2 x float> %52)
  %56 = load float, ptr %28, align 8, !tbaa !46
  %57 = load float, ptr %29, align 8, !tbaa !46
  %58 = load float, ptr %21, align 8, !tbaa !46
  %59 = insertelement <2 x float> poison, float %58, i64 0
  %60 = insertelement <2 x float> %59, float %56, i64 1
  %61 = insertelement <2 x float> %46, float %57, i64 1
  %62 = tail call <2 x float> @llvm.fmuladd.v2f32(<2 x float> %60, <2 x float> %61, <2 x float> %55)
  %63 = shufflevector <2 x float> %62, <2 x float> poison, <2 x i32> <i32 1, i32 undef>
  %64 = fadd <2 x float> %62, %63
  %65 = extractelement <2 x float> %64, i64 0
  %66 = load float, ptr %30, align 8, !tbaa !46
  %67 = load float, ptr %31, align 4, !tbaa !46
  %68 = load float, ptr %32, align 8, !tbaa !46
  %69 = load <4 x float>, ptr %34, align 8
  %70 = shufflevector <4 x float> %69, <4 x float> poison, <2 x i32> <i32 0, i32 undef>
  %71 = load float, ptr %38, align 4, !tbaa !46
  %72 = insertelement <2 x float> %19, float %37, i64 0
  %73 = insertelement <2 x float> poison, float %71, i64 0
  %74 = insertelement <2 x float> %73, float %67, i64 1
  %75 = fmul <2 x float> %72, %74
  %76 = insertelement <2 x float> %49, float %35, i64 0
  %77 = insertelement <2 x float> %70, float %66, i64 1
  %78 = tail call <2 x float> @llvm.fmuladd.v2f32(<2 x float> %76, <2 x float> %77, <2 x float> %75)
  %79 = load <4 x float>, ptr %39, align 8
  %80 = shufflevector <4 x float> %79, <4 x float> poison, <2 x i32> <i32 0, i32 undef>
  %81 = load float, ptr %40, align 8, !tbaa !46
  %82 = insertelement <2 x float> %80, float %58, i64 1
  %83 = insertelement <2 x float> poison, float %81, i64 0
  %84 = insertelement <2 x float> %83, float %68, i64 1
  %85 = tail call <2 x float> @llvm.fmuladd.v2f32(<2 x float> %82, <2 x float> %84, <2 x float> %78)
  %86 = shufflevector <2 x float> %85, <2 x float> poison, <2 x i32> <i32 1, i32 undef>
  %87 = fsub <2 x float> %85, %86
  %88 = extractelement <2 x float> %87, i64 0
  %89 = getelementptr inbounds %struct.btSolverConstraint, ptr %3, i64 0, i32 8
  %90 = load float, ptr %89, align 4, !tbaa !47
  %91 = fneg float %65
  %92 = tail call float @llvm.fmuladd.f32(float %91, float %90, float %16)
  %93 = fneg float %88
  %94 = tail call float @llvm.fmuladd.f32(float %93, float %90, float %92)
  %95 = fadd float %12, %94
  %96 = getelementptr inbounds %struct.btSolverConstraint, ptr %3, i64 0, i32 16
  %97 = load float, ptr %96, align 8, !tbaa !48
  %98 = fcmp olt float %95, %97
  %99 = fsub float %97, %12
  %100 = select i1 %98, float %97, float %95
  %101 = select i1 %98, float %99, float %94
  store float %100, ptr %11, align 8, !tbaa !52
  %102 = getelementptr inbounds %struct.btSolverBody, ptr %1, i64 0, i32 5
  %103 = load ptr, ptr %102, align 8, !tbaa !53
  %104 = icmp eq ptr %103, null
  br i1 %104, label %136, label %105

105:                                              ; preds = %8
  %106 = getelementptr inbounds %struct.btSolverConstraint, ptr %3, i64 0, i32 3
  %107 = getelementptr inbounds %struct.btSolverBody, ptr %1, i64 0, i32 3, i32 0, i64 2
  %108 = load float, ptr %107, align 8, !tbaa !46
  %109 = fmul float %58, %108
  %110 = getelementptr inbounds %struct.btSolverBody, ptr %1, i64 0, i32 3
  %111 = fmul float %101, %109
  %112 = load <2 x float>, ptr %110, align 8, !tbaa !46
  %113 = fmul <2 x float> %19, %112
  %114 = insertelement <2 x float> poison, float %101, i64 0
  %115 = shufflevector <2 x float> %114, <2 x float> poison, <2 x i32> zeroinitializer
  %116 = fmul <2 x float> %115, %113
  %117 = load <2 x float>, ptr %18, align 8, !tbaa !46
  %118 = fadd <2 x float> %117, %116
  store <2 x float> %118, ptr %18, align 8, !tbaa !46
  %119 = load float, ptr %22, align 8, !tbaa !46
  %120 = fadd float %111, %119
  store float %120, ptr %22, align 8, !tbaa !46
  %121 = getelementptr inbounds %struct.btSolverBody, ptr %1, i64 0, i32 2
  %122 = getelementptr inbounds %struct.btSolverBody, ptr %1, i64 0, i32 2, i32 0, i64 2
  %123 = load float, ptr %122, align 8, !tbaa !46
  %124 = fmul float %101, %123
  %125 = getelementptr inbounds %struct.btSolverConstraint, ptr %3, i64 0, i32 3, i32 0, i64 2
  %126 = load float, ptr %125, align 8, !tbaa !46
  %127 = fmul float %124, %126
  %128 = load <2 x float>, ptr %121, align 8, !tbaa !46
  %129 = fmul <2 x float> %115, %128
  %130 = load <2 x float>, ptr %106, align 8, !tbaa !46
  %131 = fmul <2 x float> %129, %130
  %132 = load <2 x float>, ptr %23, align 8, !tbaa !46
  %133 = fadd <2 x float> %131, %132
  store <2 x float> %133, ptr %23, align 8, !tbaa !46
  %134 = load float, ptr %29, align 8, !tbaa !46
  %135 = fadd float %127, %134
  store float %135, ptr %29, align 8, !tbaa !46
  br label %136

136:                                              ; preds = %8, %105
  %137 = getelementptr inbounds %struct.btSolverBody, ptr %2, i64 0, i32 5
  %138 = load ptr, ptr %137, align 8, !tbaa !53
  %139 = icmp eq ptr %138, null
  br i1 %139, label %175, label %140

140:                                              ; preds = %136
  %141 = getelementptr inbounds %struct.btSolverConstraint, ptr %3, i64 0, i32 4
  %142 = load float, ptr %21, align 8, !tbaa !46
  %143 = fneg float %142
  %144 = getelementptr inbounds %struct.btSolverBody, ptr %2, i64 0, i32 3, i32 0, i64 2
  %145 = load float, ptr %144, align 8, !tbaa !46
  %146 = fmul float %145, %143
  %147 = getelementptr inbounds %struct.btSolverBody, ptr %2, i64 0, i32 3
  %148 = fmul float %101, %146
  %149 = load <2 x float>, ptr %17, align 8, !tbaa !46
  %150 = fneg <2 x float> %149
  %151 = load <2 x float>, ptr %147, align 8, !tbaa !46
  %152 = fmul <2 x float> %151, %150
  %153 = insertelement <2 x float> poison, float %101, i64 0
  %154 = shufflevector <2 x float> %153, <2 x float> poison, <2 x i32> zeroinitializer
  %155 = fmul <2 x float> %154, %152
  %156 = load <2 x float>, ptr %30, align 8, !tbaa !46
  %157 = fadd <2 x float> %156, %155
  store <2 x float> %157, ptr %30, align 8, !tbaa !46
  %158 = load float, ptr %32, align 8, !tbaa !46
  %159 = fadd float %148, %158
  store float %159, ptr %32, align 8, !tbaa !46
  %160 = getelementptr inbounds %struct.btSolverBody, ptr %2, i64 0, i32 2
  %161 = getelementptr inbounds %struct.btSolverBody, ptr %2, i64 0, i32 2, i32 0, i64 2
  %162 = load float, ptr %161, align 8, !tbaa !46
  %163 = fmul float %101, %162
  %164 = getelementptr inbounds %struct.btSolverConstraint, ptr %3, i64 0, i32 4, i32 0, i64 2
  %165 = load float, ptr %164, align 8, !tbaa !46
  %166 = fmul float %163, %165
  %167 = load <2 x float>, ptr %160, align 8, !tbaa !46
  %168 = fmul <2 x float> %154, %167
  %169 = load <2 x float>, ptr %141, align 8, !tbaa !46
  %170 = fmul <2 x float> %168, %169
  %171 = load <2 x float>, ptr %34, align 8, !tbaa !46
  %172 = fadd <2 x float> %170, %171
  store <2 x float> %172, ptr %34, align 8, !tbaa !46
  %173 = load float, ptr %40, align 8, !tbaa !46
  %174 = fadd float %166, %173
  store float %174, ptr %40, align 8, !tbaa !46
  br label %175

175:                                              ; preds = %140, %136, %4
  ret void
}

; Function Attrs: mustprogress nofree nosync nounwind willreturn memory(readwrite, inaccessiblemem: none) uwtable
define dso_local void @_ZN35btSequentialImpulseConstraintSolver27resolveSplitPenetrationSIMDER12btSolverBodyS1_RK18btSolverConstraint(ptr nocapture noundef nonnull readnone align 8 dereferenceable(240) %0, ptr nocapture noundef nonnull align 8 dereferenceable(112) %1, ptr nocapture noundef nonnull align 8 dereferenceable(112) %2, ptr nocapture noundef nonnull align 8 dereferenceable(140) %3) local_unnamed_addr #9 align 2 {
  tail call void @_ZN35btSequentialImpulseConstraintSolver43resolveSplitPenetrationImpulseCacheFriendlyER12btSolverBodyS1_RK18btSolverConstraint(ptr nonnull align 8 poison, ptr noundef nonnull align 8 dereferenceable(112) %1, ptr noundef nonnull align 8 dereferenceable(112) %2, ptr noundef nonnull align 8 dereferenceable(140) %3)
  ret void
}

; Function Attrs: mustprogress nofree norecurse nosync nounwind willreturn memory(argmem: readwrite) uwtable
define dso_local noundef i64 @_ZN35btSequentialImpulseConstraintSolver7btRand2Ev(ptr nocapture noundef nonnull align 8 dereferenceable(240) %0) local_unnamed_addr #10 align 2 {
  %2 = getelementptr inbounds %class.btSequentialImpulseConstraintSolver, ptr %0, i64 0, i32 8
  %3 = load i64, ptr %2, align 8, !tbaa !36
  %4 = mul i64 %3, 1664525
  %5 = add i64 %4, 1013904223
  %6 = and i64 %5, 4294967295
  store i64 %6, ptr %2, align 8, !tbaa !36
  ret i64 %6
}

; Function Attrs: mustprogress nofree norecurse nosync nounwind willreturn memory(argmem: readwrite) uwtable
define dso_local noundef i32 @_ZN35btSequentialImpulseConstraintSolver10btRandInt2Ei(ptr nocapture noundef nonnull align 8 dereferenceable(240) %0, i32 noundef %1) local_unnamed_addr #10 align 2 {
  %3 = getelementptr inbounds %class.btSequentialImpulseConstraintSolver, ptr %0, i64 0, i32 8
  %4 = load i64, ptr %3, align 8, !tbaa !36
  %5 = mul i64 %4, 1664525
  %6 = add i64 %5, 1013904223
  %7 = and i64 %6, 4294967295
  store i64 %7, ptr %3, align 8, !tbaa !36
  %8 = icmp ult i32 %1, 65537
  br i1 %8, label %9, label %28

9:                                                ; preds = %2
  %10 = lshr i64 %7, 16
  %11 = xor i64 %10, %7
  %12 = icmp ult i32 %1, 257
  br i1 %12, label %13, label %28

13:                                               ; preds = %9
  %14 = lshr i64 %11, 8
  %15 = xor i64 %14, %11
  %16 = icmp ult i32 %1, 17
  br i1 %16, label %17, label %28

17:                                               ; preds = %13
  %18 = lshr i64 %15, 4
  %19 = xor i64 %18, %15
  %20 = icmp ult i32 %1, 5
  br i1 %20, label %21, label %28

21:                                               ; preds = %17
  %22 = lshr i64 %19, 2
  %23 = xor i64 %22, %19
  %24 = icmp ult i32 %1, 3
  br i1 %24, label %25, label %28

25:                                               ; preds = %21
  %26 = lshr i64 %23, 1
  %27 = xor i64 %26, %23
  br label %28

28:                                               ; preds = %9, %17, %25, %21, %13, %2
  %29 = phi i64 [ %27, %25 ], [ %23, %21 ], [ %19, %17 ], [ %15, %13 ], [ %11, %9 ], [ %7, %2 ]
  %30 = sext i32 %1 to i64
  %31 = urem i64 %29, %30
  %32 = trunc i64 %31 to i32
  ret i32 %32
}

; Function Attrs: mustprogress nofree nosync nounwind willreturn memory(readwrite, inaccessiblemem: none) uwtable
define dso_local void @_ZN35btSequentialImpulseConstraintSolver14initSolverBodyEP12btSolverBodyP17btCollisionObject(ptr nocapture noundef nonnull readnone align 8 dereferenceable(240) %0, ptr nocapture noundef writeonly %1, ptr noundef %2) local_unnamed_addr #8 align 2 {
  %4 = icmp eq ptr %2, null
  br i1 %4, label %10, label %5

5:                                                ; preds = %3
  %6 = getelementptr inbounds %class.btCollisionObject, ptr %2, i64 0, i32 19
  %7 = load i32, ptr %6, align 8, !tbaa !55
  %8 = icmp eq i32 %7, 2
  %9 = select i1 %8, ptr %2, ptr null
  br label %10

10:                                               ; preds = %5, %3
  %11 = phi ptr [ null, %3 ], [ %9, %5 ]
  %12 = getelementptr inbounds %struct.btSolverBody, ptr %1, i64 0, i32 6
  %13 = icmp eq ptr %11, null
  tail call void @llvm.memset.p0.i64(ptr noundef nonnull align 4 dereferenceable(32) %1, i8 0, i64 32, i1 false)
  tail call void @llvm.memset.p0.i64(ptr noundef nonnull align 4 dereferenceable(32) %12, i8 0, i64 32, i1 false)
  br i1 %13, label %35, label %14

14:                                               ; preds = %10
  %15 = getelementptr inbounds %class.btRigidBody, ptr %11, i64 0, i32 4
  %16 = getelementptr inbounds %class.btRigidBody, ptr %11, i64 0, i32 6
  %17 = getelementptr inbounds %class.btRigidBody, ptr %11, i64 0, i32 6, i32 0, i64 1
  %18 = load float, ptr %15, align 8, !tbaa !59
  %19 = load float, ptr %16, align 4, !tbaa !46
  %20 = load float, ptr %17, align 4, !tbaa !46
  %21 = insertelement <2 x float> poison, float %19, i64 0
  %22 = insertelement <2 x float> %21, float %18, i64 1
  %23 = insertelement <2 x float> poison, float %18, i64 0
  %24 = insertelement <2 x float> %23, float %20, i64 1
  %25 = fmul <2 x float> %22, %24
  %26 = getelementptr inbounds %class.btRigidBody, ptr %11, i64 0, i32 6, i32 0, i64 2
  %27 = load float, ptr %26, align 4, !tbaa !46
  %28 = fmul float %18, %27
  %29 = insertelement <2 x float> <float poison, float 0.000000e+00>, float %28, i64 0
  %30 = getelementptr inbounds %struct.btSolverBody, ptr %1, i64 0, i32 3
  store <2 x float> %25, ptr %30, align 8, !tbaa.struct !63
  %31 = getelementptr inbounds %struct.btSolverBody, ptr %1, i64 0, i32 3, i32 0, i64 2
  store <2 x float> %29, ptr %31, align 8, !tbaa.struct !65
  %32 = getelementptr inbounds %struct.btSolverBody, ptr %1, i64 0, i32 5
  store ptr %11, ptr %32, align 8, !tbaa !53
  %33 = getelementptr inbounds %class.btRigidBody, ptr %11, i64 0, i32 5
  %34 = getelementptr inbounds %struct.btSolverBody, ptr %1, i64 0, i32 2
  tail call void @llvm.memcpy.p0.p0.i64(ptr noundef nonnull align 8 dereferenceable(16) %34, ptr noundef nonnull align 4 dereferenceable(16) %33, i64 16, i1 false), !tbaa.struct !63
  br label %39

35:                                               ; preds = %10
  %36 = getelementptr inbounds %struct.btSolverBody, ptr %1, i64 0, i32 3
  %37 = getelementptr inbounds %struct.btSolverBody, ptr %1, i64 0, i32 5
  store ptr null, ptr %37, align 8, !tbaa !53
  %38 = getelementptr inbounds %struct.btSolverBody, ptr %1, i64 0, i32 2
  tail call void @llvm.memset.p0.i64(ptr noundef nonnull align 4 dereferenceable(16) %36, i8 0, i64 16, i1 false)
  store <4 x float> <float 1.000000e+00, float 1.000000e+00, float 1.000000e+00, float 0.000000e+00>, ptr %38, align 4, !tbaa !46
  br label %39

39:                                               ; preds = %35, %14
  ret void
}

; Function Attrs: mustprogress nocallback nofree nounwind willreturn memory(argmem: readwrite)
declare void @llvm.memcpy.p0.p0.i64(ptr noalias nocapture writeonly, ptr noalias nocapture readonly, i64, i1 immarg) #11

; Function Attrs: mustprogress nofree norecurse nosync nounwind willreturn memory(none) uwtable
define dso_local noundef float @_ZN35btSequentialImpulseConstraintSolver16restitutionCurveEff(ptr nocapture noundef nonnull readnone align 8 dereferenceable(240) %0, float noundef %1, float noundef %2) local_unnamed_addr #12 align 2 {
  %4 = fneg float %1
  %5 = fmul float %4, %2
  ret float %5
}

; Function Attrs: mustprogress nofree nosync nounwind willreturn memory(argmem: readwrite) uwtable
define dso_local void @_Z24applyAnisotropicFrictionP17btCollisionObjectR9btVector3(ptr noundef readonly %0, ptr nocapture noundef nonnull align 4 dereferenceable(16) %1) local_unnamed_addr #5 {
  %3 = icmp eq ptr %0, null
  br i1 %3, label %69, label %4

4:                                                ; preds = %2
  %5 = getelementptr inbounds %class.btCollisionObject, ptr %0, i64 0, i32 6
  %6 = load i8, ptr %5, align 8, !tbaa !66, !range !67, !noundef !68
  %7 = icmp eq i8 %6, 0
  br i1 %7, label %69, label %8

8:                                                ; preds = %4
  %9 = getelementptr inbounds %class.btCollisionObject, ptr %0, i64 0, i32 1
  %10 = load float, ptr %1, align 4, !tbaa !46
  %11 = getelementptr inbounds %class.btCollisionObject, ptr %0, i64 0, i32 1, i32 0, i32 0, i64 1
  %12 = getelementptr inbounds [4 x float], ptr %1, i64 0, i64 1
  %13 = load float, ptr %12, align 4, !tbaa !46
  %14 = getelementptr inbounds %class.btCollisionObject, ptr %0, i64 0, i32 1, i32 0, i32 0, i64 2
  %15 = load float, ptr %14, align 4, !tbaa !46
  %16 = getelementptr inbounds [4 x float], ptr %1, i64 0, i64 2
  %17 = load float, ptr %16, align 4, !tbaa !46
  %18 = getelementptr inbounds %class.btCollisionObject, ptr %0, i64 0, i32 1, i32 0, i32 0, i64 0, i32 0, i64 1
  %19 = getelementptr inbounds %class.btCollisionObject, ptr %0, i64 0, i32 1, i32 0, i32 0, i64 1, i32 0, i64 1
  %20 = getelementptr inbounds %class.btCollisionObject, ptr %0, i64 0, i32 1, i32 0, i32 0, i64 2, i32 0, i64 1
  %21 = load float, ptr %20, align 4, !tbaa !46
  %22 = getelementptr inbounds %class.btCollisionObject, ptr %0, i64 0, i32 1, i32 0, i32 0, i64 0, i32 0, i64 2
  %23 = getelementptr inbounds %class.btCollisionObject, ptr %0, i64 0, i32 1, i32 0, i32 0, i64 1, i32 0, i64 2
  %24 = getelementptr inbounds %class.btCollisionObject, ptr %0, i64 0, i32 1, i32 0, i32 0, i64 2, i32 0, i64 2
  %25 = load float, ptr %24, align 4, !tbaa !46
  %26 = getelementptr inbounds %class.btCollisionObject, ptr %0, i64 0, i32 5
  %27 = load float, ptr %26, align 4, !tbaa !46
  %28 = getelementptr inbounds %class.btCollisionObject, ptr %0, i64 0, i32 5, i32 0, i64 1
  %29 = load float, ptr %28, align 4, !tbaa !46
  %30 = getelementptr inbounds %class.btCollisionObject, ptr %0, i64 0, i32 5, i32 0, i64 2
  %31 = load float, ptr %30, align 4, !tbaa !46
  %32 = load float, ptr %9, align 4, !tbaa !46
  %33 = load float, ptr %11, align 4, !tbaa !46
  %34 = fmul float %33, %13
  %35 = tail call float @llvm.fmuladd.f32(float %32, float %10, float %34)
  %36 = tail call float @llvm.fmuladd.f32(float %15, float %17, float %35)
  %37 = load float, ptr %18, align 4, !tbaa !46
  %38 = load float, ptr %19, align 4, !tbaa !46
  %39 = fmul float %13, %38
  %40 = tail call float @llvm.fmuladd.f32(float %37, float %10, float %39)
  %41 = tail call float @llvm.fmuladd.f32(float %21, float %17, float %40)
  %42 = load float, ptr %22, align 4, !tbaa !46
  %43 = load float, ptr %23, align 4, !tbaa !46
  %44 = fmul float %13, %43
  %45 = tail call float @llvm.fmuladd.f32(float %42, float %10, float %44)
  %46 = tail call float @llvm.fmuladd.f32(float %25, float %17, float %45)
  %47 = fmul float %36, %27
  %48 = fmul float %41, %29
  %49 = fmul float %46, %31
  %50 = insertelement <2 x float> poison, float %37, i64 0
  %51 = insertelement <2 x float> %50, float %38, i64 1
  %52 = insertelement <2 x float> poison, float %48, i64 0
  %53 = shufflevector <2 x float> %52, <2 x float> poison, <2 x i32> zeroinitializer
  %54 = fmul <2 x float> %51, %53
  %55 = insertelement <2 x float> poison, float %32, i64 0
  %56 = insertelement <2 x float> %55, float %33, i64 1
  %57 = insertelement <2 x float> poison, float %47, i64 0
  %58 = shufflevector <2 x float> %57, <2 x float> poison, <2 x i32> zeroinitializer
  %59 = tail call <2 x float> @llvm.fmuladd.v2f32(<2 x float> %56, <2 x float> %58, <2 x float> %54)
  %60 = insertelement <2 x float> poison, float %42, i64 0
  %61 = insertelement <2 x float> %60, float %43, i64 1
  %62 = insertelement <2 x float> poison, float %49, i64 0
  %63 = shufflevector <2 x float> %62, <2 x float> poison, <2 x i32> zeroinitializer
  %64 = tail call <2 x float> @llvm.fmuladd.v2f32(<2 x float> %61, <2 x float> %63, <2 x float> %59)
  %65 = fmul float %21, %48
  %66 = tail call float @llvm.fmuladd.f32(float %15, float %47, float %65)
  %67 = tail call float @llvm.fmuladd.f32(float %25, float %49, float %66)
  %68 = insertelement <2 x float> <float poison, float 0.000000e+00>, float %67, i64 0
  store <2 x float> %64, ptr %1, align 4, !tbaa.struct !63
  store <2 x float> %68, ptr %16, align 4, !tbaa.struct !65
  br label %69

69:                                               ; preds = %8, %4, %2
  ret void
}

; Function Attrs: uwtable
define dso_local noundef nonnull align 8 dereferenceable(140) ptr @_ZN35btSequentialImpulseConstraintSolver21addFrictionConstraintERK9btVector3iiiR15btManifoldPointS2_S2_P17btCollisionObjectS6_f(ptr nocapture noundef nonnull align 8 dereferenceable(240) %0, ptr nocapture noundef nonnull readonly align 4 dereferenceable(16) %1, i32 noundef %2, i32 noundef %3, i32 noundef %4, ptr nocapture noundef nonnull readonly align 8 dereferenceable(172) %5, ptr nocapture noundef nonnull readonly align 4 dereferenceable(16) %6, ptr nocapture noundef nonnull readonly align 4 dereferenceable(16) %7, ptr noundef readonly %8, ptr noundef readonly %9, float noundef %10) local_unnamed_addr #13 align 2 {
  %12 = getelementptr inbounds %class.btCollisionObject, ptr %8, i64 0, i32 19
  %13 = load i32, ptr %12, align 8, !tbaa !55
  %14 = icmp eq i32 %13, 2
  %15 = select i1 %14, ptr %8, ptr null
  %16 = getelementptr inbounds %class.btCollisionObject, ptr %9, i64 0, i32 19
  %17 = load i32, ptr %16, align 8, !tbaa !55
  %18 = icmp eq i32 %17, 2
  %19 = select i1 %18, ptr %9, ptr null
  %20 = getelementptr inbounds %class.btSequentialImpulseConstraintSolver, ptr %0, i64 0, i32 4, i32 2
  %21 = load i32, ptr %20, align 4, !tbaa !22
  %22 = getelementptr inbounds %class.btSequentialImpulseConstraintSolver, ptr %0, i64 0, i32 4, i32 3
  %23 = load i32, ptr %22, align 8, !tbaa !23
  %24 = icmp eq i32 %21, %23
  br i1 %24, label %25, label %79

25:                                               ; preds = %11
  %26 = icmp eq i32 %21, 0
  %27 = shl nsw i32 %21, 1
  %28 = select i1 %26, i32 1, i32 %27
  %29 = icmp slt i32 %21, %28
  br i1 %29, label %30, label %79

30:                                               ; preds = %25
  %31 = icmp eq i32 %28, 0
  br i1 %31, label %37, label %32

32:                                               ; preds = %30
  %33 = sext i32 %28 to i64
  %34 = mul nsw i64 %33, 144
  %35 = tail call noundef ptr @_Z22btAlignedAllocInternalmi(i64 noundef %34, i32 noundef 16)
  %36 = load i32, ptr %20, align 4, !tbaa !22
  br label %37

37:                                               ; preds = %32, %30
  %38 = phi i32 [ %36, %32 ], [ %21, %30 ]
  %39 = phi ptr [ %35, %32 ], [ null, %30 ]
  %40 = icmp sgt i32 %38, 0
  br i1 %40, label %41, label %68

41:                                               ; preds = %37
  %42 = getelementptr inbounds %class.btSequentialImpulseConstraintSolver, ptr %0, i64 0, i32 4, i32 5
  %43 = zext i32 %38 to i64
  %44 = and i64 %43, 1
  %45 = icmp eq i32 %38, 1
  br i1 %45, label %61, label %46

46:                                               ; preds = %41
  %47 = and i64 %43, 4294967294
  br label %48

48:                                               ; preds = %48, %46
  %49 = phi i64 [ 0, %46 ], [ %58, %48 ]
  %50 = phi i64 [ 0, %46 ], [ %59, %48 ]
  %51 = getelementptr inbounds %struct.btSolverConstraint, ptr %39, i64 %49
  %52 = load ptr, ptr %42, align 8, !tbaa !21
  %53 = getelementptr inbounds %struct.btSolverConstraint, ptr %52, i64 %49
  tail call void @llvm.memcpy.p0.p0.i64(ptr noundef nonnull align 8 dereferenceable(144) %51, ptr noundef nonnull align 8 dereferenceable(144) %53, i64 144, i1 false), !tbaa.struct !69
  %54 = or i64 %49, 1
  %55 = getelementptr inbounds %struct.btSolverConstraint, ptr %39, i64 %54
  %56 = load ptr, ptr %42, align 8, !tbaa !21
  %57 = getelementptr inbounds %struct.btSolverConstraint, ptr %56, i64 %54
  tail call void @llvm.memcpy.p0.p0.i64(ptr noundef nonnull align 8 dereferenceable(144) %55, ptr noundef nonnull align 8 dereferenceable(144) %57, i64 144, i1 false), !tbaa.struct !69
  %58 = add nuw nsw i64 %49, 2
  %59 = add i64 %50, 2
  %60 = icmp eq i64 %59, %47
  br i1 %60, label %61, label %48

61:                                               ; preds = %48, %41
  %62 = phi i64 [ 0, %41 ], [ %58, %48 ]
  %63 = icmp eq i64 %44, 0
  br i1 %63, label %68, label %64

64:                                               ; preds = %61
  %65 = getelementptr inbounds %struct.btSolverConstraint, ptr %39, i64 %62
  %66 = load ptr, ptr %42, align 8, !tbaa !21
  %67 = getelementptr inbounds %struct.btSolverConstraint, ptr %66, i64 %62
  tail call void @llvm.memcpy.p0.p0.i64(ptr noundef nonnull align 8 dereferenceable(144) %65, ptr noundef nonnull align 8 dereferenceable(144) %67, i64 144, i1 false), !tbaa.struct !69
  br label %68

68:                                               ; preds = %64, %61, %37
  %69 = getelementptr inbounds %class.btSequentialImpulseConstraintSolver, ptr %0, i64 0, i32 4, i32 5
  %70 = load ptr, ptr %69, align 8, !tbaa !21
  %71 = icmp eq ptr %70, null
  %72 = getelementptr inbounds %class.btSequentialImpulseConstraintSolver, ptr %0, i64 0, i32 4, i32 6
  %73 = load i8, ptr %72, align 8
  %74 = icmp eq i8 %73, 0
  %75 = select i1 %71, i1 true, i1 %74
  br i1 %75, label %77, label %76

76:                                               ; preds = %68
  tail call void @_Z21btAlignedFreeInternalPv(ptr noundef nonnull %70)
  br label %77

77:                                               ; preds = %76, %68
  store i8 1, ptr %72, align 8, !tbaa !18
  store ptr %39, ptr %69, align 8, !tbaa !21
  store i32 %28, ptr %22, align 8, !tbaa !23
  %78 = load i32, ptr %20, align 4, !tbaa !22
  br label %79

79:                                               ; preds = %11, %25, %77
  %80 = phi i32 [ %78, %77 ], [ %21, %25 ], [ %21, %11 ]
  %81 = add nsw i32 %80, 1
  store i32 %81, ptr %20, align 4, !tbaa !22
  %82 = getelementptr inbounds %class.btSequentialImpulseConstraintSolver, ptr %0, i64 0, i32 4, i32 5
  %83 = load ptr, ptr %82, align 8, !tbaa !21
  %84 = sext i32 %21 to i64
  %85 = getelementptr inbounds %struct.btSolverConstraint, ptr %83, i64 %84
  tail call void @llvm.memset.p0.i64(ptr noundef nonnull align 8 dereferenceable(144) %85, i8 0, i64 144, i1 false)
  %86 = load ptr, ptr %82, align 8, !tbaa !21
  %87 = getelementptr inbounds %struct.btSolverConstraint, ptr %86, i64 %84
  tail call void @llvm.memset.p0.i64(ptr noundef nonnull align 8 dereferenceable(144) %87, i8 -1, i64 144, i1 false)
  %88 = getelementptr inbounds %struct.btSolverConstraint, ptr %86, i64 %84, i32 1
  tail call void @llvm.memcpy.p0.p0.i64(ptr noundef nonnull align 8 dereferenceable(16) %88, ptr noundef nonnull align 4 dereferenceable(16) %1, i64 16, i1 false), !tbaa.struct !63
  %89 = getelementptr inbounds %struct.btSolverConstraint, ptr %86, i64 %84, i32 11
  store i32 %2, ptr %89, align 8, !tbaa !64
  %90 = getelementptr inbounds %struct.btSolverConstraint, ptr %86, i64 %84, i32 12
  store i32 %3, ptr %90, align 4, !tbaa !64
  %91 = getelementptr inbounds %struct.btSolverConstraint, ptr %86, i64 %84, i32 10
  store i32 %4, ptr %91, align 4, !tbaa !64
  %92 = getelementptr inbounds %class.btManifoldPoint, ptr %5, i64 0, i32 6
  %93 = load float, ptr %92, align 4, !tbaa !71
  %94 = getelementptr inbounds %struct.btSolverConstraint, ptr %86, i64 %84, i32 7
  store float %93, ptr %94, align 8, !tbaa !73
  %95 = getelementptr inbounds %struct.btSolverConstraint, ptr %86, i64 %84, i32 13
  store ptr null, ptr %95, align 8, !tbaa !64
  %96 = getelementptr inbounds %struct.btSolverConstraint, ptr %86, i64 %84, i32 5
  store <2 x float> zeroinitializer, ptr %96, align 8, !tbaa !46
  %97 = getelementptr inbounds [4 x float], ptr %6, i64 0, i64 1
  %98 = getelementptr inbounds [4 x float], ptr %6, i64 0, i64 2
  %99 = getelementptr inbounds [4 x float], ptr %88, i64 0, i64 1
  %100 = load <2 x float>, ptr %99, align 4, !tbaa !46
  %101 = load float, ptr %88, align 4, !tbaa !46
  %102 = load float, ptr %6, align 4, !tbaa !46
  %103 = load <2 x float>, ptr %97, align 4, !tbaa !46
  %104 = insertelement <2 x float> %103, float %102, i64 0
  %105 = shufflevector <2 x float> %104, <2 x float> poison, <2 x i32> <i32 1, i32 0>
  %106 = fneg <2 x float> %105
  %107 = fmul <2 x float> %100, %106
  %108 = shufflevector <2 x float> %100, <2 x float> poison, <2 x i32> <i32 1, i32 undef>
  %109 = insertelement <2 x float> %108, float %101, i64 1
  %110 = tail call <2 x float> @llvm.fmuladd.v2f32(<2 x float> %103, <2 x float> %109, <2 x float> %107)
  %111 = extractelement <2 x float> %103, i64 0
  %112 = fneg float %111
  %113 = fmul float %101, %112
  %114 = extractelement <2 x float> %100, i64 0
  %115 = tail call float @llvm.fmuladd.f32(float %102, float %114, float %113)
  %116 = insertelement <2 x float> <float poison, float 0.000000e+00>, float %115, i64 0
  store <2 x float> %110, ptr %87, align 8, !tbaa.struct !63
  %117 = getelementptr inbounds i8, ptr %87, i64 8
  store <2 x float> %116, ptr %117, align 8, !tbaa.struct !65
  %118 = icmp eq ptr %15, null
  br i1 %118, label %163, label %119

119:                                              ; preds = %79
  %120 = getelementptr inbounds %class.btRigidBody, ptr %15, i64 0, i32 1
  %121 = getelementptr inbounds %class.btRigidBody, ptr %15, i64 0, i32 1, i32 0, i64 0, i32 0, i64 1
  %122 = getelementptr inbounds %class.btRigidBody, ptr %15, i64 0, i32 1, i32 0, i64 0, i32 0, i64 2
  %123 = getelementptr inbounds %class.btRigidBody, ptr %15, i64 0, i32 1, i32 0, i64 1
  %124 = getelementptr inbounds %class.btRigidBody, ptr %15, i64 0, i32 1, i32 0, i64 1, i32 0, i64 1
  %125 = getelementptr inbounds %class.btRigidBody, ptr %15, i64 0, i32 1, i32 0, i64 1, i32 0, i64 2
  %126 = getelementptr inbounds %class.btRigidBody, ptr %15, i64 0, i32 1, i32 0, i64 2
  %127 = load float, ptr %126, align 4, !tbaa !46
  %128 = getelementptr inbounds %class.btRigidBody, ptr %15, i64 0, i32 1, i32 0, i64 2, i32 0, i64 1
  %129 = load float, ptr %128, align 4, !tbaa !46
  %130 = extractelement <2 x float> %110, i64 1
  %131 = fmul float %130, %129
  %132 = extractelement <2 x float> %110, i64 0
  %133 = tail call float @llvm.fmuladd.f32(float %127, float %132, float %131)
  %134 = getelementptr inbounds %class.btRigidBody, ptr %15, i64 0, i32 1, i32 0, i64 2, i32 0, i64 2
  %135 = load float, ptr %134, align 4, !tbaa !46
  %136 = tail call float @llvm.fmuladd.f32(float %135, float %115, float %133)
  %137 = getelementptr inbounds %class.btRigidBody, ptr %15, i64 0, i32 5
  %138 = load float, ptr %120, align 4, !tbaa !46
  %139 = load float, ptr %121, align 4, !tbaa !46
  %140 = load float, ptr %122, align 4, !tbaa !46
  %141 = load float, ptr %123, align 4, !tbaa !46
  %142 = load float, ptr %124, align 4, !tbaa !46
  %143 = shufflevector <2 x float> %110, <2 x float> poison, <2 x i32> <i32 1, i32 1>
  %144 = insertelement <2 x float> poison, float %139, i64 0
  %145 = insertelement <2 x float> %144, float %142, i64 1
  %146 = fmul <2 x float> %143, %145
  %147 = insertelement <2 x float> poison, float %138, i64 0
  %148 = insertelement <2 x float> %147, float %141, i64 1
  %149 = shufflevector <2 x float> %110, <2 x float> poison, <2 x i32> zeroinitializer
  %150 = tail call <2 x float> @llvm.fmuladd.v2f32(<2 x float> %148, <2 x float> %149, <2 x float> %146)
  %151 = load float, ptr %125, align 4, !tbaa !46
  %152 = insertelement <2 x float> poison, float %140, i64 0
  %153 = insertelement <2 x float> %152, float %151, i64 1
  %154 = insertelement <2 x float> poison, float %115, i64 0
  %155 = shufflevector <2 x float> %154, <2 x float> poison, <2 x i32> zeroinitializer
  %156 = tail call <2 x float> @llvm.fmuladd.v2f32(<2 x float> %153, <2 x float> %155, <2 x float> %150)
  %157 = load <2 x float>, ptr %137, align 4, !tbaa !46
  %158 = fmul <2 x float> %156, %157
  %159 = getelementptr inbounds %class.btRigidBody, ptr %15, i64 0, i32 5, i32 0, i64 2
  %160 = load float, ptr %159, align 4, !tbaa !46
  %161 = fmul float %136, %160
  %162 = insertelement <2 x float> <float poison, float 0.000000e+00>, float %161, i64 0
  br label %163

163:                                              ; preds = %79, %119
  %164 = phi <2 x float> [ %158, %119 ], [ zeroinitializer, %79 ]
  %165 = phi <2 x float> [ %162, %119 ], [ zeroinitializer, %79 ]
  %166 = getelementptr inbounds %struct.btSolverConstraint, ptr %86, i64 %84, i32 3
  store <2 x float> %164, ptr %166, align 8, !tbaa.struct !63
  %167 = getelementptr inbounds i8, ptr %166, i64 8
  store <2 x float> %165, ptr %167, align 8, !tbaa.struct !65
  %168 = insertelement <2 x float> %100, float %101, i64 0
  %169 = shufflevector <2 x float> %168, <2 x float> poison, <2 x i32> <i32 1, i32 0>
  %170 = fneg <2 x float> %169
  %171 = fneg float %114
  %172 = getelementptr inbounds [4 x float], ptr %7, i64 0, i64 1
  %173 = getelementptr inbounds [4 x float], ptr %7, i64 0, i64 2
  %174 = load float, ptr %7, align 4, !tbaa !46
  %175 = load <2 x float>, ptr %172, align 4, !tbaa !46
  %176 = shufflevector <2 x float> %175, <2 x float> poison, <2 x i32> <i32 1, i32 undef>
  %177 = insertelement <2 x float> %176, float %174, i64 1
  %178 = fmul <2 x float> %100, %177
  %179 = tail call <2 x float> @llvm.fmuladd.v2f32(<2 x float> %175, <2 x float> %170, <2 x float> %178)
  %180 = extractelement <2 x float> %175, i64 0
  %181 = fmul float %101, %180
  %182 = tail call float @llvm.fmuladd.f32(float %174, float %171, float %181)
  %183 = insertelement <2 x float> <float poison, float 0.000000e+00>, float %182, i64 0
  %184 = getelementptr inbounds %struct.btSolverConstraint, ptr %86, i64 %84, i32 2
  store <2 x float> %179, ptr %184, align 8, !tbaa.struct !63
  %185 = getelementptr inbounds i8, ptr %184, i64 8
  store <2 x float> %183, ptr %185, align 8, !tbaa.struct !65
  %186 = icmp eq ptr %19, null
  %187 = extractelement <2 x float> %164, i64 1
  %188 = extractelement <2 x float> %165, i64 0
  %189 = extractelement <2 x float> %164, i64 0
  br i1 %186, label %234, label %190

190:                                              ; preds = %163
  %191 = getelementptr inbounds %class.btRigidBody, ptr %19, i64 0, i32 1
  %192 = getelementptr inbounds %class.btRigidBody, ptr %19, i64 0, i32 1, i32 0, i64 0, i32 0, i64 1
  %193 = getelementptr inbounds %class.btRigidBody, ptr %19, i64 0, i32 1, i32 0, i64 0, i32 0, i64 2
  %194 = getelementptr inbounds %class.btRigidBody, ptr %19, i64 0, i32 1, i32 0, i64 1
  %195 = getelementptr inbounds %class.btRigidBody, ptr %19, i64 0, i32 1, i32 0, i64 1, i32 0, i64 1
  %196 = getelementptr inbounds %class.btRigidBody, ptr %19, i64 0, i32 1, i32 0, i64 1, i32 0, i64 2
  %197 = getelementptr inbounds %class.btRigidBody, ptr %19, i64 0, i32 1, i32 0, i64 2
  %198 = load float, ptr %197, align 4, !tbaa !46
  %199 = getelementptr inbounds %class.btRigidBody, ptr %19, i64 0, i32 1, i32 0, i64 2, i32 0, i64 1
  %200 = load float, ptr %199, align 4, !tbaa !46
  %201 = extractelement <2 x float> %179, i64 1
  %202 = fmul float %201, %200
  %203 = extractelement <2 x float> %179, i64 0
  %204 = tail call float @llvm.fmuladd.f32(float %198, float %203, float %202)
  %205 = getelementptr inbounds %class.btRigidBody, ptr %19, i64 0, i32 1, i32 0, i64 2, i32 0, i64 2
  %206 = load float, ptr %205, align 4, !tbaa !46
  %207 = tail call float @llvm.fmuladd.f32(float %206, float %182, float %204)
  %208 = getelementptr inbounds %class.btRigidBody, ptr %19, i64 0, i32 5
  %209 = load float, ptr %191, align 4, !tbaa !46
  %210 = load float, ptr %192, align 4, !tbaa !46
  %211 = load float, ptr %193, align 4, !tbaa !46
  %212 = load float, ptr %194, align 4, !tbaa !46
  %213 = load float, ptr %195, align 4, !tbaa !46
  %214 = shufflevector <2 x float> %179, <2 x float> poison, <2 x i32> <i32 1, i32 1>
  %215 = insertelement <2 x float> poison, float %210, i64 0
  %216 = insertelement <2 x float> %215, float %213, i64 1
  %217 = fmul <2 x float> %214, %216
  %218 = insertelement <2 x float> poison, float %209, i64 0
  %219 = insertelement <2 x float> %218, float %212, i64 1
  %220 = shufflevector <2 x float> %179, <2 x float> poison, <2 x i32> zeroinitializer
  %221 = tail call <2 x float> @llvm.fmuladd.v2f32(<2 x float> %219, <2 x float> %220, <2 x float> %217)
  %222 = load float, ptr %196, align 4, !tbaa !46
  %223 = insertelement <2 x float> poison, float %211, i64 0
  %224 = insertelement <2 x float> %223, float %222, i64 1
  %225 = insertelement <2 x float> poison, float %182, i64 0
  %226 = shufflevector <2 x float> %225, <2 x float> poison, <2 x i32> zeroinitializer
  %227 = tail call <2 x float> @llvm.fmuladd.v2f32(<2 x float> %224, <2 x float> %226, <2 x float> %221)
  %228 = load <2 x float>, ptr %208, align 4, !tbaa !46
  %229 = fmul <2 x float> %227, %228
  %230 = getelementptr inbounds %class.btRigidBody, ptr %19, i64 0, i32 5, i32 0, i64 2
  %231 = load float, ptr %230, align 4, !tbaa !46
  %232 = fmul float %207, %231
  %233 = insertelement <2 x float> <float poison, float 0.000000e+00>, float %232, i64 0
  br label %234

234:                                              ; preds = %163, %190
  %235 = phi <2 x float> [ %229, %190 ], [ zeroinitializer, %163 ]
  %236 = phi <2 x float> [ %233, %190 ], [ zeroinitializer, %163 ]
  %237 = getelementptr inbounds %struct.btSolverConstraint, ptr %86, i64 %84, i32 4
  store <2 x float> %235, ptr %237, align 8, !tbaa.struct !63
  %238 = getelementptr inbounds i8, ptr %237, i64 8
  store <2 x float> %236, ptr %238, align 8, !tbaa.struct !65
  %239 = extractelement <2 x float> %235, i64 0
  %240 = extractelement <2 x float> %235, i64 1
  %241 = extractelement <2 x float> %236, i64 0
  br i1 %118, label %266, label %242

242:                                              ; preds = %234
  %243 = load float, ptr %98, align 4, !tbaa !46
  %244 = load float, ptr %97, align 4, !tbaa !46
  %245 = fneg float %188
  %246 = fmul float %244, %245
  %247 = tail call float @llvm.fmuladd.f32(float %187, float %243, float %246)
  %248 = load float, ptr %6, align 4, !tbaa !46
  %249 = fneg float %189
  %250 = fmul float %243, %249
  %251 = tail call float @llvm.fmuladd.f32(float %188, float %248, float %250)
  %252 = fneg float %187
  %253 = fmul float %248, %252
  %254 = tail call float @llvm.fmuladd.f32(float %189, float %244, float %253)
  %255 = getelementptr inbounds %class.btRigidBody, ptr %15, i64 0, i32 4
  %256 = load float, ptr %255, align 8, !tbaa !59
  %257 = load float, ptr %1, align 4, !tbaa !46
  %258 = getelementptr inbounds [4 x float], ptr %1, i64 0, i64 1
  %259 = load float, ptr %258, align 4, !tbaa !46
  %260 = fmul float %251, %259
  %261 = tail call float @llvm.fmuladd.f32(float %257, float %247, float %260)
  %262 = getelementptr inbounds [4 x float], ptr %1, i64 0, i64 2
  %263 = load float, ptr %262, align 4, !tbaa !46
  %264 = tail call float @llvm.fmuladd.f32(float %263, float %254, float %261)
  %265 = fadd float %256, %264
  br label %266

266:                                              ; preds = %242, %234
  %267 = phi float [ %265, %242 ], [ 0.000000e+00, %234 ]
  br i1 %186, label %292, label %268

268:                                              ; preds = %266
  %269 = fneg float %239
  %270 = fneg float %240
  %271 = fneg float %241
  %272 = load float, ptr %173, align 4, !tbaa !46
  %273 = load float, ptr %172, align 4, !tbaa !46
  %274 = fmul float %241, %273
  %275 = tail call float @llvm.fmuladd.f32(float %270, float %272, float %274)
  %276 = load float, ptr %7, align 4, !tbaa !46
  %277 = fmul float %272, %239
  %278 = tail call float @llvm.fmuladd.f32(float %271, float %276, float %277)
  %279 = fmul float %240, %276
  %280 = tail call float @llvm.fmuladd.f32(float %269, float %273, float %279)
  %281 = getelementptr inbounds %class.btRigidBody, ptr %19, i64 0, i32 4
  %282 = load float, ptr %281, align 8, !tbaa !59
  %283 = load float, ptr %1, align 4, !tbaa !46
  %284 = getelementptr inbounds [4 x float], ptr %1, i64 0, i64 1
  %285 = load float, ptr %284, align 4, !tbaa !46
  %286 = fmul float %278, %285
  %287 = tail call float @llvm.fmuladd.f32(float %283, float %275, float %286)
  %288 = getelementptr inbounds [4 x float], ptr %1, i64 0, i64 2
  %289 = load float, ptr %288, align 4, !tbaa !46
  %290 = tail call float @llvm.fmuladd.f32(float %289, float %280, float %287)
  %291 = fadd float %282, %290
  br label %292

292:                                              ; preds = %268, %266
  %293 = phi float [ %291, %268 ], [ 0.000000e+00, %266 ]
  %294 = fadd float %267, %293
  %295 = fdiv float %10, %294
  %296 = getelementptr inbounds %struct.btSolverConstraint, ptr %86, i64 %84, i32 8
  store float %295, ptr %296, align 4, !tbaa !47
  br i1 %118, label %314, label %297

297:                                              ; preds = %292
  %298 = getelementptr inbounds %class.btRigidBody, ptr %15, i64 0, i32 2
  %299 = load float, ptr %298, align 4, !tbaa.struct !63
  %300 = getelementptr inbounds %class.btRigidBody, ptr %15, i64 0, i32 2, i32 0, i64 1
  %301 = load float, ptr %300, align 4, !tbaa.struct !74
  %302 = getelementptr inbounds %class.btRigidBody, ptr %15, i64 0, i32 2, i32 0, i64 2
  %303 = load float, ptr %302, align 4, !tbaa.struct !65
  %304 = fmul float %114, %301
  %305 = tail call float @llvm.fmuladd.f32(float %101, float %299, float %304)
  %306 = extractelement <2 x float> %100, i64 1
  %307 = tail call float @llvm.fmuladd.f32(float %306, float %303, float %305)
  %308 = getelementptr inbounds %class.btRigidBody, ptr %15, i64 0, i32 3
  %309 = load float, ptr %308, align 4, !tbaa.struct !63
  %310 = getelementptr inbounds %class.btRigidBody, ptr %15, i64 0, i32 3, i32 0, i64 1
  %311 = load float, ptr %310, align 4, !tbaa.struct !74
  %312 = getelementptr inbounds %class.btRigidBody, ptr %15, i64 0, i32 3, i32 0, i64 2
  %313 = load float, ptr %312, align 4, !tbaa.struct !65
  br label %319

314:                                              ; preds = %292
  %315 = fmul float %114, 0.000000e+00
  %316 = tail call float @llvm.fmuladd.f32(float %101, float 0.000000e+00, float %315)
  %317 = extractelement <2 x float> %100, i64 1
  %318 = tail call float @llvm.fmuladd.f32(float %317, float 0.000000e+00, float %316)
  br label %319

319:                                              ; preds = %314, %297
  %320 = phi float [ %318, %314 ], [ %307, %297 ]
  %321 = phi float [ 0.000000e+00, %314 ], [ %313, %297 ]
  %322 = phi float [ 0.000000e+00, %314 ], [ %311, %297 ]
  %323 = phi float [ 0.000000e+00, %314 ], [ %309, %297 ]
  br i1 %186, label %341, label %324

324:                                              ; preds = %319
  %325 = getelementptr inbounds %class.btRigidBody, ptr %19, i64 0, i32 2
  %326 = load float, ptr %325, align 4, !tbaa.struct !63
  %327 = getelementptr inbounds %class.btRigidBody, ptr %19, i64 0, i32 2, i32 0, i64 1
  %328 = load float, ptr %327, align 4, !tbaa.struct !74
  %329 = getelementptr inbounds %class.btRigidBody, ptr %19, i64 0, i32 2, i32 0, i64 2
  %330 = load float, ptr %329, align 4, !tbaa.struct !65
  %331 = fmul float %114, %328
  %332 = tail call float @llvm.fmuladd.f32(float %101, float %326, float %331)
  %333 = extractelement <2 x float> %100, i64 1
  %334 = tail call float @llvm.fmuladd.f32(float %333, float %330, float %332)
  %335 = getelementptr inbounds %class.btRigidBody, ptr %19, i64 0, i32 3
  %336 = load float, ptr %335, align 4, !tbaa.struct !63
  %337 = getelementptr inbounds %class.btRigidBody, ptr %19, i64 0, i32 3, i32 0, i64 1
  %338 = load float, ptr %337, align 4, !tbaa.struct !74
  %339 = getelementptr inbounds %class.btRigidBody, ptr %19, i64 0, i32 3, i32 0, i64 2
  %340 = load float, ptr %339, align 4, !tbaa.struct !65
  br label %346

341:                                              ; preds = %319
  %342 = fmul float %114, 0.000000e+00
  %343 = tail call float @llvm.fmuladd.f32(float %101, float 0.000000e+00, float %342)
  %344 = extractelement <2 x float> %100, i64 1
  %345 = tail call float @llvm.fmuladd.f32(float %344, float 0.000000e+00, float %343)
  br label %346

346:                                              ; preds = %341, %324
  %347 = phi float [ %345, %341 ], [ %334, %324 ]
  %348 = phi float [ 0.000000e+00, %341 ], [ %340, %324 ]
  %349 = phi float [ 0.000000e+00, %341 ], [ %338, %324 ]
  %350 = phi float [ 0.000000e+00, %341 ], [ %336, %324 ]
  %351 = extractelement <2 x float> %110, i64 1
  %352 = fmul float %322, %351
  %353 = extractelement <2 x float> %110, i64 0
  %354 = tail call float @llvm.fmuladd.f32(float %353, float %323, float %352)
  %355 = tail call float @llvm.fmuladd.f32(float %115, float %321, float %354)
  %356 = fadd float %320, %355
  %357 = extractelement <2 x float> %179, i64 1
  %358 = fmul float %349, %357
  %359 = extractelement <2 x float> %179, i64 0
  %360 = tail call float @llvm.fmuladd.f32(float %359, float %350, float %358)
  %361 = tail call float @llvm.fmuladd.f32(float %182, float %348, float %360)
  %362 = fsub float %361, %347
  %363 = fadd float %356, %362
  %364 = fneg float %363
  %365 = fmul float %295, %364
  %366 = getelementptr inbounds %struct.btSolverConstraint, ptr %86, i64 %84, i32 14
  store float %365, ptr %366, align 8, !tbaa !40
  %367 = getelementptr inbounds %struct.btSolverConstraint, ptr %86, i64 %84, i32 15
  store <2 x float> zeroinitializer, ptr %367, align 4, !tbaa !46
  %368 = getelementptr inbounds %struct.btSolverConstraint, ptr %86, i64 %84, i32 17
  store float 1.000000e+10, ptr %368, align 4, !tbaa !49
  ret ptr %87
}

; Function Attrs: mustprogress nocallback nofree nounwind willreturn memory(argmem: write)
declare void @llvm.memset.p0.i64(ptr nocapture writeonly, i8, i64, i1 immarg) #14

; Function Attrs: uwtable
define dso_local noundef i32 @_ZN35btSequentialImpulseConstraintSolver19getOrInitSolverBodyER17btCollisionObject(ptr nocapture noundef nonnull align 8 dereferenceable(240) %0, ptr noundef nonnull align 8 dereferenceable(280) %1) local_unnamed_addr #13 align 2 {
  %3 = getelementptr inbounds %class.btCollisionObject, ptr %1, i64 0, i32 13
  %4 = load i32, ptr %3, align 8, !tbaa !75
  %5 = icmp sgt i32 %4, -1
  br i1 %5, label %111, label %6

6:                                                ; preds = %2
  %7 = getelementptr inbounds %class.btCollisionObject, ptr %1, i64 0, i32 19
  %8 = load i32, ptr %7, align 8, !tbaa !55
  %9 = icmp eq i32 %8, 2
  br i1 %9, label %10, label %111

10:                                               ; preds = %6
  %11 = getelementptr inbounds %class.btRigidBody, ptr %1, i64 0, i32 4
  %12 = load float, ptr %11, align 8, !tbaa !59
  %13 = fcmp une float %12, 0.000000e+00
  br i1 %13, label %14, label %111

14:                                               ; preds = %10
  %15 = getelementptr inbounds %class.btSequentialImpulseConstraintSolver, ptr %0, i64 0, i32 1, i32 2
  %16 = load i32, ptr %15, align 4, !tbaa !16
  %17 = getelementptr inbounds %class.btSequentialImpulseConstraintSolver, ptr %0, i64 0, i32 1, i32 3
  %18 = load i32, ptr %17, align 8, !tbaa !17
  %19 = icmp eq i32 %16, %18
  br i1 %19, label %20, label %74

20:                                               ; preds = %14
  %21 = icmp eq i32 %16, 0
  %22 = shl nsw i32 %16, 1
  %23 = select i1 %21, i32 1, i32 %22
  %24 = icmp slt i32 %16, %23
  br i1 %24, label %25, label %74

25:                                               ; preds = %20
  %26 = icmp eq i32 %23, 0
  br i1 %26, label %32, label %27

27:                                               ; preds = %25
  %28 = sext i32 %23 to i64
  %29 = mul nsw i64 %28, 112
  %30 = tail call noundef ptr @_Z22btAlignedAllocInternalmi(i64 noundef %29, i32 noundef 16)
  %31 = load i32, ptr %15, align 4, !tbaa !16
  br label %32

32:                                               ; preds = %27, %25
  %33 = phi i32 [ %31, %27 ], [ %16, %25 ]
  %34 = phi ptr [ %30, %27 ], [ null, %25 ]
  %35 = icmp sgt i32 %33, 0
  br i1 %35, label %36, label %63

36:                                               ; preds = %32
  %37 = getelementptr inbounds %class.btSequentialImpulseConstraintSolver, ptr %0, i64 0, i32 1, i32 5
  %38 = zext i32 %33 to i64
  %39 = and i64 %38, 1
  %40 = icmp eq i32 %33, 1
  br i1 %40, label %56, label %41

41:                                               ; preds = %36
  %42 = and i64 %38, 4294967294
  br label %43

43:                                               ; preds = %43, %41
  %44 = phi i64 [ 0, %41 ], [ %53, %43 ]
  %45 = phi i64 [ 0, %41 ], [ %54, %43 ]
  %46 = getelementptr inbounds %struct.btSolverBody, ptr %34, i64 %44
  %47 = load ptr, ptr %37, align 8, !tbaa !15
  %48 = getelementptr inbounds %struct.btSolverBody, ptr %47, i64 %44
  tail call void @llvm.memcpy.p0.p0.i64(ptr noundef nonnull align 8 dereferenceable(112) %46, ptr noundef nonnull align 8 dereferenceable(112) %48, i64 112, i1 false), !tbaa.struct !76
  %49 = or i64 %44, 1
  %50 = getelementptr inbounds %struct.btSolverBody, ptr %34, i64 %49
  %51 = load ptr, ptr %37, align 8, !tbaa !15
  %52 = getelementptr inbounds %struct.btSolverBody, ptr %51, i64 %49
  tail call void @llvm.memcpy.p0.p0.i64(ptr noundef nonnull align 8 dereferenceable(112) %50, ptr noundef nonnull align 8 dereferenceable(112) %52, i64 112, i1 false), !tbaa.struct !76
  %53 = add nuw nsw i64 %44, 2
  %54 = add i64 %45, 2
  %55 = icmp eq i64 %54, %42
  br i1 %55, label %56, label %43

56:                                               ; preds = %43, %36
  %57 = phi i64 [ 0, %36 ], [ %53, %43 ]
  %58 = icmp eq i64 %39, 0
  br i1 %58, label %63, label %59

59:                                               ; preds = %56
  %60 = getelementptr inbounds %struct.btSolverBody, ptr %34, i64 %57
  %61 = load ptr, ptr %37, align 8, !tbaa !15
  %62 = getelementptr inbounds %struct.btSolverBody, ptr %61, i64 %57
  tail call void @llvm.memcpy.p0.p0.i64(ptr noundef nonnull align 8 dereferenceable(112) %60, ptr noundef nonnull align 8 dereferenceable(112) %62, i64 112, i1 false), !tbaa.struct !76
  br label %63

63:                                               ; preds = %59, %56, %32
  %64 = getelementptr inbounds %class.btSequentialImpulseConstraintSolver, ptr %0, i64 0, i32 1, i32 5
  %65 = load ptr, ptr %64, align 8, !tbaa !15
  %66 = icmp eq ptr %65, null
  %67 = getelementptr inbounds %class.btSequentialImpulseConstraintSolver, ptr %0, i64 0, i32 1, i32 6
  %68 = load i8, ptr %67, align 8
  %69 = icmp eq i8 %68, 0
  %70 = select i1 %66, i1 true, i1 %69
  br i1 %70, label %72, label %71

71:                                               ; preds = %63
  tail call void @_Z21btAlignedFreeInternalPv(ptr noundef nonnull %65)
  br label %72

72:                                               ; preds = %71, %63
  store i8 1, ptr %67, align 8, !tbaa !8
  store ptr %34, ptr %64, align 8, !tbaa !15
  store i32 %23, ptr %17, align 8, !tbaa !17
  %73 = load i32, ptr %15, align 4, !tbaa !16
  br label %74

74:                                               ; preds = %14, %20, %72
  %75 = phi i32 [ %73, %72 ], [ %16, %20 ], [ %16, %14 ]
  %76 = add nsw i32 %75, 1
  store i32 %76, ptr %15, align 4, !tbaa !16
  %77 = getelementptr inbounds %class.btSequentialImpulseConstraintSolver, ptr %0, i64 0, i32 1, i32 5
  %78 = load ptr, ptr %77, align 8, !tbaa !15
  %79 = sext i32 %16 to i64
  %80 = getelementptr inbounds %struct.btSolverBody, ptr %78, i64 %79
  tail call void @llvm.memset.p0.i64(ptr noundef nonnull align 8 dereferenceable(112) %80, i8 0, i64 112, i1 false)
  %81 = load ptr, ptr %77, align 8, !tbaa !15
  %82 = getelementptr inbounds %struct.btSolverBody, ptr %81, i64 %79
  %83 = load i32, ptr %7, align 8, !tbaa !55
  %84 = icmp eq i32 %83, 2
  %85 = getelementptr inbounds %struct.btSolverBody, ptr %81, i64 %79, i32 6
  tail call void @llvm.memset.p0.i64(ptr noundef nonnull align 4 dereferenceable(32) %82, i8 0, i64 32, i1 false)
  tail call void @llvm.memset.p0.i64(ptr noundef nonnull align 4 dereferenceable(32) %85, i8 0, i64 32, i1 false)
  br i1 %84, label %86, label %106

86:                                               ; preds = %74
  %87 = getelementptr inbounds %class.btRigidBody, ptr %1, i64 0, i32 6
  %88 = getelementptr inbounds %class.btRigidBody, ptr %1, i64 0, i32 6, i32 0, i64 1
  %89 = load float, ptr %11, align 8, !tbaa !59
  %90 = load float, ptr %87, align 4, !tbaa !46
  %91 = load float, ptr %88, align 8, !tbaa !46
  %92 = insertelement <2 x float> poison, float %90, i64 0
  %93 = insertelement <2 x float> %92, float %89, i64 1
  %94 = insertelement <2 x float> poison, float %89, i64 0
  %95 = insertelement <2 x float> %94, float %91, i64 1
  %96 = fmul <2 x float> %93, %95
  %97 = getelementptr inbounds %class.btRigidBody, ptr %1, i64 0, i32 6, i32 0, i64 2
  %98 = load float, ptr %97, align 4, !tbaa !46
  %99 = fmul float %89, %98
  %100 = insertelement <2 x float> <float poison, float 0.000000e+00>, float %99, i64 0
  %101 = getelementptr inbounds %struct.btSolverBody, ptr %81, i64 %79, i32 3
  store <2 x float> %96, ptr %101, align 8, !tbaa.struct !63
  %102 = getelementptr inbounds %struct.btSolverBody, ptr %81, i64 %79, i32 3, i32 0, i64 2
  store <2 x float> %100, ptr %102, align 8, !tbaa.struct !65
  %103 = getelementptr inbounds %struct.btSolverBody, ptr %81, i64 %79, i32 5
  store ptr %1, ptr %103, align 8, !tbaa !53
  %104 = getelementptr inbounds %class.btRigidBody, ptr %1, i64 0, i32 5
  %105 = getelementptr inbounds %struct.btSolverBody, ptr %81, i64 %79, i32 2
  tail call void @llvm.memcpy.p0.p0.i64(ptr noundef nonnull align 8 dereferenceable(16) %105, ptr noundef nonnull align 4 dereferenceable(16) %104, i64 16, i1 false), !tbaa.struct !63
  br label %110

106:                                              ; preds = %74
  %107 = getelementptr inbounds %struct.btSolverBody, ptr %81, i64 %79, i32 3
  %108 = getelementptr inbounds %struct.btSolverBody, ptr %81, i64 %79, i32 5
  store ptr null, ptr %108, align 8, !tbaa !53
  %109 = getelementptr inbounds %struct.btSolverBody, ptr %81, i64 %79, i32 2
  tail call void @llvm.memset.p0.i64(ptr noundef nonnull align 4 dereferenceable(16) %107, i8 0, i64 16, i1 false)
  store <4 x float> <float 1.000000e+00, float 1.000000e+00, float 1.000000e+00, float 0.000000e+00>, ptr %109, align 4, !tbaa !46
  br label %110

110:                                              ; preds = %106, %86
  store i32 %16, ptr %3, align 8, !tbaa !75
  br label %111

111:                                              ; preds = %6, %10, %2, %110
  %112 = phi i32 [ %16, %110 ], [ %4, %2 ], [ 0, %10 ], [ 0, %6 ]
  ret i32 %112
}

; Function Attrs: uwtable
define dso_local void @_ZN35btSequentialImpulseConstraintSolver14convertContactEP20btPersistentManifoldRK19btContactSolverInfo(ptr nocapture noundef nonnull align 8 dereferenceable(240) %0, ptr noundef %1, ptr nocapture noundef nonnull readonly align 4 dereferenceable(68) %2) local_unnamed_addr #13 align 2 {
  %4 = alloca %class.btVector3, align 8
  %5 = alloca %class.btVector3, align 8
  %6 = getelementptr inbounds %class.btPersistentManifold, ptr %1, i64 0, i32 3
  %7 = load ptr, ptr %6, align 8, !tbaa !77
  %8 = getelementptr inbounds %class.btPersistentManifold, ptr %1, i64 0, i32 4
  %9 = load ptr, ptr %8, align 8, !tbaa !80
  %10 = getelementptr inbounds %class.btPersistentManifold, ptr %1, i64 0, i32 5
  %11 = load i32, ptr %10, align 8, !tbaa !81
  %12 = icmp eq i32 %11, 0
  br i1 %12, label %16, label %13

13:                                               ; preds = %3
  %14 = tail call noundef i32 @_ZN35btSequentialImpulseConstraintSolver19getOrInitSolverBodyER17btCollisionObject(ptr noundef nonnull align 8 dereferenceable(240) %0, ptr noundef nonnull align 8 dereferenceable(280) %7)
  %15 = tail call noundef i32 @_ZN35btSequentialImpulseConstraintSolver19getOrInitSolverBodyER17btCollisionObject(ptr noundef nonnull align 8 dereferenceable(240) %0, ptr noundef nonnull align 8 dereferenceable(280) %9)
  br label %16

16:                                               ; preds = %13, %3
  %17 = phi i32 [ %15, %13 ], [ -1, %3 ]
  %18 = phi i32 [ %14, %13 ], [ -1, %3 ]
  %19 = or i32 %18, %17
  %20 = icmp eq i32 %19, 0
  br i1 %20, label %1479, label %21

21:                                               ; preds = %16
  call void @llvm.lifetime.start.p0(i64 16, ptr nonnull %4) #19
  call void @llvm.lifetime.start.p0(i64 16, ptr nonnull %5) #19
  %22 = load i32, ptr %10, align 8, !tbaa !81
  %23 = icmp sgt i32 %22, 0
  br i1 %23, label %24, label %78

24:                                               ; preds = %21
  %25 = getelementptr inbounds %class.btPersistentManifold, ptr %1, i64 0, i32 7
  %26 = getelementptr inbounds %class.btCollisionObject, ptr %7, i64 0, i32 1
  %27 = getelementptr inbounds %class.btCollisionObject, ptr %7, i64 0, i32 1, i32 1
  %28 = getelementptr inbounds %class.btCollisionObject, ptr %7, i64 0, i32 1, i32 1, i32 0, i64 1
  %29 = getelementptr inbounds %class.btCollisionObject, ptr %7, i64 0, i32 1, i32 1, i32 0, i64 2
  %30 = getelementptr inbounds i8, ptr %4, i64 8
  %31 = getelementptr inbounds %class.btCollisionObject, ptr %9, i64 0, i32 1
  %32 = getelementptr inbounds %class.btCollisionObject, ptr %9, i64 0, i32 1, i32 1
  %33 = getelementptr inbounds %class.btCollisionObject, ptr %9, i64 0, i32 1, i32 1, i32 0, i64 1
  %34 = getelementptr inbounds %class.btCollisionObject, ptr %9, i64 0, i32 1, i32 1, i32 0, i64 2
  %35 = getelementptr inbounds i8, ptr %5, i64 8
  %36 = getelementptr inbounds %class.btSequentialImpulseConstraintSolver, ptr %0, i64 0, i32 2, i32 2
  %37 = getelementptr inbounds %class.btSequentialImpulseConstraintSolver, ptr %0, i64 0, i32 2, i32 3
  %38 = getelementptr inbounds %class.btSequentialImpulseConstraintSolver, ptr %0, i64 0, i32 2, i32 5
  %39 = getelementptr inbounds %class.btSequentialImpulseConstraintSolver, ptr %0, i64 0, i32 2, i32 6
  %40 = getelementptr inbounds %class.btCollisionObject, ptr %7, i64 0, i32 19
  %41 = getelementptr inbounds %class.btCollisionObject, ptr %9, i64 0, i32 19
  %42 = getelementptr inbounds %struct.btContactSolverInfoData, ptr %2, i64 0, i32 13
  %43 = getelementptr inbounds %struct.btContactSolverInfoData, ptr %2, i64 0, i32 16
  %44 = getelementptr inbounds %struct.btContactSolverInfoData, ptr %2, i64 0, i32 15
  %45 = getelementptr inbounds %struct.btContactSolverInfoData, ptr %2, i64 0, i32 14
  %46 = getelementptr inbounds %class.btSequentialImpulseConstraintSolver, ptr %0, i64 0, i32 1, i32 5
  %47 = sext i32 %18 to i64
  %48 = getelementptr inbounds %struct.btContactSolverInfoData, ptr %2, i64 0, i32 8
  %49 = getelementptr inbounds %struct.btContactSolverInfoData, ptr %2, i64 0, i32 3
  %50 = getelementptr inbounds %struct.btContactSolverInfoData, ptr %2, i64 0, i32 11
  %51 = getelementptr inbounds %struct.btContactSolverInfoData, ptr %2, i64 0, i32 12
  %52 = getelementptr inbounds %class.btSequentialImpulseConstraintSolver, ptr %0, i64 0, i32 4, i32 2
  %53 = getelementptr inbounds %class.btCollisionObject, ptr %7, i64 0, i32 6
  %54 = getelementptr inbounds %class.btCollisionObject, ptr %7, i64 0, i32 1, i32 0, i32 0, i64 1
  %55 = getelementptr inbounds %class.btCollisionObject, ptr %7, i64 0, i32 1, i32 0, i32 0, i64 2
  %56 = getelementptr inbounds %class.btCollisionObject, ptr %7, i64 0, i32 1, i32 0, i32 0, i64 0, i32 0, i64 1
  %57 = getelementptr inbounds %class.btCollisionObject, ptr %7, i64 0, i32 1, i32 0, i32 0, i64 1, i32 0, i64 1
  %58 = getelementptr inbounds %class.btCollisionObject, ptr %7, i64 0, i32 1, i32 0, i32 0, i64 2, i32 0, i64 1
  %59 = getelementptr inbounds %class.btCollisionObject, ptr %7, i64 0, i32 1, i32 0, i32 0, i64 0, i32 0, i64 2
  %60 = getelementptr inbounds %class.btCollisionObject, ptr %7, i64 0, i32 1, i32 0, i32 0, i64 1, i32 0, i64 2
  %61 = getelementptr inbounds %class.btCollisionObject, ptr %7, i64 0, i32 1, i32 0, i32 0, i64 2, i32 0, i64 2
  %62 = getelementptr inbounds %class.btCollisionObject, ptr %7, i64 0, i32 5
  %63 = getelementptr inbounds %class.btCollisionObject, ptr %7, i64 0, i32 5, i32 0, i64 1
  %64 = getelementptr inbounds %class.btCollisionObject, ptr %7, i64 0, i32 5, i32 0, i64 2
  %65 = getelementptr inbounds %class.btCollisionObject, ptr %9, i64 0, i32 6
  %66 = getelementptr inbounds %class.btCollisionObject, ptr %9, i64 0, i32 1, i32 0, i32 0, i64 1
  %67 = getelementptr inbounds %class.btCollisionObject, ptr %9, i64 0, i32 1, i32 0, i32 0, i64 2
  %68 = getelementptr inbounds %class.btCollisionObject, ptr %9, i64 0, i32 1, i32 0, i32 0, i64 0, i32 0, i64 1
  %69 = getelementptr inbounds %class.btCollisionObject, ptr %9, i64 0, i32 1, i32 0, i32 0, i64 1, i32 0, i64 1
  %70 = getelementptr inbounds %class.btCollisionObject, ptr %9, i64 0, i32 1, i32 0, i32 0, i64 2, i32 0, i64 1
  %71 = getelementptr inbounds %class.btCollisionObject, ptr %9, i64 0, i32 1, i32 0, i32 0, i64 0, i32 0, i64 2
  %72 = getelementptr inbounds %class.btCollisionObject, ptr %9, i64 0, i32 1, i32 0, i32 0, i64 1, i32 0, i64 2
  %73 = getelementptr inbounds %class.btCollisionObject, ptr %9, i64 0, i32 1, i32 0, i32 0, i64 2, i32 0, i64 2
  %74 = getelementptr inbounds %class.btCollisionObject, ptr %9, i64 0, i32 5
  %75 = getelementptr inbounds %class.btCollisionObject, ptr %9, i64 0, i32 5, i32 0, i64 1
  %76 = getelementptr inbounds %class.btCollisionObject, ptr %9, i64 0, i32 5, i32 0, i64 2
  %77 = getelementptr inbounds %class.btSequentialImpulseConstraintSolver, ptr %0, i64 0, i32 4, i32 5
  br label %79

78:                                               ; preds = %1474, %21
  call void @llvm.lifetime.end.p0(i64 16, ptr nonnull %5) #19
  call void @llvm.lifetime.end.p0(i64 16, ptr nonnull %4) #19
  br label %1479

79:                                               ; preds = %24, %1474
  %80 = phi i64 [ 0, %24 ], [ %1475, %1474 ]
  %81 = getelementptr inbounds %class.btPersistentManifold, ptr %1, i64 0, i32 2, i64 %80
  %82 = getelementptr inbounds %class.btPersistentManifold, ptr %1, i64 0, i32 2, i64 %80, i32 5
  %83 = load float, ptr %82, align 8, !tbaa !82
  %84 = load float, ptr %25, align 8, !tbaa !83
  %85 = fcmp ugt float %83, %84
  br i1 %85, label %1474, label %86

86:                                               ; preds = %79
  %87 = getelementptr inbounds %class.btPersistentManifold, ptr %1, i64 0, i32 2, i64 %80, i32 3
  %88 = getelementptr inbounds %class.btPersistentManifold, ptr %1, i64 0, i32 2, i64 %80, i32 2
  %89 = getelementptr inbounds [4 x float], ptr %87, i64 0, i64 1
  %90 = load float, ptr %89, align 4, !tbaa !46
  %91 = load float, ptr %28, align 4, !tbaa !46
  %92 = fsub float %90, %91
  %93 = getelementptr inbounds [4 x float], ptr %87, i64 0, i64 2
  %94 = load float, ptr %87, align 4, !tbaa !46
  %95 = load float, ptr %27, align 4, !tbaa !46
  %96 = load float, ptr %93, align 4, !tbaa !46
  %97 = load float, ptr %29, align 4, !tbaa !46
  %98 = insertelement <2 x float> poison, float %96, i64 0
  %99 = insertelement <2 x float> %98, float %94, i64 1
  %100 = insertelement <2 x float> poison, float %97, i64 0
  %101 = insertelement <2 x float> %100, float %95, i64 1
  %102 = fsub <2 x float> %99, %101
  %103 = shufflevector <2 x float> %102, <2 x float> poison, <2 x i32> <i32 1, i32 0>
  %104 = insertelement <2 x float> %103, float %92, i64 1
  %105 = insertelement <2 x float> %102, float 0.000000e+00, i64 1
  store <2 x float> %104, ptr %4, align 8, !tbaa.struct !63
  store <2 x float> %105, ptr %30, align 8, !tbaa.struct !65
  %106 = getelementptr inbounds [4 x float], ptr %88, i64 0, i64 1
  %107 = load float, ptr %106, align 4, !tbaa !46
  %108 = load float, ptr %33, align 4, !tbaa !46
  %109 = fsub float %107, %108
  %110 = getelementptr inbounds [4 x float], ptr %88, i64 0, i64 2
  %111 = load float, ptr %88, align 4, !tbaa !46
  %112 = load float, ptr %32, align 4, !tbaa !46
  %113 = load float, ptr %110, align 4, !tbaa !46
  %114 = load float, ptr %34, align 4, !tbaa !46
  %115 = insertelement <2 x float> poison, float %113, i64 0
  %116 = insertelement <2 x float> %115, float %111, i64 1
  %117 = insertelement <2 x float> poison, float %114, i64 0
  %118 = insertelement <2 x float> %117, float %112, i64 1
  %119 = fsub <2 x float> %116, %118
  %120 = shufflevector <2 x float> %119, <2 x float> poison, <2 x i32> <i32 1, i32 undef>
  %121 = insertelement <2 x float> %120, float %109, i64 1
  %122 = insertelement <2 x float> %119, float 0.000000e+00, i64 1
  store <2 x float> %121, ptr %5, align 8, !tbaa.struct !63
  store <2 x float> %122, ptr %35, align 8, !tbaa.struct !65
  %123 = load i32, ptr %36, align 4, !tbaa !22
  %124 = load i32, ptr %37, align 8, !tbaa !23
  %125 = icmp eq i32 %123, %124
  br i1 %125, label %126, label %177

126:                                              ; preds = %86
  %127 = icmp eq i32 %123, 0
  %128 = shl nsw i32 %123, 1
  %129 = select i1 %127, i32 1, i32 %128
  %130 = icmp slt i32 %123, %129
  br i1 %130, label %131, label %177

131:                                              ; preds = %126
  %132 = icmp eq i32 %129, 0
  br i1 %132, label %138, label %133

133:                                              ; preds = %131
  %134 = sext i32 %129 to i64
  %135 = mul nsw i64 %134, 144
  %136 = tail call noundef ptr @_Z22btAlignedAllocInternalmi(i64 noundef %135, i32 noundef 16)
  %137 = load i32, ptr %36, align 4, !tbaa !22
  br label %138

138:                                              ; preds = %133, %131
  %139 = phi i32 [ %137, %133 ], [ %123, %131 ]
  %140 = phi ptr [ %136, %133 ], [ null, %131 ]
  %141 = icmp sgt i32 %139, 0
  br i1 %141, label %142, label %168

142:                                              ; preds = %138
  %143 = zext i32 %139 to i64
  %144 = and i64 %143, 1
  %145 = icmp eq i32 %139, 1
  br i1 %145, label %161, label %146

146:                                              ; preds = %142
  %147 = and i64 %143, 4294967294
  br label %148

148:                                              ; preds = %148, %146
  %149 = phi i64 [ 0, %146 ], [ %158, %148 ]
  %150 = phi i64 [ 0, %146 ], [ %159, %148 ]
  %151 = getelementptr inbounds %struct.btSolverConstraint, ptr %140, i64 %149
  %152 = load ptr, ptr %38, align 8, !tbaa !21
  %153 = getelementptr inbounds %struct.btSolverConstraint, ptr %152, i64 %149
  tail call void @llvm.memcpy.p0.p0.i64(ptr noundef nonnull align 8 dereferenceable(144) %151, ptr noundef nonnull align 8 dereferenceable(144) %153, i64 144, i1 false), !tbaa.struct !69
  %154 = or i64 %149, 1
  %155 = getelementptr inbounds %struct.btSolverConstraint, ptr %140, i64 %154
  %156 = load ptr, ptr %38, align 8, !tbaa !21
  %157 = getelementptr inbounds %struct.btSolverConstraint, ptr %156, i64 %154
  tail call void @llvm.memcpy.p0.p0.i64(ptr noundef nonnull align 8 dereferenceable(144) %155, ptr noundef nonnull align 8 dereferenceable(144) %157, i64 144, i1 false), !tbaa.struct !69
  %158 = add nuw nsw i64 %149, 2
  %159 = add i64 %150, 2
  %160 = icmp eq i64 %159, %147
  br i1 %160, label %161, label %148

161:                                              ; preds = %148, %142
  %162 = phi i64 [ 0, %142 ], [ %158, %148 ]
  %163 = icmp eq i64 %144, 0
  br i1 %163, label %168, label %164

164:                                              ; preds = %161
  %165 = getelementptr inbounds %struct.btSolverConstraint, ptr %140, i64 %162
  %166 = load ptr, ptr %38, align 8, !tbaa !21
  %167 = getelementptr inbounds %struct.btSolverConstraint, ptr %166, i64 %162
  tail call void @llvm.memcpy.p0.p0.i64(ptr noundef nonnull align 8 dereferenceable(144) %165, ptr noundef nonnull align 8 dereferenceable(144) %167, i64 144, i1 false), !tbaa.struct !69
  br label %168

168:                                              ; preds = %164, %161, %138
  %169 = load ptr, ptr %38, align 8, !tbaa !21
  %170 = icmp eq ptr %169, null
  %171 = load i8, ptr %39, align 8
  %172 = icmp eq i8 %171, 0
  %173 = select i1 %170, i1 true, i1 %172
  br i1 %173, label %175, label %174

174:                                              ; preds = %168
  tail call void @_Z21btAlignedFreeInternalPv(ptr noundef nonnull %169)
  br label %175

175:                                              ; preds = %174, %168
  store i8 1, ptr %39, align 8, !tbaa !18
  store ptr %140, ptr %38, align 8, !tbaa !21
  store i32 %129, ptr %37, align 8, !tbaa !23
  %176 = load i32, ptr %36, align 4, !tbaa !22
  br label %177

177:                                              ; preds = %86, %126, %175
  %178 = phi i32 [ %176, %175 ], [ %123, %126 ], [ %123, %86 ]
  %179 = add nsw i32 %178, 1
  store i32 %179, ptr %36, align 4, !tbaa !22
  %180 = load ptr, ptr %38, align 8, !tbaa !21
  %181 = sext i32 %123 to i64
  %182 = getelementptr inbounds %struct.btSolverConstraint, ptr %180, i64 %181
  tail call void @llvm.memset.p0.i64(ptr noundef nonnull align 8 dereferenceable(144) %182, i8 0, i64 144, i1 false)
  %183 = load ptr, ptr %38, align 8, !tbaa !21
  %184 = getelementptr inbounds %struct.btSolverConstraint, ptr %183, i64 %181
  %185 = load i32, ptr %40, align 8, !tbaa !55
  %186 = icmp eq i32 %185, 2
  %187 = select i1 %186, ptr %7, ptr null
  %188 = load i32, ptr %41, align 8, !tbaa !55
  %189 = icmp eq i32 %188, 2
  %190 = select i1 %189, ptr %9, ptr null
  %191 = getelementptr inbounds %struct.btSolverConstraint, ptr %183, i64 %181, i32 11
  store i32 %18, ptr %191, align 8, !tbaa !64
  %192 = getelementptr inbounds %struct.btSolverConstraint, ptr %183, i64 %181, i32 12
  store i32 %17, ptr %192, align 4, !tbaa !64
  %193 = getelementptr inbounds %struct.btSolverConstraint, ptr %183, i64 %181, i32 13
  store ptr %81, ptr %193, align 8, !tbaa !64
  %194 = getelementptr inbounds %class.btPersistentManifold, ptr %1, i64 0, i32 2, i64 %80, i32 4
  %195 = getelementptr inbounds [4 x float], ptr %194, i64 0, i64 2
  %196 = getelementptr inbounds [4 x float], ptr %194, i64 0, i64 1
  %197 = fneg <2 x float> %102
  %198 = fneg float %92
  %199 = icmp eq ptr %187, null
  br i1 %199, label %257, label %200

200:                                              ; preds = %177
  %201 = load float, ptr %196, align 4, !tbaa !46
  %202 = load float, ptr %194, align 4, !tbaa !46
  %203 = fmul float %202, %198
  %204 = extractelement <2 x float> %102, i64 1
  %205 = tail call float @llvm.fmuladd.f32(float %204, float %201, float %203)
  %206 = load float, ptr %195, align 4, !tbaa !46
  %207 = extractelement <2 x float> %197, i64 1
  %208 = fmul float %206, %207
  %209 = extractelement <2 x float> %102, i64 0
  %210 = tail call float @llvm.fmuladd.f32(float %209, float %202, float %208)
  %211 = extractelement <2 x float> %197, i64 0
  %212 = fmul float %201, %211
  %213 = tail call float @llvm.fmuladd.f32(float %92, float %206, float %212)
  %214 = getelementptr inbounds %class.btRigidBody, ptr %187, i64 0, i32 1
  %215 = getelementptr inbounds %class.btRigidBody, ptr %187, i64 0, i32 1, i32 0, i64 0, i32 0, i64 1
  %216 = getelementptr inbounds %class.btRigidBody, ptr %187, i64 0, i32 1, i32 0, i64 0, i32 0, i64 2
  %217 = getelementptr inbounds %class.btRigidBody, ptr %187, i64 0, i32 1, i32 0, i64 1
  %218 = getelementptr inbounds %class.btRigidBody, ptr %187, i64 0, i32 1, i32 0, i64 1, i32 0, i64 1
  %219 = getelementptr inbounds %class.btRigidBody, ptr %187, i64 0, i32 1, i32 0, i64 1, i32 0, i64 2
  %220 = getelementptr inbounds %class.btRigidBody, ptr %187, i64 0, i32 1, i32 0, i64 2
  %221 = load float, ptr %220, align 4, !tbaa !46
  %222 = getelementptr inbounds %class.btRigidBody, ptr %187, i64 0, i32 1, i32 0, i64 2, i32 0, i64 1
  %223 = load float, ptr %222, align 4, !tbaa !46
  %224 = fmul float %210, %223
  %225 = tail call float @llvm.fmuladd.f32(float %221, float %213, float %224)
  %226 = getelementptr inbounds %class.btRigidBody, ptr %187, i64 0, i32 1, i32 0, i64 2, i32 0, i64 2
  %227 = load float, ptr %226, align 4, !tbaa !46
  %228 = tail call float @llvm.fmuladd.f32(float %227, float %205, float %225)
  %229 = getelementptr inbounds %class.btRigidBody, ptr %187, i64 0, i32 5
  %230 = load float, ptr %214, align 4, !tbaa !46
  %231 = load float, ptr %215, align 4, !tbaa !46
  %232 = load float, ptr %216, align 4, !tbaa !46
  %233 = load float, ptr %217, align 4, !tbaa !46
  %234 = load float, ptr %218, align 4, !tbaa !46
  %235 = insertelement <2 x float> poison, float %231, i64 0
  %236 = insertelement <2 x float> %235, float %234, i64 1
  %237 = insertelement <2 x float> poison, float %210, i64 0
  %238 = shufflevector <2 x float> %237, <2 x float> poison, <2 x i32> zeroinitializer
  %239 = fmul <2 x float> %236, %238
  %240 = insertelement <2 x float> poison, float %230, i64 0
  %241 = insertelement <2 x float> %240, float %233, i64 1
  %242 = insertelement <2 x float> poison, float %213, i64 0
  %243 = shufflevector <2 x float> %242, <2 x float> poison, <2 x i32> zeroinitializer
  %244 = tail call <2 x float> @llvm.fmuladd.v2f32(<2 x float> %241, <2 x float> %243, <2 x float> %239)
  %245 = load float, ptr %219, align 4, !tbaa !46
  %246 = insertelement <2 x float> poison, float %232, i64 0
  %247 = insertelement <2 x float> %246, float %245, i64 1
  %248 = insertelement <2 x float> poison, float %205, i64 0
  %249 = shufflevector <2 x float> %248, <2 x float> poison, <2 x i32> zeroinitializer
  %250 = tail call <2 x float> @llvm.fmuladd.v2f32(<2 x float> %247, <2 x float> %249, <2 x float> %244)
  %251 = load <2 x float>, ptr %229, align 4, !tbaa !46
  %252 = fmul <2 x float> %250, %251
  %253 = getelementptr inbounds %class.btRigidBody, ptr %187, i64 0, i32 5, i32 0, i64 2
  %254 = load float, ptr %253, align 4, !tbaa !46
  %255 = fmul float %228, %254
  %256 = insertelement <2 x float> <float poison, float 0.000000e+00>, float %255, i64 0
  br label %257

257:                                              ; preds = %177, %200
  %258 = phi <2 x float> [ %252, %200 ], [ zeroinitializer, %177 ]
  %259 = phi <2 x float> [ %256, %200 ], [ zeroinitializer, %177 ]
  %260 = getelementptr inbounds %struct.btSolverConstraint, ptr %183, i64 %181, i32 3
  store <2 x float> %258, ptr %260, align 8, !tbaa.struct !63
  %261 = getelementptr inbounds i8, ptr %260, i64 8
  store <2 x float> %259, ptr %261, align 8, !tbaa.struct !65
  %262 = icmp eq ptr %190, null
  %263 = extractelement <2 x float> %258, i64 1
  %264 = extractelement <2 x float> %259, i64 0
  %265 = extractelement <2 x float> %258, i64 0
  br i1 %262, label %327, label %266

266:                                              ; preds = %257
  %267 = fneg float %109
  %268 = extractelement <2 x float> %119, i64 1
  %269 = fneg float %268
  %270 = extractelement <2 x float> %119, i64 0
  %271 = fneg float %270
  %272 = load float, ptr %196, align 4, !tbaa !46
  %273 = load float, ptr %194, align 4, !tbaa !46
  %274 = fmul float %273, %267
  %275 = tail call float @llvm.fmuladd.f32(float %268, float %272, float %274)
  %276 = load float, ptr %195, align 4, !tbaa !46
  %277 = fmul float %276, %269
  %278 = tail call float @llvm.fmuladd.f32(float %270, float %273, float %277)
  %279 = fmul float %272, %271
  %280 = tail call float @llvm.fmuladd.f32(float %109, float %276, float %279)
  %281 = getelementptr inbounds %class.btRigidBody, ptr %190, i64 0, i32 1
  %282 = fneg float %280
  %283 = fneg float %278
  %284 = fneg float %275
  %285 = getelementptr inbounds %class.btRigidBody, ptr %190, i64 0, i32 1, i32 0, i64 0, i32 0, i64 1
  %286 = getelementptr inbounds %class.btRigidBody, ptr %190, i64 0, i32 1, i32 0, i64 0, i32 0, i64 2
  %287 = getelementptr inbounds %class.btRigidBody, ptr %190, i64 0, i32 1, i32 0, i64 1
  %288 = getelementptr inbounds %class.btRigidBody, ptr %190, i64 0, i32 1, i32 0, i64 1, i32 0, i64 1
  %289 = getelementptr inbounds %class.btRigidBody, ptr %190, i64 0, i32 1, i32 0, i64 1, i32 0, i64 2
  %290 = getelementptr inbounds %class.btRigidBody, ptr %190, i64 0, i32 1, i32 0, i64 2
  %291 = load float, ptr %290, align 4, !tbaa !46
  %292 = getelementptr inbounds %class.btRigidBody, ptr %190, i64 0, i32 1, i32 0, i64 2, i32 0, i64 1
  %293 = load float, ptr %292, align 4, !tbaa !46
  %294 = fmul float %293, %283
  %295 = tail call float @llvm.fmuladd.f32(float %291, float %282, float %294)
  %296 = getelementptr inbounds %class.btRigidBody, ptr %190, i64 0, i32 1, i32 0, i64 2, i32 0, i64 2
  %297 = load float, ptr %296, align 4, !tbaa !46
  %298 = tail call float @llvm.fmuladd.f32(float %297, float %284, float %295)
  %299 = getelementptr inbounds %class.btRigidBody, ptr %190, i64 0, i32 5
  %300 = load float, ptr %281, align 4, !tbaa !46
  %301 = load float, ptr %285, align 4, !tbaa !46
  %302 = load float, ptr %286, align 4, !tbaa !46
  %303 = load float, ptr %287, align 4, !tbaa !46
  %304 = load float, ptr %288, align 4, !tbaa !46
  %305 = insertelement <2 x float> poison, float %301, i64 0
  %306 = insertelement <2 x float> %305, float %304, i64 1
  %307 = insertelement <2 x float> poison, float %283, i64 0
  %308 = shufflevector <2 x float> %307, <2 x float> poison, <2 x i32> zeroinitializer
  %309 = fmul <2 x float> %306, %308
  %310 = insertelement <2 x float> poison, float %300, i64 0
  %311 = insertelement <2 x float> %310, float %303, i64 1
  %312 = insertelement <2 x float> poison, float %282, i64 0
  %313 = shufflevector <2 x float> %312, <2 x float> poison, <2 x i32> zeroinitializer
  %314 = tail call <2 x float> @llvm.fmuladd.v2f32(<2 x float> %311, <2 x float> %313, <2 x float> %309)
  %315 = load float, ptr %289, align 4, !tbaa !46
  %316 = insertelement <2 x float> poison, float %302, i64 0
  %317 = insertelement <2 x float> %316, float %315, i64 1
  %318 = insertelement <2 x float> poison, float %284, i64 0
  %319 = shufflevector <2 x float> %318, <2 x float> poison, <2 x i32> zeroinitializer
  %320 = tail call <2 x float> @llvm.fmuladd.v2f32(<2 x float> %317, <2 x float> %319, <2 x float> %314)
  %321 = load <2 x float>, ptr %299, align 4, !tbaa !46
  %322 = fmul <2 x float> %320, %321
  %323 = getelementptr inbounds %class.btRigidBody, ptr %190, i64 0, i32 5, i32 0, i64 2
  %324 = load float, ptr %323, align 4, !tbaa !46
  %325 = fmul float %298, %324
  %326 = insertelement <2 x float> <float poison, float 0.000000e+00>, float %325, i64 0
  br label %327

327:                                              ; preds = %257, %266
  %328 = phi <2 x float> [ %322, %266 ], [ zeroinitializer, %257 ]
  %329 = phi <2 x float> [ %326, %266 ], [ zeroinitializer, %257 ]
  %330 = getelementptr inbounds %struct.btSolverConstraint, ptr %183, i64 %181, i32 4
  store <2 x float> %328, ptr %330, align 8, !tbaa.struct !63
  %331 = getelementptr inbounds i8, ptr %330, i64 8
  store <2 x float> %329, ptr %331, align 8, !tbaa.struct !65
  %332 = extractelement <2 x float> %328, i64 0
  %333 = extractelement <2 x float> %328, i64 1
  %334 = extractelement <2 x float> %329, i64 0
  br i1 %199, label %356, label %335

335:                                              ; preds = %327
  %336 = fneg float %264
  %337 = fmul float %92, %336
  %338 = extractelement <2 x float> %102, i64 0
  %339 = tail call float @llvm.fmuladd.f32(float %263, float %338, float %337)
  %340 = fneg float %265
  %341 = fmul float %338, %340
  %342 = extractelement <2 x float> %102, i64 1
  %343 = tail call float @llvm.fmuladd.f32(float %264, float %342, float %341)
  %344 = fneg float %263
  %345 = fmul float %342, %344
  %346 = tail call float @llvm.fmuladd.f32(float %265, float %92, float %345)
  %347 = getelementptr inbounds %class.btRigidBody, ptr %187, i64 0, i32 4
  %348 = load float, ptr %347, align 8, !tbaa !59
  %349 = load float, ptr %194, align 4, !tbaa !46
  %350 = load float, ptr %196, align 4, !tbaa !46
  %351 = fmul float %343, %350
  %352 = tail call float @llvm.fmuladd.f32(float %349, float %339, float %351)
  %353 = load float, ptr %195, align 4, !tbaa !46
  %354 = tail call float @llvm.fmuladd.f32(float %353, float %346, float %352)
  %355 = fadd float %348, %354
  br label %356

356:                                              ; preds = %335, %327
  %357 = phi float [ %355, %335 ], [ 0.000000e+00, %327 ]
  br i1 %262, label %380, label %358

358:                                              ; preds = %356
  %359 = fneg float %332
  %360 = fneg float %333
  %361 = fneg float %334
  %362 = fmul float %109, %334
  %363 = extractelement <2 x float> %119, i64 0
  %364 = tail call float @llvm.fmuladd.f32(float %360, float %363, float %362)
  %365 = fmul <2 x float> %119, %328
  %366 = extractelement <2 x float> %365, i64 0
  %367 = extractelement <2 x float> %119, i64 1
  %368 = tail call float @llvm.fmuladd.f32(float %361, float %367, float %366)
  %369 = fmul float %367, %333
  %370 = tail call float @llvm.fmuladd.f32(float %359, float %109, float %369)
  %371 = getelementptr inbounds %class.btRigidBody, ptr %190, i64 0, i32 4
  %372 = load float, ptr %371, align 8, !tbaa !59
  %373 = load float, ptr %194, align 4, !tbaa !46
  %374 = load float, ptr %196, align 4, !tbaa !46
  %375 = fmul float %368, %374
  %376 = tail call float @llvm.fmuladd.f32(float %373, float %364, float %375)
  %377 = load float, ptr %195, align 4, !tbaa !46
  %378 = tail call float @llvm.fmuladd.f32(float %377, float %370, float %376)
  %379 = fadd float %372, %378
  br label %380

380:                                              ; preds = %358, %356
  %381 = phi float [ %379, %358 ], [ 0.000000e+00, %356 ]
  %382 = fadd float %357, %381
  %383 = fdiv float 1.000000e+00, %382
  %384 = getelementptr inbounds %struct.btSolverConstraint, ptr %183, i64 %181, i32 8
  store float %383, ptr %384, align 4, !tbaa !47
  %385 = getelementptr inbounds %struct.btSolverConstraint, ptr %183, i64 %181, i32 1
  tail call void @llvm.memcpy.p0.p0.i64(ptr noundef nonnull align 8 dereferenceable(16) %385, ptr noundef nonnull align 8 dereferenceable(16) %194, i64 16, i1 false), !tbaa.struct !63
  %386 = load <2 x float>, ptr %196, align 4, !tbaa !46
  %387 = load float, ptr %194, align 4, !tbaa !46
  %388 = fmul <2 x float> %386, %197
  %389 = insertelement <2 x float> %103, float %92, i64 0
  %390 = shufflevector <2 x float> %386, <2 x float> poison, <2 x i32> <i32 1, i32 undef>
  %391 = insertelement <2 x float> %390, float %387, i64 1
  %392 = tail call <2 x float> @llvm.fmuladd.v2f32(<2 x float> %389, <2 x float> %391, <2 x float> %388)
  %393 = fmul float %387, %198
  %394 = extractelement <2 x float> %102, i64 1
  %395 = extractelement <2 x float> %386, i64 0
  %396 = tail call float @llvm.fmuladd.f32(float %394, float %395, float %393)
  %397 = insertelement <2 x float> <float poison, float 0.000000e+00>, float %396, i64 0
  store <2 x float> %392, ptr %184, align 8, !tbaa.struct !63
  %398 = getelementptr inbounds i8, ptr %184, i64 8
  store <2 x float> %397, ptr %398, align 8, !tbaa.struct !65
  %399 = load float, ptr %194, align 4, !tbaa !46
  %400 = load <2 x float>, ptr %196, align 4, !tbaa !46
  %401 = extractelement <2 x float> %400, i64 0
  %402 = fneg float %401
  %403 = insertelement <2 x float> %400, float %399, i64 0
  %404 = fneg <2 x float> %403
  %405 = fmul <2 x float> %119, %400
  %406 = shufflevector <2 x float> %405, <2 x float> poison, <2 x i32> <i32 1, i32 0>
  %407 = insertelement <2 x float> %119, float %109, i64 1
  %408 = tail call <2 x float> @llvm.fmuladd.v2f32(<2 x float> %407, <2 x float> %404, <2 x float> %406)
  %409 = fmul float %109, %399
  %410 = extractelement <2 x float> %119, i64 1
  %411 = tail call float @llvm.fmuladd.f32(float %410, float %402, float %409)
  %412 = shufflevector <2 x float> %408, <2 x float> poison, <2 x i32> <i32 1, i32 0>
  %413 = insertelement <2 x float> <float poison, float 0.000000e+00>, float %411, i64 0
  %414 = getelementptr inbounds %struct.btSolverConstraint, ptr %183, i64 %181, i32 2
  store <2 x float> %412, ptr %414, align 8, !tbaa.struct !63
  %415 = getelementptr inbounds %struct.btSolverConstraint, ptr %183, i64 %181, i32 2, i32 0, i64 2
  store <2 x float> %413, ptr %415, align 8, !tbaa.struct !65
  br i1 %199, label %438, label %416

416:                                              ; preds = %380
  %417 = getelementptr inbounds %class.btRigidBody, ptr %187, i64 0, i32 2
  %418 = getelementptr inbounds %class.btRigidBody, ptr %187, i64 0, i32 3
  %419 = getelementptr inbounds %class.btRigidBody, ptr %187, i64 0, i32 3, i32 0, i64 1
  %420 = load float, ptr %418, align 8, !tbaa !46
  %421 = load <2 x float>, ptr %419, align 4, !tbaa !46
  %422 = insertelement <2 x float> %421, float %420, i64 0
  %423 = fneg <2 x float> %422
  %424 = insertelement <2 x float> %102, float %92, i64 1
  %425 = fmul <2 x float> %424, %423
  %426 = shufflevector <2 x float> %425, <2 x float> poison, <2 x i32> <i32 1, i32 0>
  %427 = tail call <2 x float> @llvm.fmuladd.v2f32(<2 x float> %421, <2 x float> %102, <2 x float> %426)
  %428 = extractelement <2 x float> %421, i64 0
  %429 = fneg float %428
  %430 = fmul float %394, %429
  %431 = tail call float @llvm.fmuladd.f32(float %420, float %92, float %430)
  %432 = load <2 x float>, ptr %417, align 8, !tbaa !46
  %433 = fadd <2 x float> %427, %432
  %434 = getelementptr inbounds %class.btRigidBody, ptr %187, i64 0, i32 2, i32 0, i64 2
  %435 = load float, ptr %434, align 8, !tbaa !46
  %436 = fadd float %431, %435
  %437 = insertelement <2 x float> <float poison, float 0.000000e+00>, float %436, i64 0
  br label %438

438:                                              ; preds = %380, %416
  %439 = phi <2 x float> [ %433, %416 ], [ zeroinitializer, %380 ]
  %440 = phi <2 x float> [ %437, %416 ], [ zeroinitializer, %380 ]
  br i1 %262, label %462, label %441

441:                                              ; preds = %438
  %442 = getelementptr inbounds %class.btRigidBody, ptr %190, i64 0, i32 2
  %443 = getelementptr inbounds %class.btRigidBody, ptr %190, i64 0, i32 3
  %444 = getelementptr inbounds %class.btRigidBody, ptr %190, i64 0, i32 3, i32 0, i64 1
  %445 = load float, ptr %443, align 8, !tbaa !46
  %446 = load <2 x float>, ptr %444, align 4, !tbaa !46
  %447 = insertelement <2 x float> %446, float %445, i64 0
  %448 = fneg <2 x float> %447
  %449 = fmul <2 x float> %407, %448
  %450 = shufflevector <2 x float> %449, <2 x float> poison, <2 x i32> <i32 1, i32 0>
  %451 = tail call <2 x float> @llvm.fmuladd.v2f32(<2 x float> %446, <2 x float> %119, <2 x float> %450)
  %452 = extractelement <2 x float> %446, i64 0
  %453 = fneg float %452
  %454 = fmul float %410, %453
  %455 = tail call float @llvm.fmuladd.f32(float %445, float %109, float %454)
  %456 = load <2 x float>, ptr %442, align 8, !tbaa !46
  %457 = fadd <2 x float> %451, %456
  %458 = getelementptr inbounds %class.btRigidBody, ptr %190, i64 0, i32 2, i32 0, i64 2
  %459 = load float, ptr %458, align 8, !tbaa !46
  %460 = fadd float %455, %459
  %461 = insertelement <2 x float> <float poison, float 0.000000e+00>, float %460, i64 0
  br label %462

462:                                              ; preds = %438, %441
  %463 = phi <2 x float> [ %457, %441 ], [ zeroinitializer, %438 ]
  %464 = phi <2 x float> [ %461, %441 ], [ zeroinitializer, %438 ]
  %465 = fsub <2 x float> %439, %463
  %466 = extractelement <2 x float> %465, i64 0
  %467 = shufflevector <2 x float> %439, <2 x float> %440, <2 x i32> <i32 1, i32 2>
  %468 = shufflevector <2 x float> %463, <2 x float> %464, <2 x i32> <i32 1, i32 2>
  %469 = fsub <2 x float> %467, %468
  %470 = load float, ptr %194, align 4, !tbaa !46
  %471 = load float, ptr %196, align 4, !tbaa !46
  %472 = extractelement <2 x float> %469, i64 0
  %473 = fmul float %472, %471
  %474 = tail call float @llvm.fmuladd.f32(float %470, float %466, float %473)
  %475 = load float, ptr %195, align 4, !tbaa !46
  %476 = extractelement <2 x float> %469, i64 1
  %477 = tail call float @llvm.fmuladd.f32(float %475, float %476, float %474)
  %478 = load float, ptr %82, align 8, !tbaa !82
  %479 = load float, ptr %42, align 4, !tbaa !84
  %480 = fadd float %478, %479
  %481 = getelementptr inbounds %class.btPersistentManifold, ptr %1, i64 0, i32 2, i64 %80, i32 6
  %482 = load float, ptr %481, align 4, !tbaa !71
  %483 = getelementptr inbounds %struct.btSolverConstraint, ptr %183, i64 %181, i32 7
  store float %482, ptr %483, align 8, !tbaa !73
  %484 = getelementptr inbounds %class.btPersistentManifold, ptr %1, i64 0, i32 2, i64 %80, i32 19
  %485 = load i32, ptr %484, align 8, !tbaa !86
  %486 = load i32, ptr %43, align 4, !tbaa !87
  %487 = icmp sgt i32 %485, %486
  br i1 %487, label %495, label %488

488:                                              ; preds = %462
  %489 = getelementptr inbounds %class.btPersistentManifold, ptr %1, i64 0, i32 2, i64 %80, i32 7
  %490 = load float, ptr %489, align 8, !tbaa !88
  %491 = fneg float %477
  %492 = fmul float %490, %491
  %493 = fcmp ugt float %492, 0.000000e+00
  br i1 %493, label %495, label %494

494:                                              ; preds = %488
  br label %495

495:                                              ; preds = %462, %488, %494
  %496 = phi float [ 0.000000e+00, %494 ], [ %492, %488 ], [ 0.000000e+00, %462 ]
  %497 = load i32, ptr %44, align 4, !tbaa !89
  %498 = and i32 %497, 4
  %499 = icmp eq i32 %498, 0
  br i1 %499, label %599, label %500

500:                                              ; preds = %495
  %501 = getelementptr inbounds %class.btPersistentManifold, ptr %1, i64 0, i32 2, i64 %80, i32 14
  %502 = load float, ptr %501, align 8, !tbaa !90
  %503 = load float, ptr %45, align 4, !tbaa !91
  %504 = fmul float %502, %503
  %505 = getelementptr inbounds %struct.btSolverConstraint, ptr %183, i64 %181, i32 6
  store float %504, ptr %505, align 4, !tbaa !44
  br i1 %199, label %549, label %506

506:                                              ; preds = %500
  %507 = load ptr, ptr %46, align 8, !tbaa !15
  %508 = getelementptr inbounds %struct.btSolverBody, ptr %507, i64 %47
  %509 = getelementptr inbounds %class.btRigidBody, ptr %187, i64 0, i32 4
  %510 = load float, ptr %509, align 8, !tbaa !59
  %511 = getelementptr inbounds [4 x float], ptr %385, i64 0, i64 2
  %512 = load float, ptr %511, align 4, !tbaa !46
  %513 = fmul float %510, %512
  %514 = getelementptr inbounds %class.btRigidBody, ptr %187, i64 0, i32 6
  %515 = getelementptr inbounds %class.btRigidBody, ptr %187, i64 0, i32 6, i32 0, i64 2
  %516 = load float, ptr %515, align 4, !tbaa !46
  %517 = fmul float %513, %516
  %518 = fmul float %504, %517
  %519 = load <2 x float>, ptr %385, align 4, !tbaa !46
  %520 = insertelement <2 x float> poison, float %510, i64 0
  %521 = shufflevector <2 x float> %520, <2 x float> poison, <2 x i32> zeroinitializer
  %522 = fmul <2 x float> %521, %519
  %523 = load <2 x float>, ptr %514, align 4, !tbaa !46
  %524 = fmul <2 x float> %522, %523
  %525 = insertelement <2 x float> poison, float %504, i64 0
  %526 = shufflevector <2 x float> %525, <2 x float> poison, <2 x i32> zeroinitializer
  %527 = fmul <2 x float> %526, %524
  %528 = load <2 x float>, ptr %508, align 8, !tbaa !46
  %529 = fadd <2 x float> %527, %528
  store <2 x float> %529, ptr %508, align 8, !tbaa !46
  %530 = getelementptr inbounds [4 x float], ptr %508, i64 0, i64 2
  %531 = load float, ptr %530, align 8, !tbaa !46
  %532 = fadd float %518, %531
  store float %532, ptr %530, align 8, !tbaa !46
  %533 = getelementptr inbounds %struct.btSolverBody, ptr %507, i64 %47, i32 2
  %534 = getelementptr inbounds %struct.btSolverBody, ptr %507, i64 %47, i32 2, i32 0, i64 2
  %535 = load float, ptr %534, align 8, !tbaa !46
  %536 = fmul float %504, %535
  %537 = load float, ptr %261, align 4, !tbaa !46
  %538 = fmul float %536, %537
  %539 = getelementptr inbounds %struct.btSolverBody, ptr %507, i64 %47, i32 1
  %540 = load <2 x float>, ptr %533, align 8, !tbaa !46
  %541 = fmul <2 x float> %526, %540
  %542 = load <2 x float>, ptr %260, align 4, !tbaa !46
  %543 = fmul <2 x float> %541, %542
  %544 = load <2 x float>, ptr %539, align 8, !tbaa !46
  %545 = fadd <2 x float> %543, %544
  store <2 x float> %545, ptr %539, align 8, !tbaa !46
  %546 = getelementptr inbounds %struct.btSolverBody, ptr %507, i64 %47, i32 1, i32 0, i64 2
  %547 = load float, ptr %546, align 8, !tbaa !46
  %548 = fadd float %538, %547
  store float %548, ptr %546, align 8, !tbaa !46
  br label %549

549:                                              ; preds = %506, %500
  br i1 %262, label %601, label %550

550:                                              ; preds = %549
  %551 = load i32, ptr %192, align 4, !tbaa !64
  %552 = load ptr, ptr %46, align 8, !tbaa !15
  %553 = sext i32 %551 to i64
  %554 = getelementptr inbounds %struct.btSolverBody, ptr %552, i64 %553
  %555 = getelementptr inbounds %class.btRigidBody, ptr %190, i64 0, i32 4
  %556 = load float, ptr %555, align 8, !tbaa !59
  %557 = getelementptr inbounds [4 x float], ptr %385, i64 0, i64 2
  %558 = load float, ptr %557, align 4, !tbaa !46
  %559 = fmul float %556, %558
  %560 = getelementptr inbounds %class.btRigidBody, ptr %190, i64 0, i32 6
  %561 = getelementptr inbounds %class.btRigidBody, ptr %190, i64 0, i32 6, i32 0, i64 2
  %562 = load float, ptr %561, align 4, !tbaa !46
  %563 = fmul float %559, %562
  %564 = load float, ptr %331, align 4, !tbaa !46
  %565 = load float, ptr %505, align 4, !tbaa !44
  %566 = fneg float %565
  %567 = load <2 x float>, ptr %385, align 4, !tbaa !46
  %568 = insertelement <2 x float> poison, float %556, i64 0
  %569 = shufflevector <2 x float> %568, <2 x float> poison, <2 x i32> zeroinitializer
  %570 = fmul <2 x float> %569, %567
  %571 = load <2 x float>, ptr %560, align 4, !tbaa !46
  %572 = fmul <2 x float> %570, %571
  %573 = load <2 x float>, ptr %554, align 8, !tbaa !46
  %574 = insertelement <2 x float> poison, float %565, i64 0
  %575 = shufflevector <2 x float> %574, <2 x float> poison, <2 x i32> zeroinitializer
  %576 = fmul <2 x float> %572, %575
  %577 = fsub <2 x float> %573, %576
  %578 = getelementptr inbounds [4 x float], ptr %554, i64 0, i64 2
  %579 = load float, ptr %578, align 8, !tbaa !46
  %580 = fmul float %563, %565
  %581 = fsub float %579, %580
  %582 = getelementptr inbounds %struct.btSolverBody, ptr %552, i64 %553, i32 2
  %583 = getelementptr inbounds %struct.btSolverBody, ptr %552, i64 %553, i32 2, i32 0, i64 2
  %584 = load float, ptr %583, align 8, !tbaa !46
  %585 = fmul float %584, %566
  %586 = getelementptr inbounds %struct.btSolverBody, ptr %552, i64 %553, i32 1
  %587 = load <2 x float>, ptr %330, align 4, !tbaa !46
  store <2 x float> %577, ptr %554, align 8, !tbaa !46
  store float %581, ptr %578, align 8, !tbaa !46
  %588 = load <2 x float>, ptr %582, align 8, !tbaa !46
  %589 = insertelement <2 x float> poison, float %566, i64 0
  %590 = shufflevector <2 x float> %589, <2 x float> poison, <2 x i32> zeroinitializer
  %591 = fmul <2 x float> %588, %590
  %592 = load <2 x float>, ptr %586, align 8, !tbaa !46
  %593 = fmul <2 x float> %587, %591
  %594 = fsub <2 x float> %592, %593
  store <2 x float> %594, ptr %586, align 8, !tbaa !46
  %595 = getelementptr inbounds %struct.btSolverBody, ptr %552, i64 %553, i32 1, i32 0, i64 2
  %596 = load float, ptr %595, align 8, !tbaa !46
  %597 = fmul float %564, %585
  %598 = fsub float %596, %597
  store float %598, ptr %595, align 8, !tbaa !46
  br label %601

599:                                              ; preds = %495
  %600 = getelementptr inbounds %struct.btSolverConstraint, ptr %183, i64 %181, i32 6
  store float 0.000000e+00, ptr %600, align 4, !tbaa !44
  br label %601

601:                                              ; preds = %549, %550, %599
  %602 = getelementptr inbounds %struct.btSolverConstraint, ptr %183, i64 %181, i32 5
  store float 0.000000e+00, ptr %602, align 8, !tbaa !52
  br i1 %199, label %610, label %603

603:                                              ; preds = %601
  %604 = getelementptr inbounds %class.btRigidBody, ptr %187, i64 0, i32 2
  %605 = load float, ptr %604, align 4, !tbaa.struct !63
  %606 = getelementptr inbounds %class.btRigidBody, ptr %187, i64 0, i32 2, i32 0, i64 1
  %607 = load float, ptr %606, align 4, !tbaa.struct !74
  %608 = getelementptr inbounds %class.btRigidBody, ptr %187, i64 0, i32 2, i32 0, i64 2
  %609 = load float, ptr %608, align 4, !tbaa.struct !65
  br label %610

610:                                              ; preds = %601, %603
  %611 = phi float [ %605, %603 ], [ 0.000000e+00, %601 ]
  %612 = phi float [ %607, %603 ], [ 0.000000e+00, %601 ]
  %613 = phi float [ %609, %603 ], [ 0.000000e+00, %601 ]
  %614 = load float, ptr %385, align 4, !tbaa !46
  %615 = getelementptr inbounds [4 x float], ptr %385, i64 0, i64 1
  %616 = load float, ptr %615, align 4, !tbaa !46
  %617 = fmul float %612, %616
  %618 = tail call float @llvm.fmuladd.f32(float %614, float %611, float %617)
  %619 = getelementptr inbounds [4 x float], ptr %385, i64 0, i64 2
  %620 = load float, ptr %619, align 4, !tbaa !46
  %621 = tail call float @llvm.fmuladd.f32(float %620, float %613, float %618)
  br i1 %199, label %629, label %622

622:                                              ; preds = %610
  %623 = getelementptr inbounds %class.btRigidBody, ptr %187, i64 0, i32 3
  %624 = load float, ptr %623, align 4, !tbaa.struct !63
  %625 = getelementptr inbounds %class.btRigidBody, ptr %187, i64 0, i32 3, i32 0, i64 1
  %626 = load float, ptr %625, align 4, !tbaa.struct !74
  %627 = getelementptr inbounds %class.btRigidBody, ptr %187, i64 0, i32 3, i32 0, i64 2
  %628 = load float, ptr %627, align 4, !tbaa.struct !65
  br label %629

629:                                              ; preds = %610, %622
  %630 = phi float [ %624, %622 ], [ 0.000000e+00, %610 ]
  %631 = phi float [ %626, %622 ], [ 0.000000e+00, %610 ]
  %632 = phi float [ %628, %622 ], [ 0.000000e+00, %610 ]
  %633 = load float, ptr %184, align 4, !tbaa !46
  %634 = getelementptr inbounds [4 x float], ptr %184, i64 0, i64 1
  %635 = load float, ptr %634, align 4, !tbaa !46
  %636 = fmul float %631, %635
  %637 = tail call float @llvm.fmuladd.f32(float %633, float %630, float %636)
  %638 = load float, ptr %398, align 4, !tbaa !46
  %639 = tail call float @llvm.fmuladd.f32(float %638, float %632, float %637)
  %640 = fadd float %621, %639
  br i1 %262, label %657, label %641

641:                                              ; preds = %629
  %642 = getelementptr inbounds %class.btRigidBody, ptr %190, i64 0, i32 2
  %643 = load float, ptr %642, align 4, !tbaa.struct !63
  %644 = getelementptr inbounds %class.btRigidBody, ptr %190, i64 0, i32 2, i32 0, i64 1
  %645 = load float, ptr %644, align 4, !tbaa.struct !74
  %646 = getelementptr inbounds %class.btRigidBody, ptr %190, i64 0, i32 2, i32 0, i64 2
  %647 = load float, ptr %646, align 4, !tbaa.struct !65
  %648 = fmul float %616, %645
  %649 = tail call float @llvm.fmuladd.f32(float %614, float %643, float %648)
  %650 = tail call float @llvm.fmuladd.f32(float %620, float %647, float %649)
  %651 = getelementptr inbounds %class.btRigidBody, ptr %190, i64 0, i32 3
  %652 = load float, ptr %651, align 4, !tbaa.struct !63
  %653 = getelementptr inbounds %class.btRigidBody, ptr %190, i64 0, i32 3, i32 0, i64 1
  %654 = load float, ptr %653, align 4, !tbaa.struct !74
  %655 = getelementptr inbounds %class.btRigidBody, ptr %190, i64 0, i32 3, i32 0, i64 2
  %656 = load float, ptr %655, align 4, !tbaa.struct !65
  br label %661

657:                                              ; preds = %629
  %658 = fmul float %616, 0.000000e+00
  %659 = tail call float @llvm.fmuladd.f32(float %614, float 0.000000e+00, float %658)
  %660 = tail call float @llvm.fmuladd.f32(float %620, float 0.000000e+00, float %659)
  br label %661

661:                                              ; preds = %657, %641
  %662 = phi float [ %660, %657 ], [ %650, %641 ]
  %663 = phi float [ 0.000000e+00, %657 ], [ %652, %641 ]
  %664 = phi float [ 0.000000e+00, %657 ], [ %654, %641 ]
  %665 = phi float [ 0.000000e+00, %657 ], [ %656, %641 ]
  %666 = load float, ptr %414, align 4, !tbaa !46
  %667 = getelementptr inbounds [4 x float], ptr %414, i64 0, i64 1
  %668 = load float, ptr %667, align 4, !tbaa !46
  %669 = fmul float %664, %668
  %670 = tail call float @llvm.fmuladd.f32(float %666, float %663, float %669)
  %671 = getelementptr inbounds [4 x float], ptr %414, i64 0, i64 2
  %672 = load float, ptr %671, align 4, !tbaa !46
  %673 = tail call float @llvm.fmuladd.f32(float %672, float %665, float %670)
  %674 = fsub float %673, %662
  %675 = fadd float %640, %674
  %676 = fneg float %480
  %677 = load float, ptr %48, align 4, !tbaa !92
  %678 = fmul float %677, %676
  %679 = load float, ptr %49, align 4, !tbaa !93
  %680 = fdiv float %678, %679
  %681 = fsub float %496, %675
  %682 = load float, ptr %384, align 4, !tbaa !47
  %683 = fmul float %680, %682
  %684 = fmul float %682, %681
  %685 = load i32, ptr %50, align 4, !tbaa !94
  %686 = icmp eq i32 %685, 0
  %687 = load float, ptr %51, align 4
  %688 = fcmp ogt float %480, %687
  %689 = select i1 %686, i1 true, i1 %688
  %690 = select i1 %689, float %683, float -0.000000e+00
  %691 = fadd float %684, %690
  %692 = select i1 %689, float 0.000000e+00, float %683
  %693 = getelementptr inbounds %struct.btSolverConstraint, ptr %183, i64 %181, i32 14
  store float %691, ptr %693, align 8
  %694 = getelementptr inbounds %struct.btSolverConstraint, ptr %183, i64 %181, i32 18
  store float %692, ptr %694, align 8
  %695 = getelementptr inbounds %struct.btSolverConstraint, ptr %183, i64 %181, i32 15
  store <2 x float> zeroinitializer, ptr %695, align 4, !tbaa !46
  %696 = getelementptr inbounds %struct.btSolverConstraint, ptr %183, i64 %181, i32 17
  store float 1.000000e+10, ptr %696, align 4, !tbaa !49
  %697 = load i32, ptr %52, align 4, !tbaa !22
  %698 = getelementptr inbounds %struct.btSolverConstraint, ptr %183, i64 %181, i32 10
  store i32 %697, ptr %698, align 4, !tbaa !64
  %699 = load i32, ptr %44, align 4, !tbaa !89
  %700 = and i32 %699, 32
  %701 = icmp eq i32 %700, 0
  %702 = getelementptr inbounds %class.btPersistentManifold, ptr %1, i64 0, i32 2, i64 %80, i32 15
  %703 = load i8, ptr %702, align 4
  %704 = icmp eq i8 %703, 0
  %705 = select i1 %701, i1 true, i1 %704
  br i1 %705, label %706, label %1229

706:                                              ; preds = %661
  %707 = load float, ptr %194, align 4, !tbaa !46
  %708 = fmul float %477, %707
  %709 = fsub float %466, %708
  %710 = load <2 x float>, ptr %196, align 4, !tbaa !46
  %711 = insertelement <2 x float> poison, float %477, i64 0
  %712 = shufflevector <2 x float> %711, <2 x float> poison, <2 x i32> zeroinitializer
  %713 = fmul <2 x float> %712, %710
  %714 = fsub <2 x float> %469, %713
  %715 = insertelement <2 x float> undef, float %709, i64 0
  %716 = shufflevector <2 x float> %715, <2 x float> %714, <2 x i32> <i32 0, i32 2>
  %717 = shufflevector <2 x float> <float poison, float 0.000000e+00>, <2 x float> %714, <2 x i32> <i32 3, i32 1>
  %718 = getelementptr inbounds %class.btPersistentManifold, ptr %1, i64 0, i32 2, i64 %80, i32 20
  store <2 x float> %716, ptr %718, align 4, !tbaa.struct !63
  %719 = getelementptr inbounds %class.btPersistentManifold, ptr %1, i64 0, i32 2, i64 %80, i32 20, i32 0, i64 2
  store <2 x float> %717, ptr %719, align 4, !tbaa.struct !65
  %720 = getelementptr inbounds [4 x float], ptr %718, i64 0, i64 1
  %721 = fmul <2 x float> %714, %714
  %722 = extractelement <2 x float> %721, i64 0
  %723 = tail call float @llvm.fmuladd.f32(float %709, float %709, float %722)
  %724 = getelementptr inbounds [4 x float], ptr %718, i64 0, i64 2
  %725 = extractelement <2 x float> %714, i64 1
  %726 = tail call float @llvm.fmuladd.f32(float %725, float %725, float %723)
  %727 = load i32, ptr %44, align 4, !tbaa !89
  %728 = and i32 %727, 64
  %729 = icmp eq i32 %728, 0
  %730 = fcmp ogt float %726, 0x3E80000000000000
  %731 = and i1 %729, %730
  br i1 %731, label %732, label %972

732:                                              ; preds = %706
  %733 = tail call float @llvm.sqrt.f32(float %726)
  %734 = fdiv float 1.000000e+00, %733
  %735 = fmul float %734, %709
  store float %735, ptr %718, align 4, !tbaa !46
  %736 = insertelement <2 x float> poison, float %734, i64 0
  %737 = shufflevector <2 x float> %736, <2 x float> poison, <2 x i32> zeroinitializer
  %738 = fmul <2 x float> %737, %714
  store <2 x float> %738, ptr %720, align 4, !tbaa !46
  %739 = and i32 %727, 16
  %740 = icmp eq i32 %739, 0
  br i1 %740, label %870, label %741

741:                                              ; preds = %732
  %742 = shufflevector <2 x float> %738, <2 x float> poison, <2 x i32> <i32 1, i32 undef>
  %743 = insertelement <2 x float> %742, float %735, i64 1
  %744 = fneg <2 x float> %743
  %745 = extractelement <2 x float> %738, i64 0
  %746 = fneg float %745
  %747 = fmul float %707, %746
  %748 = extractelement <2 x float> %710, i64 0
  %749 = tail call float @llvm.fmuladd.f32(float %735, float %748, float %747)
  %750 = insertelement <2 x float> <float poison, float 0.000000e+00>, float %749, i64 0
  %751 = getelementptr inbounds %class.btPersistentManifold, ptr %1, i64 0, i32 2, i64 %80, i32 21
  %752 = getelementptr inbounds %class.btPersistentManifold, ptr %1, i64 0, i32 2, i64 %80, i32 21, i32 0, i64 2
  store <2 x float> %750, ptr %752, align 4, !tbaa.struct !65
  %753 = getelementptr inbounds [4 x float], ptr %751, i64 0, i64 2
  %754 = fmul <2 x float> %710, %744
  %755 = shufflevector <2 x float> %710, <2 x float> poison, <2 x i32> <i32 1, i32 undef>
  %756 = insertelement <2 x float> %755, float %707, i64 1
  %757 = tail call <2 x float> @llvm.fmuladd.v2f32(<2 x float> %738, <2 x float> %756, <2 x float> %754)
  %758 = fmul <2 x float> %757, %757
  %759 = extractelement <2 x float> %758, i64 1
  %760 = extractelement <2 x float> %757, i64 0
  %761 = tail call float @llvm.fmuladd.f32(float %760, float %760, float %759)
  %762 = tail call float @llvm.fmuladd.f32(float %749, float %749, float %761)
  %763 = tail call float @llvm.sqrt.f32(float %762)
  %764 = fdiv float 1.000000e+00, %763
  %765 = insertelement <2 x float> poison, float %764, i64 0
  %766 = shufflevector <2 x float> %765, <2 x float> poison, <2 x i32> zeroinitializer
  %767 = fmul <2 x float> %757, %766
  store <2 x float> %767, ptr %751, align 4, !tbaa !46
  %768 = fmul float %749, %764
  store float %768, ptr %753, align 4, !tbaa !46
  %769 = load i8, ptr %53, align 8, !tbaa !66, !range !67, !noundef !68
  %770 = icmp eq i8 %769, 0
  br i1 %770, label %817, label %771

771:                                              ; preds = %741
  %772 = load float, ptr %55, align 4, !tbaa !46
  %773 = load float, ptr %58, align 4, !tbaa !46
  %774 = load float, ptr %61, align 4, !tbaa !46
  %775 = load float, ptr %62, align 4, !tbaa !46
  %776 = load float, ptr %63, align 4, !tbaa !46
  %777 = load float, ptr %64, align 4, !tbaa !46
  %778 = load float, ptr %26, align 4, !tbaa !46
  %779 = load float, ptr %54, align 4, !tbaa !46
  %780 = extractelement <2 x float> %767, i64 1
  %781 = fmul float %780, %779
  %782 = extractelement <2 x float> %767, i64 0
  %783 = tail call float @llvm.fmuladd.f32(float %778, float %782, float %781)
  %784 = tail call float @llvm.fmuladd.f32(float %772, float %768, float %783)
  %785 = load float, ptr %56, align 4, !tbaa !46
  %786 = load float, ptr %57, align 4, !tbaa !46
  %787 = fmul float %780, %786
  %788 = tail call float @llvm.fmuladd.f32(float %785, float %782, float %787)
  %789 = tail call float @llvm.fmuladd.f32(float %773, float %768, float %788)
  %790 = load float, ptr %59, align 4, !tbaa !46
  %791 = load float, ptr %60, align 4, !tbaa !46
  %792 = fmul float %780, %791
  %793 = tail call float @llvm.fmuladd.f32(float %790, float %782, float %792)
  %794 = tail call float @llvm.fmuladd.f32(float %774, float %768, float %793)
  %795 = fmul float %784, %775
  %796 = fmul float %789, %776
  %797 = fmul float %794, %777
  %798 = insertelement <2 x float> poison, float %785, i64 0
  %799 = insertelement <2 x float> %798, float %786, i64 1
  %800 = insertelement <2 x float> poison, float %796, i64 0
  %801 = shufflevector <2 x float> %800, <2 x float> poison, <2 x i32> zeroinitializer
  %802 = fmul <2 x float> %799, %801
  %803 = insertelement <2 x float> poison, float %778, i64 0
  %804 = insertelement <2 x float> %803, float %779, i64 1
  %805 = insertelement <2 x float> poison, float %795, i64 0
  %806 = shufflevector <2 x float> %805, <2 x float> poison, <2 x i32> zeroinitializer
  %807 = tail call <2 x float> @llvm.fmuladd.v2f32(<2 x float> %804, <2 x float> %806, <2 x float> %802)
  %808 = insertelement <2 x float> poison, float %790, i64 0
  %809 = insertelement <2 x float> %808, float %791, i64 1
  %810 = insertelement <2 x float> poison, float %797, i64 0
  %811 = shufflevector <2 x float> %810, <2 x float> poison, <2 x i32> zeroinitializer
  %812 = tail call <2 x float> @llvm.fmuladd.v2f32(<2 x float> %809, <2 x float> %811, <2 x float> %807)
  %813 = fmul float %773, %796
  %814 = tail call float @llvm.fmuladd.f32(float %772, float %795, float %813)
  %815 = tail call float @llvm.fmuladd.f32(float %774, float %797, float %814)
  %816 = insertelement <2 x float> <float poison, float 0.000000e+00>, float %815, i64 0
  store <2 x float> %812, ptr %751, align 4, !tbaa.struct !63
  store <2 x float> %816, ptr %753, align 4, !tbaa.struct !65
  br label %817

817:                                              ; preds = %771, %741
  %818 = phi float [ %768, %741 ], [ %815, %771 ]
  %819 = phi <2 x float> [ %767, %741 ], [ %812, %771 ]
  %820 = load i8, ptr %65, align 8, !tbaa !66, !range !67, !noundef !68
  %821 = icmp eq i8 %820, 0
  br i1 %821, label %868, label %822

822:                                              ; preds = %817
  %823 = load float, ptr %67, align 4, !tbaa !46
  %824 = load float, ptr %70, align 4, !tbaa !46
  %825 = load float, ptr %73, align 4, !tbaa !46
  %826 = load float, ptr %74, align 4, !tbaa !46
  %827 = load float, ptr %75, align 4, !tbaa !46
  %828 = load float, ptr %76, align 4, !tbaa !46
  %829 = load float, ptr %31, align 4, !tbaa !46
  %830 = load float, ptr %66, align 4, !tbaa !46
  %831 = extractelement <2 x float> %819, i64 1
  %832 = fmul float %830, %831
  %833 = extractelement <2 x float> %819, i64 0
  %834 = tail call float @llvm.fmuladd.f32(float %829, float %833, float %832)
  %835 = tail call float @llvm.fmuladd.f32(float %823, float %818, float %834)
  %836 = load float, ptr %68, align 4, !tbaa !46
  %837 = load float, ptr %69, align 4, !tbaa !46
  %838 = fmul float %831, %837
  %839 = tail call float @llvm.fmuladd.f32(float %836, float %833, float %838)
  %840 = tail call float @llvm.fmuladd.f32(float %824, float %818, float %839)
  %841 = load float, ptr %71, align 4, !tbaa !46
  %842 = load float, ptr %72, align 4, !tbaa !46
  %843 = fmul float %831, %842
  %844 = tail call float @llvm.fmuladd.f32(float %841, float %833, float %843)
  %845 = tail call float @llvm.fmuladd.f32(float %825, float %818, float %844)
  %846 = fmul float %835, %826
  %847 = fmul float %840, %827
  %848 = fmul float %845, %828
  %849 = insertelement <2 x float> poison, float %836, i64 0
  %850 = insertelement <2 x float> %849, float %837, i64 1
  %851 = insertelement <2 x float> poison, float %847, i64 0
  %852 = shufflevector <2 x float> %851, <2 x float> poison, <2 x i32> zeroinitializer
  %853 = fmul <2 x float> %850, %852
  %854 = insertelement <2 x float> poison, float %829, i64 0
  %855 = insertelement <2 x float> %854, float %830, i64 1
  %856 = insertelement <2 x float> poison, float %846, i64 0
  %857 = shufflevector <2 x float> %856, <2 x float> poison, <2 x i32> zeroinitializer
  %858 = tail call <2 x float> @llvm.fmuladd.v2f32(<2 x float> %855, <2 x float> %857, <2 x float> %853)
  %859 = insertelement <2 x float> poison, float %841, i64 0
  %860 = insertelement <2 x float> %859, float %842, i64 1
  %861 = insertelement <2 x float> poison, float %848, i64 0
  %862 = shufflevector <2 x float> %861, <2 x float> poison, <2 x i32> zeroinitializer
  %863 = tail call <2 x float> @llvm.fmuladd.v2f32(<2 x float> %860, <2 x float> %862, <2 x float> %858)
  %864 = fmul float %824, %847
  %865 = tail call float @llvm.fmuladd.f32(float %823, float %846, float %864)
  %866 = tail call float @llvm.fmuladd.f32(float %825, float %848, float %865)
  %867 = insertelement <2 x float> <float poison, float 0.000000e+00>, float %866, i64 0
  store <2 x float> %863, ptr %751, align 4, !tbaa.struct !63
  store <2 x float> %867, ptr %753, align 4, !tbaa.struct !65
  br label %868

868:                                              ; preds = %817, %822
  %869 = call noundef nonnull align 8 dereferenceable(140) ptr @_ZN35btSequentialImpulseConstraintSolver21addFrictionConstraintERK9btVector3iiiR15btManifoldPointS2_S2_P17btCollisionObjectS6_f(ptr noundef nonnull align 8 dereferenceable(240) %0, ptr noundef nonnull align 4 dereferenceable(16) %751, i32 noundef %18, i32 noundef %17, i32 noundef %123, ptr noundef nonnull align 8 dereferenceable(172) %81, ptr noundef nonnull align 4 dereferenceable(16) %4, ptr noundef nonnull align 4 dereferenceable(16) %5, ptr noundef nonnull %7, ptr noundef nonnull %9, float noundef 1.000000e+00)
  br label %870

870:                                              ; preds = %732, %868
  %871 = load i8, ptr %53, align 8, !tbaa !66, !range !67, !noundef !68
  %872 = icmp eq i8 %871, 0
  br i1 %872, label %920, label %873

873:                                              ; preds = %870
  %874 = load float, ptr %718, align 4, !tbaa !46
  %875 = load float, ptr %720, align 4, !tbaa !46
  %876 = load float, ptr %55, align 4, !tbaa !46
  %877 = load float, ptr %724, align 4, !tbaa !46
  %878 = load float, ptr %58, align 4, !tbaa !46
  %879 = load float, ptr %61, align 4, !tbaa !46
  %880 = load float, ptr %62, align 4, !tbaa !46
  %881 = load float, ptr %63, align 4, !tbaa !46
  %882 = load float, ptr %64, align 4, !tbaa !46
  %883 = load float, ptr %26, align 4, !tbaa !46
  %884 = load float, ptr %54, align 4, !tbaa !46
  %885 = fmul float %884, %875
  %886 = tail call float @llvm.fmuladd.f32(float %883, float %874, float %885)
  %887 = tail call float @llvm.fmuladd.f32(float %876, float %877, float %886)
  %888 = load float, ptr %56, align 4, !tbaa !46
  %889 = load float, ptr %57, align 4, !tbaa !46
  %890 = fmul float %875, %889
  %891 = tail call float @llvm.fmuladd.f32(float %888, float %874, float %890)
  %892 = tail call float @llvm.fmuladd.f32(float %878, float %877, float %891)
  %893 = load float, ptr %59, align 4, !tbaa !46
  %894 = load float, ptr %60, align 4, !tbaa !46
  %895 = fmul float %875, %894
  %896 = tail call float @llvm.fmuladd.f32(float %893, float %874, float %895)
  %897 = tail call float @llvm.fmuladd.f32(float %879, float %877, float %896)
  %898 = fmul float %887, %880
  %899 = fmul float %892, %881
  %900 = fmul float %897, %882
  %901 = insertelement <2 x float> poison, float %888, i64 0
  %902 = insertelement <2 x float> %901, float %889, i64 1
  %903 = insertelement <2 x float> poison, float %899, i64 0
  %904 = shufflevector <2 x float> %903, <2 x float> poison, <2 x i32> zeroinitializer
  %905 = fmul <2 x float> %902, %904
  %906 = insertelement <2 x float> poison, float %883, i64 0
  %907 = insertelement <2 x float> %906, float %884, i64 1
  %908 = insertelement <2 x float> poison, float %898, i64 0
  %909 = shufflevector <2 x float> %908, <2 x float> poison, <2 x i32> zeroinitializer
  %910 = tail call <2 x float> @llvm.fmuladd.v2f32(<2 x float> %907, <2 x float> %909, <2 x float> %905)
  %911 = insertelement <2 x float> poison, float %893, i64 0
  %912 = insertelement <2 x float> %911, float %894, i64 1
  %913 = insertelement <2 x float> poison, float %900, i64 0
  %914 = shufflevector <2 x float> %913, <2 x float> poison, <2 x i32> zeroinitializer
  %915 = tail call <2 x float> @llvm.fmuladd.v2f32(<2 x float> %912, <2 x float> %914, <2 x float> %910)
  %916 = fmul float %878, %899
  %917 = tail call float @llvm.fmuladd.f32(float %876, float %898, float %916)
  %918 = tail call float @llvm.fmuladd.f32(float %879, float %900, float %917)
  %919 = insertelement <2 x float> <float poison, float 0.000000e+00>, float %918, i64 0
  store <2 x float> %915, ptr %718, align 4, !tbaa.struct !63
  store <2 x float> %919, ptr %724, align 4, !tbaa.struct !65
  br label %920

920:                                              ; preds = %873, %870
  %921 = load i8, ptr %65, align 8, !tbaa !66, !range !67, !noundef !68
  %922 = icmp eq i8 %921, 0
  br i1 %922, label %970, label %923

923:                                              ; preds = %920
  %924 = load float, ptr %718, align 4, !tbaa !46
  %925 = load float, ptr %720, align 4, !tbaa !46
  %926 = load float, ptr %67, align 4, !tbaa !46
  %927 = load float, ptr %724, align 4, !tbaa !46
  %928 = load float, ptr %70, align 4, !tbaa !46
  %929 = load float, ptr %73, align 4, !tbaa !46
  %930 = load float, ptr %74, align 4, !tbaa !46
  %931 = load float, ptr %75, align 4, !tbaa !46
  %932 = load float, ptr %76, align 4, !tbaa !46
  %933 = load float, ptr %31, align 4, !tbaa !46
  %934 = load float, ptr %66, align 4, !tbaa !46
  %935 = fmul float %934, %925
  %936 = tail call float @llvm.fmuladd.f32(float %933, float %924, float %935)
  %937 = tail call float @llvm.fmuladd.f32(float %926, float %927, float %936)
  %938 = load float, ptr %68, align 4, !tbaa !46
  %939 = load float, ptr %69, align 4, !tbaa !46
  %940 = fmul float %925, %939
  %941 = tail call float @llvm.fmuladd.f32(float %938, float %924, float %940)
  %942 = tail call float @llvm.fmuladd.f32(float %928, float %927, float %941)
  %943 = load float, ptr %71, align 4, !tbaa !46
  %944 = load float, ptr %72, align 4, !tbaa !46
  %945 = fmul float %925, %944
  %946 = tail call float @llvm.fmuladd.f32(float %943, float %924, float %945)
  %947 = tail call float @llvm.fmuladd.f32(float %929, float %927, float %946)
  %948 = fmul float %937, %930
  %949 = fmul float %942, %931
  %950 = fmul float %947, %932
  %951 = insertelement <2 x float> poison, float %938, i64 0
  %952 = insertelement <2 x float> %951, float %939, i64 1
  %953 = insertelement <2 x float> poison, float %949, i64 0
  %954 = shufflevector <2 x float> %953, <2 x float> poison, <2 x i32> zeroinitializer
  %955 = fmul <2 x float> %952, %954
  %956 = insertelement <2 x float> poison, float %933, i64 0
  %957 = insertelement <2 x float> %956, float %934, i64 1
  %958 = insertelement <2 x float> poison, float %948, i64 0
  %959 = shufflevector <2 x float> %958, <2 x float> poison, <2 x i32> zeroinitializer
  %960 = tail call <2 x float> @llvm.fmuladd.v2f32(<2 x float> %957, <2 x float> %959, <2 x float> %955)
  %961 = insertelement <2 x float> poison, float %943, i64 0
  %962 = insertelement <2 x float> %961, float %944, i64 1
  %963 = insertelement <2 x float> poison, float %950, i64 0
  %964 = shufflevector <2 x float> %963, <2 x float> poison, <2 x i32> zeroinitializer
  %965 = tail call <2 x float> @llvm.fmuladd.v2f32(<2 x float> %962, <2 x float> %964, <2 x float> %960)
  %966 = fmul float %928, %949
  %967 = tail call float @llvm.fmuladd.f32(float %926, float %948, float %966)
  %968 = tail call float @llvm.fmuladd.f32(float %929, float %950, float %967)
  %969 = insertelement <2 x float> <float poison, float 0.000000e+00>, float %968, i64 0
  store <2 x float> %965, ptr %718, align 4, !tbaa.struct !63
  store <2 x float> %969, ptr %724, align 4, !tbaa.struct !65
  br label %970

970:                                              ; preds = %920, %923
  %971 = call noundef nonnull align 8 dereferenceable(140) ptr @_ZN35btSequentialImpulseConstraintSolver21addFrictionConstraintERK9btVector3iiiR15btManifoldPointS2_S2_P17btCollisionObjectS6_f(ptr noundef nonnull align 8 dereferenceable(240) %0, ptr noundef nonnull align 4 dereferenceable(16) %718, i32 noundef %18, i32 noundef %17, i32 noundef %123, ptr noundef nonnull align 8 dereferenceable(172) %81, ptr noundef nonnull align 4 dereferenceable(16) %4, ptr noundef nonnull align 4 dereferenceable(16) %5, ptr noundef nonnull %7, ptr noundef nonnull %9, float noundef 1.000000e+00)
  store i8 1, ptr %702, align 4, !tbaa !95
  br label %1238

972:                                              ; preds = %706
  %973 = getelementptr inbounds %class.btPersistentManifold, ptr %1, i64 0, i32 2, i64 %80, i32 21
  %974 = extractelement <2 x float> %710, i64 1
  %975 = tail call float @llvm.fabs.f32(float %974)
  %976 = fcmp ogt float %975, 0x3FE6A09E60000000
  br i1 %976, label %977, label %994

977:                                              ; preds = %972
  %978 = fmul float %974, %974
  %979 = extractelement <2 x float> %710, i64 0
  %980 = tail call float @llvm.fmuladd.f32(float %979, float %979, float %978)
  %981 = tail call float @llvm.sqrt.f32(float %980)
  %982 = fdiv float 1.000000e+00, %981
  %983 = fneg float %974
  %984 = fmul float %982, %983
  %985 = fmul float %979, %982
  %986 = fneg float %707
  %987 = insertelement <2 x float> poison, float %985, i64 0
  %988 = insertelement <2 x float> %987, float %982, i64 1
  %989 = insertelement <2 x float> poison, float %986, i64 0
  %990 = insertelement <2 x float> %989, float %980, i64 1
  %991 = fmul <2 x float> %988, %990
  %992 = fmul float %707, %984
  %993 = insertelement <2 x float> <float 0.000000e+00, float poison>, float %984, i64 1
  br label %1012

994:                                              ; preds = %972
  %995 = extractelement <2 x float> %710, i64 0
  %996 = fmul <2 x float> %710, %710
  %997 = extractelement <2 x float> %996, i64 0
  %998 = tail call float @llvm.fmuladd.f32(float %707, float %707, float %997)
  %999 = tail call float @llvm.sqrt.f32(float %998)
  %1000 = fdiv float 1.000000e+00, %999
  %1001 = fneg float %995
  %1002 = insertelement <2 x float> poison, float %1000, i64 0
  %1003 = shufflevector <2 x float> %1002, <2 x float> poison, <2 x i32> zeroinitializer
  %1004 = insertelement <2 x float> poison, float %1001, i64 0
  %1005 = insertelement <2 x float> %1004, float %707, i64 1
  %1006 = fmul <2 x float> %1003, %1005
  %1007 = shufflevector <2 x float> %710, <2 x float> poison, <2 x i32> <i32 1, i32 undef>
  %1008 = fneg <2 x float> %710
  %1009 = shufflevector <2 x float> %1007, <2 x float> %1008, <2 x i32> <i32 0, i32 3>
  %1010 = fmul <2 x float> %1009, %1006
  %1011 = fmul float %998, %1000
  br label %1012

1012:                                             ; preds = %977, %994
  %1013 = phi float [ %985, %977 ], [ 0.000000e+00, %994 ]
  %1014 = phi float [ %992, %977 ], [ %1011, %994 ]
  %1015 = phi <2 x float> [ %991, %977 ], [ %1010, %994 ]
  %1016 = phi <2 x float> [ %993, %977 ], [ %1006, %994 ]
  store <2 x float> %1016, ptr %718, align 4
  store float %1013, ptr %724, align 4
  %1017 = getelementptr inbounds [4 x float], ptr %718, i64 0, i64 3
  store float 0.000000e+00, ptr %1017, align 4
  %1018 = shufflevector <2 x float> %1015, <2 x float> poison, <2 x i32> <i32 1, i32 0>
  store <2 x float> %1018, ptr %973, align 4
  %1019 = getelementptr inbounds [4 x float], ptr %973, i64 0, i64 2
  store float %1014, ptr %1019, align 4
  %1020 = getelementptr inbounds [4 x float], ptr %973, i64 0, i64 3
  store float 0.000000e+00, ptr %1020, align 4
  %1021 = load i32, ptr %44, align 4, !tbaa !89
  %1022 = and i32 %1021, 16
  %1023 = icmp eq i32 %1022, 0
  br i1 %1023, label %1127, label %1024

1024:                                             ; preds = %1012
  %1025 = load i8, ptr %53, align 8, !tbaa !66, !range !67, !noundef !68
  %1026 = icmp eq i8 %1025, 0
  br i1 %1026, label %1074, label %1027

1027:                                             ; preds = %1024
  %1028 = load float, ptr %55, align 4, !tbaa !46
  %1029 = load float, ptr %58, align 4, !tbaa !46
  %1030 = load float, ptr %61, align 4, !tbaa !46
  %1031 = load float, ptr %62, align 4, !tbaa !46
  %1032 = load float, ptr %63, align 4, !tbaa !46
  %1033 = load float, ptr %64, align 4, !tbaa !46
  %1034 = load float, ptr %26, align 4, !tbaa !46
  %1035 = load float, ptr %54, align 4, !tbaa !46
  %1036 = extractelement <2 x float> %1015, i64 0
  %1037 = fmul float %1036, %1035
  %1038 = extractelement <2 x float> %1015, i64 1
  %1039 = tail call float @llvm.fmuladd.f32(float %1034, float %1038, float %1037)
  %1040 = tail call float @llvm.fmuladd.f32(float %1028, float %1014, float %1039)
  %1041 = load float, ptr %56, align 4, !tbaa !46
  %1042 = load float, ptr %57, align 4, !tbaa !46
  %1043 = fmul float %1036, %1042
  %1044 = tail call float @llvm.fmuladd.f32(float %1041, float %1038, float %1043)
  %1045 = tail call float @llvm.fmuladd.f32(float %1029, float %1014, float %1044)
  %1046 = load float, ptr %59, align 4, !tbaa !46
  %1047 = load float, ptr %60, align 4, !tbaa !46
  %1048 = fmul float %1036, %1047
  %1049 = tail call float @llvm.fmuladd.f32(float %1046, float %1038, float %1048)
  %1050 = tail call float @llvm.fmuladd.f32(float %1030, float %1014, float %1049)
  %1051 = fmul float %1040, %1031
  %1052 = fmul float %1045, %1032
  %1053 = fmul float %1050, %1033
  %1054 = insertelement <2 x float> poison, float %1042, i64 0
  %1055 = insertelement <2 x float> %1054, float %1041, i64 1
  %1056 = insertelement <2 x float> poison, float %1052, i64 0
  %1057 = shufflevector <2 x float> %1056, <2 x float> poison, <2 x i32> zeroinitializer
  %1058 = fmul <2 x float> %1055, %1057
  %1059 = insertelement <2 x float> poison, float %1035, i64 0
  %1060 = insertelement <2 x float> %1059, float %1034, i64 1
  %1061 = insertelement <2 x float> poison, float %1051, i64 0
  %1062 = shufflevector <2 x float> %1061, <2 x float> poison, <2 x i32> zeroinitializer
  %1063 = tail call <2 x float> @llvm.fmuladd.v2f32(<2 x float> %1060, <2 x float> %1062, <2 x float> %1058)
  %1064 = insertelement <2 x float> poison, float %1047, i64 0
  %1065 = insertelement <2 x float> %1064, float %1046, i64 1
  %1066 = insertelement <2 x float> poison, float %1053, i64 0
  %1067 = shufflevector <2 x float> %1066, <2 x float> poison, <2 x i32> zeroinitializer
  %1068 = tail call <2 x float> @llvm.fmuladd.v2f32(<2 x float> %1065, <2 x float> %1067, <2 x float> %1063)
  %1069 = fmul float %1029, %1052
  %1070 = tail call float @llvm.fmuladd.f32(float %1028, float %1051, float %1069)
  %1071 = tail call float @llvm.fmuladd.f32(float %1030, float %1053, float %1070)
  %1072 = shufflevector <2 x float> %1068, <2 x float> poison, <2 x i32> <i32 1, i32 0>
  %1073 = insertelement <2 x float> <float poison, float 0.000000e+00>, float %1071, i64 0
  store <2 x float> %1072, ptr %973, align 4, !tbaa.struct !63
  store <2 x float> %1073, ptr %1019, align 4, !tbaa.struct !65
  br label %1074

1074:                                             ; preds = %1027, %1024
  %1075 = phi float [ %1014, %1024 ], [ %1071, %1027 ]
  %1076 = phi <2 x float> [ %1015, %1024 ], [ %1068, %1027 ]
  %1077 = load i8, ptr %65, align 8, !tbaa !66, !range !67, !noundef !68
  %1078 = icmp eq i8 %1077, 0
  br i1 %1078, label %1125, label %1079

1079:                                             ; preds = %1074
  %1080 = load float, ptr %67, align 4, !tbaa !46
  %1081 = load float, ptr %70, align 4, !tbaa !46
  %1082 = load float, ptr %73, align 4, !tbaa !46
  %1083 = load float, ptr %74, align 4, !tbaa !46
  %1084 = load float, ptr %75, align 4, !tbaa !46
  %1085 = load float, ptr %76, align 4, !tbaa !46
  %1086 = load float, ptr %31, align 4, !tbaa !46
  %1087 = load float, ptr %66, align 4, !tbaa !46
  %1088 = extractelement <2 x float> %1076, i64 0
  %1089 = fmul float %1087, %1088
  %1090 = extractelement <2 x float> %1076, i64 1
  %1091 = tail call float @llvm.fmuladd.f32(float %1086, float %1090, float %1089)
  %1092 = tail call float @llvm.fmuladd.f32(float %1080, float %1075, float %1091)
  %1093 = load float, ptr %68, align 4, !tbaa !46
  %1094 = load float, ptr %69, align 4, !tbaa !46
  %1095 = fmul float %1088, %1094
  %1096 = tail call float @llvm.fmuladd.f32(float %1093, float %1090, float %1095)
  %1097 = tail call float @llvm.fmuladd.f32(float %1081, float %1075, float %1096)
  %1098 = load float, ptr %71, align 4, !tbaa !46
  %1099 = load float, ptr %72, align 4, !tbaa !46
  %1100 = fmul float %1088, %1099
  %1101 = tail call float @llvm.fmuladd.f32(float %1098, float %1090, float %1100)
  %1102 = tail call float @llvm.fmuladd.f32(float %1082, float %1075, float %1101)
  %1103 = fmul float %1092, %1083
  %1104 = fmul float %1097, %1084
  %1105 = fmul float %1102, %1085
  %1106 = insertelement <2 x float> poison, float %1093, i64 0
  %1107 = insertelement <2 x float> %1106, float %1094, i64 1
  %1108 = insertelement <2 x float> poison, float %1104, i64 0
  %1109 = shufflevector <2 x float> %1108, <2 x float> poison, <2 x i32> zeroinitializer
  %1110 = fmul <2 x float> %1107, %1109
  %1111 = insertelement <2 x float> poison, float %1086, i64 0
  %1112 = insertelement <2 x float> %1111, float %1087, i64 1
  %1113 = insertelement <2 x float> poison, float %1103, i64 0
  %1114 = shufflevector <2 x float> %1113, <2 x float> poison, <2 x i32> zeroinitializer
  %1115 = tail call <2 x float> @llvm.fmuladd.v2f32(<2 x float> %1112, <2 x float> %1114, <2 x float> %1110)
  %1116 = insertelement <2 x float> poison, float %1098, i64 0
  %1117 = insertelement <2 x float> %1116, float %1099, i64 1
  %1118 = insertelement <2 x float> poison, float %1105, i64 0
  %1119 = shufflevector <2 x float> %1118, <2 x float> poison, <2 x i32> zeroinitializer
  %1120 = tail call <2 x float> @llvm.fmuladd.v2f32(<2 x float> %1117, <2 x float> %1119, <2 x float> %1115)
  %1121 = fmul float %1081, %1104
  %1122 = tail call float @llvm.fmuladd.f32(float %1080, float %1103, float %1121)
  %1123 = tail call float @llvm.fmuladd.f32(float %1082, float %1105, float %1122)
  %1124 = insertelement <2 x float> <float poison, float 0.000000e+00>, float %1123, i64 0
  store <2 x float> %1120, ptr %973, align 4, !tbaa.struct !63
  store <2 x float> %1124, ptr %1019, align 4, !tbaa.struct !65
  br label %1125

1125:                                             ; preds = %1074, %1079
  %1126 = call noundef nonnull align 8 dereferenceable(140) ptr @_ZN35btSequentialImpulseConstraintSolver21addFrictionConstraintERK9btVector3iiiR15btManifoldPointS2_S2_P17btCollisionObjectS6_f(ptr noundef nonnull align 8 dereferenceable(240) %0, ptr noundef nonnull align 4 dereferenceable(16) %973, i32 noundef %18, i32 noundef %17, i32 noundef %123, ptr noundef nonnull align 8 dereferenceable(172) %81, ptr noundef nonnull align 4 dereferenceable(16) %4, ptr noundef nonnull align 4 dereferenceable(16) %5, ptr noundef nonnull %7, ptr noundef nonnull %9, float noundef 1.000000e+00)
  br label %1127

1127:                                             ; preds = %1012, %1125
  %1128 = load i8, ptr %53, align 8, !tbaa !66, !range !67, !noundef !68
  %1129 = icmp eq i8 %1128, 0
  br i1 %1129, label %1177, label %1130

1130:                                             ; preds = %1127
  %1131 = load float, ptr %718, align 4, !tbaa !46
  %1132 = load float, ptr %720, align 4, !tbaa !46
  %1133 = load float, ptr %55, align 4, !tbaa !46
  %1134 = load float, ptr %724, align 4, !tbaa !46
  %1135 = load float, ptr %58, align 4, !tbaa !46
  %1136 = load float, ptr %61, align 4, !tbaa !46
  %1137 = load float, ptr %62, align 4, !tbaa !46
  %1138 = load float, ptr %63, align 4, !tbaa !46
  %1139 = load float, ptr %64, align 4, !tbaa !46
  %1140 = load float, ptr %26, align 4, !tbaa !46
  %1141 = load float, ptr %54, align 4, !tbaa !46
  %1142 = fmul float %1141, %1132
  %1143 = tail call float @llvm.fmuladd.f32(float %1140, float %1131, float %1142)
  %1144 = tail call float @llvm.fmuladd.f32(float %1133, float %1134, float %1143)
  %1145 = load float, ptr %56, align 4, !tbaa !46
  %1146 = load float, ptr %57, align 4, !tbaa !46
  %1147 = fmul float %1132, %1146
  %1148 = tail call float @llvm.fmuladd.f32(float %1145, float %1131, float %1147)
  %1149 = tail call float @llvm.fmuladd.f32(float %1135, float %1134, float %1148)
  %1150 = load float, ptr %59, align 4, !tbaa !46
  %1151 = load float, ptr %60, align 4, !tbaa !46
  %1152 = fmul float %1132, %1151
  %1153 = tail call float @llvm.fmuladd.f32(float %1150, float %1131, float %1152)
  %1154 = tail call float @llvm.fmuladd.f32(float %1136, float %1134, float %1153)
  %1155 = fmul float %1144, %1137
  %1156 = fmul float %1149, %1138
  %1157 = fmul float %1154, %1139
  %1158 = insertelement <2 x float> poison, float %1145, i64 0
  %1159 = insertelement <2 x float> %1158, float %1146, i64 1
  %1160 = insertelement <2 x float> poison, float %1156, i64 0
  %1161 = shufflevector <2 x float> %1160, <2 x float> poison, <2 x i32> zeroinitializer
  %1162 = fmul <2 x float> %1159, %1161
  %1163 = insertelement <2 x float> poison, float %1140, i64 0
  %1164 = insertelement <2 x float> %1163, float %1141, i64 1
  %1165 = insertelement <2 x float> poison, float %1155, i64 0
  %1166 = shufflevector <2 x float> %1165, <2 x float> poison, <2 x i32> zeroinitializer
  %1167 = tail call <2 x float> @llvm.fmuladd.v2f32(<2 x float> %1164, <2 x float> %1166, <2 x float> %1162)
  %1168 = insertelement <2 x float> poison, float %1150, i64 0
  %1169 = insertelement <2 x float> %1168, float %1151, i64 1
  %1170 = insertelement <2 x float> poison, float %1157, i64 0
  %1171 = shufflevector <2 x float> %1170, <2 x float> poison, <2 x i32> zeroinitializer
  %1172 = tail call <2 x float> @llvm.fmuladd.v2f32(<2 x float> %1169, <2 x float> %1171, <2 x float> %1167)
  %1173 = fmul float %1135, %1156
  %1174 = tail call float @llvm.fmuladd.f32(float %1133, float %1155, float %1173)
  %1175 = tail call float @llvm.fmuladd.f32(float %1136, float %1157, float %1174)
  %1176 = insertelement <2 x float> <float poison, float 0.000000e+00>, float %1175, i64 0
  store <2 x float> %1172, ptr %718, align 4, !tbaa.struct !63
  store <2 x float> %1176, ptr %724, align 4, !tbaa.struct !65
  br label %1177

1177:                                             ; preds = %1130, %1127
  %1178 = load i8, ptr %65, align 8, !tbaa !66, !range !67, !noundef !68
  %1179 = icmp eq i8 %1178, 0
  br i1 %1179, label %1227, label %1180

1180:                                             ; preds = %1177
  %1181 = load float, ptr %718, align 4, !tbaa !46
  %1182 = load float, ptr %720, align 4, !tbaa !46
  %1183 = load float, ptr %67, align 4, !tbaa !46
  %1184 = load float, ptr %724, align 4, !tbaa !46
  %1185 = load float, ptr %70, align 4, !tbaa !46
  %1186 = load float, ptr %73, align 4, !tbaa !46
  %1187 = load float, ptr %74, align 4, !tbaa !46
  %1188 = load float, ptr %75, align 4, !tbaa !46
  %1189 = load float, ptr %76, align 4, !tbaa !46
  %1190 = load float, ptr %31, align 4, !tbaa !46
  %1191 = load float, ptr %66, align 4, !tbaa !46
  %1192 = fmul float %1191, %1182
  %1193 = tail call float @llvm.fmuladd.f32(float %1190, float %1181, float %1192)
  %1194 = tail call float @llvm.fmuladd.f32(float %1183, float %1184, float %1193)
  %1195 = load float, ptr %68, align 4, !tbaa !46
  %1196 = load float, ptr %69, align 4, !tbaa !46
  %1197 = fmul float %1182, %1196
  %1198 = tail call float @llvm.fmuladd.f32(float %1195, float %1181, float %1197)
  %1199 = tail call float @llvm.fmuladd.f32(float %1185, float %1184, float %1198)
  %1200 = load float, ptr %71, align 4, !tbaa !46
  %1201 = load float, ptr %72, align 4, !tbaa !46
  %1202 = fmul float %1182, %1201
  %1203 = tail call float @llvm.fmuladd.f32(float %1200, float %1181, float %1202)
  %1204 = tail call float @llvm.fmuladd.f32(float %1186, float %1184, float %1203)
  %1205 = fmul float %1194, %1187
  %1206 = fmul float %1199, %1188
  %1207 = fmul float %1204, %1189
  %1208 = insertelement <2 x float> poison, float %1195, i64 0
  %1209 = insertelement <2 x float> %1208, float %1196, i64 1
  %1210 = insertelement <2 x float> poison, float %1206, i64 0
  %1211 = shufflevector <2 x float> %1210, <2 x float> poison, <2 x i32> zeroinitializer
  %1212 = fmul <2 x float> %1209, %1211
  %1213 = insertelement <2 x float> poison, float %1190, i64 0
  %1214 = insertelement <2 x float> %1213, float %1191, i64 1
  %1215 = insertelement <2 x float> poison, float %1205, i64 0
  %1216 = shufflevector <2 x float> %1215, <2 x float> poison, <2 x i32> zeroinitializer
  %1217 = tail call <2 x float> @llvm.fmuladd.v2f32(<2 x float> %1214, <2 x float> %1216, <2 x float> %1212)
  %1218 = insertelement <2 x float> poison, float %1200, i64 0
  %1219 = insertelement <2 x float> %1218, float %1201, i64 1
  %1220 = insertelement <2 x float> poison, float %1207, i64 0
  %1221 = shufflevector <2 x float> %1220, <2 x float> poison, <2 x i32> zeroinitializer
  %1222 = tail call <2 x float> @llvm.fmuladd.v2f32(<2 x float> %1219, <2 x float> %1221, <2 x float> %1217)
  %1223 = fmul float %1185, %1206
  %1224 = tail call float @llvm.fmuladd.f32(float %1183, float %1205, float %1223)
  %1225 = tail call float @llvm.fmuladd.f32(float %1186, float %1207, float %1224)
  %1226 = insertelement <2 x float> <float poison, float 0.000000e+00>, float %1225, i64 0
  store <2 x float> %1222, ptr %718, align 4, !tbaa.struct !63
  store <2 x float> %1226, ptr %724, align 4, !tbaa.struct !65
  br label %1227

1227:                                             ; preds = %1177, %1180
  %1228 = call noundef nonnull align 8 dereferenceable(140) ptr @_ZN35btSequentialImpulseConstraintSolver21addFrictionConstraintERK9btVector3iiiR15btManifoldPointS2_S2_P17btCollisionObjectS6_f(ptr noundef nonnull align 8 dereferenceable(240) %0, ptr noundef nonnull align 4 dereferenceable(16) %718, i32 noundef %18, i32 noundef %17, i32 noundef %123, ptr noundef nonnull align 8 dereferenceable(172) %81, ptr noundef nonnull align 4 dereferenceable(16) %4, ptr noundef nonnull align 4 dereferenceable(16) %5, ptr noundef nonnull %7, ptr noundef nonnull %9, float noundef 1.000000e+00)
  store i8 1, ptr %702, align 4, !tbaa !95
  br label %1238

1229:                                             ; preds = %661
  %1230 = getelementptr inbounds %class.btPersistentManifold, ptr %1, i64 0, i32 2, i64 %80, i32 20
  %1231 = call noundef nonnull align 8 dereferenceable(140) ptr @_ZN35btSequentialImpulseConstraintSolver21addFrictionConstraintERK9btVector3iiiR15btManifoldPointS2_S2_P17btCollisionObjectS6_f(ptr noundef nonnull align 8 dereferenceable(240) %0, ptr noundef nonnull align 4 dereferenceable(16) %1230, i32 noundef %18, i32 noundef %17, i32 noundef %123, ptr noundef nonnull align 8 dereferenceable(172) %81, ptr noundef nonnull align 4 dereferenceable(16) %4, ptr noundef nonnull align 4 dereferenceable(16) %5, ptr noundef nonnull %7, ptr noundef nonnull %9, float noundef 1.000000e+00)
  %1232 = load i32, ptr %44, align 4, !tbaa !89
  %1233 = and i32 %1232, 16
  %1234 = icmp eq i32 %1233, 0
  br i1 %1234, label %1238, label %1235

1235:                                             ; preds = %1229
  %1236 = getelementptr inbounds %class.btPersistentManifold, ptr %1, i64 0, i32 2, i64 %80, i32 21
  %1237 = call noundef nonnull align 8 dereferenceable(140) ptr @_ZN35btSequentialImpulseConstraintSolver21addFrictionConstraintERK9btVector3iiiR15btManifoldPointS2_S2_P17btCollisionObjectS6_f(ptr noundef nonnull align 8 dereferenceable(240) %0, ptr noundef nonnull align 4 dereferenceable(16) %1236, i32 noundef %18, i32 noundef %17, i32 noundef %123, ptr noundef nonnull align 8 dereferenceable(172) %81, ptr noundef nonnull align 4 dereferenceable(16) %4, ptr noundef nonnull align 4 dereferenceable(16) %5, ptr noundef nonnull %7, ptr noundef nonnull %9, float noundef 1.000000e+00)
  br label %1238

1238:                                             ; preds = %970, %1227, %1229, %1235
  %1239 = load i32, ptr %44, align 4, !tbaa !89
  %1240 = and i32 %1239, 8
  %1241 = icmp eq i32 %1240, 0
  %1242 = load i32, ptr %698, align 4, !tbaa !64
  %1243 = load ptr, ptr %77, align 8, !tbaa !21
  %1244 = sext i32 %1242 to i64
  br i1 %1241, label %1465, label %1245

1245:                                             ; preds = %1238
  %1246 = and i32 %1239, 4
  %1247 = icmp eq i32 %1246, 0
  br i1 %1247, label %1358, label %1248

1248:                                             ; preds = %1245
  %1249 = getelementptr inbounds %class.btPersistentManifold, ptr %1, i64 0, i32 2, i64 %80, i32 17
  %1250 = load float, ptr %1249, align 8, !tbaa !96
  %1251 = load float, ptr %45, align 4, !tbaa !91
  %1252 = fmul float %1250, %1251
  %1253 = getelementptr inbounds %struct.btSolverConstraint, ptr %1243, i64 %1244, i32 6
  store float %1252, ptr %1253, align 4, !tbaa !44
  br i1 %199, label %1302, label %1254

1254:                                             ; preds = %1248
  %1255 = load i32, ptr %191, align 8, !tbaa !64
  %1256 = load ptr, ptr %46, align 8, !tbaa !15
  %1257 = sext i32 %1255 to i64
  %1258 = getelementptr inbounds %struct.btSolverBody, ptr %1256, i64 %1257
  %1259 = getelementptr inbounds %struct.btSolverConstraint, ptr %1243, i64 %1244, i32 1
  %1260 = getelementptr inbounds %class.btRigidBody, ptr %187, i64 0, i32 4
  %1261 = load float, ptr %1260, align 8, !tbaa !59
  %1262 = getelementptr inbounds [4 x float], ptr %1259, i64 0, i64 2
  %1263 = load float, ptr %1262, align 4, !tbaa !46
  %1264 = fmul float %1261, %1263
  %1265 = getelementptr inbounds %class.btRigidBody, ptr %187, i64 0, i32 6
  %1266 = getelementptr inbounds %class.btRigidBody, ptr %187, i64 0, i32 6, i32 0, i64 2
  %1267 = load float, ptr %1266, align 4, !tbaa !46
  %1268 = fmul float %1264, %1267
  %1269 = getelementptr inbounds %struct.btSolverConstraint, ptr %1243, i64 %1244, i32 3
  %1270 = fmul float %1252, %1268
  %1271 = load <2 x float>, ptr %1259, align 4, !tbaa !46
  %1272 = insertelement <2 x float> poison, float %1261, i64 0
  %1273 = shufflevector <2 x float> %1272, <2 x float> poison, <2 x i32> zeroinitializer
  %1274 = fmul <2 x float> %1273, %1271
  %1275 = load <2 x float>, ptr %1265, align 4, !tbaa !46
  %1276 = fmul <2 x float> %1274, %1275
  %1277 = insertelement <2 x float> poison, float %1252, i64 0
  %1278 = shufflevector <2 x float> %1277, <2 x float> poison, <2 x i32> zeroinitializer
  %1279 = fmul <2 x float> %1278, %1276
  %1280 = load <2 x float>, ptr %1258, align 8, !tbaa !46
  %1281 = fadd <2 x float> %1279, %1280
  store <2 x float> %1281, ptr %1258, align 8, !tbaa !46
  %1282 = getelementptr inbounds [4 x float], ptr %1258, i64 0, i64 2
  %1283 = load float, ptr %1282, align 8, !tbaa !46
  %1284 = fadd float %1270, %1283
  store float %1284, ptr %1282, align 8, !tbaa !46
  %1285 = getelementptr inbounds %struct.btSolverBody, ptr %1256, i64 %1257, i32 2
  %1286 = getelementptr inbounds %struct.btSolverBody, ptr %1256, i64 %1257, i32 2, i32 0, i64 2
  %1287 = load float, ptr %1286, align 8, !tbaa !46
  %1288 = fmul float %1252, %1287
  %1289 = getelementptr inbounds [4 x float], ptr %1269, i64 0, i64 2
  %1290 = load float, ptr %1289, align 4, !tbaa !46
  %1291 = fmul float %1288, %1290
  %1292 = getelementptr inbounds %struct.btSolverBody, ptr %1256, i64 %1257, i32 1
  %1293 = load <2 x float>, ptr %1285, align 8, !tbaa !46
  %1294 = fmul <2 x float> %1278, %1293
  %1295 = load <2 x float>, ptr %1269, align 4, !tbaa !46
  %1296 = fmul <2 x float> %1294, %1295
  %1297 = load <2 x float>, ptr %1292, align 8, !tbaa !46
  %1298 = fadd <2 x float> %1296, %1297
  store <2 x float> %1298, ptr %1292, align 8, !tbaa !46
  %1299 = getelementptr inbounds %struct.btSolverBody, ptr %1256, i64 %1257, i32 1, i32 0, i64 2
  %1300 = load float, ptr %1299, align 8, !tbaa !46
  %1301 = fadd float %1291, %1300
  store float %1301, ptr %1299, align 8, !tbaa !46
  br label %1302

1302:                                             ; preds = %1254, %1248
  br i1 %262, label %1355, label %1303

1303:                                             ; preds = %1302
  %1304 = load i32, ptr %192, align 4, !tbaa !64
  %1305 = load ptr, ptr %46, align 8, !tbaa !15
  %1306 = sext i32 %1304 to i64
  %1307 = getelementptr inbounds %struct.btSolverBody, ptr %1305, i64 %1306
  %1308 = getelementptr inbounds %struct.btSolverConstraint, ptr %1243, i64 %1244, i32 1
  %1309 = getelementptr inbounds %class.btRigidBody, ptr %190, i64 0, i32 4
  %1310 = load float, ptr %1309, align 8, !tbaa !59
  %1311 = getelementptr inbounds [4 x float], ptr %1308, i64 0, i64 2
  %1312 = load float, ptr %1311, align 4, !tbaa !46
  %1313 = fmul float %1310, %1312
  %1314 = getelementptr inbounds %class.btRigidBody, ptr %190, i64 0, i32 6
  %1315 = getelementptr inbounds %class.btRigidBody, ptr %190, i64 0, i32 6, i32 0, i64 2
  %1316 = load float, ptr %1315, align 4, !tbaa !46
  %1317 = fmul float %1313, %1316
  %1318 = getelementptr inbounds %struct.btSolverConstraint, ptr %1243, i64 %1244, i32 4
  %1319 = getelementptr inbounds [4 x float], ptr %1318, i64 0, i64 2
  %1320 = load float, ptr %1319, align 4, !tbaa !46
  %1321 = load float, ptr %1253, align 4, !tbaa !44
  %1322 = fneg float %1321
  %1323 = load <2 x float>, ptr %1308, align 4, !tbaa !46
  %1324 = insertelement <2 x float> poison, float %1310, i64 0
  %1325 = shufflevector <2 x float> %1324, <2 x float> poison, <2 x i32> zeroinitializer
  %1326 = fmul <2 x float> %1325, %1323
  %1327 = load <2 x float>, ptr %1314, align 4, !tbaa !46
  %1328 = fmul <2 x float> %1326, %1327
  %1329 = load <2 x float>, ptr %1307, align 8, !tbaa !46
  %1330 = insertelement <2 x float> poison, float %1321, i64 0
  %1331 = shufflevector <2 x float> %1330, <2 x float> poison, <2 x i32> zeroinitializer
  %1332 = fmul <2 x float> %1328, %1331
  %1333 = fsub <2 x float> %1329, %1332
  %1334 = getelementptr inbounds [4 x float], ptr %1307, i64 0, i64 2
  %1335 = load float, ptr %1334, align 8, !tbaa !46
  %1336 = fmul float %1317, %1321
  %1337 = fsub float %1335, %1336
  %1338 = getelementptr inbounds %struct.btSolverBody, ptr %1305, i64 %1306, i32 2
  %1339 = getelementptr inbounds %struct.btSolverBody, ptr %1305, i64 %1306, i32 2, i32 0, i64 2
  %1340 = load float, ptr %1339, align 8, !tbaa !46
  %1341 = fmul float %1340, %1322
  %1342 = getelementptr inbounds %struct.btSolverBody, ptr %1305, i64 %1306, i32 1
  %1343 = load <2 x float>, ptr %1318, align 4, !tbaa !46
  store <2 x float> %1333, ptr %1307, align 8, !tbaa !46
  store float %1337, ptr %1334, align 8, !tbaa !46
  %1344 = load <2 x float>, ptr %1338, align 8, !tbaa !46
  %1345 = insertelement <2 x float> poison, float %1322, i64 0
  %1346 = shufflevector <2 x float> %1345, <2 x float> poison, <2 x i32> zeroinitializer
  %1347 = fmul <2 x float> %1344, %1346
  %1348 = load <2 x float>, ptr %1342, align 8, !tbaa !46
  %1349 = fmul <2 x float> %1343, %1347
  %1350 = fsub <2 x float> %1348, %1349
  store <2 x float> %1350, ptr %1342, align 8, !tbaa !46
  %1351 = getelementptr inbounds %struct.btSolverBody, ptr %1305, i64 %1306, i32 1, i32 0, i64 2
  %1352 = load float, ptr %1351, align 8, !tbaa !46
  %1353 = fmul float %1320, %1341
  %1354 = fsub float %1352, %1353
  store float %1354, ptr %1351, align 8, !tbaa !46
  br label %1355

1355:                                             ; preds = %1302, %1303
  %1356 = and i32 %1239, 16
  %1357 = icmp eq i32 %1356, 0
  br i1 %1357, label %1474, label %1362

1358:                                             ; preds = %1245
  %1359 = getelementptr inbounds %struct.btSolverConstraint, ptr %1243, i64 %1244, i32 6
  store float 0.000000e+00, ptr %1359, align 4, !tbaa !44
  %1360 = and i32 %1239, 16
  %1361 = icmp eq i32 %1360, 0
  br i1 %1361, label %1474, label %1460

1362:                                             ; preds = %1355
  %1363 = load i32, ptr %698, align 4, !tbaa !64
  %1364 = add nsw i32 %1363, 1
  %1365 = sext i32 %1364 to i64
  %1366 = getelementptr inbounds %class.btPersistentManifold, ptr %1, i64 0, i32 2, i64 %80, i32 18
  %1367 = load float, ptr %1366, align 4, !tbaa !97
  %1368 = load float, ptr %45, align 4, !tbaa !91
  %1369 = fmul float %1367, %1368
  %1370 = getelementptr inbounds %struct.btSolverConstraint, ptr %1243, i64 %1365, i32 6
  store float %1369, ptr %1370, align 4, !tbaa !44
  br i1 %199, label %1413, label %1371

1371:                                             ; preds = %1362
  %1372 = load i32, ptr %191, align 8, !tbaa !64
  %1373 = load ptr, ptr %46, align 8, !tbaa !15
  %1374 = sext i32 %1372 to i64
  %1375 = getelementptr inbounds %struct.btSolverBody, ptr %1373, i64 %1374
  %1376 = getelementptr inbounds %struct.btSolverConstraint, ptr %1243, i64 %1365, i32 1
  %1377 = getelementptr inbounds %class.btRigidBody, ptr %187, i64 0, i32 4
  %1378 = load float, ptr %1377, align 8, !tbaa !59
  %1379 = getelementptr inbounds [4 x float], ptr %1376, i64 0, i64 2
  %1380 = load float, ptr %1379, align 4, !tbaa !46
  %1381 = fmul float %1378, %1380
  %1382 = getelementptr inbounds %struct.btSolverConstraint, ptr %1243, i64 %1365, i32 3
  %1383 = fmul float %1369, %1381
  %1384 = load <2 x float>, ptr %1376, align 4, !tbaa !46
  %1385 = insertelement <2 x float> poison, float %1378, i64 0
  %1386 = shufflevector <2 x float> %1385, <2 x float> poison, <2 x i32> zeroinitializer
  %1387 = fmul <2 x float> %1386, %1384
  %1388 = insertelement <2 x float> poison, float %1369, i64 0
  %1389 = shufflevector <2 x float> %1388, <2 x float> poison, <2 x i32> zeroinitializer
  %1390 = fmul <2 x float> %1389, %1387
  %1391 = load <2 x float>, ptr %1375, align 8, !tbaa !46
  %1392 = fadd <2 x float> %1390, %1391
  store <2 x float> %1392, ptr %1375, align 8, !tbaa !46
  %1393 = getelementptr inbounds [4 x float], ptr %1375, i64 0, i64 2
  %1394 = load float, ptr %1393, align 8, !tbaa !46
  %1395 = fadd float %1383, %1394
  store float %1395, ptr %1393, align 8, !tbaa !46
  %1396 = getelementptr inbounds %struct.btSolverBody, ptr %1373, i64 %1374, i32 2
  %1397 = getelementptr inbounds %struct.btSolverBody, ptr %1373, i64 %1374, i32 2, i32 0, i64 2
  %1398 = load float, ptr %1397, align 8, !tbaa !46
  %1399 = fmul float %1369, %1398
  %1400 = getelementptr inbounds [4 x float], ptr %1382, i64 0, i64 2
  %1401 = load float, ptr %1400, align 4, !tbaa !46
  %1402 = fmul float %1399, %1401
  %1403 = getelementptr inbounds %struct.btSolverBody, ptr %1373, i64 %1374, i32 1
  %1404 = load <2 x float>, ptr %1396, align 8, !tbaa !46
  %1405 = fmul <2 x float> %1389, %1404
  %1406 = load <2 x float>, ptr %1382, align 4, !tbaa !46
  %1407 = fmul <2 x float> %1405, %1406
  %1408 = load <2 x float>, ptr %1403, align 8, !tbaa !46
  %1409 = fadd <2 x float> %1407, %1408
  store <2 x float> %1409, ptr %1403, align 8, !tbaa !46
  %1410 = getelementptr inbounds %struct.btSolverBody, ptr %1373, i64 %1374, i32 1, i32 0, i64 2
  %1411 = load float, ptr %1410, align 8, !tbaa !46
  %1412 = fadd float %1402, %1411
  store float %1412, ptr %1410, align 8, !tbaa !46
  br label %1413

1413:                                             ; preds = %1371, %1362
  br i1 %262, label %1474, label %1414

1414:                                             ; preds = %1413
  %1415 = load i32, ptr %192, align 4, !tbaa !64
  %1416 = load ptr, ptr %46, align 8, !tbaa !15
  %1417 = sext i32 %1415 to i64
  %1418 = getelementptr inbounds %struct.btSolverBody, ptr %1416, i64 %1417
  %1419 = getelementptr inbounds %struct.btSolverConstraint, ptr %1243, i64 %1365, i32 1
  %1420 = getelementptr inbounds %class.btRigidBody, ptr %190, i64 0, i32 4
  %1421 = load float, ptr %1420, align 8, !tbaa !59
  %1422 = getelementptr inbounds [4 x float], ptr %1419, i64 0, i64 2
  %1423 = load float, ptr %1422, align 4, !tbaa !46
  %1424 = fmul float %1421, %1423
  %1425 = getelementptr inbounds %struct.btSolverConstraint, ptr %1243, i64 %1365, i32 4
  %1426 = getelementptr inbounds [4 x float], ptr %1425, i64 0, i64 2
  %1427 = load float, ptr %1426, align 4, !tbaa !46
  %1428 = load float, ptr %1370, align 4, !tbaa !44
  %1429 = fneg float %1428
  %1430 = load <2 x float>, ptr %1419, align 4, !tbaa !46
  %1431 = insertelement <2 x float> poison, float %1421, i64 0
  %1432 = shufflevector <2 x float> %1431, <2 x float> poison, <2 x i32> zeroinitializer
  %1433 = fmul <2 x float> %1432, %1430
  %1434 = load <2 x float>, ptr %1418, align 8, !tbaa !46
  %1435 = insertelement <2 x float> poison, float %1428, i64 0
  %1436 = shufflevector <2 x float> %1435, <2 x float> poison, <2 x i32> zeroinitializer
  %1437 = fmul <2 x float> %1433, %1436
  %1438 = fsub <2 x float> %1434, %1437
  %1439 = getelementptr inbounds [4 x float], ptr %1418, i64 0, i64 2
  %1440 = load float, ptr %1439, align 8, !tbaa !46
  %1441 = fmul float %1424, %1428
  %1442 = fsub float %1440, %1441
  %1443 = getelementptr inbounds %struct.btSolverBody, ptr %1416, i64 %1417, i32 2
  %1444 = getelementptr inbounds %struct.btSolverBody, ptr %1416, i64 %1417, i32 2, i32 0, i64 2
  %1445 = load float, ptr %1444, align 8, !tbaa !46
  %1446 = fmul float %1445, %1429
  %1447 = getelementptr inbounds %struct.btSolverBody, ptr %1416, i64 %1417, i32 1
  %1448 = load <2 x float>, ptr %1425, align 4, !tbaa !46
  store <2 x float> %1438, ptr %1418, align 8, !tbaa !46
  store float %1442, ptr %1439, align 8, !tbaa !46
  %1449 = load <2 x float>, ptr %1443, align 8, !tbaa !46
  %1450 = insertelement <2 x float> poison, float %1429, i64 0
  %1451 = shufflevector <2 x float> %1450, <2 x float> poison, <2 x i32> zeroinitializer
  %1452 = fmul <2 x float> %1449, %1451
  %1453 = load <2 x float>, ptr %1447, align 8, !tbaa !46
  %1454 = fmul <2 x float> %1448, %1452
  %1455 = fsub <2 x float> %1453, %1454
  store <2 x float> %1455, ptr %1447, align 8, !tbaa !46
  %1456 = getelementptr inbounds %struct.btSolverBody, ptr %1416, i64 %1417, i32 1, i32 0, i64 2
  %1457 = load float, ptr %1456, align 8, !tbaa !46
  %1458 = fmul float %1427, %1446
  %1459 = fsub float %1457, %1458
  store float %1459, ptr %1456, align 8, !tbaa !46
  br label %1474

1460:                                             ; preds = %1358
  %1461 = load i32, ptr %698, align 4, !tbaa !64
  %1462 = add nsw i32 %1461, 1
  %1463 = sext i32 %1462 to i64
  %1464 = getelementptr inbounds %struct.btSolverConstraint, ptr %1243, i64 %1463, i32 6
  store float 0.000000e+00, ptr %1464, align 4, !tbaa !44
  br label %1474

1465:                                             ; preds = %1238
  %1466 = getelementptr inbounds %struct.btSolverConstraint, ptr %1243, i64 %1244, i32 6
  store float 0.000000e+00, ptr %1466, align 4, !tbaa !44
  %1467 = and i32 %1239, 16
  %1468 = icmp eq i32 %1467, 0
  br i1 %1468, label %1474, label %1469

1469:                                             ; preds = %1465
  %1470 = load i32, ptr %698, align 4, !tbaa !64
  %1471 = add nsw i32 %1470, 1
  %1472 = sext i32 %1471 to i64
  %1473 = getelementptr inbounds %struct.btSolverConstraint, ptr %1243, i64 %1472, i32 6
  store float 0.000000e+00, ptr %1473, align 4, !tbaa !44
  br label %1474

1474:                                             ; preds = %1355, %1413, %1414, %1460, %1469, %1465, %1358, %79
  %1475 = add nuw nsw i64 %80, 1
  %1476 = load i32, ptr %10, align 8, !tbaa !81
  %1477 = sext i32 %1476 to i64
  %1478 = icmp slt i64 %1475, %1477
  br i1 %1478, label %79, label %78

1479:                                             ; preds = %16, %78
  ret void
}

; Function Attrs: uwtable
define dso_local noundef float @_ZN35btSequentialImpulseConstraintSolver28solveGroupCacheFriendlySetupEPP17btCollisionObjectiPP20btPersistentManifoldiPP17btTypedConstraintiRK19btContactSolverInfoP12btIDebugDrawP12btStackAlloc(ptr noundef nonnull align 8 dereferenceable(240) %0, ptr nocapture readnone %1, i32 %2, ptr nocapture noundef readonly %3, i32 noundef %4, ptr nocapture noundef readonly %5, i32 noundef %6, ptr nocapture noundef nonnull readonly align 4 dereferenceable(68) %7, ptr nocapture readnone %8, ptr nocapture readnone %9) local_unnamed_addr #13 align 2 personality ptr @__gxx_personality_v0 {
  %11 = alloca %"struct.btTypedConstraint::btConstraintInfo2", align 8
  tail call void @_ZN15CProfileManager13Start_ProfileEPKc(ptr noundef nonnull @.str)
  %12 = sub i32 0, %4
  %13 = icmp eq i32 %12, %6
  br i1 %13, label %950, label %14

14:                                               ; preds = %10
  %15 = icmp sgt i32 %6, 0
  br i1 %15, label %16, label %30

16:                                               ; preds = %14
  %17 = zext i32 %6 to i64
  br label %18

18:                                               ; preds = %16, %25
  %19 = phi i64 [ 0, %16 ], [ %26, %25 ]
  %20 = getelementptr inbounds ptr, ptr %5, i64 %19
  %21 = load ptr, ptr %20, align 8, !tbaa !70
  %22 = load ptr, ptr %21, align 8, !tbaa !5
  %23 = getelementptr inbounds ptr, ptr %22, i64 2
  %24 = load ptr, ptr %23, align 8
  invoke void %24(ptr noundef nonnull align 8 dereferenceable(96) %21)
          to label %25 unwind label %28

25:                                               ; preds = %18
  %26 = add nuw nsw i64 %19, 1
  %27 = icmp eq i64 %26, %17
  br i1 %27, label %30, label %18

28:                                               ; preds = %18
  %29 = landingpad { ptr, i32 }
          cleanup
  br label %951

30:                                               ; preds = %25, %14
  %31 = getelementptr inbounds %class.btSequentialImpulseConstraintSolver, ptr %0, i64 0, i32 1, i32 2
  %32 = load i32, ptr %31, align 4, !tbaa !16
  %33 = getelementptr inbounds %class.btSequentialImpulseConstraintSolver, ptr %0, i64 0, i32 1, i32 3
  %34 = load i32, ptr %33, align 8, !tbaa !17
  %35 = icmp eq i32 %32, %34
  br i1 %35, label %36, label %91

36:                                               ; preds = %30
  %37 = icmp eq i32 %32, 0
  %38 = shl nsw i32 %32, 1
  %39 = select i1 %37, i32 1, i32 %38
  %40 = icmp slt i32 %32, %39
  br i1 %40, label %41, label %91

41:                                               ; preds = %36
  %42 = icmp eq i32 %39, 0
  br i1 %42, label %49, label %43

43:                                               ; preds = %41
  %44 = sext i32 %39 to i64
  %45 = mul nsw i64 %44, 112
  %46 = invoke noundef ptr @_Z22btAlignedAllocInternalmi(i64 noundef %45, i32 noundef 16)
          to label %47 unwind label %231

47:                                               ; preds = %43
  %48 = load i32, ptr %31, align 4, !tbaa !16
  br label %49

49:                                               ; preds = %47, %41
  %50 = phi i32 [ %48, %47 ], [ %32, %41 ]
  %51 = phi ptr [ %46, %47 ], [ null, %41 ]
  %52 = icmp sgt i32 %50, 0
  br i1 %52, label %53, label %80

53:                                               ; preds = %49
  %54 = getelementptr inbounds %class.btSequentialImpulseConstraintSolver, ptr %0, i64 0, i32 1, i32 5
  %55 = zext i32 %50 to i64
  %56 = and i64 %55, 1
  %57 = icmp eq i32 %50, 1
  br i1 %57, label %73, label %58

58:                                               ; preds = %53
  %59 = and i64 %55, 4294967294
  br label %60

60:                                               ; preds = %60, %58
  %61 = phi i64 [ 0, %58 ], [ %70, %60 ]
  %62 = phi i64 [ 0, %58 ], [ %71, %60 ]
  %63 = getelementptr inbounds %struct.btSolverBody, ptr %51, i64 %61
  %64 = load ptr, ptr %54, align 8, !tbaa !15
  %65 = getelementptr inbounds %struct.btSolverBody, ptr %64, i64 %61
  tail call void @llvm.memcpy.p0.p0.i64(ptr noundef nonnull align 8 dereferenceable(112) %63, ptr noundef nonnull align 8 dereferenceable(112) %65, i64 112, i1 false), !tbaa.struct !76
  %66 = or i64 %61, 1
  %67 = getelementptr inbounds %struct.btSolverBody, ptr %51, i64 %66
  %68 = load ptr, ptr %54, align 8, !tbaa !15
  %69 = getelementptr inbounds %struct.btSolverBody, ptr %68, i64 %66
  tail call void @llvm.memcpy.p0.p0.i64(ptr noundef nonnull align 8 dereferenceable(112) %67, ptr noundef nonnull align 8 dereferenceable(112) %69, i64 112, i1 false), !tbaa.struct !76
  %70 = add nuw nsw i64 %61, 2
  %71 = add i64 %62, 2
  %72 = icmp eq i64 %71, %59
  br i1 %72, label %73, label %60

73:                                               ; preds = %60, %53
  %74 = phi i64 [ 0, %53 ], [ %70, %60 ]
  %75 = icmp eq i64 %56, 0
  br i1 %75, label %80, label %76

76:                                               ; preds = %73
  %77 = getelementptr inbounds %struct.btSolverBody, ptr %51, i64 %74
  %78 = load ptr, ptr %54, align 8, !tbaa !15
  %79 = getelementptr inbounds %struct.btSolverBody, ptr %78, i64 %74
  tail call void @llvm.memcpy.p0.p0.i64(ptr noundef nonnull align 8 dereferenceable(112) %77, ptr noundef nonnull align 8 dereferenceable(112) %79, i64 112, i1 false), !tbaa.struct !76
  br label %80

80:                                               ; preds = %76, %73, %49
  %81 = getelementptr inbounds %class.btSequentialImpulseConstraintSolver, ptr %0, i64 0, i32 1, i32 5
  %82 = load ptr, ptr %81, align 8, !tbaa !15
  %83 = icmp eq ptr %82, null
  %84 = getelementptr inbounds %class.btSequentialImpulseConstraintSolver, ptr %0, i64 0, i32 1, i32 6
  %85 = load i8, ptr %84, align 8
  %86 = icmp eq i8 %85, 0
  %87 = select i1 %83, i1 true, i1 %86
  br i1 %87, label %89, label %88

88:                                               ; preds = %80
  invoke void @_Z21btAlignedFreeInternalPv(ptr noundef nonnull %82)
          to label %89 unwind label %231

89:                                               ; preds = %88, %80
  store i8 1, ptr %84, align 8, !tbaa !8
  store ptr %51, ptr %81, align 8, !tbaa !15
  store i32 %39, ptr %33, align 8, !tbaa !17
  %90 = load i32, ptr %31, align 4, !tbaa !16
  br label %91

91:                                               ; preds = %30, %36, %89
  %92 = phi i32 [ %90, %89 ], [ %32, %36 ], [ %32, %30 ]
  %93 = add nsw i32 %92, 1
  store i32 %93, ptr %31, align 4, !tbaa !16
  %94 = getelementptr inbounds %class.btSequentialImpulseConstraintSolver, ptr %0, i64 0, i32 1, i32 5
  %95 = load ptr, ptr %94, align 8, !tbaa !15
  %96 = sext i32 %32 to i64
  %97 = getelementptr inbounds %struct.btSolverBody, ptr %95, i64 %96
  tail call void @llvm.memset.p0.i64(ptr noundef nonnull align 8 dereferenceable(112) %97, i8 0, i64 112, i1 false)
  %98 = load ptr, ptr %94, align 8, !tbaa !15
  %99 = getelementptr inbounds %struct.btSolverBody, ptr %98, i64 %96
  tail call void @llvm.memset.p0.i64(ptr noundef nonnull align 4 dereferenceable(32) %99, i8 0, i64 32, i1 false)
  %100 = getelementptr inbounds %struct.btSolverBody, ptr %98, i64 %96, i32 3
  %101 = getelementptr inbounds %struct.btSolverBody, ptr %98, i64 %96, i32 5
  %102 = getelementptr inbounds %struct.btSolverBody, ptr %98, i64 %96, i32 2
  tail call void @llvm.memset.p0.i64(ptr noundef nonnull align 4 dereferenceable(16) %100, i8 0, i64 16, i1 false)
  tail call void @llvm.memset.p0.i64(ptr noundef nonnull align 8 dereferenceable(40) %101, i8 0, i64 40, i1 false)
  store <4 x float> <float 1.000000e+00, float 1.000000e+00, float 1.000000e+00, float 0.000000e+00>, ptr %102, align 4, !tbaa !46
  %103 = getelementptr inbounds %class.btSequentialImpulseConstraintSolver, ptr %0, i64 0, i32 7, i32 2
  %104 = load i32, ptr %103, align 4, !tbaa !34
  %105 = icmp slt i32 %104, %6
  br i1 %105, label %106, label %212

106:                                              ; preds = %91
  %107 = getelementptr inbounds %class.btSequentialImpulseConstraintSolver, ptr %0, i64 0, i32 7, i32 3
  %108 = load i32, ptr %107, align 8, !tbaa !35
  %109 = icmp slt i32 %108, %6
  br i1 %109, label %110, label %177

110:                                              ; preds = %106
  %111 = icmp eq i32 %6, 0
  br i1 %111, label %118, label %112

112:                                              ; preds = %110
  %113 = sext i32 %6 to i64
  %114 = shl nsw i64 %113, 3
  %115 = invoke noundef ptr @_Z22btAlignedAllocInternalmi(i64 noundef %114, i32 noundef 16)
          to label %116 unwind label %233

116:                                              ; preds = %112
  %117 = load i32, ptr %103, align 4, !tbaa !34
  br label %118

118:                                              ; preds = %116, %110
  %119 = phi i32 [ %117, %116 ], [ %104, %110 ]
  %120 = phi ptr [ %115, %116 ], [ null, %110 ]
  %121 = icmp sgt i32 %119, 0
  br i1 %121, label %122, label %167

122:                                              ; preds = %118
  %123 = getelementptr inbounds %class.btSequentialImpulseConstraintSolver, ptr %0, i64 0, i32 7, i32 5
  %124 = zext i32 %119 to i64
  %125 = and i64 %124, 3
  %126 = icmp ult i32 %119, 4
  br i1 %126, label %154, label %127

127:                                              ; preds = %122
  %128 = and i64 %124, 4294967292
  br label %129

129:                                              ; preds = %129, %127
  %130 = phi i64 [ 0, %127 ], [ %151, %129 ]
  %131 = phi i64 [ 0, %127 ], [ %152, %129 ]
  %132 = getelementptr inbounds %"struct.btTypedConstraint::btConstraintInfo1", ptr %120, i64 %130
  %133 = load ptr, ptr %123, align 8, !tbaa !33
  %134 = getelementptr inbounds %"struct.btTypedConstraint::btConstraintInfo1", ptr %133, i64 %130
  %135 = load i64, ptr %134, align 4
  store i64 %135, ptr %132, align 4
  %136 = or i64 %130, 1
  %137 = getelementptr inbounds %"struct.btTypedConstraint::btConstraintInfo1", ptr %120, i64 %136
  %138 = load ptr, ptr %123, align 8, !tbaa !33
  %139 = getelementptr inbounds %"struct.btTypedConstraint::btConstraintInfo1", ptr %138, i64 %136
  %140 = load i64, ptr %139, align 4
  store i64 %140, ptr %137, align 4
  %141 = or i64 %130, 2
  %142 = getelementptr inbounds %"struct.btTypedConstraint::btConstraintInfo1", ptr %120, i64 %141
  %143 = load ptr, ptr %123, align 8, !tbaa !33
  %144 = getelementptr inbounds %"struct.btTypedConstraint::btConstraintInfo1", ptr %143, i64 %141
  %145 = load i64, ptr %144, align 4
  store i64 %145, ptr %142, align 4
  %146 = or i64 %130, 3
  %147 = getelementptr inbounds %"struct.btTypedConstraint::btConstraintInfo1", ptr %120, i64 %146
  %148 = load ptr, ptr %123, align 8, !tbaa !33
  %149 = getelementptr inbounds %"struct.btTypedConstraint::btConstraintInfo1", ptr %148, i64 %146
  %150 = load i64, ptr %149, align 4
  store i64 %150, ptr %147, align 4
  %151 = add nuw nsw i64 %130, 4
  %152 = add i64 %131, 4
  %153 = icmp eq i64 %152, %128
  br i1 %153, label %154, label %129

154:                                              ; preds = %129, %122
  %155 = phi i64 [ 0, %122 ], [ %151, %129 ]
  %156 = icmp eq i64 %125, 0
  br i1 %156, label %167, label %157

157:                                              ; preds = %154, %157
  %158 = phi i64 [ %164, %157 ], [ %155, %154 ]
  %159 = phi i64 [ %165, %157 ], [ 0, %154 ]
  %160 = getelementptr inbounds %"struct.btTypedConstraint::btConstraintInfo1", ptr %120, i64 %158
  %161 = load ptr, ptr %123, align 8, !tbaa !33
  %162 = getelementptr inbounds %"struct.btTypedConstraint::btConstraintInfo1", ptr %161, i64 %158
  %163 = load i64, ptr %162, align 4
  store i64 %163, ptr %160, align 4
  %164 = add nuw nsw i64 %158, 1
  %165 = add i64 %159, 1
  %166 = icmp eq i64 %165, %125
  br i1 %166, label %167, label %157, !llvm.loop !98

167:                                              ; preds = %154, %157, %118
  %168 = getelementptr inbounds %class.btSequentialImpulseConstraintSolver, ptr %0, i64 0, i32 7, i32 5
  %169 = load ptr, ptr %168, align 8, !tbaa !33
  %170 = icmp eq ptr %169, null
  %171 = getelementptr inbounds %class.btSequentialImpulseConstraintSolver, ptr %0, i64 0, i32 7, i32 6
  %172 = load i8, ptr %171, align 8
  %173 = icmp eq i8 %172, 0
  %174 = select i1 %170, i1 true, i1 %173
  br i1 %174, label %176, label %175

175:                                              ; preds = %167
  invoke void @_Z21btAlignedFreeInternalPv(ptr noundef nonnull %169)
          to label %176 unwind label %233

176:                                              ; preds = %175, %167
  store i8 1, ptr %171, align 8, !tbaa !30
  store ptr %120, ptr %168, align 8, !tbaa !33
  store i32 %6, ptr %107, align 8, !tbaa !35
  br label %177

177:                                              ; preds = %176, %106
  %178 = getelementptr inbounds %class.btSequentialImpulseConstraintSolver, ptr %0, i64 0, i32 7, i32 5
  %179 = sext i32 %104 to i64
  %180 = sext i32 %6 to i64
  %181 = sub nsw i64 %180, %179
  %182 = xor i64 %179, -1
  %183 = add nsw i64 %182, %180
  %184 = and i64 %181, 3
  %185 = icmp eq i64 %184, 0
  br i1 %185, label %194, label %186

186:                                              ; preds = %177, %186
  %187 = phi i64 [ %191, %186 ], [ %179, %177 ]
  %188 = phi i64 [ %192, %186 ], [ 0, %177 ]
  %189 = load ptr, ptr %178, align 8, !tbaa !33
  %190 = getelementptr inbounds %"struct.btTypedConstraint::btConstraintInfo1", ptr %189, i64 %187
  store i64 0, ptr %190, align 4
  %191 = add nsw i64 %187, 1
  %192 = add i64 %188, 1
  %193 = icmp eq i64 %192, %184
  br i1 %193, label %194, label %186, !llvm.loop !100

194:                                              ; preds = %186, %177
  %195 = phi i64 [ %179, %177 ], [ %191, %186 ]
  %196 = icmp ult i64 %183, 3
  br i1 %196, label %212, label %197

197:                                              ; preds = %194, %197
  %198 = phi i64 [ %210, %197 ], [ %195, %194 ]
  %199 = load ptr, ptr %178, align 8, !tbaa !33
  %200 = getelementptr inbounds %"struct.btTypedConstraint::btConstraintInfo1", ptr %199, i64 %198
  store i64 0, ptr %200, align 4
  %201 = add nsw i64 %198, 1
  %202 = load ptr, ptr %178, align 8, !tbaa !33
  %203 = getelementptr inbounds %"struct.btTypedConstraint::btConstraintInfo1", ptr %202, i64 %201
  store i64 0, ptr %203, align 4
  %204 = add nsw i64 %198, 2
  %205 = load ptr, ptr %178, align 8, !tbaa !33
  %206 = getelementptr inbounds %"struct.btTypedConstraint::btConstraintInfo1", ptr %205, i64 %204
  store i64 0, ptr %206, align 4
  %207 = add nsw i64 %198, 3
  %208 = load ptr, ptr %178, align 8, !tbaa !33
  %209 = getelementptr inbounds %"struct.btTypedConstraint::btConstraintInfo1", ptr %208, i64 %207
  store i64 0, ptr %209, align 4
  %210 = add nsw i64 %198, 4
  %211 = icmp eq i64 %210, %180
  br i1 %211, label %212, label %197

212:                                              ; preds = %194, %197, %91
  store i32 %6, ptr %103, align 4, !tbaa !34
  br i1 %15, label %213, label %237

213:                                              ; preds = %212
  %214 = getelementptr inbounds %class.btSequentialImpulseConstraintSolver, ptr %0, i64 0, i32 7, i32 5
  %215 = zext i32 %6 to i64
  br label %216

216:                                              ; preds = %213, %226
  %217 = phi i64 [ 0, %213 ], [ %229, %226 ]
  %218 = phi i32 [ 0, %213 ], [ %228, %226 ]
  %219 = load ptr, ptr %214, align 8, !tbaa !33
  %220 = getelementptr inbounds %"struct.btTypedConstraint::btConstraintInfo1", ptr %219, i64 %217
  %221 = getelementptr inbounds ptr, ptr %5, i64 %217
  %222 = load ptr, ptr %221, align 8, !tbaa !70
  %223 = load ptr, ptr %222, align 8, !tbaa !5
  %224 = getelementptr inbounds ptr, ptr %223, i64 4
  %225 = load ptr, ptr %224, align 8
  invoke void %225(ptr noundef nonnull align 8 dereferenceable(96) %222, ptr noundef nonnull %220)
          to label %226 unwind label %235

226:                                              ; preds = %216
  %227 = load i32, ptr %220, align 4, !tbaa !101
  %228 = add nsw i32 %227, %218
  %229 = add nuw nsw i64 %217, 1
  %230 = icmp eq i64 %229, %215
  br i1 %230, label %237, label %216

231:                                              ; preds = %88, %43
  %232 = landingpad { ptr, i32 }
          cleanup
  br label %951

233:                                              ; preds = %175, %112
  %234 = landingpad { ptr, i32 }
          cleanup
  br label %951

235:                                              ; preds = %216
  %236 = landingpad { ptr, i32 }
          cleanup
  br label %951

237:                                              ; preds = %226, %212
  %238 = phi i32 [ 0, %212 ], [ %228, %226 ]
  %239 = getelementptr inbounds %class.btSequentialImpulseConstraintSolver, ptr %0, i64 0, i32 3, i32 2
  %240 = load i32, ptr %239, align 4, !tbaa !22
  %241 = icmp slt i32 %240, %238
  br i1 %241, label %242, label %330

242:                                              ; preds = %237
  %243 = getelementptr inbounds %class.btSequentialImpulseConstraintSolver, ptr %0, i64 0, i32 3, i32 3
  %244 = load i32, ptr %243, align 8, !tbaa !23
  %245 = icmp slt i32 %244, %238
  br i1 %245, label %246, label %295

246:                                              ; preds = %242
  %247 = icmp eq i32 %238, 0
  br i1 %247, label %254, label %248

248:                                              ; preds = %246
  %249 = sext i32 %238 to i64
  %250 = mul nsw i64 %249, 144
  %251 = invoke noundef ptr @_Z22btAlignedAllocInternalmi(i64 noundef %250, i32 noundef 16)
          to label %252 unwind label %393

252:                                              ; preds = %248
  %253 = load i32, ptr %239, align 4, !tbaa !22
  br label %254

254:                                              ; preds = %252, %246
  %255 = phi i32 [ %253, %252 ], [ %240, %246 ]
  %256 = phi ptr [ %251, %252 ], [ null, %246 ]
  %257 = icmp sgt i32 %255, 0
  br i1 %257, label %258, label %285

258:                                              ; preds = %254
  %259 = getelementptr inbounds %class.btSequentialImpulseConstraintSolver, ptr %0, i64 0, i32 3, i32 5
  %260 = zext i32 %255 to i64
  %261 = and i64 %260, 1
  %262 = icmp eq i32 %255, 1
  br i1 %262, label %278, label %263

263:                                              ; preds = %258
  %264 = and i64 %260, 4294967294
  br label %265

265:                                              ; preds = %265, %263
  %266 = phi i64 [ 0, %263 ], [ %275, %265 ]
  %267 = phi i64 [ 0, %263 ], [ %276, %265 ]
  %268 = getelementptr inbounds %struct.btSolverConstraint, ptr %256, i64 %266
  %269 = load ptr, ptr %259, align 8, !tbaa !21
  %270 = getelementptr inbounds %struct.btSolverConstraint, ptr %269, i64 %266
  tail call void @llvm.memcpy.p0.p0.i64(ptr noundef nonnull align 8 dereferenceable(144) %268, ptr noundef nonnull align 8 dereferenceable(144) %270, i64 144, i1 false), !tbaa.struct !69
  %271 = or i64 %266, 1
  %272 = getelementptr inbounds %struct.btSolverConstraint, ptr %256, i64 %271
  %273 = load ptr, ptr %259, align 8, !tbaa !21
  %274 = getelementptr inbounds %struct.btSolverConstraint, ptr %273, i64 %271
  tail call void @llvm.memcpy.p0.p0.i64(ptr noundef nonnull align 8 dereferenceable(144) %272, ptr noundef nonnull align 8 dereferenceable(144) %274, i64 144, i1 false), !tbaa.struct !69
  %275 = add nuw nsw i64 %266, 2
  %276 = add i64 %267, 2
  %277 = icmp eq i64 %276, %264
  br i1 %277, label %278, label %265

278:                                              ; preds = %265, %258
  %279 = phi i64 [ 0, %258 ], [ %275, %265 ]
  %280 = icmp eq i64 %261, 0
  br i1 %280, label %285, label %281

281:                                              ; preds = %278
  %282 = getelementptr inbounds %struct.btSolverConstraint, ptr %256, i64 %279
  %283 = load ptr, ptr %259, align 8, !tbaa !21
  %284 = getelementptr inbounds %struct.btSolverConstraint, ptr %283, i64 %279
  tail call void @llvm.memcpy.p0.p0.i64(ptr noundef nonnull align 8 dereferenceable(144) %282, ptr noundef nonnull align 8 dereferenceable(144) %284, i64 144, i1 false), !tbaa.struct !69
  br label %285

285:                                              ; preds = %281, %278, %254
  %286 = getelementptr inbounds %class.btSequentialImpulseConstraintSolver, ptr %0, i64 0, i32 3, i32 5
  %287 = load ptr, ptr %286, align 8, !tbaa !21
  %288 = icmp eq ptr %287, null
  %289 = getelementptr inbounds %class.btSequentialImpulseConstraintSolver, ptr %0, i64 0, i32 3, i32 6
  %290 = load i8, ptr %289, align 8
  %291 = icmp eq i8 %290, 0
  %292 = select i1 %288, i1 true, i1 %291
  br i1 %292, label %294, label %293

293:                                              ; preds = %285
  invoke void @_Z21btAlignedFreeInternalPv(ptr noundef nonnull %287)
          to label %294 unwind label %393

294:                                              ; preds = %293, %285
  store i8 1, ptr %289, align 8, !tbaa !18
  store ptr %256, ptr %286, align 8, !tbaa !21
  store i32 %238, ptr %243, align 8, !tbaa !23
  br label %295

295:                                              ; preds = %294, %242
  %296 = getelementptr inbounds %class.btSequentialImpulseConstraintSolver, ptr %0, i64 0, i32 3, i32 5
  %297 = sext i32 %240 to i64
  %298 = sext i32 %238 to i64
  %299 = sub nsw i64 %298, %297
  %300 = xor i64 %297, -1
  %301 = add nsw i64 %300, %298
  %302 = and i64 %299, 3
  %303 = icmp eq i64 %302, 0
  br i1 %303, label %312, label %304

304:                                              ; preds = %295, %304
  %305 = phi i64 [ %309, %304 ], [ %297, %295 ]
  %306 = phi i64 [ %310, %304 ], [ 0, %295 ]
  %307 = load ptr, ptr %296, align 8, !tbaa !21
  %308 = getelementptr inbounds %struct.btSolverConstraint, ptr %307, i64 %305
  tail call void @llvm.memset.p0.i64(ptr noundef nonnull align 8 dereferenceable(144) %308, i8 0, i64 144, i1 false)
  %309 = add nsw i64 %305, 1
  %310 = add i64 %306, 1
  %311 = icmp eq i64 %310, %302
  br i1 %311, label %312, label %304, !llvm.loop !103

312:                                              ; preds = %304, %295
  %313 = phi i64 [ %297, %295 ], [ %309, %304 ]
  %314 = icmp ult i64 %301, 3
  br i1 %314, label %330, label %315

315:                                              ; preds = %312, %315
  %316 = phi i64 [ %328, %315 ], [ %313, %312 ]
  %317 = load ptr, ptr %296, align 8, !tbaa !21
  %318 = getelementptr inbounds %struct.btSolverConstraint, ptr %317, i64 %316
  tail call void @llvm.memset.p0.i64(ptr noundef nonnull align 8 dereferenceable(144) %318, i8 0, i64 144, i1 false)
  %319 = add nsw i64 %316, 1
  %320 = load ptr, ptr %296, align 8, !tbaa !21
  %321 = getelementptr inbounds %struct.btSolverConstraint, ptr %320, i64 %319
  tail call void @llvm.memset.p0.i64(ptr noundef nonnull align 8 dereferenceable(144) %321, i8 0, i64 144, i1 false)
  %322 = add nsw i64 %316, 2
  %323 = load ptr, ptr %296, align 8, !tbaa !21
  %324 = getelementptr inbounds %struct.btSolverConstraint, ptr %323, i64 %322
  tail call void @llvm.memset.p0.i64(ptr noundef nonnull align 8 dereferenceable(144) %324, i8 0, i64 144, i1 false)
  %325 = add nsw i64 %316, 3
  %326 = load ptr, ptr %296, align 8, !tbaa !21
  %327 = getelementptr inbounds %struct.btSolverConstraint, ptr %326, i64 %325
  tail call void @llvm.memset.p0.i64(ptr noundef nonnull align 8 dereferenceable(144) %327, i8 0, i64 144, i1 false)
  %328 = add nsw i64 %316, 4
  %329 = icmp eq i64 %328, %298
  br i1 %329, label %330, label %315

330:                                              ; preds = %312, %315, %237
  store i32 %238, ptr %239, align 4, !tbaa !22
  br i1 %15, label %331, label %350

331:                                              ; preds = %330
  %332 = getelementptr inbounds %class.btSequentialImpulseConstraintSolver, ptr %0, i64 0, i32 7, i32 5
  %333 = getelementptr inbounds %class.btSequentialImpulseConstraintSolver, ptr %0, i64 0, i32 3, i32 5
  %334 = getelementptr inbounds %struct.btContactSolverInfoData, ptr %7, i64 0, i32 3
  %335 = getelementptr inbounds %struct.btContactSolverInfoData, ptr %7, i64 0, i32 8
  %336 = getelementptr inbounds %"struct.btTypedConstraint::btConstraintInfo2", ptr %11, i64 0, i32 1
  %337 = getelementptr inbounds %"struct.btTypedConstraint::btConstraintInfo2", ptr %11, i64 0, i32 2
  %338 = getelementptr inbounds %"struct.btTypedConstraint::btConstraintInfo2", ptr %11, i64 0, i32 3
  %339 = getelementptr inbounds %"struct.btTypedConstraint::btConstraintInfo2", ptr %11, i64 0, i32 4
  %340 = getelementptr inbounds %"struct.btTypedConstraint::btConstraintInfo2", ptr %11, i64 0, i32 5
  %341 = getelementptr inbounds %"struct.btTypedConstraint::btConstraintInfo2", ptr %11, i64 0, i32 6
  %342 = getelementptr inbounds %"struct.btTypedConstraint::btConstraintInfo2", ptr %11, i64 0, i32 7
  %343 = getelementptr inbounds %"struct.btTypedConstraint::btConstraintInfo2", ptr %11, i64 0, i32 8
  %344 = getelementptr inbounds %"struct.btTypedConstraint::btConstraintInfo2", ptr %11, i64 0, i32 9
  %345 = getelementptr inbounds %"struct.btTypedConstraint::btConstraintInfo2", ptr %11, i64 0, i32 10
  %346 = getelementptr inbounds %struct.btContactSolverInfoData, ptr %7, i64 0, i32 5
  %347 = getelementptr inbounds %"struct.btTypedConstraint::btConstraintInfo2", ptr %11, i64 0, i32 12
  %348 = zext i32 %6 to i64
  %349 = load ptr, ptr %332, align 8, !tbaa !33
  br label %354

350:                                              ; preds = %667, %330
  %351 = icmp sgt i32 %4, 0
  br i1 %351, label %352, label %682

352:                                              ; preds = %350
  %353 = zext i32 %4 to i64
  br label %673

354:                                              ; preds = %331, %667
  %355 = phi ptr [ %349, %331 ], [ %669, %667 ]
  %356 = phi i64 [ 0, %331 ], [ %671, %667 ]
  %357 = phi i32 [ 0, %331 ], [ %670, %667 ]
  %358 = getelementptr inbounds %"struct.btTypedConstraint::btConstraintInfo1", ptr %355, i64 %356
  %359 = load i32, ptr %358, align 4, !tbaa !101
  %360 = icmp eq i32 %359, 0
  br i1 %360, label %667, label %361

361:                                              ; preds = %354
  %362 = load ptr, ptr %333, align 8, !tbaa !21
  %363 = sext i32 %357 to i64
  %364 = getelementptr inbounds %struct.btSolverConstraint, ptr %362, i64 %363
  %365 = getelementptr inbounds ptr, ptr %5, i64 %356
  %366 = load ptr, ptr %365, align 8, !tbaa !70
  %367 = getelementptr inbounds %class.btTypedConstraint, ptr %366, i64 0, i32 5
  %368 = load ptr, ptr %367, align 8, !tbaa !104
  %369 = getelementptr inbounds %class.btTypedConstraint, ptr %366, i64 0, i32 6
  %370 = load ptr, ptr %369, align 8, !tbaa !106
  %371 = invoke noundef i32 @_ZN35btSequentialImpulseConstraintSolver19getOrInitSolverBodyER17btCollisionObject(ptr noundef nonnull align 8 dereferenceable(240) %0, ptr noundef nonnull align 8 dereferenceable(280) %368)
          to label %372 unwind label %395

372:                                              ; preds = %361
  %373 = invoke noundef i32 @_ZN35btSequentialImpulseConstraintSolver19getOrInitSolverBodyER17btCollisionObject(ptr noundef nonnull align 8 dereferenceable(240) %0, ptr noundef nonnull align 8 dereferenceable(280) %370)
          to label %374 unwind label %397

374:                                              ; preds = %372
  %375 = load ptr, ptr %94, align 8, !tbaa !15
  %376 = sext i32 %371 to i64
  %377 = getelementptr inbounds %struct.btSolverBody, ptr %375, i64 %376
  %378 = sext i32 %373 to i64
  %379 = getelementptr inbounds %struct.btSolverBody, ptr %375, i64 %378
  %380 = load i32, ptr %358, align 4, !tbaa !101
  %381 = icmp sgt i32 %380, 0
  br i1 %381, label %382, label %399

382:                                              ; preds = %374, %382
  %383 = phi i64 [ %389, %382 ], [ 0, %374 ]
  %384 = getelementptr inbounds %struct.btSolverConstraint, ptr %364, i64 %383
  call void @llvm.memset.p0.i64(ptr noundef nonnull align 8 dereferenceable(144) %384, i8 0, i64 144, i1 false)
  %385 = getelementptr inbounds %struct.btSolverConstraint, ptr %364, i64 %383, i32 16
  store <2 x float> <float 0xC7EFFFFFE0000000, float 0x47EFFFFFE0000000>, ptr %385, align 8, !tbaa !46
  %386 = getelementptr inbounds %struct.btSolverConstraint, ptr %364, i64 %383, i32 5
  store <2 x float> zeroinitializer, ptr %386, align 8, !tbaa !46
  %387 = getelementptr inbounds %struct.btSolverConstraint, ptr %364, i64 %383, i32 11
  store i32 %371, ptr %387, align 8, !tbaa !64
  %388 = getelementptr inbounds %struct.btSolverConstraint, ptr %364, i64 %383, i32 12
  store i32 %373, ptr %388, align 4, !tbaa !64
  %389 = add nuw nsw i64 %383, 1
  %390 = load i32, ptr %358, align 4, !tbaa !101
  %391 = sext i32 %390 to i64
  %392 = icmp slt i64 %389, %391
  br i1 %392, label %382, label %399

393:                                              ; preds = %293, %248
  %394 = landingpad { ptr, i32 }
          cleanup
  br label %951

395:                                              ; preds = %361
  %396 = landingpad { ptr, i32 }
          cleanup
  br label %951

397:                                              ; preds = %372
  %398 = landingpad { ptr, i32 }
          cleanup
  br label %951

399:                                              ; preds = %382, %374
  call void @llvm.memset.p0.i64(ptr noundef nonnull align 4 dereferenceable(32) %377, i8 0, i64 32, i1 false)
  call void @llvm.memset.p0.i64(ptr noundef nonnull align 4 dereferenceable(32) %379, i8 0, i64 32, i1 false)
  call void @llvm.lifetime.start.p0(i64 96, ptr nonnull %11) #19
  %400 = load float, ptr %334, align 4, !tbaa !93
  %401 = fdiv float 1.000000e+00, %400
  store float %401, ptr %11, align 8, !tbaa !107
  %402 = load float, ptr %335, align 4, !tbaa !92
  store float %402, ptr %336, align 4, !tbaa !109
  %403 = getelementptr inbounds %struct.btSolverConstraint, ptr %362, i64 %363, i32 1
  store ptr %403, ptr %337, align 8, !tbaa !110
  store ptr %364, ptr %338, align 8, !tbaa !111
  store ptr null, ptr %339, align 8, !tbaa !112
  %404 = getelementptr inbounds %struct.btSolverConstraint, ptr %362, i64 %363, i32 2
  store ptr %404, ptr %340, align 8, !tbaa !113
  store i32 36, ptr %341, align 8, !tbaa !114
  %405 = getelementptr inbounds %struct.btSolverConstraint, ptr %362, i64 %363, i32 14
  store ptr %405, ptr %342, align 8, !tbaa !115
  %406 = getelementptr inbounds %struct.btSolverConstraint, ptr %362, i64 %363, i32 15
  store ptr %406, ptr %343, align 8, !tbaa !116
  %407 = getelementptr inbounds %struct.btSolverConstraint, ptr %362, i64 %363, i32 16
  store ptr %407, ptr %344, align 8, !tbaa !117
  %408 = getelementptr inbounds %struct.btSolverConstraint, ptr %362, i64 %363, i32 17
  store ptr %408, ptr %345, align 8, !tbaa !118
  %409 = load i32, ptr %346, align 4, !tbaa !119
  store i32 %409, ptr %347, align 8, !tbaa !120
  %410 = load ptr, ptr %365, align 8, !tbaa !70
  %411 = load ptr, ptr %410, align 8, !tbaa !5
  %412 = getelementptr inbounds ptr, ptr %411, i64 5
  %413 = load ptr, ptr %412, align 8
  invoke void %413(ptr noundef nonnull align 8 dereferenceable(96) %410, ptr noundef nonnull %11)
          to label %414 unwind label %661

414:                                              ; preds = %399
  %415 = load i32, ptr %358, align 4, !tbaa !101
  %416 = icmp sgt i32 %415, 0
  br i1 %416, label %417, label %663

417:                                              ; preds = %414
  %418 = getelementptr inbounds %class.btRigidBody, ptr %368, i64 0, i32 4
  %419 = getelementptr inbounds %class.btRigidBody, ptr %368, i64 0, i32 1
  %420 = getelementptr inbounds %class.btRigidBody, ptr %368, i64 0, i32 1, i32 0, i64 0, i32 0, i64 1
  %421 = getelementptr inbounds %class.btRigidBody, ptr %368, i64 0, i32 1, i32 0, i64 0, i32 0, i64 2
  %422 = getelementptr inbounds %class.btRigidBody, ptr %368, i64 0, i32 1, i32 0, i64 1
  %423 = getelementptr inbounds %class.btRigidBody, ptr %368, i64 0, i32 1, i32 0, i64 1, i32 0, i64 1
  %424 = getelementptr inbounds %class.btRigidBody, ptr %368, i64 0, i32 1, i32 0, i64 1, i32 0, i64 2
  %425 = getelementptr inbounds %class.btRigidBody, ptr %368, i64 0, i32 1, i32 0, i64 2
  %426 = getelementptr inbounds %class.btRigidBody, ptr %368, i64 0, i32 1, i32 0, i64 2, i32 0, i64 1
  %427 = getelementptr inbounds %class.btRigidBody, ptr %368, i64 0, i32 1, i32 0, i64 2, i32 0, i64 2
  %428 = getelementptr inbounds %class.btRigidBody, ptr %370, i64 0, i32 4
  %429 = getelementptr inbounds %class.btRigidBody, ptr %370, i64 0, i32 1
  %430 = getelementptr inbounds %class.btRigidBody, ptr %370, i64 0, i32 1, i32 0, i64 0, i32 0, i64 1
  %431 = getelementptr inbounds %class.btRigidBody, ptr %370, i64 0, i32 1, i32 0, i64 0, i32 0, i64 2
  %432 = getelementptr inbounds %class.btRigidBody, ptr %370, i64 0, i32 1, i32 0, i64 1
  %433 = getelementptr inbounds %class.btRigidBody, ptr %370, i64 0, i32 1, i32 0, i64 1, i32 0, i64 1
  %434 = getelementptr inbounds %class.btRigidBody, ptr %370, i64 0, i32 1, i32 0, i64 1, i32 0, i64 2
  %435 = getelementptr inbounds %class.btRigidBody, ptr %370, i64 0, i32 1, i32 0, i64 2
  %436 = getelementptr inbounds %class.btRigidBody, ptr %370, i64 0, i32 1, i32 0, i64 2, i32 0, i64 1
  %437 = getelementptr inbounds %class.btRigidBody, ptr %370, i64 0, i32 1, i32 0, i64 2, i32 0, i64 2
  %438 = getelementptr inbounds %class.btRigidBody, ptr %368, i64 0, i32 2
  %439 = getelementptr inbounds %class.btRigidBody, ptr %368, i64 0, i32 2, i32 0, i64 1
  %440 = getelementptr inbounds %class.btRigidBody, ptr %368, i64 0, i32 2, i32 0, i64 2
  %441 = getelementptr inbounds %class.btRigidBody, ptr %368, i64 0, i32 3
  %442 = getelementptr inbounds %class.btRigidBody, ptr %368, i64 0, i32 3, i32 0, i64 1
  %443 = getelementptr inbounds %class.btRigidBody, ptr %368, i64 0, i32 3, i32 0, i64 2
  %444 = getelementptr inbounds %class.btRigidBody, ptr %370, i64 0, i32 2
  %445 = getelementptr inbounds %class.btRigidBody, ptr %370, i64 0, i32 2, i32 0, i64 1
  %446 = getelementptr inbounds %class.btRigidBody, ptr %370, i64 0, i32 2, i32 0, i64 2
  %447 = getelementptr inbounds %class.btRigidBody, ptr %370, i64 0, i32 3
  %448 = getelementptr inbounds %class.btRigidBody, ptr %370, i64 0, i32 3, i32 0, i64 1
  %449 = getelementptr inbounds %class.btRigidBody, ptr %370, i64 0, i32 3, i32 0, i64 2
  br label %450

450:                                              ; preds = %417, %450
  %451 = phi i64 [ 0, %417 ], [ %657, %450 ]
  %452 = getelementptr inbounds %struct.btSolverConstraint, ptr %364, i64 %451
  %453 = load ptr, ptr %367, align 8, !tbaa !104
  %454 = getelementptr inbounds %class.btRigidBody, ptr %453, i64 0, i32 1
  %455 = load float, ptr %452, align 4, !tbaa !46
  %456 = getelementptr inbounds %class.btRigidBody, ptr %453, i64 0, i32 1, i32 0, i64 0, i32 0, i64 1
  %457 = getelementptr inbounds [4 x float], ptr %452, i64 0, i64 1
  %458 = load float, ptr %457, align 4, !tbaa !46
  %459 = getelementptr inbounds %class.btRigidBody, ptr %453, i64 0, i32 1, i32 0, i64 0, i32 0, i64 2
  %460 = getelementptr inbounds [4 x float], ptr %452, i64 0, i64 2
  %461 = load float, ptr %460, align 4, !tbaa !46
  %462 = getelementptr inbounds %class.btRigidBody, ptr %453, i64 0, i32 1, i32 0, i64 1
  %463 = getelementptr inbounds %class.btRigidBody, ptr %453, i64 0, i32 1, i32 0, i64 1, i32 0, i64 1
  %464 = getelementptr inbounds %class.btRigidBody, ptr %453, i64 0, i32 1, i32 0, i64 1, i32 0, i64 2
  %465 = getelementptr inbounds %class.btRigidBody, ptr %453, i64 0, i32 1, i32 0, i64 2
  %466 = load float, ptr %465, align 4, !tbaa !46
  %467 = getelementptr inbounds %class.btRigidBody, ptr %453, i64 0, i32 1, i32 0, i64 2, i32 0, i64 1
  %468 = load float, ptr %467, align 4, !tbaa !46
  %469 = fmul float %458, %468
  %470 = call float @llvm.fmuladd.f32(float %466, float %455, float %469)
  %471 = getelementptr inbounds %class.btRigidBody, ptr %453, i64 0, i32 1, i32 0, i64 2, i32 0, i64 2
  %472 = load float, ptr %471, align 4, !tbaa !46
  %473 = call float @llvm.fmuladd.f32(float %472, float %461, float %470)
  %474 = getelementptr inbounds %class.btRigidBody, ptr %453, i64 0, i32 5
  %475 = load float, ptr %454, align 4, !tbaa !46
  %476 = load float, ptr %456, align 4, !tbaa !46
  %477 = load float, ptr %459, align 4, !tbaa !46
  %478 = load float, ptr %462, align 4, !tbaa !46
  %479 = load float, ptr %463, align 4, !tbaa !46
  %480 = insertelement <2 x float> poison, float %458, i64 0
  %481 = shufflevector <2 x float> %480, <2 x float> poison, <2 x i32> zeroinitializer
  %482 = insertelement <2 x float> poison, float %476, i64 0
  %483 = insertelement <2 x float> %482, float %479, i64 1
  %484 = fmul <2 x float> %481, %483
  %485 = insertelement <2 x float> poison, float %475, i64 0
  %486 = insertelement <2 x float> %485, float %478, i64 1
  %487 = insertelement <2 x float> poison, float %455, i64 0
  %488 = shufflevector <2 x float> %487, <2 x float> poison, <2 x i32> zeroinitializer
  %489 = call <2 x float> @llvm.fmuladd.v2f32(<2 x float> %486, <2 x float> %488, <2 x float> %484)
  %490 = load float, ptr %464, align 4, !tbaa !46
  %491 = insertelement <2 x float> poison, float %477, i64 0
  %492 = insertelement <2 x float> %491, float %490, i64 1
  %493 = insertelement <2 x float> poison, float %461, i64 0
  %494 = shufflevector <2 x float> %493, <2 x float> poison, <2 x i32> zeroinitializer
  %495 = call <2 x float> @llvm.fmuladd.v2f32(<2 x float> %492, <2 x float> %494, <2 x float> %489)
  %496 = load <2 x float>, ptr %474, align 4, !tbaa !46
  %497 = fmul <2 x float> %495, %496
  %498 = getelementptr inbounds %class.btRigidBody, ptr %453, i64 0, i32 5, i32 0, i64 2
  %499 = load float, ptr %498, align 4, !tbaa !46
  %500 = fmul float %473, %499
  %501 = insertelement <2 x float> <float poison, float 0.000000e+00>, float %500, i64 0
  %502 = getelementptr inbounds %struct.btSolverConstraint, ptr %364, i64 %451, i32 3
  store <2 x float> %497, ptr %502, align 8, !tbaa.struct !63
  %503 = getelementptr inbounds i8, ptr %502, i64 8
  store <2 x float> %501, ptr %503, align 8, !tbaa.struct !65
  %504 = getelementptr inbounds %struct.btSolverConstraint, ptr %364, i64 %451, i32 2
  %505 = load ptr, ptr %369, align 8, !tbaa !106
  %506 = getelementptr inbounds %class.btRigidBody, ptr %505, i64 0, i32 1
  %507 = load float, ptr %504, align 4, !tbaa !46
  %508 = getelementptr inbounds %class.btRigidBody, ptr %505, i64 0, i32 1, i32 0, i64 0, i32 0, i64 1
  %509 = getelementptr inbounds [4 x float], ptr %504, i64 0, i64 1
  %510 = load float, ptr %509, align 4, !tbaa !46
  %511 = getelementptr inbounds %class.btRigidBody, ptr %505, i64 0, i32 1, i32 0, i64 0, i32 0, i64 2
  %512 = getelementptr inbounds [4 x float], ptr %504, i64 0, i64 2
  %513 = load float, ptr %512, align 4, !tbaa !46
  %514 = getelementptr inbounds %class.btRigidBody, ptr %505, i64 0, i32 1, i32 0, i64 1
  %515 = getelementptr inbounds %class.btRigidBody, ptr %505, i64 0, i32 1, i32 0, i64 1, i32 0, i64 1
  %516 = getelementptr inbounds %class.btRigidBody, ptr %505, i64 0, i32 1, i32 0, i64 1, i32 0, i64 2
  %517 = getelementptr inbounds %class.btRigidBody, ptr %505, i64 0, i32 1, i32 0, i64 2
  %518 = load float, ptr %517, align 4, !tbaa !46
  %519 = getelementptr inbounds %class.btRigidBody, ptr %505, i64 0, i32 1, i32 0, i64 2, i32 0, i64 1
  %520 = load float, ptr %519, align 4, !tbaa !46
  %521 = fmul float %510, %520
  %522 = call float @llvm.fmuladd.f32(float %518, float %507, float %521)
  %523 = getelementptr inbounds %class.btRigidBody, ptr %505, i64 0, i32 1, i32 0, i64 2, i32 0, i64 2
  %524 = load float, ptr %523, align 4, !tbaa !46
  %525 = call float @llvm.fmuladd.f32(float %524, float %513, float %522)
  %526 = getelementptr inbounds %class.btRigidBody, ptr %505, i64 0, i32 5
  %527 = load float, ptr %506, align 4, !tbaa !46
  %528 = load float, ptr %508, align 4, !tbaa !46
  %529 = load float, ptr %511, align 4, !tbaa !46
  %530 = load float, ptr %514, align 4, !tbaa !46
  %531 = load float, ptr %515, align 4, !tbaa !46
  %532 = insertelement <2 x float> poison, float %510, i64 0
  %533 = shufflevector <2 x float> %532, <2 x float> poison, <2 x i32> zeroinitializer
  %534 = insertelement <2 x float> poison, float %528, i64 0
  %535 = insertelement <2 x float> %534, float %531, i64 1
  %536 = fmul <2 x float> %533, %535
  %537 = insertelement <2 x float> poison, float %527, i64 0
  %538 = insertelement <2 x float> %537, float %530, i64 1
  %539 = insertelement <2 x float> poison, float %507, i64 0
  %540 = shufflevector <2 x float> %539, <2 x float> poison, <2 x i32> zeroinitializer
  %541 = call <2 x float> @llvm.fmuladd.v2f32(<2 x float> %538, <2 x float> %540, <2 x float> %536)
  %542 = load float, ptr %516, align 4, !tbaa !46
  %543 = insertelement <2 x float> poison, float %529, i64 0
  %544 = insertelement <2 x float> %543, float %542, i64 1
  %545 = insertelement <2 x float> poison, float %513, i64 0
  %546 = shufflevector <2 x float> %545, <2 x float> poison, <2 x i32> zeroinitializer
  %547 = call <2 x float> @llvm.fmuladd.v2f32(<2 x float> %544, <2 x float> %546, <2 x float> %541)
  %548 = load <2 x float>, ptr %526, align 4, !tbaa !46
  %549 = fmul <2 x float> %547, %548
  %550 = getelementptr inbounds %class.btRigidBody, ptr %505, i64 0, i32 5, i32 0, i64 2
  %551 = load float, ptr %550, align 4, !tbaa !46
  %552 = fmul float %525, %551
  %553 = insertelement <2 x float> <float poison, float 0.000000e+00>, float %552, i64 0
  %554 = getelementptr inbounds %struct.btSolverConstraint, ptr %364, i64 %451, i32 4
  store <2 x float> %549, ptr %554, align 8, !tbaa.struct !63
  %555 = getelementptr inbounds i8, ptr %554, i64 8
  store <2 x float> %553, ptr %555, align 8, !tbaa.struct !65
  %556 = getelementptr inbounds %struct.btSolverConstraint, ptr %364, i64 %451, i32 1
  %557 = load float, ptr %418, align 8, !tbaa !59
  %558 = load float, ptr %556, align 4, !tbaa !46
  %559 = fmul float %557, %558
  %560 = getelementptr inbounds [4 x float], ptr %556, i64 0, i64 1
  %561 = load float, ptr %560, align 4, !tbaa !46
  %562 = fmul float %557, %561
  %563 = getelementptr inbounds [4 x float], ptr %556, i64 0, i64 2
  %564 = load float, ptr %563, align 4, !tbaa !46
  %565 = fmul float %557, %564
  %566 = load float, ptr %419, align 4, !tbaa !46
  %567 = load float, ptr %420, align 4, !tbaa !46
  %568 = fmul float %458, %567
  %569 = call float @llvm.fmuladd.f32(float %566, float %455, float %568)
  %570 = load float, ptr %421, align 4, !tbaa !46
  %571 = call float @llvm.fmuladd.f32(float %570, float %461, float %569)
  %572 = load float, ptr %422, align 4, !tbaa !46
  %573 = load float, ptr %423, align 4, !tbaa !46
  %574 = fmul float %458, %573
  %575 = call float @llvm.fmuladd.f32(float %572, float %455, float %574)
