; ModuleID = '/usr/local/google/home/aeubanks/repos/test-suite/MultiSource/Benchmarks/Bullet/btSoftBodyHelpers.cpp'
source_filename = "/usr/local/google/home/aeubanks/repos/test-suite/MultiSource/Benchmarks/Bullet/btSoftBodyHelpers.cpp"
target datalayout = "e-m:e-p270:32:32-p271:32:32-p272:64:64-i64:64-f80:128-n8:16:32:64-S128"
target triple = "x86_64-unknown-linux-gnu"

%class.btVector3 = type { [4 x float] }
%class.btTransform = type { %class.btMatrix3x3, %class.btVector3 }
%class.btMatrix3x3 = type { [3 x %class.btVector3] }
%class.HullDesc = type { i32, i32, ptr, i32, float, i32, i32 }
%class.HullResult = type { i8, i32, %class.btAlignedObjectArray.8, i32, i32, %class.btAlignedObjectArray.84 }
%class.btAlignedObjectArray.8 = type <{ %class.btAlignedAllocator.9, [3 x i8], i32, i32, [4 x i8], ptr, i8, [7 x i8] }>
%class.btAlignedAllocator.9 = type { i8 }
%class.btAlignedObjectArray.84 = type <{ %class.btAlignedAllocator.85, [3 x i8], i32, i32, [4 x i8], ptr, i8, [7 x i8] }>
%class.btAlignedAllocator.85 = type { i8 }
%class.HullLibrary = type { %class.btAlignedObjectArray.88, %class.btAlignedObjectArray.80 }
%class.btAlignedObjectArray.88 = type <{ %class.btAlignedAllocator.89, [3 x i8], i32, i32, [4 x i8], ptr, i8, [7 x i8] }>
%class.btAlignedAllocator.89 = type { i8 }
%class.btAlignedObjectArray.80 = type <{ %class.btAlignedAllocator.81, [3 x i8], i32, i32, [4 x i8], ptr, i8, [7 x i8] }>
%class.btAlignedAllocator.81 = type { i8 }
%class.btSoftBody = type { %class.btCollisionObject, %class.btAlignedObjectArray, %"struct.btSoftBody::Config", %"struct.btSoftBody::SolverState", [4 x i8], %"struct.btSoftBody::Pose", ptr, ptr, %class.btAlignedObjectArray.20, %class.btAlignedObjectArray.24, %class.btAlignedObjectArray.28, %class.btAlignedObjectArray.32, %class.btAlignedObjectArray.36, %class.btAlignedObjectArray.40, %class.btAlignedObjectArray.48, %class.btAlignedObjectArray.52, %class.btAlignedObjectArray.56, %class.btAlignedObjectArray.64, float, [2 x %class.btVector3], i8, %struct.btDbvt, %struct.btDbvt, %struct.btDbvt, %class.btAlignedObjectArray.72, %class.btAlignedObjectArray.76, %class.btTransform, %class.btAlignedObjectArray.80 }
%class.btCollisionObject = type { ptr, %class.btTransform, %class.btTransform, %class.btVector3, %class.btVector3, %class.btVector3, i8, float, ptr, ptr, ptr, i32, i32, i32, i32, float, float, float, ptr, i32, float, float, float, i8, [7 x i8] }
%class.btAlignedObjectArray = type <{ %class.btAlignedAllocator, [3 x i8], i32, i32, [4 x i8], ptr, i8, [7 x i8] }>
%class.btAlignedAllocator = type { i8 }
%"struct.btSoftBody::Config" = type { i32, float, float, float, float, float, float, float, float, float, float, float, float, float, float, float, float, float, float, float, float, i32, i32, i32, i32, i32, %class.btAlignedObjectArray.0, %class.btAlignedObjectArray.4, %class.btAlignedObjectArray.4 }
%class.btAlignedObjectArray.0 = type <{ %class.btAlignedAllocator.1, [3 x i8], i32, i32, [4 x i8], ptr, i8, [7 x i8] }>
%class.btAlignedAllocator.1 = type { i8 }
%class.btAlignedObjectArray.4 = type <{ %class.btAlignedAllocator.5, [3 x i8], i32, i32, [4 x i8], ptr, i8, [7 x i8] }>
%class.btAlignedAllocator.5 = type { i8 }
%"struct.btSoftBody::SolverState" = type { float, float, float, float, float }
%"struct.btSoftBody::Pose" = type { i8, i8, float, %class.btAlignedObjectArray.8, %class.btAlignedObjectArray.12, %class.btVector3, %class.btMatrix3x3, %class.btMatrix3x3, %class.btMatrix3x3 }
%class.btAlignedObjectArray.12 = type <{ %class.btAlignedAllocator.13, [3 x i8], i32, i32, [4 x i8], ptr, i8, [7 x i8] }>
%class.btAlignedAllocator.13 = type { i8 }
%class.btAlignedObjectArray.20 = type <{ %class.btAlignedAllocator.21, [3 x i8], i32, i32, [4 x i8], ptr, i8, [7 x i8] }>
%class.btAlignedAllocator.21 = type { i8 }
%class.btAlignedObjectArray.24 = type <{ %class.btAlignedAllocator.25, [3 x i8], i32, i32, [4 x i8], ptr, i8, [7 x i8] }>
%class.btAlignedAllocator.25 = type { i8 }
%class.btAlignedObjectArray.28 = type <{ %class.btAlignedAllocator.29, [3 x i8], i32, i32, [4 x i8], ptr, i8, [7 x i8] }>
%class.btAlignedAllocator.29 = type { i8 }
%class.btAlignedObjectArray.32 = type <{ %class.btAlignedAllocator.33, [3 x i8], i32, i32, [4 x i8], ptr, i8, [7 x i8] }>
%class.btAlignedAllocator.33 = type { i8 }
%class.btAlignedObjectArray.36 = type <{ %class.btAlignedAllocator.37, [3 x i8], i32, i32, [4 x i8], ptr, i8, [7 x i8] }>
%class.btAlignedAllocator.37 = type { i8 }
%class.btAlignedObjectArray.40 = type <{ %class.btAlignedAllocator.41, [3 x i8], i32, i32, [4 x i8], ptr, i8, [7 x i8] }>
%class.btAlignedAllocator.41 = type { i8 }
%class.btAlignedObjectArray.48 = type <{ %class.btAlignedAllocator.49, [3 x i8], i32, i32, [4 x i8], ptr, i8, [7 x i8] }>
%class.btAlignedAllocator.49 = type { i8 }
%class.btAlignedObjectArray.52 = type <{ %class.btAlignedAllocator.53, [3 x i8], i32, i32, [4 x i8], ptr, i8, [7 x i8] }>
%class.btAlignedAllocator.53 = type { i8 }
%class.btAlignedObjectArray.56 = type <{ %class.btAlignedAllocator.57, [3 x i8], i32, i32, [4 x i8], ptr, i8, [7 x i8] }>
%class.btAlignedAllocator.57 = type { i8 }
%class.btAlignedObjectArray.64 = type <{ %class.btAlignedAllocator.65, [3 x i8], i32, i32, [4 x i8], ptr, i8, [7 x i8] }>
%class.btAlignedAllocator.65 = type { i8 }
%struct.btDbvt = type { ptr, ptr, i32, i32, i32, [4 x i8], %class.btAlignedObjectArray.68 }
%class.btAlignedObjectArray.68 = type <{ %class.btAlignedAllocator.69, [3 x i8], i32, i32, [4 x i8], ptr, i8, [7 x i8] }>
%class.btAlignedAllocator.69 = type { i8 }
%class.btAlignedObjectArray.72 = type <{ %class.btAlignedAllocator.73, [3 x i8], i32, i32, [4 x i8], ptr, i8, [7 x i8] }>
%class.btAlignedAllocator.73 = type { i8 }
%class.btAlignedObjectArray.76 = type <{ %class.btAlignedAllocator.77, [3 x i8], i32, i32, [4 x i8], ptr, i8, [7 x i8] }>
%class.btAlignedAllocator.77 = type { i8 }
%"struct.btSoftBody::Node" = type <{ %"struct.btSoftBody::Feature", %class.btVector3, %class.btVector3, %class.btVector3, %class.btVector3, %class.btVector3, float, float, ptr, i8, [7 x i8] }>
%"struct.btSoftBody::Feature" = type { %"struct.btSoftBody::Element", ptr }
%"struct.btSoftBody::Element" = type { ptr }
%"struct.btSoftBody::Material" = type { %"struct.btSoftBody::Element", float, float, float, i32 }
%"struct.btSoftBody::Link" = type <{ %"struct.btSoftBody::Feature", [2 x ptr], float, i8, [3 x i8], float, float, float, %class.btVector3, [4 x i8] }>
%"struct.btSoftBody::RContact" = type <{ %"struct.btSoftBody::sCti", ptr, %class.btMatrix3x3, %class.btVector3, float, float, float, [4 x i8] }>
%"struct.btSoftBody::sCti" = type <{ ptr, %class.btVector3, float, [4 x i8] }>
%"struct.btSoftBody::Anchor" = type <{ ptr, %class.btVector3, ptr, %class.btMatrix3x3, %class.btVector3, float, [4 x i8] }>
%"struct.btSoftBody::Face" = type { %"struct.btSoftBody::Feature", [3 x ptr], %class.btVector3, float, ptr }
%"struct.btSoftBody::Cluster" = type { %class.btAlignedObjectArray.59, %class.btAlignedObjectArray.12, %class.btAlignedObjectArray.8, %class.btTransform, float, float, %class.btMatrix3x3, %class.btMatrix3x3, %class.btVector3, [2 x %class.btVector3], [2 x %class.btVector3], i32, i32, %class.btVector3, %class.btVector3, ptr, float, float, float, float, float, float, i8, i8, i32 }
%class.btAlignedObjectArray.59 = type <{ %class.btAlignedAllocator.60, [3 x i8], i32, i32, [4 x i8], ptr, i8, [7 x i8] }>
%class.btAlignedAllocator.60 = type { i8 }
%"struct.btSoftBody::Tetra" = type { %"struct.btSoftBody::Feature", [4 x ptr], float, ptr, [4 x %class.btVector3], float, float }
%"struct.btSoftBody::Note" = type { %"struct.btSoftBody::Element", ptr, %class.btVector3, i32, [4 x ptr], [4 x float] }
%"struct.btSoftBody::Joint" = type <{ ptr, [2 x %"struct.btSoftBody::Body"], [2 x %class.btVector3], float, float, float, %class.btVector3, %class.btVector3, %class.btMatrix3x3, i8, [3 x i8] }>
%"struct.btSoftBody::Body" = type { ptr, ptr, ptr }
%struct.btDbvtNode = type { %struct.btDbvtAabbMm, ptr, %union.anon }
%struct.btDbvtAabbMm = type { %class.btVector3, %class.btVector3 }
%union.anon = type { [2 x ptr] }

$_ZN11HullLibraryD2Ev = comdat any

$__clang_call_terminate = comdat any

$_ZN10HullResultD2Ev = comdat any

$_ZN20btAlignedObjectArrayI9btVector3ED2Ev = comdat any

$_ZN20btAlignedObjectArrayIP14btHullTriangleED2Ev = comdat any

$_ZN11btTransform11getIdentityEv = comdat any

$_ZN11btMatrix3x311getIdentityEv = comdat any

$_ZZNK10btSoftBody4Body5xformEvE8identity = comdat any

$_ZGVZNK10btSoftBody4Body5xformEvE8identity = comdat any

$_ZZN11btTransform11getIdentityEvE17identityTransform = comdat any

$_ZGVZN11btTransform11getIdentityEvE17identityTransform = comdat any

$_ZZN11btMatrix3x311getIdentityEvE14identityMatrix = comdat any

$_ZGVZN11btMatrix3x311getIdentityEvE14identityMatrix = comdat any

@_ZZN17btSoftBodyHelpers4DrawEP10btSoftBodyP12btIDebugDrawiE4axis = internal global [3 x %class.btVector3] zeroinitializer, align 16
@_ZGVZN17btSoftBodyHelpers4DrawEP10btSoftBodyP12btIDebugDrawiE4axis = internal global i64 0, align 8
@.str = private unnamed_addr constant [9 x i8] c" M(%.2f)\00", align 1
@.str.1 = private unnamed_addr constant [9 x i8] c" A(%.2f)\00", align 1
@.str.2 = private unnamed_addr constant [12 x i8] c"%d %d %d %d\00", align 1
@.str.3 = private unnamed_addr constant [12 x i8] c"%d %f %f %f\00", align 1
@.str.4 = private unnamed_addr constant [9 x i8] c"%d %d %d\00", align 1
@.str.5 = private unnamed_addr constant [15 x i8] c"%d %d %d %d %d\00", align 1
@.str.6 = private unnamed_addr constant [13 x i8] c"Nodes:  %u\0D\0A\00", align 1
@.str.7 = private unnamed_addr constant [13 x i8] c"Links:  %u\0D\0A\00", align 1
@.str.8 = private unnamed_addr constant [13 x i8] c"Faces:  %u\0D\0A\00", align 1
@.str.9 = private unnamed_addr constant [13 x i8] c"Tetras: %u\0D\0A\00", align 1
@_ZZNK10btSoftBody4Body5xformEvE8identity = linkonce_odr dso_local global %class.btTransform zeroinitializer, comdat, align 4
@_ZGVZNK10btSoftBody4Body5xformEvE8identity = linkonce_odr dso_local global i64 0, comdat, align 8
@_ZZN11btTransform11getIdentityEvE17identityTransform = linkonce_odr dso_local global %class.btTransform zeroinitializer, comdat, align 4
@_ZGVZN11btTransform11getIdentityEvE17identityTransform = linkonce_odr dso_local global i64 0, comdat, align 8
@_ZZN11btMatrix3x311getIdentityEvE14identityMatrix = linkonce_odr dso_local global %class.btMatrix3x3 zeroinitializer, comdat, align 4
@_ZGVZN11btMatrix3x311getIdentityEvE14identityMatrix = linkonce_odr dso_local global i64 0, comdat, align 8

; Function Attrs: uwtable
define dso_local void @_ZN17btSoftBodyHelpers4DrawEP10btSoftBodyP12btIDebugDrawi(ptr nocapture noundef readonly %psb, ptr noundef %idraw, i32 noundef %drawflags) local_unnamed_addr #0 align 2 personality ptr @__gxx_personality_v0 {
entry:
  %ref.tmp.i2674 = alloca %class.btVector3, align 8
  %ref.tmp4.i2675 = alloca %class.btVector3, align 8
  %ref.tmp10.i2676 = alloca %class.btVector3, align 8
  %ref.tmp16.i2677 = alloca %class.btVector3, align 8
  %ref.tmp24.i2678 = alloca %class.btVector3, align 8
  %ref.tmp30.i2679 = alloca %class.btVector3, align 8
  %ref.tmp.i2627 = alloca %class.btVector3, align 8
  %ref.tmp4.i2628 = alloca %class.btVector3, align 8
  %ref.tmp10.i2629 = alloca %class.btVector3, align 8
  %ref.tmp16.i2630 = alloca %class.btVector3, align 8
  %ref.tmp24.i2631 = alloca %class.btVector3, align 8
  %ref.tmp30.i2632 = alloca %class.btVector3, align 8
  %ref.tmp.i2501 = alloca %class.btVector3, align 16
  %ref.tmp4.i2502 = alloca %class.btVector3, align 16
  %ref.tmp.i2493 = alloca %class.btVector3, align 16
  %ref.tmp4.i2494 = alloca %class.btVector3, align 16
  %ref.tmp.i2488 = alloca %class.btVector3, align 16
  %ref.tmp4.i2489 = alloca %class.btVector3, align 16
  %ref.tmp.i1550 = alloca %class.btVector3, align 8
  %ref.tmp4.i1551 = alloca %class.btVector3, align 8
  %ref.tmp10.i1552 = alloca %class.btVector3, align 8
  %ref.tmp16.i1553 = alloca %class.btVector3, align 8
  %ref.tmp24.i1554 = alloca %class.btVector3, align 8
  %ref.tmp30.i1555 = alloca %class.btVector3, align 8
  %ref.tmp.i1496 = alloca %class.btVector3, align 8
  %ref.tmp4.i1497 = alloca %class.btVector3, align 8
  %ref.tmp10.i1498 = alloca %class.btVector3, align 8
  %ref.tmp16.i1499 = alloca %class.btVector3, align 8
  %ref.tmp24.i1500 = alloca %class.btVector3, align 8
  %ref.tmp30.i1501 = alloca %class.btVector3, align 8
  %ref.tmp.i = alloca %class.btVector3, align 8
  %ref.tmp4.i = alloca %class.btVector3, align 8
  %ref.tmp10.i = alloca %class.btVector3, align 8
  %ref.tmp16.i = alloca %class.btVector3, align 8
  %ref.tmp24.i = alloca %class.btVector3, align 8
  %ref.tmp30.i = alloca %class.btVector3, align 8
  %lcolor = alloca %class.btVector3, align 4
  %ncolor = alloca %class.btVector3, align 16
  %ccolor = alloca %class.btVector3, align 16
  %ref.tmp15 = alloca %class.btVector3, align 8
  %ref.tmp20 = alloca %class.btVector3, align 8
  %ref.tmp27 = alloca %class.btVector3, align 16
  %ref.tmp31 = alloca %class.btVector3, align 8
  %ref.tmp38 = alloca %class.btVector3, align 8
  %ref.tmp45 = alloca %class.btVector3, align 16
  %ref.tmp51 = alloca %class.btVector3, align 8
  %ref.tmp58 = alloca %class.btVector3, align 8
  %ref.tmp65 = alloca %class.btVector3, align 16
  %ref.tmp121 = alloca %class.btVector3, align 8
  %ref.tmp128 = alloca %class.btVector3, align 8
  %ref.tmp132 = alloca %class.btVector3, align 8
  %o = alloca %class.btVector3, align 8
  %ref.tmp204 = alloca %class.btVector3, align 8
  %ref.tmp210 = alloca %class.btVector3, align 8
  %ref.tmp218 = alloca %class.btVector3, align 8
  %ref.tmp224 = alloca %class.btVector3, align 8
  %ref.tmp232 = alloca %class.btVector3, align 8
  %ref.tmp244 = alloca %class.btVector3, align 16
  %q = alloca %class.btVector3, align 8
  %ref.tmp268 = alloca %class.btVector3, align 16
  %ref.tmp272 = alloca %class.btVector3, align 16
  %ref.tmp278 = alloca %class.btVector3, align 16
  %ref.tmp304 = alloca %class.btVector3, align 16
  %col = alloca %class.btVector3, align 16
  %ref.tmp359 = alloca %class.btVector3, align 8
  %ref.tmp369 = alloca %class.btVector3, align 8
  %ref.tmp379 = alloca %class.btVector3, align 8
  %color = alloca %class.btVector3, align 8
  %hdsc = alloca %class.HullDesc, align 8
  %hres = alloca %class.HullResult, align 8
  %hlib = alloca %class.HullLibrary, align 8
  %ref.tmp548 = alloca %class.btVector3, align 8
  %ref.tmp555 = alloca %class.btVector3, align 16
  %ref.tmp562 = alloca %class.btVector3, align 8
  %ref.tmp570 = alloca %class.btVector3, align 16
  %ref.tmp577 = alloca %class.btVector3, align 8
  %ref.tmp585 = alloca %class.btVector3, align 16
  %col600 = alloca %class.btVector3, align 16
  %ref.tmp651 = alloca %class.btVector3, align 8
  %ref.tmp661 = alloca %class.btVector3, align 8
  %ref.tmp671 = alloca %class.btVector3, align 8
  %ref.tmp683 = alloca %class.btVector3, align 8
  %ref.tmp693 = alloca %class.btVector3, align 8
  %ref.tmp703 = alloca %class.btVector3, align 8
  %ref.tmp715 = alloca %class.btVector3, align 8
  %ref.tmp725 = alloca %class.btVector3, align 8
  %ref.tmp735 = alloca %class.btVector3, align 8
  %ref.tmp747 = alloca %class.btVector3, align 8
  %ref.tmp757 = alloca %class.btVector3, align 8
  %ref.tmp767 = alloca %class.btVector3, align 8
  %p = alloca %class.btVector3, align 8
  %a0 = alloca %class.btVector3, align 8
  %a1 = alloca %class.btVector3, align 8
  %ref.tmp863 = alloca %class.btVector3, align 16
  %ref.tmp873 = alloca %class.btVector3, align 16
  %ref.tmp879 = alloca %class.btVector3, align 16
  %ref.tmp883 = alloca %class.btVector3, align 16
  %o0 = alloca %class.btVector3, align 8
  %o1 = alloca %class.btVector3, align 8
  %ref.tmp914 = alloca %class.btVector3, align 8
  %ref.tmp921 = alloca %class.btVector3, align 16
  %ref.tmp927 = alloca %class.btVector3, align 8
  %ref.tmp934 = alloca %class.btVector3, align 16
  %ref.tmp940 = alloca %class.btVector3, align 8
  %ref.tmp947 = alloca %class.btVector3, align 16
  %ref.tmp953 = alloca %class.btVector3, align 8
  %ref.tmp960 = alloca %class.btVector3, align 16
  call void @llvm.lifetime.start.p0(i64 16, ptr nonnull %lcolor) #18
  call void @llvm.memset.p0.i64(ptr noundef nonnull align 4 dereferenceable(16) %lcolor, i8 0, i64 16, i1 false)
  call void @llvm.lifetime.start.p0(i64 16, ptr nonnull %ncolor) #18
  %arrayidx5.i1158 = getelementptr inbounds [4 x float], ptr %ncolor, i64 0, i64 2
  store <4 x float> <float 1.000000e+00, float 1.000000e+00, float 1.000000e+00, float 0.000000e+00>, ptr %ncolor, align 16, !tbaa !5
  call void @llvm.lifetime.start.p0(i64 16, ptr nonnull %ccolor) #18
  store <4 x float> <float 1.000000e+00, float 0.000000e+00, float 0.000000e+00, float 0.000000e+00>, ptr %ccolor, align 16, !tbaa !5
  %and = and i32 %drawflags, 1
  %cmp.not = icmp eq i32 %and, 0
  br i1 %cmp.not, label %if.end71, label %for.cond.preheader

for.cond.preheader:                               ; preds = %entry
  %m_size.i = getelementptr inbounds %class.btSoftBody, ptr %psb, i64 0, i32 9, i32 2
  %0 = load i32, ptr %m_size.i, align 4, !tbaa !9
  %cmp93304 = icmp sgt i32 %0, 0
  br i1 %cmp93304, label %for.body.lr.ph, label %if.end71

for.body.lr.ph:                                   ; preds = %for.cond.preheader
  %m_data.i = getelementptr inbounds %class.btSoftBody, ptr %psb, i64 0, i32 9, i32 5
  %1 = getelementptr inbounds { <2 x float>, <2 x float> }, ptr %ref.tmp15, i64 0, i32 1
  %2 = getelementptr inbounds { <2 x float>, <2 x float> }, ptr %ref.tmp20, i64 0, i32 1
  %3 = getelementptr inbounds { <2 x float>, <2 x float> }, ptr %ref.tmp31, i64 0, i32 1
  %4 = getelementptr inbounds { <2 x float>, <2 x float> }, ptr %ref.tmp38, i64 0, i32 1
  %5 = getelementptr inbounds { <2 x float>, <2 x float> }, ptr %ref.tmp51, i64 0, i32 1
  %6 = getelementptr inbounds { <2 x float>, <2 x float> }, ptr %ref.tmp58, i64 0, i32 1
  br label %for.body

for.body:                                         ; preds = %for.body.lr.ph, %cleanup
  %7 = phi i32 [ %0, %for.body.lr.ph ], [ %31, %cleanup ]
  %indvars.iv = phi i64 [ 0, %for.body.lr.ph ], [ %indvars.iv.next, %cleanup ]
  %8 = load ptr, ptr %m_data.i, align 8, !tbaa !15
  %m_material = getelementptr inbounds %"struct.btSoftBody::Node", ptr %8, i64 %indvars.iv, i32 0, i32 1
  %9 = load ptr, ptr %m_material, align 8, !tbaa !16
  %m_flags = getelementptr inbounds %"struct.btSoftBody::Material", ptr %9, i64 0, i32 4
  %10 = load i32, ptr %m_flags, align 4, !tbaa !19
  %and12 = and i32 %10, 1
  %cmp13 = icmp eq i32 %and12, 0
  br i1 %cmp13, label %cleanup, label %if.end

if.end:                                           ; preds = %for.body
  call void @llvm.lifetime.start.p0(i64 16, ptr nonnull %ref.tmp15) #18
  %m_x = getelementptr inbounds %"struct.btSoftBody::Node", ptr %8, i64 %indvars.iv, i32 1
  %11 = load float, ptr %m_x, align 4, !tbaa !5
  %sub.i = fadd float %11, 0xBFB99999A0000000
  %arrayidx5.i1166 = getelementptr inbounds [4 x float], ptr %m_x, i64 0, i64 1
  %12 = load float, ptr %arrayidx5.i1166, align 4, !tbaa !5
  %arrayidx11.i = getelementptr inbounds [4 x float], ptr %m_x, i64 0, i64 2
  %13 = load float, ptr %arrayidx11.i, align 4, !tbaa !5
  %retval.sroa.0.0.vec.insert.i = insertelement <2 x float> undef, float %sub.i, i64 0
  %retval.sroa.0.4.vec.insert.i = insertelement <2 x float> %retval.sroa.0.0.vec.insert.i, float %12, i64 1
  %retval.sroa.3.12.vec.insert.i = insertelement <2 x float> <float poison, float 0.000000e+00>, float %13, i64 0
  store <2 x float> %retval.sroa.0.4.vec.insert.i, ptr %ref.tmp15, align 8
  store <2 x float> %retval.sroa.3.12.vec.insert.i, ptr %1, align 8
  call void @llvm.lifetime.start.p0(i64 16, ptr nonnull %ref.tmp20) #18
  %14 = load <2 x float>, ptr %m_x, align 4, !tbaa !5
  %15 = fadd <2 x float> %14, <float 0x3FB99999A0000000, float 0.000000e+00>
  %16 = load float, ptr %arrayidx11.i, align 4, !tbaa !5
  %add14.i = fadd float %16, 0.000000e+00
  %retval.sroa.3.12.vec.insert.i1177 = insertelement <2 x float> <float poison, float 0.000000e+00>, float %add14.i, i64 0
  store <2 x float> %15, ptr %ref.tmp20, align 8
  store <2 x float> %retval.sroa.3.12.vec.insert.i1177, ptr %2, align 8
  call void @llvm.lifetime.start.p0(i64 16, ptr nonnull %ref.tmp27) #18
  store <4 x float> <float 1.000000e+00, float 0.000000e+00, float 0.000000e+00, float 0.000000e+00>, ptr %ref.tmp27, align 16, !tbaa !5
  %vtable = load ptr, ptr %idraw, align 8, !tbaa !21
  %vfn = getelementptr inbounds ptr, ptr %vtable, i64 5
  %17 = load ptr, ptr %vfn, align 8
  call void %17(ptr noundef nonnull align 8 dereferenceable(8) %idraw, ptr noundef nonnull align 4 dereferenceable(16) %ref.tmp15, ptr noundef nonnull align 4 dereferenceable(16) %ref.tmp20, ptr noundef nonnull align 4 dereferenceable(16) %ref.tmp27)
  call void @llvm.lifetime.end.p0(i64 16, ptr nonnull %ref.tmp27) #18
  call void @llvm.lifetime.end.p0(i64 16, ptr nonnull %ref.tmp20) #18
  call void @llvm.lifetime.end.p0(i64 16, ptr nonnull %ref.tmp15) #18
  call void @llvm.lifetime.start.p0(i64 16, ptr nonnull %ref.tmp31) #18
  %18 = load float, ptr %m_x, align 4, !tbaa !5
  %19 = load float, ptr %arrayidx5.i1166, align 4, !tbaa !5
  %sub8.i1189 = fadd float %19, 0xBFB99999A0000000
  %20 = load float, ptr %arrayidx11.i, align 4, !tbaa !5
  %retval.sroa.0.0.vec.insert.i1193 = insertelement <2 x float> undef, float %18, i64 0
  %retval.sroa.0.4.vec.insert.i1194 = insertelement <2 x float> %retval.sroa.0.0.vec.insert.i1193, float %sub8.i1189, i64 1
  %retval.sroa.3.12.vec.insert.i1195 = insertelement <2 x float> <float poison, float 0.000000e+00>, float %20, i64 0
  store <2 x float> %retval.sroa.0.4.vec.insert.i1194, ptr %ref.tmp31, align 8
  store <2 x float> %retval.sroa.3.12.vec.insert.i1195, ptr %3, align 8
  call void @llvm.lifetime.start.p0(i64 16, ptr nonnull %ref.tmp38) #18
  %21 = load <2 x float>, ptr %m_x, align 4, !tbaa !5
  %22 = fadd <2 x float> %21, <float 0.000000e+00, float 0x3FB99999A0000000>
  %23 = load float, ptr %arrayidx11.i, align 4, !tbaa !5
  %add14.i1207 = fadd float %23, 0.000000e+00
  %retval.sroa.3.12.vec.insert.i1210 = insertelement <2 x float> <float poison, float 0.000000e+00>, float %add14.i1207, i64 0
  store <2 x float> %22, ptr %ref.tmp38, align 8
  store <2 x float> %retval.sroa.3.12.vec.insert.i1210, ptr %4, align 8
  call void @llvm.lifetime.start.p0(i64 16, ptr nonnull %ref.tmp45) #18
  store <4 x float> <float 0.000000e+00, float 1.000000e+00, float 0.000000e+00, float 0.000000e+00>, ptr %ref.tmp45, align 16, !tbaa !5
  %vtable49 = load ptr, ptr %idraw, align 8, !tbaa !21
  %vfn50 = getelementptr inbounds ptr, ptr %vtable49, i64 5
  %24 = load ptr, ptr %vfn50, align 8
  call void %24(ptr noundef nonnull align 8 dereferenceable(8) %idraw, ptr noundef nonnull align 4 dereferenceable(16) %ref.tmp31, ptr noundef nonnull align 4 dereferenceable(16) %ref.tmp38, ptr noundef nonnull align 4 dereferenceable(16) %ref.tmp45)
  call void @llvm.lifetime.end.p0(i64 16, ptr nonnull %ref.tmp45) #18
  call void @llvm.lifetime.end.p0(i64 16, ptr nonnull %ref.tmp38) #18
  call void @llvm.lifetime.end.p0(i64 16, ptr nonnull %ref.tmp31) #18
  call void @llvm.lifetime.start.p0(i64 16, ptr nonnull %ref.tmp51) #18
  %25 = load <2 x float>, ptr %m_x, align 4, !tbaa !5
  %26 = load float, ptr %arrayidx11.i, align 4, !tbaa !5
  %sub14.i1225 = fadd float %26, 0xBFB99999A0000000
  %retval.sroa.3.12.vec.insert.i1228 = insertelement <2 x float> <float poison, float 0.000000e+00>, float %sub14.i1225, i64 0
  store <2 x float> %25, ptr %ref.tmp51, align 8
  store <2 x float> %retval.sroa.3.12.vec.insert.i1228, ptr %5, align 8
  call void @llvm.lifetime.start.p0(i64 16, ptr nonnull %ref.tmp58) #18
  %27 = load <2 x float>, ptr %m_x, align 4, !tbaa !5
  %28 = fadd <2 x float> %27, zeroinitializer
  %29 = load float, ptr %arrayidx11.i, align 4, !tbaa !5
  %add14.i1240 = fadd float %29, 0x3FB99999A0000000
  %retval.sroa.3.12.vec.insert.i1243 = insertelement <2 x float> <float poison, float 0.000000e+00>, float %add14.i1240, i64 0
  store <2 x float> %28, ptr %ref.tmp58, align 8
  store <2 x float> %retval.sroa.3.12.vec.insert.i1243, ptr %6, align 8
  call void @llvm.lifetime.start.p0(i64 16, ptr nonnull %ref.tmp65) #18
  store <4 x float> <float 0.000000e+00, float 0.000000e+00, float 1.000000e+00, float 0.000000e+00>, ptr %ref.tmp65, align 16, !tbaa !5
  %vtable69 = load ptr, ptr %idraw, align 8, !tbaa !21
  %vfn70 = getelementptr inbounds ptr, ptr %vtable69, i64 5
  %30 = load ptr, ptr %vfn70, align 8
  call void %30(ptr noundef nonnull align 8 dereferenceable(8) %idraw, ptr noundef nonnull align 4 dereferenceable(16) %ref.tmp51, ptr noundef nonnull align 4 dereferenceable(16) %ref.tmp58, ptr noundef nonnull align 4 dereferenceable(16) %ref.tmp65)
  call void @llvm.lifetime.end.p0(i64 16, ptr nonnull %ref.tmp65) #18
  call void @llvm.lifetime.end.p0(i64 16, ptr nonnull %ref.tmp58) #18
  call void @llvm.lifetime.end.p0(i64 16, ptr nonnull %ref.tmp51) #18
  %.pre = load i32, ptr %m_size.i, align 4, !tbaa !9
  br label %cleanup

cleanup:                                          ; preds = %for.body, %if.end
  %31 = phi i32 [ %7, %for.body ], [ %.pre, %if.end ]
  %indvars.iv.next = add nuw nsw i64 %indvars.iv, 1
  %32 = sext i32 %31 to i64
  %cmp9 = icmp slt i64 %indvars.iv.next, %32
  br i1 %cmp9, label %for.body, label %if.end71

if.end71:                                         ; preds = %cleanup, %for.cond.preheader, %entry
  %and72 = and i32 %drawflags, 2
  %cmp73.not = icmp eq i32 %and72, 0
  br i1 %cmp73.not, label %if.end99, label %for.cond75.preheader

for.cond75.preheader:                             ; preds = %if.end71
  %m_size.i1249 = getelementptr inbounds %class.btSoftBody, ptr %psb, i64 0, i32 10, i32 2
  %33 = load i32, ptr %m_size.i1249, align 4, !tbaa !23
  %cmp773306 = icmp sgt i32 %33, 0
  br i1 %cmp773306, label %for.body78.lr.ph, label %if.end99

for.body78.lr.ph:                                 ; preds = %for.cond75.preheader
  %m_data.i1250 = getelementptr inbounds %class.btSoftBody, ptr %psb, i64 0, i32 10, i32 5
  br label %for.body78

for.body78:                                       ; preds = %for.body78.lr.ph, %cleanup93
  %34 = phi i32 [ %33, %for.body78.lr.ph ], [ %41, %cleanup93 ]
  %indvars.iv3353 = phi i64 [ 0, %for.body78.lr.ph ], [ %indvars.iv.next3354, %cleanup93 ]
  %35 = load ptr, ptr %m_data.i1250, align 8, !tbaa !26
  %m_material81 = getelementptr inbounds %"struct.btSoftBody::Link", ptr %35, i64 %indvars.iv3353, i32 0, i32 1
  %36 = load ptr, ptr %m_material81, align 8, !tbaa !16
  %m_flags82 = getelementptr inbounds %"struct.btSoftBody::Material", ptr %36, i64 0, i32 4
  %37 = load i32, ptr %m_flags82, align 4, !tbaa !19
  %and83 = and i32 %37, 1
  %cmp84 = icmp eq i32 %and83, 0
  br i1 %cmp84, label %cleanup93, label %if.end86

if.end86:                                         ; preds = %for.body78
  %m_n = getelementptr inbounds %"struct.btSoftBody::Link", ptr %35, i64 %indvars.iv3353, i32 1
  %38 = load ptr, ptr %m_n, align 8, !tbaa !27
  %m_x87 = getelementptr inbounds %"struct.btSoftBody::Node", ptr %38, i64 0, i32 1
  %arrayidx89 = getelementptr inbounds %"struct.btSoftBody::Link", ptr %35, i64 %indvars.iv3353, i32 1, i64 1
  %39 = load ptr, ptr %arrayidx89, align 8, !tbaa !27
  %m_x90 = getelementptr inbounds %"struct.btSoftBody::Node", ptr %39, i64 0, i32 1
  %vtable91 = load ptr, ptr %idraw, align 8, !tbaa !21
  %vfn92 = getelementptr inbounds ptr, ptr %vtable91, i64 5
  %40 = load ptr, ptr %vfn92, align 8
  call void %40(ptr noundef nonnull align 8 dereferenceable(8) %idraw, ptr noundef nonnull align 4 dereferenceable(16) %m_x87, ptr noundef nonnull align 4 dereferenceable(16) %m_x90, ptr noundef nonnull align 4 dereferenceable(16) %lcolor)
  %.pre3397 = load i32, ptr %m_size.i1249, align 4, !tbaa !23
  br label %cleanup93

cleanup93:                                        ; preds = %for.body78, %if.end86
  %41 = phi i32 [ %34, %for.body78 ], [ %.pre3397, %if.end86 ]
  %indvars.iv.next3354 = add nuw nsw i64 %indvars.iv3353, 1
  %42 = sext i32 %41 to i64
  %cmp77 = icmp slt i64 %indvars.iv.next3354, %42
  br i1 %cmp77, label %for.body78, label %if.end99

if.end99:                                         ; preds = %cleanup93, %for.cond75.preheader, %if.end71
  %and100 = and i32 %drawflags, 16
  %cmp101.not = icmp eq i32 %and100, 0
  br i1 %cmp101.not, label %if.end144, label %for.cond103.preheader

for.cond103.preheader:                            ; preds = %if.end99
  %m_size.i1253 = getelementptr inbounds %class.btSoftBody, ptr %psb, i64 0, i32 9, i32 2
  %43 = load i32, ptr %m_size.i1253, align 4, !tbaa !9
  %cmp1063308 = icmp sgt i32 %43, 0
  br i1 %cmp1063308, label %for.body107.lr.ph, label %if.end144

for.body107.lr.ph:                                ; preds = %for.cond103.preheader
  %m_data.i1254 = getelementptr inbounds %class.btSoftBody, ptr %psb, i64 0, i32 9, i32 5
  %44 = getelementptr inbounds { <2 x float>, <2 x float> }, ptr %ref.tmp121, i64 0, i32 1
  %45 = getelementptr inbounds { <2 x float>, <2 x float> }, ptr %ref.tmp128, i64 0, i32 1
  %46 = getelementptr inbounds { <2 x float>, <2 x float> }, ptr %ref.tmp132, i64 0, i32 1
  br label %for.body107

for.body107:                                      ; preds = %for.body107.lr.ph, %cleanup138
  %47 = phi i32 [ %43, %for.body107.lr.ph ], [ %65, %cleanup138 ]
  %indvars.iv3356 = phi i64 [ 0, %for.body107.lr.ph ], [ %indvars.iv.next3357, %cleanup138 ]
  %48 = load ptr, ptr %m_data.i1254, align 8, !tbaa !15
  %m_material111 = getelementptr inbounds %"struct.btSoftBody::Node", ptr %48, i64 %indvars.iv3356, i32 0, i32 1
  %49 = load ptr, ptr %m_material111, align 8, !tbaa !16
  %m_flags112 = getelementptr inbounds %"struct.btSoftBody::Material", ptr %49, i64 0, i32 4
  %50 = load i32, ptr %m_flags112, align 4, !tbaa !19
  %and113 = and i32 %50, 1
  %cmp114 = icmp eq i32 %and113, 0
  br i1 %cmp114, label %cleanup138, label %if.end116

if.end116:                                        ; preds = %for.body107
  %m_n117 = getelementptr inbounds %"struct.btSoftBody::Node", ptr %48, i64 %indvars.iv3356, i32 5
  %arrayidx7.i1258 = getelementptr inbounds [4 x float], ptr %m_n117, i64 0, i64 2
  %51 = load float, ptr %arrayidx7.i1258, align 4, !tbaa !5
  %mul8.i = fmul float %51, 5.000000e-01
  %m_x120 = getelementptr inbounds %"struct.btSoftBody::Node", ptr %48, i64 %indvars.iv3356, i32 1
  %52 = load <2 x float>, ptr %m_n117, align 4, !tbaa !5
  %53 = fmul <2 x float> %52, <float 5.000000e-01, float 5.000000e-01>
  call void @llvm.lifetime.start.p0(i64 16, ptr nonnull %ref.tmp121) #18
  %54 = load <2 x float>, ptr %m_x120, align 4, !tbaa !5
  %55 = fadd <2 x float> %53, %54
  %arrayidx11.i1268 = getelementptr inbounds [4 x float], ptr %m_x120, i64 0, i64 2
  %56 = load float, ptr %arrayidx11.i1268, align 4, !tbaa !5
  %add14.i1270 = fadd float %mul8.i, %56
  %retval.sroa.3.12.vec.insert.i1273 = insertelement <2 x float> <float poison, float 0.000000e+00>, float %add14.i1270, i64 0
  store <2 x float> %55, ptr %ref.tmp121, align 8
  store <2 x float> %retval.sroa.3.12.vec.insert.i1273, ptr %44, align 8
  %vtable125 = load ptr, ptr %idraw, align 8, !tbaa !21
  %vfn126 = getelementptr inbounds ptr, ptr %vtable125, i64 5
  %57 = load ptr, ptr %vfn126, align 8
  call void %57(ptr noundef nonnull align 8 dereferenceable(8) %idraw, ptr noundef nonnull align 4 dereferenceable(16) %m_x120, ptr noundef nonnull align 4 dereferenceable(16) %ref.tmp121, ptr noundef nonnull align 4 dereferenceable(16) %ncolor)
  call void @llvm.lifetime.end.p0(i64 16, ptr nonnull %ref.tmp121) #18
  call void @llvm.lifetime.start.p0(i64 16, ptr nonnull %ref.tmp128) #18
  %58 = load <2 x float>, ptr %m_x120, align 4, !tbaa !5
  %59 = fsub <2 x float> %58, %53
  %60 = load float, ptr %arrayidx11.i1268, align 4, !tbaa !5
  %sub14.i1282 = fsub float %60, %mul8.i
  %retval.sroa.3.12.vec.insert.i1285 = insertelement <2 x float> <float poison, float 0.000000e+00>, float %sub14.i1282, i64 0
  store <2 x float> %59, ptr %ref.tmp128, align 8
  store <2 x float> %retval.sroa.3.12.vec.insert.i1285, ptr %45, align 8
  call void @llvm.lifetime.start.p0(i64 16, ptr nonnull %ref.tmp132) #18
  %61 = load <2 x float>, ptr %ncolor, align 16, !tbaa !5
  %62 = fmul <2 x float> %61, <float 5.000000e-01, float 5.000000e-01>
  %63 = load float, ptr %arrayidx5.i1158, align 8, !tbaa !5
  %mul8.i1292 = fmul float %63, 5.000000e-01
  %retval.sroa.3.12.vec.insert.i1295 = insertelement <2 x float> <float poison, float 0.000000e+00>, float %mul8.i1292, i64 0
  store <2 x float> %62, ptr %ref.tmp132, align 8
  store <2 x float> %retval.sroa.3.12.vec.insert.i1295, ptr %46, align 8
  %vtable136 = load ptr, ptr %idraw, align 8, !tbaa !21
  %vfn137 = getelementptr inbounds ptr, ptr %vtable136, i64 5
  %64 = load ptr, ptr %vfn137, align 8
  call void %64(ptr noundef nonnull align 8 dereferenceable(8) %idraw, ptr noundef nonnull align 4 dereferenceable(16) %m_x120, ptr noundef nonnull align 4 dereferenceable(16) %ref.tmp128, ptr noundef nonnull align 4 dereferenceable(16) %ref.tmp132)
  call void @llvm.lifetime.end.p0(i64 16, ptr nonnull %ref.tmp132) #18
  call void @llvm.lifetime.end.p0(i64 16, ptr nonnull %ref.tmp128) #18
  %.pre3398 = load i32, ptr %m_size.i1253, align 4, !tbaa !9
  br label %cleanup138

cleanup138:                                       ; preds = %for.body107, %if.end116
  %65 = phi i32 [ %47, %for.body107 ], [ %.pre3398, %if.end116 ]
  %indvars.iv.next3357 = add nuw nsw i64 %indvars.iv3356, 1
  %66 = sext i32 %65 to i64
  %cmp106 = icmp slt i64 %indvars.iv.next3357, %66
  br i1 %cmp106, label %for.body107, label %if.end144

if.end144:                                        ; preds = %cleanup138, %for.cond103.preheader, %if.end99
  %and145 = and i32 %drawflags, 32
  %cmp146.not = icmp eq i32 %and145, 0
  br i1 %cmp146.not, label %if.end253, label %if.then147

if.then147:                                       ; preds = %if.end144
  %67 = load atomic i8, ptr @_ZGVZN17btSoftBodyHelpers4DrawEP10btSoftBodyP12btIDebugDrawiE4axis acquire, align 8
  %guard.uninitialized = icmp eq i8 %67, 0
  br i1 %guard.uninitialized, label %init.check, label %init.end, !prof !28

init.check:                                       ; preds = %if.then147
  %68 = call i32 @__cxa_guard_acquire(ptr nonnull @_ZGVZN17btSoftBodyHelpers4DrawEP10btSoftBodyP12btIDebugDrawiE4axis) #18
  %tobool.not = icmp eq i32 %68, 0
  br i1 %tobool.not, label %init.end, label %init

init:                                             ; preds = %init.check
  store float 1.000000e+00, ptr @_ZZN17btSoftBodyHelpers4DrawEP10btSoftBodyP12btIDebugDrawiE4axis, align 16, !tbaa !5
  call void @llvm.memset.p0.i64(ptr noundef nonnull align 4 dereferenceable(16) getelementptr inbounds ([3 x %class.btVector3], ptr @_ZZN17btSoftBodyHelpers4DrawEP10btSoftBodyP12btIDebugDrawiE4axis, i64 0, i64 0, i32 0, i64 1), i8 0, i64 16, i1 false)
  store float 1.000000e+00, ptr getelementptr inbounds ([3 x %class.btVector3], ptr @_ZZN17btSoftBodyHelpers4DrawEP10btSoftBodyP12btIDebugDrawiE4axis, i64 0, i64 1, i32 0, i64 1), align 4, !tbaa !5
  call void @llvm.memset.p0.i64(ptr noundef nonnull align 8 dereferenceable(16) getelementptr inbounds ([3 x %class.btVector3], ptr @_ZZN17btSoftBodyHelpers4DrawEP10btSoftBodyP12btIDebugDrawiE4axis, i64 0, i64 1, i32 0, i64 2), i8 0, i64 16, i1 false)
  store <2 x float> <float 1.000000e+00, float 0.000000e+00>, ptr getelementptr inbounds ([3 x %class.btVector3], ptr @_ZZN17btSoftBodyHelpers4DrawEP10btSoftBodyP12btIDebugDrawiE4axis, i64 0, i64 2, i32 0, i64 2), align 8, !tbaa !5
  %69 = call ptr @llvm.invariant.start.p0(i64 48, ptr nonnull @_ZZN17btSoftBodyHelpers4DrawEP10btSoftBodyP12btIDebugDrawiE4axis)
  call void @__cxa_guard_release(ptr nonnull @_ZGVZN17btSoftBodyHelpers4DrawEP10btSoftBodyP12btIDebugDrawiE4axis) #18
  br label %init.end

init.end:                                         ; preds = %init, %init.check, %if.then147
  %m_size.i1298 = getelementptr inbounds %class.btSoftBody, ptr %psb, i64 0, i32 14, i32 2
  %70 = load i32, ptr %m_size.i1298, align 4, !tbaa !29
  %cmp1693310 = icmp sgt i32 %70, 0
  br i1 %cmp1693310, label %for.body170.lr.ph, label %if.end253

for.body170.lr.ph:                                ; preds = %init.end
  %m_data.i1299 = getelementptr inbounds %class.btSoftBody, ptr %psb, i64 0, i32 14, i32 5
  %71 = getelementptr inbounds { <2 x float>, <2 x float> }, ptr %o, i64 0, i32 1
  %72 = getelementptr inbounds { <2 x float>, <2 x float> }, ptr %ref.tmp204, i64 0, i32 1
  %73 = getelementptr inbounds { <2 x float>, <2 x float> }, ptr %ref.tmp210, i64 0, i32 1
  %74 = getelementptr inbounds { <2 x float>, <2 x float> }, ptr %ref.tmp218, i64 0, i32 1
  %75 = getelementptr inbounds { <2 x float>, <2 x float> }, ptr %ref.tmp224, i64 0, i32 1
  %76 = getelementptr inbounds { <2 x float>, <2 x float> }, ptr %ref.tmp232, i64 0, i32 1
  br label %for.body170

for.body170:                                      ; preds = %for.body170.lr.ph, %for.body170
  %indvars.iv3359 = phi i64 [ 0, %for.body170.lr.ph ], [ %indvars.iv.next3360, %for.body170 ]
  %77 = load ptr, ptr %m_data.i1299, align 8, !tbaa !32
  %arrayidx.i1301 = getelementptr inbounds %"struct.btSoftBody::RContact", ptr %77, i64 %indvars.iv3359
  call void @llvm.lifetime.start.p0(i64 16, ptr nonnull %o) #18
  %m_node = getelementptr inbounds %"struct.btSoftBody::RContact", ptr %77, i64 %indvars.iv3359, i32 1
  %78 = load ptr, ptr %m_node, align 8, !tbaa !33
  %m_x173 = getelementptr inbounds %"struct.btSoftBody::Node", ptr %78, i64 0, i32 1
  %m_normal = getelementptr inbounds %"struct.btSoftBody::sCti", ptr %arrayidx.i1301, i64 0, i32 1
  %arrayidx7.i.i = getelementptr inbounds %"struct.btSoftBody::sCti", ptr %arrayidx.i1301, i64 0, i32 1, i32 0, i64 1
  %arrayidx10.i.i = getelementptr inbounds %"struct.btSoftBody::Node", ptr %78, i64 0, i32 1, i32 0, i64 2
  %79 = load float, ptr %arrayidx10.i.i, align 4, !tbaa !5
  %arrayidx12.i.i = getelementptr inbounds %"struct.btSoftBody::sCti", ptr %arrayidx.i1301, i64 0, i32 1, i32 0, i64 2
  %80 = load float, ptr %arrayidx12.i.i, align 4, !tbaa !5
  %m_offset = getelementptr inbounds %"struct.btSoftBody::sCti", ptr %arrayidx.i1301, i64 0, i32 2
  %81 = load float, ptr %m_offset, align 8, !tbaa !38
  %82 = load <2 x float>, ptr %m_x173, align 4, !tbaa !5
  %83 = load <2 x float>, ptr %m_normal, align 4, !tbaa !5
  %84 = fmul <2 x float> %82, %83
  %mul8.i.i = extractelement <2 x float> %84, i64 1
  %85 = extractelement <2 x float> %82, i64 0
  %86 = extractelement <2 x float> %83, i64 0
  %87 = call float @llvm.fmuladd.f32(float %85, float %86, float %mul8.i.i)
  %88 = call float @llvm.fmuladd.f32(float %79, float %80, float %87)
  %add = fadd float %88, %81
  %89 = insertelement <2 x float> poison, float %add, i64 0
  %90 = shufflevector <2 x float> %89, <2 x float> poison, <2 x i32> zeroinitializer
  %91 = fmul <2 x float> %83, %90
  %mul8.i1306 = fmul float %80, %add
  %92 = fsub <2 x float> %82, %91
  %sub14.i1318 = fsub float %79, %mul8.i1306
  %retval.sroa.3.12.vec.insert.i1321 = insertelement <2 x float> <float poison, float 0.000000e+00>, float %sub14.i1318, i64 0
  store <2 x float> %92, ptr %o, align 8
  store <2 x float> %retval.sroa.3.12.vec.insert.i1321, ptr %71, align 8
  %93 = load float, ptr %m_normal, align 4, !tbaa !5
  %94 = load <2 x float>, ptr %arrayidx7.i.i, align 4, !tbaa !5
  %95 = extractelement <2 x float> %94, i64 0
  %cmp.i = fcmp uge float %93, %95
  %..i = select i1 %cmp.i, float %95, float %93
  %96 = extractelement <2 x float> %94, i64 1
  %cmp13.i = fcmp olt float %..i, %96
  %97 = zext i1 %cmp.i to i64
  %idxprom = select i1 %cmp13.i, i64 %97, i64 2
  %arrayidx192 = getelementptr inbounds [3 x %class.btVector3], ptr @_ZZN17btSoftBodyHelpers4DrawEP10btSoftBodyP12btIDebugDrawiE4axis, i64 0, i64 %idxprom
  %arrayidx7.i.i1327 = getelementptr inbounds [4 x float], ptr %arrayidx192, i64 0, i64 1
  %98 = load <2 x float>, ptr %arrayidx7.i.i1327, align 4, !tbaa !5
  %99 = load float, ptr %arrayidx192, align 16, !tbaa !5
  %100 = insertelement <2 x float> %94, float %93, i64 0
  %101 = shufflevector <2 x float> %100, <2 x float> poison, <2 x i32> <i32 1, i32 0>
  %102 = fneg <2 x float> %101
  %103 = fmul <2 x float> %98, %102
  %104 = shufflevector <2 x float> %98, <2 x float> poison, <2 x i32> <i32 1, i32 poison>
  %105 = insertelement <2 x float> %104, float %99, i64 1
  %106 = call <2 x float> @llvm.fmuladd.v2f32(<2 x float> %94, <2 x float> %105, <2 x float> %103)
  %107 = fneg float %95
  %neg30.i.i = fmul float %99, %107
  %108 = extractelement <2 x float> %98, i64 0
  %109 = call float @llvm.fmuladd.f32(float %93, float %108, float %neg30.i.i)
  %110 = fmul <2 x float> %106, %106
  %mul8.i.i.i.i = extractelement <2 x float> %110, i64 1
  %111 = extractelement <2 x float> %106, i64 0
  %112 = call float @llvm.fmuladd.f32(float %111, float %111, float %mul8.i.i.i.i)
  %113 = call float @llvm.fmuladd.f32(float %109, float %109, float %112)
  %sqrt.i.i = call float @llvm.sqrt.f32(float %113)
  %div.i.i = fdiv float 1.000000e+00, %sqrt.i.i
  %114 = insertelement <2 x float> poison, float %div.i.i, i64 0
  %115 = shufflevector <2 x float> %114, <2 x float> poison, <2 x i32> zeroinitializer
  %116 = fmul <2 x float> %106, %115
  %mul8.i.i.i = fmul float %109, %div.i.i
  %117 = extractelement <2 x float> %116, i64 1
  %118 = extractelement <2 x float> %116, i64 0
  %119 = fneg float %117
  %neg30.i.i1334 = fmul float %93, %119
  %120 = call float @llvm.fmuladd.f32(float %118, float %95, float %neg30.i.i1334)
  call void @llvm.lifetime.start.p0(i64 16, ptr nonnull %ref.tmp204) #18
  %121 = fmul <2 x float> %116, <float 5.000000e-01, float 5.000000e-01>
  %mul8.i1357 = fmul float %mul8.i.i.i, 5.000000e-01
  %122 = fsub <2 x float> %92, %121
  %sub14.i1369 = fsub float %sub14.i1318, %mul8.i1357
  %retval.sroa.3.12.vec.insert.i1372 = insertelement <2 x float> <float poison, float 0.000000e+00>, float %sub14.i1369, i64 0
  store <2 x float> %122, ptr %ref.tmp204, align 8
  store <2 x float> %retval.sroa.3.12.vec.insert.i1372, ptr %72, align 8
  call void @llvm.lifetime.start.p0(i64 16, ptr nonnull %ref.tmp210) #18
  %123 = fadd <2 x float> %92, %121
  %add14.i1391 = fadd float %sub14.i1318, %mul8.i1357
  %retval.sroa.3.12.vec.insert.i1394 = insertelement <2 x float> <float poison, float 0.000000e+00>, float %add14.i1391, i64 0
  store <2 x float> %123, ptr %ref.tmp210, align 8
  store <2 x float> %retval.sroa.3.12.vec.insert.i1394, ptr %73, align 8
  %vtable216 = load ptr, ptr %idraw, align 8, !tbaa !21
  %vfn217 = getelementptr inbounds ptr, ptr %vtable216, i64 5
  %124 = load ptr, ptr %vfn217, align 8
  call void %124(ptr noundef nonnull align 8 dereferenceable(8) %idraw, ptr noundef nonnull align 4 dereferenceable(16) %ref.tmp204, ptr noundef nonnull align 4 dereferenceable(16) %ref.tmp210, ptr noundef nonnull align 4 dereferenceable(16) %ccolor)
  call void @llvm.lifetime.end.p0(i64 16, ptr nonnull %ref.tmp210) #18
  call void @llvm.lifetime.end.p0(i64 16, ptr nonnull %ref.tmp204) #18
  call void @llvm.lifetime.start.p0(i64 16, ptr nonnull %ref.tmp218) #18
  %125 = shufflevector <2 x float> %116, <2 x float> poison, <2 x i32> <i32 1, i32 0>
  %126 = insertelement <2 x float> %125, float %mul8.i.i.i, i64 0
  %127 = fneg <2 x float> %126
  %128 = fmul <2 x float> %94, %127
  %129 = insertelement <2 x float> %125, float %mul8.i.i.i, i64 1
  %130 = shufflevector <2 x float> %94, <2 x float> poison, <2 x i32> <i32 1, i32 poison>
  %131 = insertelement <2 x float> %130, float %93, i64 1
  %132 = call <2 x float> @llvm.fmuladd.v2f32(<2 x float> %129, <2 x float> %131, <2 x float> %128)
  %133 = fmul <2 x float> %132, %132
  %mul8.i.i.i.i1341 = extractelement <2 x float> %133, i64 1
  %134 = extractelement <2 x float> %132, i64 0
  %135 = call float @llvm.fmuladd.f32(float %134, float %134, float %mul8.i.i.i.i1341)
  %136 = call float @llvm.fmuladd.f32(float %120, float %120, float %135)
  %sqrt.i.i1343 = call float @llvm.sqrt.f32(float %136)
  %div.i.i1344 = fdiv float 1.000000e+00, %sqrt.i.i1343
  %137 = insertelement <2 x float> poison, float %div.i.i1344, i64 0
  %138 = shufflevector <2 x float> %137, <2 x float> poison, <2 x i32> zeroinitializer
  %139 = fmul <2 x float> %132, %138
  %mul8.i.i.i1347 = fmul float %120, %div.i.i1344
  %140 = fmul <2 x float> %139, <float 5.000000e-01, float 5.000000e-01>
  %mul8.i1401 = fmul float %mul8.i.i.i1347, 5.000000e-01
  %141 = load <2 x float>, ptr %o, align 8, !tbaa !5
  %142 = fsub <2 x float> %141, %140
  %143 = load float, ptr %71, align 8, !tbaa !5
  %sub14.i1413 = fsub float %143, %mul8.i1401
  %retval.sroa.3.12.vec.insert.i1416 = insertelement <2 x float> <float poison, float 0.000000e+00>, float %sub14.i1413, i64 0
  store <2 x float> %142, ptr %ref.tmp218, align 8
  store <2 x float> %retval.sroa.3.12.vec.insert.i1416, ptr %74, align 8
  call void @llvm.lifetime.start.p0(i64 16, ptr nonnull %ref.tmp224) #18
  %144 = fadd <2 x float> %140, %141
  %add14.i1435 = fadd float %mul8.i1401, %143
  %retval.sroa.3.12.vec.insert.i1438 = insertelement <2 x float> <float poison, float 0.000000e+00>, float %add14.i1435, i64 0
  store <2 x float> %144, ptr %ref.tmp224, align 8
  store <2 x float> %retval.sroa.3.12.vec.insert.i1438, ptr %75, align 8
  %vtable230 = load ptr, ptr %idraw, align 8, !tbaa !21
  %vfn231 = getelementptr inbounds ptr, ptr %vtable230, i64 5
  %145 = load ptr, ptr %vfn231, align 8
  call void %145(ptr noundef nonnull align 8 dereferenceable(8) %idraw, ptr noundef nonnull align 4 dereferenceable(16) %ref.tmp218, ptr noundef nonnull align 4 dereferenceable(16) %ref.tmp224, ptr noundef nonnull align 4 dereferenceable(16) %ccolor)
  call void @llvm.lifetime.end.p0(i64 16, ptr nonnull %ref.tmp224) #18
  call void @llvm.lifetime.end.p0(i64 16, ptr nonnull %ref.tmp218) #18
  call void @llvm.lifetime.start.p0(i64 16, ptr nonnull %ref.tmp232) #18
  %146 = load float, ptr %arrayidx12.i.i, align 4, !tbaa !5
  %mul8.i1445 = fmul float %146, 5.000000e-01
  %mul8.i1455 = fmul float %mul8.i1445, 3.000000e+00
  %147 = load <2 x float>, ptr %m_normal, align 4, !tbaa !5
  %148 = fmul <2 x float> %147, <float 5.000000e-01, float 5.000000e-01>
  %149 = fmul <2 x float> %148, <float 3.000000e+00, float 3.000000e+00>
  %150 = load <2 x float>, ptr %o, align 8, !tbaa !5
  %151 = fadd <2 x float> %149, %150
  %152 = load float, ptr %71, align 8, !tbaa !5
  %add14.i1467 = fadd float %mul8.i1455, %152
  %retval.sroa.3.12.vec.insert.i1470 = insertelement <2 x float> <float poison, float 0.000000e+00>, float %add14.i1467, i64 0
  store <2 x float> %151, ptr %ref.tmp232, align 8
  store <2 x float> %retval.sroa.3.12.vec.insert.i1470, ptr %76, align 8
  call void @llvm.lifetime.start.p0(i64 16, ptr nonnull %ref.tmp244) #18
  store <4 x float> <float 1.000000e+00, float 1.000000e+00, float 0.000000e+00, float 0.000000e+00>, ptr %ref.tmp244, align 16, !tbaa !5
  %vtable248 = load ptr, ptr %idraw, align 8, !tbaa !21
  %vfn249 = getelementptr inbounds ptr, ptr %vtable248, i64 5
  %153 = load ptr, ptr %vfn249, align 8
  call void %153(ptr noundef nonnull align 8 dereferenceable(8) %idraw, ptr noundef nonnull align 4 dereferenceable(16) %o, ptr noundef nonnull align 4 dereferenceable(16) %ref.tmp232, ptr noundef nonnull align 4 dereferenceable(16) %ref.tmp244)
  call void @llvm.lifetime.end.p0(i64 16, ptr nonnull %ref.tmp244) #18
  call void @llvm.lifetime.end.p0(i64 16, ptr nonnull %ref.tmp232) #18
  call void @llvm.lifetime.end.p0(i64 16, ptr nonnull %o) #18
  %indvars.iv.next3360 = add nuw nsw i64 %indvars.iv3359, 1
  %154 = load i32, ptr %m_size.i1298, align 4, !tbaa !29
  %155 = sext i32 %154 to i64
  %cmp169 = icmp slt i64 %indvars.iv.next3360, %155
  br i1 %cmp169, label %for.body170, label %if.end253

if.end253:                                        ; preds = %for.body170, %init.end, %if.end144
  %and254 = and i32 %drawflags, 64
  %cmp255.not = icmp eq i32 %and254, 0
  br i1 %cmp255.not, label %if.end315, label %for.cond257.preheader

for.cond257.preheader:                            ; preds = %if.end253
  %m_size.i1476 = getelementptr inbounds %class.btSoftBody, ptr %psb, i64 0, i32 13, i32 2
  %156 = load i32, ptr %m_size.i1476, align 4, !tbaa !39
  %cmp2593312 = icmp sgt i32 %156, 0
  br i1 %cmp2593312, label %for.body260.lr.ph, label %for.cond287.preheader

for.body260.lr.ph:                                ; preds = %for.cond257.preheader
  %m_data.i1477 = getelementptr inbounds %class.btSoftBody, ptr %psb, i64 0, i32 13, i32 5
  %157 = getelementptr inbounds { <2 x float>, <2 x float> }, ptr %q, i64 0, i32 1
  %158 = getelementptr inbounds { <2 x float>, <2 x float> }, ptr %ref.tmp.i, i64 0, i32 1
  %159 = getelementptr inbounds { <2 x float>, <2 x float> }, ptr %ref.tmp4.i, i64 0, i32 1
  %160 = getelementptr inbounds { <2 x float>, <2 x float> }, ptr %ref.tmp10.i, i64 0, i32 1
  %161 = getelementptr inbounds { <2 x float>, <2 x float> }, ptr %ref.tmp16.i, i64 0, i32 1
  %162 = getelementptr inbounds { <2 x float>, <2 x float> }, ptr %ref.tmp24.i, i64 0, i32 1
  %163 = getelementptr inbounds { <2 x float>, <2 x float> }, ptr %ref.tmp30.i, i64 0, i32 1
  %164 = getelementptr inbounds { <2 x float>, <2 x float> }, ptr %ref.tmp.i1496, i64 0, i32 1
  %165 = getelementptr inbounds { <2 x float>, <2 x float> }, ptr %ref.tmp4.i1497, i64 0, i32 1
  %166 = getelementptr inbounds { <2 x float>, <2 x float> }, ptr %ref.tmp10.i1498, i64 0, i32 1
  %167 = getelementptr inbounds { <2 x float>, <2 x float> }, ptr %ref.tmp16.i1499, i64 0, i32 1
  %168 = getelementptr inbounds { <2 x float>, <2 x float> }, ptr %ref.tmp24.i1500, i64 0, i32 1
  %169 = getelementptr inbounds { <2 x float>, <2 x float> }, ptr %ref.tmp30.i1501, i64 0, i32 1
  br label %for.body260

for.cond287.preheader:                            ; preds = %for.body260, %for.cond257.preheader
  %m_size.i1543 = getelementptr inbounds %class.btSoftBody, ptr %psb, i64 0, i32 9, i32 2
  %170 = load i32, ptr %m_size.i1543, align 4, !tbaa !9
  %cmp2903314 = icmp sgt i32 %170, 0
  br i1 %cmp2903314, label %for.body291.lr.ph, label %if.end315

for.body291.lr.ph:                                ; preds = %for.cond287.preheader
  %m_data.i1544 = getelementptr inbounds %class.btSoftBody, ptr %psb, i64 0, i32 9, i32 5
  %171 = getelementptr inbounds { <2 x float>, <2 x float> }, ptr %ref.tmp.i1550, i64 0, i32 1
  %172 = getelementptr inbounds { <2 x float>, <2 x float> }, ptr %ref.tmp4.i1551, i64 0, i32 1
  %173 = getelementptr inbounds { <2 x float>, <2 x float> }, ptr %ref.tmp10.i1552, i64 0, i32 1
  %174 = getelementptr inbounds { <2 x float>, <2 x float> }, ptr %ref.tmp16.i1553, i64 0, i32 1
  %175 = getelementptr inbounds { <2 x float>, <2 x float> }, ptr %ref.tmp24.i1554, i64 0, i32 1
  %176 = getelementptr inbounds { <2 x float>, <2 x float> }, ptr %ref.tmp30.i1555, i64 0, i32 1
  br label %for.body291

for.body260:                                      ; preds = %for.body260.lr.ph, %for.body260
  %indvars.iv3362 = phi i64 [ 0, %for.body260.lr.ph ], [ %indvars.iv.next3363, %for.body260 ]
  %177 = load ptr, ptr %m_data.i1477, align 8, !tbaa !42
  %arrayidx.i1479 = getelementptr inbounds %"struct.btSoftBody::Anchor", ptr %177, i64 %indvars.iv3362
  call void @llvm.lifetime.start.p0(i64 16, ptr nonnull %q) #18
  %m_body = getelementptr inbounds %"struct.btSoftBody::Anchor", ptr %177, i64 %indvars.iv3362, i32 2
  %178 = load ptr, ptr %m_body, align 8, !tbaa !43
  %m_worldTransform.i = getelementptr inbounds %class.btCollisionObject, ptr %178, i64 0, i32 1
  %m_local = getelementptr inbounds %"struct.btSoftBody::Anchor", ptr %177, i64 %indvars.iv3362, i32 1
  %179 = load float, ptr %m_local, align 4, !tbaa !5
  %arrayidx5.i.i.i = getelementptr inbounds %class.btCollisionObject, ptr %178, i64 0, i32 1, i32 0, i32 0, i64 0, i32 0, i64 1
  %arrayidx7.i.i.i = getelementptr inbounds [4 x float], ptr %m_local, i64 0, i64 1
  %180 = load float, ptr %arrayidx7.i.i.i, align 4, !tbaa !5
  %arrayidx10.i.i.i = getelementptr inbounds %class.btCollisionObject, ptr %178, i64 0, i32 1, i32 0, i32 0, i64 0, i32 0, i64 2
  %arrayidx12.i.i.i = getelementptr inbounds [4 x float], ptr %m_local, i64 0, i64 2
  %181 = load float, ptr %arrayidx12.i.i.i, align 4, !tbaa !5
  %m_origin.i.i = getelementptr inbounds %class.btCollisionObject, ptr %178, i64 0, i32 1, i32 1
  %arrayidx.i.i.i = getelementptr inbounds %class.btCollisionObject, ptr %178, i64 0, i32 1, i32 0, i32 0, i64 1
  %arrayidx5.i20.i.i = getelementptr inbounds %class.btCollisionObject, ptr %178, i64 0, i32 1, i32 0, i32 0, i64 1, i32 0, i64 1
  %arrayidx10.i23.i.i = getelementptr inbounds %class.btCollisionObject, ptr %178, i64 0, i32 1, i32 0, i32 0, i64 1, i32 0, i64 2
  %182 = load float, ptr %m_worldTransform.i, align 4, !tbaa !5
  %183 = load float, ptr %arrayidx5.i.i.i, align 4, !tbaa !5
  %184 = load float, ptr %arrayidx10.i.i.i, align 4, !tbaa !5
  %185 = load float, ptr %arrayidx.i.i.i, align 4, !tbaa !5
  %186 = load float, ptr %arrayidx5.i20.i.i, align 4, !tbaa !5
  %187 = insertelement <2 x float> poison, float %180, i64 0
  %188 = shufflevector <2 x float> %187, <2 x float> poison, <2 x i32> zeroinitializer
  %189 = insertelement <2 x float> poison, float %183, i64 0
  %190 = insertelement <2 x float> %189, float %186, i64 1
  %191 = fmul <2 x float> %188, %190
  %192 = insertelement <2 x float> poison, float %182, i64 0
  %193 = insertelement <2 x float> %192, float %185, i64 1
  %194 = insertelement <2 x float> poison, float %179, i64 0
  %195 = shufflevector <2 x float> %194, <2 x float> poison, <2 x i32> zeroinitializer
  %196 = call <2 x float> @llvm.fmuladd.v2f32(<2 x float> %193, <2 x float> %195, <2 x float> %191)
  %197 = load float, ptr %arrayidx10.i23.i.i, align 4, !tbaa !5
  %198 = insertelement <2 x float> poison, float %184, i64 0
  %199 = insertelement <2 x float> %198, float %197, i64 1
  %200 = insertelement <2 x float> poison, float %181, i64 0
  %201 = shufflevector <2 x float> %200, <2 x float> poison, <2 x i32> zeroinitializer
  %202 = call <2 x float> @llvm.fmuladd.v2f32(<2 x float> %199, <2 x float> %201, <2 x float> %196)
  %203 = load <2 x float>, ptr %m_origin.i.i, align 4, !tbaa !5
  %204 = fadd <2 x float> %202, %203
  %arrayidx.i26.i.i = getelementptr inbounds %class.btCollisionObject, ptr %178, i64 0, i32 1, i32 0, i32 0, i64 2
  %205 = load float, ptr %arrayidx.i26.i.i, align 4, !tbaa !5
  %arrayidx5.i27.i.i = getelementptr inbounds %class.btCollisionObject, ptr %178, i64 0, i32 1, i32 0, i32 0, i64 2, i32 0, i64 1
  %206 = load float, ptr %arrayidx5.i27.i.i, align 4, !tbaa !5
  %mul8.i29.i.i = fmul float %180, %206
  %207 = call float @llvm.fmuladd.f32(float %205, float %179, float %mul8.i29.i.i)
  %arrayidx10.i30.i.i = getelementptr inbounds %class.btCollisionObject, ptr %178, i64 0, i32 1, i32 0, i32 0, i64 2, i32 0, i64 2
  %208 = load float, ptr %arrayidx10.i30.i.i, align 4, !tbaa !5
  %209 = call float @llvm.fmuladd.f32(float %208, float %181, float %207)
  %arrayidx.i32.i.i = getelementptr inbounds %class.btCollisionObject, ptr %178, i64 0, i32 1, i32 1, i32 0, i64 2
  %210 = load float, ptr %arrayidx.i32.i.i, align 4, !tbaa !5
  %add17.i.i = fadd float %210, %209
  %retval.sroa.3.12.vec.insert.i.i1483 = insertelement <2 x float> <float poison, float 0.000000e+00>, float %add17.i.i, i64 0
  store <2 x float> %204, ptr %q, align 8
  store <2 x float> %retval.sroa.3.12.vec.insert.i.i1483, ptr %157, align 8
  %211 = load ptr, ptr %arrayidx.i1479, align 8, !tbaa !45
  %m_x267 = getelementptr inbounds %"struct.btSoftBody::Node", ptr %211, i64 0, i32 1
  call void @llvm.lifetime.start.p0(i64 16, ptr nonnull %ref.tmp268) #18
  store <4 x float> <float 1.000000e+00, float 0.000000e+00, float 0.000000e+00, float 0.000000e+00>, ptr %ref.tmp268, align 16, !tbaa !5
  call void @llvm.lifetime.start.p0(i64 16, ptr nonnull %ref.tmp.i) #18
  %arrayidx11.i.i = getelementptr inbounds %"struct.btSoftBody::Node", ptr %211, i64 0, i32 1, i32 0, i64 2
  %212 = load float, ptr %arrayidx11.i.i, align 4, !tbaa !5
  %retval.sroa.3.12.vec.insert.i.i1491 = insertelement <2 x float> <float poison, float 0.000000e+00>, float %212, i64 0
  store <2 x float> %retval.sroa.3.12.vec.insert.i.i1491, ptr %158, align 8
  call void @llvm.lifetime.start.p0(i64 16, ptr nonnull %ref.tmp4.i) #18
  %213 = load <2 x float>, ptr %m_x267, align 4, !tbaa !5
  %214 = extractelement <2 x float> %213, i64 0
  %sub.i.i = fadd float %214, -2.500000e-01
  %215 = insertelement <2 x float> %213, float %sub.i.i, i64 0
  store <2 x float> %215, ptr %ref.tmp.i, align 8
  %216 = fadd <2 x float> %213, <float 2.500000e-01, float 0.000000e+00>
  %add14.i.i = fadd float %212, 0.000000e+00
  %retval.sroa.3.12.vec.insert.i58.i = insertelement <2 x float> <float poison, float 0.000000e+00>, float %add14.i.i, i64 0
  store <2 x float> %216, ptr %ref.tmp4.i, align 8
  store <2 x float> %retval.sroa.3.12.vec.insert.i58.i, ptr %159, align 8
  %vtable.i = load ptr, ptr %idraw, align 8, !tbaa !21
  %vfn.i = getelementptr inbounds ptr, ptr %vtable.i, i64 5
  %217 = load ptr, ptr %vfn.i, align 8
  call void %217(ptr noundef nonnull align 8 dereferenceable(8) %idraw, ptr noundef nonnull align 4 dereferenceable(16) %ref.tmp.i, ptr noundef nonnull align 4 dereferenceable(16) %ref.tmp4.i, ptr noundef nonnull align 4 dereferenceable(16) %ref.tmp268)
  call void @llvm.lifetime.end.p0(i64 16, ptr nonnull %ref.tmp4.i) #18
  call void @llvm.lifetime.end.p0(i64 16, ptr nonnull %ref.tmp.i) #18
  call void @llvm.lifetime.start.p0(i64 16, ptr nonnull %ref.tmp10.i) #18
  %218 = load float, ptr %arrayidx11.i.i, align 4, !tbaa !5
  %retval.sroa.3.12.vec.insert.i73.i = insertelement <2 x float> <float poison, float 0.000000e+00>, float %218, i64 0
  store <2 x float> %retval.sroa.3.12.vec.insert.i73.i, ptr %160, align 8
  call void @llvm.lifetime.start.p0(i64 16, ptr nonnull %ref.tmp16.i) #18
  %219 = load <2 x float>, ptr %m_x267, align 4, !tbaa !5
  %220 = extractelement <2 x float> %219, i64 1
  %sub8.i67.i = fadd float %220, -2.500000e-01
  %retval.sroa.0.4.vec.insert.i72.i = insertelement <2 x float> %219, float %sub8.i67.i, i64 1
  store <2 x float> %retval.sroa.0.4.vec.insert.i72.i, ptr %ref.tmp10.i, align 8
  %221 = fadd <2 x float> %219, <float 0.000000e+00, float 2.500000e-01>
  %add14.i85.i = fadd float %218, 0.000000e+00
  %retval.sroa.3.12.vec.insert.i88.i = insertelement <2 x float> <float poison, float 0.000000e+00>, float %add14.i85.i, i64 0
  store <2 x float> %221, ptr %ref.tmp16.i, align 8
  store <2 x float> %retval.sroa.3.12.vec.insert.i88.i, ptr %161, align 8
  %vtable22.i = load ptr, ptr %idraw, align 8, !tbaa !21
  %vfn23.i = getelementptr inbounds ptr, ptr %vtable22.i, i64 5
  %222 = load ptr, ptr %vfn23.i, align 8
  call void %222(ptr noundef nonnull align 8 dereferenceable(8) %idraw, ptr noundef nonnull align 4 dereferenceable(16) %ref.tmp10.i, ptr noundef nonnull align 4 dereferenceable(16) %ref.tmp16.i, ptr noundef nonnull align 4 dereferenceable(16) %ref.tmp268)
  call void @llvm.lifetime.end.p0(i64 16, ptr nonnull %ref.tmp16.i) #18
  call void @llvm.lifetime.end.p0(i64 16, ptr nonnull %ref.tmp10.i) #18
  call void @llvm.lifetime.start.p0(i64 16, ptr nonnull %ref.tmp24.i) #18
  %223 = load <2 x float>, ptr %m_x267, align 4, !tbaa !5
  %224 = load float, ptr %arrayidx11.i.i, align 4, !tbaa !5
  %sub14.i100.i = fadd float %224, -2.500000e-01
  %retval.sroa.3.12.vec.insert.i103.i = insertelement <2 x float> <float poison, float 0.000000e+00>, float %sub14.i100.i, i64 0
  store <2 x float> %223, ptr %ref.tmp24.i, align 8
  store <2 x float> %retval.sroa.3.12.vec.insert.i103.i, ptr %162, align 8
  call void @llvm.lifetime.start.p0(i64 16, ptr nonnull %ref.tmp30.i) #18
  %225 = fadd <2 x float> %223, zeroinitializer
  %add14.i115.i = fadd float %224, 2.500000e-01
  %retval.sroa.3.12.vec.insert.i118.i = insertelement <2 x float> <float poison, float 0.000000e+00>, float %add14.i115.i, i64 0
  store <2 x float> %225, ptr %ref.tmp30.i, align 8
  store <2 x float> %retval.sroa.3.12.vec.insert.i118.i, ptr %163, align 8
  %vtable36.i = load ptr, ptr %idraw, align 8, !tbaa !21
  %vfn37.i = getelementptr inbounds ptr, ptr %vtable36.i, i64 5
  %226 = load ptr, ptr %vfn37.i, align 8
  call void %226(ptr noundef nonnull align 8 dereferenceable(8) %idraw, ptr noundef nonnull align 4 dereferenceable(16) %ref.tmp24.i, ptr noundef nonnull align 4 dereferenceable(16) %ref.tmp30.i, ptr noundef nonnull align 4 dereferenceable(16) %ref.tmp268)
  call void @llvm.lifetime.end.p0(i64 16, ptr nonnull %ref.tmp30.i) #18
  call void @llvm.lifetime.end.p0(i64 16, ptr nonnull %ref.tmp24.i) #18
  call void @llvm.lifetime.end.p0(i64 16, ptr nonnull %ref.tmp268) #18
  call void @llvm.lifetime.start.p0(i64 16, ptr nonnull %ref.tmp272) #18
  store <4 x float> <float 0.000000e+00, float 1.000000e+00, float 0.000000e+00, float 0.000000e+00>, ptr %ref.tmp272, align 16, !tbaa !5
  call void @llvm.lifetime.start.p0(i64 16, ptr nonnull %ref.tmp.i1496) #18
  %227 = load float, ptr %157, align 8, !tbaa !5
  %retval.sroa.3.12.vec.insert.i.i1507 = insertelement <2 x float> <float poison, float 0.000000e+00>, float %227, i64 0
  store <2 x float> %retval.sroa.3.12.vec.insert.i.i1507, ptr %164, align 8
  call void @llvm.lifetime.start.p0(i64 16, ptr nonnull %ref.tmp4.i1497) #18
  %228 = load <2 x float>, ptr %q, align 8, !tbaa !5
  %229 = extractelement <2 x float> %228, i64 0
  %sub.i.i1502 = fadd float %229, -2.500000e-01
  %230 = insertelement <2 x float> %228, float %sub.i.i1502, i64 0
  store <2 x float> %230, ptr %ref.tmp.i1496, align 8
  %231 = fadd <2 x float> %228, <float 2.500000e-01, float 0.000000e+00>
  %add14.i.i1510 = fadd float %227, 0.000000e+00
  %retval.sroa.3.12.vec.insert.i58.i1513 = insertelement <2 x float> <float poison, float 0.000000e+00>, float %add14.i.i1510, i64 0
  store <2 x float> %231, ptr %ref.tmp4.i1497, align 8
  store <2 x float> %retval.sroa.3.12.vec.insert.i58.i1513, ptr %165, align 8
  %vtable.i1514 = load ptr, ptr %idraw, align 8, !tbaa !21
  %vfn.i1515 = getelementptr inbounds ptr, ptr %vtable.i1514, i64 5
  %232 = load ptr, ptr %vfn.i1515, align 8
  call void %232(ptr noundef nonnull align 8 dereferenceable(8) %idraw, ptr noundef nonnull align 4 dereferenceable(16) %ref.tmp.i1496, ptr noundef nonnull align 4 dereferenceable(16) %ref.tmp4.i1497, ptr noundef nonnull align 4 dereferenceable(16) %ref.tmp272)
  call void @llvm.lifetime.end.p0(i64 16, ptr nonnull %ref.tmp4.i1497) #18
  call void @llvm.lifetime.end.p0(i64 16, ptr nonnull %ref.tmp.i1496) #18
  call void @llvm.lifetime.start.p0(i64 16, ptr nonnull %ref.tmp10.i1498) #18
  %233 = load float, ptr %157, align 8, !tbaa !5
  %retval.sroa.3.12.vec.insert.i73.i1519 = insertelement <2 x float> <float poison, float 0.000000e+00>, float %233, i64 0
  store <2 x float> %retval.sroa.3.12.vec.insert.i73.i1519, ptr %166, align 8
  call void @llvm.lifetime.start.p0(i64 16, ptr nonnull %ref.tmp16.i1499) #18
  %234 = load <2 x float>, ptr %q, align 8, !tbaa !5
  %235 = extractelement <2 x float> %234, i64 1
  %sub8.i67.i1516 = fadd float %235, -2.500000e-01
  %retval.sroa.0.4.vec.insert.i72.i1518 = insertelement <2 x float> %234, float %sub8.i67.i1516, i64 1
  store <2 x float> %retval.sroa.0.4.vec.insert.i72.i1518, ptr %ref.tmp10.i1498, align 8
  %236 = fadd <2 x float> %234, <float 0.000000e+00, float 2.500000e-01>
  %add14.i85.i1522 = fadd float %233, 0.000000e+00
  %retval.sroa.3.12.vec.insert.i88.i1525 = insertelement <2 x float> <float poison, float 0.000000e+00>, float %add14.i85.i1522, i64 0
  store <2 x float> %236, ptr %ref.tmp16.i1499, align 8
  store <2 x float> %retval.sroa.3.12.vec.insert.i88.i1525, ptr %167, align 8
  %vtable22.i1526 = load ptr, ptr %idraw, align 8, !tbaa !21
  %vfn23.i1527 = getelementptr inbounds ptr, ptr %vtable22.i1526, i64 5
  %237 = load ptr, ptr %vfn23.i1527, align 8
  call void %237(ptr noundef nonnull align 8 dereferenceable(8) %idraw, ptr noundef nonnull align 4 dereferenceable(16) %ref.tmp10.i1498, ptr noundef nonnull align 4 dereferenceable(16) %ref.tmp16.i1499, ptr noundef nonnull align 4 dereferenceable(16) %ref.tmp272)
  call void @llvm.lifetime.end.p0(i64 16, ptr nonnull %ref.tmp16.i1499) #18
  call void @llvm.lifetime.end.p0(i64 16, ptr nonnull %ref.tmp10.i1498) #18
  call void @llvm.lifetime.start.p0(i64 16, ptr nonnull %ref.tmp24.i1500) #18
  %238 = load <2 x float>, ptr %q, align 8, !tbaa !5
  %239 = load float, ptr %157, align 8, !tbaa !5
  %sub14.i100.i1528 = fadd float %239, -2.500000e-01
  %retval.sroa.3.12.vec.insert.i103.i1531 = insertelement <2 x float> <float poison, float 0.000000e+00>, float %sub14.i100.i1528, i64 0
  store <2 x float> %238, ptr %ref.tmp24.i1500, align 8
  store <2 x float> %retval.sroa.3.12.vec.insert.i103.i1531, ptr %168, align 8
  call void @llvm.lifetime.start.p0(i64 16, ptr nonnull %ref.tmp30.i1501) #18
  %240 = fadd <2 x float> %238, zeroinitializer
  %add14.i115.i1534 = fadd float %239, 2.500000e-01
  %retval.sroa.3.12.vec.insert.i118.i1537 = insertelement <2 x float> <float poison, float 0.000000e+00>, float %add14.i115.i1534, i64 0
  store <2 x float> %240, ptr %ref.tmp30.i1501, align 8
  store <2 x float> %retval.sroa.3.12.vec.insert.i118.i1537, ptr %169, align 8
  %vtable36.i1538 = load ptr, ptr %idraw, align 8, !tbaa !21
  %vfn37.i1539 = getelementptr inbounds ptr, ptr %vtable36.i1538, i64 5
  %241 = load ptr, ptr %vfn37.i1539, align 8
  call void %241(ptr noundef nonnull align 8 dereferenceable(8) %idraw, ptr noundef nonnull align 4 dereferenceable(16) %ref.tmp24.i1500, ptr noundef nonnull align 4 dereferenceable(16) %ref.tmp30.i1501, ptr noundef nonnull align 4 dereferenceable(16) %ref.tmp272)
  call void @llvm.lifetime.end.p0(i64 16, ptr nonnull %ref.tmp30.i1501) #18
  call void @llvm.lifetime.end.p0(i64 16, ptr nonnull %ref.tmp24.i1500) #18
  call void @llvm.lifetime.end.p0(i64 16, ptr nonnull %ref.tmp272) #18
  %242 = load ptr, ptr %arrayidx.i1479, align 8, !tbaa !45
  %m_x277 = getelementptr inbounds %"struct.btSoftBody::Node", ptr %242, i64 0, i32 1
  call void @llvm.lifetime.start.p0(i64 16, ptr nonnull %ref.tmp278) #18
  store <4 x float> <float 1.000000e+00, float 1.000000e+00, float 1.000000e+00, float 0.000000e+00>, ptr %ref.tmp278, align 16, !tbaa !5
  %vtable282 = load ptr, ptr %idraw, align 8, !tbaa !21
  %vfn283 = getelementptr inbounds ptr, ptr %vtable282, i64 5
  %243 = load ptr, ptr %vfn283, align 8
  call void %243(ptr noundef nonnull align 8 dereferenceable(8) %idraw, ptr noundef nonnull align 4 dereferenceable(16) %m_x277, ptr noundef nonnull align 4 dereferenceable(16) %q, ptr noundef nonnull align 4 dereferenceable(16) %ref.tmp278)
  call void @llvm.lifetime.end.p0(i64 16, ptr nonnull %ref.tmp278) #18
  call void @llvm.lifetime.end.p0(i64 16, ptr nonnull %q) #18
  %indvars.iv.next3363 = add nuw nsw i64 %indvars.iv3362, 1
  %244 = load i32, ptr %m_size.i1476, align 4, !tbaa !39
  %245 = sext i32 %244 to i64
  %cmp259 = icmp slt i64 %indvars.iv.next3363, %245
  br i1 %cmp259, label %for.body260, label %for.cond287.preheader

for.body291:                                      ; preds = %for.body291.lr.ph, %cleanup309
  %246 = phi i32 [ %170, %for.body291.lr.ph ], [ %266, %cleanup309 ]
  %indvars.iv3365 = phi i64 [ 0, %for.body291.lr.ph ], [ %indvars.iv.next3366, %cleanup309 ]
  %247 = load ptr, ptr %m_data.i1544, align 8, !tbaa !15
  %m_material295 = getelementptr inbounds %"struct.btSoftBody::Node", ptr %247, i64 %indvars.iv3365, i32 0, i32 1
  %248 = load ptr, ptr %m_material295, align 8, !tbaa !16
  %m_flags296 = getelementptr inbounds %"struct.btSoftBody::Material", ptr %248, i64 0, i32 4
  %249 = load i32, ptr %m_flags296, align 4, !tbaa !19
  %and297 = and i32 %249, 1
  %cmp298 = icmp eq i32 %and297, 0
  br i1 %cmp298, label %cleanup309, label %if.end300

if.end300:                                        ; preds = %for.body291
  %m_im = getelementptr inbounds %"struct.btSoftBody::Node", ptr %247, i64 %indvars.iv3365, i32 6
  %250 = load float, ptr %m_im, align 8, !tbaa !46
  %cmp301 = fcmp ugt float %250, 0.000000e+00
  br i1 %cmp301, label %cleanup309, label %if.then302

if.then302:                                       ; preds = %if.end300
  %m_x303 = getelementptr inbounds %"struct.btSoftBody::Node", ptr %247, i64 %indvars.iv3365, i32 1
  call void @llvm.lifetime.start.p0(i64 16, ptr nonnull %ref.tmp304) #18
  store <4 x float> <float 1.000000e+00, float 0.000000e+00, float 0.000000e+00, float 0.000000e+00>, ptr %ref.tmp304, align 16, !tbaa !5
  call void @llvm.lifetime.start.p0(i64 16, ptr nonnull %ref.tmp.i1550) #18
  %arrayidx11.i.i1558 = getelementptr inbounds [4 x float], ptr %m_x303, i64 0, i64 2
  %251 = load float, ptr %arrayidx11.i.i1558, align 4, !tbaa !5
  %retval.sroa.3.12.vec.insert.i.i1561 = insertelement <2 x float> <float poison, float 0.000000e+00>, float %251, i64 0
  %252 = load <2 x float>, ptr %m_x303, align 4, !tbaa !5
  %253 = extractelement <2 x float> %252, i64 0
  %sub.i.i1556 = fadd float %253, -2.500000e-01
  %254 = insertelement <2 x float> %252, float %sub.i.i1556, i64 0
  store <2 x float> %254, ptr %ref.tmp.i1550, align 8
  store <2 x float> %retval.sroa.3.12.vec.insert.i.i1561, ptr %171, align 8
  call void @llvm.lifetime.start.p0(i64 16, ptr nonnull %ref.tmp4.i1551) #18
  %255 = fadd <2 x float> %252, <float 2.500000e-01, float 0.000000e+00>
  %add14.i.i1564 = fadd float %251, 0.000000e+00
  %retval.sroa.3.12.vec.insert.i58.i1567 = insertelement <2 x float> <float poison, float 0.000000e+00>, float %add14.i.i1564, i64 0
  store <2 x float> %255, ptr %ref.tmp4.i1551, align 8
  store <2 x float> %retval.sroa.3.12.vec.insert.i58.i1567, ptr %172, align 8
  %vtable.i1568 = load ptr, ptr %idraw, align 8, !tbaa !21
  %vfn.i1569 = getelementptr inbounds ptr, ptr %vtable.i1568, i64 5
  %256 = load ptr, ptr %vfn.i1569, align 8
  call void %256(ptr noundef nonnull align 8 dereferenceable(8) %idraw, ptr noundef nonnull align 4 dereferenceable(16) %ref.tmp.i1550, ptr noundef nonnull align 4 dereferenceable(16) %ref.tmp4.i1551, ptr noundef nonnull align 4 dereferenceable(16) %ref.tmp304)
  call void @llvm.lifetime.end.p0(i64 16, ptr nonnull %ref.tmp4.i1551) #18
  call void @llvm.lifetime.end.p0(i64 16, ptr nonnull %ref.tmp.i1550) #18
  call void @llvm.lifetime.start.p0(i64 16, ptr nonnull %ref.tmp10.i1552) #18
  %257 = load float, ptr %arrayidx11.i.i1558, align 4, !tbaa !5
  %retval.sroa.3.12.vec.insert.i73.i1573 = insertelement <2 x float> <float poison, float 0.000000e+00>, float %257, i64 0
  %258 = load <2 x float>, ptr %m_x303, align 4, !tbaa !5
  %259 = extractelement <2 x float> %258, i64 1
  %sub8.i67.i1570 = fadd float %259, -2.500000e-01
  %retval.sroa.0.4.vec.insert.i72.i1572 = insertelement <2 x float> %258, float %sub8.i67.i1570, i64 1
  store <2 x float> %retval.sroa.0.4.vec.insert.i72.i1572, ptr %ref.tmp10.i1552, align 8
  store <2 x float> %retval.sroa.3.12.vec.insert.i73.i1573, ptr %173, align 8
  call void @llvm.lifetime.start.p0(i64 16, ptr nonnull %ref.tmp16.i1553) #18
  %260 = fadd <2 x float> %258, <float 0.000000e+00, float 2.500000e-01>
  %add14.i85.i1576 = fadd float %257, 0.000000e+00
  %retval.sroa.3.12.vec.insert.i88.i1579 = insertelement <2 x float> <float poison, float 0.000000e+00>, float %add14.i85.i1576, i64 0
  store <2 x float> %260, ptr %ref.tmp16.i1553, align 8
  store <2 x float> %retval.sroa.3.12.vec.insert.i88.i1579, ptr %174, align 8
  %vtable22.i1580 = load ptr, ptr %idraw, align 8, !tbaa !21
  %vfn23.i1581 = getelementptr inbounds ptr, ptr %vtable22.i1580, i64 5
  %261 = load ptr, ptr %vfn23.i1581, align 8
  call void %261(ptr noundef nonnull align 8 dereferenceable(8) %idraw, ptr noundef nonnull align 4 dereferenceable(16) %ref.tmp10.i1552, ptr noundef nonnull align 4 dereferenceable(16) %ref.tmp16.i1553, ptr noundef nonnull align 4 dereferenceable(16) %ref.tmp304)
  call void @llvm.lifetime.end.p0(i64 16, ptr nonnull %ref.tmp16.i1553) #18
  call void @llvm.lifetime.end.p0(i64 16, ptr nonnull %ref.tmp10.i1552) #18
  call void @llvm.lifetime.start.p0(i64 16, ptr nonnull %ref.tmp24.i1554) #18
  %262 = load <2 x float>, ptr %m_x303, align 4, !tbaa !5
  %263 = load float, ptr %arrayidx11.i.i1558, align 4, !tbaa !5
  %sub14.i100.i1582 = fadd float %263, -2.500000e-01
  %retval.sroa.3.12.vec.insert.i103.i1585 = insertelement <2 x float> <float poison, float 0.000000e+00>, float %sub14.i100.i1582, i64 0
  store <2 x float> %262, ptr %ref.tmp24.i1554, align 8
  store <2 x float> %retval.sroa.3.12.vec.insert.i103.i1585, ptr %175, align 8
  call void @llvm.lifetime.start.p0(i64 16, ptr nonnull %ref.tmp30.i1555) #18
  %264 = fadd <2 x float> %262, zeroinitializer
  %add14.i115.i1588 = fadd float %263, 2.500000e-01
  %retval.sroa.3.12.vec.insert.i118.i1591 = insertelement <2 x float> <float poison, float 0.000000e+00>, float %add14.i115.i1588, i64 0
  store <2 x float> %264, ptr %ref.tmp30.i1555, align 8
  store <2 x float> %retval.sroa.3.12.vec.insert.i118.i1591, ptr %176, align 8
  %vtable36.i1592 = load ptr, ptr %idraw, align 8, !tbaa !21
  %vfn37.i1593 = getelementptr inbounds ptr, ptr %vtable36.i1592, i64 5
  %265 = load ptr, ptr %vfn37.i1593, align 8
  call void %265(ptr noundef nonnull align 8 dereferenceable(8) %idraw, ptr noundef nonnull align 4 dereferenceable(16) %ref.tmp24.i1554, ptr noundef nonnull align 4 dereferenceable(16) %ref.tmp30.i1555, ptr noundef nonnull align 4 dereferenceable(16) %ref.tmp304)
  call void @llvm.lifetime.end.p0(i64 16, ptr nonnull %ref.tmp30.i1555) #18
  call void @llvm.lifetime.end.p0(i64 16, ptr nonnull %ref.tmp24.i1554) #18
  call void @llvm.lifetime.end.p0(i64 16, ptr nonnull %ref.tmp304) #18
  %.pre3399 = load i32, ptr %m_size.i1543, align 4, !tbaa !9
  br label %cleanup309

cleanup309:                                       ; preds = %if.end300, %if.then302, %for.body291
  %266 = phi i32 [ %246, %if.end300 ], [ %.pre3399, %if.then302 ], [ %246, %for.body291 ]
  %indvars.iv.next3366 = add nuw nsw i64 %indvars.iv3365, 1
  %267 = sext i32 %266 to i64
  %cmp290 = icmp slt i64 %indvars.iv.next3366, %267
  br i1 %cmp290, label %for.body291, label %if.end315

if.end315:                                        ; preds = %cleanup309, %for.cond287.preheader, %if.end253
  %and316 = and i32 %drawflags, 4
  %cmp317.not = icmp eq i32 %and316, 0
  br i1 %cmp317.not, label %if.end397, label %if.then318

if.then318:                                       ; preds = %if.end315
  call void @llvm.lifetime.start.p0(i64 16, ptr nonnull %col) #18
  store <4 x float> <float 0.000000e+00, float 0x3FE6666660000000, float 0.000000e+00, float 0.000000e+00>, ptr %col, align 16, !tbaa !5
  %m_size.i1597 = getelementptr inbounds %class.btSoftBody, ptr %psb, i64 0, i32 11, i32 2
  %268 = load i32, ptr %m_size.i1597, align 4, !tbaa !48
  %cmp3253316 = icmp sgt i32 %268, 0
  br i1 %cmp3253316, label %for.body326.lr.ph, label %for.end396

for.body326.lr.ph:                                ; preds = %if.then318
  %m_data.i1598 = getelementptr inbounds %class.btSoftBody, ptr %psb, i64 0, i32 11, i32 5
  %269 = getelementptr inbounds { <2 x float>, <2 x float> }, ptr %ref.tmp359, i64 0, i32 1
  %270 = getelementptr inbounds { <2 x float>, <2 x float> }, ptr %ref.tmp369, i64 0, i32 1
  %271 = getelementptr inbounds { <2 x float>, <2 x float> }, ptr %ref.tmp379, i64 0, i32 1
  br label %for.body326

for.body326:                                      ; preds = %for.body326.lr.ph, %cleanup391
  %272 = phi i32 [ %268, %for.body326.lr.ph ], [ %300, %cleanup391 ]
  %indvars.iv3368 = phi i64 [ 0, %for.body326.lr.ph ], [ %indvars.iv.next3369, %cleanup391 ]
  %273 = load ptr, ptr %m_data.i1598, align 8, !tbaa !51
  %m_material329 = getelementptr inbounds %"struct.btSoftBody::Face", ptr %273, i64 %indvars.iv3368, i32 0, i32 1
  %274 = load ptr, ptr %m_material329, align 8, !tbaa !16
  %m_flags330 = getelementptr inbounds %"struct.btSoftBody::Material", ptr %274, i64 0, i32 4
  %275 = load i32, ptr %m_flags330, align 4, !tbaa !19
  %and331 = and i32 %275, 1
  %cmp332 = icmp eq i32 %and331, 0
  br i1 %cmp332, label %cleanup391, label %if.end334

if.end334:                                        ; preds = %for.body326
  %m_n336 = getelementptr inbounds %"struct.btSoftBody::Face", ptr %273, i64 %indvars.iv3368, i32 1
  %276 = load ptr, ptr %m_n336, align 8, !tbaa !27
  %m_x338 = getelementptr inbounds %"struct.btSoftBody::Node", ptr %276, i64 0, i32 1
  %x335.sroa.0.0.copyload = load float, ptr %m_x338, align 8, !tbaa.struct !52
  %x335.sroa.5.0.m_x338.sroa_idx = getelementptr inbounds %"struct.btSoftBody::Node", ptr %276, i64 0, i32 1, i32 0, i64 1
  %x335.sroa.5.0.copyload = load float, ptr %x335.sroa.5.0.m_x338.sroa_idx, align 4, !tbaa.struct !54
  %x335.sroa.7.0.m_x338.sroa_idx = getelementptr inbounds %"struct.btSoftBody::Node", ptr %276, i64 0, i32 1, i32 0, i64 2
  %x335.sroa.7.0.copyload = load float, ptr %x335.sroa.7.0.m_x338.sroa_idx, align 8, !tbaa.struct !55
  %arrayidx340 = getelementptr inbounds %"struct.btSoftBody::Face", ptr %273, i64 %indvars.iv3368, i32 1, i64 1
  %277 = load ptr, ptr %arrayidx340, align 8, !tbaa !27
  %m_x341 = getelementptr inbounds %"struct.btSoftBody::Node", ptr %277, i64 0, i32 1
  %x335.sroa.14.16.m_x341.sroa_idx = getelementptr inbounds %"struct.btSoftBody::Node", ptr %277, i64 0, i32 1, i32 0, i64 2
  %x335.sroa.14.16.copyload = load float, ptr %x335.sroa.14.16.m_x341.sroa_idx, align 8, !tbaa.struct !55
  %arrayidx344 = getelementptr inbounds %"struct.btSoftBody::Face", ptr %273, i64 %indvars.iv3368, i32 1, i64 2
  %278 = load ptr, ptr %arrayidx344, align 8, !tbaa !27
  %m_x345 = getelementptr inbounds %"struct.btSoftBody::Node", ptr %278, i64 0, i32 1
  %x335.sroa.21.32.m_x345.sroa_idx = getelementptr inbounds %"struct.btSoftBody::Node", ptr %278, i64 0, i32 1, i32 0, i64 2
  %x335.sroa.21.32.copyload = load float, ptr %x335.sroa.21.32.m_x345.sroa_idx, align 8, !tbaa.struct !55
  %add14.i1607 = fadd float %x335.sroa.7.0.copyload, %x335.sroa.14.16.copyload
  %add14.i1619 = fadd float %add14.i1607, %x335.sroa.21.32.copyload
  %mul8.i.i1627 = fmul float %add14.i1619, 0x3FD5555560000000
  call void @llvm.lifetime.start.p0(i64 16, ptr nonnull %ref.tmp359) #18
  %sub14.i1639 = fsub float %x335.sroa.7.0.copyload, %mul8.i.i1627
  %mul8.i1649 = fmul float %sub14.i1639, 0x3FE99999A0000000
  %add14.i1661 = fadd float %mul8.i.i1627, %mul8.i1649
  %retval.sroa.3.12.vec.insert.i1664 = insertelement <2 x float> <float poison, float 0.000000e+00>, float %add14.i1661, i64 0
  store <2 x float> %retval.sroa.3.12.vec.insert.i1664, ptr %269, align 8
  call void @llvm.lifetime.start.p0(i64 16, ptr nonnull %ref.tmp369) #18
  %sub14.i1673 = fsub float %x335.sroa.14.16.copyload, %mul8.i.i1627
  %mul8.i1683 = fmul float %sub14.i1673, 0x3FE99999A0000000
  %279 = load <2 x float>, ptr %m_x341, align 8
  %280 = extractelement <2 x float> %279, i64 0
  %add.i1601 = fadd float %x335.sroa.0.0.copyload, %280
  %281 = extractelement <2 x float> %279, i64 1
  %add8.i1604 = fadd float %x335.sroa.5.0.copyload, %281
  %add14.i1695 = fadd float %mul8.i.i1627, %mul8.i1683
  %retval.sroa.3.12.vec.insert.i1698 = insertelement <2 x float> <float poison, float 0.000000e+00>, float %add14.i1695, i64 0
  store <2 x float> %retval.sroa.3.12.vec.insert.i1698, ptr %270, align 8
  call void @llvm.lifetime.start.p0(i64 16, ptr nonnull %ref.tmp379) #18
  %sub14.i1707 = fsub float %x335.sroa.21.32.copyload, %mul8.i.i1627
  %mul8.i1717 = fmul float %sub14.i1707, 0x3FE99999A0000000
  %282 = load <2 x float>, ptr %m_x345, align 8
  %283 = extractelement <2 x float> %282, i64 0
  %add.i1613 = fadd float %add.i1601, %283
  %284 = extractelement <2 x float> %282, i64 1
  %add8.i1616 = fadd float %add8.i1604, %284
  %mul.i.i = fmul float %add.i1613, 0x3FD5555560000000
  %sub.i1633 = fsub float %x335.sroa.0.0.copyload, %mul.i.i
  %285 = insertelement <2 x float> poison, float %sub.i1633, i64 0
  %286 = insertelement <2 x float> %285, float %add8.i1616, i64 1
  %287 = fmul <2 x float> %286, <float 0x3FE99999A0000000, float 0x3FD5555560000000>
  %288 = extractelement <2 x float> %287, i64 1
  %sub8.i1636 = fsub float %x335.sroa.5.0.copyload, %288
  %mul4.i1647 = fmul float %sub8.i1636, 0x3FE99999A0000000
  %289 = insertelement <2 x float> poison, float %mul.i.i, i64 0
  %290 = insertelement <2 x float> %289, float %mul4.i1647, i64 1
  %291 = fadd <2 x float> %287, %290
  store <2 x float> %291, ptr %ref.tmp359, align 8
  %292 = insertelement <2 x float> %287, float %mul.i.i, i64 0
  %293 = fsub <2 x float> %279, %292
  %294 = fmul <2 x float> %293, <float 0x3FE99999A0000000, float 0x3FE99999A0000000>
  %295 = fadd <2 x float> %292, %294
  store <2 x float> %295, ptr %ref.tmp369, align 8
  %296 = fsub <2 x float> %282, %292
  %297 = fmul <2 x float> %296, <float 0x3FE99999A0000000, float 0x3FE99999A0000000>
  %298 = fadd <2 x float> %292, %297
  %add14.i1729 = fadd float %mul8.i.i1627, %mul8.i1717
  %retval.sroa.3.12.vec.insert.i1732 = insertelement <2 x float> <float poison, float 0.000000e+00>, float %add14.i1729, i64 0
  store <2 x float> %298, ptr %ref.tmp379, align 8
  store <2 x float> %retval.sroa.3.12.vec.insert.i1732, ptr %271, align 8
  %vtable389 = load ptr, ptr %idraw, align 8, !tbaa !21
  %vfn390 = getelementptr inbounds ptr, ptr %vtable389, i64 7
  %299 = load ptr, ptr %vfn390, align 8
  call void %299(ptr noundef nonnull align 8 dereferenceable(8) %idraw, ptr noundef nonnull align 4 dereferenceable(16) %ref.tmp359, ptr noundef nonnull align 4 dereferenceable(16) %ref.tmp369, ptr noundef nonnull align 4 dereferenceable(16) %ref.tmp379, ptr noundef nonnull align 4 dereferenceable(16) %col, float noundef 1.000000e+00)
  call void @llvm.lifetime.end.p0(i64 16, ptr nonnull %ref.tmp379) #18
  call void @llvm.lifetime.end.p0(i64 16, ptr nonnull %ref.tmp369) #18
  call void @llvm.lifetime.end.p0(i64 16, ptr nonnull %ref.tmp359) #18
  %.pre3400 = load i32, ptr %m_size.i1597, align 4, !tbaa !48
  br label %cleanup391

cleanup391:                                       ; preds = %for.body326, %if.end334
  %300 = phi i32 [ %272, %for.body326 ], [ %.pre3400, %if.end334 ]
  %indvars.iv.next3369 = add nuw nsw i64 %indvars.iv3368, 1
  %301 = sext i32 %300 to i64
  %cmp325 = icmp slt i64 %indvars.iv.next3369, %301
  br i1 %cmp325, label %for.body326, label %for.end396

for.end396:                                       ; preds = %cleanup391, %if.then318
  call void @llvm.lifetime.end.p0(i64 16, ptr nonnull %col) #18
  br label %if.end397

if.end397:                                        ; preds = %for.end396, %if.end315
  %and398 = and i32 %drawflags, 256
  %cmp399.not = icmp eq i32 %and398, 0
  br i1 %cmp399.not, label %if.end594, label %if.then400

if.then400:                                       ; preds = %if.end397
  call void @srand(i32 noundef 1806) #18
  %m_size.i1735 = getelementptr inbounds %class.btSoftBody, ptr %psb, i64 0, i32 24, i32 2
  %302 = load i32, ptr %m_size.i1735, align 4, !tbaa !56
  %cmp4033322 = icmp sgt i32 %302, 0
  br i1 %cmp4033322, label %for.body404.lr.ph, label %if.end594

for.body404.lr.ph:                                ; preds = %if.then400
  %m_data.i1736 = getelementptr inbounds %class.btSoftBody, ptr %psb, i64 0, i32 24, i32 5
  %arrayidx5.i1740 = getelementptr inbounds [4 x float], ptr %color, i64 0, i64 2
  %mVcount.i = getelementptr inbounds %class.HullDesc, ptr %hdsc, i64 0, i32 1
  %mVertices.i = getelementptr inbounds %class.HullDesc, ptr %hdsc, i64 0, i32 2
  %mVertexStride.i = getelementptr inbounds %class.HullDesc, ptr %hdsc, i64 0, i32 3
  %mNormalEpsilon.i = getelementptr inbounds %class.HullDesc, ptr %hdsc, i64 0, i32 4
  %mMaxVertices.i = getelementptr inbounds %class.HullDesc, ptr %hdsc, i64 0, i32 5
  %m_ownsMemory.i.i.i1786 = getelementptr inbounds %class.HullResult, ptr %hres, i64 0, i32 2, i32 6
  %m_data.i.i.i1787 = getelementptr inbounds %class.HullResult, ptr %hres, i64 0, i32 2, i32 5
  %m_size.i.i.i = getelementptr inbounds %class.HullResult, ptr %hres, i64 0, i32 2, i32 2
  %m_capacity.i.i.i1788 = getelementptr inbounds %class.HullResult, ptr %hres, i64 0, i32 2, i32 3
  %m_ownsMemory.i.i4.i = getelementptr inbounds %class.HullResult, ptr %hres, i64 0, i32 5, i32 6
  %m_data.i.i5.i = getelementptr inbounds %class.HullResult, ptr %hres, i64 0, i32 5, i32 5
  %m_size.i.i6.i = getelementptr inbounds %class.HullResult, ptr %hres, i64 0, i32 5, i32 2
  %m_capacity.i.i7.i = getelementptr inbounds %class.HullResult, ptr %hres, i64 0, i32 5, i32 3
  %mNumOutputVertices.i = getelementptr inbounds %class.HullResult, ptr %hres, i64 0, i32 1
  %mNumFaces.i = getelementptr inbounds %class.HullResult, ptr %hres, i64 0, i32 3
  %mNumIndices.i = getelementptr inbounds %class.HullResult, ptr %hres, i64 0, i32 4
  %m_ownsMemory.i.i.i1789 = getelementptr inbounds %class.btAlignedObjectArray.88, ptr %hlib, i64 0, i32 6
  %m_data.i.i.i1790 = getelementptr inbounds %class.btAlignedObjectArray.88, ptr %hlib, i64 0, i32 5
  %m_size.i.i.i1791 = getelementptr inbounds %class.btAlignedObjectArray.88, ptr %hlib, i64 0, i32 2
  %m_capacity.i.i.i1792 = getelementptr inbounds %class.btAlignedObjectArray.88, ptr %hlib, i64 0, i32 3
  %m_ownsMemory.i.i4.i1793 = getelementptr inbounds %class.HullLibrary, ptr %hlib, i64 0, i32 1, i32 6
  %m_data.i.i5.i1794 = getelementptr inbounds %class.HullLibrary, ptr %hlib, i64 0, i32 1, i32 5
  %m_size.i.i6.i1795 = getelementptr inbounds %class.HullLibrary, ptr %hlib, i64 0, i32 1, i32 2
  %m_capacity.i.i7.i1796 = getelementptr inbounds %class.HullLibrary, ptr %hlib, i64 0, i32 1, i32 3
  %303 = getelementptr inbounds { <2 x float>, <2 x float> }, ptr %ref.tmp548, i64 0, i32 1
  %304 = getelementptr inbounds { <2 x float>, <2 x float> }, ptr %ref.tmp562, i64 0, i32 1
  %305 = getelementptr inbounds { <2 x float>, <2 x float> }, ptr %ref.tmp577, i64 0, i32 1
  br label %for.body404

for.body404:                                      ; preds = %for.body404.lr.ph, %if.end544
  %indvars.iv3380 = phi i64 [ 0, %for.body404.lr.ph ], [ %indvars.iv.next3381, %if.end544 ]
  %306 = load ptr, ptr %m_data.i1736, align 8, !tbaa !59
  %arrayidx.i1738 = getelementptr inbounds ptr, ptr %306, i64 %indvars.iv3380
  %307 = load ptr, ptr %arrayidx.i1738, align 8, !tbaa !27
  %m_collide = getelementptr inbounds %"struct.btSoftBody::Cluster", ptr %307, i64 0, i32 23
  %308 = load i8, ptr %m_collide, align 1, !tbaa !60, !range !69, !noundef !70
  %tobool407.not = icmp eq i8 %308, 0
  br i1 %tobool407.not, label %if.end544, label %if.then408

if.then408:                                       ; preds = %for.body404
  call void @llvm.lifetime.start.p0(i64 16, ptr nonnull %color) #18
  %call410 = call i32 @rand() #18
  %call412 = call i32 @rand() #18
  %call416 = call i32 @rand() #18
  %conv417 = sitofp i32 %call416 to float
  %div418 = fmul float %conv417, 0x3E00000000000000
  %309 = insertelement <2 x i32> poison, i32 %call410, i64 0
  %310 = insertelement <2 x i32> %309, i32 %call412, i64 1
  %311 = sitofp <2 x i32> %310 to <2 x float>
  %312 = fmul <2 x float> %311, <float 0x3E00000000000000, float 0x3E00000000000000>
  %313 = fmul <2 x float> %312, %312
  %mul8.i.i.i.i1743 = extractelement <2 x float> %313, i64 1
  %314 = extractelement <2 x float> %312, i64 0
  %315 = call float @llvm.fmuladd.f32(float %314, float %314, float %mul8.i.i.i.i1743)
  %316 = call float @llvm.fmuladd.f32(float %div418, float %div418, float %315)
  %sqrt.i.i1745 = call float @llvm.sqrt.f32(float %316)
  %div.i.i1746 = fdiv float 1.000000e+00, %sqrt.i.i1745
  %317 = insertelement <2 x float> poison, float %div.i.i1746, i64 0
  %318 = shufflevector <2 x float> %317, <2 x float> poison, <2 x i32> zeroinitializer
  %319 = fmul <2 x float> %312, %318
  %mul8.i.i.i1749 = fmul float %div418, %div.i.i1746
  %320 = fmul <2 x float> %319, <float 7.500000e-01, float 7.500000e-01>
  %mul8.i1759 = fmul float %mul8.i.i.i1749, 7.500000e-01
  %retval.sroa.3.12.vec.insert.i1762 = insertelement <2 x float> <float poison, float 0.000000e+00>, float %mul8.i1759, i64 0
  store <2 x float> %320, ptr %color, align 8, !tbaa.struct !52
  store <2 x float> %retval.sroa.3.12.vec.insert.i1762, ptr %arrayidx5.i1740, align 8, !tbaa.struct !55
  %321 = load ptr, ptr %m_data.i1736, align 8, !tbaa !59
  %arrayidx.i1767 = getelementptr inbounds ptr, ptr %321, i64 %indvars.iv3380
  %322 = load ptr, ptr %arrayidx.i1767, align 8, !tbaa !27
  %m_size.i1768 = getelementptr inbounds %class.btAlignedObjectArray.59, ptr %322, i64 0, i32 2
  %323 = load i32, ptr %m_size.i1768, align 4, !tbaa !71
  %or.cond = icmp slt i32 %323, 1
  br i1 %or.cond, label %for.end454, label %if.then.i.i.i

if.then.i.i.i:                                    ; preds = %if.then408
  %conv.i.i.i.i = zext i32 %323 to i64
  %mul.i.i.i.i = shl nuw nsw i64 %conv.i.i.i.i, 4
  %call.i.i.i.i1773 = invoke noundef ptr @_Z22btAlignedAllocInternalmi(i64 noundef %mul.i.i.i.i, i32 noundef 16)
          to label %invoke.cont436 unwind label %ehcleanup540.thread

invoke.cont436:                                   ; preds = %if.then.i.i.i
  %cmp4413318 = icmp sgt i32 %323, 0
  br i1 %cmp4413318, label %for.body442.preheader, label %for.end454

for.body442.preheader:                            ; preds = %invoke.cont436
  %wide.trip.count = zext i32 %323 to i64
  %xtraiter = and i64 %wide.trip.count, 1
  %324 = icmp eq i32 %323, 1
  br i1 %324, label %for.end454.loopexit.unr-lcssa, label %for.body442.preheader.new

for.body442.preheader.new:                        ; preds = %for.body442.preheader
  %unroll_iter = and i64 %wide.trip.count, 4294967294
  br label %for.body442

for.body442:                                      ; preds = %for.body442, %for.body442.preheader.new
  %indvars.iv3371 = phi i64 [ 0, %for.body442.preheader.new ], [ %indvars.iv.next3372.1, %for.body442 ]
  %niter = phi i64 [ 0, %for.body442.preheader.new ], [ %niter.next.1, %for.body442 ]
  %325 = load ptr, ptr %m_data.i1736, align 8, !tbaa !59
  %arrayidx.i1777 = getelementptr inbounds ptr, ptr %325, i64 %indvars.iv3380
  %326 = load ptr, ptr %arrayidx.i1777, align 8, !tbaa !27
  %m_data.i1778 = getelementptr inbounds %class.btAlignedObjectArray.59, ptr %326, i64 0, i32 5
  %327 = load ptr, ptr %m_data.i1778, align 8, !tbaa !72
  %arrayidx.i1780 = getelementptr inbounds ptr, ptr %327, i64 %indvars.iv3371
  %328 = load ptr, ptr %arrayidx.i1780, align 8, !tbaa !27
  %m_x449 = getelementptr inbounds %"struct.btSoftBody::Node", ptr %328, i64 0, i32 1
  %arrayidx.i1783 = getelementptr inbounds %class.btVector3, ptr %call.i.i.i.i1773, i64 %indvars.iv3371
  call void @llvm.memcpy.p0.p0.i64(ptr noundef nonnull align 4 dereferenceable(16) %arrayidx.i1783, ptr noundef nonnull align 8 dereferenceable(16) %m_x449, i64 16, i1 false), !tbaa.struct !52
  %indvars.iv.next3372 = or i64 %indvars.iv3371, 1
  %329 = load ptr, ptr %m_data.i1736, align 8, !tbaa !59
  %arrayidx.i1777.1 = getelementptr inbounds ptr, ptr %329, i64 %indvars.iv3380
  %330 = load ptr, ptr %arrayidx.i1777.1, align 8, !tbaa !27
  %m_data.i1778.1 = getelementptr inbounds %class.btAlignedObjectArray.59, ptr %330, i64 0, i32 5
  %331 = load ptr, ptr %m_data.i1778.1, align 8, !tbaa !72
  %arrayidx.i1780.1 = getelementptr inbounds ptr, ptr %331, i64 %indvars.iv.next3372
  %332 = load ptr, ptr %arrayidx.i1780.1, align 8, !tbaa !27
  %m_x449.1 = getelementptr inbounds %"struct.btSoftBody::Node", ptr %332, i64 0, i32 1
  %arrayidx.i1783.1 = getelementptr inbounds %class.btVector3, ptr %call.i.i.i.i1773, i64 %indvars.iv.next3372
  call void @llvm.memcpy.p0.p0.i64(ptr noundef nonnull align 4 dereferenceable(16) %arrayidx.i1783.1, ptr noundef nonnull align 8 dereferenceable(16) %m_x449.1, i64 16, i1 false), !tbaa.struct !52
  %indvars.iv.next3372.1 = add nuw nsw i64 %indvars.iv3371, 2
  %niter.next.1 = add i64 %niter, 2
  %niter.ncmp.1 = icmp eq i64 %niter.next.1, %unroll_iter
  br i1 %niter.ncmp.1, label %for.end454.loopexit.unr-lcssa, label %for.body442

ehcleanup540.thread:                              ; preds = %if.then.i.i.i
  %333 = landingpad { ptr, i32 }
          cleanup
  br label %invoke.cont541

for.end454.loopexit.unr-lcssa:                    ; preds = %for.body442, %for.body442.preheader
  %indvars.iv3371.unr = phi i64 [ 0, %for.body442.preheader ], [ %indvars.iv.next3372.1, %for.body442 ]
  %lcmp.mod.not = icmp eq i64 %xtraiter, 0
  br i1 %lcmp.mod.not, label %for.end454, label %for.body442.epil

for.body442.epil:                                 ; preds = %for.end454.loopexit.unr-lcssa
  %334 = load ptr, ptr %m_data.i1736, align 8, !tbaa !59
  %arrayidx.i1777.epil = getelementptr inbounds ptr, ptr %334, i64 %indvars.iv3380
  %335 = load ptr, ptr %arrayidx.i1777.epil, align 8, !tbaa !27
  %m_data.i1778.epil = getelementptr inbounds %class.btAlignedObjectArray.59, ptr %335, i64 0, i32 5
  %336 = load ptr, ptr %m_data.i1778.epil, align 8, !tbaa !72
  %arrayidx.i1780.epil = getelementptr inbounds ptr, ptr %336, i64 %indvars.iv3371.unr
  %337 = load ptr, ptr %arrayidx.i1780.epil, align 8, !tbaa !27
  %m_x449.epil = getelementptr inbounds %"struct.btSoftBody::Node", ptr %337, i64 0, i32 1
  %arrayidx.i1783.epil = getelementptr inbounds %class.btVector3, ptr %call.i.i.i.i1773, i64 %indvars.iv3371.unr
  call void @llvm.memcpy.p0.p0.i64(ptr noundef nonnull align 4 dereferenceable(16) %arrayidx.i1783.epil, ptr noundef nonnull align 8 dereferenceable(16) %m_x449.epil, i64 16, i1 false), !tbaa.struct !52
  br label %for.end454

for.end454:                                       ; preds = %for.body442.epil, %for.end454.loopexit.unr-lcssa, %if.then408, %invoke.cont436
  %vertices.sroa.173152.13406 = phi ptr [ %call.i.i.i.i1773, %invoke.cont436 ], [ null, %if.then408 ], [ %call.i.i.i.i1773, %for.end454.loopexit.unr-lcssa ], [ %call.i.i.i.i1773, %for.body442.epil ]
  call void @llvm.lifetime.start.p0(i64 32, ptr nonnull %hdsc) #18
  store i32 1, ptr %hdsc, align 8, !tbaa !73
  store i32 %323, ptr %mVcount.i, align 4, !tbaa !75
  store ptr %vertices.sroa.173152.13406, ptr %mVertices.i, align 8, !tbaa !76
  store i32 16, ptr %mVertexStride.i, align 8, !tbaa !77
  store float 0x3F50624DE0000000, ptr %mNormalEpsilon.i, align 4, !tbaa !78
  call void @llvm.lifetime.start.p0(i64 80, ptr nonnull %hres) #18
  store i8 1, ptr %m_ownsMemory.i.i.i1786, align 8, !tbaa !79
  store ptr null, ptr %m_data.i.i.i1787, align 8, !tbaa !80
  store i32 0, ptr %m_size.i.i.i, align 4, !tbaa !81
  store i32 0, ptr %m_capacity.i.i.i1788, align 8, !tbaa !82
  store i8 1, ptr %m_ownsMemory.i.i4.i, align 8, !tbaa !83
  store ptr null, ptr %m_data.i.i5.i, align 8, !tbaa !86
  store i32 0, ptr %m_size.i.i6.i, align 4, !tbaa !87
  store i32 0, ptr %m_capacity.i.i7.i, align 8, !tbaa !88
  store i8 1, ptr %hres, align 8, !tbaa !89
  store i32 0, ptr %mNumOutputVertices.i, align 4, !tbaa !91
  store i32 0, ptr %mNumFaces.i, align 8, !tbaa !92
  store i32 0, ptr %mNumIndices.i, align 4, !tbaa !93
  call void @llvm.lifetime.start.p0(i64 64, ptr nonnull %hlib) #18
  store i8 1, ptr %m_ownsMemory.i.i.i1789, align 8, !tbaa !94
  store ptr null, ptr %m_data.i.i.i1790, align 8, !tbaa !97
  store i32 0, ptr %m_size.i.i.i1791, align 4, !tbaa !98
  store i32 0, ptr %m_capacity.i.i.i1792, align 8, !tbaa !99
  store i8 1, ptr %m_ownsMemory.i.i4.i1793, align 8, !tbaa !100
  store ptr null, ptr %m_data.i.i5.i1794, align 8, !tbaa !103
  store i32 0, ptr %m_size.i.i6.i1795, align 4, !tbaa !104
  store i32 0, ptr %m_capacity.i.i7.i1796, align 8, !tbaa !105
  store i32 %323, ptr %mMaxVertices.i, align 8, !tbaa !106
  %call469 = invoke noundef i32 @_ZN11HullLibrary16CreateConvexHullERK8HullDescR10HullResult(ptr noundef nonnull align 8 dereferenceable(64) %hlib, ptr noundef nonnull align 8 dereferenceable(32) %hdsc, ptr noundef nonnull align 8 dereferenceable(80) %hres)
          to label %invoke.cont468 unwind label %lpad465

invoke.cont468:                                   ; preds = %for.end454
  %m_OutputVertices.val = load i32, ptr %m_size.i.i.i, align 4, !tbaa !81
  %m_OutputVertices.val1150 = load ptr, ptr %m_data.i.i.i1787, align 8
  %tobool.not.i.i = icmp eq i32 %m_OutputVertices.val, 0
  br i1 %tobool.not.i.i, label %invoke.cont471, label %if.then.i.i1798

if.then.i.i1798:                                  ; preds = %invoke.cont468
  %retval.sroa.0.0.copyload.i.i = load <2 x float>, ptr %m_OutputVertices.val1150, align 4, !tbaa.struct !52
  %retval.sroa.6.0.items.16.val.sroa_idx.i.i = getelementptr inbounds i8, ptr %m_OutputVertices.val1150, i64 8
  %retval.sroa.6.0.copyload.i.i = load <2 x float>, ptr %retval.sroa.6.0.items.16.val.sroa_idx.i.i, align 4, !tbaa.struct !55
  %cmp6.i.i = icmp sgt i32 %m_OutputVertices.val, 1
  br i1 %cmp6.i.i, label %for.body.preheader.i.i, label %invoke.cont471

for.body.preheader.i.i:                           ; preds = %if.then.i.i1798
  %wide.trip.count.i.i = zext i32 %m_OutputVertices.val to i64
  %338 = add nsw i64 %wide.trip.count.i.i, -1
  %xtraiter3435 = and i64 %338, 1
  %339 = icmp eq i32 %m_OutputVertices.val, 2
  br i1 %339, label %invoke.cont471.loopexit.unr-lcssa, label %for.body.preheader.i.i.new

for.body.preheader.i.i.new:                       ; preds = %for.body.preheader.i.i
  %unroll_iter3439 = and i64 %338, -2
  br label %for.body.i.i

for.body.i.i:                                     ; preds = %for.body.i.i, %for.body.preheader.i.i.new
  %indvars.iv.i.i = phi i64 [ 1, %for.body.preheader.i.i.new ], [ %indvars.iv.next.i.i.1, %for.body.i.i ]
  %retval.sroa.0.08.i.i = phi <2 x float> [ %retval.sroa.0.0.copyload.i.i, %for.body.preheader.i.i.new ], [ %344, %for.body.i.i ]
  %retval.sroa.6.07.i.i = phi <2 x float> [ %retval.sroa.6.0.copyload.i.i, %for.body.preheader.i.i.new ], [ %retval.sroa.6.8.vec.insert.i.i.1, %for.body.i.i ]
  %niter3440 = phi i64 [ 0, %for.body.preheader.i.i.new ], [ %niter3440.next.1, %for.body.i.i ]
  %arrayidx.i.i.i1799 = getelementptr inbounds %class.btVector3, ptr %m_OutputVertices.val1150, i64 %indvars.iv.i.i
  %340 = load <2 x float>, ptr %arrayidx.i.i.i1799, align 4, !tbaa !5
  %341 = fadd <2 x float> %retval.sroa.0.08.i.i, %340
  %arrayidx10.i.i.i1803 = getelementptr inbounds [4 x float], ptr %arrayidx.i.i.i1799, i64 0, i64 2
  %342 = load float, ptr %arrayidx10.i.i.i1803, align 4, !tbaa !5
  %retval.sroa.6.8.vec.extract.i.i = extractelement <2 x float> %retval.sroa.6.07.i.i, i64 0
  %add13.i.i.i = fadd float %retval.sroa.6.8.vec.extract.i.i, %342
  %indvars.iv.next.i.i = add nuw nsw i64 %indvars.iv.i.i, 1
  %arrayidx.i.i.i1799.1 = getelementptr inbounds %class.btVector3, ptr %m_OutputVertices.val1150, i64 %indvars.iv.next.i.i
  %343 = load <2 x float>, ptr %arrayidx.i.i.i1799.1, align 4, !tbaa !5
  %344 = fadd <2 x float> %341, %343
  %arrayidx10.i.i.i1803.1 = getelementptr inbounds [4 x float], ptr %arrayidx.i.i.i1799.1, i64 0, i64 2
  %345 = load float, ptr %arrayidx10.i.i.i1803.1, align 4, !tbaa !5
  %add13.i.i.i.1 = fadd float %add13.i.i.i, %345
  %retval.sroa.6.8.vec.insert.i.i.1 = insertelement <2 x float> %retval.sroa.6.07.i.i, float %add13.i.i.i.1, i64 0
  %indvars.iv.next.i.i.1 = add nuw nsw i64 %indvars.iv.i.i, 2
  %niter3440.next.1 = add i64 %niter3440, 2
  %niter3440.ncmp.1 = icmp eq i64 %niter3440.next.1, %unroll_iter3439
  br i1 %niter3440.ncmp.1, label %invoke.cont471.loopexit.unr-lcssa, label %for.body.i.i

invoke.cont471.loopexit.unr-lcssa:                ; preds = %for.body.i.i, %for.body.preheader.i.i
  %.lcssa.ph = phi <2 x float> [ undef, %for.body.preheader.i.i ], [ %344, %for.body.i.i ]
  %retval.sroa.6.8.vec.insert.i.i.lcssa.ph = phi <2 x float> [ undef, %for.body.preheader.i.i ], [ %retval.sroa.6.8.vec.insert.i.i.1, %for.body.i.i ]
  %indvars.iv.i.i.unr = phi i64 [ 1, %for.body.preheader.i.i ], [ %indvars.iv.next.i.i.1, %for.body.i.i ]
  %retval.sroa.0.08.i.i.unr = phi <2 x float> [ %retval.sroa.0.0.copyload.i.i, %for.body.preheader.i.i ], [ %344, %for.body.i.i ]
  %retval.sroa.6.07.i.i.unr = phi <2 x float> [ %retval.sroa.6.0.copyload.i.i, %for.body.preheader.i.i ], [ %retval.sroa.6.8.vec.insert.i.i.1, %for.body.i.i ]
  %lcmp.mod3436.not = icmp eq i64 %xtraiter3435, 0
  br i1 %lcmp.mod3436.not, label %invoke.cont471, label %for.body.i.i.epil

for.body.i.i.epil:                                ; preds = %invoke.cont471.loopexit.unr-lcssa
  %arrayidx.i.i.i1799.epil = getelementptr inbounds %class.btVector3, ptr %m_OutputVertices.val1150, i64 %indvars.iv.i.i.unr
  %346 = load <2 x float>, ptr %arrayidx.i.i.i1799.epil, align 4, !tbaa !5
  %347 = fadd <2 x float> %retval.sroa.0.08.i.i.unr, %346
  %arrayidx10.i.i.i1803.epil = getelementptr inbounds [4 x float], ptr %arrayidx.i.i.i1799.epil, i64 0, i64 2
  %348 = load float, ptr %arrayidx10.i.i.i1803.epil, align 4, !tbaa !5
  %retval.sroa.6.8.vec.extract.i.i.epil = extractelement <2 x float> %retval.sroa.6.07.i.i.unr, i64 0
  %add13.i.i.i.epil = fadd float %retval.sroa.6.8.vec.extract.i.i.epil, %348
  %retval.sroa.6.8.vec.insert.i.i.epil = insertelement <2 x float> %retval.sroa.6.07.i.i.unr, float %add13.i.i.i.epil, i64 0
  br label %invoke.cont471

invoke.cont471:                                   ; preds = %for.body.i.i.epil, %invoke.cont471.loopexit.unr-lcssa, %if.then.i.i1798, %invoke.cont468
  %retval.sroa.6.1.i.i = phi <2 x float> [ undef, %invoke.cont468 ], [ %retval.sroa.6.0.copyload.i.i, %if.then.i.i1798 ], [ %retval.sroa.6.8.vec.insert.i.i.lcssa.ph, %invoke.cont471.loopexit.unr-lcssa ], [ %retval.sroa.6.8.vec.insert.i.i.epil, %for.body.i.i.epil ]
  %retval.sroa.0.1.i.i = phi <2 x float> [ undef, %invoke.cont468 ], [ %retval.sroa.0.0.copyload.i.i, %if.then.i.i1798 ], [ %.lcssa.ph, %invoke.cont471.loopexit.unr-lcssa ], [ %347, %for.body.i.i.epil ]
  %cmp.i1804 = icmp sgt i32 %m_OutputVertices.val, 0
  %349 = sitofp i32 %m_OutputVertices.val to float
  %350 = fdiv float 1.000000e+00, %349
  %div.i.i1805 = select i1 %cmp.i1804, float %350, float 1.000000e+00
  %351 = insertelement <2 x float> poison, float %div.i.i1805, i64 0
  %352 = shufflevector <2 x float> %351, <2 x float> poison, <2 x i32> zeroinitializer
  %353 = fmul <2 x float> %352, %retval.sroa.0.1.i.i
  %ref.tmp.sroa.5.8.vec.extract.i = extractelement <2 x float> %retval.sroa.6.1.i.i, i64 0
  %mul8.i.i.i1808 = fmul float %div.i.i1805, %ref.tmp.sroa.5.8.vec.extract.i
  br i1 %cmp.i1804, label %for.body.lr.ph.i, label %_ZL3addI9btVector3S0_EvR20btAlignedObjectArrayIT_ERKT0_.exit1857

for.body.lr.ph.i:                                 ; preds = %invoke.cont471
  %wide.trip.count.i1823 = zext i32 %m_OutputVertices.val to i64
  %354 = add nsw i64 %wide.trip.count.i1823, -1
  %xtraiter3441 = and i64 %wide.trip.count.i1823, 1
  %355 = icmp eq i64 %354, 0
  br i1 %355, label %for.body.lr.ph.i1846.unr-lcssa, label %for.body.lr.ph.i.new

for.body.lr.ph.i.new:                             ; preds = %for.body.lr.ph.i
  %unroll_iter3443 = and i64 %wide.trip.count.i1823, 4294967294
  br label %for.body.i

for.body.i:                                       ; preds = %for.body.i, %for.body.lr.ph.i.new
  %indvars.iv.i1824 = phi i64 [ 0, %for.body.lr.ph.i.new ], [ %indvars.iv.next.i1830.1, %for.body.i ]
  %niter3444 = phi i64 [ 0, %for.body.lr.ph.i.new ], [ %niter3444.next.1, %for.body.i ]
  %arrayidx.i.i1825 = getelementptr inbounds %class.btVector3, ptr %m_OutputVertices.val1150, i64 %indvars.iv.i1824
  %356 = load <2 x float>, ptr %arrayidx.i.i1825, align 4, !tbaa !5
  %357 = fsub <2 x float> %356, %353
  store <2 x float> %357, ptr %arrayidx.i.i1825, align 4, !tbaa !5
  %arrayidx12.i.i1829 = getelementptr inbounds [4 x float], ptr %arrayidx.i.i1825, i64 0, i64 2
  %358 = load float, ptr %arrayidx12.i.i1829, align 4, !tbaa !5
  %add13.i.i = fsub float %358, %mul8.i.i.i1808
  store float %add13.i.i, ptr %arrayidx12.i.i1829, align 4, !tbaa !5
  %indvars.iv.next.i1830 = or i64 %indvars.iv.i1824, 1
  %arrayidx.i.i1825.1 = getelementptr inbounds %class.btVector3, ptr %m_OutputVertices.val1150, i64 %indvars.iv.next.i1830
  %359 = load <2 x float>, ptr %arrayidx.i.i1825.1, align 4, !tbaa !5
  %360 = fsub <2 x float> %359, %353
  store <2 x float> %360, ptr %arrayidx.i.i1825.1, align 4, !tbaa !5
  %arrayidx12.i.i1829.1 = getelementptr inbounds [4 x float], ptr %arrayidx.i.i1825.1, i64 0, i64 2
  %361 = load float, ptr %arrayidx12.i.i1829.1, align 4, !tbaa !5
  %add13.i.i.1 = fsub float %361, %mul8.i.i.i1808
  store float %add13.i.i.1, ptr %arrayidx12.i.i1829.1, align 4, !tbaa !5
  %indvars.iv.next.i1830.1 = add nuw nsw i64 %indvars.iv.i1824, 2
  %niter3444.next.1 = add i64 %niter3444, 2
  %niter3444.ncmp.1 = icmp eq i64 %niter3444.next.1, %unroll_iter3443
  br i1 %niter3444.ncmp.1, label %for.body.lr.ph.i1846.unr-lcssa, label %for.body.i

for.body.lr.ph.i1846.unr-lcssa:                   ; preds = %for.body.i, %for.body.lr.ph.i
  %indvars.iv.i1824.unr = phi i64 [ 0, %for.body.lr.ph.i ], [ %indvars.iv.next.i1830.1, %for.body.i ]
  %lcmp.mod3442.not = icmp eq i64 %xtraiter3441, 0
  br i1 %lcmp.mod3442.not, label %for.body.lr.ph.i1846, label %for.body.i.epil

for.body.i.epil:                                  ; preds = %for.body.lr.ph.i1846.unr-lcssa
  %arrayidx.i.i1825.epil = getelementptr inbounds %class.btVector3, ptr %m_OutputVertices.val1150, i64 %indvars.iv.i1824.unr
  %362 = load <2 x float>, ptr %arrayidx.i.i1825.epil, align 4, !tbaa !5
  %363 = fsub <2 x float> %362, %353
  store <2 x float> %363, ptr %arrayidx.i.i1825.epil, align 4, !tbaa !5
  %arrayidx12.i.i1829.epil = getelementptr inbounds [4 x float], ptr %arrayidx.i.i1825.epil, i64 0, i64 2
  %364 = load float, ptr %arrayidx12.i.i1829.epil, align 4, !tbaa !5
  %add13.i.i.epil = fsub float %364, %mul8.i.i.i1808
  store float %add13.i.i.epil, ptr %arrayidx12.i.i1829.epil, align 4, !tbaa !5
  br label %for.body.lr.ph.i1846

for.body.lr.ph.i1846:                             ; preds = %for.body.lr.ph.i1846.unr-lcssa, %for.body.i.epil
  %m_OutputVertices.val1152 = load ptr, ptr %m_data.i.i.i1787, align 8
  %xtraiter3445 = and i64 %wide.trip.count.i1823, 1
  %365 = icmp eq i64 %354, 0
  br i1 %365, label %_ZL3addI9btVector3S0_EvR20btAlignedObjectArrayIT_ERKT0_.exit1857.loopexit.unr-lcssa, label %for.body.lr.ph.i1846.new

for.body.lr.ph.i1846.new:                         ; preds = %for.body.lr.ph.i1846
  %unroll_iter3447 = and i64 %wide.trip.count.i1823, 4294967294
  br label %for.body.i1856

for.body.i1856:                                   ; preds = %for.body.i1856, %for.body.lr.ph.i1846.new
  %indvars.iv.i1847 = phi i64 [ 0, %for.body.lr.ph.i1846.new ], [ %indvars.iv.next.i1854.1, %for.body.i1856 ]
  %niter3448 = phi i64 [ 0, %for.body.lr.ph.i1846.new ], [ %niter3448.next.1, %for.body.i1856 ]
  %arrayidx.i.i1848 = getelementptr inbounds %class.btVector3, ptr %m_OutputVertices.val1152, i64 %indvars.iv.i1847
  %366 = load <2 x float>, ptr %arrayidx.i.i1848, align 4, !tbaa !5
  %367 = fadd <2 x float> %353, %366
  store <2 x float> %367, ptr %arrayidx.i.i1848, align 4, !tbaa !5
  %arrayidx12.i.i1852 = getelementptr inbounds [4 x float], ptr %arrayidx.i.i1848, i64 0, i64 2
  %368 = load float, ptr %arrayidx12.i.i1852, align 4, !tbaa !5
  %add13.i.i1853 = fadd float %mul8.i.i.i1808, %368
  store float %add13.i.i1853, ptr %arrayidx12.i.i1852, align 4, !tbaa !5
  %indvars.iv.next.i1854 = or i64 %indvars.iv.i1847, 1
  %arrayidx.i.i1848.1 = getelementptr inbounds %class.btVector3, ptr %m_OutputVertices.val1152, i64 %indvars.iv.next.i1854
  %369 = load <2 x float>, ptr %arrayidx.i.i1848.1, align 4, !tbaa !5
  %370 = fadd <2 x float> %353, %369
  store <2 x float> %370, ptr %arrayidx.i.i1848.1, align 4, !tbaa !5
  %arrayidx12.i.i1852.1 = getelementptr inbounds [4 x float], ptr %arrayidx.i.i1848.1, i64 0, i64 2
  %371 = load float, ptr %arrayidx12.i.i1852.1, align 4, !tbaa !5
  %add13.i.i1853.1 = fadd float %mul8.i.i.i1808, %371
  store float %add13.i.i1853.1, ptr %arrayidx12.i.i1852.1, align 4, !tbaa !5
  %indvars.iv.next.i1854.1 = add nuw nsw i64 %indvars.iv.i1847, 2
  %niter3448.next.1 = add i64 %niter3448, 2
  %niter3448.ncmp.1 = icmp eq i64 %niter3448.next.1, %unroll_iter3447
  br i1 %niter3448.ncmp.1, label %_ZL3addI9btVector3S0_EvR20btAlignedObjectArrayIT_ERKT0_.exit1857.loopexit.unr-lcssa, label %for.body.i1856

_ZL3addI9btVector3S0_EvR20btAlignedObjectArrayIT_ERKT0_.exit1857.loopexit.unr-lcssa: ; preds = %for.body.i1856, %for.body.lr.ph.i1846
  %indvars.iv.i1847.unr = phi i64 [ 0, %for.body.lr.ph.i1846 ], [ %indvars.iv.next.i1854.1, %for.body.i1856 ]
  %lcmp.mod3446.not = icmp eq i64 %xtraiter3445, 0
  br i1 %lcmp.mod3446.not, label %_ZL3addI9btVector3S0_EvR20btAlignedObjectArrayIT_ERKT0_.exit1857, label %for.body.i1856.epil

for.body.i1856.epil:                              ; preds = %_ZL3addI9btVector3S0_EvR20btAlignedObjectArrayIT_ERKT0_.exit1857.loopexit.unr-lcssa
  %arrayidx.i.i1848.epil = getelementptr inbounds %class.btVector3, ptr %m_OutputVertices.val1152, i64 %indvars.iv.i1847.unr
  %372 = load <2 x float>, ptr %arrayidx.i.i1848.epil, align 4, !tbaa !5
  %373 = fadd <2 x float> %353, %372
  store <2 x float> %373, ptr %arrayidx.i.i1848.epil, align 4, !tbaa !5
  %arrayidx12.i.i1852.epil = getelementptr inbounds [4 x float], ptr %arrayidx.i.i1848.epil, i64 0, i64 2
  %374 = load float, ptr %arrayidx12.i.i1852.epil, align 4, !tbaa !5
  %add13.i.i1853.epil = fadd float %mul8.i.i.i1808, %374
  store float %add13.i.i1853.epil, ptr %arrayidx12.i.i1852.epil, align 4, !tbaa !5
  br label %_ZL3addI9btVector3S0_EvR20btAlignedObjectArrayIT_ERKT0_.exit1857

_ZL3addI9btVector3S0_EvR20btAlignedObjectArrayIT_ERKT0_.exit1857: ; preds = %for.body.i1856.epil, %_ZL3addI9btVector3S0_EvR20btAlignedObjectArrayIT_ERKT0_.exit1857.loopexit.unr-lcssa, %invoke.cont471
  %375 = load i32, ptr %mNumFaces.i, align 8, !tbaa !92
  %cmp4903320 = icmp sgt i32 %375, 0
  br i1 %cmp4903320, label %for.body491, label %for.end527

for.body491:                                      ; preds = %_ZL3addI9btVector3S0_EvR20btAlignedObjectArrayIT_ERKT0_.exit1857, %invoke.cont523
  %indvars.iv3374 = phi i64 [ %indvars.iv.next3375, %invoke.cont523 ], [ 0, %_ZL3addI9btVector3S0_EvR20btAlignedObjectArrayIT_ERKT0_.exit1857 ]
  %376 = mul nuw nsw i64 %indvars.iv3374, 3
  %377 = load ptr, ptr %m_data.i.i5.i, align 8, !tbaa !86
  %arrayidx.i1860 = getelementptr inbounds i32, ptr %377, i64 %376
  %378 = load i32, ptr %arrayidx.i1860, align 4, !tbaa !107
  %379 = add nuw nsw i64 %376, 1
  %arrayidx.i1863 = getelementptr inbounds i32, ptr %377, i64 %379
  %380 = load i32, ptr %arrayidx.i1863, align 4, !tbaa !107
  %381 = add nuw nsw i64 %376, 2
  %arrayidx.i1866 = getelementptr inbounds i32, ptr %377, i64 %381
  %382 = load i32, ptr %arrayidx.i1866, align 4, !tbaa !107
  %383 = load ptr, ptr %m_data.i.i.i1787, align 8, !tbaa !80
  %idxprom.i1868 = sext i32 %378 to i64
  %arrayidx.i1869 = getelementptr inbounds %class.btVector3, ptr %383, i64 %idxprom.i1868
  %idxprom.i1871 = sext i32 %380 to i64
  %arrayidx.i1872 = getelementptr inbounds %class.btVector3, ptr %383, i64 %idxprom.i1871
  %idxprom.i1874 = sext i32 %382 to i64
  %arrayidx.i1875 = getelementptr inbounds %class.btVector3, ptr %383, i64 %idxprom.i1874
  %vtable521 = load ptr, ptr %idraw, align 8, !tbaa !21
  %vfn522 = getelementptr inbounds ptr, ptr %vtable521, i64 7
  %384 = load ptr, ptr %vfn522, align 8
  invoke void %384(ptr noundef nonnull align 8 dereferenceable(8) %idraw, ptr noundef nonnull align 4 dereferenceable(16) %arrayidx.i1869, ptr noundef nonnull align 4 dereferenceable(16) %arrayidx.i1872, ptr noundef nonnull align 4 dereferenceable(16) %arrayidx.i1875, ptr noundef nonnull align 4 dereferenceable(16) %color, float noundef 1.000000e+00)
          to label %invoke.cont523 unwind label %lpad494

invoke.cont523:                                   ; preds = %for.body491
  %indvars.iv.next3375 = add nuw nsw i64 %indvars.iv3374, 1
  %385 = load i32, ptr %mNumFaces.i, align 8, !tbaa !92
  %386 = sext i32 %385 to i64
  %cmp490 = icmp slt i64 %indvars.iv.next3375, %386
  br i1 %cmp490, label %for.body491, label %for.end527

lpad461:                                          ; preds = %if.then3.i.i.i10.i1890
  %387 = landingpad { ptr, i32 }
          cleanup
  br label %ehcleanup540

lpad463:                                          ; preds = %if.then3.i.i.i10.i
  %388 = landingpad { ptr, i32 }
          cleanup
  br label %ehcleanup534

lpad465:                                          ; preds = %for.end454
  %389 = landingpad { ptr, i32 }
          cleanup
  br label %ehcleanup532

lpad470:                                          ; preds = %for.end527
  %390 = landingpad { ptr, i32 }
          cleanup
  br label %ehcleanup532

lpad494:                                          ; preds = %for.body491
  %391 = landingpad { ptr, i32 }
          cleanup
  br label %ehcleanup532

for.end527:                                       ; preds = %invoke.cont523, %_ZL3addI9btVector3S0_EvR20btAlignedObjectArrayIT_ERKT0_.exit1857
  %call529 = invoke noundef i32 @_ZN11HullLibrary13ReleaseResultER10HullResult(ptr noundef nonnull align 8 dereferenceable(64) %hlib, ptr noundef nonnull align 8 dereferenceable(80) %hres)
          to label %invoke.cont528 unwind label %lpad470

invoke.cont528:                                   ; preds = %for.end527
  %392 = load ptr, ptr %m_data.i.i5.i1794, align 8, !tbaa !103
  %tobool.not.i.i.i.i = icmp eq ptr %392, null
  %393 = load i8, ptr %m_ownsMemory.i.i4.i1793, align 8, !range !69
  %tobool2.not.i.i.i.i = icmp eq i8 %393, 0
  %or.cond.i.i.i = select i1 %tobool.not.i.i.i.i, i1 true, i1 %tobool2.not.i.i.i.i
  br i1 %or.cond.i.i.i, label %_ZN20btAlignedObjectArrayIiED2Ev.exit.i, label %if.then3.i.i.i.i

if.then3.i.i.i.i:                                 ; preds = %invoke.cont528
  invoke void @_Z21btAlignedFreeInternalPv(ptr noundef nonnull %392)
          to label %_ZN20btAlignedObjectArrayIiED2Ev.exit.i unwind label %lpad.i

_ZN20btAlignedObjectArrayIiED2Ev.exit.i:          ; preds = %if.then3.i.i.i.i, %invoke.cont528
  store i8 1, ptr %m_ownsMemory.i.i4.i1793, align 8, !tbaa !100
  store ptr null, ptr %m_data.i.i5.i1794, align 8, !tbaa !103
  store i32 0, ptr %m_size.i.i6.i1795, align 4, !tbaa !104
  store i32 0, ptr %m_capacity.i.i7.i1796, align 8, !tbaa !105
  %394 = load ptr, ptr %m_data.i.i.i1790, align 8, !tbaa !97
  %tobool.not.i.i.i6.i = icmp eq ptr %394, null
  %395 = load i8, ptr %m_ownsMemory.i.i.i1789, align 8, !range !69
  %tobool2.not.i.i.i8.i = icmp eq i8 %395, 0
  %or.cond.i.i9.i = select i1 %tobool.not.i.i.i6.i, i1 true, i1 %tobool2.not.i.i.i8.i
  br i1 %or.cond.i.i9.i, label %_ZN11HullLibraryD2Ev.exit, label %if.then3.i.i.i10.i

if.then3.i.i.i10.i:                               ; preds = %_ZN20btAlignedObjectArrayIiED2Ev.exit.i
  invoke void @_Z21btAlignedFreeInternalPv(ptr noundef nonnull %394)
          to label %_ZN11HullLibraryD2Ev.exit unwind label %lpad463

lpad.i:                                           ; preds = %if.then3.i.i.i.i
  %396 = landingpad { ptr, i32 }
          cleanup
  %397 = load ptr, ptr %m_data.i.i.i1790, align 8, !tbaa !97
  %tobool.not.i.i.i2922 = icmp eq ptr %397, null
  %398 = load i8, ptr %m_ownsMemory.i.i.i1789, align 8, !range !69
  %tobool2.not.i.i.i2924 = icmp eq i8 %398, 0
  %or.cond.i.i2925 = select i1 %tobool.not.i.i.i2922, i1 true, i1 %tobool2.not.i.i.i2924
  br i1 %or.cond.i.i2925, label %ehcleanup534, label %if.then3.i.i.i2926

if.then3.i.i.i2926:                               ; preds = %lpad.i
  invoke void @_Z21btAlignedFreeInternalPv(ptr noundef nonnull %397)
          to label %ehcleanup534 unwind label %terminate.lpad.i

terminate.lpad.i:                                 ; preds = %if.then3.i.i.i2926
  %399 = landingpad { ptr, i32 }
          catch ptr null
  %400 = extractvalue { ptr, i32 } %399, 0
  call void @__clang_call_terminate(ptr %400) #19
  unreachable

_ZN11HullLibraryD2Ev.exit:                        ; preds = %if.then3.i.i.i10.i, %_ZN20btAlignedObjectArrayIiED2Ev.exit.i
  call void @llvm.lifetime.end.p0(i64 64, ptr nonnull %hlib) #18
  %401 = load ptr, ptr %m_data.i.i5.i, align 8, !tbaa !86
  %tobool.not.i.i.i.i1878 = icmp eq ptr %401, null
  %402 = load i8, ptr %m_ownsMemory.i.i4.i, align 8, !range !69
  %tobool2.not.i.i.i.i1880 = icmp eq i8 %402, 0
  %or.cond.i.i.i1881 = select i1 %tobool.not.i.i.i.i1878, i1 true, i1 %tobool2.not.i.i.i.i1880
  br i1 %or.cond.i.i.i1881, label %_ZN20btAlignedObjectArrayIjED2Ev.exit.i, label %if.then3.i.i.i.i1882

if.then3.i.i.i.i1882:                             ; preds = %_ZN11HullLibraryD2Ev.exit
  invoke void @_Z21btAlignedFreeInternalPv(ptr noundef nonnull %401)
          to label %_ZN20btAlignedObjectArrayIjED2Ev.exit.i unwind label %lpad.i1893

_ZN20btAlignedObjectArrayIjED2Ev.exit.i:          ; preds = %if.then3.i.i.i.i1882, %_ZN11HullLibraryD2Ev.exit
  store i8 1, ptr %m_ownsMemory.i.i4.i, align 8, !tbaa !83
  store ptr null, ptr %m_data.i.i5.i, align 8, !tbaa !86
  store i32 0, ptr %m_size.i.i6.i, align 4, !tbaa !87
  store i32 0, ptr %m_capacity.i.i7.i, align 8, !tbaa !88
  %403 = load ptr, ptr %m_data.i.i.i1787, align 8, !tbaa !80
  %tobool.not.i.i.i6.i1886 = icmp eq ptr %403, null
  %404 = load i8, ptr %m_ownsMemory.i.i.i1786, align 8, !range !69
  %tobool2.not.i.i.i8.i1888 = icmp eq i8 %404, 0
  %or.cond.i.i9.i1889 = select i1 %tobool.not.i.i.i6.i1886, i1 true, i1 %tobool2.not.i.i.i8.i1888
  br i1 %or.cond.i.i9.i1889, label %_ZN10HullResultD2Ev.exit, label %if.then3.i.i.i10.i1890

if.then3.i.i.i10.i1890:                           ; preds = %_ZN20btAlignedObjectArrayIjED2Ev.exit.i
  invoke void @_Z21btAlignedFreeInternalPv(ptr noundef nonnull %403)
          to label %_ZN10HullResultD2Ev.exit unwind label %lpad461

lpad.i1893:                                       ; preds = %if.then3.i.i.i.i1882
  %405 = landingpad { ptr, i32 }
          cleanup
  %406 = load ptr, ptr %m_data.i.i.i1787, align 8, !tbaa !80
  %tobool.not.i.i.i2931 = icmp eq ptr %406, null
  %407 = load i8, ptr %m_ownsMemory.i.i.i1786, align 8, !range !69
  %tobool2.not.i.i.i2933 = icmp eq i8 %407, 0
  %or.cond.i.i2934 = select i1 %tobool.not.i.i.i2931, i1 true, i1 %tobool2.not.i.i.i2933
  br i1 %or.cond.i.i2934, label %ehcleanup540, label %if.then3.i.i.i2935

if.then3.i.i.i2935:                               ; preds = %lpad.i1893
  invoke void @_Z21btAlignedFreeInternalPv(ptr noundef nonnull %406)
          to label %ehcleanup540 unwind label %terminate.lpad.i1895

terminate.lpad.i1895:                             ; preds = %if.then3.i.i.i2935
  %408 = landingpad { ptr, i32 }
          catch ptr null
  %409 = extractvalue { ptr, i32 } %408, 0
  call void @__clang_call_terminate(ptr %409) #19
  unreachable

_ZN10HullResultD2Ev.exit:                         ; preds = %if.then3.i.i.i10.i1890, %_ZN20btAlignedObjectArrayIjED2Ev.exit.i
  call void @llvm.lifetime.end.p0(i64 80, ptr nonnull %hres) #18
  call void @llvm.lifetime.end.p0(i64 32, ptr nonnull %hdsc) #18
  %tobool.not.i.i.i1899 = icmp eq ptr %vertices.sroa.173152.13406, null
  br i1 %tobool.not.i.i.i1899, label %_ZN20btAlignedObjectArrayI9btVector3ED2Ev.exit, label %if.then3.i.i.i1903

if.then3.i.i.i1903:                               ; preds = %_ZN10HullResultD2Ev.exit
  call void @_Z21btAlignedFreeInternalPv(ptr noundef nonnull %vertices.sroa.173152.13406)
  br label %_ZN20btAlignedObjectArrayI9btVector3ED2Ev.exit

_ZN20btAlignedObjectArrayI9btVector3ED2Ev.exit:   ; preds = %_ZN10HullResultD2Ev.exit, %if.then3.i.i.i1903
  call void @llvm.lifetime.end.p0(i64 16, ptr nonnull %color) #18
  %.pre3401 = load ptr, ptr %m_data.i1736, align 8, !tbaa !59
  %arrayidx.i1917.phi.trans.insert = getelementptr inbounds ptr, ptr %.pre3401, i64 %indvars.iv3380
  %.pre3402 = load ptr, ptr %arrayidx.i1917.phi.trans.insert, align 8, !tbaa !27
  br label %if.end544

ehcleanup532:                                     ; preds = %lpad470, %lpad494, %lpad465
  %.pn = phi { ptr, i32 } [ %389, %lpad465 ], [ %391, %lpad494 ], [ %390, %lpad470 ]
  invoke void @_ZN11HullLibraryD2Ev(ptr noundef nonnull align 8 dereferenceable(64) %hlib)
          to label %ehcleanup534 unwind label %terminate.lpad

ehcleanup534:                                     ; preds = %lpad.i, %if.then3.i.i.i2926, %lpad463, %ehcleanup532
  %.pn.pn = phi { ptr, i32 } [ %.pn, %ehcleanup532 ], [ %388, %lpad463 ], [ %396, %if.then3.i.i.i2926 ], [ %396, %lpad.i ]
  call void @llvm.lifetime.end.p0(i64 64, ptr nonnull %hlib) #18
  invoke void @_ZN10HullResultD2Ev(ptr noundef nonnull align 8 dereferenceable(80) %hres)
          to label %ehcleanup540 unwind label %terminate.lpad

ehcleanup540:                                     ; preds = %lpad.i1893, %if.then3.i.i.i2935, %lpad461, %ehcleanup534
  %.pn.pn.pn = phi { ptr, i32 } [ %.pn.pn, %ehcleanup534 ], [ %387, %lpad461 ], [ %405, %if.then3.i.i.i2935 ], [ %405, %lpad.i1893 ]
  call void @llvm.lifetime.end.p0(i64 80, ptr nonnull %hres) #18
  call void @llvm.lifetime.end.p0(i64 32, ptr nonnull %hdsc) #18
  %tobool.not.i.i.i1906 = icmp eq ptr %vertices.sroa.173152.13406, null
  br i1 %tobool.not.i.i.i1906, label %invoke.cont541, label %if.then3.i.i.i1910

if.then3.i.i.i1910:                               ; preds = %ehcleanup540
  invoke void @_Z21btAlignedFreeInternalPv(ptr noundef nonnull %vertices.sroa.173152.13406)
          to label %invoke.cont541 unwind label %terminate.lpad

common.resume:                                    ; preds = %lpad.i2801, %lpad.i2772, %lpad.i2753, %lpad.i2734, %lpad.i2618, %lpad.i2597, %lpad.i2555, %lpad.i2514, %invoke.cont541
  %common.resume.op = phi { ptr, i32 } [ %.pn3338, %invoke.cont541 ], [ %557, %lpad.i2514 ], [ %595, %lpad.i2555 ], [ %633, %lpad.i2597 ], [ %640, %lpad.i2618 ], [ %677, %lpad.i2734 ], [ %683, %lpad.i2753 ], [ %689, %lpad.i2772 ], [ %724, %lpad.i2801 ]
  resume { ptr, i32 } %common.resume.op

invoke.cont541:                                   ; preds = %ehcleanup540.thread, %ehcleanup540, %if.then3.i.i.i1910
  %.pn3338 = phi { ptr, i32 } [ %333, %ehcleanup540.thread ], [ %.pn.pn.pn, %ehcleanup540 ], [ %.pn.pn.pn, %if.then3.i.i.i1910 ]
  call void @llvm.lifetime.end.p0(i64 16, ptr nonnull %color) #18
  call void @llvm.lifetime.end.p0(i64 16, ptr nonnull %ccolor) #18
  call void @llvm.lifetime.end.p0(i64 16, ptr nonnull %ncolor) #18
  call void @llvm.lifetime.end.p0(i64 16, ptr nonnull %lcolor) #18
  br label %common.resume

if.end544:                                        ; preds = %_ZN20btAlignedObjectArrayI9btVector3ED2Ev.exit, %for.body404
  %410 = phi ptr [ %.pre3402, %_ZN20btAlignedObjectArrayI9btVector3ED2Ev.exit ], [ %307, %for.body404 ]
  %m_com = getelementptr inbounds %"struct.btSoftBody::Cluster", ptr %410, i64 0, i32 8
  call void @llvm.lifetime.start.p0(i64 16, ptr nonnull %ref.tmp548) #18
  %m_framexform = getelementptr inbounds %"struct.btSoftBody::Cluster", ptr %410, i64 0, i32 3
  %arrayidx5.i.i.i1921 = getelementptr inbounds %"struct.btSoftBody::Cluster", ptr %410, i64 0, i32 3, i32 0, i32 0, i64 0, i32 0, i64 1
  %arrayidx10.i.i.i1924 = getelementptr inbounds %"struct.btSoftBody::Cluster", ptr %410, i64 0, i32 3, i32 0, i32 0, i64 0, i32 0, i64 2
  %m_origin.i.i1926 = getelementptr inbounds %"struct.btSoftBody::Cluster", ptr %410, i64 0, i32 3, i32 1
  %arrayidx.i.i.i1928 = getelementptr inbounds %"struct.btSoftBody::Cluster", ptr %410, i64 0, i32 3, i32 0, i32 0, i64 1
  %arrayidx5.i20.i.i1929 = getelementptr inbounds %"struct.btSoftBody::Cluster", ptr %410, i64 0, i32 3, i32 0, i32 0, i64 1, i32 0, i64 1
  %arrayidx10.i23.i.i1931 = getelementptr inbounds %"struct.btSoftBody::Cluster", ptr %410, i64 0, i32 3, i32 0, i32 0, i64 1, i32 0, i64 2
  %411 = load float, ptr %m_framexform, align 4, !tbaa !5
  %412 = load float, ptr %arrayidx5.i.i.i1921, align 4, !tbaa !5
  %413 = load float, ptr %arrayidx10.i.i.i1924, align 4, !tbaa !5
  %414 = load float, ptr %arrayidx.i.i.i1928, align 4, !tbaa !5
  %415 = load float, ptr %arrayidx5.i20.i.i1929, align 4, !tbaa !5
  %416 = insertelement <2 x float> poison, float %412, i64 0
  %417 = insertelement <2 x float> %416, float %415, i64 1
  %418 = fmul <2 x float> %417, zeroinitializer
  %419 = insertelement <2 x float> poison, float %411, i64 0
  %420 = insertelement <2 x float> %419, float %414, i64 1
  %421 = call <2 x float> @llvm.fmuladd.v2f32(<2 x float> %420, <2 x float> <float 1.000000e+01, float 1.000000e+01>, <2 x float> %418)
  %422 = load float, ptr %arrayidx10.i23.i.i1931, align 4, !tbaa !5
  %423 = insertelement <2 x float> poison, float %413, i64 0
  %424 = insertelement <2 x float> %423, float %422, i64 1
  %425 = call <2 x float> @llvm.fmuladd.v2f32(<2 x float> %424, <2 x float> zeroinitializer, <2 x float> %421)
  %426 = load <2 x float>, ptr %m_origin.i.i1926, align 4, !tbaa !5
  %427 = fadd <2 x float> %426, %425
  %arrayidx.i26.i.i1934 = getelementptr inbounds %"struct.btSoftBody::Cluster", ptr %410, i64 0, i32 3, i32 0, i32 0, i64 2
  %428 = load float, ptr %arrayidx.i26.i.i1934, align 4, !tbaa !5
  %arrayidx5.i27.i.i1935 = getelementptr inbounds %"struct.btSoftBody::Cluster", ptr %410, i64 0, i32 3, i32 0, i32 0, i64 2, i32 0, i64 1
  %429 = load float, ptr %arrayidx5.i27.i.i1935, align 4, !tbaa !5
  %mul8.i29.i.i1936 = fmul float %429, 0.000000e+00
  %430 = call float @llvm.fmuladd.f32(float %428, float 1.000000e+01, float %mul8.i29.i.i1936)
  %arrayidx10.i30.i.i1937 = getelementptr inbounds %"struct.btSoftBody::Cluster", ptr %410, i64 0, i32 3, i32 0, i32 0, i64 2, i32 0, i64 2
  %431 = load float, ptr %arrayidx10.i30.i.i1937, align 4, !tbaa !5
  %432 = call float @llvm.fmuladd.f32(float %431, float 0.000000e+00, float %430)
  %arrayidx.i32.i.i1938 = getelementptr inbounds %"struct.btSoftBody::Cluster", ptr %410, i64 0, i32 3, i32 1, i32 0, i64 2
  %433 = load float, ptr %arrayidx.i32.i.i1938, align 4, !tbaa !5
  %add17.i.i1939 = fadd float %433, %432
  %retval.sroa.3.12.vec.insert.i.i1942 = insertelement <2 x float> <float poison, float 0.000000e+00>, float %add17.i.i1939, i64 0
  store <2 x float> %427, ptr %ref.tmp548, align 8
  store <2 x float> %retval.sroa.3.12.vec.insert.i.i1942, ptr %303, align 8
  call void @llvm.lifetime.start.p0(i64 16, ptr nonnull %ref.tmp555) #18
  store <4 x float> <float 1.000000e+00, float 0.000000e+00, float 0.000000e+00, float 0.000000e+00>, ptr %ref.tmp555, align 16, !tbaa !5
  %vtable559 = load ptr, ptr %idraw, align 8, !tbaa !21
  %vfn560 = getelementptr inbounds ptr, ptr %vtable559, i64 5
  %434 = load ptr, ptr %vfn560, align 8
  call void %434(ptr noundef nonnull align 8 dereferenceable(8) %idraw, ptr noundef nonnull align 4 dereferenceable(16) %m_com, ptr noundef nonnull align 4 dereferenceable(16) %ref.tmp548, ptr noundef nonnull align 4 dereferenceable(16) %ref.tmp555)
  call void @llvm.lifetime.end.p0(i64 16, ptr nonnull %ref.tmp555) #18
  call void @llvm.lifetime.end.p0(i64 16, ptr nonnull %ref.tmp548) #18
  call void @llvm.lifetime.start.p0(i64 16, ptr nonnull %ref.tmp562) #18
  %435 = load float, ptr %m_framexform, align 4, !tbaa !5
  %436 = load float, ptr %arrayidx5.i.i.i1921, align 4, !tbaa !5
  %437 = load float, ptr %arrayidx10.i.i.i1924, align 4, !tbaa !5
  %438 = load float, ptr %arrayidx.i.i.i1928, align 4, !tbaa !5
  %439 = load float, ptr %arrayidx5.i20.i.i1929, align 4, !tbaa !5
  %440 = insertelement <2 x float> poison, float %436, i64 0
  %441 = insertelement <2 x float> %440, float %439, i64 1
  %442 = fmul <2 x float> %441, <float 1.000000e+01, float 1.000000e+01>
  %443 = insertelement <2 x float> poison, float %435, i64 0
  %444 = insertelement <2 x float> %443, float %438, i64 1
  %445 = call <2 x float> @llvm.fmuladd.v2f32(<2 x float> %444, <2 x float> zeroinitializer, <2 x float> %442)
  %446 = load float, ptr %arrayidx10.i23.i.i1931, align 4, !tbaa !5
  %447 = insertelement <2 x float> poison, float %437, i64 0
  %448 = insertelement <2 x float> %447, float %446, i64 1
  %449 = call <2 x float> @llvm.fmuladd.v2f32(<2 x float> %448, <2 x float> zeroinitializer, <2 x float> %445)
  %450 = load <2 x float>, ptr %m_origin.i.i1926, align 4, !tbaa !5
  %451 = fadd <2 x float> %450, %449
  %452 = load float, ptr %arrayidx.i26.i.i1934, align 4, !tbaa !5
  %453 = load float, ptr %arrayidx5.i27.i.i1935, align 4, !tbaa !5
  %mul8.i29.i.i1966 = fmul float %453, 1.000000e+01
  %454 = call float @llvm.fmuladd.f32(float %452, float 0.000000e+00, float %mul8.i29.i.i1966)
  %455 = load float, ptr %arrayidx10.i30.i.i1937, align 4, !tbaa !5
  %456 = call float @llvm.fmuladd.f32(float %455, float 0.000000e+00, float %454)
  %457 = load float, ptr %arrayidx.i32.i.i1938, align 4, !tbaa !5
  %add17.i.i1969 = fadd float %457, %456
  %retval.sroa.3.12.vec.insert.i.i1972 = insertelement <2 x float> <float poison, float 0.000000e+00>, float %add17.i.i1969, i64 0
  store <2 x float> %451, ptr %ref.tmp562, align 8
  store <2 x float> %retval.sroa.3.12.vec.insert.i.i1972, ptr %304, align 8
  call void @llvm.lifetime.start.p0(i64 16, ptr nonnull %ref.tmp570) #18
  store <4 x float> <float 0.000000e+00, float 1.000000e+00, float 0.000000e+00, float 0.000000e+00>, ptr %ref.tmp570, align 16, !tbaa !5
  %vtable574 = load ptr, ptr %idraw, align 8, !tbaa !21
  %vfn575 = getelementptr inbounds ptr, ptr %vtable574, i64 5
  %458 = load ptr, ptr %vfn575, align 8
  call void %458(ptr noundef nonnull align 8 dereferenceable(8) %idraw, ptr noundef nonnull align 4 dereferenceable(16) %m_com, ptr noundef nonnull align 4 dereferenceable(16) %ref.tmp562, ptr noundef nonnull align 4 dereferenceable(16) %ref.tmp570)
  call void @llvm.lifetime.end.p0(i64 16, ptr nonnull %ref.tmp570) #18
  call void @llvm.lifetime.end.p0(i64 16, ptr nonnull %ref.tmp562) #18
  call void @llvm.lifetime.start.p0(i64 16, ptr nonnull %ref.tmp577) #18
  %459 = load float, ptr %m_framexform, align 4, !tbaa !5
  %460 = load float, ptr %arrayidx5.i.i.i1921, align 4, !tbaa !5
  %461 = load float, ptr %arrayidx10.i.i.i1924, align 4, !tbaa !5
  %462 = load float, ptr %arrayidx.i.i.i1928, align 4, !tbaa !5
  %463 = load float, ptr %arrayidx5.i20.i.i1929, align 4, !tbaa !5
  %464 = insertelement <2 x float> poison, float %460, i64 0
  %465 = insertelement <2 x float> %464, float %463, i64 1
  %466 = fmul <2 x float> %465, zeroinitializer
  %467 = insertelement <2 x float> poison, float %459, i64 0
  %468 = insertelement <2 x float> %467, float %462, i64 1
  %469 = call <2 x float> @llvm.fmuladd.v2f32(<2 x float> %468, <2 x float> zeroinitializer, <2 x float> %466)
  %470 = load float, ptr %arrayidx10.i23.i.i1931, align 4, !tbaa !5
  %471 = insertelement <2 x float> poison, float %461, i64 0
  %472 = insertelement <2 x float> %471, float %470, i64 1
  %473 = call <2 x float> @llvm.fmuladd.v2f32(<2 x float> %472, <2 x float> <float 1.000000e+01, float 1.000000e+01>, <2 x float> %469)
  %474 = load <2 x float>, ptr %m_origin.i.i1926, align 4, !tbaa !5
  %475 = fadd <2 x float> %474, %473
  %476 = load float, ptr %arrayidx.i26.i.i1934, align 4, !tbaa !5
  %477 = load float, ptr %arrayidx5.i27.i.i1935, align 4, !tbaa !5
  %mul8.i29.i.i1996 = fmul float %477, 0.000000e+00
  %478 = call float @llvm.fmuladd.f32(float %476, float 0.000000e+00, float %mul8.i29.i.i1996)
  %479 = load float, ptr %arrayidx10.i30.i.i1937, align 4, !tbaa !5
  %480 = call float @llvm.fmuladd.f32(float %479, float 1.000000e+01, float %478)
  %481 = load float, ptr %arrayidx.i32.i.i1938, align 4, !tbaa !5
  %add17.i.i1999 = fadd float %481, %480
  %retval.sroa.3.12.vec.insert.i.i2002 = insertelement <2 x float> <float poison, float 0.000000e+00>, float %add17.i.i1999, i64 0
  store <2 x float> %475, ptr %ref.tmp577, align 8
  store <2 x float> %retval.sroa.3.12.vec.insert.i.i2002, ptr %305, align 8
  call void @llvm.lifetime.start.p0(i64 16, ptr nonnull %ref.tmp585) #18
  store <4 x float> <float 0.000000e+00, float 0.000000e+00, float 1.000000e+00, float 0.000000e+00>, ptr %ref.tmp585, align 16, !tbaa !5
  %vtable589 = load ptr, ptr %idraw, align 8, !tbaa !21
  %vfn590 = getelementptr inbounds ptr, ptr %vtable589, i64 5
  %482 = load ptr, ptr %vfn590, align 8
  call void %482(ptr noundef nonnull align 8 dereferenceable(8) %idraw, ptr noundef nonnull align 4 dereferenceable(16) %m_com, ptr noundef nonnull align 4 dereferenceable(16) %ref.tmp577, ptr noundef nonnull align 4 dereferenceable(16) %ref.tmp585)
  call void @llvm.lifetime.end.p0(i64 16, ptr nonnull %ref.tmp585) #18
  call void @llvm.lifetime.end.p0(i64 16, ptr nonnull %ref.tmp577) #18
  %indvars.iv.next3381 = add nuw nsw i64 %indvars.iv3380, 1
  %483 = load i32, ptr %m_size.i1735, align 4, !tbaa !56
  %484 = sext i32 %483 to i64
  %cmp403 = icmp slt i64 %indvars.iv.next3381, %484
  br i1 %cmp403, label %for.body404, label %if.end594

if.end594:                                        ; preds = %if.end544, %if.then400, %if.end397
  %and595 = and i32 %drawflags, 8
  %cmp596.not = icmp eq i32 %and595, 0
  br i1 %cmp596.not, label %if.end786, label %if.then597

if.then597:                                       ; preds = %if.end594
  call void @llvm.lifetime.start.p0(i64 16, ptr nonnull %col600) #18
  store <4 x float> <float 0x3FE6666660000000, float 0x3FE6666660000000, float 0x3FE6666660000000, float 0.000000e+00>, ptr %col600, align 16, !tbaa !5
  %m_size.i2011 = getelementptr inbounds %class.btSoftBody, ptr %psb, i64 0, i32 12, i32 2
  %485 = load i32, ptr %m_size.i2011, align 4, !tbaa !108
  %cmp6073324 = icmp sgt i32 %485, 0
  br i1 %cmp6073324, label %for.body608.lr.ph, label %for.cond.cleanup

for.body608.lr.ph:                                ; preds = %if.then597
  %m_data.i2012 = getelementptr inbounds %class.btSoftBody, ptr %psb, i64 0, i32 12, i32 5
  %486 = getelementptr inbounds { <2 x float>, <2 x float> }, ptr %ref.tmp651, i64 0, i32 1
  %487 = getelementptr inbounds { <2 x float>, <2 x float> }, ptr %ref.tmp661, i64 0, i32 1
  %488 = getelementptr inbounds { <2 x float>, <2 x float> }, ptr %ref.tmp671, i64 0, i32 1
  %489 = getelementptr inbounds { <2 x float>, <2 x float> }, ptr %ref.tmp683, i64 0, i32 1
  %490 = getelementptr inbounds { <2 x float>, <2 x float> }, ptr %ref.tmp693, i64 0, i32 1
  %491 = getelementptr inbounds { <2 x float>, <2 x float> }, ptr %ref.tmp703, i64 0, i32 1
  %492 = getelementptr inbounds { <2 x float>, <2 x float> }, ptr %ref.tmp715, i64 0, i32 1
  %493 = getelementptr inbounds { <2 x float>, <2 x float> }, ptr %ref.tmp725, i64 0, i32 1
  %494 = getelementptr inbounds { <2 x float>, <2 x float> }, ptr %ref.tmp735, i64 0, i32 1
  %495 = getelementptr inbounds { <2 x float>, <2 x float> }, ptr %ref.tmp747, i64 0, i32 1
  %496 = getelementptr inbounds { <2 x float>, <2 x float> }, ptr %ref.tmp757, i64 0, i32 1
  %497 = getelementptr inbounds { <2 x float>, <2 x float> }, ptr %ref.tmp767, i64 0, i32 1
  br label %for.body608

for.cond.cleanup:                                 ; preds = %cleanup779, %if.then597
  call void @llvm.lifetime.end.p0(i64 16, ptr nonnull %col600) #18
  br label %if.end786

for.body608:                                      ; preds = %for.body608.lr.ph, %cleanup779
  %498 = phi i32 [ %485, %for.body608.lr.ph ], [ %510, %cleanup779 ]
  %indvars.iv3383 = phi i64 [ 0, %for.body608.lr.ph ], [ %indvars.iv.next3384, %cleanup779 ]
  %499 = load ptr, ptr %m_data.i2012, align 8, !tbaa !111
  %m_material611 = getelementptr inbounds %"struct.btSoftBody::Tetra", ptr %499, i64 %indvars.iv3383, i32 0, i32 1
  %500 = load ptr, ptr %m_material611, align 8, !tbaa !16
  %m_flags612 = getelementptr inbounds %"struct.btSoftBody::Material", ptr %500, i64 0, i32 4
  %501 = load i32, ptr %m_flags612, align 4, !tbaa !19
  %and613 = and i32 %501, 1
  %cmp614 = icmp eq i32 %and613, 0
  br i1 %cmp614, label %cleanup779, label %if.end616

if.end616:                                        ; preds = %for.body608
  %m_n619 = getelementptr inbounds %"struct.btSoftBody::Tetra", ptr %499, i64 %indvars.iv3383, i32 1
  %502 = load ptr, ptr %m_n619, align 8, !tbaa !27
  %m_x621 = getelementptr inbounds %"struct.btSoftBody::Node", ptr %502, i64 0, i32 1
  %x617.sroa.0.0.copyload = load float, ptr %m_x621, align 8, !tbaa.struct !52
  %x617.sroa.7.0.m_x621.sroa_idx = getelementptr inbounds %"struct.btSoftBody::Node", ptr %502, i64 0, i32 1, i32 0, i64 1
  %x617.sroa.7.0.copyload = load float, ptr %x617.sroa.7.0.m_x621.sroa_idx, align 4, !tbaa.struct !54
  %x617.sroa.11.0.m_x621.sroa_idx = getelementptr inbounds %"struct.btSoftBody::Node", ptr %502, i64 0, i32 1, i32 0, i64 2
  %x617.sroa.11.0.copyload = load float, ptr %x617.sroa.11.0.m_x621.sroa_idx, align 8, !tbaa.struct !55
  %arrayidx624 = getelementptr inbounds %"struct.btSoftBody::Tetra", ptr %499, i64 %indvars.iv3383, i32 1, i64 1
  %503 = load ptr, ptr %arrayidx624, align 8, !tbaa !27
  %m_x625 = getelementptr inbounds %"struct.btSoftBody::Node", ptr %503, i64 0, i32 1
  %x617.sroa.153099.16.copyload = load float, ptr %m_x625, align 8, !tbaa.struct !52
  %x617.sroa.20.16.m_x625.sroa_idx = getelementptr inbounds %"struct.btSoftBody::Node", ptr %503, i64 0, i32 1, i32 0, i64 1
  %x617.sroa.20.16.copyload = load float, ptr %x617.sroa.20.16.m_x625.sroa_idx, align 4, !tbaa.struct !54
  %x617.sroa.24.16.m_x625.sroa_idx = getelementptr inbounds %"struct.btSoftBody::Node", ptr %503, i64 0, i32 1, i32 0, i64 2
  %x617.sroa.24.16.copyload = load float, ptr %x617.sroa.24.16.m_x625.sroa_idx, align 8, !tbaa.struct !55
  %arrayidx628 = getelementptr inbounds %"struct.btSoftBody::Tetra", ptr %499, i64 %indvars.iv3383, i32 1, i64 2
  %504 = load ptr, ptr %arrayidx628, align 8, !tbaa !27
  %m_x629 = getelementptr inbounds %"struct.btSoftBody::Node", ptr %504, i64 0, i32 1
  %x617.sroa.283109.32.copyload = load float, ptr %m_x629, align 8, !tbaa.struct !52
  %x617.sroa.33.32.m_x629.sroa_idx = getelementptr inbounds %"struct.btSoftBody::Node", ptr %504, i64 0, i32 1, i32 0, i64 1
  %x617.sroa.33.32.copyload = load float, ptr %x617.sroa.33.32.m_x629.sroa_idx, align 4, !tbaa.struct !54
  %x617.sroa.37.32.m_x629.sroa_idx = getelementptr inbounds %"struct.btSoftBody::Node", ptr %504, i64 0, i32 1, i32 0, i64 2
  %x617.sroa.37.32.copyload = load float, ptr %x617.sroa.37.32.m_x629.sroa_idx, align 8, !tbaa.struct !55
  %arrayidx632 = getelementptr inbounds %"struct.btSoftBody::Tetra", ptr %499, i64 %indvars.iv3383, i32 1, i64 3
  %505 = load ptr, ptr %arrayidx632, align 8, !tbaa !27
  %m_x633 = getelementptr inbounds %"struct.btSoftBody::Node", ptr %505, i64 0, i32 1
  %x617.sroa.413119.48.copyload = load float, ptr %m_x633, align 8, !tbaa.struct !52
  %x617.sroa.46.48.m_x633.sroa_idx = getelementptr inbounds %"struct.btSoftBody::Node", ptr %505, i64 0, i32 1, i32 0, i64 1
  %x617.sroa.46.48.copyload = load float, ptr %x617.sroa.46.48.m_x633.sroa_idx, align 4, !tbaa.struct !54
  %x617.sroa.50.48.m_x633.sroa_idx = getelementptr inbounds %"struct.btSoftBody::Node", ptr %505, i64 0, i32 1, i32 0, i64 2
  %x617.sroa.50.48.copyload = load float, ptr %x617.sroa.50.48.m_x633.sroa_idx, align 8, !tbaa.struct !55
  %add.i2015 = fadd float %x617.sroa.0.0.copyload, %x617.sroa.153099.16.copyload
  %add8.i2018 = fadd float %x617.sroa.7.0.copyload, %x617.sroa.20.16.copyload
  %add14.i2021 = fadd float %x617.sroa.11.0.copyload, %x617.sroa.24.16.copyload
  %add.i2027 = fadd float %add.i2015, %x617.sroa.283109.32.copyload
  %add8.i2030 = fadd float %add8.i2018, %x617.sroa.33.32.copyload
  %add14.i2033 = fadd float %add14.i2021, %x617.sroa.37.32.copyload
  %add.i2039 = fadd float %add.i2027, %x617.sroa.413119.48.copyload
  %add8.i2042 = fadd float %add8.i2030, %x617.sroa.46.48.copyload
  %add14.i2045 = fadd float %add14.i2033, %x617.sroa.50.48.copyload
  %mul.i.i2052 = fmul float %add.i2039, 2.500000e-01
  %mul4.i.i2054 = fmul float %add8.i2042, 2.500000e-01
  %mul8.i.i2056 = fmul float %add14.i2045, 2.500000e-01
  call void @llvm.lifetime.start.p0(i64 16, ptr nonnull %ref.tmp651) #18
  %sub.i2062 = fsub float %x617.sroa.0.0.copyload, %mul.i.i2052
  %sub8.i2065 = fsub float %x617.sroa.7.0.copyload, %mul4.i.i2054
  %sub14.i2068 = fsub float %x617.sroa.11.0.copyload, %mul8.i.i2056
  %mul.i2074 = fmul float %sub.i2062, 0x3FE99999A0000000
  %mul4.i2076 = fmul float %sub8.i2065, 0x3FE99999A0000000
  %mul8.i2078 = fmul float %sub14.i2068, 0x3FE99999A0000000
  %add.i2084 = fadd float %mul.i.i2052, %mul.i2074
  %add8.i2087 = fadd float %mul4.i.i2054, %mul4.i2076
  %add14.i2090 = fadd float %mul8.i.i2056, %mul8.i2078
  %retval.sroa.0.0.vec.insert.i2091 = insertelement <2 x float> undef, float %add.i2084, i64 0
  %retval.sroa.0.4.vec.insert.i2092 = insertelement <2 x float> %retval.sroa.0.0.vec.insert.i2091, float %add8.i2087, i64 1
  %retval.sroa.3.12.vec.insert.i2093 = insertelement <2 x float> <float poison, float 0.000000e+00>, float %add14.i2090, i64 0
  store <2 x float> %retval.sroa.0.4.vec.insert.i2092, ptr %ref.tmp651, align 8
  store <2 x float> %retval.sroa.3.12.vec.insert.i2093, ptr %486, align 8
  call void @llvm.lifetime.start.p0(i64 16, ptr nonnull %ref.tmp661) #18
  %sub.i2096 = fsub float %x617.sroa.153099.16.copyload, %mul.i.i2052
  %sub8.i2099 = fsub float %x617.sroa.20.16.copyload, %mul4.i.i2054
  %sub14.i2102 = fsub float %x617.sroa.24.16.copyload, %mul8.i.i2056
  %mul.i2108 = fmul float %sub.i2096, 0x3FE99999A0000000
  %mul4.i2110 = fmul float %sub8.i2099, 0x3FE99999A0000000
  %mul8.i2112 = fmul float %sub14.i2102, 0x3FE99999A0000000
  %add.i2118 = fadd float %mul.i.i2052, %mul.i2108
  %add8.i2121 = fadd float %mul4.i.i2054, %mul4.i2110
  %add14.i2124 = fadd float %mul8.i.i2056, %mul8.i2112
  %retval.sroa.0.0.vec.insert.i2125 = insertelement <2 x float> undef, float %add.i2118, i64 0
  %retval.sroa.0.4.vec.insert.i2126 = insertelement <2 x float> %retval.sroa.0.0.vec.insert.i2125, float %add8.i2121, i64 1
  %retval.sroa.3.12.vec.insert.i2127 = insertelement <2 x float> <float poison, float 0.000000e+00>, float %add14.i2124, i64 0
  store <2 x float> %retval.sroa.0.4.vec.insert.i2126, ptr %ref.tmp661, align 8
  store <2 x float> %retval.sroa.3.12.vec.insert.i2127, ptr %487, align 8
  call void @llvm.lifetime.start.p0(i64 16, ptr nonnull %ref.tmp671) #18
  %sub.i2130 = fsub float %x617.sroa.283109.32.copyload, %mul.i.i2052
  %sub8.i2133 = fsub float %x617.sroa.33.32.copyload, %mul4.i.i2054
  %sub14.i2136 = fsub float %x617.sroa.37.32.copyload, %mul8.i.i2056
  %mul.i2142 = fmul float %sub.i2130, 0x3FE99999A0000000
  %mul4.i2144 = fmul float %sub8.i2133, 0x3FE99999A0000000
  %mul8.i2146 = fmul float %sub14.i2136, 0x3FE99999A0000000
  %add.i2152 = fadd float %mul.i.i2052, %mul.i2142
  %add8.i2155 = fadd float %mul4.i.i2054, %mul4.i2144
  %add14.i2158 = fadd float %mul8.i.i2056, %mul8.i2146
  %retval.sroa.0.0.vec.insert.i2159 = insertelement <2 x float> undef, float %add.i2152, i64 0
  %retval.sroa.0.4.vec.insert.i2160 = insertelement <2 x float> %retval.sroa.0.0.vec.insert.i2159, float %add8.i2155, i64 1
  %retval.sroa.3.12.vec.insert.i2161 = insertelement <2 x float> <float poison, float 0.000000e+00>, float %add14.i2158, i64 0
  store <2 x float> %retval.sroa.0.4.vec.insert.i2160, ptr %ref.tmp671, align 8
  store <2 x float> %retval.sroa.3.12.vec.insert.i2161, ptr %488, align 8
  %vtable681 = load ptr, ptr %idraw, align 8, !tbaa !21
  %vfn682 = getelementptr inbounds ptr, ptr %vtable681, i64 7
  %506 = load ptr, ptr %vfn682, align 8
  call void %506(ptr noundef nonnull align 8 dereferenceable(8) %idraw, ptr noundef nonnull align 4 dereferenceable(16) %ref.tmp651, ptr noundef nonnull align 4 dereferenceable(16) %ref.tmp661, ptr noundef nonnull align 4 dereferenceable(16) %ref.tmp671, ptr noundef nonnull align 4 dereferenceable(16) %col600, float noundef 1.000000e+00)
  call void @llvm.lifetime.end.p0(i64 16, ptr nonnull %ref.tmp671) #18
  call void @llvm.lifetime.end.p0(i64 16, ptr nonnull %ref.tmp661) #18
  call void @llvm.lifetime.end.p0(i64 16, ptr nonnull %ref.tmp651) #18
  call void @llvm.lifetime.start.p0(i64 16, ptr nonnull %ref.tmp683) #18
  store <2 x float> %retval.sroa.0.4.vec.insert.i2092, ptr %ref.tmp683, align 8
  store <2 x float> %retval.sroa.3.12.vec.insert.i2093, ptr %489, align 8
  call void @llvm.lifetime.start.p0(i64 16, ptr nonnull %ref.tmp693) #18
  store <2 x float> %retval.sroa.0.4.vec.insert.i2126, ptr %ref.tmp693, align 8
  store <2 x float> %retval.sroa.3.12.vec.insert.i2127, ptr %490, align 8
  call void @llvm.lifetime.start.p0(i64 16, ptr nonnull %ref.tmp703) #18
  %sub.i2232 = fsub float %x617.sroa.413119.48.copyload, %mul.i.i2052
  %sub8.i2235 = fsub float %x617.sroa.46.48.copyload, %mul4.i.i2054
  %sub14.i2238 = fsub float %x617.sroa.50.48.copyload, %mul8.i.i2056
  %mul.i2244 = fmul float %sub.i2232, 0x3FE99999A0000000
  %mul4.i2246 = fmul float %sub8.i2235, 0x3FE99999A0000000
  %mul8.i2248 = fmul float %sub14.i2238, 0x3FE99999A0000000
  %add.i2254 = fadd float %mul.i.i2052, %mul.i2244
  %add8.i2257 = fadd float %mul4.i.i2054, %mul4.i2246
  %add14.i2260 = fadd float %mul8.i.i2056, %mul8.i2248
  %retval.sroa.0.0.vec.insert.i2261 = insertelement <2 x float> undef, float %add.i2254, i64 0
  %retval.sroa.0.4.vec.insert.i2262 = insertelement <2 x float> %retval.sroa.0.0.vec.insert.i2261, float %add8.i2257, i64 1
  %retval.sroa.3.12.vec.insert.i2263 = insertelement <2 x float> <float poison, float 0.000000e+00>, float %add14.i2260, i64 0
  store <2 x float> %retval.sroa.0.4.vec.insert.i2262, ptr %ref.tmp703, align 8
  store <2 x float> %retval.sroa.3.12.vec.insert.i2263, ptr %491, align 8
  %vtable713 = load ptr, ptr %idraw, align 8, !tbaa !21
  %vfn714 = getelementptr inbounds ptr, ptr %vtable713, i64 7
  %507 = load ptr, ptr %vfn714, align 8
  call void %507(ptr noundef nonnull align 8 dereferenceable(8) %idraw, ptr noundef nonnull align 4 dereferenceable(16) %ref.tmp683, ptr noundef nonnull align 4 dereferenceable(16) %ref.tmp693, ptr noundef nonnull align 4 dereferenceable(16) %ref.tmp703, ptr noundef nonnull align 4 dereferenceable(16) %col600, float noundef 1.000000e+00)
  call void @llvm.lifetime.end.p0(i64 16, ptr nonnull %ref.tmp703) #18
  call void @llvm.lifetime.end.p0(i64 16, ptr nonnull %ref.tmp693) #18
  call void @llvm.lifetime.end.p0(i64 16, ptr nonnull %ref.tmp683) #18
  call void @llvm.lifetime.start.p0(i64 16, ptr nonnull %ref.tmp715) #18
  store <2 x float> %retval.sroa.0.4.vec.insert.i2126, ptr %ref.tmp715, align 8
  store <2 x float> %retval.sroa.3.12.vec.insert.i2127, ptr %492, align 8
  call void @llvm.lifetime.start.p0(i64 16, ptr nonnull %ref.tmp725) #18
  store <2 x float> %retval.sroa.0.4.vec.insert.i2160, ptr %ref.tmp725, align 8
  store <2 x float> %retval.sroa.3.12.vec.insert.i2161, ptr %493, align 8
  call void @llvm.lifetime.start.p0(i64 16, ptr nonnull %ref.tmp735) #18
  store <2 x float> %retval.sroa.0.4.vec.insert.i2262, ptr %ref.tmp735, align 8
  store <2 x float> %retval.sroa.3.12.vec.insert.i2263, ptr %494, align 8
  %vtable745 = load ptr, ptr %idraw, align 8, !tbaa !21
  %vfn746 = getelementptr inbounds ptr, ptr %vtable745, i64 7
  %508 = load ptr, ptr %vfn746, align 8
  call void %508(ptr noundef nonnull align 8 dereferenceable(8) %idraw, ptr noundef nonnull align 4 dereferenceable(16) %ref.tmp715, ptr noundef nonnull align 4 dereferenceable(16) %ref.tmp725, ptr noundef nonnull align 4 dereferenceable(16) %ref.tmp735, ptr noundef nonnull align 4 dereferenceable(16) %col600, float noundef 1.000000e+00)
  call void @llvm.lifetime.end.p0(i64 16, ptr nonnull %ref.tmp735) #18
  call void @llvm.lifetime.end.p0(i64 16, ptr nonnull %ref.tmp725) #18
  call void @llvm.lifetime.end.p0(i64 16, ptr nonnull %ref.tmp715) #18
  call void @llvm.lifetime.start.p0(i64 16, ptr nonnull %ref.tmp747) #18
  store <2 x float> %retval.sroa.0.4.vec.insert.i2160, ptr %ref.tmp747, align 8
  store <2 x float> %retval.sroa.3.12.vec.insert.i2161, ptr %495, align 8
  call void @llvm.lifetime.start.p0(i64 16, ptr nonnull %ref.tmp757) #18
  store <2 x float> %retval.sroa.0.4.vec.insert.i2092, ptr %ref.tmp757, align 8
  store <2 x float> %retval.sroa.3.12.vec.insert.i2093, ptr %496, align 8
  call void @llvm.lifetime.start.p0(i64 16, ptr nonnull %ref.tmp767) #18
  store <2 x float> %retval.sroa.0.4.vec.insert.i2262, ptr %ref.tmp767, align 8
  store <2 x float> %retval.sroa.3.12.vec.insert.i2263, ptr %497, align 8
  %vtable777 = load ptr, ptr %idraw, align 8, !tbaa !21
  %vfn778 = getelementptr inbounds ptr, ptr %vtable777, i64 7
  %509 = load ptr, ptr %vfn778, align 8
  call void %509(ptr noundef nonnull align 8 dereferenceable(8) %idraw, ptr noundef nonnull align 4 dereferenceable(16) %ref.tmp747, ptr noundef nonnull align 4 dereferenceable(16) %ref.tmp757, ptr noundef nonnull align 4 dereferenceable(16) %ref.tmp767, ptr noundef nonnull align 4 dereferenceable(16) %col600, float noundef 1.000000e+00)
  call void @llvm.lifetime.end.p0(i64 16, ptr nonnull %ref.tmp767) #18
  call void @llvm.lifetime.end.p0(i64 16, ptr nonnull %ref.tmp757) #18
  call void @llvm.lifetime.end.p0(i64 16, ptr nonnull %ref.tmp747) #18
  %.pre3403 = load i32, ptr %m_size.i2011, align 4, !tbaa !108
  br label %cleanup779

cleanup779:                                       ; preds = %for.body608, %if.end616
  %510 = phi i32 [ %498, %for.body608 ], [ %.pre3403, %if.end616 ]
  %indvars.iv.next3384 = add nuw nsw i64 %indvars.iv3383, 1
  %511 = sext i32 %510 to i64
  %cmp607 = icmp slt i64 %indvars.iv.next3384, %511
  br i1 %cmp607, label %for.body608, label %for.cond.cleanup

if.end786:                                        ; preds = %for.cond.cleanup, %if.end594
  %and787 = and i32 %drawflags, 128
  %cmp788.not = icmp eq i32 %and787, 0
  br i1 %cmp788.not, label %if.end822, label %for.cond790.preheader

for.cond790.preheader:                            ; preds = %if.end786
  %m_size.i2470 = getelementptr inbounds %class.btSoftBody, ptr %psb, i64 0, i32 8, i32 2
  %512 = load i32, ptr %m_size.i2470, align 4, !tbaa !112
  %cmp7923332 = icmp sgt i32 %512, 0
  br i1 %cmp7923332, label %for.body793.lr.ph, label %if.end822

for.body793.lr.ph:                                ; preds = %for.cond790.preheader
  %m_data.i2471 = getelementptr inbounds %class.btSoftBody, ptr %psb, i64 0, i32 8, i32 5
  %arrayidx12.i = getelementptr inbounds [4 x float], ptr %p, i64 0, i64 2
  br label %for.body793

for.body793:                                      ; preds = %for.body793.lr.ph, %for.cond.cleanup801
  %indvars.iv3391 = phi i64 [ 0, %for.body793.lr.ph ], [ %indvars.iv.next3392, %for.cond.cleanup801 ]
  %513 = load ptr, ptr %m_data.i2471, align 8, !tbaa !115
  call void @llvm.lifetime.start.p0(i64 16, ptr nonnull %p) #18
  %m_offset797 = getelementptr inbounds %"struct.btSoftBody::Note", ptr %513, i64 %indvars.iv3391, i32 2
  call void @llvm.memcpy.p0.p0.i64(ptr noundef nonnull align 8 dereferenceable(16) %p, ptr noundef nonnull align 8 dereferenceable(16) %m_offset797, i64 16, i1 false), !tbaa.struct !52
  %m_rank = getelementptr inbounds %"struct.btSoftBody::Note", ptr %513, i64 %indvars.iv3391, i32 3
  %514 = load i32, ptr %m_rank, align 8, !tbaa !116
  %cmp8003327 = icmp sgt i32 %514, 0
  br i1 %cmp8003327, label %for.body802.lr.ph, label %for.cond.cleanup801

for.body802.lr.ph:                                ; preds = %for.body793
  %515 = load <2 x float>, ptr %p, align 8, !tbaa !5
  %arrayidx12.i.promoted = load float, ptr %arrayidx12.i, align 8, !tbaa !5
  %wide.trip.count3389 = zext i32 %514 to i64
  br label %for.body802

for.cond.cleanup801:                              ; preds = %for.body802, %for.body793
  %m_text = getelementptr inbounds %"struct.btSoftBody::Note", ptr %513, i64 %indvars.iv3391, i32 1
  %516 = load ptr, ptr %m_text, align 8, !tbaa !118
  %vtable817 = load ptr, ptr %idraw, align 8, !tbaa !21
  %vfn818 = getelementptr inbounds ptr, ptr %vtable817, i64 10
  %517 = load ptr, ptr %vfn818, align 8
  call void %517(ptr noundef nonnull align 8 dereferenceable(8) %idraw, ptr noundef nonnull align 4 dereferenceable(16) %p, ptr noundef %516)
  call void @llvm.lifetime.end.p0(i64 16, ptr nonnull %p) #18
  %indvars.iv.next3392 = add nuw nsw i64 %indvars.iv3391, 1
  %518 = load i32, ptr %m_size.i2470, align 4, !tbaa !112
  %519 = sext i32 %518 to i64
  %cmp792 = icmp slt i64 %indvars.iv.next3392, %519
  br i1 %cmp792, label %for.body793, label %if.end822

for.body802:                                      ; preds = %for.body802.lr.ph, %for.body802
  %indvars.iv3386 = phi i64 [ 0, %for.body802.lr.ph ], [ %indvars.iv.next3387, %for.body802 ]
  %add13.i3331 = phi float [ %arrayidx12.i.promoted, %for.body802.lr.ph ], [ %add13.i, %for.body802 ]
  %520 = phi <2 x float> [ %515, %for.body802.lr.ph ], [ %528, %for.body802 ]
  %arrayidx806 = getelementptr inbounds %"struct.btSoftBody::Note", ptr %513, i64 %indvars.iv3391, i32 4, i64 %indvars.iv3386
  %521 = load ptr, ptr %arrayidx806, align 8, !tbaa !27
  %m_x807 = getelementptr inbounds %"struct.btSoftBody::Node", ptr %521, i64 0, i32 1
  %arrayidx809 = getelementptr inbounds %"struct.btSoftBody::Note", ptr %513, i64 %indvars.iv3391, i32 5, i64 %indvars.iv3386
  %522 = load float, ptr %arrayidx809, align 4, !tbaa !5
  %arrayidx7.i2477 = getelementptr inbounds %"struct.btSoftBody::Node", ptr %521, i64 0, i32 1, i32 0, i64 2
  %523 = load float, ptr %arrayidx7.i2477, align 4, !tbaa !5
  %mul8.i2478 = fmul float %522, %523
  %524 = load <2 x float>, ptr %m_x807, align 4, !tbaa !5
  %525 = insertelement <2 x float> poison, float %522, i64 0
  %526 = shufflevector <2 x float> %525, <2 x float> poison, <2 x i32> zeroinitializer
  %527 = fmul <2 x float> %526, %524
  %528 = fadd <2 x float> %527, %520
  store <2 x float> %528, ptr %p, align 8, !tbaa !5
  %add13.i = fadd float %mul8.i2478, %add13.i3331
  store float %add13.i, ptr %arrayidx12.i, align 8, !tbaa !5
  %indvars.iv.next3387 = add nuw nsw i64 %indvars.iv3386, 1
  %exitcond3390.not = icmp eq i64 %indvars.iv.next3387, %wide.trip.count3389
  br i1 %exitcond3390.not, label %for.cond.cleanup801, label %for.body802

if.end822:                                        ; preds = %for.cond.cleanup801, %for.cond790.preheader, %if.end786
  %and823 = and i32 %drawflags, 512
  %cmp824.not = icmp eq i32 %and823, 0
  br i1 %cmp824.not, label %if.end826, label %if.then825

if.then825:                                       ; preds = %if.end822
  %m_ndbvt.i = getelementptr inbounds %class.btSoftBody, ptr %psb, i64 0, i32 21
  %529 = load ptr, ptr %m_ndbvt.i, align 8, !tbaa !119
  call void @llvm.lifetime.start.p0(i64 16, ptr nonnull %ref.tmp.i2488) #18
  store <4 x float> <float 1.000000e+00, float 0.000000e+00, float 1.000000e+00, float 0.000000e+00>, ptr %ref.tmp.i2488, align 16, !tbaa !5
  call void @llvm.lifetime.start.p0(i64 16, ptr nonnull %ref.tmp4.i2489) #18
  store <4 x float> <float 1.000000e+00, float 1.000000e+00, float 1.000000e+00, float 0.000000e+00>, ptr %ref.tmp4.i2489, align 16, !tbaa !5
  call fastcc void @_ZL8drawTreeP12btIDebugDrawPK10btDbvtNodeiRK9btVector3S6_ii(ptr noundef %idraw, ptr noundef %529, i32 noundef 0, ptr noundef nonnull align 4 dereferenceable(16) %ref.tmp.i2488, ptr noundef nonnull align 4 dereferenceable(16) %ref.tmp4.i2489, i32 noundef 0, i32 noundef -1)
  call void @llvm.lifetime.end.p0(i64 16, ptr nonnull %ref.tmp4.i2489) #18
  call void @llvm.lifetime.end.p0(i64 16, ptr nonnull %ref.tmp.i2488) #18
  br label %if.end826

if.end826:                                        ; preds = %if.then825, %if.end822
  %and827 = and i32 %drawflags, 1024
  %cmp828.not = icmp eq i32 %and827, 0
  br i1 %cmp828.not, label %if.end830, label %if.then829

if.then829:                                       ; preds = %if.end826
  %m_fdbvt.i = getelementptr inbounds %class.btSoftBody, ptr %psb, i64 0, i32 22
  %530 = load ptr, ptr %m_fdbvt.i, align 8, !tbaa !143
  call void @llvm.lifetime.start.p0(i64 16, ptr nonnull %ref.tmp.i2493) #18
  store <4 x float> <float 0.000000e+00, float 1.000000e+00, float 0.000000e+00, float 0.000000e+00>, ptr %ref.tmp.i2493, align 16, !tbaa !5
  call void @llvm.lifetime.start.p0(i64 16, ptr nonnull %ref.tmp4.i2494) #18
  store <4 x float> <float 1.000000e+00, float 0.000000e+00, float 0.000000e+00, float 0.000000e+00>, ptr %ref.tmp4.i2494, align 16, !tbaa !5
  call fastcc void @_ZL8drawTreeP12btIDebugDrawPK10btDbvtNodeiRK9btVector3S6_ii(ptr noundef %idraw, ptr noundef %530, i32 noundef 0, ptr noundef nonnull align 4 dereferenceable(16) %ref.tmp.i2493, ptr noundef nonnull align 4 dereferenceable(16) %ref.tmp4.i2494, i32 noundef 0, i32 noundef -1)
  call void @llvm.lifetime.end.p0(i64 16, ptr nonnull %ref.tmp4.i2494) #18
  call void @llvm.lifetime.end.p0(i64 16, ptr nonnull %ref.tmp.i2493) #18
  br label %if.end830

if.end830:                                        ; preds = %if.then829, %if.end826
  %and831 = and i32 %drawflags, 2048
  %cmp832.not = icmp eq i32 %and831, 0
  br i1 %cmp832.not, label %if.end834, label %if.then833

if.then833:                                       ; preds = %if.end830
  %m_cdbvt.i = getelementptr inbounds %class.btSoftBody, ptr %psb, i64 0, i32 23
  %531 = load ptr, ptr %m_cdbvt.i, align 8, !tbaa !144
  call void @llvm.lifetime.start.p0(i64 16, ptr nonnull %ref.tmp.i2501) #18
  store <4 x float> <float 0.000000e+00, float 1.000000e+00, float 1.000000e+00, float 0.000000e+00>, ptr %ref.tmp.i2501, align 16, !tbaa !5
  call void @llvm.lifetime.start.p0(i64 16, ptr nonnull %ref.tmp4.i2502) #18
  store <4 x float> <float 1.000000e+00, float 0.000000e+00, float 0.000000e+00, float 0.000000e+00>, ptr %ref.tmp4.i2502, align 16, !tbaa !5
  call fastcc void @_ZL8drawTreeP12btIDebugDrawPK10btDbvtNodeiRK9btVector3S6_ii(ptr noundef %idraw, ptr noundef %531, i32 noundef 0, ptr noundef nonnull align 4 dereferenceable(16) %ref.tmp.i2501, ptr noundef nonnull align 4 dereferenceable(16) %ref.tmp4.i2502, i32 noundef 0, i32 noundef -1)
  call void @llvm.lifetime.end.p0(i64 16, ptr nonnull %ref.tmp4.i2502) #18
  call void @llvm.lifetime.end.p0(i64 16, ptr nonnull %ref.tmp.i2501) #18
  br label %if.end834

if.end834:                                        ; preds = %if.then833, %if.end830
  %and835 = and i32 %drawflags, 4096
  %cmp836.not = icmp eq i32 %and835, 0
  br i1 %cmp836.not, label %if.end969, label %for.cond838.preheader

for.cond838.preheader:                            ; preds = %if.end834
  %m_size.i2509 = getelementptr inbounds %class.btSoftBody, ptr %psb, i64 0, i32 16, i32 2
  %532 = load i32, ptr %m_size.i2509, align 4, !tbaa !145
  %cmp8403334 = icmp sgt i32 %532, 0
  br i1 %cmp8403334, label %for.body841.lr.ph, label %if.end969

for.body841.lr.ph:                                ; preds = %for.cond838.preheader
  %m_data.i2510 = getelementptr inbounds %class.btSoftBody, ptr %psb, i64 0, i32 16, i32 5
  %arrayidx11.i2835 = getelementptr inbounds [4 x float], ptr %o0, i64 0, i64 2
  %533 = getelementptr inbounds { <2 x float>, <2 x float> }, ptr %ref.tmp914, i64 0, i32 1
  %534 = getelementptr inbounds { <2 x float>, <2 x float> }, ptr %ref.tmp927, i64 0, i32 1
  %arrayidx11.i2885 = getelementptr inbounds [4 x float], ptr %o1, i64 0, i64 2
  %535 = getelementptr inbounds { <2 x float>, <2 x float> }, ptr %ref.tmp940, i64 0, i32 1
  %536 = getelementptr inbounds { <2 x float>, <2 x float> }, ptr %ref.tmp953, i64 0, i32 1
  %537 = getelementptr inbounds { <2 x float>, <2 x float> }, ptr %a0, i64 0, i32 1
  %538 = getelementptr inbounds { <2 x float>, <2 x float> }, ptr %a1, i64 0, i32 1
  %539 = getelementptr inbounds { <2 x float>, <2 x float> }, ptr %ref.tmp.i2627, i64 0, i32 1
  %540 = getelementptr inbounds { <2 x float>, <2 x float> }, ptr %ref.tmp4.i2628, i64 0, i32 1
  %541 = getelementptr inbounds { <2 x float>, <2 x float> }, ptr %ref.tmp10.i2629, i64 0, i32 1
  %542 = getelementptr inbounds { <2 x float>, <2 x float> }, ptr %ref.tmp16.i2630, i64 0, i32 1
  %543 = getelementptr inbounds { <2 x float>, <2 x float> }, ptr %ref.tmp24.i2631, i64 0, i32 1
  %544 = getelementptr inbounds { <2 x float>, <2 x float> }, ptr %ref.tmp30.i2632, i64 0, i32 1
  %545 = getelementptr inbounds { <2 x float>, <2 x float> }, ptr %ref.tmp.i2674, i64 0, i32 1
  %546 = getelementptr inbounds { <2 x float>, <2 x float> }, ptr %ref.tmp4.i2675, i64 0, i32 1
  %547 = getelementptr inbounds { <2 x float>, <2 x float> }, ptr %ref.tmp10.i2676, i64 0, i32 1
  %548 = getelementptr inbounds { <2 x float>, <2 x float> }, ptr %ref.tmp16.i2677, i64 0, i32 1
  %549 = getelementptr inbounds { <2 x float>, <2 x float> }, ptr %ref.tmp24.i2678, i64 0, i32 1
  %550 = getelementptr inbounds { <2 x float>, <2 x float> }, ptr %ref.tmp30.i2679, i64 0, i32 1
  br label %for.body841

for.body841:                                      ; preds = %for.body841.lr.ph, %sw.epilog
  %indvars.iv3394 = phi i64 [ 0, %for.body841.lr.ph ], [ %indvars.iv.next3395, %sw.epilog ]
  %551 = load ptr, ptr %m_data.i2510, align 8, !tbaa !146
  %arrayidx.i2512 = getelementptr inbounds ptr, ptr %551, i64 %indvars.iv3394
  %552 = load ptr, ptr %arrayidx.i2512, align 8, !tbaa !27
  %vtable844 = load ptr, ptr %552, align 8, !tbaa !21
  %vfn845 = getelementptr inbounds ptr, ptr %vtable844, i64 5
  %553 = load ptr, ptr %vfn845, align 8
  %call846 = call noundef i32 %553(ptr noundef nonnull align 8 dereferenceable(181) %552)
  switch i32 %call846, label %sw.epilog [
    i32 0, label %sw.bb
    i32 1, label %sw.bb887
  ]

sw.bb:                                            ; preds = %for.body841
  call void @llvm.lifetime.start.p0(i64 16, ptr nonnull %a0) #18
  %m_bodies = getelementptr inbounds %"struct.btSoftBody::Joint", ptr %552, i64 0, i32 1
  %554 = load atomic i8, ptr @_ZGVZNK10btSoftBody4Body5xformEvE8identity acquire, align 8
  %guard.uninitialized.i = icmp eq i8 %554, 0
  br i1 %guard.uninitialized.i, label %init.check.i, label %_ZNK10btSoftBody4Body5xformEv.exit, !prof !28

init.check.i:                                     ; preds = %sw.bb
  %555 = call i32 @__cxa_guard_acquire(ptr nonnull @_ZGVZNK10btSoftBody4Body5xformEvE8identity) #18
  %tobool.not.i = icmp eq i32 %555, 0
  br i1 %tobool.not.i, label %_ZNK10btSoftBody4Body5xformEv.exit, label %init.i

init.i:                                           ; preds = %init.check.i
  %call.i = invoke noundef nonnull align 4 dereferenceable(64) ptr @_ZN11btTransform11getIdentityEv()
          to label %invoke.cont.i unwind label %lpad.i2514

invoke.cont.i:                                    ; preds = %init.i
  call void @llvm.memcpy.p0.p0.i64(ptr noundef nonnull align 4 dereferenceable(16) @_ZZNK10btSoftBody4Body5xformEvE8identity, ptr noundef nonnull align 4 dereferenceable(16) %call.i, i64 16, i1 false), !tbaa.struct !52
  %arrayidx6.i.i.i = getelementptr inbounds [3 x %class.btVector3], ptr %call.i, i64 0, i64 1
  call void @llvm.memcpy.p0.p0.i64(ptr noundef nonnull align 4 dereferenceable(16) getelementptr inbounds (%class.btTransform, ptr @_ZZNK10btSoftBody4Body5xformEvE8identity, i64 0, i32 0, i32 0, i64 1), ptr noundef nonnull align 4 dereferenceable(16) %arrayidx6.i.i.i, i64 16, i1 false), !tbaa.struct !52
  %arrayidx10.i.i.i2513 = getelementptr inbounds [3 x %class.btVector3], ptr %call.i, i64 0, i64 2
  call void @llvm.memcpy.p0.p0.i64(ptr noundef nonnull align 4 dereferenceable(16) getelementptr inbounds (%class.btTransform, ptr @_ZZNK10btSoftBody4Body5xformEvE8identity, i64 0, i32 0, i32 0, i64 2), ptr noundef nonnull align 4 dereferenceable(16) %arrayidx10.i.i.i2513, i64 16, i1 false), !tbaa.struct !52
  %m_origin3.i.i = getelementptr inbounds %class.btTransform, ptr %call.i, i64 0, i32 1
  call void @llvm.memcpy.p0.p0.i64(ptr noundef nonnull align 4 dereferenceable(16) getelementptr inbounds (%class.btTransform, ptr @_ZZNK10btSoftBody4Body5xformEvE8identity, i64 0, i32 1), ptr noundef nonnull align 4 dereferenceable(16) %m_origin3.i.i, i64 16, i1 false), !tbaa.struct !52
  %556 = call ptr @llvm.invariant.start.p0(i64 64, ptr nonnull @_ZZNK10btSoftBody4Body5xformEvE8identity)
  call void @__cxa_guard_release(ptr nonnull @_ZGVZNK10btSoftBody4Body5xformEvE8identity) #18
  br label %_ZNK10btSoftBody4Body5xformEv.exit

lpad.i2514:                                       ; preds = %init.i
  %557 = landingpad { ptr, i32 }
          cleanup
  call void @__cxa_guard_abort(ptr nonnull @_ZGVZNK10btSoftBody4Body5xformEvE8identity) #18
  br label %common.resume

_ZNK10btSoftBody4Body5xformEv.exit:               ; preds = %sw.bb, %init.check.i, %invoke.cont.i
  %m_collisionObject.i = getelementptr inbounds %"struct.btSoftBody::Joint", ptr %552, i64 0, i32 1, i64 0, i32 2
  %558 = load ptr, ptr %m_collisionObject.i, align 8, !tbaa !147
  %tobool3.not.i = icmp eq ptr %558, null
  %m_interpolationWorldTransform.i.i = getelementptr inbounds %class.btCollisionObject, ptr %558, i64 0, i32 2
  %559 = load ptr, ptr %m_bodies, align 8
  %tobool6.not.i = icmp eq ptr %559, null
  %m_framexform.i = getelementptr inbounds %"struct.btSoftBody::Cluster", ptr %559, i64 0, i32 3
  %spec.select.i = select i1 %tobool6.not.i, ptr @_ZZNK10btSoftBody4Body5xformEvE8identity, ptr %m_framexform.i
  %retval.0.i = select i1 %tobool3.not.i, ptr %spec.select.i, ptr %m_interpolationWorldTransform.i.i
  %m_refs = getelementptr inbounds %"struct.btSoftBody::Joint", ptr %552, i64 0, i32 2
  %560 = load float, ptr %m_refs, align 4, !tbaa !5
  %arrayidx5.i.i.i2515 = getelementptr inbounds [4 x float], ptr %retval.0.i, i64 0, i64 1
  %arrayidx7.i.i.i2516 = getelementptr inbounds %"struct.btSoftBody::Joint", ptr %552, i64 0, i32 2, i64 0, i32 0, i64 1
  %561 = load float, ptr %arrayidx7.i.i.i2516, align 4, !tbaa !5
  %arrayidx10.i.i.i2518 = getelementptr inbounds [4 x float], ptr %retval.0.i, i64 0, i64 2
  %arrayidx12.i.i.i2519 = getelementptr inbounds %"struct.btSoftBody::Joint", ptr %552, i64 0, i32 2, i64 0, i32 0, i64 2
  %562 = load float, ptr %arrayidx12.i.i.i2519, align 4, !tbaa !5
  %m_origin.i.i2520 = getelementptr inbounds %class.btTransform, ptr %retval.0.i, i64 0, i32 1
  %arrayidx.i.i.i2522 = getelementptr inbounds [3 x %class.btVector3], ptr %retval.0.i, i64 0, i64 1
  %arrayidx5.i20.i.i2523 = getelementptr inbounds [3 x %class.btVector3], ptr %retval.0.i, i64 0, i64 1, i32 0, i64 1
  %arrayidx10.i23.i.i2525 = getelementptr inbounds [3 x %class.btVector3], ptr %retval.0.i, i64 0, i64 1, i32 0, i64 2
  %563 = load float, ptr %retval.0.i, align 4, !tbaa !5
  %564 = load float, ptr %arrayidx5.i.i.i2515, align 4, !tbaa !5
  %565 = load float, ptr %arrayidx10.i.i.i2518, align 4, !tbaa !5
  %566 = load float, ptr %arrayidx.i.i.i2522, align 4, !tbaa !5
  %567 = load float, ptr %arrayidx5.i20.i.i2523, align 4, !tbaa !5
  %568 = insertelement <2 x float> poison, float %561, i64 0
  %569 = shufflevector <2 x float> %568, <2 x float> poison, <2 x i32> zeroinitializer
  %570 = insertelement <2 x float> poison, float %564, i64 0
  %571 = insertelement <2 x float> %570, float %567, i64 1
  %572 = fmul <2 x float> %569, %571
  %573 = insertelement <2 x float> poison, float %563, i64 0
  %574 = insertelement <2 x float> %573, float %566, i64 1
  %575 = insertelement <2 x float> poison, float %560, i64 0
  %576 = shufflevector <2 x float> %575, <2 x float> poison, <2 x i32> zeroinitializer
  %577 = call <2 x float> @llvm.fmuladd.v2f32(<2 x float> %574, <2 x float> %576, <2 x float> %572)
  %578 = load float, ptr %arrayidx10.i23.i.i2525, align 4, !tbaa !5
  %579 = insertelement <2 x float> poison, float %565, i64 0
  %580 = insertelement <2 x float> %579, float %578, i64 1
  %581 = insertelement <2 x float> poison, float %562, i64 0
  %582 = shufflevector <2 x float> %581, <2 x float> poison, <2 x i32> zeroinitializer
  %583 = call <2 x float> @llvm.fmuladd.v2f32(<2 x float> %580, <2 x float> %582, <2 x float> %577)
  %584 = load <2 x float>, ptr %m_origin.i.i2520, align 4, !tbaa !5
  %585 = fadd <2 x float> %583, %584
  %arrayidx.i26.i.i2528 = getelementptr inbounds [3 x %class.btVector3], ptr %retval.0.i, i64 0, i64 2
  %586 = load float, ptr %arrayidx.i26.i.i2528, align 4, !tbaa !5
  %arrayidx5.i27.i.i2529 = getelementptr inbounds [3 x %class.btVector3], ptr %retval.0.i, i64 0, i64 2, i32 0, i64 1
  %587 = load float, ptr %arrayidx5.i27.i.i2529, align 4, !tbaa !5
  %mul8.i29.i.i2530 = fmul float %561, %587
  %588 = call float @llvm.fmuladd.f32(float %586, float %560, float %mul8.i29.i.i2530)
  %arrayidx10.i30.i.i2531 = getelementptr inbounds [3 x %class.btVector3], ptr %retval.0.i, i64 0, i64 2, i32 0, i64 2
  %589 = load float, ptr %arrayidx10.i30.i.i2531, align 4, !tbaa !5
  %590 = call float @llvm.fmuladd.f32(float %589, float %562, float %588)
  %arrayidx.i32.i.i2532 = getelementptr inbounds %class.btTransform, ptr %retval.0.i, i64 0, i32 1, i32 0, i64 2
  %591 = load float, ptr %arrayidx.i32.i.i2532, align 4, !tbaa !5
  %add17.i.i2533 = fadd float %591, %590
  %retval.sroa.3.12.vec.insert.i.i2536 = insertelement <2 x float> <float poison, float 0.000000e+00>, float %add17.i.i2533, i64 0
  store <2 x float> %585, ptr %a0, align 8
  store <2 x float> %retval.sroa.3.12.vec.insert.i.i2536, ptr %537, align 8
  call void @llvm.lifetime.start.p0(i64 16, ptr nonnull %a1) #18
  %arrayidx853 = getelementptr inbounds %"struct.btSoftBody::Joint", ptr %552, i64 0, i32 1, i64 1
  %592 = load atomic i8, ptr @_ZGVZNK10btSoftBody4Body5xformEvE8identity acquire, align 8
  %guard.uninitialized.i2539 = icmp eq i8 %592, 0
  br i1 %guard.uninitialized.i2539, label %init.check.i2541, label %_ZNK10btSoftBody4Body5xformEv.exit2556, !prof !28

init.check.i2541:                                 ; preds = %_ZNK10btSoftBody4Body5xformEv.exit
  %593 = call i32 @__cxa_guard_acquire(ptr nonnull @_ZGVZNK10btSoftBody4Body5xformEvE8identity) #18
  %tobool.not.i2540 = icmp eq i32 %593, 0
  br i1 %tobool.not.i2540, label %_ZNK10btSoftBody4Body5xformEv.exit2556, label %init.i2543

init.i2543:                                       ; preds = %init.check.i2541
  %call.i2542 = invoke noundef nonnull align 4 dereferenceable(64) ptr @_ZN11btTransform11getIdentityEv()
          to label %invoke.cont.i2547 unwind label %lpad.i2555

invoke.cont.i2547:                                ; preds = %init.i2543
  call void @llvm.memcpy.p0.p0.i64(ptr noundef nonnull align 4 dereferenceable(16) @_ZZNK10btSoftBody4Body5xformEvE8identity, ptr noundef nonnull align 4 dereferenceable(16) %call.i2542, i64 16, i1 false), !tbaa.struct !52
  %arrayidx6.i.i.i2544 = getelementptr inbounds [3 x %class.btVector3], ptr %call.i2542, i64 0, i64 1
  call void @llvm.memcpy.p0.p0.i64(ptr noundef nonnull align 4 dereferenceable(16) getelementptr inbounds (%class.btTransform, ptr @_ZZNK10btSoftBody4Body5xformEvE8identity, i64 0, i32 0, i32 0, i64 1), ptr noundef nonnull align 4 dereferenceable(16) %arrayidx6.i.i.i2544, i64 16, i1 false), !tbaa.struct !52
  %arrayidx10.i.i.i2545 = getelementptr inbounds [3 x %class.btVector3], ptr %call.i2542, i64 0, i64 2
  call void @llvm.memcpy.p0.p0.i64(ptr noundef nonnull align 4 dereferenceable(16) getelementptr inbounds (%class.btTransform, ptr @_ZZNK10btSoftBody4Body5xformEvE8identity, i64 0, i32 0, i32 0, i64 2), ptr noundef nonnull align 4 dereferenceable(16) %arrayidx10.i.i.i2545, i64 16, i1 false), !tbaa.struct !52
  %m_origin3.i.i2546 = getelementptr inbounds %class.btTransform, ptr %call.i2542, i64 0, i32 1
  call void @llvm.memcpy.p0.p0.i64(ptr noundef nonnull align 4 dereferenceable(16) getelementptr inbounds (%class.btTransform, ptr @_ZZNK10btSoftBody4Body5xformEvE8identity, i64 0, i32 1), ptr noundef nonnull align 4 dereferenceable(16) %m_origin3.i.i2546, i64 16, i1 false), !tbaa.struct !52
  %594 = call ptr @llvm.invariant.start.p0(i64 64, ptr nonnull @_ZZNK10btSoftBody4Body5xformEvE8identity)
  call void @__cxa_guard_release(ptr nonnull @_ZGVZNK10btSoftBody4Body5xformEvE8identity) #18
  br label %_ZNK10btSoftBody4Body5xformEv.exit2556

lpad.i2555:                                       ; preds = %init.i2543
  %595 = landingpad { ptr, i32 }
          cleanup
  call void @__cxa_guard_abort(ptr nonnull @_ZGVZNK10btSoftBody4Body5xformEvE8identity) #18
  br label %common.resume

_ZNK10btSoftBody4Body5xformEv.exit2556:           ; preds = %_ZNK10btSoftBody4Body5xformEv.exit, %init.check.i2541, %invoke.cont.i2547
  %m_collisionObject.i2548 = getelementptr inbounds %"struct.btSoftBody::Joint", ptr %552, i64 0, i32 1, i64 1, i32 2
  %596 = load ptr, ptr %m_collisionObject.i2548, align 8, !tbaa !147
  %tobool3.not.i2549 = icmp eq ptr %596, null
  %m_interpolationWorldTransform.i.i2550 = getelementptr inbounds %class.btCollisionObject, ptr %596, i64 0, i32 2
  %597 = load ptr, ptr %arrayidx853, align 8
  %tobool6.not.i2551 = icmp eq ptr %597, null
  %m_framexform.i2552 = getelementptr inbounds %"struct.btSoftBody::Cluster", ptr %597, i64 0, i32 3
  %spec.select.i2553 = select i1 %tobool6.not.i2551, ptr @_ZZNK10btSoftBody4Body5xformEvE8identity, ptr %m_framexform.i2552
  %retval.0.i2554 = select i1 %tobool3.not.i2549, ptr %spec.select.i2553, ptr %m_interpolationWorldTransform.i.i2550
  %arrayidx856 = getelementptr inbounds %"struct.btSoftBody::Joint", ptr %552, i64 0, i32 2, i64 1
  %598 = load float, ptr %arrayidx856, align 4, !tbaa !5
  %arrayidx5.i.i.i2557 = getelementptr inbounds [4 x float], ptr %retval.0.i2554, i64 0, i64 1
  %arrayidx7.i.i.i2558 = getelementptr inbounds %"struct.btSoftBody::Joint", ptr %552, i64 0, i32 2, i64 1, i32 0, i64 1
  %599 = load float, ptr %arrayidx7.i.i.i2558, align 4, !tbaa !5
  %arrayidx10.i.i.i2560 = getelementptr inbounds [4 x float], ptr %retval.0.i2554, i64 0, i64 2
  %arrayidx12.i.i.i2561 = getelementptr inbounds %"struct.btSoftBody::Joint", ptr %552, i64 0, i32 2, i64 1, i32 0, i64 2
  %600 = load float, ptr %arrayidx12.i.i.i2561, align 4, !tbaa !5
  %m_origin.i.i2562 = getelementptr inbounds %class.btTransform, ptr %retval.0.i2554, i64 0, i32 1
  %arrayidx.i.i.i2564 = getelementptr inbounds [3 x %class.btVector3], ptr %retval.0.i2554, i64 0, i64 1
  %arrayidx5.i20.i.i2565 = getelementptr inbounds [3 x %class.btVector3], ptr %retval.0.i2554, i64 0, i64 1, i32 0, i64 1
  %arrayidx10.i23.i.i2567 = getelementptr inbounds [3 x %class.btVector3], ptr %retval.0.i2554, i64 0, i64 1, i32 0, i64 2
  %601 = load float, ptr %retval.0.i2554, align 4, !tbaa !5
  %602 = load float, ptr %arrayidx5.i.i.i2557, align 4, !tbaa !5
  %603 = load float, ptr %arrayidx10.i.i.i2560, align 4, !tbaa !5
  %604 = load float, ptr %arrayidx.i.i.i2564, align 4, !tbaa !5
  %605 = load float, ptr %arrayidx5.i20.i.i2565, align 4, !tbaa !5
  %606 = insertelement <2 x float> poison, float %599, i64 0
  %607 = shufflevector <2 x float> %606, <2 x float> poison, <2 x i32> zeroinitializer
  %608 = insertelement <2 x float> poison, float %602, i64 0
  %609 = insertelement <2 x float> %608, float %605, i64 1
  %610 = fmul <2 x float> %607, %609
  %611 = insertelement <2 x float> poison, float %601, i64 0
  %612 = insertelement <2 x float> %611, float %604, i64 1
  %613 = insertelement <2 x float> poison, float %598, i64 0
  %614 = shufflevector <2 x float> %613, <2 x float> poison, <2 x i32> zeroinitializer
  %615 = call <2 x float> @llvm.fmuladd.v2f32(<2 x float> %612, <2 x float> %614, <2 x float> %610)
  %616 = load float, ptr %arrayidx10.i23.i.i2567, align 4, !tbaa !5
  %617 = insertelement <2 x float> poison, float %603, i64 0
  %618 = insertelement <2 x float> %617, float %616, i64 1
  %619 = insertelement <2 x float> poison, float %600, i64 0
  %620 = shufflevector <2 x float> %619, <2 x float> poison, <2 x i32> zeroinitializer
  %621 = call <2 x float> @llvm.fmuladd.v2f32(<2 x float> %618, <2 x float> %620, <2 x float> %615)
  %622 = load <2 x float>, ptr %m_origin.i.i2562, align 4, !tbaa !5
  %623 = fadd <2 x float> %621, %622
  %arrayidx.i26.i.i2570 = getelementptr inbounds [3 x %class.btVector3], ptr %retval.0.i2554, i64 0, i64 2
  %624 = load float, ptr %arrayidx.i26.i.i2570, align 4, !tbaa !5
  %arrayidx5.i27.i.i2571 = getelementptr inbounds [3 x %class.btVector3], ptr %retval.0.i2554, i64 0, i64 2, i32 0, i64 1
  %625 = load float, ptr %arrayidx5.i27.i.i2571, align 4, !tbaa !5
  %mul8.i29.i.i2572 = fmul float %599, %625
  %626 = call float @llvm.fmuladd.f32(float %624, float %598, float %mul8.i29.i.i2572)
  %arrayidx10.i30.i.i2573 = getelementptr inbounds [3 x %class.btVector3], ptr %retval.0.i2554, i64 0, i64 2, i32 0, i64 2
  %627 = load float, ptr %arrayidx10.i30.i.i2573, align 4, !tbaa !5
  %628 = call float @llvm.fmuladd.f32(float %627, float %600, float %626)
  %arrayidx.i32.i.i2574 = getelementptr inbounds %class.btTransform, ptr %retval.0.i2554, i64 0, i32 1, i32 0, i64 2
  %629 = load float, ptr %arrayidx.i32.i.i2574, align 4, !tbaa !5
  %add17.i.i2575 = fadd float %629, %628
  %retval.sroa.3.12.vec.insert.i.i2578 = insertelement <2 x float> <float poison, float 0.000000e+00>, float %add17.i.i2575, i64 0
  store <2 x float> %623, ptr %a1, align 8
  store <2 x float> %retval.sroa.3.12.vec.insert.i.i2578, ptr %538, align 8
  %630 = load atomic i8, ptr @_ZGVZNK10btSoftBody4Body5xformEvE8identity acquire, align 8
  %guard.uninitialized.i2581 = icmp eq i8 %630, 0
  br i1 %guard.uninitialized.i2581, label %init.check.i2583, label %_ZNK10btSoftBody4Body5xformEv.exit2598, !prof !28

init.check.i2583:                                 ; preds = %_ZNK10btSoftBody4Body5xformEv.exit2556
  %631 = call i32 @__cxa_guard_acquire(ptr nonnull @_ZGVZNK10btSoftBody4Body5xformEvE8identity) #18
  %tobool.not.i2582 = icmp eq i32 %631, 0
  br i1 %tobool.not.i2582, label %_ZNK10btSoftBody4Body5xformEv.exit2598, label %init.i2585

init.i2585:                                       ; preds = %init.check.i2583
  %call.i2584 = invoke noundef nonnull align 4 dereferenceable(64) ptr @_ZN11btTransform11getIdentityEv()
          to label %invoke.cont.i2589 unwind label %lpad.i2597

invoke.cont.i2589:                                ; preds = %init.i2585
  call void @llvm.memcpy.p0.p0.i64(ptr noundef nonnull align 4 dereferenceable(16) @_ZZNK10btSoftBody4Body5xformEvE8identity, ptr noundef nonnull align 4 dereferenceable(16) %call.i2584, i64 16, i1 false), !tbaa.struct !52
  %arrayidx6.i.i.i2586 = getelementptr inbounds [3 x %class.btVector3], ptr %call.i2584, i64 0, i64 1
  call void @llvm.memcpy.p0.p0.i64(ptr noundef nonnull align 4 dereferenceable(16) getelementptr inbounds (%class.btTransform, ptr @_ZZNK10btSoftBody4Body5xformEvE8identity, i64 0, i32 0, i32 0, i64 1), ptr noundef nonnull align 4 dereferenceable(16) %arrayidx6.i.i.i2586, i64 16, i1 false), !tbaa.struct !52
  %arrayidx10.i.i.i2587 = getelementptr inbounds [3 x %class.btVector3], ptr %call.i2584, i64 0, i64 2
  call void @llvm.memcpy.p0.p0.i64(ptr noundef nonnull align 4 dereferenceable(16) getelementptr inbounds (%class.btTransform, ptr @_ZZNK10btSoftBody4Body5xformEvE8identity, i64 0, i32 0, i32 0, i64 2), ptr noundef nonnull align 4 dereferenceable(16) %arrayidx10.i.i.i2587, i64 16, i1 false), !tbaa.struct !52
  %m_origin3.i.i2588 = getelementptr inbounds %class.btTransform, ptr %call.i2584, i64 0, i32 1
  call void @llvm.memcpy.p0.p0.i64(ptr noundef nonnull align 4 dereferenceable(16) getelementptr inbounds (%class.btTransform, ptr @_ZZNK10btSoftBody4Body5xformEvE8identity, i64 0, i32 1), ptr noundef nonnull align 4 dereferenceable(16) %m_origin3.i.i2588, i64 16, i1 false), !tbaa.struct !52
  %632 = call ptr @llvm.invariant.start.p0(i64 64, ptr nonnull @_ZZNK10btSoftBody4Body5xformEvE8identity)
  call void @__cxa_guard_release(ptr nonnull @_ZGVZNK10btSoftBody4Body5xformEvE8identity) #18
  br label %_ZNK10btSoftBody4Body5xformEv.exit2598

lpad.i2597:                                       ; preds = %init.i2585
  %633 = landingpad { ptr, i32 }
          cleanup
  call void @__cxa_guard_abort(ptr nonnull @_ZGVZNK10btSoftBody4Body5xformEvE8identity) #18
  br label %common.resume

_ZNK10btSoftBody4Body5xformEv.exit2598:           ; preds = %_ZNK10btSoftBody4Body5xformEv.exit2556, %init.check.i2583, %invoke.cont.i2589
  %634 = load ptr, ptr %m_collisionObject.i, align 8, !tbaa !147
  %tobool3.not.i2591 = icmp eq ptr %634, null
  %m_interpolationWorldTransform.i.i2592 = getelementptr inbounds %class.btCollisionObject, ptr %634, i64 0, i32 2
  %635 = load ptr, ptr %m_bodies, align 8
  %tobool6.not.i2593 = icmp eq ptr %635, null
  %m_framexform.i2594 = getelementptr inbounds %"struct.btSoftBody::Cluster", ptr %635, i64 0, i32 3
  %spec.select.i2595 = select i1 %tobool6.not.i2593, ptr @_ZZNK10btSoftBody4Body5xformEvE8identity, ptr %m_framexform.i2594
  %retval.0.i2596 = select i1 %tobool3.not.i2591, ptr %spec.select.i2595, ptr %m_interpolationWorldTransform.i.i2592
  %m_origin.i = getelementptr inbounds %class.btTransform, ptr %retval.0.i2596, i64 0, i32 1
  call void @llvm.lifetime.start.p0(i64 16, ptr nonnull %ref.tmp863) #18
  store <4 x float> <float 1.000000e+00, float 1.000000e+00, float 0.000000e+00, float 0.000000e+00>, ptr %ref.tmp863, align 16, !tbaa !5
  %vtable867 = load ptr, ptr %idraw, align 8, !tbaa !21
  %vfn868 = getelementptr inbounds ptr, ptr %vtable867, i64 5
  %636 = load ptr, ptr %vfn868, align 8
  call void %636(ptr noundef nonnull align 8 dereferenceable(8) %idraw, ptr noundef nonnull align 4 dereferenceable(16) %m_origin.i, ptr noundef nonnull align 4 dereferenceable(16) %a0, ptr noundef nonnull align 4 dereferenceable(16) %ref.tmp863)
  call void @llvm.lifetime.end.p0(i64 16, ptr nonnull %ref.tmp863) #18
  %637 = load atomic i8, ptr @_ZGVZNK10btSoftBody4Body5xformEvE8identity acquire, align 8
  %guard.uninitialized.i2602 = icmp eq i8 %637, 0
  br i1 %guard.uninitialized.i2602, label %init.check.i2604, label %_ZNK10btSoftBody4Body5xformEv.exit2619, !prof !28

init.check.i2604:                                 ; preds = %_ZNK10btSoftBody4Body5xformEv.exit2598
  %638 = call i32 @__cxa_guard_acquire(ptr nonnull @_ZGVZNK10btSoftBody4Body5xformEvE8identity) #18
  %tobool.not.i2603 = icmp eq i32 %638, 0
  br i1 %tobool.not.i2603, label %_ZNK10btSoftBody4Body5xformEv.exit2619, label %init.i2606

init.i2606:                                       ; preds = %init.check.i2604
  %call.i2605 = invoke noundef nonnull align 4 dereferenceable(64) ptr @_ZN11btTransform11getIdentityEv()
          to label %invoke.cont.i2610 unwind label %lpad.i2618

invoke.cont.i2610:                                ; preds = %init.i2606
  call void @llvm.memcpy.p0.p0.i64(ptr noundef nonnull align 4 dereferenceable(16) @_ZZNK10btSoftBody4Body5xformEvE8identity, ptr noundef nonnull align 4 dereferenceable(16) %call.i2605, i64 16, i1 false), !tbaa.struct !52
  %arrayidx6.i.i.i2607 = getelementptr inbounds [3 x %class.btVector3], ptr %call.i2605, i64 0, i64 1
  call void @llvm.memcpy.p0.p0.i64(ptr noundef nonnull align 4 dereferenceable(16) getelementptr inbounds (%class.btTransform, ptr @_ZZNK10btSoftBody4Body5xformEvE8identity, i64 0, i32 0, i32 0, i64 1), ptr noundef nonnull align 4 dereferenceable(16) %arrayidx6.i.i.i2607, i64 16, i1 false), !tbaa.struct !52
  %arrayidx10.i.i.i2608 = getelementptr inbounds [3 x %class.btVector3], ptr %call.i2605, i64 0, i64 2
  call void @llvm.memcpy.p0.p0.i64(ptr noundef nonnull align 4 dereferenceable(16) getelementptr inbounds (%class.btTransform, ptr @_ZZNK10btSoftBody4Body5xformEvE8identity, i64 0, i32 0, i32 0, i64 2), ptr noundef nonnull align 4 dereferenceable(16) %arrayidx10.i.i.i2608, i64 16, i1 false), !tbaa.struct !52
  %m_origin3.i.i2609 = getelementptr inbounds %class.btTransform, ptr %call.i2605, i64 0, i32 1
  call void @llvm.memcpy.p0.p0.i64(ptr noundef nonnull align 4 dereferenceable(16) getelementptr inbounds (%class.btTransform, ptr @_ZZNK10btSoftBody4Body5xformEvE8identity, i64 0, i32 1), ptr noundef nonnull align 4 dereferenceable(16) %m_origin3.i.i2609, i64 16, i1 false), !tbaa.struct !52
  %639 = call ptr @llvm.invariant.start.p0(i64 64, ptr nonnull @_ZZNK10btSoftBody4Body5xformEvE8identity)
  call void @__cxa_guard_release(ptr nonnull @_ZGVZNK10btSoftBody4Body5xformEvE8identity) #18
  br label %_ZNK10btSoftBody4Body5xformEv.exit2619

lpad.i2618:                                       ; preds = %init.i2606
  %640 = landingpad { ptr, i32 }
          cleanup
  call void @__cxa_guard_abort(ptr nonnull @_ZGVZNK10btSoftBody4Body5xformEvE8identity) #18
  br label %common.resume

_ZNK10btSoftBody4Body5xformEv.exit2619:           ; preds = %_ZNK10btSoftBody4Body5xformEv.exit2598, %init.check.i2604, %invoke.cont.i2610
  %641 = load ptr, ptr %m_collisionObject.i2548, align 8, !tbaa !147
  %tobool3.not.i2612 = icmp eq ptr %641, null
  %m_interpolationWorldTransform.i.i2613 = getelementptr inbounds %class.btCollisionObject, ptr %641, i64 0, i32 2
  %642 = load ptr, ptr %arrayidx853, align 8
  %tobool6.not.i2614 = icmp eq ptr %642, null
  %m_framexform.i2615 = getelementptr inbounds %"struct.btSoftBody::Cluster", ptr %642, i64 0, i32 3
  %spec.select.i2616 = select i1 %tobool6.not.i2614, ptr @_ZZNK10btSoftBody4Body5xformEvE8identity, ptr %m_framexform.i2615
  %retval.0.i2617 = select i1 %tobool3.not.i2612, ptr %spec.select.i2616, ptr %m_interpolationWorldTransform.i.i2613
  %m_origin.i2620 = getelementptr inbounds %class.btTransform, ptr %retval.0.i2617, i64 0, i32 1
  call void @llvm.lifetime.start.p0(i64 16, ptr nonnull %ref.tmp873) #18
  store <4 x float> <float 0.000000e+00, float 1.000000e+00, float 1.000000e+00, float 0.000000e+00>, ptr %ref.tmp873, align 16, !tbaa !5
  %vtable877 = load ptr, ptr %idraw, align 8, !tbaa !21
  %vfn878 = getelementptr inbounds ptr, ptr %vtable877, i64 5
  %643 = load ptr, ptr %vfn878, align 8
  call void %643(ptr noundef nonnull align 8 dereferenceable(8) %idraw, ptr noundef nonnull align 4 dereferenceable(16) %m_origin.i2620, ptr noundef nonnull align 4 dereferenceable(16) %a1, ptr noundef nonnull align 4 dereferenceable(16) %ref.tmp873)
  call void @llvm.lifetime.end.p0(i64 16, ptr nonnull %ref.tmp873) #18
  call void @llvm.lifetime.start.p0(i64 16, ptr nonnull %ref.tmp879) #18
  store <4 x float> <float 1.000000e+00, float 1.000000e+00, float 0.000000e+00, float 0.000000e+00>, ptr %ref.tmp879, align 16, !tbaa !5
  call void @llvm.lifetime.start.p0(i64 16, ptr nonnull %ref.tmp.i2627) #18
  %644 = load float, ptr %537, align 8, !tbaa !5
  %retval.sroa.3.12.vec.insert.i.i2638 = insertelement <2 x float> <float poison, float 0.000000e+00>, float %644, i64 0
  store <2 x float> %retval.sroa.3.12.vec.insert.i.i2638, ptr %539, align 8
  call void @llvm.lifetime.start.p0(i64 16, ptr nonnull %ref.tmp4.i2628) #18
  %645 = load <2 x float>, ptr %a0, align 8, !tbaa !5
  %646 = extractelement <2 x float> %645, i64 0
  %sub.i.i2633 = fadd float %646, -2.500000e-01
  %647 = insertelement <2 x float> %645, float %sub.i.i2633, i64 0
  store <2 x float> %647, ptr %ref.tmp.i2627, align 8
  %648 = fadd <2 x float> %645, <float 2.500000e-01, float 0.000000e+00>
  %add14.i.i2641 = fadd float %644, 0.000000e+00
  %retval.sroa.3.12.vec.insert.i58.i2644 = insertelement <2 x float> <float poison, float 0.000000e+00>, float %add14.i.i2641, i64 0
  store <2 x float> %648, ptr %ref.tmp4.i2628, align 8
  store <2 x float> %retval.sroa.3.12.vec.insert.i58.i2644, ptr %540, align 8
  %vtable.i2645 = load ptr, ptr %idraw, align 8, !tbaa !21
  %vfn.i2646 = getelementptr inbounds ptr, ptr %vtable.i2645, i64 5
  %649 = load ptr, ptr %vfn.i2646, align 8
  call void %649(ptr noundef nonnull align 8 dereferenceable(8) %idraw, ptr noundef nonnull align 4 dereferenceable(16) %ref.tmp.i2627, ptr noundef nonnull align 4 dereferenceable(16) %ref.tmp4.i2628, ptr noundef nonnull align 4 dereferenceable(16) %ref.tmp879)
  call void @llvm.lifetime.end.p0(i64 16, ptr nonnull %ref.tmp4.i2628) #18
  call void @llvm.lifetime.end.p0(i64 16, ptr nonnull %ref.tmp.i2627) #18
  call void @llvm.lifetime.start.p0(i64 16, ptr nonnull %ref.tmp10.i2629) #18
  %650 = load float, ptr %537, align 8, !tbaa !5
  %retval.sroa.3.12.vec.insert.i73.i2650 = insertelement <2 x float> <float poison, float 0.000000e+00>, float %650, i64 0
  store <2 x float> %retval.sroa.3.12.vec.insert.i73.i2650, ptr %541, align 8
  call void @llvm.lifetime.start.p0(i64 16, ptr nonnull %ref.tmp16.i2630) #18
  %651 = load <2 x float>, ptr %a0, align 8, !tbaa !5
  %652 = extractelement <2 x float> %651, i64 1
  %sub8.i67.i2647 = fadd float %652, -2.500000e-01
  %retval.sroa.0.4.vec.insert.i72.i2649 = insertelement <2 x float> %651, float %sub8.i67.i2647, i64 1
  store <2 x float> %retval.sroa.0.4.vec.insert.i72.i2649, ptr %ref.tmp10.i2629, align 8
  %653 = fadd <2 x float> %651, <float 0.000000e+00, float 2.500000e-01>
  %add14.i85.i2653 = fadd float %650, 0.000000e+00
  %retval.sroa.3.12.vec.insert.i88.i2656 = insertelement <2 x float> <float poison, float 0.000000e+00>, float %add14.i85.i2653, i64 0
  store <2 x float> %653, ptr %ref.tmp16.i2630, align 8
  store <2 x float> %retval.sroa.3.12.vec.insert.i88.i2656, ptr %542, align 8
  %vtable22.i2657 = load ptr, ptr %idraw, align 8, !tbaa !21
  %vfn23.i2658 = getelementptr inbounds ptr, ptr %vtable22.i2657, i64 5
  %654 = load ptr, ptr %vfn23.i2658, align 8
  call void %654(ptr noundef nonnull align 8 dereferenceable(8) %idraw, ptr noundef nonnull align 4 dereferenceable(16) %ref.tmp10.i2629, ptr noundef nonnull align 4 dereferenceable(16) %ref.tmp16.i2630, ptr noundef nonnull align 4 dereferenceable(16) %ref.tmp879)
  call void @llvm.lifetime.end.p0(i64 16, ptr nonnull %ref.tmp16.i2630) #18
  call void @llvm.lifetime.end.p0(i64 16, ptr nonnull %ref.tmp10.i2629) #18
  call void @llvm.lifetime.start.p0(i64 16, ptr nonnull %ref.tmp24.i2631) #18
  %655 = load <2 x float>, ptr %a0, align 8, !tbaa !5
  %656 = load float, ptr %537, align 8, !tbaa !5
  %sub14.i100.i2659 = fadd float %656, -2.500000e-01
  %retval.sroa.3.12.vec.insert.i103.i2662 = insertelement <2 x float> <float poison, float 0.000000e+00>, float %sub14.i100.i2659, i64 0
  store <2 x float> %655, ptr %ref.tmp24.i2631, align 8
  store <2 x float> %retval.sroa.3.12.vec.insert.i103.i2662, ptr %543, align 8
  call void @llvm.lifetime.start.p0(i64 16, ptr nonnull %ref.tmp30.i2632) #18
  %657 = fadd <2 x float> %655, zeroinitializer
  %add14.i115.i2665 = fadd float %656, 2.500000e-01
  %retval.sroa.3.12.vec.insert.i118.i2668 = insertelement <2 x float> <float poison, float 0.000000e+00>, float %add14.i115.i2665, i64 0
  store <2 x float> %657, ptr %ref.tmp30.i2632, align 8
  store <2 x float> %retval.sroa.3.12.vec.insert.i118.i2668, ptr %544, align 8
  %vtable36.i2669 = load ptr, ptr %idraw, align 8, !tbaa !21
  %vfn37.i2670 = getelementptr inbounds ptr, ptr %vtable36.i2669, i64 5
  %658 = load ptr, ptr %vfn37.i2670, align 8
  call void %658(ptr noundef nonnull align 8 dereferenceable(8) %idraw, ptr noundef nonnull align 4 dereferenceable(16) %ref.tmp24.i2631, ptr noundef nonnull align 4 dereferenceable(16) %ref.tmp30.i2632, ptr noundef nonnull align 4 dereferenceable(16) %ref.tmp879)
  call void @llvm.lifetime.end.p0(i64 16, ptr nonnull %ref.tmp30.i2632) #18
  call void @llvm.lifetime.end.p0(i64 16, ptr nonnull %ref.tmp24.i2631) #18
  call void @llvm.lifetime.end.p0(i64 16, ptr nonnull %ref.tmp879) #18
  call void @llvm.lifetime.start.p0(i64 16, ptr nonnull %ref.tmp883) #18
  store <4 x float> <float 0.000000e+00, float 1.000000e+00, float 1.000000e+00, float 0.000000e+00>, ptr %ref.tmp883, align 16, !tbaa !5
  call void @llvm.lifetime.start.p0(i64 16, ptr nonnull %ref.tmp.i2674) #18
  %659 = load float, ptr %538, align 8, !tbaa !5
  %retval.sroa.3.12.vec.insert.i.i2685 = insertelement <2 x float> <float poison, float 0.000000e+00>, float %659, i64 0
  store <2 x float> %retval.sroa.3.12.vec.insert.i.i2685, ptr %545, align 8
  call void @llvm.lifetime.start.p0(i64 16, ptr nonnull %ref.tmp4.i2675) #18
  %660 = load <2 x float>, ptr %a1, align 8, !tbaa !5
  %661 = extractelement <2 x float> %660, i64 0
  %sub.i.i2680 = fadd float %661, -2.500000e-01
  %662 = insertelement <2 x float> %660, float %sub.i.i2680, i64 0
  store <2 x float> %662, ptr %ref.tmp.i2674, align 8
  %663 = fadd <2 x float> %660, <float 2.500000e-01, float 0.000000e+00>
  %add14.i.i2688 = fadd float %659, 0.000000e+00
  %retval.sroa.3.12.vec.insert.i58.i2691 = insertelement <2 x float> <float poison, float 0.000000e+00>, float %add14.i.i2688, i64 0
  store <2 x float> %663, ptr %ref.tmp4.i2675, align 8
  store <2 x float> %retval.sroa.3.12.vec.insert.i58.i2691, ptr %546, align 8
  %vtable.i2692 = load ptr, ptr %idraw, align 8, !tbaa !21
  %vfn.i2693 = getelementptr inbounds ptr, ptr %vtable.i2692, i64 5
  %664 = load ptr, ptr %vfn.i2693, align 8
  call void %664(ptr noundef nonnull align 8 dereferenceable(8) %idraw, ptr noundef nonnull align 4 dereferenceable(16) %ref.tmp.i2674, ptr noundef nonnull align 4 dereferenceable(16) %ref.tmp4.i2675, ptr noundef nonnull align 4 dereferenceable(16) %ref.tmp883)
  call void @llvm.lifetime.end.p0(i64 16, ptr nonnull %ref.tmp4.i2675) #18
  call void @llvm.lifetime.end.p0(i64 16, ptr nonnull %ref.tmp.i2674) #18
  call void @llvm.lifetime.start.p0(i64 16, ptr nonnull %ref.tmp10.i2676) #18
  %665 = load float, ptr %538, align 8, !tbaa !5
  %retval.sroa.3.12.vec.insert.i73.i2697 = insertelement <2 x float> <float poison, float 0.000000e+00>, float %665, i64 0
  store <2 x float> %retval.sroa.3.12.vec.insert.i73.i2697, ptr %547, align 8
  call void @llvm.lifetime.start.p0(i64 16, ptr nonnull %ref.tmp16.i2677) #18
  %666 = load <2 x float>, ptr %a1, align 8, !tbaa !5
  %667 = extractelement <2 x float> %666, i64 1
  %sub8.i67.i2694 = fadd float %667, -2.500000e-01
  %retval.sroa.0.4.vec.insert.i72.i2696 = insertelement <2 x float> %666, float %sub8.i67.i2694, i64 1
  store <2 x float> %retval.sroa.0.4.vec.insert.i72.i2696, ptr %ref.tmp10.i2676, align 8
  %668 = fadd <2 x float> %666, <float 0.000000e+00, float 2.500000e-01>
  %add14.i85.i2700 = fadd float %665, 0.000000e+00
  %retval.sroa.3.12.vec.insert.i88.i2703 = insertelement <2 x float> <float poison, float 0.000000e+00>, float %add14.i85.i2700, i64 0
  store <2 x float> %668, ptr %ref.tmp16.i2677, align 8
  store <2 x float> %retval.sroa.3.12.vec.insert.i88.i2703, ptr %548, align 8
  %vtable22.i2704 = load ptr, ptr %idraw, align 8, !tbaa !21
  %vfn23.i2705 = getelementptr inbounds ptr, ptr %vtable22.i2704, i64 5
  %669 = load ptr, ptr %vfn23.i2705, align 8
  call void %669(ptr noundef nonnull align 8 dereferenceable(8) %idraw, ptr noundef nonnull align 4 dereferenceable(16) %ref.tmp10.i2676, ptr noundef nonnull align 4 dereferenceable(16) %ref.tmp16.i2677, ptr noundef nonnull align 4 dereferenceable(16) %ref.tmp883)
  call void @llvm.lifetime.end.p0(i64 16, ptr nonnull %ref.tmp16.i2677) #18
  call void @llvm.lifetime.end.p0(i64 16, ptr nonnull %ref.tmp10.i2676) #18
  call void @llvm.lifetime.start.p0(i64 16, ptr nonnull %ref.tmp24.i2678) #18
  %670 = load <2 x float>, ptr %a1, align 8, !tbaa !5
  %671 = load float, ptr %538, align 8, !tbaa !5
  %sub14.i100.i2706 = fadd float %671, -2.500000e-01
  %retval.sroa.3.12.vec.insert.i103.i2709 = insertelement <2 x float> <float poison, float 0.000000e+00>, float %sub14.i100.i2706, i64 0
  store <2 x float> %670, ptr %ref.tmp24.i2678, align 8
  store <2 x float> %retval.sroa.3.12.vec.insert.i103.i2709, ptr %549, align 8
  call void @llvm.lifetime.start.p0(i64 16, ptr nonnull %ref.tmp30.i2679) #18
  %672 = fadd <2 x float> %670, zeroinitializer
  %add14.i115.i2712 = fadd float %671, 2.500000e-01
  %retval.sroa.3.12.vec.insert.i118.i2715 = insertelement <2 x float> <float poison, float 0.000000e+00>, float %add14.i115.i2712, i64 0
  store <2 x float> %672, ptr %ref.tmp30.i2679, align 8
  store <2 x float> %retval.sroa.3.12.vec.insert.i118.i2715, ptr %550, align 8
  %vtable36.i2716 = load ptr, ptr %idraw, align 8, !tbaa !21
  %vfn37.i2717 = getelementptr inbounds ptr, ptr %vtable36.i2716, i64 5
  %673 = load ptr, ptr %vfn37.i2717, align 8
  call void %673(ptr noundef nonnull align 8 dereferenceable(8) %idraw, ptr noundef nonnull align 4 dereferenceable(16) %ref.tmp24.i2678, ptr noundef nonnull align 4 dereferenceable(16) %ref.tmp30.i2679, ptr noundef nonnull align 4 dereferenceable(16) %ref.tmp883)
  call void @llvm.lifetime.end.p0(i64 16, ptr nonnull %ref.tmp30.i2679) #18
  call void @llvm.lifetime.end.p0(i64 16, ptr nonnull %ref.tmp24.i2678) #18
  call void @llvm.lifetime.end.p0(i64 16, ptr nonnull %ref.tmp883) #18
  call void @llvm.lifetime.end.p0(i64 16, ptr nonnull %a1) #18
  call void @llvm.lifetime.end.p0(i64 16, ptr nonnull %a0) #18
  br label %sw.epilog

sw.bb887:                                         ; preds = %for.body841
  call void @llvm.lifetime.start.p0(i64 16, ptr nonnull %o0) #18
  %m_bodies888 = getelementptr inbounds %"struct.btSoftBody::Joint", ptr %552, i64 0, i32 1
  %674 = load atomic i8, ptr @_ZGVZNK10btSoftBody4Body5xformEvE8identity acquire, align 8
  %guard.uninitialized.i2718 = icmp eq i8 %674, 0
  br i1 %guard.uninitialized.i2718, label %init.check.i2720, label %_ZNK10btSoftBody4Body5xformEv.exit2735, !prof !28

init.check.i2720:                                 ; preds = %sw.bb887
  %675 = call i32 @__cxa_guard_acquire(ptr nonnull @_ZGVZNK10btSoftBody4Body5xformEvE8identity) #18
  %tobool.not.i2719 = icmp eq i32 %675, 0
  br i1 %tobool.not.i2719, label %_ZNK10btSoftBody4Body5xformEv.exit2735, label %init.i2722

init.i2722:                                       ; preds = %init.check.i2720
  %call.i2721 = invoke noundef nonnull align 4 dereferenceable(64) ptr @_ZN11btTransform11getIdentityEv()
          to label %invoke.cont.i2726 unwind label %lpad.i2734

invoke.cont.i2726:                                ; preds = %init.i2722
  call void @llvm.memcpy.p0.p0.i64(ptr noundef nonnull align 4 dereferenceable(16) @_ZZNK10btSoftBody4Body5xformEvE8identity, ptr noundef nonnull align 4 dereferenceable(16) %call.i2721, i64 16, i1 false), !tbaa.struct !52
  %arrayidx6.i.i.i2723 = getelementptr inbounds [3 x %class.btVector3], ptr %call.i2721, i64 0, i64 1
  call void @llvm.memcpy.p0.p0.i64(ptr noundef nonnull align 4 dereferenceable(16) getelementptr inbounds (%class.btTransform, ptr @_ZZNK10btSoftBody4Body5xformEvE8identity, i64 0, i32 0, i32 0, i64 1), ptr noundef nonnull align 4 dereferenceable(16) %arrayidx6.i.i.i2723, i64 16, i1 false), !tbaa.struct !52
  %arrayidx10.i.i.i2724 = getelementptr inbounds [3 x %class.btVector3], ptr %call.i2721, i64 0, i64 2
  call void @llvm.memcpy.p0.p0.i64(ptr noundef nonnull align 4 dereferenceable(16) getelementptr inbounds (%class.btTransform, ptr @_ZZNK10btSoftBody4Body5xformEvE8identity, i64 0, i32 0, i32 0, i64 2), ptr noundef nonnull align 4 dereferenceable(16) %arrayidx10.i.i.i2724, i64 16, i1 false), !tbaa.struct !52
  %m_origin3.i.i2725 = getelementptr inbounds %class.btTransform, ptr %call.i2721, i64 0, i32 1
  call void @llvm.memcpy.p0.p0.i64(ptr noundef nonnull align 4 dereferenceable(16) getelementptr inbounds (%class.btTransform, ptr @_ZZNK10btSoftBody4Body5xformEvE8identity, i64 0, i32 1), ptr noundef nonnull align 4 dereferenceable(16) %m_origin3.i.i2725, i64 16, i1 false), !tbaa.struct !52
  %676 = call ptr @llvm.invariant.start.p0(i64 64, ptr nonnull @_ZZNK10btSoftBody4Body5xformEvE8identity)
  call void @__cxa_guard_release(ptr nonnull @_ZGVZNK10btSoftBody4Body5xformEvE8identity) #18
  br label %_ZNK10btSoftBody4Body5xformEv.exit2735

lpad.i2734:                                       ; preds = %init.i2722
  %677 = landingpad { ptr, i32 }
          cleanup
  call void @__cxa_guard_abort(ptr nonnull @_ZGVZNK10btSoftBody4Body5xformEvE8identity) #18
  br label %common.resume

_ZNK10btSoftBody4Body5xformEv.exit2735:           ; preds = %sw.bb887, %init.check.i2720, %invoke.cont.i2726
  %m_collisionObject.i2727 = getelementptr inbounds %"struct.btSoftBody::Joint", ptr %552, i64 0, i32 1, i64 0, i32 2
  %678 = load ptr, ptr %m_collisionObject.i2727, align 8, !tbaa !147
  %tobool3.not.i2728 = icmp eq ptr %678, null
  %m_interpolationWorldTransform.i.i2729 = getelementptr inbounds %class.btCollisionObject, ptr %678, i64 0, i32 2
  %679 = load ptr, ptr %m_bodies888, align 8
  %tobool6.not.i2730 = icmp eq ptr %679, null
  %m_framexform.i2731 = getelementptr inbounds %"struct.btSoftBody::Cluster", ptr %679, i64 0, i32 3
  %spec.select.i2732 = select i1 %tobool6.not.i2730, ptr @_ZZNK10btSoftBody4Body5xformEvE8identity, ptr %m_framexform.i2731
  %retval.0.i2733 = select i1 %tobool3.not.i2728, ptr %spec.select.i2732, ptr %m_interpolationWorldTransform.i.i2729
  %m_origin.i2736 = getelementptr inbounds %class.btTransform, ptr %retval.0.i2733, i64 0, i32 1
  call void @llvm.memcpy.p0.p0.i64(ptr noundef nonnull align 8 dereferenceable(16) %o0, ptr noundef nonnull align 4 dereferenceable(16) %m_origin.i2736, i64 16, i1 false), !tbaa.struct !52
  call void @llvm.lifetime.start.p0(i64 16, ptr nonnull %o1) #18
  %arrayidx893 = getelementptr inbounds %"struct.btSoftBody::Joint", ptr %552, i64 0, i32 1, i64 1
  %680 = load atomic i8, ptr @_ZGVZNK10btSoftBody4Body5xformEvE8identity acquire, align 8
  %guard.uninitialized.i2737 = icmp eq i8 %680, 0
  br i1 %guard.uninitialized.i2737, label %init.check.i2739, label %_ZNK10btSoftBody4Body5xformEv.exit2754, !prof !28

init.check.i2739:                                 ; preds = %_ZNK10btSoftBody4Body5xformEv.exit2735
  %681 = call i32 @__cxa_guard_acquire(ptr nonnull @_ZGVZNK10btSoftBody4Body5xformEvE8identity) #18
  %tobool.not.i2738 = icmp eq i32 %681, 0
  br i1 %tobool.not.i2738, label %_ZNK10btSoftBody4Body5xformEv.exit2754, label %init.i2741

init.i2741:                                       ; preds = %init.check.i2739
  %call.i2740 = invoke noundef nonnull align 4 dereferenceable(64) ptr @_ZN11btTransform11getIdentityEv()
          to label %invoke.cont.i2745 unwind label %lpad.i2753

invoke.cont.i2745:                                ; preds = %init.i2741
  call void @llvm.memcpy.p0.p0.i64(ptr noundef nonnull align 4 dereferenceable(16) @_ZZNK10btSoftBody4Body5xformEvE8identity, ptr noundef nonnull align 4 dereferenceable(16) %call.i2740, i64 16, i1 false), !tbaa.struct !52
  %arrayidx6.i.i.i2742 = getelementptr inbounds [3 x %class.btVector3], ptr %call.i2740, i64 0, i64 1
  call void @llvm.memcpy.p0.p0.i64(ptr noundef nonnull align 4 dereferenceable(16) getelementptr inbounds (%class.btTransform, ptr @_ZZNK10btSoftBody4Body5xformEvE8identity, i64 0, i32 0, i32 0, i64 1), ptr noundef nonnull align 4 dereferenceable(16) %arrayidx6.i.i.i2742, i64 16, i1 false), !tbaa.struct !52
  %arrayidx10.i.i.i2743 = getelementptr inbounds [3 x %class.btVector3], ptr %call.i2740, i64 0, i64 2
  call void @llvm.memcpy.p0.p0.i64(ptr noundef nonnull align 4 dereferenceable(16) getelementptr inbounds (%class.btTransform, ptr @_ZZNK10btSoftBody4Body5xformEvE8identity, i64 0, i32 0, i32 0, i64 2), ptr noundef nonnull align 4 dereferenceable(16) %arrayidx10.i.i.i2743, i64 16, i1 false), !tbaa.struct !52
  %m_origin3.i.i2744 = getelementptr inbounds %class.btTransform, ptr %call.i2740, i64 0, i32 1
  call void @llvm.memcpy.p0.p0.i64(ptr noundef nonnull align 4 dereferenceable(16) getelementptr inbounds (%class.btTransform, ptr @_ZZNK10btSoftBody4Body5xformEvE8identity, i64 0, i32 1), ptr noundef nonnull align 4 dereferenceable(16) %m_origin3.i.i2744, i64 16, i1 false), !tbaa.struct !52
  %682 = call ptr @llvm.invariant.start.p0(i64 64, ptr nonnull @_ZZNK10btSoftBody4Body5xformEvE8identity)
  call void @__cxa_guard_release(ptr nonnull @_ZGVZNK10btSoftBody4Body5xformEvE8identity) #18
  br label %_ZNK10btSoftBody4Body5xformEv.exit2754

lpad.i2753:                                       ; preds = %init.i2741
  %683 = landingpad { ptr, i32 }
          cleanup
  call void @__cxa_guard_abort(ptr nonnull @_ZGVZNK10btSoftBody4Body5xformEvE8identity) #18
  br label %common.resume

_ZNK10btSoftBody4Body5xformEv.exit2754:           ; preds = %_ZNK10btSoftBody4Body5xformEv.exit2735, %init.check.i2739, %invoke.cont.i2745
  %m_collisionObject.i2746 = getelementptr inbounds %"struct.btSoftBody::Joint", ptr %552, i64 0, i32 1, i64 1, i32 2
  %684 = load ptr, ptr %m_collisionObject.i2746, align 8, !tbaa !147
  %tobool3.not.i2747 = icmp eq ptr %684, null
  %m_interpolationWorldTransform.i.i2748 = getelementptr inbounds %class.btCollisionObject, ptr %684, i64 0, i32 2
  %685 = load ptr, ptr %arrayidx893, align 8
  %tobool6.not.i2749 = icmp eq ptr %685, null
  %m_framexform.i2750 = getelementptr inbounds %"struct.btSoftBody::Cluster", ptr %685, i64 0, i32 3
  %spec.select.i2751 = select i1 %tobool6.not.i2749, ptr @_ZZNK10btSoftBody4Body5xformEvE8identity, ptr %m_framexform.i2750
  %retval.0.i2752 = select i1 %tobool3.not.i2747, ptr %spec.select.i2751, ptr %m_interpolationWorldTransform.i.i2748
  %m_origin.i2755 = getelementptr inbounds %class.btTransform, ptr %retval.0.i2752, i64 0, i32 1
  call void @llvm.memcpy.p0.p0.i64(ptr noundef nonnull align 8 dereferenceable(16) %o1, ptr noundef nonnull align 4 dereferenceable(16) %m_origin.i2755, i64 16, i1 false), !tbaa.struct !52
  %686 = load atomic i8, ptr @_ZGVZNK10btSoftBody4Body5xformEvE8identity acquire, align 8
  %guard.uninitialized.i2756 = icmp eq i8 %686, 0
  br i1 %guard.uninitialized.i2756, label %init.check.i2758, label %_ZNK10btSoftBody4Body5xformEv.exit2773, !prof !28

init.check.i2758:                                 ; preds = %_ZNK10btSoftBody4Body5xformEv.exit2754
  %687 = call i32 @__cxa_guard_acquire(ptr nonnull @_ZGVZNK10btSoftBody4Body5xformEvE8identity) #18
  %tobool.not.i2757 = icmp eq i32 %687, 0
  br i1 %tobool.not.i2757, label %_ZNK10btSoftBody4Body5xformEv.exit2773, label %init.i2760

init.i2760:                                       ; preds = %init.check.i2758
  %call.i2759 = invoke noundef nonnull align 4 dereferenceable(64) ptr @_ZN11btTransform11getIdentityEv()
          to label %invoke.cont.i2764 unwind label %lpad.i2772

invoke.cont.i2764:                                ; preds = %init.i2760
  call void @llvm.memcpy.p0.p0.i64(ptr noundef nonnull align 4 dereferenceable(16) @_ZZNK10btSoftBody4Body5xformEvE8identity, ptr noundef nonnull align 4 dereferenceable(16) %call.i2759, i64 16, i1 false), !tbaa.struct !52
  %arrayidx6.i.i.i2761 = getelementptr inbounds [3 x %class.btVector3], ptr %call.i2759, i64 0, i64 1
  call void @llvm.memcpy.p0.p0.i64(ptr noundef nonnull align 4 dereferenceable(16) getelementptr inbounds (%class.btTransform, ptr @_ZZNK10btSoftBody4Body5xformEvE8identity, i64 0, i32 0, i32 0, i64 1), ptr noundef nonnull align 4 dereferenceable(16) %arrayidx6.i.i.i2761, i64 16, i1 false), !tbaa.struct !52
  %arrayidx10.i.i.i2762 = getelementptr inbounds [3 x %class.btVector3], ptr %call.i2759, i64 0, i64 2
  call void @llvm.memcpy.p0.p0.i64(ptr noundef nonnull align 4 dereferenceable(16) getelementptr inbounds (%class.btTransform, ptr @_ZZNK10btSoftBody4Body5xformEvE8identity, i64 0, i32 0, i32 0, i64 2), ptr noundef nonnull align 4 dereferenceable(16) %arrayidx10.i.i.i2762, i64 16, i1 false), !tbaa.struct !52
  %m_origin3.i.i2763 = getelementptr inbounds %class.btTransform, ptr %call.i2759, i64 0, i32 1
  call void @llvm.memcpy.p0.p0.i64(ptr noundef nonnull align 4 dereferenceable(16) getelementptr inbounds (%class.btTransform, ptr @_ZZNK10btSoftBody4Body5xformEvE8identity, i64 0, i32 1), ptr noundef nonnull align 4 dereferenceable(16) %m_origin3.i.i2763, i64 16, i1 false), !tbaa.struct !52
  %688 = call ptr @llvm.invariant.start.p0(i64 64, ptr nonnull @_ZZNK10btSoftBody4Body5xformEvE8identity)
  call void @__cxa_guard_release(ptr nonnull @_ZGVZNK10btSoftBody4Body5xformEvE8identity) #18
  br label %_ZNK10btSoftBody4Body5xformEv.exit2773

lpad.i2772:                                       ; preds = %init.i2760
  %689 = landingpad { ptr, i32 }
          cleanup
  call void @__cxa_guard_abort(ptr nonnull @_ZGVZNK10btSoftBody4Body5xformEvE8identity) #18
  br label %common.resume

_ZNK10btSoftBody4Body5xformEv.exit2773:           ; preds = %_ZNK10btSoftBody4Body5xformEv.exit2754, %init.check.i2758, %invoke.cont.i2764
  %690 = load ptr, ptr %m_collisionObject.i2727, align 8, !tbaa !147
  %tobool3.not.i2766 = icmp eq ptr %690, null
  %m_interpolationWorldTransform.i.i2767 = getelementptr inbounds %class.btCollisionObject, ptr %690, i64 0, i32 2
  %691 = load ptr, ptr %m_bodies888, align 8
  %tobool6.not.i2768 = icmp eq ptr %691, null
  %m_framexform.i2769 = getelementptr inbounds %"struct.btSoftBody::Cluster", ptr %691, i64 0, i32 3
  %spec.select.i2770 = select i1 %tobool6.not.i2768, ptr @_ZZNK10btSoftBody4Body5xformEvE8identity, ptr %m_framexform.i2769
  %retval.0.i2771 = select i1 %tobool3.not.i2766, ptr %spec.select.i2770, ptr %m_interpolationWorldTransform.i.i2767
  %m_refs901 = getelementptr inbounds %"struct.btSoftBody::Joint", ptr %552, i64 0, i32 2
  %692 = load float, ptr %m_refs901, align 4, !tbaa !5
  %arrayidx5.i.i2774 = getelementptr inbounds [4 x float], ptr %retval.0.i2771, i64 0, i64 1
  %arrayidx7.i.i2775 = getelementptr inbounds %"struct.btSoftBody::Joint", ptr %552, i64 0, i32 2, i64 0, i32 0, i64 1
  %693 = load float, ptr %arrayidx7.i.i2775, align 4, !tbaa !5
  %arrayidx10.i.i2777 = getelementptr inbounds [4 x float], ptr %retval.0.i2771, i64 0, i64 2
  %arrayidx12.i.i2778 = getelementptr inbounds %"struct.btSoftBody::Joint", ptr %552, i64 0, i32 2, i64 0, i32 0, i64 2
  %694 = load float, ptr %arrayidx12.i.i2778, align 4, !tbaa !5
  %arrayidx.i.i2779 = getelementptr inbounds [3 x %class.btVector3], ptr %retval.0.i2771, i64 0, i64 1
  %arrayidx5.i12.i = getelementptr inbounds [3 x %class.btVector3], ptr %retval.0.i2771, i64 0, i64 1, i32 0, i64 1
  %arrayidx10.i15.i = getelementptr inbounds [3 x %class.btVector3], ptr %retval.0.i2771, i64 0, i64 1, i32 0, i64 2
  %695 = load float, ptr %retval.0.i2771, align 4, !tbaa !5
  %696 = load float, ptr %arrayidx5.i.i2774, align 4, !tbaa !5
  %697 = load float, ptr %arrayidx10.i.i2777, align 4, !tbaa !5
  %698 = load float, ptr %arrayidx.i.i2779, align 4, !tbaa !5
  %699 = load float, ptr %arrayidx5.i12.i, align 4, !tbaa !5
  %700 = insertelement <2 x float> poison, float %693, i64 0
  %701 = shufflevector <2 x float> %700, <2 x float> poison, <2 x i32> zeroinitializer
  %702 = insertelement <2 x float> poison, float %696, i64 0
  %703 = insertelement <2 x float> %702, float %699, i64 1
  %704 = fmul <2 x float> %701, %703
  %705 = insertelement <2 x float> poison, float %695, i64 0
  %706 = insertelement <2 x float> %705, float %698, i64 1
  %707 = insertelement <2 x float> poison, float %692, i64 0
  %708 = shufflevector <2 x float> %707, <2 x float> poison, <2 x i32> zeroinitializer
  %709 = call <2 x float> @llvm.fmuladd.v2f32(<2 x float> %706, <2 x float> %708, <2 x float> %704)
  %710 = load float, ptr %arrayidx10.i15.i, align 4, !tbaa !5
  %711 = insertelement <2 x float> poison, float %697, i64 0
  %712 = insertelement <2 x float> %711, float %710, i64 1
  %713 = insertelement <2 x float> poison, float %694, i64 0
  %714 = shufflevector <2 x float> %713, <2 x float> poison, <2 x i32> zeroinitializer
  %715 = call <2 x float> @llvm.fmuladd.v2f32(<2 x float> %712, <2 x float> %714, <2 x float> %709)
  %arrayidx.i17.i = getelementptr inbounds [3 x %class.btVector3], ptr %retval.0.i2771, i64 0, i64 2
  %716 = load float, ptr %arrayidx.i17.i, align 4, !tbaa !5
  %arrayidx5.i18.i = getelementptr inbounds [3 x %class.btVector3], ptr %retval.0.i2771, i64 0, i64 2, i32 0, i64 1
  %717 = load float, ptr %arrayidx5.i18.i, align 4, !tbaa !5
  %mul8.i20.i = fmul float %693, %717
  %718 = call float @llvm.fmuladd.f32(float %716, float %692, float %mul8.i20.i)
  %arrayidx10.i21.i = getelementptr inbounds [3 x %class.btVector3], ptr %retval.0.i2771, i64 0, i64 2, i32 0, i64 2
  %719 = load float, ptr %arrayidx10.i21.i, align 4, !tbaa !5
  %720 = call float @llvm.fmuladd.f32(float %719, float %694, float %718)
  %721 = load atomic i8, ptr @_ZGVZNK10btSoftBody4Body5xformEvE8identity acquire, align 8
  %guard.uninitialized.i2785 = icmp eq i8 %721, 0
  br i1 %guard.uninitialized.i2785, label %init.check.i2787, label %_ZNK10btSoftBody4Body5xformEv.exit2802, !prof !28

init.check.i2787:                                 ; preds = %_ZNK10btSoftBody4Body5xformEv.exit2773
  %722 = call i32 @__cxa_guard_acquire(ptr nonnull @_ZGVZNK10btSoftBody4Body5xformEvE8identity) #18
  %tobool.not.i2786 = icmp eq i32 %722, 0
  br i1 %tobool.not.i2786, label %_ZNK10btSoftBody4Body5xformEv.exit2802, label %init.i2789

init.i2789:                                       ; preds = %init.check.i2787
  %call.i2788 = invoke noundef nonnull align 4 dereferenceable(64) ptr @_ZN11btTransform11getIdentityEv()
          to label %invoke.cont.i2793 unwind label %lpad.i2801

invoke.cont.i2793:                                ; preds = %init.i2789
  call void @llvm.memcpy.p0.p0.i64(ptr noundef nonnull align 4 dereferenceable(16) @_ZZNK10btSoftBody4Body5xformEvE8identity, ptr noundef nonnull align 4 dereferenceable(16) %call.i2788, i64 16, i1 false), !tbaa.struct !52
  %arrayidx6.i.i.i2790 = getelementptr inbounds [3 x %class.btVector3], ptr %call.i2788, i64 0, i64 1
  call void @llvm.memcpy.p0.p0.i64(ptr noundef nonnull align 4 dereferenceable(16) getelementptr inbounds (%class.btTransform, ptr @_ZZNK10btSoftBody4Body5xformEvE8identity, i64 0, i32 0, i32 0, i64 1), ptr noundef nonnull align 4 dereferenceable(16) %arrayidx6.i.i.i2790, i64 16, i1 false), !tbaa.struct !52
  %arrayidx10.i.i.i2791 = getelementptr inbounds [3 x %class.btVector3], ptr %call.i2788, i64 0, i64 2
  call void @llvm.memcpy.p0.p0.i64(ptr noundef nonnull align 4 dereferenceable(16) getelementptr inbounds (%class.btTransform, ptr @_ZZNK10btSoftBody4Body5xformEvE8identity, i64 0, i32 0, i32 0, i64 2), ptr noundef nonnull align 4 dereferenceable(16) %arrayidx10.i.i.i2791, i64 16, i1 false), !tbaa.struct !52
  %m_origin3.i.i2792 = getelementptr inbounds %class.btTransform, ptr %call.i2788, i64 0, i32 1
  call void @llvm.memcpy.p0.p0.i64(ptr noundef nonnull align 4 dereferenceable(16) getelementptr inbounds (%class.btTransform, ptr @_ZZNK10btSoftBody4Body5xformEvE8identity, i64 0, i32 1), ptr noundef nonnull align 4 dereferenceable(16) %m_origin3.i.i2792, i64 16, i1 false), !tbaa.struct !52
  %723 = call ptr @llvm.invariant.start.p0(i64 64, ptr nonnull @_ZZNK10btSoftBody4Body5xformEvE8identity)
  call void @__cxa_guard_release(ptr nonnull @_ZGVZNK10btSoftBody4Body5xformEvE8identity) #18
  br label %_ZNK10btSoftBody4Body5xformEv.exit2802

lpad.i2801:                                       ; preds = %init.i2789
  %724 = landingpad { ptr, i32 }
          cleanup
  call void @__cxa_guard_abort(ptr nonnull @_ZGVZNK10btSoftBody4Body5xformEvE8identity) #18
  br label %common.resume

_ZNK10btSoftBody4Body5xformEv.exit2802:           ; preds = %_ZNK10btSoftBody4Body5xformEv.exit2773, %init.check.i2787, %invoke.cont.i2793
  %725 = load ptr, ptr %m_collisionObject.i2746, align 8, !tbaa !147
  %tobool3.not.i2795 = icmp eq ptr %725, null
  %m_interpolationWorldTransform.i.i2796 = getelementptr inbounds %class.btCollisionObject, ptr %725, i64 0, i32 2
  %726 = load ptr, ptr %arrayidx893, align 8
  %tobool6.not.i2797 = icmp eq ptr %726, null
  %m_framexform.i2798 = getelementptr inbounds %"struct.btSoftBody::Cluster", ptr %726, i64 0, i32 3
  %spec.select.i2799 = select i1 %tobool6.not.i2797, ptr @_ZZNK10btSoftBody4Body5xformEvE8identity, ptr %m_framexform.i2798
  %retval.0.i2800 = select i1 %tobool3.not.i2795, ptr %spec.select.i2799, ptr %m_interpolationWorldTransform.i.i2796
  %arrayidx911 = getelementptr inbounds %"struct.btSoftBody::Joint", ptr %552, i64 0, i32 2, i64 1
  %727 = load float, ptr %arrayidx911, align 4, !tbaa !5
  %arrayidx5.i.i2803 = getelementptr inbounds [4 x float], ptr %retval.0.i2800, i64 0, i64 1
  %arrayidx7.i.i2804 = getelementptr inbounds %"struct.btSoftBody::Joint", ptr %552, i64 0, i32 2, i64 1, i32 0, i64 1
  %728 = load float, ptr %arrayidx7.i.i2804, align 4, !tbaa !5
  %arrayidx10.i.i2806 = getelementptr inbounds [4 x float], ptr %retval.0.i2800, i64 0, i64 2
  %arrayidx12.i.i2807 = getelementptr inbounds %"struct.btSoftBody::Joint", ptr %552, i64 0, i32 2, i64 1, i32 0, i64 2
  %729 = load float, ptr %arrayidx12.i.i2807, align 4, !tbaa !5
  %arrayidx.i.i2808 = getelementptr inbounds [3 x %class.btVector3], ptr %retval.0.i2800, i64 0, i64 1
  %arrayidx5.i12.i2809 = getelementptr inbounds [3 x %class.btVector3], ptr %retval.0.i2800, i64 0, i64 1, i32 0, i64 1
  %arrayidx10.i15.i2811 = getelementptr inbounds [3 x %class.btVector3], ptr %retval.0.i2800, i64 0, i64 1, i32 0, i64 2
  %arrayidx.i17.i2812 = getelementptr inbounds [3 x %class.btVector3], ptr %retval.0.i2800, i64 0, i64 2
  %730 = load float, ptr %arrayidx.i17.i2812, align 4, !tbaa !5
  %arrayidx5.i18.i2813 = getelementptr inbounds [3 x %class.btVector3], ptr %retval.0.i2800, i64 0, i64 2, i32 0, i64 1
  %731 = load float, ptr %arrayidx5.i18.i2813, align 4, !tbaa !5
  %mul8.i20.i2814 = fmul float %728, %731
  %732 = call float @llvm.fmuladd.f32(float %730, float %727, float %mul8.i20.i2814)
  %arrayidx10.i21.i2815 = getelementptr inbounds [3 x %class.btVector3], ptr %retval.0.i2800, i64 0, i64 2, i32 0, i64 2
  %733 = load float, ptr %arrayidx10.i21.i2815, align 4, !tbaa !5
  %734 = call float @llvm.fmuladd.f32(float %733, float %729, float %732)
  %735 = fmul <2 x float> %715, <float 1.000000e+01, float 1.000000e+01>
  %mul8.i2825 = fmul float %720, 1.000000e+01
  %mul8.i2850 = fmul float %734, 1.000000e+01
  %736 = load float, ptr %retval.0.i2800, align 4, !tbaa !5
  %737 = load float, ptr %arrayidx5.i.i2803, align 4, !tbaa !5
  %738 = load float, ptr %arrayidx10.i.i2806, align 4, !tbaa !5
  %739 = load float, ptr %arrayidx.i.i2808, align 4, !tbaa !5
  %740 = load float, ptr %arrayidx5.i12.i2809, align 4, !tbaa !5
  %741 = insertelement <2 x float> poison, float %728, i64 0
  %742 = shufflevector <2 x float> %741, <2 x float> poison, <2 x i32> zeroinitializer
  %743 = insertelement <2 x float> poison, float %737, i64 0
  %744 = insertelement <2 x float> %743, float %740, i64 1
  %745 = fmul <2 x float> %742, %744
  %746 = insertelement <2 x float> poison, float %736, i64 0
  %747 = insertelement <2 x float> %746, float %739, i64 1
  %748 = insertelement <2 x float> poison, float %727, i64 0
  %749 = shufflevector <2 x float> %748, <2 x float> poison, <2 x i32> zeroinitializer
  %750 = call <2 x float> @llvm.fmuladd.v2f32(<2 x float> %747, <2 x float> %749, <2 x float> %745)
  %751 = load float, ptr %arrayidx10.i15.i2811, align 4, !tbaa !5
  %752 = insertelement <2 x float> poison, float %738, i64 0
  %753 = insertelement <2 x float> %752, float %751, i64 1
  %754 = insertelement <2 x float> poison, float %729, i64 0
  %755 = shufflevector <2 x float> %754, <2 x float> poison, <2 x i32> zeroinitializer
  %756 = call <2 x float> @llvm.fmuladd.v2f32(<2 x float> %753, <2 x float> %755, <2 x float> %750)
  call void @llvm.lifetime.start.p0(i64 16, ptr nonnull %ref.tmp914) #18
  %757 = load <2 x float>, ptr %o0, align 8, !tbaa !5
  %758 = fadd <2 x float> %735, %757
  %759 = load float, ptr %arrayidx11.i2835, align 8, !tbaa !5
  %add14.i2837 = fadd float %mul8.i2825, %759
  %retval.sroa.3.12.vec.insert.i2840 = insertelement <2 x float> <float poison, float 0.000000e+00>, float %add14.i2837, i64 0
  store <2 x float> %758, ptr %ref.tmp914, align 8
  store <2 x float> %retval.sroa.3.12.vec.insert.i2840, ptr %533, align 8
  call void @llvm.lifetime.start.p0(i64 16, ptr nonnull %ref.tmp921) #18
  store <4 x float> <float 1.000000e+00, float 1.000000e+00, float 0.000000e+00, float 0.000000e+00>, ptr %ref.tmp921, align 16, !tbaa !5
  %vtable925 = load ptr, ptr %idraw, align 8, !tbaa !21
  %vfn926 = getelementptr inbounds ptr, ptr %vtable925, i64 5
  %760 = load ptr, ptr %vfn926, align 8
  call void %760(ptr noundef nonnull align 8 dereferenceable(8) %idraw, ptr noundef nonnull align 4 dereferenceable(16) %o0, ptr noundef nonnull align 4 dereferenceable(16) %ref.tmp914, ptr noundef nonnull align 4 dereferenceable(16) %ref.tmp921)
  call void @llvm.lifetime.end.p0(i64 16, ptr nonnull %ref.tmp921) #18
  call void @llvm.lifetime.end.p0(i64 16, ptr nonnull %ref.tmp914) #18
  call void @llvm.lifetime.start.p0(i64 16, ptr nonnull %ref.tmp927) #18
  %761 = fmul <2 x float> %756, <float 1.000000e+01, float 1.000000e+01>
  %762 = load <2 x float>, ptr %o0, align 8, !tbaa !5
  %763 = fadd <2 x float> %761, %762
  %764 = load float, ptr %arrayidx11.i2835, align 8, !tbaa !5
  %add14.i2862 = fadd float %mul8.i2850, %764
  %retval.sroa.3.12.vec.insert.i2865 = insertelement <2 x float> <float poison, float 0.000000e+00>, float %add14.i2862, i64 0
  store <2 x float> %763, ptr %ref.tmp927, align 8
  store <2 x float> %retval.sroa.3.12.vec.insert.i2865, ptr %534, align 8
  call void @llvm.lifetime.start.p0(i64 16, ptr nonnull %ref.tmp934) #18
  store <4 x float> <float 1.000000e+00, float 1.000000e+00, float 0.000000e+00, float 0.000000e+00>, ptr %ref.tmp934, align 16, !tbaa !5
  %vtable938 = load ptr, ptr %idraw, align 8, !tbaa !21
  %vfn939 = getelementptr inbounds ptr, ptr %vtable938, i64 5
  %765 = load ptr, ptr %vfn939, align 8
  call void %765(ptr noundef nonnull align 8 dereferenceable(8) %idraw, ptr noundef nonnull align 4 dereferenceable(16) %o0, ptr noundef nonnull align 4 dereferenceable(16) %ref.tmp927, ptr noundef nonnull align 4 dereferenceable(16) %ref.tmp934)
  call void @llvm.lifetime.end.p0(i64 16, ptr nonnull %ref.tmp934) #18
  call void @llvm.lifetime.end.p0(i64 16, ptr nonnull %ref.tmp927) #18
  call void @llvm.lifetime.start.p0(i64 16, ptr nonnull %ref.tmp940) #18
  %766 = load <2 x float>, ptr %o1, align 8, !tbaa !5
  %767 = fadd <2 x float> %735, %766
  %768 = load float, ptr %arrayidx11.i2885, align 8, !tbaa !5
  %add14.i2887 = fadd float %mul8.i2825, %768
  %retval.sroa.3.12.vec.insert.i2890 = insertelement <2 x float> <float poison, float 0.000000e+00>, float %add14.i2887, i64 0
  store <2 x float> %767, ptr %ref.tmp940, align 8
  store <2 x float> %retval.sroa.3.12.vec.insert.i2890, ptr %535, align 8
  call void @llvm.lifetime.start.p0(i64 16, ptr nonnull %ref.tmp947) #18
  store <4 x float> <float 0.000000e+00, float 1.000000e+00, float 1.000000e+00, float 0.000000e+00>, ptr %ref.tmp947, align 16, !tbaa !5
  %vtable951 = load ptr, ptr %idraw, align 8, !tbaa !21
  %vfn952 = getelementptr inbounds ptr, ptr %vtable951, i64 5
  %769 = load ptr, ptr %vfn952, align 8
  call void %769(ptr noundef nonnull align 8 dereferenceable(8) %idraw, ptr noundef nonnull align 4 dereferenceable(16) %o1, ptr noundef nonnull align 4 dereferenceable(16) %ref.tmp940, ptr noundef nonnull align 4 dereferenceable(16) %ref.tmp947)
  call void @llvm.lifetime.end.p0(i64 16, ptr nonnull %ref.tmp947) #18
  call void @llvm.lifetime.end.p0(i64 16, ptr nonnull %ref.tmp940) #18
  call void @llvm.lifetime.start.p0(i64 16, ptr nonnull %ref.tmp953) #18
  %770 = load <2 x float>, ptr %o1, align 8, !tbaa !5
  %771 = fadd <2 x float> %761, %770
  %772 = load float, ptr %arrayidx11.i2885, align 8, !tbaa !5
  %add14.i2912 = fadd float %mul8.i2850, %772
  %retval.sroa.3.12.vec.insert.i2915 = insertelement <2 x float> <float poison, float 0.000000e+00>, float %add14.i2912, i64 0
  store <2 x float> %771, ptr %ref.tmp953, align 8
  store <2 x float> %retval.sroa.3.12.vec.insert.i2915, ptr %536, align 8
  call void @llvm.lifetime.start.p0(i64 16, ptr nonnull %ref.tmp960) #18
  store <4 x float> <float 0.000000e+00, float 1.000000e+00, float 1.000000e+00, float 0.000000e+00>, ptr %ref.tmp960, align 16, !tbaa !5
  %vtable964 = load ptr, ptr %idraw, align 8, !tbaa !21
  %vfn965 = getelementptr inbounds ptr, ptr %vtable964, i64 5
  %773 = load ptr, ptr %vfn965, align 8
  call void %773(ptr noundef nonnull align 8 dereferenceable(8) %idraw, ptr noundef nonnull align 4 dereferenceable(16) %o1, ptr noundef nonnull align 4 dereferenceable(16) %ref.tmp953, ptr noundef nonnull align 4 dereferenceable(16) %ref.tmp960)
  call void @llvm.lifetime.end.p0(i64 16, ptr nonnull %ref.tmp960) #18
  call void @llvm.lifetime.end.p0(i64 16, ptr nonnull %ref.tmp953) #18
  call void @llvm.lifetime.end.p0(i64 16, ptr nonnull %o1) #18
  call void @llvm.lifetime.end.p0(i64 16, ptr nonnull %o0) #18
  br label %sw.epilog

sw.epilog:                                        ; preds = %_ZNK10btSoftBody4Body5xformEv.exit2802, %for.body841, %_ZNK10btSoftBody4Body5xformEv.exit2619
  %indvars.iv.next3395 = add nuw nsw i64 %indvars.iv3394, 1
  %774 = load i32, ptr %m_size.i2509, align 4, !tbaa !145
  %775 = sext i32 %774 to i64
  %cmp840 = icmp slt i64 %indvars.iv.next3395, %775
  br i1 %cmp840, label %for.body841, label %if.end969

if.end969:                                        ; preds = %sw.epilog, %for.cond838.preheader, %if.end834
  call void @llvm.lifetime.end.p0(i64 16, ptr nonnull %ccolor) #18
  call void @llvm.lifetime.end.p0(i64 16, ptr nonnull %ncolor) #18
  call void @llvm.lifetime.end.p0(i64 16, ptr nonnull %lcolor) #18
  ret void

terminate.lpad:                                   ; preds = %if.then3.i.i.i1910, %ehcleanup534, %ehcleanup532
  %776 = landingpad { ptr, i32 }
          catch ptr null
  %777 = extractvalue { ptr, i32 } %776, 0
  call void @__clang_call_terminate(ptr %777) #19
  unreachable
}

; Function Attrs: mustprogress nocallback nofree nosync nounwind willreturn memory(argmem: readwrite)
declare void @llvm.lifetime.start.p0(i64 immarg, ptr nocapture) #1

; Function Attrs: mustprogress nocallback nofree nosync nounwind willreturn memory(argmem: readwrite)
declare void @llvm.lifetime.end.p0(i64 immarg, ptr nocapture) #1

; Function Attrs: nofree nounwind
declare i32 @__cxa_guard_acquire(ptr) local_unnamed_addr #2

declare i32 @__gxx_personality_v0(...)

; Function Attrs: mustprogress nocallback nofree nosync nounwind willreturn memory(argmem: readwrite)
declare ptr @llvm.invariant.start.p0(i64 immarg, ptr nocapture) #1

; Function Attrs: nofree nounwind
declare void @__cxa_guard_abort(ptr) local_unnamed_addr #2

; Function Attrs: nofree nounwind
declare void @__cxa_guard_release(ptr) local_unnamed_addr #2

; Function Attrs: mustprogress nocallback nofree nounwind willreturn memory(argmem: readwrite)
declare void @llvm.memcpy.p0.p0.i64(ptr noalias nocapture writeonly, ptr noalias nocapture readonly, i64, i1 immarg) #3

; Function Attrs: nounwind
declare void @srand(i32 noundef) local_unnamed_addr #4

; Function Attrs: nounwind
declare i32 @rand() local_unnamed_addr #4

declare noundef i32 @_ZN11HullLibrary16CreateConvexHullERK8HullDescR10HullResult(ptr noundef nonnull align 8 dereferenceable(64), ptr noundef nonnull align 8 dereferenceable(32), ptr noundef nonnull align 8 dereferenceable(80)) local_unnamed_addr #5

declare noundef i32 @_ZN11HullLibrary13ReleaseResultER10HullResult(ptr noundef nonnull align 8 dereferenceable(64), ptr noundef nonnull align 8 dereferenceable(80)) local_unnamed_addr #5

; Function Attrs: inlinehint uwtable
define linkonce_odr dso_local void @_ZN11HullLibraryD2Ev(ptr noundef nonnull align 8 dereferenceable(64) %this) unnamed_addr #6 comdat align 2 personality ptr @__gxx_personality_v0 {
entry:
  %m_data.i.i.i = getelementptr inbounds %class.HullLibrary, ptr %this, i64 0, i32 1, i32 5
  %0 = load ptr, ptr %m_data.i.i.i, align 8, !tbaa !103
  %tobool.not.i.i.i = icmp eq ptr %0, null
  %m_ownsMemory.i.i.i = getelementptr inbounds %class.HullLibrary, ptr %this, i64 0, i32 1, i32 6
  %1 = load i8, ptr %m_ownsMemory.i.i.i, align 8, !range !69
  %tobool2.not.i.i.i = icmp eq i8 %1, 0
  %or.cond.i.i = select i1 %tobool.not.i.i.i, i1 true, i1 %tobool2.not.i.i.i
  br i1 %or.cond.i.i, label %_ZN20btAlignedObjectArrayIiED2Ev.exit, label %if.then3.i.i.i

if.then3.i.i.i:                                   ; preds = %entry
  invoke void @_Z21btAlignedFreeInternalPv(ptr noundef nonnull %0)
          to label %_ZN20btAlignedObjectArrayIiED2Ev.exit unwind label %lpad

_ZN20btAlignedObjectArrayIiED2Ev.exit:            ; preds = %if.then3.i.i.i, %entry
  store i8 1, ptr %m_ownsMemory.i.i.i, align 8, !tbaa !100
  store ptr null, ptr %m_data.i.i.i, align 8, !tbaa !103
  %m_size.i4.i.i = getelementptr inbounds %class.HullLibrary, ptr %this, i64 0, i32 1, i32 2
  store i32 0, ptr %m_size.i4.i.i, align 4, !tbaa !104
  %m_capacity.i.i.i = getelementptr inbounds %class.HullLibrary, ptr %this, i64 0, i32 1, i32 3
  store i32 0, ptr %m_capacity.i.i.i, align 8, !tbaa !105
  %m_data.i.i.i5 = getelementptr inbounds %class.btAlignedObjectArray.88, ptr %this, i64 0, i32 5
  %2 = load ptr, ptr %m_data.i.i.i5, align 8, !tbaa !97
  %tobool.not.i.i.i6 = icmp eq ptr %2, null
  %m_ownsMemory.i.i.i7 = getelementptr inbounds %class.btAlignedObjectArray.88, ptr %this, i64 0, i32 6
  %3 = load i8, ptr %m_ownsMemory.i.i.i7, align 8, !range !69
  %tobool2.not.i.i.i8 = icmp eq i8 %3, 0
  %or.cond.i.i9 = select i1 %tobool.not.i.i.i6, i1 true, i1 %tobool2.not.i.i.i8
  br i1 %or.cond.i.i9, label %_ZN20btAlignedObjectArrayIP14btHullTriangleED2Ev.exit, label %if.then3.i.i.i10

if.then3.i.i.i10:                                 ; preds = %_ZN20btAlignedObjectArrayIiED2Ev.exit
  tail call void @_Z21btAlignedFreeInternalPv(ptr noundef nonnull %2)
  br label %_ZN20btAlignedObjectArrayIP14btHullTriangleED2Ev.exit

_ZN20btAlignedObjectArrayIP14btHullTriangleED2Ev.exit: ; preds = %_ZN20btAlignedObjectArrayIiED2Ev.exit, %if.then3.i.i.i10
  store i8 1, ptr %m_ownsMemory.i.i.i7, align 8, !tbaa !94
  store ptr null, ptr %m_data.i.i.i5, align 8, !tbaa !97
  %m_size.i4.i.i11 = getelementptr inbounds %class.btAlignedObjectArray.88, ptr %this, i64 0, i32 2
  store i32 0, ptr %m_size.i4.i.i11, align 4, !tbaa !98
  %m_capacity.i.i.i12 = getelementptr inbounds %class.btAlignedObjectArray.88, ptr %this, i64 0, i32 3
  store i32 0, ptr %m_capacity.i.i.i12, align 8, !tbaa !99
  ret void

lpad:                                             ; preds = %if.then3.i.i.i
  %4 = landingpad { ptr, i32 }
          cleanup
  invoke void @_ZN20btAlignedObjectArrayIP14btHullTriangleED2Ev(ptr noundef nonnull align 8 dereferenceable(25) %this)
          to label %eh.resume unwind label %terminate.lpad

eh.resume:                                        ; preds = %lpad
  resume { ptr, i32 } %4

terminate.lpad:                                   ; preds = %lpad
  %5 = landingpad { ptr, i32 }
          catch ptr null
  %6 = extractvalue { ptr, i32 } %5, 0
  tail call void @__clang_call_terminate(ptr %6) #19
  unreachable
}

; Function Attrs: noinline noreturn nounwind
define linkonce_odr hidden void @__clang_call_terminate(ptr noundef %0) local_unnamed_addr #7 comdat {
  %2 = tail call ptr @__cxa_begin_catch(ptr %0) #18
  tail call void @_ZSt9terminatev() #19
  unreachable
}

declare ptr @__cxa_begin_catch(ptr) local_unnamed_addr

declare void @_ZSt9terminatev() local_unnamed_addr

; Function Attrs: inlinehint uwtable
define linkonce_odr dso_local void @_ZN10HullResultD2Ev(ptr noundef nonnull align 8 dereferenceable(80) %this) unnamed_addr #6 comdat align 2 personality ptr @__gxx_personality_v0 {
entry:
  %m_data.i.i.i = getelementptr inbounds %class.HullResult, ptr %this, i64 0, i32 5, i32 5
  %0 = load ptr, ptr %m_data.i.i.i, align 8, !tbaa !86
  %tobool.not.i.i.i = icmp eq ptr %0, null
  %m_ownsMemory.i.i.i = getelementptr inbounds %class.HullResult, ptr %this, i64 0, i32 5, i32 6
  %1 = load i8, ptr %m_ownsMemory.i.i.i, align 8, !range !69
  %tobool2.not.i.i.i = icmp eq i8 %1, 0
  %or.cond.i.i = select i1 %tobool.not.i.i.i, i1 true, i1 %tobool2.not.i.i.i
  br i1 %or.cond.i.i, label %_ZN20btAlignedObjectArrayIjED2Ev.exit, label %if.then3.i.i.i

if.then3.i.i.i:                                   ; preds = %entry
  invoke void @_Z21btAlignedFreeInternalPv(ptr noundef nonnull %0)
          to label %_ZN20btAlignedObjectArrayIjED2Ev.exit unwind label %lpad

_ZN20btAlignedObjectArrayIjED2Ev.exit:            ; preds = %if.then3.i.i.i, %entry
  store i8 1, ptr %m_ownsMemory.i.i.i, align 8, !tbaa !83
  store ptr null, ptr %m_data.i.i.i, align 8, !tbaa !86
  %m_size.i4.i.i = getelementptr inbounds %class.HullResult, ptr %this, i64 0, i32 5, i32 2
  store i32 0, ptr %m_size.i4.i.i, align 4, !tbaa !87
  %m_capacity.i.i.i = getelementptr inbounds %class.HullResult, ptr %this, i64 0, i32 5, i32 3
  store i32 0, ptr %m_capacity.i.i.i, align 8, !tbaa !88
  %m_data.i.i.i5 = getelementptr inbounds %class.HullResult, ptr %this, i64 0, i32 2, i32 5
  %2 = load ptr, ptr %m_data.i.i.i5, align 8, !tbaa !80
  %tobool.not.i.i.i6 = icmp eq ptr %2, null
  %m_ownsMemory.i.i.i7 = getelementptr inbounds %class.HullResult, ptr %this, i64 0, i32 2, i32 6
  %3 = load i8, ptr %m_ownsMemory.i.i.i7, align 8, !range !69
  %tobool2.not.i.i.i8 = icmp eq i8 %3, 0
  %or.cond.i.i9 = select i1 %tobool.not.i.i.i6, i1 true, i1 %tobool2.not.i.i.i8
  br i1 %or.cond.i.i9, label %_ZN20btAlignedObjectArrayI9btVector3ED2Ev.exit, label %if.then3.i.i.i10

if.then3.i.i.i10:                                 ; preds = %_ZN20btAlignedObjectArrayIjED2Ev.exit
  tail call void @_Z21btAlignedFreeInternalPv(ptr noundef nonnull %2)
  br label %_ZN20btAlignedObjectArrayI9btVector3ED2Ev.exit

_ZN20btAlignedObjectArrayI9btVector3ED2Ev.exit:   ; preds = %_ZN20btAlignedObjectArrayIjED2Ev.exit, %if.then3.i.i.i10
  store i8 1, ptr %m_ownsMemory.i.i.i7, align 8, !tbaa !79
  store ptr null, ptr %m_data.i.i.i5, align 8, !tbaa !80
  %m_size.i4.i.i11 = getelementptr inbounds %class.HullResult, ptr %this, i64 0, i32 2, i32 2
  store i32 0, ptr %m_size.i4.i.i11, align 4, !tbaa !81
  %m_capacity.i.i.i12 = getelementptr inbounds %class.HullResult, ptr %this, i64 0, i32 2, i32 3
  store i32 0, ptr %m_capacity.i.i.i12, align 8, !tbaa !82
  ret void

lpad:                                             ; preds = %if.then3.i.i.i
  %4 = landingpad { ptr, i32 }
          cleanup
  %m_OutputVertices2 = getelementptr inbounds %class.HullResult, ptr %this, i64 0, i32 2
  invoke void @_ZN20btAlignedObjectArrayI9btVector3ED2Ev(ptr noundef nonnull align 8 dereferenceable(25) %m_OutputVertices2)
          to label %eh.resume unwind label %terminate.lpad

eh.resume:                                        ; preds = %lpad
  resume { ptr, i32 } %4

terminate.lpad:                                   ; preds = %lpad
  %5 = landingpad { ptr, i32 }
          catch ptr null
  %6 = extractvalue { ptr, i32 } %5, 0
  tail call void @__clang_call_terminate(ptr %6) #19
  unreachable
}

; Function Attrs: uwtable
define linkonce_odr dso_local void @_ZN20btAlignedObjectArrayI9btVector3ED2Ev(ptr noundef nonnull align 8 dereferenceable(25) %this) unnamed_addr #8 comdat align 2 {
entry:
  %m_data.i.i = getelementptr inbounds %class.btAlignedObjectArray.8, ptr %this, i64 0, i32 5
  %0 = load ptr, ptr %m_data.i.i, align 8, !tbaa !80
  %tobool.not.i.i = icmp eq ptr %0, null
  %m_ownsMemory.i.i = getelementptr inbounds %class.btAlignedObjectArray.8, ptr %this, i64 0, i32 6
  %1 = load i8, ptr %m_ownsMemory.i.i, align 8, !range !69
  %tobool2.not.i.i = icmp eq i8 %1, 0
  %or.cond.i = select i1 %tobool.not.i.i, i1 true, i1 %tobool2.not.i.i
  br i1 %or.cond.i, label %_ZN20btAlignedObjectArrayI9btVector3E5clearEv.exit, label %if.then3.i.i

if.then3.i.i:                                     ; preds = %entry
  tail call void @_Z21btAlignedFreeInternalPv(ptr noundef nonnull %0)
  br label %_ZN20btAlignedObjectArrayI9btVector3E5clearEv.exit

_ZN20btAlignedObjectArrayI9btVector3E5clearEv.exit: ; preds = %entry, %if.then3.i.i
  store i8 1, ptr %m_ownsMemory.i.i, align 8, !tbaa !79
  store ptr null, ptr %m_data.i.i, align 8, !tbaa !80
  %m_size.i4.i = getelementptr inbounds %class.btAlignedObjectArray.8, ptr %this, i64 0, i32 2
  store i32 0, ptr %m_size.i4.i, align 4, !tbaa !81
  %m_capacity.i.i = getelementptr inbounds %class.btAlignedObjectArray.8, ptr %this, i64 0, i32 3
  store i32 0, ptr %m_capacity.i.i, align 8, !tbaa !82
  ret void
}

; Function Attrs: uwtable
define dso_local void @_ZN17btSoftBodyHelpers12DrawNodeTreeEP10btSoftBodyP12btIDebugDrawii(ptr nocapture noundef readonly %psb, ptr noundef %idraw, i32 noundef %mindepth, i32 noundef %maxdepth) local_unnamed_addr #8 align 2 {
entry:
  %ref.tmp = alloca %class.btVector3, align 16
  %ref.tmp4 = alloca %class.btVector3, align 16
  %m_ndbvt = getelementptr inbounds %class.btSoftBody, ptr %psb, i64 0, i32 21
  %0 = load ptr, ptr %m_ndbvt, align 8, !tbaa !119
  call void @llvm.lifetime.start.p0(i64 16, ptr nonnull %ref.tmp) #18
  store <4 x float> <float 1.000000e+00, float 0.000000e+00, float 1.000000e+00, float 0.000000e+00>, ptr %ref.tmp, align 16, !tbaa !5
  call void @llvm.lifetime.start.p0(i64 16, ptr nonnull %ref.tmp4) #18
  store <4 x float> <float 1.000000e+00, float 1.000000e+00, float 1.000000e+00, float 0.000000e+00>, ptr %ref.tmp4, align 16, !tbaa !5
  call fastcc void @_ZL8drawTreeP12btIDebugDrawPK10btDbvtNodeiRK9btVector3S6_ii(ptr noundef %idraw, ptr noundef %0, i32 noundef 0, ptr noundef nonnull align 4 dereferenceable(16) %ref.tmp, ptr noundef nonnull align 4 dereferenceable(16) %ref.tmp4, i32 noundef %mindepth, i32 noundef %maxdepth)
  call void @llvm.lifetime.end.p0(i64 16, ptr nonnull %ref.tmp4) #18
  call void @llvm.lifetime.end.p0(i64 16, ptr nonnull %ref.tmp) #18
  ret void
}

; Function Attrs: uwtable
define dso_local void @_ZN17btSoftBodyHelpers12DrawFaceTreeEP10btSoftBodyP12btIDebugDrawii(ptr nocapture noundef readonly %psb, ptr noundef %idraw, i32 noundef %mindepth, i32 noundef %maxdepth) local_unnamed_addr #8 align 2 {
entry:
  %ref.tmp = alloca %class.btVector3, align 16
  %ref.tmp4 = alloca %class.btVector3, align 16
  %m_fdbvt = getelementptr inbounds %class.btSoftBody, ptr %psb, i64 0, i32 22
  %0 = load ptr, ptr %m_fdbvt, align 8, !tbaa !143
  call void @llvm.lifetime.start.p0(i64 16, ptr nonnull %ref.tmp) #18
  store <4 x float> <float 0.000000e+00, float 1.000000e+00, float 0.000000e+00, float 0.000000e+00>, ptr %ref.tmp, align 16, !tbaa !5
  call void @llvm.lifetime.start.p0(i64 16, ptr nonnull %ref.tmp4) #18
  store <4 x float> <float 1.000000e+00, float 0.000000e+00, float 0.000000e+00, float 0.000000e+00>, ptr %ref.tmp4, align 16, !tbaa !5
  call fastcc void @_ZL8drawTreeP12btIDebugDrawPK10btDbvtNodeiRK9btVector3S6_ii(ptr noundef %idraw, ptr noundef %0, i32 noundef 0, ptr noundef nonnull align 4 dereferenceable(16) %ref.tmp, ptr noundef nonnull align 4 dereferenceable(16) %ref.tmp4, i32 noundef %mindepth, i32 noundef %maxdepth)
  call void @llvm.lifetime.end.p0(i64 16, ptr nonnull %ref.tmp4) #18
  call void @llvm.lifetime.end.p0(i64 16, ptr nonnull %ref.tmp) #18
  ret void
}

; Function Attrs: uwtable
define dso_local void @_ZN17btSoftBodyHelpers15DrawClusterTreeEP10btSoftBodyP12btIDebugDrawii(ptr nocapture noundef readonly %psb, ptr noundef %idraw, i32 noundef %mindepth, i32 noundef %maxdepth) local_unnamed_addr #8 align 2 {
entry:
  %ref.tmp = alloca %class.btVector3, align 16
  %ref.tmp4 = alloca %class.btVector3, align 16
  %m_cdbvt = getelementptr inbounds %class.btSoftBody, ptr %psb, i64 0, i32 23
  %0 = load ptr, ptr %m_cdbvt, align 8, !tbaa !144
  call void @llvm.lifetime.start.p0(i64 16, ptr nonnull %ref.tmp) #18
  store <4 x float> <float 0.000000e+00, float 1.000000e+00, float 1.000000e+00, float 0.000000e+00>, ptr %ref.tmp, align 16, !tbaa !5
  call void @llvm.lifetime.start.p0(i64 16, ptr nonnull %ref.tmp4) #18
  store <4 x float> <float 1.000000e+00, float 0.000000e+00, float 0.000000e+00, float 0.000000e+00>, ptr %ref.tmp4, align 16, !tbaa !5
  call fastcc void @_ZL8drawTreeP12btIDebugDrawPK10btDbvtNodeiRK9btVector3S6_ii(ptr noundef %idraw, ptr noundef %0, i32 noundef 0, ptr noundef nonnull align 4 dereferenceable(16) %ref.tmp, ptr noundef nonnull align 4 dereferenceable(16) %ref.tmp4, i32 noundef %mindepth, i32 noundef %maxdepth)
  call void @llvm.lifetime.end.p0(i64 16, ptr nonnull %ref.tmp4) #18
  call void @llvm.lifetime.end.p0(i64 16, ptr nonnull %ref.tmp) #18
  ret void
}

; Function Attrs: uwtable
define dso_local void @_ZN17btSoftBodyHelpers9DrawInfosEP10btSoftBodyP12btIDebugDrawbbb(ptr nocapture noundef readonly %psb, ptr noundef %idraw, i1 noundef zeroext %masses, i1 noundef zeroext %areas, i1 noundef zeroext %0) local_unnamed_addr #8 align 2 {
entry:
  %text = alloca [2048 x i8], align 16
  %buff = alloca [1024 x i8], align 16
  %m_size.i = getelementptr inbounds %class.btSoftBody, ptr %psb, i64 0, i32 9, i32 2
  %1 = load i32, ptr %m_size.i, align 4, !tbaa !9
  %cmp27 = icmp sgt i32 %1, 0
  br i1 %cmp27, label %for.body.lr.ph, label %for.cond.cleanup

for.body.lr.ph:                                   ; preds = %entry
  %m_data.i = getelementptr inbounds %class.btSoftBody, ptr %psb, i64 0, i32 9, i32 5
  br i1 %masses, label %for.body.lr.ph.split.us, label %for.body.lr.ph.split

for.body.lr.ph.split.us:                          ; preds = %for.body.lr.ph
  br i1 %areas, label %for.body.us.us, label %for.body.us

for.body.us.us:                                   ; preds = %for.body.lr.ph.split.us, %if.end21.us.us
  %indvars.iv53 = phi i64 [ %indvars.iv.next54, %if.end21.us.us ], [ 0, %for.body.lr.ph.split.us ]
  %2 = load ptr, ptr %m_data.i, align 8, !tbaa !15
  call void @llvm.lifetime.start.p0(i64 2048, ptr nonnull %text) #18
  call void @llvm.memset.p0.i64(ptr noundef nonnull align 16 dereferenceable(2048) %text, i8 0, i64 2048, i1 false)
  call void @llvm.lifetime.start.p0(i64 1024, ptr nonnull %buff) #18
  %m_im.us.us = getelementptr inbounds %"struct.btSoftBody::Node", ptr %2, i64 %indvars.iv53, i32 6
  %3 = load float, ptr %m_im.us.us, align 8, !tbaa !46
  %div.us.us = fdiv float 1.000000e+00, %3
  %conv.us.us = fpext float %div.us.us to double
  %call5.us.us = call i32 (ptr, ptr, ...) @sprintf(ptr noundef nonnull dereferenceable(1) %buff, ptr noundef nonnull dereferenceable(1) @.str, double noundef %conv.us.us) #18
  %call8.us.us = call ptr @strcat(ptr noundef nonnull dereferenceable(1) %text, ptr noundef nonnull dereferenceable(1) %buff) #18
  %m_area.us.us = getelementptr inbounds %"struct.btSoftBody::Node", ptr %2, i64 %indvars.iv53, i32 7
  %4 = load float, ptr %m_area.us.us, align 4, !tbaa !149
  %conv12.us.us = fpext float %4 to double
  %call13.us.us = call i32 (ptr, ptr, ...) @sprintf(ptr noundef nonnull dereferenceable(1) %buff, ptr noundef nonnull dereferenceable(1) @.str.1, double noundef %conv12.us.us) #18
  %call16.us.us = call ptr @strcat(ptr noundef nonnull dereferenceable(1) %text, ptr noundef nonnull dereferenceable(1) %buff) #18
  %5 = load i8, ptr %text, align 16, !tbaa !53
  %tobool18.not.us.us = icmp eq i8 %5, 0
  br i1 %tobool18.not.us.us, label %if.end21.us.us, label %if.then19.us.us

if.then19.us.us:                                  ; preds = %for.body.us.us
  %m_x.us.us = getelementptr inbounds %"struct.btSoftBody::Node", ptr %2, i64 %indvars.iv53, i32 1
  %vtable.us.us = load ptr, ptr %idraw, align 8, !tbaa !21
  %vfn.us.us = getelementptr inbounds ptr, ptr %vtable.us.us, i64 10
  %6 = load ptr, ptr %vfn.us.us, align 8
  call void %6(ptr noundef nonnull align 8 dereferenceable(8) %idraw, ptr noundef nonnull align 4 dereferenceable(16) %m_x.us.us, ptr noundef nonnull %text)
  br label %if.end21.us.us

if.end21.us.us:                                   ; preds = %if.then19.us.us, %for.body.us.us
  call void @llvm.lifetime.end.p0(i64 1024, ptr nonnull %buff) #18
  call void @llvm.lifetime.end.p0(i64 2048, ptr nonnull %text) #18
  %indvars.iv.next54 = add nuw nsw i64 %indvars.iv53, 1
  %7 = load i32, ptr %m_size.i, align 4, !tbaa !9
  %8 = sext i32 %7 to i64
  %cmp.us.us = icmp slt i64 %indvars.iv.next54, %8
  br i1 %cmp.us.us, label %for.body.us.us, label %for.cond.cleanup

for.body.us:                                      ; preds = %for.body.lr.ph.split.us, %if.end21.us
  %indvars.iv50 = phi i64 [ %indvars.iv.next51, %if.end21.us ], [ 0, %for.body.lr.ph.split.us ]
  %9 = load ptr, ptr %m_data.i, align 8, !tbaa !15
  call void @llvm.lifetime.start.p0(i64 2048, ptr nonnull %text) #18
  call void @llvm.memset.p0.i64(ptr noundef nonnull align 16 dereferenceable(2048) %text, i8 0, i64 2048, i1 false)
  call void @llvm.lifetime.start.p0(i64 1024, ptr nonnull %buff) #18
  %m_im.us = getelementptr inbounds %"struct.btSoftBody::Node", ptr %9, i64 %indvars.iv50, i32 6
  %10 = load float, ptr %m_im.us, align 8, !tbaa !46
  %div.us = fdiv float 1.000000e+00, %10
  %conv.us = fpext float %div.us to double
  %call5.us = call i32 (ptr, ptr, ...) @sprintf(ptr noundef nonnull dereferenceable(1) %buff, ptr noundef nonnull dereferenceable(1) @.str, double noundef %conv.us) #18
  %call8.us = call ptr @strcat(ptr noundef nonnull dereferenceable(1) %text, ptr noundef nonnull dereferenceable(1) %buff) #18
  %11 = load i8, ptr %text, align 16, !tbaa !53
  %tobool18.not.us = icmp eq i8 %11, 0
  br i1 %tobool18.not.us, label %if.end21.us, label %if.then19.us

if.then19.us:                                     ; preds = %for.body.us
  %m_x.us = getelementptr inbounds %"struct.btSoftBody::Node", ptr %9, i64 %indvars.iv50, i32 1
  %vtable.us = load ptr, ptr %idraw, align 8, !tbaa !21
  %vfn.us = getelementptr inbounds ptr, ptr %vtable.us, i64 10
  %12 = load ptr, ptr %vfn.us, align 8
  call void %12(ptr noundef nonnull align 8 dereferenceable(8) %idraw, ptr noundef nonnull align 4 dereferenceable(16) %m_x.us, ptr noundef nonnull %text)
  br label %if.end21.us

if.end21.us:                                      ; preds = %if.then19.us, %for.body.us
  call void @llvm.lifetime.end.p0(i64 1024, ptr nonnull %buff) #18
  call void @llvm.lifetime.end.p0(i64 2048, ptr nonnull %text) #18
  %indvars.iv.next51 = add nuw nsw i64 %indvars.iv50, 1
  %13 = load i32, ptr %m_size.i, align 4, !tbaa !9
  %14 = sext i32 %13 to i64
  %cmp.us = icmp slt i64 %indvars.iv.next51, %14
  br i1 %cmp.us, label %for.body.us, label %for.cond.cleanup

for.body.lr.ph.split:                             ; preds = %for.body.lr.ph
  br i1 %areas, label %for.body.us29, label %for.cond.cleanup

for.body.us29:                                    ; preds = %for.body.lr.ph.split, %if.end21.us43
  %indvars.iv = phi i64 [ %indvars.iv.next, %if.end21.us43 ], [ 0, %for.body.lr.ph.split ]
  %15 = load ptr, ptr %m_data.i, align 8, !tbaa !15
  call void @llvm.lifetime.start.p0(i64 2048, ptr nonnull %text) #18
  call void @llvm.memset.p0.i64(ptr noundef nonnull align 16 dereferenceable(2048) %text, i8 0, i64 2048, i1 false)
  call void @llvm.lifetime.start.p0(i64 1024, ptr nonnull %buff) #18
  %m_area.us33 = getelementptr inbounds %"struct.btSoftBody::Node", ptr %15, i64 %indvars.iv, i32 7
  %16 = load float, ptr %m_area.us33, align 4, !tbaa !149
  %conv12.us34 = fpext float %16 to double
  %call13.us35 = call i32 (ptr, ptr, ...) @sprintf(ptr noundef nonnull dereferenceable(1) %buff, ptr noundef nonnull dereferenceable(1) @.str.1, double noundef %conv12.us34) #18
  %call16.us36 = call ptr @strcat(ptr noundef nonnull dereferenceable(1) %text, ptr noundef nonnull dereferenceable(1) %buff) #18
  %17 = load i8, ptr %text, align 16, !tbaa !53
  %tobool18.not.us38 = icmp eq i8 %17, 0
  br i1 %tobool18.not.us38, label %if.end21.us43, label %if.then19.us39

if.then19.us39:                                   ; preds = %for.body.us29
  %m_x.us40 = getelementptr inbounds %"struct.btSoftBody::Node", ptr %15, i64 %indvars.iv, i32 1
  %vtable.us41 = load ptr, ptr %idraw, align 8, !tbaa !21
  %vfn.us42 = getelementptr inbounds ptr, ptr %vtable.us41, i64 10
  %18 = load ptr, ptr %vfn.us42, align 8
  call void %18(ptr noundef nonnull align 8 dereferenceable(8) %idraw, ptr noundef nonnull align 4 dereferenceable(16) %m_x.us40, ptr noundef nonnull %text)
  br label %if.end21.us43

if.end21.us43:                                    ; preds = %if.then19.us39, %for.body.us29
  call void @llvm.lifetime.end.p0(i64 1024, ptr nonnull %buff) #18
  call void @llvm.lifetime.end.p0(i64 2048, ptr nonnull %text) #18
  %indvars.iv.next = add nuw nsw i64 %indvars.iv, 1
  %19 = load i32, ptr %m_size.i, align 4, !tbaa !9
  %20 = sext i32 %19 to i64
  %cmp.us45 = icmp slt i64 %indvars.iv.next, %20
  br i1 %cmp.us45, label %for.body.us29, label %for.cond.cleanup

for.cond.cleanup:                                 ; preds = %if.end21.us43, %if.end21.us, %if.end21.us.us, %for.body.lr.ph.split, %entry
  ret void
}

; Function Attrs: mustprogress nocallback nofree nounwind willreturn memory(argmem: write)
declare void @llvm.memset.p0.i64(ptr nocapture writeonly, i8, i64, i1 immarg) #9

; Function Attrs: nofree nounwind
declare noundef i32 @sprintf(ptr noalias nocapture noundef writeonly, ptr nocapture noundef readonly, ...) local_unnamed_addr #10

; Function Attrs: mustprogress nofree nounwind willreturn memory(argmem: readwrite)
declare ptr @strcat(ptr noalias noundef returned, ptr noalias nocapture noundef readonly) local_unnamed_addr #11

; Function Attrs: uwtable
define internal fastcc void @_ZL8drawTreeP12btIDebugDrawPK10btDbvtNodeiRK9btVector3S6_ii(ptr noundef %idraw, ptr noundef readonly %node, i32 noundef %depth, ptr noundef nonnull align 4 dereferenceable(16) %ncolor, ptr noundef nonnull align 4 dereferenceable(16) %lcolor, i32 noundef %mindepth, i32 noundef %maxdepth) unnamed_addr #0 {
entry:
  %c.i = alloca [8 x %class.btVector3], align 16
  %tobool.not = icmp eq ptr %node, null
  br i1 %tobool.not, label %if.end33, label %if.then

if.then:                                          ; preds = %entry
  %arrayidx.i.i = getelementptr inbounds %struct.btDbvtNode, ptr %node, i64 0, i32 2, i32 0, i64 1
  %0 = load ptr, ptr %arrayidx.i.i, align 8, !tbaa !53
  %cmp.i.i.not = icmp eq ptr %0, null
  br i1 %cmp.i.i.not, label %if.end, label %land.lhs.true

land.lhs.true:                                    ; preds = %if.then
  %cmp = icmp slt i32 %depth, %maxdepth
  %cmp1 = icmp slt i32 %maxdepth, 0
  %or.cond = or i1 %cmp, %cmp1
  br i1 %or.cond, label %if.then2, label %if.end

if.then2:                                         ; preds = %land.lhs.true
  %1 = getelementptr inbounds %struct.btDbvtNode, ptr %node, i64 0, i32 2
  %2 = load ptr, ptr %1, align 8, !tbaa !53
  %add = add nsw i32 %depth, 1
  tail call fastcc void @_ZL8drawTreeP12btIDebugDrawPK10btDbvtNodeiRK9btVector3S6_ii(ptr noundef %idraw, ptr noundef %2, i32 noundef %add, ptr noundef nonnull align 4 dereferenceable(16) %ncolor, ptr noundef nonnull align 4 dereferenceable(16) %lcolor, i32 noundef %mindepth, i32 noundef %maxdepth)
  %3 = load ptr, ptr %arrayidx.i.i, align 8, !tbaa !53
