; ModuleID = '/usr/local/google/home/aeubanks/repos/test-suite/MicroBenchmarks/libs/benchmark/googletest/googlemock/src/gmock-all.cc'
source_filename = "/usr/local/google/home/aeubanks/repos/test-suite/MicroBenchmarks/libs/benchmark/googletest/googlemock/src/gmock-all.cc"
target datalayout = "e-m:e-p270:32:32-p271:32:32-p272:64:64-i64:64-f80:128-n8:16:32:64-S128"
target triple = "x86_64-unknown-linux-gnu"

%"class.std::ios_base::Init" = type { i8 }
%"class.std::__cxx11::basic_string" = type { %"struct.std::__cxx11::basic_string<char>::_Alloc_hider", i64, %union.anon }
%"struct.std::__cxx11::basic_string<char>::_Alloc_hider" = type { ptr }
%union.anon = type { i64, [8 x i8] }
%"class.testing::internal::MutexBase" = type { %union.pthread_mutex_t, i8, i64 }
%union.pthread_mutex_t = type { %struct.__pthread_mutex_s }
%struct.__pthread_mutex_s = type { i32, i32, i32, i32, i32, i16, i16, %struct.__pthread_internal_list }
%struct.__pthread_internal_list = type { ptr, ptr }
%"class.std::basic_ostream" = type { ptr, %"class.std::basic_ios" }
%"class.std::basic_ios" = type { %"class.std::ios_base", ptr, i8, i8, ptr, ptr, ptr, ptr }
%"class.std::ios_base" = type { ptr, i64, i64, i32, i32, i32, ptr, %"struct.std::ios_base::_Words", [8 x %"struct.std::ios_base::_Words"], i32, ptr, %"class.std::locale" }
%"struct.std::ios_base::_Words" = type { ptr, i64 }
%"class.std::locale" = type { ptr }
%"struct.std::array" = type { [256 x i8] }
%"class.testing::internal::ThreadLocal" = type { i32, %"class.std::unique_ptr.48" }
%"class.std::unique_ptr.48" = type { %"struct.std::__uniq_ptr_data.49" }
%"struct.std::__uniq_ptr_data.49" = type { %"class.std::__uniq_ptr_impl.50" }
%"class.std::__uniq_ptr_impl.50" = type { %"class.std::tuple.51" }
%"class.std::tuple.51" = type { %"struct.std::_Tuple_impl.52" }
%"struct.std::_Tuple_impl.52" = type { %"struct.std::_Head_base.55" }
%"struct.std::_Head_base.55" = type { ptr }
%"class.testing::(anonymous namespace)::MockObjectRegistry" = type { %"class.std::map" }
%"class.std::map" = type { %"class.std::_Rb_tree.65" }
%"class.std::_Rb_tree.65" = type { %"struct.std::_Rb_tree<const void *, std::pair<const void *const, testing::(anonymous namespace)::MockObjectState>, std::_Select1st<std::pair<const void *const, testing::(anonymous namespace)::MockObjectState>>, std::less<const void *>>::_Rb_tree_impl" }
%"struct.std::_Rb_tree<const void *, std::pair<const void *const, testing::(anonymous namespace)::MockObjectState>, std::_Select1st<std::pair<const void *const, testing::(anonymous namespace)::MockObjectState>>, std::less<const void *>>::_Rb_tree_impl" = type { %"struct.std::_Rb_tree_key_compare.69", %"struct.std::_Rb_tree_header" }
%"struct.std::_Rb_tree_key_compare.69" = type { %"struct.std::less" }
%"struct.std::less" = type { i8 }
%"struct.std::_Rb_tree_header" = type { %"struct.std::_Rb_tree_node_base", i64 }
%"struct.std::_Rb_tree_node_base" = type { i32, ptr, ptr, ptr }
%"class.std::map.70" = type { %"class.std::_Rb_tree.71" }
%"class.std::_Rb_tree.71" = type { %"struct.std::_Rb_tree<const void *, std::pair<const void *const, testing::internal::CallReaction>, std::_Select1st<std::pair<const void *const, testing::internal::CallReaction>>, std::less<const void *>>::_Rb_tree_impl" }
%"struct.std::_Rb_tree<const void *, std::pair<const void *const, testing::internal::CallReaction>, std::_Select1st<std::pair<const void *const, testing::internal::CallReaction>>, std::less<const void *>>::_Rb_tree_impl" = type { %"struct.std::_Rb_tree_key_compare.69", %"struct.std::_Rb_tree_header" }
%"class.std::__cxx11::basic_stringstream" = type { %"class.std::basic_iostream.base", %"class.std::__cxx11::basic_stringbuf", %"class.std::basic_ios" }
%"class.std::basic_iostream.base" = type { %"class.std::basic_istream.base", %"class.std::basic_ostream.base" }
%"class.std::basic_istream.base" = type { ptr, i64 }
%"class.std::basic_ostream.base" = type { ptr }
%"class.std::__cxx11::basic_stringbuf" = type { %"class.std::basic_streambuf", i32, %"class.std::__cxx11::basic_string" }
%"class.std::basic_streambuf" = type { ptr, ptr, ptr, ptr, ptr, ptr, ptr, %"class.std::locale" }
%"class.std::basic_istream" = type { ptr, i64, %"class.std::basic_ios" }
%"class.testing::Cardinality" = type { %"class.std::shared_ptr" }
%"class.std::shared_ptr" = type { %"class.std::__shared_ptr" }
%"class.std::__shared_ptr" = type { ptr, %"class.std::__shared_count" }
%"class.std::__shared_count" = type { ptr }
%"class.testing::(anonymous namespace)::BetweenCardinalityImpl" = type { %"class.testing::CardinalityInterface", i32, i32 }
%"class.testing::CardinalityInterface" = type { ptr }
%"class.std::_Sp_counted_base" = type { ptr, i32, i32 }
%"class.std::_Sp_counted_ptr" = type { %"class.std::_Sp_counted_base", ptr }
%"class.testing::internal::GTestLog" = type { i32 }
%class.anon = type { ptr, ptr }
%"struct.std::_Vector_base<const char *, std::allocator<const char *>>::_Vector_impl_data" = type { ptr, ptr, ptr }
%"struct.std::_Vector_base<std::__cxx11::basic_string<char>, std::allocator<std::__cxx11::basic_string<char>>>::_Vector_impl_data" = type { ptr, ptr, ptr }
%"class.std::vector.10" = type { %"struct.std::_Vector_base.11" }
%"struct.std::_Vector_base.11" = type { %"struct.std::_Vector_base<std::pair<unsigned long, unsigned long>, std::allocator<std::pair<unsigned long, unsigned long>>>::_Vector_impl" }
%"struct.std::_Vector_base<std::pair<unsigned long, unsigned long>, std::allocator<std::pair<unsigned long, unsigned long>>>::_Vector_impl" = type { %"struct.std::_Vector_base<std::pair<unsigned long, unsigned long>, std::allocator<std::pair<unsigned long, unsigned long>>>::_Vector_impl_data" }
%"struct.std::_Vector_base<std::pair<unsigned long, unsigned long>, std::allocator<std::pair<unsigned long, unsigned long>>>::_Vector_impl_data" = type { ptr, ptr, ptr }
%"class.testing::internal::MaxBipartiteMatchState" = type { ptr, %"class.std::vector.15", %"class.std::vector.15" }
%"class.std::vector.15" = type { %"struct.std::_Vector_base.16" }
%"struct.std::_Vector_base.16" = type { %"struct.std::_Vector_base<unsigned long, std::allocator<unsigned long>>::_Vector_impl" }
%"struct.std::_Vector_base<unsigned long, std::allocator<unsigned long>>::_Vector_impl" = type { %"struct.std::_Vector_base<unsigned long, std::allocator<unsigned long>>::_Vector_impl_data" }
%"struct.std::_Vector_base<unsigned long, std::allocator<unsigned long>>::_Vector_impl_data" = type { ptr, ptr, ptr }
%"class.testing::internal::MatchMatrix" = type { i64, i64, %"class.std::vector.8" }
%"class.std::vector.8" = type { %"struct.std::_Vector_base.9" }
%"struct.std::_Vector_base.9" = type { %"struct.std::_Vector_base<char, std::allocator<char>>::_Vector_impl" }
%"struct.std::_Vector_base<char, std::allocator<char>>::_Vector_impl" = type { %"struct.std::_Vector_base<char, std::allocator<char>>::_Vector_impl_data" }
%"struct.std::_Vector_base<char, std::allocator<char>>::_Vector_impl_data" = type { ptr, ptr, ptr }
%"struct.std::pair" = type { i64, i64 }
%"class.testing::Message" = type { %"class.std::unique_ptr" }
%"class.std::unique_ptr" = type { %"struct.std::__uniq_ptr_data" }
%"struct.std::__uniq_ptr_data" = type { %"class.std::__uniq_ptr_impl" }
%"class.std::__uniq_ptr_impl" = type { %"class.std::tuple" }
%"class.std::tuple" = type { %"struct.std::_Tuple_impl" }
%"struct.std::_Tuple_impl" = type { %"struct.std::_Head_base.26" }
%"struct.std::_Head_base.26" = type { ptr }
%"class.testing::internal::UnorderedElementsAreMatcherImplBase" = type { i32, %"class.std::vector.20" }
%"class.std::vector.20" = type { %"struct.std::_Vector_base.21" }
%"struct.std::_Vector_base.21" = type { %"struct.std::_Vector_base<const testing::MatcherDescriberInterface *, std::allocator<const testing::MatcherDescriberInterface *>>::_Vector_impl" }
%"struct.std::_Vector_base<const testing::MatcherDescriberInterface *, std::allocator<const testing::MatcherDescriberInterface *>>::_Vector_impl" = type { %"struct.std::_Vector_base<const testing::MatcherDescriberInterface *, std::allocator<const testing::MatcherDescriberInterface *>>::_Vector_impl_data" }
%"struct.std::_Vector_base<const testing::MatcherDescriberInterface *, std::allocator<const testing::MatcherDescriberInterface *>>::_Vector_impl_data" = type { ptr, ptr, ptr }
%"class.testing::MatchResultListener" = type { ptr, ptr }
%"class.std::__cxx11::basic_ostringstream" = type { %"class.std::basic_ostream.base", %"class.std::__cxx11::basic_stringbuf", %"class.std::basic_ios" }
%"class.std::ctype" = type <{ %"class.std::locale::facet.base", [4 x i8], ptr, i8, [7 x i8], ptr, ptr, ptr, i8, [256 x i8], [256 x i8], i8, [6 x i8] }>
%"class.std::locale::facet.base" = type <{ ptr, i32 }>
%"class.testing::internal::ExpectationBase" = type { ptr, ptr, i32, %"class.std::__cxx11::basic_string", i8, %"class.testing::Cardinality", %"class.testing::ExpectationSet", i32, i8, %"class.std::vector.30", i8, i8, i8, i32, i8, %"class.testing::internal::Mutex" }
%"class.testing::ExpectationSet" = type { %"class.std::set" }
%"class.std::set" = type { %"class.std::_Rb_tree" }
%"class.std::_Rb_tree" = type { %"struct.std::_Rb_tree<testing::Expectation, testing::Expectation, std::_Identity<testing::Expectation>, testing::Expectation::Less>::_Rb_tree_impl" }
%"struct.std::_Rb_tree<testing::Expectation, testing::Expectation, std::_Identity<testing::Expectation>, testing::Expectation::Less>::_Rb_tree_impl" = type { %"struct.std::_Rb_tree_key_compare", %"struct.std::_Rb_tree_header" }
%"struct.std::_Rb_tree_key_compare" = type { %"class.testing::Expectation::Less" }
%"class.testing::Expectation::Less" = type { i8 }
%"class.std::vector.30" = type { %"struct.std::_Vector_base.31" }
%"struct.std::_Vector_base.31" = type { %"struct.std::_Vector_base<const void *, std::allocator<const void *>>::_Vector_impl" }
%"struct.std::_Vector_base<const void *, std::allocator<const void *>>::_Vector_impl" = type { %"struct.std::_Vector_base<const void *, std::allocator<const void *>>::_Vector_impl_data" }
%"struct.std::_Vector_base<const void *, std::allocator<const void *>>::_Vector_impl_data" = type { ptr, ptr, ptr }
%"class.testing::internal::Mutex" = type { %"class.testing::internal::MutexBase" }
%"struct.std::_Rb_tree_node" = type { %"struct.std::_Rb_tree_node_base", %"struct.__gnu_cxx::__aligned_membuf" }
%"struct.__gnu_cxx::__aligned_membuf" = type { [16 x i8] }
%"class.testing::internal::UntypedFunctionMockerBase" = type { ptr, ptr, ptr, %"class.std::vector.30", %"class.std::vector.56" }
%"class.std::vector.56" = type { %"struct.std::_Vector_base.57" }
%"struct.std::_Vector_base.57" = type { %"struct.std::_Vector_base<std::shared_ptr<testing::internal::ExpectationBase>, std::allocator<std::shared_ptr<testing::internal::ExpectationBase>>>::_Vector_impl" }
%"struct.std::_Vector_base<std::shared_ptr<testing::internal::ExpectationBase>, std::allocator<std::shared_ptr<testing::internal::ExpectationBase>>>::_Vector_impl" = type { %"struct.std::_Vector_base<std::shared_ptr<testing::internal::ExpectationBase>, std::allocator<std::shared_ptr<testing::internal::ExpectationBase>>>::_Vector_impl_data" }
%"struct.std::_Vector_base<std::shared_ptr<testing::internal::ExpectationBase>, std::allocator<std::shared_ptr<testing::internal::ExpectationBase>>>::_Vector_impl_data" = type { ptr, ptr, ptr }
%"class.std::__shared_ptr.41" = type { ptr, %"class.std::__shared_count" }
%"class.std::shared_ptr.40" = type { %"class.std::__shared_ptr.41" }
%"struct.testing::(anonymous namespace)::MockObjectState" = type { ptr, i32, %"class.std::__cxx11::basic_string", %"class.std::__cxx11::basic_string", i8, %"class.std::set.75" }
%"class.std::set.75" = type { %"class.std::_Rb_tree.76" }
%"class.std::_Rb_tree.76" = type { %"struct.std::_Rb_tree<testing::internal::UntypedFunctionMockerBase *, testing::internal::UntypedFunctionMockerBase *, std::_Identity<testing::internal::UntypedFunctionMockerBase *>, std::less<testing::internal::UntypedFunctionMockerBase *>>::_Rb_tree_impl" }
%"struct.std::_Rb_tree<testing::internal::UntypedFunctionMockerBase *, testing::internal::UntypedFunctionMockerBase *, std::_Identity<testing::internal::UntypedFunctionMockerBase *>, std::less<testing::internal::UntypedFunctionMockerBase *>>::_Rb_tree_impl" = type { %"struct.std::_Rb_tree_key_compare.80", %"struct.std::_Rb_tree_header" }
%"struct.std::_Rb_tree_key_compare.80" = type { %"struct.std::less.81" }
%"struct.std::less.81" = type { i8 }
%"struct.std::_Rb_tree_node.125" = type { %"struct.std::_Rb_tree_node_base", %"struct.__gnu_cxx::__aligned_membuf.126" }
%"struct.__gnu_cxx::__aligned_membuf.126" = type { [8 x i8] }
%class.anon.62 = type { ptr, ptr, ptr, ptr, ptr, ptr }
%"struct.std::_Rb_tree_node.127" = type { %"struct.std::_Rb_tree_node_base", %"struct.__gnu_cxx::__aligned_membuf.128" }
%"struct.__gnu_cxx::__aligned_membuf.128" = type { [16 x i8] }
%"class.testing::Expectation" = type { %"class.std::shared_ptr.40" }
%"struct.std::_Rb_tree_node.123" = type { %"struct.std::_Rb_tree_node_base", %"struct.__gnu_cxx::__aligned_membuf.124" }
%"struct.__gnu_cxx::__aligned_membuf.124" = type { [144 x i8] }
%"class.testing::TestInfo" = type { %"class.std::__cxx11::basic_string", %"class.std::__cxx11::basic_string", %"class.std::unique_ptr.86", %"class.std::unique_ptr.86", %"struct.testing::internal::CodeLocation", ptr, i8, i8, i8, i8, ptr, %"class.testing::TestResult" }
%"class.std::unique_ptr.86" = type { %"struct.std::__uniq_ptr_data.87" }
%"struct.std::__uniq_ptr_data.87" = type { %"class.std::__uniq_ptr_impl.88" }
%"class.std::__uniq_ptr_impl.88" = type { %"class.std::tuple.89" }
%"class.std::tuple.89" = type { %"struct.std::_Tuple_impl.90" }
%"struct.std::_Tuple_impl.90" = type { %"struct.std::_Head_base.93" }
%"struct.std::_Head_base.93" = type { ptr }
%"struct.testing::internal::CodeLocation" = type <{ %"class.std::__cxx11::basic_string", i32, [4 x i8] }>
%"class.testing::TestResult" = type { %"class.testing::internal::Mutex", %"class.std::vector.94", %"class.std::vector.99", i32, i64, i64 }
%"class.std::vector.94" = type { %"struct.std::_Vector_base.95" }
%"struct.std::_Vector_base.95" = type { %"struct.std::_Vector_base<testing::TestPartResult, std::allocator<testing::TestPartResult>>::_Vector_impl" }
%"struct.std::_Vector_base<testing::TestPartResult, std::allocator<testing::TestPartResult>>::_Vector_impl" = type { %"struct.std::_Vector_base<testing::TestPartResult, std::allocator<testing::TestPartResult>>::_Vector_impl_data" }
%"struct.std::_Vector_base<testing::TestPartResult, std::allocator<testing::TestPartResult>>::_Vector_impl_data" = type { ptr, ptr, ptr }
%"class.std::vector.99" = type { %"struct.std::_Vector_base.100" }
%"struct.std::_Vector_base.100" = type { %"struct.std::_Vector_base<testing::TestProperty, std::allocator<testing::TestProperty>>::_Vector_impl" }
%"struct.std::_Vector_base<testing::TestProperty, std::allocator<testing::TestProperty>>::_Vector_impl" = type { %"struct.std::_Vector_base<testing::TestProperty, std::allocator<testing::TestProperty>>::_Vector_impl_data" }
%"struct.std::_Vector_base<testing::TestProperty, std::allocator<testing::TestProperty>>::_Vector_impl_data" = type { ptr, ptr, ptr }
%"class.std::__shared_ptr.107" = type { ptr, %"class.std::__shared_count" }
%"class.testing::internal::AssertHelper" = type { ptr }
%"class.std::_Sp_counted_ptr.132" = type { %"class.std::_Sp_counted_base", ptr }
%"class.testing::internal::ThreadLocal<testing::Sequence *>::ValueHolder" = type { %"class.testing::internal::ThreadLocalValueHolderBase", ptr }
%"class.testing::internal::ThreadLocalValueHolderBase" = type { ptr }
%"class.std::type_info" = type { ptr, ptr }

$_ZStplIcSt11char_traitsIcESaIcEENSt7__cxx1112basic_stringIT_T0_T1_EEPKS5_RKS8_ = comdat any

$_ZN7testing8internal22MaxBipartiteMatchState7ComputeEv = comdat any

$_ZN7testing8internal22MaxBipartiteMatchStateD2Ev = comdat any

$_ZN7testing8internal35UnorderedElementsAreMatcherImplBase8ElementsEm = comdat any

$_ZN7testing8internal5MutexC2Ev = comdat any

$_ZN7testing14ExpectationSetD2Ev = comdat any

$_ZN7testing11CardinalityD2Ev = comdat any

$_ZN7testing8internal5MutexD2Ev = comdat any

$_ZNK7testing8internal9MutexBase10AssertHeldEv = comdat any

$_ZN7testing8internal11ThreadLocalIPNS_8SequenceEED2Ev = comdat any

$_ZNSt6vectorISt10shared_ptrIN7testing8internal15ExpectationBaseEESaIS4_EED2Ev = comdat any

$__clang_call_terminate = comdat any

$_ZN7testing8internal9MutexBase6UnlockEv = comdat any

$_ZN7testing8internal9MutexBase4LockEv = comdat any

$_ZNSt3mapIPKvN7testing8internal12CallReactionESt4lessIS1_ESaISt4pairIKS1_S4_EEED2Ev = comdat any

$_ZNSt3mapIPKvN7testing8internal12CallReactionESt4lessIS1_ESaISt4pairIKS1_S4_EEEixERS8_ = comdat any

$_ZN7testing8internal18InitGoogleMockImplIcEEvPiPPT_ = comdat any

$_ZN7testing8internal18InitGoogleMockImplIwEEvPiPPT_ = comdat any

$_ZN7testing20CardinalityInterfaceD2Ev = comdat any

$_ZNSt15_Sp_counted_ptrIPKN7testing20CardinalityInterfaceELN9__gnu_cxx12_Lock_policyE2EED0Ev = comdat any

$_ZNSt15_Sp_counted_ptrIPKN7testing20CardinalityInterfaceELN9__gnu_cxx12_Lock_policyE2EE10_M_disposeEv = comdat any

$_ZNSt15_Sp_counted_ptrIPKN7testing20CardinalityInterfaceELN9__gnu_cxx12_Lock_policyE2EE10_M_destroyEv = comdat any

$_ZNSt15_Sp_counted_ptrIPKN7testing20CardinalityInterfaceELN9__gnu_cxx12_Lock_policyE2EE14_M_get_deleterERKSt9type_info = comdat any

$_ZNSt16_Sp_counted_baseILN9__gnu_cxx12_Lock_policyE2EED2Ev = comdat any

$_ZN7testing8internal24FailureReporterInterfaceD2Ev = comdat any

$_ZN7testing8internal25GoogleTestFailureReporterD0Ev = comdat any

$_ZN7testing8internal25GoogleTestFailureReporter13ReportFailureENS0_24FailureReporterInterface11FailureTypeEPKciRKNSt7__cxx1112basic_stringIcSt11char_traitsIcESaIcEEE = comdat any

$_ZN7testing8internal5posix5AbortEv = comdat any

$_ZN7testing8internal22MaxBipartiteMatchState10TryAugmentEmPSt6vectorIcSaIcEE = comdat any

$_ZN7testing7MessageC2ERKS0_ = comdat any

$_ZNSt8_Rb_treeIN7testing11ExpectationES1_St9_IdentityIS1_ENS1_4LessESaIS1_EE8_M_eraseEPSt13_Rb_tree_nodeIS1_E = comdat any

$_ZNSt16_Sp_counted_baseILN9__gnu_cxx12_Lock_policyE2EE24_M_release_last_use_coldEv = comdat any

$_ZNSt8_Rb_treeIN7testing11ExpectationES1_St9_IdentityIS1_ENS1_4LessESaIS1_EE16_M_insert_uniqueIRKS1_EESt4pairISt17_Rb_tree_iteratorIS1_EbEOT_ = comdat any

$_ZNSt8_Rb_treeIPN7testing8internal25UntypedFunctionMockerBaseES3_St9_IdentityIS3_ESt4lessIS3_ESaIS3_EE8_M_eraseEPSt13_Rb_tree_nodeIS3_E = comdat any

$_ZNSt8_Rb_treeIPKvSt4pairIKS1_N7testing8internal12CallReactionEESt10_Select1stIS7_ESt4lessIS1_ESaIS7_EE8_M_eraseEPSt13_Rb_tree_nodeIS7_E = comdat any

$_ZNSt14__shared_countILN9__gnu_cxx12_Lock_policyE2EEC2IPN7testing11ExpectationEEET_ = comdat any

$_ZNSt15_Sp_counted_ptrIPN7testing11ExpectationELN9__gnu_cxx12_Lock_policyE2EED0Ev = comdat any

$_ZNSt15_Sp_counted_ptrIPN7testing11ExpectationELN9__gnu_cxx12_Lock_policyE2EE10_M_disposeEv = comdat any

$_ZNSt15_Sp_counted_ptrIPN7testing11ExpectationELN9__gnu_cxx12_Lock_policyE2EE10_M_destroyEv = comdat any

$_ZNSt15_Sp_counted_ptrIPN7testing11ExpectationELN9__gnu_cxx12_Lock_policyE2EE14_M_get_deleterERKSt9type_info = comdat any

$_ZN7testing8internal11ThreadLocalIPNS_8SequenceEE9CreateKeyEv = comdat any

$DeleteThreadLocalValue = comdat any

$_ZN7testing8internal11ThreadLocalIPNS_8SequenceEE25DefaultValueHolderFactoryD0Ev = comdat any

$_ZNK7testing8internal11ThreadLocalIPNS_8SequenceEE25DefaultValueHolderFactory13MakeNewHolderEv = comdat any

$_ZN7testing8internal11ThreadLocalIPNS_8SequenceEE18ValueHolderFactoryD2Ev = comdat any

$_ZN7testing8internal26ThreadLocalValueHolderBaseD2Ev = comdat any

$_ZN7testing8internal11ThreadLocalIPNS_8SequenceEE11ValueHolderD0Ev = comdat any

$_ZNSt8_Rb_treeIPKvSt4pairIKS1_N7testing8internal12CallReactionEESt10_Select1stIS7_ESt4lessIS1_ESaIS7_EE29_M_get_insert_hint_unique_posESt23_Rb_tree_const_iteratorIS7_ERS3_ = comdat any

$_ZNSt8_Rb_treeIPKvSt4pairIKS1_N7testing8internal12CallReactionEESt10_Select1stIS7_ESt4lessIS1_ESaIS7_EE5eraseERS3_ = comdat any

$_ZNSt8_Rb_treeIPN7testing8internal25UntypedFunctionMockerBaseES3_St9_IdentityIS3_ESt4lessIS3_ESaIS3_EE5eraseERKS3_ = comdat any

$_ZNK7testing8internal11ThreadLocalIPNS_8SequenceEE16GetOrCreateValueEv = comdat any

$_ZN7testing8internal27CheckedDowncastToActualTypeINS0_11ThreadLocalIPNS_8SequenceEE11ValueHolderENS0_26ThreadLocalValueHolderBaseEEEPT_PT0_ = comdat any

$_ZTSN7testing20CardinalityInterfaceE = comdat any

$_ZTIN7testing20CardinalityInterfaceE = comdat any

$_ZTVSt15_Sp_counted_ptrIPKN7testing20CardinalityInterfaceELN9__gnu_cxx12_Lock_policyE2EE = comdat any

$_ZTSSt15_Sp_counted_ptrIPKN7testing20CardinalityInterfaceELN9__gnu_cxx12_Lock_policyE2EE = comdat any

$_ZTSSt16_Sp_counted_baseILN9__gnu_cxx12_Lock_policyE2EE = comdat any

$_ZTSSt11_Mutex_baseILN9__gnu_cxx12_Lock_policyE2EE = comdat any

$_ZTISt11_Mutex_baseILN9__gnu_cxx12_Lock_policyE2EE = comdat any

$_ZTISt16_Sp_counted_baseILN9__gnu_cxx12_Lock_policyE2EE = comdat any

$_ZTISt15_Sp_counted_ptrIPKN7testing20CardinalityInterfaceELN9__gnu_cxx12_Lock_policyE2EE = comdat any

$_ZTVN7testing8internal25GoogleTestFailureReporterE = comdat any

$_ZTSN7testing8internal25GoogleTestFailureReporterE = comdat any

$_ZTSN7testing8internal24FailureReporterInterfaceE = comdat any

$_ZTIN7testing8internal24FailureReporterInterfaceE = comdat any

$_ZTIN7testing8internal25GoogleTestFailureReporterE = comdat any

$_ZTVSt15_Sp_counted_ptrIPN7testing11ExpectationELN9__gnu_cxx12_Lock_policyE2EE = comdat any

$_ZTSSt15_Sp_counted_ptrIPN7testing11ExpectationELN9__gnu_cxx12_Lock_policyE2EE = comdat any

$_ZTISt15_Sp_counted_ptrIPN7testing11ExpectationELN9__gnu_cxx12_Lock_policyE2EE = comdat any

$_ZTVN7testing8internal11ThreadLocalIPNS_8SequenceEE25DefaultValueHolderFactoryE = comdat any

$_ZTSN7testing8internal11ThreadLocalIPNS_8SequenceEE25DefaultValueHolderFactoryE = comdat any

$_ZTSN7testing8internal11ThreadLocalIPNS_8SequenceEE18ValueHolderFactoryE = comdat any

$_ZTIN7testing8internal11ThreadLocalIPNS_8SequenceEE18ValueHolderFactoryE = comdat any

$_ZTIN7testing8internal11ThreadLocalIPNS_8SequenceEE25DefaultValueHolderFactoryE = comdat any

$_ZTVN7testing8internal11ThreadLocalIPNS_8SequenceEE11ValueHolderE = comdat any

$_ZTSN7testing8internal11ThreadLocalIPNS_8SequenceEE11ValueHolderE = comdat any

$_ZTSN7testing8internal26ThreadLocalValueHolderBaseE = comdat any

$_ZTIN7testing8internal26ThreadLocalValueHolderBaseE = comdat any

$_ZTIN7testing8internal11ThreadLocalIPNS_8SequenceEE11ValueHolderE = comdat any

@_ZStL8__ioinit = internal global %"class.std::ios_base::Init" zeroinitializer, align 1
@__dso_handle = external hidden global i8
@.str = private unnamed_addr constant [8 x i8] c"called \00", align 1
@.str.1 = private unnamed_addr constant [13 x i8] c"never called\00", align 1
@.str.2 = private unnamed_addr constant [130 x i8] c"/usr/local/google/home/aeubanks/repos/test-suite/MicroBenchmarks/libs/benchmark/googletest/googlemock/src/gmock-internal-utils.cc\00", align 1
@.str.3 = private unnamed_addr constant [49 x i8] c"Condition names.size() == values.size() failed. \00", align 1
@.str.4 = private unnamed_addr constant [1 x i8] zeroinitializer, align 1
@.str.5 = private unnamed_addr constant [2 x i8] c"(\00", align 1
@.str.6 = private unnamed_addr constant [3 x i8] c", \00", align 1
@.str.7 = private unnamed_addr constant [2 x i8] c")\00", align 1
@_ZZN7testing8internal18GetFailureReporterEvE16failure_reporter = internal global ptr null, align 8
@_ZGVZN7testing8internal18GetFailureReporterEvE16failure_reporter = internal global i64 0, align 8
@_ZN7testing19FLAGS_gmock_verboseB5cxx11E = dso_local global %"class.std::__cxx11::basic_string" zeroinitializer, align 8
@_ZN7testing8internalL14kInfoVerbosityE = internal constant [5 x i8] c"info\00", align 1
@_ZN7testing8internalL15kErrorVerbosityE = internal constant [6 x i8] c"error\00", align 1
@_ZN7testing8internalL11g_log_mutexE = internal global %"class.testing::internal::MutexBase" zeroinitializer, align 8
@_ZSt4cout = external global %"class.std::basic_ostream", align 8
@.str.8 = private unnamed_addr constant [16 x i8] c"\0AGMOCK WARNING:\00", align 1
@.str.9 = private unnamed_addr constant [2 x i8] c"\0A\00", align 1
@.str.10 = private unnamed_addr constant [14 x i8] c"Stack trace:\0A\00", align 1
@.str.11 = private unnamed_addr constant [263 x i8] c"You are using DoDefault() inside a composite action like DoAll() or WithArgs().  This is not supported for technical reasons.  Please instead spell out the default action, or assign the default action to an Action variable and use the variable in various places.\00", align 1
@_ZN7testing8internalL9kUnBase64E = internal unnamed_addr constant %"struct.std::array" { [256 x i8] c"AAAAAAAAAAAAAAAAAAAAAAAAAAAAAAAAAAAAAAAAAAA>AAA?456789:;<=AAAAAAA\00\01\02\03\04\05\06\07\08\09\0A\0B\0C\0D\0E\0F\10\11\12\13\14\15\16\17\18\19AAAAAA\1A\1B\1C\1D\1E\1F !\22#$%&'()*+,-./0123AAAAAAAAAAAAAAAAAAAAAAAAAAAAAAAAAAAAAAAAAAAAAAAAAAAAAAAAAAAAAAAAAAAAAAAAAAAAAAAAAAAAAAAAAAAAAAAAAAAAAAAAAAAAAAAAAAAAAAAAAAAAAAAAAAAAA" }, align 1
@.str.12 = private unnamed_addr constant [2 x i8] c" \00", align 1
@.str.13 = private unnamed_addr constant [6 x i8] c"not (\00", align 1
@_ZN7testing8internal22MaxBipartiteMatchState7kUnusedE = hidden local_unnamed_addr constant i64 -1, align 8
@.str.14 = private unnamed_addr constant [2 x i8] c";\00", align 1
@.str.15 = private unnamed_addr constant [9 x i8] c"is empty\00", align 1
@.str.16 = private unnamed_addr constant [5 x i8] c"has \00", align 1
@.str.17 = private unnamed_addr constant [19 x i8] c" and that element \00", align 1
@.str.18 = private unnamed_addr constant [59 x i8] c" and there exists some permutation of elements such that:\0A\00", align 1
@.str.19 = private unnamed_addr constant [62 x i8] c"a surjection from elements to requirements exists such that:\0A\00", align 1
@.str.20 = private unnamed_addr constant [62 x i8] c"an injection from elements to requirements exists such that:\0A\00", align 1
@.str.21 = private unnamed_addr constant [13 x i8] c" - element #\00", align 1
@.str.22 = private unnamed_addr constant [15 x i8] c" - an element \00", align 1
@.str.23 = private unnamed_addr constant [7 x i8] c", and\0A\00", align 1
@.str.24 = private unnamed_addr constant [12 x i8] c"isn't empty\00", align 1
@.str.25 = private unnamed_addr constant [14 x i8] c"doesn't have \00", align 1
@.str.26 = private unnamed_addr constant [10 x i8] c", or has \00", align 1
@.str.27 = private unnamed_addr constant [7 x i8] c" that \00", align 1
@.str.28 = private unnamed_addr constant [57 x i8] c", or there exists no permutation of elements such that:\0A\00", align 1
@.str.29 = private unnamed_addr constant [63 x i8] c"no surjection from elements to requirements exists such that:\0A\00", align 1
@.str.30 = private unnamed_addr constant [62 x i8] c"no injection from elements to requirements exists such that:\0A\00", align 1
@.str.31 = private unnamed_addr constant [56 x i8] c"where the following matchers don't match any elements:\0A\00", align 1
@.str.32 = private unnamed_addr constant [10 x i8] c"matcher #\00", align 1
@.str.33 = private unnamed_addr constant [3 x i8] c": \00", align 1
@.str.34 = private unnamed_addr constant [3 x i8] c",\0A\00", align 1
@.str.35 = private unnamed_addr constant [56 x i8] c"where the following elements don't match any matchers:\0A\00", align 1
@.str.36 = private unnamed_addr constant [6 x i8] c"\0Aand \00", align 1
@.str.37 = private unnamed_addr constant [10 x i8] c"element #\00", align 1
@.str.38 = private unnamed_addr constant [89 x i8] c"where no permutation of the elements can satisfy all matchers, and the closest match is \00", align 1
@.str.39 = private unnamed_addr constant [5 x i8] c" of \00", align 1
@.str.40 = private unnamed_addr constant [30 x i8] c" matchers with the pairings:\0A\00", align 1
@.str.41 = private unnamed_addr constant [65 x i8] c"where not all elements can be matched, and the closest match is \00", align 1
@.str.42 = private unnamed_addr constant [8 x i8] c"where:\0A\00", align 1
@.str.43 = private unnamed_addr constant [25 x i8] c" is matched by matcher #\00", align 1
@_ZN7testing8internal13g_gmock_mutexE = dso_local global %"class.testing::internal::MutexBase" zeroinitializer, align 8
@_ZTVN7testing8internal15ExpectationBaseE = dso_local unnamed_addr constant { [6 x ptr] } { [6 x ptr] [ptr null, ptr @_ZTIN7testing8internal15ExpectationBaseE, ptr @_ZN7testing8internal15ExpectationBaseD2Ev, ptr @_ZN7testing8internal15ExpectationBaseD0Ev, ptr @__cxa_pure_virtual, ptr @__cxa_pure_virtual] }, align 8
@.str.44 = private unnamed_addr constant [26 x i8] c"         Expected: to be \00", align 1
@.str.45 = private unnamed_addr constant [21 x i8] c"\0A           Actual: \00", align 1
@.str.46 = private unnamed_addr constant [4 x i8] c" - \00", align 1
@.str.47 = private unnamed_addr constant [15 x i8] c"over-saturated\00", align 1
@.str.48 = private unnamed_addr constant [10 x i8] c"saturated\00", align 1
@.str.49 = private unnamed_addr constant [10 x i8] c"satisfied\00", align 1
@.str.50 = private unnamed_addr constant [12 x i8] c"unsatisfied\00", align 1
@.str.51 = private unnamed_addr constant [6 x i8] c" and \00", align 1
@.str.52 = private unnamed_addr constant [8 x i8] c"retired\00", align 1
@.str.53 = private unnamed_addr constant [7 x i8] c"active\00", align 1
@.str.54 = private unnamed_addr constant [5 x i8] c"Too \00", align 1
@.str.55 = private unnamed_addr constant [5 x i8] c"many\00", align 1
@.str.56 = private unnamed_addr constant [4 x i8] c"few\00", align 1
@.str.57 = private unnamed_addr constant [23 x i8] c" actions specified in \00", align 1
@.str.58 = private unnamed_addr constant [5 x i8] c"...\0A\00", align 1
@.str.59 = private unnamed_addr constant [16 x i8] c"Expected to be \00", align 1
@.str.60 = private unnamed_addr constant [11 x i8] c", but has \00", align 1
@.str.61 = private unnamed_addr constant [6 x i8] c"only \00", align 1
@.str.62 = private unnamed_addr constant [12 x i8] c" WillOnce()\00", align 1
@.str.63 = private unnamed_addr constant [2 x i8] c"s\00", align 1
@.str.64 = private unnamed_addr constant [24 x i8] c" and a WillRepeatedly()\00", align 1
@.str.65 = private unnamed_addr constant [2 x i8] c".\00", align 1
@.str.66 = private unnamed_addr constant [59 x i8] c".Times() cannot appear more than once in an EXPECT_CALL().\00", align 1
@.str.67 = private unnamed_addr constant [119 x i8] c".Times() may only appear *before* .InSequence(), .WillOnce(), .WillRepeatedly(), or .RetiresOnSaturation(), not after.\00", align 1
@_ZN7testing8internal25g_gmock_implicit_sequenceE = dso_local global %"class.testing::internal::ThreadLocal" zeroinitializer, align 8
@.str.69 = private unnamed_addr constant [292 x i8] c"\0ANOTE: You can safely ignore the above warning unless this call should not happen.  Do not suppress it by blindly adding an EXPECT_CALL() if you don't mean to enforce the call.  See https://github.com/google/googletest/blob/master/docs/gmock_cook_book.md#knowing-when-to-expect for details.\0A\00", align 1
@_ZTVN7testing8internal25UntypedFunctionMockerBaseE = dso_local unnamed_addr constant { [10 x ptr] } { [10 x ptr] [ptr null, ptr @_ZTIN7testing8internal25UntypedFunctionMockerBaseE, ptr @_ZN7testing8internal25UntypedFunctionMockerBaseD2Ev, ptr @_ZN7testing8internal25UntypedFunctionMockerBaseD0Ev, ptr @__cxa_pure_virtual, ptr @__cxa_pure_virtual, ptr @__cxa_pure_virtual, ptr @__cxa_pure_virtual, ptr @__cxa_pure_virtual, ptr @__cxa_pure_virtual] }, align 8
@.str.70 = private unnamed_addr constant [129 x i8] c"/usr/local/google/home/aeubanks/repos/test-suite/MicroBenchmarks/libs/benchmark/googletest/googlemock/src/gmock-spec-builders.cc\00", align 1
@.str.71 = private unnamed_addr constant [93 x i8] c"MockObject() must not be called before RegisterOwner() or SetOwnerAndName() has been called.\00", align 1
@.str.72 = private unnamed_addr constant [68 x i8] c"Name() must not be called before SetOwnerAndName() has been called.\00", align 1
@.str.73 = private unnamed_addr constant [16 x i8] c"Function call: \00", align 1
@.str.74 = private unnamed_addr constant [20 x i8] c"    Function call: \00", align 1
@.str.75 = private unnamed_addr constant [25 x i8] c"Cannot find expectation.\00", align 1
@.str.76 = private unnamed_addr constant [42 x i8] c"Actual function call count doesn't match \00", align 1
@_ZN7testing12_GLOBAL__N_122g_mock_object_registryE = internal global %"class.testing::(anonymous namespace)::MockObjectRegistry" zeroinitializer, align 8
@_ZN7testing12_GLOBAL__N_129g_uninteresting_call_reactionE = internal global %"class.std::map.70" zeroinitializer, align 8
@_ZN7testing33FLAGS_gmock_default_mock_behaviorE = dso_local local_unnamed_addr global i32 1, align 4
@_ZN7testing30FLAGS_gmock_catch_leaked_mocksE = dso_local local_unnamed_addr global i8 1, align 1
@_ZN7testing8internalL17kWarningVerbosityE = internal unnamed_addr constant [8 x i8] c"warning\00", align 1
@.str.80 = private unnamed_addr constant [6 x i8] c"dummy\00", align 1
@_ZTVN10__cxxabiv117__class_type_infoE = external global ptr
@_ZTSN7testing8internal15ExpectationBaseE = dso_local constant [37 x i8] c"N7testing8internal15ExpectationBaseE\00", align 1
@_ZTIN7testing8internal15ExpectationBaseE = dso_local constant { ptr, ptr } { ptr getelementptr inbounds (ptr, ptr @_ZTVN10__cxxabiv117__class_type_infoE, i64 2), ptr @_ZTSN7testing8internal15ExpectationBaseE }, align 8
@_ZTSN7testing8internal25UntypedFunctionMockerBaseE = dso_local constant [47 x i8] c"N7testing8internal25UntypedFunctionMockerBaseE\00", align 1
@_ZTIN7testing8internal25UntypedFunctionMockerBaseE = dso_local constant { ptr, ptr } { ptr getelementptr inbounds (ptr, ptr @_ZTVN10__cxxabiv117__class_type_infoE, i64 2), ptr @_ZTSN7testing8internal25UntypedFunctionMockerBaseE }, align 8
@.str.82 = private unnamed_addr constant [6 x i8] c"twice\00", align 1
@.str.83 = private unnamed_addr constant [7 x i8] c" times\00", align 1
@_ZTVN7testing12_GLOBAL__N_122BetweenCardinalityImplE = internal unnamed_addr constant { [9 x ptr] } { [9 x ptr] [ptr null, ptr @_ZTIN7testing12_GLOBAL__N_122BetweenCardinalityImplE, ptr @_ZN7testing20CardinalityInterfaceD2Ev, ptr @_ZN7testing12_GLOBAL__N_122BetweenCardinalityImplD0Ev, ptr @_ZNK7testing12_GLOBAL__N_122BetweenCardinalityImpl22ConservativeLowerBoundEv, ptr @_ZNK7testing12_GLOBAL__N_122BetweenCardinalityImpl22ConservativeUpperBoundEv, ptr @_ZNK7testing12_GLOBAL__N_122BetweenCardinalityImpl22IsSatisfiedByCallCountEi, ptr @_ZNK7testing12_GLOBAL__N_122BetweenCardinalityImpl22IsSaturatedByCallCountEi, ptr @_ZNK7testing12_GLOBAL__N_122BetweenCardinalityImpl10DescribeToEPSo] }, align 8
@.str.84 = private unnamed_addr constant [42 x i8] c"The invocation lower bound must be >= 0, \00", align 1
@.str.85 = private unnamed_addr constant [17 x i8] c"but is actually \00", align 1
@.str.86 = private unnamed_addr constant [129 x i8] c"/usr/local/google/home/aeubanks/repos/test-suite/MicroBenchmarks/libs/benchmark/googletest/googlemock/src/gmock-cardinalities.cc\00", align 1
@.str.87 = private unnamed_addr constant [42 x i8] c"The invocation upper bound must be >= 0, \00", align 1
@.str.88 = private unnamed_addr constant [29 x i8] c"The invocation upper bound (\00", align 1
@.str.89 = private unnamed_addr constant [42 x i8] c") must be >= the invocation lower bound (\00", align 1
@.str.90 = private unnamed_addr constant [3 x i8] c").\00", align 1
@_ZTVN10__cxxabiv120__si_class_type_infoE = external global ptr
@_ZTSN7testing12_GLOBAL__N_122BetweenCardinalityImplE = internal constant [49 x i8] c"N7testing12_GLOBAL__N_122BetweenCardinalityImplE\00", align 1
@_ZTSN7testing20CardinalityInterfaceE = linkonce_odr hidden constant [33 x i8] c"N7testing20CardinalityInterfaceE\00", comdat, align 1
@_ZTIN7testing20CardinalityInterfaceE = linkonce_odr hidden constant { ptr, ptr } { ptr getelementptr inbounds (ptr, ptr @_ZTVN10__cxxabiv117__class_type_infoE, i64 2), ptr @_ZTSN7testing20CardinalityInterfaceE }, comdat, align 8
@_ZTIN7testing12_GLOBAL__N_122BetweenCardinalityImplE = internal constant { ptr, ptr, ptr } { ptr getelementptr inbounds (ptr, ptr @_ZTVN10__cxxabiv120__si_class_type_infoE, i64 2), ptr @_ZTSN7testing12_GLOBAL__N_122BetweenCardinalityImplE, ptr @_ZTIN7testing20CardinalityInterfaceE }, align 8
@.str.91 = private unnamed_addr constant [27 x i8] c"called any number of times\00", align 1
@.str.92 = private unnamed_addr constant [16 x i8] c"called at most \00", align 1
@.str.93 = private unnamed_addr constant [17 x i8] c"called at least \00", align 1
@.str.94 = private unnamed_addr constant [16 x i8] c"called between \00", align 1
@_ZTVSt15_Sp_counted_ptrIPKN7testing20CardinalityInterfaceELN9__gnu_cxx12_Lock_policyE2EE = linkonce_odr hidden unnamed_addr constant { [7 x ptr] } { [7 x ptr] [ptr null, ptr @_ZTISt15_Sp_counted_ptrIPKN7testing20CardinalityInterfaceELN9__gnu_cxx12_Lock_policyE2EE, ptr @_ZNSt16_Sp_counted_baseILN9__gnu_cxx12_Lock_policyE2EED2Ev, ptr @_ZNSt15_Sp_counted_ptrIPKN7testing20CardinalityInterfaceELN9__gnu_cxx12_Lock_policyE2EED0Ev, ptr @_ZNSt15_Sp_counted_ptrIPKN7testing20CardinalityInterfaceELN9__gnu_cxx12_Lock_policyE2EE10_M_disposeEv, ptr @_ZNSt15_Sp_counted_ptrIPKN7testing20CardinalityInterfaceELN9__gnu_cxx12_Lock_policyE2EE10_M_destroyEv, ptr @_ZNSt15_Sp_counted_ptrIPKN7testing20CardinalityInterfaceELN9__gnu_cxx12_Lock_policyE2EE14_M_get_deleterERKSt9type_info] }, comdat, align 8
@_ZTSSt15_Sp_counted_ptrIPKN7testing20CardinalityInterfaceELN9__gnu_cxx12_Lock_policyE2EE = linkonce_odr hidden constant [85 x i8] c"St15_Sp_counted_ptrIPKN7testing20CardinalityInterfaceELN9__gnu_cxx12_Lock_policyE2EE\00", comdat, align 1
@_ZTSSt16_Sp_counted_baseILN9__gnu_cxx12_Lock_policyE2EE = linkonce_odr dso_local constant [52 x i8] c"St16_Sp_counted_baseILN9__gnu_cxx12_Lock_policyE2EE\00", comdat, align 1
@_ZTSSt11_Mutex_baseILN9__gnu_cxx12_Lock_policyE2EE = linkonce_odr dso_local constant [47 x i8] c"St11_Mutex_baseILN9__gnu_cxx12_Lock_policyE2EE\00", comdat, align 1
@_ZTISt11_Mutex_baseILN9__gnu_cxx12_Lock_policyE2EE = linkonce_odr dso_local constant { ptr, ptr } { ptr getelementptr inbounds (ptr, ptr @_ZTVN10__cxxabiv117__class_type_infoE, i64 2), ptr @_ZTSSt11_Mutex_baseILN9__gnu_cxx12_Lock_policyE2EE }, comdat, align 8
@_ZTISt16_Sp_counted_baseILN9__gnu_cxx12_Lock_policyE2EE = linkonce_odr dso_local constant { ptr, ptr, ptr } { ptr getelementptr inbounds (ptr, ptr @_ZTVN10__cxxabiv120__si_class_type_infoE, i64 2), ptr @_ZTSSt16_Sp_counted_baseILN9__gnu_cxx12_Lock_policyE2EE, ptr @_ZTISt11_Mutex_baseILN9__gnu_cxx12_Lock_policyE2EE }, comdat, align 8
@_ZTISt15_Sp_counted_ptrIPKN7testing20CardinalityInterfaceELN9__gnu_cxx12_Lock_policyE2EE = linkonce_odr hidden constant { ptr, ptr, ptr } { ptr getelementptr inbounds (ptr, ptr @_ZTVN10__cxxabiv120__si_class_type_infoE, i64 2), ptr @_ZTSSt15_Sp_counted_ptrIPKN7testing20CardinalityInterfaceELN9__gnu_cxx12_Lock_policyE2EE, ptr @_ZTISt16_Sp_counted_baseILN9__gnu_cxx12_Lock_policyE2EE }, comdat, align 8
@_ZSt4cerr = external global %"class.std::basic_ostream", align 8
@.str.95 = private unnamed_addr constant [21 x i8] c"basic_string::append\00", align 1
@_ZTVN7testing8internal25GoogleTestFailureReporterE = linkonce_odr hidden unnamed_addr constant { [5 x ptr] } { [5 x ptr] [ptr null, ptr @_ZTIN7testing8internal25GoogleTestFailureReporterE, ptr @_ZN7testing8internal24FailureReporterInterfaceD2Ev, ptr @_ZN7testing8internal25GoogleTestFailureReporterD0Ev, ptr @_ZN7testing8internal25GoogleTestFailureReporter13ReportFailureENS0_24FailureReporterInterface11FailureTypeEPKciRKNSt7__cxx1112basic_stringIcSt11char_traitsIcESaIcEEE] }, comdat, align 8
@_ZTSN7testing8internal25GoogleTestFailureReporterE = linkonce_odr hidden constant [47 x i8] c"N7testing8internal25GoogleTestFailureReporterE\00", comdat, align 1
@_ZTSN7testing8internal24FailureReporterInterfaceE = linkonce_odr hidden constant [46 x i8] c"N7testing8internal24FailureReporterInterfaceE\00", comdat, align 1
@_ZTIN7testing8internal24FailureReporterInterfaceE = linkonce_odr hidden constant { ptr, ptr } { ptr getelementptr inbounds (ptr, ptr @_ZTVN10__cxxabiv117__class_type_infoE, i64 2), ptr @_ZTSN7testing8internal24FailureReporterInterfaceE }, comdat, align 8
@_ZTIN7testing8internal25GoogleTestFailureReporterE = linkonce_odr hidden constant { ptr, ptr, ptr } { ptr getelementptr inbounds (ptr, ptr @_ZTVN10__cxxabiv120__si_class_type_infoE, i64 2), ptr @_ZTSN7testing8internal25GoogleTestFailureReporterE, ptr @_ZTIN7testing8internal24FailureReporterInterfaceE }, comdat, align 8
@.str.96 = private unnamed_addr constant [49 x i8] c"cannot create std::vector larger than max_size()\00", align 1
@.str.97 = private unnamed_addr constant [124 x i8] c"/usr/local/google/home/aeubanks/repos/test-suite/MicroBenchmarks/libs/benchmark/googletest/googlemock/src/gmock-matchers.cc\00", align 1
@.str.98 = private unnamed_addr constant [42 x i8] c"Condition left_[ilhs] == kUnused failed. \00", align 1
@.str.99 = private unnamed_addr constant [7 x i8] c"ilhs: \00", align 1
@.str.100 = private unnamed_addr constant [16 x i8] c", left_[ilhs]: \00", align 1
@.str.101 = private unnamed_addr constant [26 x i8] c"vector::_M_realloc_insert\00", align 1
@.str.102 = private unnamed_addr constant [9 x i8] c" element\00", align 1
@.str.103 = private unnamed_addr constant [7 x i8] c"(null)\00", align 1
@.str.104 = private unnamed_addr constant [2 x i8] c"{\00", align 1
@.str.105 = private unnamed_addr constant [5 x i8] c"\0A  (\00", align 1
@.str.106 = private unnamed_addr constant [2 x i8] c",\00", align 1
@.str.107 = private unnamed_addr constant [3 x i8] c"\0A}\00", align 1
@.str.108 = private unnamed_addr constant [138 x i8] c"/usr/local/google/home/aeubanks/repos/test-suite/MicroBenchmarks/libs/benchmark/googletest/googletest/include/gtest/internal/gtest-port.h\00", align 1
@.str.109 = private unnamed_addr constant [37 x i8] c"pthread_mutex_init(&mutex_, nullptr)\00", align 1
@.str.110 = private unnamed_addr constant [19 x i8] c"failed with error \00", align 1
@__libc_single_threaded = external local_unnamed_addr global i8, align 1
@.str.111 = private unnamed_addr constant [31 x i8] c"pthread_mutex_destroy(&mutex_)\00", align 1
@.str.112 = private unnamed_addr constant [71 x i8] c"Condition has_owner_ && pthread_equal(owner_, pthread_self()) failed. \00", align 1
@.str.113 = private unnamed_addr constant [46 x i8] c"The current thread is not holding the mutex @\00", align 1
@.str.116 = private unnamed_addr constant [30 x i8] c"pthread_mutex_unlock(&mutex_)\00", align 1
@.str.117 = private unnamed_addr constant [28 x i8] c"pthread_mutex_lock(&mutex_)\00", align 1
@.str.118 = private unnamed_addr constant [25 x i8] c" ERROR: this mock object\00", align 1
@.str.119 = private unnamed_addr constant [16 x i8] c" (used in test \00", align 1
@.str.120 = private unnamed_addr constant [50 x i8] c" should be deleted but never is. Its address is @\00", align 1
@.str.121 = private unnamed_addr constant [9 x i8] c"\0AERROR: \00", align 1
@.str.122 = private unnamed_addr constant [14 x i8] c" leaked mock \00", align 1
@.str.123 = private unnamed_addr constant [7 x i8] c"object\00", align 1
@.str.124 = private unnamed_addr constant [8 x i8] c"objects\00", align 1
@.str.125 = private unnamed_addr constant [347 x i8] c" found at program exit. Expectations on a mock object are verified when the object is destructed. Leaking a mock means that its expectations aren't verified, which is usually a test bug. If you really intend to leak a mock, you can suppress this error using testing::Mock::AllowLeak(mock_object), or you may use a fake or stub instead of a mock.\0A\00", align 1
@_ZTVSt15_Sp_counted_ptrIPN7testing11ExpectationELN9__gnu_cxx12_Lock_policyE2EE = linkonce_odr dso_local unnamed_addr constant { [7 x ptr] } { [7 x ptr] [ptr null, ptr @_ZTISt15_Sp_counted_ptrIPN7testing11ExpectationELN9__gnu_cxx12_Lock_policyE2EE, ptr @_ZNSt16_Sp_counted_baseILN9__gnu_cxx12_Lock_policyE2EED2Ev, ptr @_ZNSt15_Sp_counted_ptrIPN7testing11ExpectationELN9__gnu_cxx12_Lock_policyE2EED0Ev, ptr @_ZNSt15_Sp_counted_ptrIPN7testing11ExpectationELN9__gnu_cxx12_Lock_policyE2EE10_M_disposeEv, ptr @_ZNSt15_Sp_counted_ptrIPN7testing11ExpectationELN9__gnu_cxx12_Lock_policyE2EE10_M_destroyEv, ptr @_ZNSt15_Sp_counted_ptrIPN7testing11ExpectationELN9__gnu_cxx12_Lock_policyE2EE14_M_get_deleterERKSt9type_info] }, comdat, align 8
@_ZTSSt15_Sp_counted_ptrIPN7testing11ExpectationELN9__gnu_cxx12_Lock_policyE2EE = linkonce_odr dso_local constant [75 x i8] c"St15_Sp_counted_ptrIPN7testing11ExpectationELN9__gnu_cxx12_Lock_policyE2EE\00", comdat, align 1
@_ZTISt15_Sp_counted_ptrIPN7testing11ExpectationELN9__gnu_cxx12_Lock_policyE2EE = linkonce_odr dso_local constant { ptr, ptr, ptr } { ptr getelementptr inbounds (ptr, ptr @_ZTVN10__cxxabiv120__si_class_type_infoE, i64 2), ptr @_ZTSSt15_Sp_counted_ptrIPN7testing11ExpectationELN9__gnu_cxx12_Lock_policyE2EE, ptr @_ZTISt16_Sp_counted_baseILN9__gnu_cxx12_Lock_policyE2EE }, comdat, align 8
@_ZTTNSt7__cxx1118basic_stringstreamIcSt11char_traitsIcESaIcEEE = external unnamed_addr constant [10 x ptr], align 8
@_ZTVNSt7__cxx1115basic_stringbufIcSt11char_traitsIcESaIcEEE = external unnamed_addr constant { [16 x ptr] }, align 8
@_ZTVSt15basic_streambufIcSt11char_traitsIcEE = external unnamed_addr constant { [16 x ptr] }, align 8
@.str.126 = private unnamed_addr constant [50 x i8] c"basic_string: construction from null is not valid\00", align 1
@_ZTTNSt7__cxx1119basic_ostringstreamIcSt11char_traitsIcESaIcEEE = external unnamed_addr constant [4 x ptr], align 8
@.str.127 = private unnamed_addr constant [50 x i8] c"pthread_key_create(&key, &DeleteThreadLocalValue)\00", align 1
@_ZTVN7testing8internal11ThreadLocalIPNS_8SequenceEE25DefaultValueHolderFactoryE = linkonce_odr dso_local unnamed_addr constant { [5 x ptr] } { [5 x ptr] [ptr null, ptr @_ZTIN7testing8internal11ThreadLocalIPNS_8SequenceEE25DefaultValueHolderFactoryE, ptr @_ZN7testing8internal11ThreadLocalIPNS_8SequenceEE18ValueHolderFactoryD2Ev, ptr @_ZN7testing8internal11ThreadLocalIPNS_8SequenceEE25DefaultValueHolderFactoryD0Ev, ptr @_ZNK7testing8internal11ThreadLocalIPNS_8SequenceEE25DefaultValueHolderFactory13MakeNewHolderEv] }, comdat, align 8
@_ZTSN7testing8internal11ThreadLocalIPNS_8SequenceEE25DefaultValueHolderFactoryE = linkonce_odr dso_local constant [76 x i8] c"N7testing8internal11ThreadLocalIPNS_8SequenceEE25DefaultValueHolderFactoryE\00", comdat, align 1
@_ZTSN7testing8internal11ThreadLocalIPNS_8SequenceEE18ValueHolderFactoryE = linkonce_odr dso_local constant [69 x i8] c"N7testing8internal11ThreadLocalIPNS_8SequenceEE18ValueHolderFactoryE\00", comdat, align 1
@_ZTIN7testing8internal11ThreadLocalIPNS_8SequenceEE18ValueHolderFactoryE = linkonce_odr dso_local constant { ptr, ptr } { ptr getelementptr inbounds (ptr, ptr @_ZTVN10__cxxabiv117__class_type_infoE, i64 2), ptr @_ZTSN7testing8internal11ThreadLocalIPNS_8SequenceEE18ValueHolderFactoryE }, comdat, align 8
@_ZTIN7testing8internal11ThreadLocalIPNS_8SequenceEE25DefaultValueHolderFactoryE = linkonce_odr dso_local constant { ptr, ptr, ptr } { ptr getelementptr inbounds (ptr, ptr @_ZTVN10__cxxabiv120__si_class_type_infoE, i64 2), ptr @_ZTSN7testing8internal11ThreadLocalIPNS_8SequenceEE25DefaultValueHolderFactoryE, ptr @_ZTIN7testing8internal11ThreadLocalIPNS_8SequenceEE18ValueHolderFactoryE }, comdat, align 8
@_ZTVN7testing8internal11ThreadLocalIPNS_8SequenceEE11ValueHolderE = linkonce_odr dso_local unnamed_addr constant { [4 x ptr] } { [4 x ptr] [ptr null, ptr @_ZTIN7testing8internal11ThreadLocalIPNS_8SequenceEE11ValueHolderE, ptr @_ZN7testing8internal26ThreadLocalValueHolderBaseD2Ev, ptr @_ZN7testing8internal11ThreadLocalIPNS_8SequenceEE11ValueHolderD0Ev] }, comdat, align 8
@_ZTSN7testing8internal11ThreadLocalIPNS_8SequenceEE11ValueHolderE = linkonce_odr dso_local constant [62 x i8] c"N7testing8internal11ThreadLocalIPNS_8SequenceEE11ValueHolderE\00", comdat, align 1
@_ZTSN7testing8internal26ThreadLocalValueHolderBaseE = linkonce_odr hidden constant [48 x i8] c"N7testing8internal26ThreadLocalValueHolderBaseE\00", comdat, align 1
@_ZTIN7testing8internal26ThreadLocalValueHolderBaseE = linkonce_odr hidden constant { ptr, ptr } { ptr getelementptr inbounds (ptr, ptr @_ZTVN10__cxxabiv117__class_type_infoE, i64 2), ptr @_ZTSN7testing8internal26ThreadLocalValueHolderBaseE }, comdat, align 8
@_ZTIN7testing8internal11ThreadLocalIPNS_8SequenceEE11ValueHolderE = linkonce_odr dso_local constant { ptr, ptr, ptr } { ptr getelementptr inbounds (ptr, ptr @_ZTVN10__cxxabiv120__si_class_type_infoE, i64 2), ptr @_ZTSN7testing8internal11ThreadLocalIPNS_8SequenceEE11ValueHolderE, ptr @_ZTIN7testing8internal26ThreadLocalValueHolderBaseE }, comdat, align 8
@.str.128 = private unnamed_addr constant [25 x i8] c"pthread_key_delete(key_)\00", align 1
@.str.129 = private unnamed_addr constant [39 x i8] c"pthread_setspecific(key_, holder_base)\00", align 1
@.str.130 = private unnamed_addr constant [52 x i8] c"Condition typeid(*base) == typeid(Derived) failed. \00", align 1
@.str.131 = private unnamed_addr constant [19 x i8] c"catch_leaked_mocks\00", align 1
@.str.132 = private unnamed_addr constant [8 x i8] c"verbose\00", align 1
@.str.133 = private unnamed_addr constant [22 x i8] c"default_mock_behavior\00", align 1
@.str.135 = private unnamed_addr constant [21 x i8] c"The value of flag --\00", align 1
@llvm.global_ctors = appending global [1 x { i32, ptr, ptr }] [{ i32, ptr, ptr } { i32 65535, ptr @_GLOBAL__sub_I_gmock_all.cc, ptr null }]

@_ZN7testing8internal15ExpectationBaseD1Ev = dso_local unnamed_addr alias void (ptr), ptr @_ZN7testing8internal15ExpectationBaseD2Ev
@_ZN7testing8internal25UntypedFunctionMockerBaseD1Ev = dso_local unnamed_addr alias void (ptr), ptr @_ZN7testing8internal25UntypedFunctionMockerBaseD2Ev
@_ZN7testing11ExpectationC1Ev = dso_local unnamed_addr alias void (ptr), ptr @_ZN7testing11ExpectationC2Ev
@_ZN7testing11ExpectationC1ERKSt10shared_ptrINS_8internal15ExpectationBaseEE = dso_local unnamed_addr alias void (ptr, ptr), ptr @_ZN7testing11ExpectationC2ERKSt10shared_ptrINS_8internal15ExpectationBaseEE
@_ZN7testing11ExpectationD1Ev = dso_local unnamed_addr alias void (ptr), ptr @_ZN7testing11ExpectationD2Ev
@_ZN7testing10InSequenceC1Ev = dso_local unnamed_addr alias void (ptr), ptr @_ZN7testing10InSequenceC2Ev
@_ZN7testing10InSequenceD1Ev = dso_local unnamed_addr alias void (ptr), ptr @_ZN7testing10InSequenceD2Ev

declare void @_ZNSt8ios_base4InitC1Ev(ptr noundef nonnull align 1 dereferenceable(1)) unnamed_addr #0

; Function Attrs: nounwind
declare void @_ZNSt8ios_base4InitD1Ev(ptr noundef nonnull align 1 dereferenceable(1)) unnamed_addr #1

; Function Attrs: nofree nounwind
declare i32 @__cxa_atexit(ptr, ptr, ptr) local_unnamed_addr #2

; Function Attrs: uwtable
define dso_local void @_ZN7testing11Cardinality25DescribeActualCallCountToEiPSo(i32 noundef %0, ptr noundef %1) local_unnamed_addr #3 align 2 personality ptr @__gxx_personality_v0 {
  %3 = alloca %"class.std::__cxx11::basic_string", align 8
  %4 = icmp sgt i32 %0, 0
  br i1 %4, label %5, label %24

5:                                                ; preds = %2
  %6 = tail call noundef nonnull align 8 dereferenceable(8) ptr @_ZSt16__ostream_insertIcSt11char_traitsIcEERSt13basic_ostreamIT_T0_ES6_PKS3_l(ptr noundef nonnull align 8 dereferenceable(8) %1, ptr noundef nonnull @.str, i64 noundef 7)
  call void @llvm.lifetime.start.p0(i64 32, ptr nonnull %3) #33
  call fastcc void @_ZN7testing12_GLOBAL__N_111FormatTimesB5cxx11Ei(ptr noalias nonnull align 8 %3, i32 noundef %0)
  %7 = load ptr, ptr %3, align 8, !tbaa !5
  %8 = getelementptr inbounds %"class.std::__cxx11::basic_string", ptr %3, i64 0, i32 1
  %9 = load i64, ptr %8, align 8, !tbaa !12
  %10 = invoke noundef nonnull align 8 dereferenceable(8) ptr @_ZSt16__ostream_insertIcSt11char_traitsIcEERSt13basic_ostreamIT_T0_ES6_PKS3_l(ptr noundef nonnull align 8 dereferenceable(8) %1, ptr noundef %7, i64 noundef %9)
          to label %11 unwind label %17

11:                                               ; preds = %5
  %12 = load ptr, ptr %3, align 8, !tbaa !5
  %13 = getelementptr inbounds %"class.std::__cxx11::basic_string", ptr %3, i64 0, i32 2
  %14 = icmp eq ptr %12, %13
  br i1 %14, label %16, label %15

15:                                               ; preds = %11
  call void @_ZdlPv(ptr noundef %12) #34
  br label %16

16:                                               ; preds = %11, %15
  call void @llvm.lifetime.end.p0(i64 32, ptr nonnull %3) #33
  br label %26

17:                                               ; preds = %5
  %18 = landingpad { ptr, i32 }
          cleanup
  %19 = load ptr, ptr %3, align 8, !tbaa !5
  %20 = getelementptr inbounds %"class.std::__cxx11::basic_string", ptr %3, i64 0, i32 2
  %21 = icmp eq ptr %19, %20
  br i1 %21, label %23, label %22

22:                                               ; preds = %17
  call void @_ZdlPv(ptr noundef %19) #34
  br label %23

23:                                               ; preds = %17, %22
  call void @llvm.lifetime.end.p0(i64 32, ptr nonnull %3) #33
  resume { ptr, i32 } %18

24:                                               ; preds = %2
  %25 = tail call noundef nonnull align 8 dereferenceable(8) ptr @_ZSt16__ostream_insertIcSt11char_traitsIcEERSt13basic_ostreamIT_T0_ES6_PKS3_l(ptr noundef nonnull align 8 dereferenceable(8) %1, ptr noundef nonnull @.str.1, i64 noundef 12)
  br label %26

26:                                               ; preds = %24, %16
  ret void
}

; Function Attrs: mustprogress nocallback nofree nosync nounwind willreturn memory(argmem: readwrite)
declare void @llvm.lifetime.start.p0(i64 immarg, ptr nocapture) #4

; Function Attrs: inlinehint uwtable
define internal fastcc void @_ZN7testing12_GLOBAL__N_111FormatTimesB5cxx11Ei(ptr noalias align 8 %0, i32 noundef %1) unnamed_addr #5 personality ptr @__gxx_personality_v0 {
  %3 = alloca %"class.std::__cxx11::basic_stringstream", align 8
  switch i32 %1, label %12 [
    i32 1, label %4
    i32 2, label %8
  ]

4:                                                ; preds = %2
  %5 = getelementptr inbounds %"class.std::__cxx11::basic_string", ptr %0, i64 0, i32 2
  store ptr %5, ptr %0, align 8, !tbaa !13
  store i32 1701015151, ptr %5, align 8
  %6 = getelementptr inbounds %"class.std::__cxx11::basic_string", ptr %0, i64 0, i32 1
  store i64 4, ptr %6, align 8, !tbaa !12
  %7 = getelementptr inbounds i8, ptr %0, i64 20
  store i8 0, ptr %7, align 4, !tbaa !14
  br label %69

8:                                                ; preds = %2
  %9 = getelementptr inbounds %"class.std::__cxx11::basic_string", ptr %0, i64 0, i32 2
  store ptr %9, ptr %0, align 8, !tbaa !13
  tail call void @llvm.memcpy.p0.p0.i64(ptr noundef nonnull align 8 dereferenceable(5) %9, ptr noundef nonnull align 1 dereferenceable(5) @.str.82, i64 5, i1 false)
  %10 = getelementptr inbounds %"class.std::__cxx11::basic_string", ptr %0, i64 0, i32 1
  store i64 5, ptr %10, align 8, !tbaa !12
  %11 = getelementptr inbounds i8, ptr %0, i64 21
  store i8 0, ptr %11, align 1, !tbaa !14
  br label %69

12:                                               ; preds = %2
  call void @llvm.lifetime.start.p0(i64 392, ptr nonnull %3) #33
  call void @_ZNSt7__cxx1118basic_stringstreamIcSt11char_traitsIcESaIcEEC1Ev(ptr noundef nonnull align 8 dereferenceable(128) %3)
  %13 = getelementptr inbounds i8, ptr %3, i64 16
  %14 = invoke noundef nonnull align 8 dereferenceable(8) ptr @_ZNSolsEi(ptr noundef nonnull align 8 dereferenceable(8) %13, i32 noundef %1)
          to label %15 unwind label %65

15:                                               ; preds = %12
  %16 = invoke noundef nonnull align 8 dereferenceable(8) ptr @_ZSt16__ostream_insertIcSt11char_traitsIcEERSt13basic_ostreamIT_T0_ES6_PKS3_l(ptr noundef nonnull align 8 dereferenceable(8) %14, ptr noundef nonnull @.str.83, i64 noundef 6)
          to label %17 unwind label %65

17:                                               ; preds = %15
  call void @llvm.experimental.noalias.scope.decl(metadata !15)
  call void @llvm.experimental.noalias.scope.decl(metadata !18)
  %18 = getelementptr inbounds %"class.std::__cxx11::basic_string", ptr %0, i64 0, i32 2
  store ptr %18, ptr %0, align 8, !tbaa !13, !alias.scope !21
  %19 = getelementptr inbounds %"class.std::__cxx11::basic_string", ptr %0, i64 0, i32 1
  store i64 0, ptr %19, align 8, !tbaa !12, !alias.scope !21
  store i8 0, ptr %18, align 8, !tbaa !14, !alias.scope !21
  %20 = getelementptr inbounds %"class.std::__cxx11::basic_stringstream", ptr %3, i64 0, i32 1, i32 0, i32 5
  %21 = load ptr, ptr %20, align 8, !tbaa !22, !noalias !21
  %22 = icmp eq ptr %21, null
  %23 = getelementptr inbounds %"class.std::__cxx11::basic_stringstream", ptr %3, i64 0, i32 1, i32 0, i32 3
  %24 = load ptr, ptr %23, align 8, !noalias !21
  %25 = icmp ugt ptr %21, %24
  %26 = select i1 %25, ptr %21, ptr %24
  %27 = icmp eq ptr %26, null
  %28 = select i1 %22, i1 true, i1 %27
  br i1 %28, label %41, label %29

29:                                               ; preds = %17
  %30 = getelementptr inbounds %"class.std::__cxx11::basic_stringstream", ptr %3, i64 0, i32 1, i32 0, i32 4
  %31 = load ptr, ptr %30, align 8, !tbaa !25, !noalias !21
  %32 = ptrtoint ptr %26 to i64
  %33 = ptrtoint ptr %31 to i64
  %34 = sub i64 %32, %33
  %35 = invoke noundef nonnull align 8 dereferenceable(32) ptr @_ZNSt7__cxx1112basic_stringIcSt11char_traitsIcESaIcEE10_M_replaceEmmPKcm(ptr noundef nonnull align 8 dereferenceable(32) %0, i64 noundef 0, i64 noundef 0, ptr noundef %31, i64 noundef %34)
          to label %43 unwind label %36

36:                                               ; preds = %41, %29
  %37 = landingpad { ptr, i32 }
          cleanup
  %38 = load ptr, ptr %0, align 8, !tbaa !5, !alias.scope !21
  %39 = icmp eq ptr %38, %18
  br i1 %39, label %67, label %40

40:                                               ; preds = %36
  call void @_ZdlPv(ptr noundef %38) #34
  br label %67

41:                                               ; preds = %17
  %42 = getelementptr inbounds %"class.std::__cxx11::basic_stringstream", ptr %3, i64 0, i32 1, i32 2
  invoke void @_ZNSt7__cxx1112basic_stringIcSt11char_traitsIcESaIcEE9_M_assignERKS4_(ptr noundef nonnull align 8 dereferenceable(32) %0, ptr noundef nonnull align 8 dereferenceable(32) %42)
          to label %43 unwind label %36

43:                                               ; preds = %41, %29
  %44 = load ptr, ptr @_ZTTNSt7__cxx1118basic_stringstreamIcSt11char_traitsIcESaIcEEE, align 8
  store ptr %44, ptr %3, align 8, !tbaa !26
  %45 = load ptr, ptr getelementptr inbounds ([10 x ptr], ptr @_ZTTNSt7__cxx1118basic_stringstreamIcSt11char_traitsIcESaIcEEE, i64 0, i64 8), align 8
  %46 = getelementptr i8, ptr %44, i64 -24
  %47 = load i64, ptr %46, align 8
  %48 = getelementptr inbounds i8, ptr %3, i64 %47
  store ptr %45, ptr %48, align 8, !tbaa !26
  %49 = load ptr, ptr getelementptr inbounds ([10 x ptr], ptr @_ZTTNSt7__cxx1118basic_stringstreamIcSt11char_traitsIcESaIcEEE, i64 0, i64 9), align 8
  store ptr %49, ptr %13, align 8, !tbaa !26
  %50 = getelementptr inbounds %"class.std::__cxx11::basic_stringstream", ptr %3, i64 0, i32 1
  store ptr getelementptr inbounds ({ [16 x ptr] }, ptr @_ZTVNSt7__cxx1115basic_stringbufIcSt11char_traitsIcESaIcEEE, i64 0, inrange i32 0, i64 2), ptr %50, align 8, !tbaa !26
  %51 = getelementptr inbounds %"class.std::__cxx11::basic_stringstream", ptr %3, i64 0, i32 1, i32 2
  %52 = load ptr, ptr %51, align 8, !tbaa !5
  %53 = getelementptr inbounds %"class.std::__cxx11::basic_stringstream", ptr %3, i64 0, i32 1, i32 2, i32 2
  %54 = icmp eq ptr %52, %53
  br i1 %54, label %56, label %55

55:                                               ; preds = %43
  call void @_ZdlPv(ptr noundef %52) #34
  br label %56

56:                                               ; preds = %43, %55
  store ptr getelementptr inbounds ({ [16 x ptr] }, ptr @_ZTVSt15basic_streambufIcSt11char_traitsIcEE, i64 0, inrange i32 0, i64 2), ptr %50, align 8, !tbaa !26
  %57 = getelementptr inbounds %"class.std::__cxx11::basic_stringstream", ptr %3, i64 0, i32 1, i32 0, i32 7
  call void @_ZNSt6localeD1Ev(ptr noundef nonnull align 8 dereferenceable(8) %57) #33
  %58 = load ptr, ptr getelementptr inbounds ([10 x ptr], ptr @_ZTTNSt7__cxx1118basic_stringstreamIcSt11char_traitsIcESaIcEEE, i64 0, i64 2), align 8
  store ptr %58, ptr %3, align 8, !tbaa !26
  %59 = load ptr, ptr getelementptr inbounds ([10 x ptr], ptr @_ZTTNSt7__cxx1118basic_stringstreamIcSt11char_traitsIcESaIcEEE, i64 0, i64 3), align 8
  %60 = getelementptr i8, ptr %58, i64 -24
  %61 = load i64, ptr %60, align 8
  %62 = getelementptr inbounds i8, ptr %3, i64 %61
  store ptr %59, ptr %62, align 8, !tbaa !26
  %63 = getelementptr inbounds %"class.std::basic_istream", ptr %3, i64 0, i32 1
  store i64 0, ptr %63, align 8, !tbaa !28
  %64 = getelementptr inbounds i8, ptr %3, i64 128
  call void @_ZNSt8ios_baseD2Ev(ptr noundef nonnull align 8 dereferenceable(264) %64) #33
  call void @llvm.lifetime.end.p0(i64 392, ptr nonnull %3) #33
  br label %69

65:                                               ; preds = %15, %12
  %66 = landingpad { ptr, i32 }
          cleanup
  br label %67

67:                                               ; preds = %36, %40, %65
  %68 = phi { ptr, i32 } [ %66, %65 ], [ %37, %40 ], [ %37, %36 ]
  call void @_ZNSt7__cxx1118basic_stringstreamIcSt11char_traitsIcESaIcEED1Ev(ptr noundef nonnull align 8 dereferenceable(128) %3) #33
  call void @llvm.lifetime.end.p0(i64 392, ptr nonnull %3) #33
  resume { ptr, i32 } %68

69:                                               ; preds = %56, %8, %4
  ret void
}

declare i32 @__gxx_personality_v0(...)

; Function Attrs: nounwind uwtable
declare void @_ZNSt7__cxx1112basic_stringIcSt11char_traitsIcESaIcEED2Ev(ptr noundef nonnull align 8 dereferenceable(32)) unnamed_addr #6 align 2

; Function Attrs: mustprogress nocallback nofree nosync nounwind willreturn memory(argmem: readwrite)
declare void @llvm.lifetime.end.p0(i64 immarg, ptr nocapture) #4

; Function Attrs: mustprogress uwtable
define dso_local void @_ZN7testing7AtLeastEi(ptr noalias nocapture writeonly sret(%"class.testing::Cardinality") align 8 %0, i32 noundef %1) local_unnamed_addr #7 {
  tail call void @_ZN7testing7BetweenEii(ptr sret(%"class.testing::Cardinality") align 8 %0, i32 noundef %1, i32 noundef 2147483647)
  ret void
}

; Function Attrs: uwtable
define dso_local void @_ZN7testing7BetweenEii(ptr noalias nocapture writeonly sret(%"class.testing::Cardinality") align 8 %0, i32 noundef %1, i32 noundef %2) local_unnamed_addr #3 personality ptr @__gxx_personality_v0 {
  %4 = alloca %"class.std::__cxx11::basic_stringstream", align 8
  %5 = alloca %"class.std::__cxx11::basic_string", align 8
  %6 = alloca %"class.std::__cxx11::basic_string", align 8
  %7 = alloca %"class.std::__cxx11::basic_string", align 8
  %8 = tail call noalias noundef nonnull dereferenceable(16) ptr @_Znwm(i64 noundef 16) #35
  store ptr getelementptr inbounds ({ [9 x ptr] }, ptr @_ZTVN7testing12_GLOBAL__N_122BetweenCardinalityImplE, i64 0, inrange i32 0, i64 2), ptr %8, align 8, !tbaa !26
  %9 = getelementptr inbounds %"class.testing::(anonymous namespace)::BetweenCardinalityImpl", ptr %8, i64 0, i32 1
  %10 = tail call i32 @llvm.smax.i32(i32 %1, i32 0)
  store i32 %10, ptr %9, align 8, !tbaa !30
  %11 = getelementptr inbounds %"class.testing::(anonymous namespace)::BetweenCardinalityImpl", ptr %8, i64 0, i32 2
  %12 = tail call i32 @llvm.smax.i32(i32 %10, i32 %2)
  store i32 %12, ptr %11, align 4, !tbaa !34
  call void @llvm.lifetime.start.p0(i64 392, ptr nonnull %4) #33
  invoke void @_ZNSt7__cxx1118basic_stringstreamIcSt11char_traitsIcESaIcEEC1Ev(ptr noundef nonnull align 8 dereferenceable(128) %4)
          to label %13 unwind label %270

13:                                               ; preds = %3
  %14 = icmp slt i32 %1, 0
  br i1 %14, label %15, label %84

15:                                               ; preds = %13
  %16 = getelementptr inbounds i8, ptr %4, i64 16
  %17 = invoke noundef nonnull align 8 dereferenceable(8) ptr @_ZSt16__ostream_insertIcSt11char_traitsIcEERSt13basic_ostreamIT_T0_ES6_PKS3_l(ptr noundef nonnull align 8 dereferenceable(8) %16, ptr noundef nonnull @.str.84, i64 noundef 41)
          to label %18 unwind label %71

18:                                               ; preds = %15
  %19 = invoke noundef nonnull align 8 dereferenceable(8) ptr @_ZSt16__ostream_insertIcSt11char_traitsIcEERSt13basic_ostreamIT_T0_ES6_PKS3_l(ptr noundef nonnull align 8 dereferenceable(8) %16, ptr noundef nonnull @.str.85, i64 noundef 16)
          to label %20 unwind label %71

20:                                               ; preds = %18
  %21 = invoke noundef nonnull align 8 dereferenceable(8) ptr @_ZNSolsEi(ptr noundef nonnull align 8 dereferenceable(8) %16, i32 noundef %1)
          to label %22 unwind label %71

22:                                               ; preds = %20
  %23 = invoke noundef nonnull align 8 dereferenceable(8) ptr @_ZSt16__ostream_insertIcSt11char_traitsIcEERSt13basic_ostreamIT_T0_ES6_PKS3_l(ptr noundef nonnull align 8 dereferenceable(8) %21, ptr noundef nonnull @.str.65, i64 noundef 1)
          to label %24 unwind label %71

24:                                               ; preds = %22
  call void @llvm.lifetime.start.p0(i64 32, ptr nonnull %5) #33
  call void @llvm.experimental.noalias.scope.decl(metadata !35)
  call void @llvm.experimental.noalias.scope.decl(metadata !38)
  %25 = getelementptr inbounds %"class.std::__cxx11::basic_string", ptr %5, i64 0, i32 2
  store ptr %25, ptr %5, align 8, !tbaa !13, !alias.scope !41
  %26 = getelementptr inbounds %"class.std::__cxx11::basic_string", ptr %5, i64 0, i32 1
  store i64 0, ptr %26, align 8, !tbaa !12, !alias.scope !41
  store i8 0, ptr %25, align 8, !tbaa !14, !alias.scope !41
  %27 = getelementptr inbounds %"class.std::__cxx11::basic_stringstream", ptr %4, i64 0, i32 1, i32 0, i32 5
  %28 = load ptr, ptr %27, align 8, !tbaa !22, !noalias !41
  %29 = icmp eq ptr %28, null
  %30 = getelementptr inbounds %"class.std::__cxx11::basic_stringstream", ptr %4, i64 0, i32 1, i32 0, i32 3
  %31 = load ptr, ptr %30, align 8, !noalias !41
  %32 = icmp ugt ptr %28, %31
  %33 = select i1 %32, ptr %28, ptr %31
  %34 = icmp eq ptr %33, null
  %35 = select i1 %29, i1 true, i1 %34
  br i1 %35, label %47, label %36

36:                                               ; preds = %24
  %37 = getelementptr inbounds %"class.std::__cxx11::basic_stringstream", ptr %4, i64 0, i32 1, i32 0, i32 4
  %38 = load ptr, ptr %37, align 8, !tbaa !25, !noalias !41
  %39 = ptrtoint ptr %33 to i64
  %40 = ptrtoint ptr %38 to i64
  %41 = sub i64 %39, %40
  %42 = invoke noundef nonnull align 8 dereferenceable(32) ptr @_ZNSt7__cxx1112basic_stringIcSt11char_traitsIcESaIcEE10_M_replaceEmmPKcm(ptr noundef nonnull align 8 dereferenceable(32) %5, i64 noundef 0, i64 noundef 0, ptr noundef %38, i64 noundef %41)
          to label %49 unwind label %43

43:                                               ; preds = %47, %36
  %44 = landingpad { ptr, i32 }
          cleanup
  %45 = load ptr, ptr %5, align 8, !tbaa !5, !alias.scope !41
  %46 = icmp eq ptr %45, %25
  br i1 %46, label %82, label %79

47:                                               ; preds = %24
  %48 = getelementptr inbounds %"class.std::__cxx11::basic_stringstream", ptr %4, i64 0, i32 1, i32 2
  invoke void @_ZNSt7__cxx1112basic_stringIcSt11char_traitsIcESaIcEE9_M_assignERKS4_(ptr noundef nonnull align 8 dereferenceable(32) %5, ptr noundef nonnull align 8 dereferenceable(32) %48)
          to label %49 unwind label %43

49:                                               ; preds = %47, %36
  %50 = load atomic i8, ptr @_ZGVZN7testing8internal18GetFailureReporterEvE16failure_reporter acquire, align 8
  %51 = icmp eq i8 %50, 0
  br i1 %51, label %52, label %61, !prof !42

52:                                               ; preds = %49
  %53 = call i32 @__cxa_guard_acquire(ptr nonnull @_ZGVZN7testing8internal18GetFailureReporterEvE16failure_reporter) #33
  %54 = icmp eq i32 %53, 0
  br i1 %54, label %61, label %55

55:                                               ; preds = %52
  %56 = invoke noalias noundef nonnull dereferenceable(8) ptr @_Znwm(i64 noundef 8) #35
          to label %57 unwind label %59

57:                                               ; preds = %55
  store ptr getelementptr inbounds ({ [5 x ptr] }, ptr @_ZTVN7testing8internal25GoogleTestFailureReporterE, i64 0, inrange i32 0, i64 2), ptr %56, align 8, !tbaa !26
  store ptr %56, ptr @_ZZN7testing8internal18GetFailureReporterEvE16failure_reporter, align 8, !tbaa !43
  %58 = call ptr @llvm.invariant.start.p0(i64 8, ptr nonnull @_ZZN7testing8internal18GetFailureReporterEvE16failure_reporter)
  call void @__cxa_guard_release(ptr nonnull @_ZGVZN7testing8internal18GetFailureReporterEvE16failure_reporter) #33
  br label %61

59:                                               ; preds = %55
  %60 = landingpad { ptr, i32 }
          cleanup
  call void @__cxa_guard_abort(ptr nonnull @_ZGVZN7testing8internal18GetFailureReporterEvE16failure_reporter) #33
  br label %75

61:                                               ; preds = %57, %52, %49
  %62 = load ptr, ptr @_ZZN7testing8internal18GetFailureReporterEvE16failure_reporter, align 8, !tbaa !43
  %63 = load ptr, ptr %62, align 8, !tbaa !26
  %64 = getelementptr inbounds ptr, ptr %63, i64 2
  %65 = load ptr, ptr %64, align 8
  invoke void %65(ptr noundef nonnull align 8 dereferenceable(8) %62, i32 noundef 0, ptr noundef nonnull @.str.86, i32 noundef 58, ptr noundef nonnull align 8 dereferenceable(32) %5)
          to label %66 unwind label %73

66:                                               ; preds = %61
  %67 = load ptr, ptr %5, align 8, !tbaa !5
  %68 = icmp eq ptr %67, %25
  br i1 %68, label %70, label %69

69:                                               ; preds = %66
  call void @_ZdlPv(ptr noundef %67) #34
  br label %70

70:                                               ; preds = %69, %66
  call void @llvm.lifetime.end.p0(i64 32, ptr nonnull %5) #33
  br label %224

71:                                               ; preds = %164, %162, %160, %158, %155, %93, %91, %89, %86, %22, %20, %18, %15
  %72 = landingpad { ptr, i32 }
          cleanup
  br label %238

73:                                               ; preds = %61
  %74 = landingpad { ptr, i32 }
          cleanup
  br label %75

75:                                               ; preds = %73, %59
  %76 = phi { ptr, i32 } [ %74, %73 ], [ %60, %59 ]
  %77 = load ptr, ptr %5, align 8, !tbaa !5
  %78 = icmp eq ptr %77, %25
  br i1 %78, label %82, label %79

79:                                               ; preds = %75, %43
  %80 = phi ptr [ %45, %43 ], [ %77, %75 ]
  %81 = phi { ptr, i32 } [ %44, %43 ], [ %76, %75 ]
  call void @_ZdlPv(ptr noundef %80) #34
  br label %82

82:                                               ; preds = %79, %75, %43
  %83 = phi { ptr, i32 } [ %44, %43 ], [ %76, %75 ], [ %81, %79 ]
  call void @llvm.lifetime.end.p0(i64 32, ptr nonnull %5) #33
  br label %238

84:                                               ; preds = %13
  %85 = icmp slt i32 %2, 0
  br i1 %85, label %86, label %153

86:                                               ; preds = %84
  %87 = getelementptr inbounds i8, ptr %4, i64 16
  %88 = invoke noundef nonnull align 8 dereferenceable(8) ptr @_ZSt16__ostream_insertIcSt11char_traitsIcEERSt13basic_ostreamIT_T0_ES6_PKS3_l(ptr noundef nonnull align 8 dereferenceable(8) %87, ptr noundef nonnull @.str.87, i64 noundef 41)
          to label %89 unwind label %71

89:                                               ; preds = %86
  %90 = invoke noundef nonnull align 8 dereferenceable(8) ptr @_ZSt16__ostream_insertIcSt11char_traitsIcEERSt13basic_ostreamIT_T0_ES6_PKS3_l(ptr noundef nonnull align 8 dereferenceable(8) %87, ptr noundef nonnull @.str.85, i64 noundef 16)
          to label %91 unwind label %71

91:                                               ; preds = %89
  %92 = invoke noundef nonnull align 8 dereferenceable(8) ptr @_ZNSolsEi(ptr noundef nonnull align 8 dereferenceable(8) %87, i32 noundef %2)
          to label %93 unwind label %71

93:                                               ; preds = %91
  %94 = invoke noundef nonnull align 8 dereferenceable(8) ptr @_ZSt16__ostream_insertIcSt11char_traitsIcEERSt13basic_ostreamIT_T0_ES6_PKS3_l(ptr noundef nonnull align 8 dereferenceable(8) %92, ptr noundef nonnull @.str.65, i64 noundef 1)
          to label %95 unwind label %71

95:                                               ; preds = %93
  call void @llvm.lifetime.start.p0(i64 32, ptr nonnull %6) #33
  call void @llvm.experimental.noalias.scope.decl(metadata !44)
  call void @llvm.experimental.noalias.scope.decl(metadata !47)
  %96 = getelementptr inbounds %"class.std::__cxx11::basic_string", ptr %6, i64 0, i32 2
  store ptr %96, ptr %6, align 8, !tbaa !13, !alias.scope !50
  %97 = getelementptr inbounds %"class.std::__cxx11::basic_string", ptr %6, i64 0, i32 1
  store i64 0, ptr %97, align 8, !tbaa !12, !alias.scope !50
  store i8 0, ptr %96, align 8, !tbaa !14, !alias.scope !50
  %98 = getelementptr inbounds %"class.std::__cxx11::basic_stringstream", ptr %4, i64 0, i32 1, i32 0, i32 5
  %99 = load ptr, ptr %98, align 8, !tbaa !22, !noalias !50
  %100 = icmp eq ptr %99, null
  %101 = getelementptr inbounds %"class.std::__cxx11::basic_stringstream", ptr %4, i64 0, i32 1, i32 0, i32 3
  %102 = load ptr, ptr %101, align 8, !noalias !50
  %103 = icmp ugt ptr %99, %102
  %104 = select i1 %103, ptr %99, ptr %102
  %105 = icmp eq ptr %104, null
  %106 = select i1 %100, i1 true, i1 %105
  br i1 %106, label %118, label %107

107:                                              ; preds = %95
  %108 = getelementptr inbounds %"class.std::__cxx11::basic_stringstream", ptr %4, i64 0, i32 1, i32 0, i32 4
  %109 = load ptr, ptr %108, align 8, !tbaa !25, !noalias !50
  %110 = ptrtoint ptr %104 to i64
  %111 = ptrtoint ptr %109 to i64
  %112 = sub i64 %110, %111
  %113 = invoke noundef nonnull align 8 dereferenceable(32) ptr @_ZNSt7__cxx1112basic_stringIcSt11char_traitsIcESaIcEE10_M_replaceEmmPKcm(ptr noundef nonnull align 8 dereferenceable(32) %6, i64 noundef 0, i64 noundef 0, ptr noundef %109, i64 noundef %112)
          to label %120 unwind label %114

114:                                              ; preds = %118, %107
  %115 = landingpad { ptr, i32 }
          cleanup
  %116 = load ptr, ptr %6, align 8, !tbaa !5, !alias.scope !50
  %117 = icmp eq ptr %116, %96
  br i1 %117, label %151, label %148

118:                                              ; preds = %95
  %119 = getelementptr inbounds %"class.std::__cxx11::basic_stringstream", ptr %4, i64 0, i32 1, i32 2
  invoke void @_ZNSt7__cxx1112basic_stringIcSt11char_traitsIcESaIcEE9_M_assignERKS4_(ptr noundef nonnull align 8 dereferenceable(32) %6, ptr noundef nonnull align 8 dereferenceable(32) %119)
          to label %120 unwind label %114

120:                                              ; preds = %118, %107
  %121 = load atomic i8, ptr @_ZGVZN7testing8internal18GetFailureReporterEvE16failure_reporter acquire, align 8
  %122 = icmp eq i8 %121, 0
  br i1 %122, label %123, label %132, !prof !42

123:                                              ; preds = %120
  %124 = call i32 @__cxa_guard_acquire(ptr nonnull @_ZGVZN7testing8internal18GetFailureReporterEvE16failure_reporter) #33
  %125 = icmp eq i32 %124, 0
  br i1 %125, label %132, label %126

126:                                              ; preds = %123
  %127 = invoke noalias noundef nonnull dereferenceable(8) ptr @_Znwm(i64 noundef 8) #35
          to label %128 unwind label %130

128:                                              ; preds = %126
  store ptr getelementptr inbounds ({ [5 x ptr] }, ptr @_ZTVN7testing8internal25GoogleTestFailureReporterE, i64 0, inrange i32 0, i64 2), ptr %127, align 8, !tbaa !26
  store ptr %127, ptr @_ZZN7testing8internal18GetFailureReporterEvE16failure_reporter, align 8, !tbaa !43
  %129 = call ptr @llvm.invariant.start.p0(i64 8, ptr nonnull @_ZZN7testing8internal18GetFailureReporterEvE16failure_reporter)
  call void @__cxa_guard_release(ptr nonnull @_ZGVZN7testing8internal18GetFailureReporterEvE16failure_reporter) #33
  br label %132

130:                                              ; preds = %126
  %131 = landingpad { ptr, i32 }
          cleanup
  call void @__cxa_guard_abort(ptr nonnull @_ZGVZN7testing8internal18GetFailureReporterEvE16failure_reporter) #33
  br label %144

132:                                              ; preds = %128, %123, %120
  %133 = load ptr, ptr @_ZZN7testing8internal18GetFailureReporterEvE16failure_reporter, align 8, !tbaa !43
  %134 = load ptr, ptr %133, align 8, !tbaa !26
  %135 = getelementptr inbounds ptr, ptr %134, i64 2
  %136 = load ptr, ptr %135, align 8
  invoke void %136(ptr noundef nonnull align 8 dereferenceable(8) %133, i32 noundef 0, ptr noundef nonnull @.str.86, i32 noundef 62, ptr noundef nonnull align 8 dereferenceable(32) %6)
          to label %137 unwind label %142

137:                                              ; preds = %132
  %138 = load ptr, ptr %6, align 8, !tbaa !5
  %139 = icmp eq ptr %138, %96
  br i1 %139, label %141, label %140

140:                                              ; preds = %137
  call void @_ZdlPv(ptr noundef %138) #34
  br label %141

141:                                              ; preds = %140, %137
  call void @llvm.lifetime.end.p0(i64 32, ptr nonnull %6) #33
  br label %224

142:                                              ; preds = %132
  %143 = landingpad { ptr, i32 }
          cleanup
  br label %144

144:                                              ; preds = %142, %130
  %145 = phi { ptr, i32 } [ %143, %142 ], [ %131, %130 ]
  %146 = load ptr, ptr %6, align 8, !tbaa !5
  %147 = icmp eq ptr %146, %96
  br i1 %147, label %151, label %148

148:                                              ; preds = %144, %114
  %149 = phi ptr [ %116, %114 ], [ %146, %144 ]
  %150 = phi { ptr, i32 } [ %115, %114 ], [ %145, %144 ]
  call void @_ZdlPv(ptr noundef %149) #34
  br label %151

151:                                              ; preds = %148, %144, %114
  %152 = phi { ptr, i32 } [ %115, %114 ], [ %145, %144 ], [ %150, %148 ]
  call void @llvm.lifetime.end.p0(i64 32, ptr nonnull %6) #33
  br label %238

153:                                              ; preds = %84
  %154 = icmp ugt i32 %1, %2
  br i1 %154, label %155, label %224

155:                                              ; preds = %153
  %156 = getelementptr inbounds i8, ptr %4, i64 16
  %157 = invoke noundef nonnull align 8 dereferenceable(8) ptr @_ZSt16__ostream_insertIcSt11char_traitsIcEERSt13basic_ostreamIT_T0_ES6_PKS3_l(ptr noundef nonnull align 8 dereferenceable(8) %156, ptr noundef nonnull @.str.88, i64 noundef 28)
          to label %158 unwind label %71

158:                                              ; preds = %155
  %159 = invoke noundef nonnull align 8 dereferenceable(8) ptr @_ZNSolsEi(ptr noundef nonnull align 8 dereferenceable(8) %156, i32 noundef %2)
          to label %160 unwind label %71

160:                                              ; preds = %158
  %161 = invoke noundef nonnull align 8 dereferenceable(8) ptr @_ZSt16__ostream_insertIcSt11char_traitsIcEERSt13basic_ostreamIT_T0_ES6_PKS3_l(ptr noundef nonnull align 8 dereferenceable(8) %159, ptr noundef nonnull @.str.89, i64 noundef 41)
          to label %162 unwind label %71

162:                                              ; preds = %160
  %163 = invoke noundef nonnull align 8 dereferenceable(8) ptr @_ZNSolsEi(ptr noundef nonnull align 8 dereferenceable(8) %159, i32 noundef %1)
          to label %164 unwind label %71

164:                                              ; preds = %162
  %165 = invoke noundef nonnull align 8 dereferenceable(8) ptr @_ZSt16__ostream_insertIcSt11char_traitsIcEERSt13basic_ostreamIT_T0_ES6_PKS3_l(ptr noundef nonnull align 8 dereferenceable(8) %163, ptr noundef nonnull @.str.90, i64 noundef 2)
          to label %166 unwind label %71

166:                                              ; preds = %164
  call void @llvm.lifetime.start.p0(i64 32, ptr nonnull %7) #33
  call void @llvm.experimental.noalias.scope.decl(metadata !51)
  call void @llvm.experimental.noalias.scope.decl(metadata !54)
  %167 = getelementptr inbounds %"class.std::__cxx11::basic_string", ptr %7, i64 0, i32 2
  store ptr %167, ptr %7, align 8, !tbaa !13, !alias.scope !57
  %168 = getelementptr inbounds %"class.std::__cxx11::basic_string", ptr %7, i64 0, i32 1
  store i64 0, ptr %168, align 8, !tbaa !12, !alias.scope !57
  store i8 0, ptr %167, align 8, !tbaa !14, !alias.scope !57
  %169 = getelementptr inbounds %"class.std::__cxx11::basic_stringstream", ptr %4, i64 0, i32 1, i32 0, i32 5
  %170 = load ptr, ptr %169, align 8, !tbaa !22, !noalias !57
  %171 = icmp eq ptr %170, null
  %172 = getelementptr inbounds %"class.std::__cxx11::basic_stringstream", ptr %4, i64 0, i32 1, i32 0, i32 3
  %173 = load ptr, ptr %172, align 8, !noalias !57
  %174 = icmp ugt ptr %170, %173
  %175 = select i1 %174, ptr %170, ptr %173
  %176 = icmp eq ptr %175, null
  %177 = select i1 %171, i1 true, i1 %176
  br i1 %177, label %189, label %178

178:                                              ; preds = %166
  %179 = getelementptr inbounds %"class.std::__cxx11::basic_stringstream", ptr %4, i64 0, i32 1, i32 0, i32 4
  %180 = load ptr, ptr %179, align 8, !tbaa !25, !noalias !57
  %181 = ptrtoint ptr %175 to i64
  %182 = ptrtoint ptr %180 to i64
  %183 = sub i64 %181, %182
  %184 = invoke noundef nonnull align 8 dereferenceable(32) ptr @_ZNSt7__cxx1112basic_stringIcSt11char_traitsIcESaIcEE10_M_replaceEmmPKcm(ptr noundef nonnull align 8 dereferenceable(32) %7, i64 noundef 0, i64 noundef 0, ptr noundef %180, i64 noundef %183)
          to label %191 unwind label %185

185:                                              ; preds = %189, %178
  %186 = landingpad { ptr, i32 }
          cleanup
  %187 = load ptr, ptr %7, align 8, !tbaa !5, !alias.scope !57
  %188 = icmp eq ptr %187, %167
  br i1 %188, label %222, label %219

189:                                              ; preds = %166
  %190 = getelementptr inbounds %"class.std::__cxx11::basic_stringstream", ptr %4, i64 0, i32 1, i32 2
  invoke void @_ZNSt7__cxx1112basic_stringIcSt11char_traitsIcESaIcEE9_M_assignERKS4_(ptr noundef nonnull align 8 dereferenceable(32) %7, ptr noundef nonnull align 8 dereferenceable(32) %190)
          to label %191 unwind label %185

191:                                              ; preds = %189, %178
  %192 = load atomic i8, ptr @_ZGVZN7testing8internal18GetFailureReporterEvE16failure_reporter acquire, align 8
  %193 = icmp eq i8 %192, 0
  br i1 %193, label %194, label %203, !prof !42

194:                                              ; preds = %191
  %195 = call i32 @__cxa_guard_acquire(ptr nonnull @_ZGVZN7testing8internal18GetFailureReporterEvE16failure_reporter) #33
  %196 = icmp eq i32 %195, 0
  br i1 %196, label %203, label %197

197:                                              ; preds = %194
  %198 = invoke noalias noundef nonnull dereferenceable(8) ptr @_Znwm(i64 noundef 8) #35
          to label %199 unwind label %201

199:                                              ; preds = %197
  store ptr getelementptr inbounds ({ [5 x ptr] }, ptr @_ZTVN7testing8internal25GoogleTestFailureReporterE, i64 0, inrange i32 0, i64 2), ptr %198, align 8, !tbaa !26
  store ptr %198, ptr @_ZZN7testing8internal18GetFailureReporterEvE16failure_reporter, align 8, !tbaa !43
  %200 = call ptr @llvm.invariant.start.p0(i64 8, ptr nonnull @_ZZN7testing8internal18GetFailureReporterEvE16failure_reporter)
  call void @__cxa_guard_release(ptr nonnull @_ZGVZN7testing8internal18GetFailureReporterEvE16failure_reporter) #33
  br label %203

201:                                              ; preds = %197
  %202 = landingpad { ptr, i32 }
          cleanup
  call void @__cxa_guard_abort(ptr nonnull @_ZGVZN7testing8internal18GetFailureReporterEvE16failure_reporter) #33
  br label %215

203:                                              ; preds = %199, %194, %191
  %204 = load ptr, ptr @_ZZN7testing8internal18GetFailureReporterEvE16failure_reporter, align 8, !tbaa !43
  %205 = load ptr, ptr %204, align 8, !tbaa !26
  %206 = getelementptr inbounds ptr, ptr %205, i64 2
  %207 = load ptr, ptr %206, align 8
  invoke void %207(ptr noundef nonnull align 8 dereferenceable(8) %204, i32 noundef 0, ptr noundef nonnull @.str.86, i32 noundef 67, ptr noundef nonnull align 8 dereferenceable(32) %7)
          to label %208 unwind label %213

208:                                              ; preds = %203
  %209 = load ptr, ptr %7, align 8, !tbaa !5
  %210 = icmp eq ptr %209, %167
  br i1 %210, label %212, label %211

211:                                              ; preds = %208
  call void @_ZdlPv(ptr noundef %209) #34
  br label %212

212:                                              ; preds = %211, %208
  call void @llvm.lifetime.end.p0(i64 32, ptr nonnull %7) #33
  br label %224

213:                                              ; preds = %203
  %214 = landingpad { ptr, i32 }
          cleanup
  br label %215

215:                                              ; preds = %213, %201
  %216 = phi { ptr, i32 } [ %214, %213 ], [ %202, %201 ]
  %217 = load ptr, ptr %7, align 8, !tbaa !5
  %218 = icmp eq ptr %217, %167
  br i1 %218, label %222, label %219

219:                                              ; preds = %215, %185
  %220 = phi ptr [ %187, %185 ], [ %217, %215 ]
  %221 = phi { ptr, i32 } [ %186, %185 ], [ %216, %215 ]
  call void @_ZdlPv(ptr noundef %220) #34
  br label %222

222:                                              ; preds = %219, %215, %185
  %223 = phi { ptr, i32 } [ %186, %185 ], [ %216, %215 ], [ %221, %219 ]
  call void @llvm.lifetime.end.p0(i64 32, ptr nonnull %7) #33
  br label %238

224:                                              ; preds = %212, %153, %141, %70
  %225 = load ptr, ptr @_ZTTNSt7__cxx1118basic_stringstreamIcSt11char_traitsIcESaIcEEE, align 8
  store ptr %225, ptr %4, align 8, !tbaa !26
  %226 = load ptr, ptr getelementptr inbounds ([10 x ptr], ptr @_ZTTNSt7__cxx1118basic_stringstreamIcSt11char_traitsIcESaIcEEE, i64 0, i64 8), align 8
  %227 = getelementptr i8, ptr %225, i64 -24
  %228 = load i64, ptr %227, align 8
  %229 = getelementptr inbounds i8, ptr %4, i64 %228
  store ptr %226, ptr %229, align 8, !tbaa !26
  %230 = load ptr, ptr getelementptr inbounds ([10 x ptr], ptr @_ZTTNSt7__cxx1118basic_stringstreamIcSt11char_traitsIcESaIcEEE, i64 0, i64 9), align 8
  %231 = getelementptr inbounds i8, ptr %4, i64 16
  store ptr %230, ptr %231, align 8, !tbaa !26
  %232 = getelementptr inbounds %"class.std::__cxx11::basic_stringstream", ptr %4, i64 0, i32 1
  store ptr getelementptr inbounds ({ [16 x ptr] }, ptr @_ZTVNSt7__cxx1115basic_stringbufIcSt11char_traitsIcESaIcEEE, i64 0, inrange i32 0, i64 2), ptr %232, align 8, !tbaa !26
  %233 = getelementptr inbounds %"class.std::__cxx11::basic_stringstream", ptr %4, i64 0, i32 1, i32 2
  %234 = load ptr, ptr %233, align 8, !tbaa !5
  %235 = getelementptr inbounds %"class.std::__cxx11::basic_stringstream", ptr %4, i64 0, i32 1, i32 2, i32 2
  %236 = icmp eq ptr %234, %235
  br i1 %236, label %240, label %237

237:                                              ; preds = %224
  call void @_ZdlPv(ptr noundef %234) #34
  br label %240

238:                                              ; preds = %222, %151, %82, %71
  %239 = phi { ptr, i32 } [ %83, %82 ], [ %72, %71 ], [ %152, %151 ], [ %223, %222 ]
  call void @_ZNSt7__cxx1118basic_stringstreamIcSt11char_traitsIcESaIcEED1Ev(ptr noundef nonnull align 8 dereferenceable(128) %4) #33
  call void @llvm.lifetime.end.p0(i64 392, ptr nonnull %4) #33
  br label %272

240:                                              ; preds = %237, %224
  store ptr getelementptr inbounds ({ [16 x ptr] }, ptr @_ZTVSt15basic_streambufIcSt11char_traitsIcEE, i64 0, inrange i32 0, i64 2), ptr %232, align 8, !tbaa !26
  %241 = getelementptr inbounds %"class.std::__cxx11::basic_stringstream", ptr %4, i64 0, i32 1, i32 0, i32 7
  call void @_ZNSt6localeD1Ev(ptr noundef nonnull align 8 dereferenceable(8) %241) #33
  %242 = load ptr, ptr getelementptr inbounds ([10 x ptr], ptr @_ZTTNSt7__cxx1118basic_stringstreamIcSt11char_traitsIcESaIcEEE, i64 0, i64 2), align 8
  store ptr %242, ptr %4, align 8, !tbaa !26
  %243 = load ptr, ptr getelementptr inbounds ([10 x ptr], ptr @_ZTTNSt7__cxx1118basic_stringstreamIcSt11char_traitsIcESaIcEEE, i64 0, i64 3), align 8
  %244 = getelementptr i8, ptr %242, i64 -24
  %245 = load i64, ptr %244, align 8
  %246 = getelementptr inbounds i8, ptr %4, i64 %245
  store ptr %243, ptr %246, align 8, !tbaa !26
  %247 = getelementptr inbounds %"class.std::basic_istream", ptr %4, i64 0, i32 1
  store i64 0, ptr %247, align 8, !tbaa !28
  %248 = getelementptr inbounds i8, ptr %4, i64 128
  call void @_ZNSt8ios_baseD2Ev(ptr noundef nonnull align 8 dereferenceable(264) %248) #33
  call void @llvm.lifetime.end.p0(i64 392, ptr nonnull %4) #33
  store ptr %8, ptr %0, align 8, !tbaa !58
  %249 = getelementptr inbounds %"class.std::__shared_ptr", ptr %0, i64 0, i32 1
  store ptr null, ptr %249, align 8, !tbaa !61
  %250 = invoke noalias noundef nonnull dereferenceable(24) ptr @_Znwm(i64 noundef 24) #35
          to label %266 unwind label %251

251:                                              ; preds = %240
  %252 = landingpad { ptr, i32 }
          catch ptr null
  %253 = extractvalue { ptr, i32 } %252, 0
  %254 = call ptr @__cxa_begin_catch(ptr %253) #33
  %255 = load ptr, ptr %8, align 8, !tbaa !26
  %256 = getelementptr inbounds ptr, ptr %255, i64 1
  %257 = load ptr, ptr %256, align 8
  call void %257(ptr noundef nonnull align 8 dereferenceable(8) %8) #33
  invoke void @__cxa_rethrow() #36
          to label %265 unwind label %258

258:                                              ; preds = %251
  %259 = landingpad { ptr, i32 }
          cleanup
  invoke void @__cxa_end_catch()
          to label %260 unwind label %262

260:                                              ; preds = %258, %272
  %261 = phi { ptr, i32 } [ %273, %272 ], [ %259, %258 ]
  resume { ptr, i32 } %261

262:                                              ; preds = %258
  %263 = landingpad { ptr, i32 }
          catch ptr null
  %264 = extractvalue { ptr, i32 } %263, 0
  call void @__clang_call_terminate(ptr %264) #37
  unreachable

265:                                              ; preds = %251
  unreachable

266:                                              ; preds = %240
  %267 = getelementptr inbounds %"class.std::_Sp_counted_base", ptr %250, i64 0, i32 1
  store i32 1, ptr %267, align 8, !tbaa !62
  %268 = getelementptr inbounds %"class.std::_Sp_counted_base", ptr %250, i64 0, i32 2
  store i32 1, ptr %268, align 4, !tbaa !64
  store ptr getelementptr inbounds ({ [7 x ptr] }, ptr @_ZTVSt15_Sp_counted_ptrIPKN7testing20CardinalityInterfaceELN9__gnu_cxx12_Lock_policyE2EE, i64 0, inrange i32 0, i64 2), ptr %250, align 8, !tbaa !26
  %269 = getelementptr inbounds %"class.std::_Sp_counted_ptr", ptr %250, i64 0, i32 1
  store ptr %8, ptr %269, align 8, !tbaa !65
  store ptr %250, ptr %249, align 8, !tbaa !61
  ret void

270:                                              ; preds = %3
  %271 = landingpad { ptr, i32 }
          cleanup
  br label %272

272:                                              ; preds = %238, %270
  %273 = phi { ptr, i32 } [ %271, %270 ], [ %239, %238 ]
  call void @_ZdlPv(ptr noundef nonnull %8) #34
  br label %260
}

; Function Attrs: mustprogress uwtable
define dso_local void @_ZN7testing6AtMostEi(ptr noalias nocapture writeonly sret(%"class.testing::Cardinality") align 8 %0, i32 noundef %1) local_unnamed_addr #7 {
  tail call void @_ZN7testing7BetweenEii(ptr sret(%"class.testing::Cardinality") align 8 %0, i32 noundef 0, i32 noundef %1)
  ret void
}

; Function Attrs: mustprogress uwtable
define dso_local void @_ZN7testing9AnyNumberEv(ptr noalias nocapture writeonly sret(%"class.testing::Cardinality") align 8 %0) local_unnamed_addr #7 {
  tail call void @_ZN7testing7BetweenEii(ptr sret(%"class.testing::Cardinality") align 8 %0, i32 noundef 0, i32 noundef 2147483647)
  ret void
}

; Function Attrs: nobuiltin allocsize(0)
declare noundef nonnull ptr @_Znwm(i64 noundef) local_unnamed_addr #8

; Function Attrs: nobuiltin nounwind
declare void @_ZdlPv(ptr noundef) local_unnamed_addr #9

; Function Attrs: mustprogress uwtable
define dso_local void @_ZN7testing7ExactlyEi(ptr noalias nocapture writeonly sret(%"class.testing::Cardinality") align 8 %0, i32 noundef %1) local_unnamed_addr #7 {
  tail call void @_ZN7testing7BetweenEii(ptr sret(%"class.testing::Cardinality") align 8 %0, i32 noundef %1, i32 noundef %1)
  ret void
}

; Function Attrs: uwtable
define dso_local void @_ZN7testing8internal19JoinAsKeyValueTupleERKSt6vectorIPKcSaIS3_EERKS1_INSt7__cxx1112basic_stringIcSt11char_traitsIcESaIcEEESaISD_EE(ptr noalias sret(%"class.std::__cxx11::basic_string") align 8 %0, ptr noundef nonnull align 8 dereferenceable(24) %1, ptr noundef nonnull align 8 dereferenceable(24) %2) local_unnamed_addr #3 personality ptr @__gxx_personality_v0 {
  %4 = alloca %"class.testing::internal::GTestLog", align 4
  %5 = alloca %class.anon, align 8
  %6 = alloca %"class.std::__cxx11::basic_string", align 8
  %7 = alloca %"class.std::__cxx11::basic_string", align 8
  %8 = getelementptr inbounds %"struct.std::_Vector_base<const char *, std::allocator<const char *>>::_Vector_impl_data", ptr %1, i64 0, i32 1
  %9 = load ptr, ptr %8, align 8, !tbaa !67
  %10 = load ptr, ptr %1, align 8, !tbaa !69
  %11 = ptrtoint ptr %9 to i64
  %12 = ptrtoint ptr %10 to i64
  %13 = sub i64 %11, %12
  %14 = ashr exact i64 %13, 3
  %15 = getelementptr inbounds %"struct.std::_Vector_base<std::__cxx11::basic_string<char>, std::allocator<std::__cxx11::basic_string<char>>>::_Vector_impl_data", ptr %2, i64 0, i32 1
  %16 = load ptr, ptr %15, align 8, !tbaa !70
  %17 = load ptr, ptr %2, align 8, !tbaa !72
  %18 = ptrtoint ptr %16 to i64
  %19 = ptrtoint ptr %17 to i64
  %20 = sub i64 %18, %19
  %21 = ashr exact i64 %20, 5
  %22 = icmp eq i64 %14, %21
  %23 = tail call noundef zeroext i1 @_ZN7testing8internal6IsTrueEb(i1 noundef zeroext %22)
  br i1 %23, label %29, label %24

24:                                               ; preds = %3
  call void @llvm.lifetime.start.p0(i64 4, ptr nonnull %4) #33
  call void @_ZN7testing8internal8GTestLogC1ENS0_16GTestLogSeverityEPKci(ptr noundef nonnull align 4 dereferenceable(4) %4, i32 noundef 3, ptr noundef nonnull @.str.2, i32 noundef 60)
  %25 = invoke noundef nonnull align 8 dereferenceable(8) ptr @_ZSt16__ostream_insertIcSt11char_traitsIcEERSt13basic_ostreamIT_T0_ES6_PKS3_l(ptr noundef nonnull align 8 dereferenceable(8) @_ZSt4cerr, ptr noundef nonnull @.str.3, i64 noundef 48)
          to label %26 unwind label %27

26:                                               ; preds = %24
  call void @_ZN7testing8internal8GTestLogD1Ev(ptr noundef nonnull align 4 dereferenceable(4) %4) #33
  call void @llvm.lifetime.end.p0(i64 4, ptr nonnull %4) #33
  br label %29

27:                                               ; preds = %24
  %28 = landingpad { ptr, i32 }
          cleanup
  call void @_ZN7testing8internal8GTestLogD1Ev(ptr noundef nonnull align 4 dereferenceable(4) %4) #33
  call void @llvm.lifetime.end.p0(i64 4, ptr nonnull %4) #33
  br label %145

29:                                               ; preds = %3, %26
  %30 = load ptr, ptr %2, align 8, !tbaa !43
  %31 = load ptr, ptr %15, align 8, !tbaa !43
  %32 = icmp eq ptr %30, %31
  br i1 %32, label %33, label %36

33:                                               ; preds = %29
  %34 = getelementptr inbounds %"class.std::__cxx11::basic_string", ptr %0, i64 0, i32 2
  store ptr %34, ptr %0, align 8, !tbaa !13
  %35 = getelementptr inbounds %"class.std::__cxx11::basic_string", ptr %0, i64 0, i32 1
  store i64 0, ptr %35, align 8, !tbaa !12
  store i8 0, ptr %34, align 8, !tbaa !14
  br label %144

36:                                               ; preds = %29
  call void @llvm.lifetime.start.p0(i64 16, ptr nonnull %5) #33
  store ptr %1, ptr %5, align 8, !tbaa !43
  %37 = getelementptr inbounds %class.anon, ptr %5, i64 0, i32 1
  store ptr %2, ptr %37, align 8, !tbaa !43
  call void @llvm.lifetime.start.p0(i64 32, ptr nonnull %6) #33
  call fastcc void @"_ZZN7testing8internal19JoinAsKeyValueTupleERKSt6vectorIPKcSaIS3_EERKS1_INSt7__cxx1112basic_stringIcSt11char_traitsIcESaIcEEESaISD_EEENK3$_0clB5cxx11Em"(ptr noalias nonnull align 8 %6, ptr noundef nonnull align 8 dereferenceable(16) %5, i64 noundef 0)
  %38 = invoke noundef nonnull align 8 dereferenceable(32) ptr @_ZNSt7__cxx1112basic_stringIcSt11char_traitsIcESaIcEE10_M_replaceEmmPKcm(ptr noundef nonnull align 8 dereferenceable(32) %6, i64 noundef 0, i64 noundef 0, ptr noundef nonnull @.str.5, i64 noundef 1)
          to label %39 unwind label %77

39:                                               ; preds = %36
  %40 = getelementptr inbounds %"class.std::__cxx11::basic_string", ptr %0, i64 0, i32 2
  store ptr %40, ptr %0, align 8, !tbaa !13, !alias.scope !73
  %41 = load ptr, ptr %38, align 8, !tbaa !5
  %42 = getelementptr inbounds %"class.std::__cxx11::basic_string", ptr %38, i64 0, i32 2
  %43 = icmp eq ptr %41, %42
  br i1 %43, label %44, label %50

44:                                               ; preds = %39
  %45 = getelementptr inbounds %"class.std::__cxx11::basic_string", ptr %38, i64 0, i32 1
  %46 = load i64, ptr %45, align 8, !tbaa !12
  %47 = add i64 %46, 1
  %48 = icmp eq i64 %47, 0
  br i1 %48, label %52, label %49

49:                                               ; preds = %44
  call void @llvm.memcpy.p0.p0.i64(ptr nonnull align 8 %40, ptr nonnull align 8 %41, i64 %47, i1 false)
  br label %52

50:                                               ; preds = %39
  store ptr %41, ptr %0, align 8, !tbaa !5, !alias.scope !73
  %51 = load i64, ptr %42, align 8, !tbaa !14
  store i64 %51, ptr %40, align 8, !tbaa !14, !alias.scope !73
  br label %52

52:                                               ; preds = %50, %49, %44
  %53 = getelementptr inbounds %"class.std::__cxx11::basic_string", ptr %38, i64 0, i32 1
  %54 = load i64, ptr %53, align 8, !tbaa !12
  %55 = getelementptr inbounds %"class.std::__cxx11::basic_string", ptr %0, i64 0, i32 1
  store i64 %54, ptr %55, align 8, !tbaa !12, !alias.scope !73
  store ptr %42, ptr %38, align 8, !tbaa !5
  store i64 0, ptr %53, align 8, !tbaa !12
  store i8 0, ptr %42, align 8, !tbaa !14
  %56 = load ptr, ptr %6, align 8, !tbaa !5
  %57 = getelementptr inbounds %"class.std::__cxx11::basic_string", ptr %6, i64 0, i32 2
  %58 = icmp eq ptr %56, %57
  br i1 %58, label %60, label %59

59:                                               ; preds = %52
  call void @_ZdlPv(ptr noundef %56) #34
  br label %60

60:                                               ; preds = %52, %59
  call void @llvm.lifetime.end.p0(i64 32, ptr nonnull %6) #33
  %61 = load ptr, ptr %15, align 8, !tbaa !70
  %62 = load ptr, ptr %2, align 8, !tbaa !72
  %63 = ptrtoint ptr %61 to i64
  %64 = ptrtoint ptr %62 to i64
  %65 = sub i64 %63, %64
  %66 = icmp ugt i64 %65, 32
  br i1 %66, label %67, label %70

67:                                               ; preds = %60
  %68 = getelementptr inbounds %"class.std::__cxx11::basic_string", ptr %7, i64 0, i32 1
  %69 = getelementptr inbounds %"class.std::__cxx11::basic_string", ptr %7, i64 0, i32 2
  br label %84

70:                                               ; preds = %108, %60
  %71 = load i64, ptr %55, align 8, !tbaa !12
  %72 = icmp eq i64 %71, 4611686018427387903
  br i1 %72, label %73, label %75

73:                                               ; preds = %70
  invoke void @_ZSt20__throw_length_errorPKc(ptr noundef nonnull @.str.95) #36
          to label %74 unwind label %134

74:                                               ; preds = %73
  unreachable

75:                                               ; preds = %70
  %76 = invoke noundef nonnull align 8 dereferenceable(32) ptr @_ZNSt7__cxx1112basic_stringIcSt11char_traitsIcESaIcEE9_M_appendEPKcm(ptr noundef nonnull align 8 dereferenceable(32) %0, ptr noundef nonnull @.str.7, i64 noundef 1)
          to label %136 unwind label %134

77:                                               ; preds = %36
  %78 = landingpad { ptr, i32 }
          cleanup
  %79 = load ptr, ptr %6, align 8, !tbaa !5
  %80 = getelementptr inbounds %"class.std::__cxx11::basic_string", ptr %6, i64 0, i32 2
  %81 = icmp eq ptr %79, %80
  br i1 %81, label %83, label %82

82:                                               ; preds = %77
  call void @_ZdlPv(ptr noundef %79) #34
  br label %83

83:                                               ; preds = %77, %82
  call void @llvm.lifetime.end.p0(i64 32, ptr nonnull %6) #33
  br label %142

84:                                               ; preds = %67, %108
  %85 = phi i64 [ 1, %67 ], [ %109, %108 ]
  %86 = load i64, ptr %55, align 8, !tbaa !12
  %87 = and i64 %86, -2
  %88 = icmp eq i64 %87, 4611686018427387902
  br i1 %88, label %89, label %91

89:                                               ; preds = %84
  invoke void @_ZSt20__throw_length_errorPKc(ptr noundef nonnull @.str.95) #36
          to label %90 unwind label %119

90:                                               ; preds = %89
  unreachable

91:                                               ; preds = %84
  %92 = invoke noundef nonnull align 8 dereferenceable(32) ptr @_ZNSt7__cxx1112basic_stringIcSt11char_traitsIcESaIcEE9_M_appendEPKcm(ptr noundef nonnull align 8 dereferenceable(32) %0, ptr noundef nonnull @.str.6, i64 noundef 2)
          to label %93 unwind label %117

93:                                               ; preds = %91
  call void @llvm.lifetime.start.p0(i64 32, ptr nonnull %7) #33
  invoke fastcc void @"_ZZN7testing8internal19JoinAsKeyValueTupleERKSt6vectorIPKcSaIS3_EERKS1_INSt7__cxx1112basic_stringIcSt11char_traitsIcESaIcEEESaISD_EEENK3$_0clB5cxx11Em"(ptr noalias nonnull align 8 %7, ptr noundef nonnull align 8 dereferenceable(16) %5, i64 noundef %85)
          to label %94 unwind label %121

94:                                               ; preds = %93
  %95 = load i64, ptr %68, align 8, !tbaa !12
  %96 = load i64, ptr %55, align 8, !tbaa !12
  %97 = sub i64 4611686018427387903, %96
  %98 = icmp ult i64 %97, %95
  br i1 %98, label %99, label %101

99:                                               ; preds = %94
  invoke void @_ZSt20__throw_length_errorPKc(ptr noundef nonnull @.str.95) #36
          to label %100 unwind label %125

100:                                              ; preds = %99
  unreachable

101:                                              ; preds = %94
  %102 = load ptr, ptr %7, align 8, !tbaa !5
  %103 = invoke noundef nonnull align 8 dereferenceable(32) ptr @_ZNSt7__cxx1112basic_stringIcSt11char_traitsIcESaIcEE9_M_appendEPKcm(ptr noundef nonnull align 8 dereferenceable(32) %0, ptr noundef %102, i64 noundef %95)
          to label %104 unwind label %123

104:                                              ; preds = %101
  %105 = load ptr, ptr %7, align 8, !tbaa !5
  %106 = icmp eq ptr %105, %69
  br i1 %106, label %108, label %107

107:                                              ; preds = %104
  call void @_ZdlPv(ptr noundef %105) #34
  br label %108

108:                                              ; preds = %104, %107
  call void @llvm.lifetime.end.p0(i64 32, ptr nonnull %7) #33
  %109 = add nuw i64 %85, 1
  %110 = load ptr, ptr %15, align 8, !tbaa !70
  %111 = load ptr, ptr %2, align 8, !tbaa !72
  %112 = ptrtoint ptr %110 to i64
  %113 = ptrtoint ptr %111 to i64
  %114 = sub i64 %112, %113
  %115 = ashr exact i64 %114, 5
  %116 = icmp ult i64 %109, %115
  br i1 %116, label %84, label %70, !llvm.loop !76

117:                                              ; preds = %91
  %118 = landingpad { ptr, i32 }
          cleanup
  br label %137

119:                                              ; preds = %89
  %120 = landingpad { ptr, i32 }
          cleanup
  br label %137

121:                                              ; preds = %93
  %122 = landingpad { ptr, i32 }
          cleanup
  br label %132

123:                                              ; preds = %101
  %124 = landingpad { ptr, i32 }
          cleanup
  br label %127

125:                                              ; preds = %99
  %126 = landingpad { ptr, i32 }
          cleanup
  br label %127

127:                                              ; preds = %125, %123
  %128 = phi { ptr, i32 } [ %124, %123 ], [ %126, %125 ]
  %129 = load ptr, ptr %7, align 8, !tbaa !5
  %130 = icmp eq ptr %129, %69
  br i1 %130, label %132, label %131

131:                                              ; preds = %127
  call void @_ZdlPv(ptr noundef %129) #34
  br label %132

132:                                              ; preds = %131, %127, %121
  %133 = phi { ptr, i32 } [ %122, %121 ], [ %128, %127 ], [ %128, %131 ]
  call void @llvm.lifetime.end.p0(i64 32, ptr nonnull %7) #33
  br label %137

134:                                              ; preds = %75, %73
  %135 = landingpad { ptr, i32 }
          cleanup
  br label %137

136:                                              ; preds = %75
  call void @llvm.lifetime.end.p0(i64 16, ptr nonnull %5) #33
  br label %144

137:                                              ; preds = %117, %119, %132, %134
  %138 = phi { ptr, i32 } [ %135, %134 ], [ %133, %132 ], [ %118, %117 ], [ %120, %119 ]
  %139 = load ptr, ptr %0, align 8, !tbaa !5
  %140 = icmp eq ptr %139, %40
  br i1 %140, label %142, label %141

141:                                              ; preds = %137
  call void @_ZdlPv(ptr noundef %139) #34
  br label %142

142:                                              ; preds = %141, %137, %83
  %143 = phi { ptr, i32 } [ %78, %83 ], [ %138, %137 ], [ %138, %141 ]
  call void @llvm.lifetime.end.p0(i64 16, ptr nonnull %5) #33
  br label %145

144:                                              ; preds = %136, %33
  ret void

145:                                              ; preds = %142, %27
  %146 = phi { ptr, i32 } [ %143, %142 ], [ %28, %27 ]
  resume { ptr, i32 } %146
}

declare noundef zeroext i1 @_ZN7testing8internal6IsTrueEb(i1 noundef zeroext) local_unnamed_addr #0

declare void @_ZN7testing8internal8GTestLogC1ENS0_16GTestLogSeverityEPKci(ptr noundef nonnull align 4 dereferenceable(4), i32 noundef, ptr noundef, i32 noundef) unnamed_addr #0

; Function Attrs: nounwind
declare void @_ZN7testing8internal8GTestLogD1Ev(ptr noundef nonnull align 4 dereferenceable(4)) unnamed_addr #1

; Function Attrs: inlinehint uwtable
define internal fastcc void @"_ZZN7testing8internal19JoinAsKeyValueTupleERKSt6vectorIPKcSaIS3_EERKS1_INSt7__cxx1112basic_stringIcSt11char_traitsIcESaIcEEESaISD_EEENK3$_0clB5cxx11Em"(ptr noalias align 8 %0, ptr nocapture noundef nonnull readonly align 8 dereferenceable(16) %1, i64 noundef %2) unnamed_addr #5 align 2 personality ptr @__gxx_personality_v0 {
  %4 = alloca i64, align 8
  %5 = alloca %"class.std::__cxx11::basic_string", align 8
  %6 = alloca %"class.std::__cxx11::basic_string", align 8
  call void @llvm.lifetime.start.p0(i64 32, ptr nonnull %5) #33
  call void @llvm.lifetime.start.p0(i64 32, ptr nonnull %6) #33
  %7 = load ptr, ptr %1, align 8, !tbaa !78
  %8 = load ptr, ptr %7, align 8, !tbaa !69
  %9 = getelementptr inbounds ptr, ptr %8, i64 %2
  %10 = load ptr, ptr %9, align 8, !tbaa !43
  %11 = getelementptr inbounds %"class.std::__cxx11::basic_string", ptr %6, i64 0, i32 2
  store ptr %11, ptr %6, align 8, !tbaa !13
  %12 = icmp eq ptr %10, null
  br i1 %12, label %13, label %14

13:                                               ; preds = %3
  call void @_ZSt19__throw_logic_errorPKc(ptr noundef nonnull @.str.126) #36
  unreachable

14:                                               ; preds = %3
  %15 = call i64 @strlen(ptr noundef nonnull dereferenceable(1) %10) #33
  call void @llvm.lifetime.start.p0(i64 8, ptr nonnull %4) #33
  store i64 %15, ptr %4, align 8, !tbaa !80
  %16 = icmp ugt i64 %15, 15
  br i1 %16, label %17, label %20

17:                                               ; preds = %14
  %18 = call noundef ptr @_ZNSt7__cxx1112basic_stringIcSt11char_traitsIcESaIcEE9_M_createERmm(ptr noundef nonnull align 8 dereferenceable(32) %6, ptr noundef nonnull align 8 dereferenceable(8) %4, i64 noundef 0)
  store ptr %18, ptr %6, align 8, !tbaa !5
  %19 = load i64, ptr %4, align 8, !tbaa !80
  store i64 %19, ptr %11, align 8, !tbaa !14
  br label %20

20:                                               ; preds = %17, %14
  %21 = phi ptr [ %18, %17 ], [ %11, %14 ]
  switch i64 %15, label %24 [
    i64 1, label %22
    i64 0, label %25
  ]

22:                                               ; preds = %20
  %23 = load i8, ptr %10, align 1, !tbaa !14
  store i8 %23, ptr %21, align 1, !tbaa !14
  br label %25

24:                                               ; preds = %20
  call void @llvm.memcpy.p0.p0.i64(ptr align 1 %21, ptr nonnull align 1 %10, i64 %15, i1 false)
  br label %25

25:                                               ; preds = %24, %22, %20
  %26 = load i64, ptr %4, align 8, !tbaa !80
  %27 = getelementptr inbounds %"class.std::__cxx11::basic_string", ptr %6, i64 0, i32 1
  store i64 %26, ptr %27, align 8, !tbaa !12
  %28 = load ptr, ptr %6, align 8, !tbaa !5
  %29 = getelementptr inbounds i8, ptr %28, i64 %26
  store i8 0, ptr %29, align 1, !tbaa !14
  call void @llvm.lifetime.end.p0(i64 8, ptr nonnull %4) #33
  call void @llvm.experimental.noalias.scope.decl(metadata !81)
  %30 = load i64, ptr %27, align 8, !tbaa !12, !noalias !81
  %31 = and i64 %30, -2
  %32 = icmp eq i64 %31, 4611686018427387902
  br i1 %32, label %33, label %35

33:                                               ; preds = %25
  invoke void @_ZSt20__throw_length_errorPKc(ptr noundef nonnull @.str.95) #36
          to label %34 unwind label %93

34:                                               ; preds = %33
  unreachable

35:                                               ; preds = %25
  %36 = invoke noundef nonnull align 8 dereferenceable(32) ptr @_ZNSt7__cxx1112basic_stringIcSt11char_traitsIcESaIcEE9_M_appendEPKcm(ptr noundef nonnull align 8 dereferenceable(32) %6, ptr noundef nonnull @.str.33, i64 noundef 2)
          to label %37 unwind label %93

37:                                               ; preds = %35
  %38 = getelementptr inbounds %"class.std::__cxx11::basic_string", ptr %5, i64 0, i32 2
  store ptr %38, ptr %5, align 8, !tbaa !13, !alias.scope !81
  %39 = load ptr, ptr %36, align 8, !tbaa !5
  %40 = getelementptr inbounds %"class.std::__cxx11::basic_string", ptr %36, i64 0, i32 2
  %41 = icmp eq ptr %39, %40
  br i1 %41, label %42, label %48

42:                                               ; preds = %37
  %43 = getelementptr inbounds %"class.std::__cxx11::basic_string", ptr %36, i64 0, i32 1
  %44 = load i64, ptr %43, align 8, !tbaa !12
  %45 = add i64 %44, 1
  %46 = icmp eq i64 %45, 0
  br i1 %46, label %50, label %47

47:                                               ; preds = %42
  call void @llvm.memcpy.p0.p0.i64(ptr nonnull align 8 %38, ptr nonnull align 8 %39, i64 %45, i1 false)
  br label %50

48:                                               ; preds = %37
  store ptr %39, ptr %5, align 8, !tbaa !5, !alias.scope !81
  %49 = load i64, ptr %40, align 8, !tbaa !14
  store i64 %49, ptr %38, align 8, !tbaa !14, !alias.scope !81
  br label %50

50:                                               ; preds = %48, %47, %42
  %51 = getelementptr inbounds %"class.std::__cxx11::basic_string", ptr %36, i64 0, i32 1
  %52 = load i64, ptr %51, align 8, !tbaa !12
  %53 = getelementptr inbounds %"class.std::__cxx11::basic_string", ptr %5, i64 0, i32 1
  store i64 %52, ptr %53, align 8, !tbaa !12, !alias.scope !81
  store ptr %40, ptr %36, align 8, !tbaa !5
  store i64 0, ptr %51, align 8, !tbaa !12
  store i8 0, ptr %40, align 8, !tbaa !14
  %54 = getelementptr inbounds %class.anon, ptr %1, i64 0, i32 1
  %55 = load ptr, ptr %54, align 8, !tbaa !84
  %56 = load ptr, ptr %55, align 8, !tbaa !72
  call void @llvm.experimental.noalias.scope.decl(metadata !85)
  %57 = getelementptr inbounds %"class.std::__cxx11::basic_string", ptr %56, i64 %2, i32 1
  %58 = load i64, ptr %57, align 8, !tbaa !12, !noalias !85
  %59 = load i64, ptr %53, align 8, !tbaa !12, !noalias !85
  %60 = sub i64 4611686018427387903, %59
  %61 = icmp ult i64 %60, %58
  br i1 %61, label %62, label %64

62:                                               ; preds = %50
  invoke void @_ZSt20__throw_length_errorPKc(ptr noundef nonnull @.str.95) #36
          to label %63 unwind label %95

63:                                               ; preds = %62
  unreachable

64:                                               ; preds = %50
  %65 = getelementptr inbounds %"class.std::__cxx11::basic_string", ptr %56, i64 %2
  %66 = load ptr, ptr %65, align 8, !tbaa !5, !noalias !85
  %67 = invoke noundef nonnull align 8 dereferenceable(32) ptr @_ZNSt7__cxx1112basic_stringIcSt11char_traitsIcESaIcEE9_M_appendEPKcm(ptr noundef nonnull align 8 dereferenceable(32) %5, ptr noundef %66, i64 noundef %58)
          to label %68 unwind label %95

68:                                               ; preds = %64
  %69 = getelementptr inbounds %"class.std::__cxx11::basic_string", ptr %0, i64 0, i32 2
  store ptr %69, ptr %0, align 8, !tbaa !13, !alias.scope !85
  %70 = load ptr, ptr %67, align 8, !tbaa !5
  %71 = getelementptr inbounds %"class.std::__cxx11::basic_string", ptr %67, i64 0, i32 2
  %72 = icmp eq ptr %70, %71
  br i1 %72, label %73, label %79

73:                                               ; preds = %68
  %74 = getelementptr inbounds %"class.std::__cxx11::basic_string", ptr %67, i64 0, i32 1
  %75 = load i64, ptr %74, align 8, !tbaa !12
  %76 = add i64 %75, 1
  %77 = icmp eq i64 %76, 0
  br i1 %77, label %81, label %78

78:                                               ; preds = %73
  call void @llvm.memcpy.p0.p0.i64(ptr nonnull align 8 %69, ptr nonnull align 8 %70, i64 %76, i1 false)
  br label %81

79:                                               ; preds = %68
  store ptr %70, ptr %0, align 8, !tbaa !5, !alias.scope !85
  %80 = load i64, ptr %71, align 8, !tbaa !14
  store i64 %80, ptr %69, align 8, !tbaa !14, !alias.scope !85
  br label %81

81:                                               ; preds = %79, %78, %73
  %82 = getelementptr inbounds %"class.std::__cxx11::basic_string", ptr %67, i64 0, i32 1
  %83 = load i64, ptr %82, align 8, !tbaa !12
  %84 = getelementptr inbounds %"class.std::__cxx11::basic_string", ptr %0, i64 0, i32 1
  store i64 %83, ptr %84, align 8, !tbaa !12, !alias.scope !85
  store ptr %71, ptr %67, align 8, !tbaa !5
  store i64 0, ptr %82, align 8, !tbaa !12
  store i8 0, ptr %71, align 8, !tbaa !14
  %85 = load ptr, ptr %5, align 8, !tbaa !5
  %86 = icmp eq ptr %85, %38
  br i1 %86, label %88, label %87

87:                                               ; preds = %81
  call void @_ZdlPv(ptr noundef %85) #34
  br label %88

88:                                               ; preds = %81, %87
  %89 = load ptr, ptr %6, align 8, !tbaa !5
  %90 = icmp eq ptr %89, %11
  br i1 %90, label %92, label %91

91:                                               ; preds = %88
  call void @_ZdlPv(ptr noundef %89) #34
  br label %92

92:                                               ; preds = %88, %91
  call void @llvm.lifetime.end.p0(i64 32, ptr nonnull %6) #33
  call void @llvm.lifetime.end.p0(i64 32, ptr nonnull %5) #33
  ret void

93:                                               ; preds = %35, %33
  %94 = landingpad { ptr, i32 }
          cleanup
  br label %100

95:                                               ; preds = %64, %62
  %96 = landingpad { ptr, i32 }
          cleanup
  %97 = load ptr, ptr %5, align 8, !tbaa !5
  %98 = icmp eq ptr %97, %38
  br i1 %98, label %100, label %99

99:                                               ; preds = %95
  call void @_ZdlPv(ptr noundef %97) #34
  br label %100

100:                                              ; preds = %99, %95, %93
  %101 = phi { ptr, i32 } [ %94, %93 ], [ %96, %95 ], [ %96, %99 ]
  %102 = load ptr, ptr %6, align 8, !tbaa !5
  %103 = icmp eq ptr %102, %11
  br i1 %103, label %105, label %104

104:                                              ; preds = %100
  call void @_ZdlPv(ptr noundef %102) #34
  br label %105

105:                                              ; preds = %104, %100
  call void @llvm.lifetime.end.p0(i64 32, ptr nonnull %6) #33
  call void @llvm.lifetime.end.p0(i64 32, ptr nonnull %5) #33
  resume { ptr, i32 } %101
}

; Function Attrs: uwtable
define dso_local void @_ZN7testing8internal28ConvertIdentifierNameToWordsB5cxx11EPKc(ptr noalias sret(%"class.std::__cxx11::basic_string") align 8 %0, ptr nocapture noundef readonly %1) local_unnamed_addr #3 personality ptr @__gxx_personality_v0 {
  %3 = getelementptr inbounds %"class.std::__cxx11::basic_string", ptr %0, i64 0, i32 2
  store ptr %3, ptr %0, align 8, !tbaa !13
  %4 = getelementptr inbounds %"class.std::__cxx11::basic_string", ptr %0, i64 0, i32 1
  store i64 0, ptr %4, align 8, !tbaa !12
  store i8 0, ptr %3, align 8, !tbaa !14
  %5 = load i8, ptr %1, align 1, !tbaa !14
  %6 = icmp eq i8 %5, 0
  br i1 %6, label %86, label %7

7:                                                ; preds = %2, %81
  %8 = phi i8 [ %84, %81 ], [ %5, %2 ]
  %9 = phi i8 [ %82, %81 ], [ 0, %2 ]
  %10 = phi ptr [ %83, %81 ], [ %1, %2 ]
  %11 = zext i8 %8 to i32
  %12 = tail call i32 @isupper(i32 noundef %11) #38
  %13 = icmp eq i32 %12, 0
  br i1 %13, label %14, label %27

14:                                               ; preds = %7
  %15 = zext i8 %9 to i32
  %16 = tail call i32 @isalpha(i32 noundef %15) #38
  %17 = icmp eq i32 %16, 0
  br i1 %17, label %18, label %21

18:                                               ; preds = %14
  %19 = tail call i32 @islower(i32 noundef %11) #38
  %20 = icmp eq i32 %19, 0
  br i1 %20, label %21, label %27

21:                                               ; preds = %18, %14
  %22 = add nsw i32 %15, -48
  %23 = icmp ult i32 %22, 10
  br i1 %23, label %31, label %24

24:                                               ; preds = %21
  %25 = add nsw i32 %11, -48
  %26 = icmp ult i32 %25, 10
  br label %27

27:                                               ; preds = %24, %18, %7
  %28 = phi i1 [ true, %18 ], [ true, %7 ], [ %26, %24 ]
  %29 = tail call i32 @isalnum(i32 noundef %11) #38
  %30 = icmp eq i32 %29, 0
  br i1 %30, label %81, label %34

31:                                               ; preds = %21
  %32 = tail call i32 @isalnum(i32 noundef %11) #38
  %33 = icmp eq i32 %32, 0
  br i1 %33, label %81, label %60

34:                                               ; preds = %27
  br i1 %28, label %35, label %60

35:                                               ; preds = %34
  %36 = tail call noundef i32 @_ZNKSt7__cxx1112basic_stringIcSt11char_traitsIcESaIcEE7compareEPKc(ptr noundef nonnull align 8 dereferenceable(32) %0, ptr noundef nonnull @.str.4) #33
  %37 = icmp eq i32 %36, 0
  br i1 %37, label %60, label %38

38:                                               ; preds = %35
  %39 = load i64, ptr %4, align 8, !tbaa !12
  %40 = add i64 %39, 1
  %41 = load ptr, ptr %0, align 8, !tbaa !5
  %42 = icmp eq ptr %41, %3
  %43 = load i64, ptr %3, align 8
  %44 = select i1 %42, i64 15, i64 %43
  %45 = icmp ugt i64 %40, %44
  br i1 %45, label %46, label %49

46:                                               ; preds = %38
  invoke void @_ZNSt7__cxx1112basic_stringIcSt11char_traitsIcESaIcEE9_M_mutateEmmPKcm(ptr noundef nonnull align 8 dereferenceable(32) %0, i64 noundef %39, i64 noundef 0, ptr noundef null, i64 noundef 1)
          to label %47 unwind label %54

47:                                               ; preds = %46
  %48 = load ptr, ptr %0, align 8, !tbaa !5
  br label %49

49:                                               ; preds = %38, %47
  %50 = phi ptr [ %48, %47 ], [ %41, %38 ]
  %51 = getelementptr inbounds i8, ptr %50, i64 %39
  store i8 32, ptr %51, align 1, !tbaa !14
  store i64 %40, ptr %4, align 8, !tbaa !12
  %52 = load ptr, ptr %0, align 8, !tbaa !5
  %53 = getelementptr inbounds i8, ptr %52, i64 %40
  store i8 0, ptr %53, align 1, !tbaa !14
  br label %60

54:                                               ; preds = %72, %46
  %55 = landingpad { ptr, i32 }
          cleanup
  %56 = load ptr, ptr %0, align 8, !tbaa !5
  %57 = icmp eq ptr %56, %3
  br i1 %57, label %59, label %58

58:                                               ; preds = %54
  tail call void @_ZdlPv(ptr noundef %56) #34
  br label %59

59:                                               ; preds = %54, %58
  resume { ptr, i32 } %55

60:                                               ; preds = %31, %49, %35, %34
  %61 = load i8, ptr %10, align 1, !tbaa !14
  %62 = zext i8 %61 to i32
  %63 = tail call i32 @tolower(i32 noundef %62) #38
  %64 = trunc i32 %63 to i8
  %65 = load i64, ptr %4, align 8, !tbaa !12
  %66 = add i64 %65, 1
  %67 = load ptr, ptr %0, align 8, !tbaa !5
  %68 = icmp eq ptr %67, %3
  %69 = load i64, ptr %3, align 8
  %70 = select i1 %68, i64 15, i64 %69
  %71 = icmp ugt i64 %66, %70
  br i1 %71, label %72, label %75

72:                                               ; preds = %60
  invoke void @_ZNSt7__cxx1112basic_stringIcSt11char_traitsIcESaIcEE9_M_mutateEmmPKcm(ptr noundef nonnull align 8 dereferenceable(32) %0, i64 noundef %65, i64 noundef 0, ptr noundef null, i64 noundef 1)
          to label %73 unwind label %54

73:                                               ; preds = %72
  %74 = load ptr, ptr %0, align 8, !tbaa !5
  br label %75

75:                                               ; preds = %60, %73
  %76 = phi ptr [ %74, %73 ], [ %67, %60 ]
  %77 = getelementptr inbounds i8, ptr %76, i64 %65
  store i8 %64, ptr %77, align 1, !tbaa !14
  store i64 %66, ptr %4, align 8, !tbaa !12
  %78 = load ptr, ptr %0, align 8, !tbaa !5
  %79 = getelementptr inbounds i8, ptr %78, i64 %66
  store i8 0, ptr %79, align 1, !tbaa !14
  %80 = load i8, ptr %10, align 1, !tbaa !14
  br label %81

81:                                               ; preds = %31, %75, %27
  %82 = phi i8 [ %8, %31 ], [ %80, %75 ], [ %8, %27 ]
  %83 = getelementptr inbounds i8, ptr %10, i64 1
  %84 = load i8, ptr %83, align 1, !tbaa !14
  %85 = icmp eq i8 %84, 0
  br i1 %85, label %86, label %7, !llvm.loop !88

86:                                               ; preds = %81, %2
  ret void
}

; Function Attrs: uwtable
define dso_local noundef ptr @_ZN7testing8internal18GetFailureReporterEv() local_unnamed_addr #3 personality ptr @__gxx_personality_v0 {
  %1 = load atomic i8, ptr @_ZGVZN7testing8internal18GetFailureReporterEvE16failure_reporter acquire, align 8
  %2 = icmp eq i8 %1, 0
  br i1 %2, label %3, label %10, !prof !42

3:                                                ; preds = %0
  %4 = tail call i32 @__cxa_guard_acquire(ptr nonnull @_ZGVZN7testing8internal18GetFailureReporterEvE16failure_reporter) #33
  %5 = icmp eq i32 %4, 0
  br i1 %5, label %10, label %6

6:                                                ; preds = %3
  %7 = invoke noalias noundef nonnull dereferenceable(8) ptr @_Znwm(i64 noundef 8) #35
          to label %8 unwind label %12

8:                                                ; preds = %6
  store ptr getelementptr inbounds ({ [5 x ptr] }, ptr @_ZTVN7testing8internal25GoogleTestFailureReporterE, i64 0, inrange i32 0, i64 2), ptr %7, align 8, !tbaa !26
  store ptr %7, ptr @_ZZN7testing8internal18GetFailureReporterEvE16failure_reporter, align 8, !tbaa !43
  %9 = tail call ptr @llvm.invariant.start.p0(i64 8, ptr nonnull @_ZZN7testing8internal18GetFailureReporterEvE16failure_reporter)
  tail call void @__cxa_guard_release(ptr nonnull @_ZGVZN7testing8internal18GetFailureReporterEvE16failure_reporter) #33
  br label %10

10:                                               ; preds = %8, %3, %0
  %11 = load ptr, ptr @_ZZN7testing8internal18GetFailureReporterEvE16failure_reporter, align 8, !tbaa !43
  ret ptr %11

12:                                               ; preds = %6
  %13 = landingpad { ptr, i32 }
          cleanup
  tail call void @__cxa_guard_abort(ptr nonnull @_ZGVZN7testing8internal18GetFailureReporterEvE16failure_reporter) #33
  resume { ptr, i32 } %13
}

; Function Attrs: nofree nounwind
declare i32 @__cxa_guard_acquire(ptr) local_unnamed_addr #2

; Function Attrs: mustprogress nocallback nofree nounwind willreturn memory(argmem: write)
declare void @llvm.memset.p0.i64(ptr nocapture writeonly, i8, i64, i1 immarg) #10

; Function Attrs: mustprogress nocallback nofree nosync nounwind willreturn memory(argmem: readwrite)
declare ptr @llvm.invariant.start.p0(i64 immarg, ptr nocapture) #4

; Function Attrs: nofree nounwind
declare void @__cxa_guard_abort(ptr) local_unnamed_addr #2

; Function Attrs: nofree nounwind
declare void @__cxa_guard_release(ptr) local_unnamed_addr #2

; Function Attrs: mustprogress nounwind uwtable
define dso_local noundef zeroext i1 @_ZN7testing8internal12LogIsVisibleENS0_11LogSeverityE(i32 noundef %0) local_unnamed_addr #11 {
  %2 = tail call noundef i32 @_ZNKSt7__cxx1112basic_stringIcSt11char_traitsIcESaIcEE7compareEPKc(ptr noundef nonnull align 8 dereferenceable(32) @_ZN7testing19FLAGS_gmock_verboseB5cxx11E, ptr noundef nonnull @_ZN7testing8internalL14kInfoVerbosityE) #33
  %3 = icmp eq i32 %2, 0
  br i1 %3, label %9, label %4

4:                                                ; preds = %1
  %5 = tail call noundef i32 @_ZNKSt7__cxx1112basic_stringIcSt11char_traitsIcESaIcEE7compareEPKc(ptr noundef nonnull align 8 dereferenceable(32) @_ZN7testing19FLAGS_gmock_verboseB5cxx11E, ptr noundef nonnull @_ZN7testing8internalL15kErrorVerbosityE) #33
  %6 = icmp ne i32 %5, 0
  %7 = icmp eq i32 %0, 1
  %8 = and i1 %7, %6
  br label %9

9:                                                ; preds = %4, %1
  %10 = phi i1 [ true, %1 ], [ %8, %4 ]
  ret i1 %10
}

; Function Attrs: uwtable
define dso_local void @_ZN7testing8internal3LogENS0_11LogSeverityERKNSt7__cxx1112basic_stringIcSt11char_traitsIcESaIcEEEi(i32 noundef %0, ptr nocapture noundef nonnull readonly align 8 dereferenceable(32) %1, i32 noundef %2) local_unnamed_addr #3 personality ptr @__gxx_personality_v0 {
  %4 = alloca %"class.std::__cxx11::basic_string", align 8
  %5 = tail call noundef i32 @_ZNKSt7__cxx1112basic_stringIcSt11char_traitsIcESaIcEE7compareEPKc(ptr noundef nonnull align 8 dereferenceable(32) @_ZN7testing19FLAGS_gmock_verboseB5cxx11E, ptr noundef nonnull @_ZN7testing8internalL14kInfoVerbosityE) #33
  %6 = icmp eq i32 %5, 0
  br i1 %6, label %13, label %7

7:                                                ; preds = %3
  %8 = tail call noundef i32 @_ZNKSt7__cxx1112basic_stringIcSt11char_traitsIcESaIcEE7compareEPKc(ptr noundef nonnull align 8 dereferenceable(32) @_ZN7testing19FLAGS_gmock_verboseB5cxx11E, ptr noundef nonnull @_ZN7testing8internalL15kErrorVerbosityE) #33
  %9 = icmp ne i32 %8, 0
  %10 = icmp eq i32 %0, 1
  %11 = and i1 %10, %9
  br i1 %11, label %12, label %83

12:                                               ; preds = %7
  tail call void @_ZN7testing8internal9MutexBase4LockEv(ptr noundef nonnull align 8 dereferenceable(56) @_ZN7testing8internalL11g_log_mutexE)
  br label %15

13:                                               ; preds = %3
  tail call void @_ZN7testing8internal9MutexBase4LockEv(ptr noundef nonnull align 8 dereferenceable(56) @_ZN7testing8internalL11g_log_mutexE)
  %14 = icmp eq i32 %0, 1
  br i1 %14, label %15, label %19

15:                                               ; preds = %12, %13
  %16 = invoke noundef nonnull align 8 dereferenceable(8) ptr @_ZSt16__ostream_insertIcSt11char_traitsIcEERSt13basic_ostreamIT_T0_ES6_PKS3_l(ptr noundef nonnull align 8 dereferenceable(8) @_ZSt4cout, ptr noundef nonnull @.str.8, i64 noundef 15)
          to label %19 unwind label %17

17:                                               ; preds = %77, %32, %27, %15
  %18 = landingpad { ptr, i32 }
          cleanup
  br label %84

19:                                               ; preds = %15, %13
  %20 = getelementptr inbounds %"class.std::__cxx11::basic_string", ptr %1, i64 0, i32 1
  %21 = load i64, ptr %20, align 8, !tbaa !12
  %22 = icmp eq i64 %21, 0
  br i1 %22, label %27, label %23

23:                                               ; preds = %19
  %24 = load ptr, ptr %1, align 8, !tbaa !5
  %25 = load i8, ptr %24, align 1, !tbaa !14
  %26 = icmp eq i8 %25, 10
  br i1 %26, label %32, label %27

27:                                               ; preds = %23, %19
  %28 = invoke noundef nonnull align 8 dereferenceable(8) ptr @_ZSt16__ostream_insertIcSt11char_traitsIcEERSt13basic_ostreamIT_T0_ES6_PKS3_l(ptr noundef nonnull align 8 dereferenceable(8) @_ZSt4cout, ptr noundef nonnull @.str.9, i64 noundef 1)
          to label %29 unwind label %17

29:                                               ; preds = %27
  %30 = load ptr, ptr %1, align 8, !tbaa !5
  %31 = load i64, ptr %20, align 8, !tbaa !12
  br label %32

32:                                               ; preds = %29, %23
  %33 = phi i64 [ %31, %29 ], [ %21, %23 ]
  %34 = phi ptr [ %30, %29 ], [ %24, %23 ]
  %35 = invoke noundef nonnull align 8 dereferenceable(8) ptr @_ZSt16__ostream_insertIcSt11char_traitsIcEERSt13basic_ostreamIT_T0_ES6_PKS3_l(ptr noundef nonnull align 8 dereferenceable(8) @_ZSt4cout, ptr noundef %34, i64 noundef %33)
          to label %36 unwind label %17

36:                                               ; preds = %32
  %37 = icmp sgt i32 %2, -1
  br i1 %37, label %38, label %77

38:                                               ; preds = %36
  %39 = load i64, ptr %20, align 8, !tbaa !12
  %40 = icmp eq i64 %39, 0
  br i1 %40, label %51, label %41

41:                                               ; preds = %38
  %42 = load ptr, ptr %1, align 8, !tbaa !5, !noalias !89
  %43 = getelementptr inbounds i8, ptr %42, i64 %39
  %44 = getelementptr inbounds i8, ptr %43, i64 -1
  %45 = load i8, ptr %44, align 1, !tbaa !14
  %46 = icmp eq i8 %45, 10
  br i1 %46, label %51, label %47

47:                                               ; preds = %41
  %48 = invoke noundef nonnull align 8 dereferenceable(8) ptr @_ZSt16__ostream_insertIcSt11char_traitsIcEERSt13basic_ostreamIT_T0_ES6_PKS3_l(ptr noundef nonnull align 8 dereferenceable(8) @_ZSt4cout, ptr noundef nonnull @.str.9, i64 noundef 1)
          to label %51 unwind label %49

49:                                               ; preds = %51, %47
  %50 = landingpad { ptr, i32 }
          cleanup
  br label %84

51:                                               ; preds = %38, %47, %41
  %52 = invoke noundef nonnull align 8 dereferenceable(8) ptr @_ZSt16__ostream_insertIcSt11char_traitsIcEERSt13basic_ostreamIT_T0_ES6_PKS3_l(ptr noundef nonnull align 8 dereferenceable(8) @_ZSt4cout, ptr noundef nonnull @.str.10, i64 noundef 13)
          to label %53 unwind label %49

53:                                               ; preds = %51
  call void @llvm.lifetime.start.p0(i64 32, ptr nonnull %4) #33
  %54 = invoke noundef ptr @_ZN7testing8UnitTest11GetInstanceEv()
          to label %55 unwind label %67

55:                                               ; preds = %53
  invoke void @_ZN7testing8internal31GetCurrentOsStackTraceExceptTopB5cxx11EPNS_8UnitTestEi(ptr nonnull sret(%"class.std::__cxx11::basic_string") align 8 %4, ptr noundef %54, i32 noundef 0)
          to label %56 unwind label %67

56:                                               ; preds = %55
  %57 = load ptr, ptr %4, align 8, !tbaa !5
  %58 = getelementptr inbounds %"class.std::__cxx11::basic_string", ptr %4, i64 0, i32 1
  %59 = load i64, ptr %58, align 8, !tbaa !12
  %60 = invoke noundef nonnull align 8 dereferenceable(8) ptr @_ZSt16__ostream_insertIcSt11char_traitsIcEERSt13basic_ostreamIT_T0_ES6_PKS3_l(ptr noundef nonnull align 8 dereferenceable(8) @_ZSt4cout, ptr noundef %57, i64 noundef %59)
          to label %61 unwind label %69

61:                                               ; preds = %56
  %62 = load ptr, ptr %4, align 8, !tbaa !5
  %63 = getelementptr inbounds %"class.std::__cxx11::basic_string", ptr %4, i64 0, i32 2
  %64 = icmp eq ptr %62, %63
  br i1 %64, label %66, label %65

65:                                               ; preds = %61
  call void @_ZdlPv(ptr noundef %62) #34
  br label %66

66:                                               ; preds = %61, %65
  call void @llvm.lifetime.end.p0(i64 32, ptr nonnull %4) #33
  br label %77

67:                                               ; preds = %55, %53
  %68 = landingpad { ptr, i32 }
          cleanup
  br label %75

69:                                               ; preds = %56
  %70 = landingpad { ptr, i32 }
          cleanup
  %71 = load ptr, ptr %4, align 8, !tbaa !5
  %72 = getelementptr inbounds %"class.std::__cxx11::basic_string", ptr %4, i64 0, i32 2
  %73 = icmp eq ptr %71, %72
  br i1 %73, label %75, label %74

74:                                               ; preds = %69
  call void @_ZdlPv(ptr noundef %71) #34
  br label %75

75:                                               ; preds = %74, %69, %67
  %76 = phi { ptr, i32 } [ %68, %67 ], [ %70, %69 ], [ %70, %74 ]
  call void @llvm.lifetime.end.p0(i64 32, ptr nonnull %4) #33
  br label %84

77:                                               ; preds = %66, %36
  %78 = invoke noundef nonnull align 8 dereferenceable(8) ptr @_ZNSo5flushEv(ptr noundef nonnull align 8 dereferenceable(8) @_ZSt4cout)
          to label %79 unwind label %17

79:                                               ; preds = %77
  invoke void @_ZN7testing8internal9MutexBase6UnlockEv(ptr noundef nonnull align 8 dereferenceable(56) @_ZN7testing8internalL11g_log_mutexE)
          to label %83 unwind label %80

80:                                               ; preds = %79
  %81 = landingpad { ptr, i32 }
          catch ptr null
  %82 = extractvalue { ptr, i32 } %81, 0
  call void @__clang_call_terminate(ptr %82) #37
  unreachable

83:                                               ; preds = %79, %7
  ret void

84:                                               ; preds = %49, %75, %17
  %85 = phi { ptr, i32 } [ %18, %17 ], [ %76, %75 ], [ %50, %49 ]
  invoke void @_ZN7testing8internal9MutexBase6UnlockEv(ptr noundef nonnull align 8 dereferenceable(56) @_ZN7testing8internalL11g_log_mutexE)
          to label %89 unwind label %86

86:                                               ; preds = %84
  %87 = landingpad { ptr, i32 }
          catch ptr null
  %88 = extractvalue { ptr, i32 } %87, 0
  call void @__clang_call_terminate(ptr %88) #37
  unreachable

89:                                               ; preds = %84
  resume { ptr, i32 } %85
}

declare void @_ZN7testing8internal31GetCurrentOsStackTraceExceptTopB5cxx11EPNS_8UnitTestEi(ptr sret(%"class.std::__cxx11::basic_string") align 8, ptr noundef, i32 noundef) local_unnamed_addr #0

declare noundef ptr @_ZN7testing8UnitTest11GetInstanceEv() local_unnamed_addr #0

; Function Attrs: mustprogress nofree norecurse nosync nounwind willreturn memory(none) uwtable
define dso_local void @_ZN7testing8internal18GetWithoutMatchersEv() local_unnamed_addr #12 {
  ret void
}

; Function Attrs: uwtable
define dso_local void @_ZN7testing8internal16IllegalDoDefaultEPKci(ptr noundef %0, i32 noundef %1) local_unnamed_addr #3 personality ptr @__gxx_personality_v0 {
  %3 = alloca i64, align 8
  %4 = alloca %"class.std::__cxx11::basic_string", align 8
  call void @llvm.lifetime.start.p0(i64 32, ptr nonnull %4) #33
  %5 = getelementptr inbounds %"class.std::__cxx11::basic_string", ptr %4, i64 0, i32 2
  store ptr %5, ptr %4, align 8, !tbaa !13
  call void @llvm.lifetime.start.p0(i64 8, ptr nonnull %3) #33
  store i64 262, ptr %3, align 8, !tbaa !80
  %6 = call noundef ptr @_ZNSt7__cxx1112basic_stringIcSt11char_traitsIcESaIcEE9_M_createERmm(ptr noundef nonnull align 8 dereferenceable(32) %4, ptr noundef nonnull align 8 dereferenceable(8) %3, i64 noundef 0)
  store ptr %6, ptr %4, align 8, !tbaa !5
  %7 = load i64, ptr %3, align 8, !tbaa !80
  store i64 %7, ptr %5, align 8, !tbaa !14
  call void @llvm.memcpy.p0.p0.i64(ptr noundef nonnull align 1 dereferenceable(262) %6, ptr noundef nonnull align 1 dereferenceable(262) @.str.11, i64 262, i1 false)
  %8 = getelementptr inbounds %"class.std::__cxx11::basic_string", ptr %4, i64 0, i32 1
  store i64 %7, ptr %8, align 8, !tbaa !12
  %9 = getelementptr inbounds i8, ptr %6, i64 %7
  store i8 0, ptr %9, align 1, !tbaa !14
  call void @llvm.lifetime.end.p0(i64 8, ptr nonnull %3) #33
  %10 = load atomic i8, ptr @_ZGVZN7testing8internal18GetFailureReporterEvE16failure_reporter acquire, align 8
  %11 = icmp eq i8 %10, 0
  br i1 %11, label %12, label %21, !prof !42

12:                                               ; preds = %2
  %13 = call i32 @__cxa_guard_acquire(ptr nonnull @_ZGVZN7testing8internal18GetFailureReporterEvE16failure_reporter) #33
  %14 = icmp eq i32 %13, 0
  br i1 %14, label %21, label %15

15:                                               ; preds = %12
  %16 = invoke noalias noundef nonnull dereferenceable(8) ptr @_Znwm(i64 noundef 8) #35
          to label %17 unwind label %19

17:                                               ; preds = %15
  store ptr getelementptr inbounds ({ [5 x ptr] }, ptr @_ZTVN7testing8internal25GoogleTestFailureReporterE, i64 0, inrange i32 0, i64 2), ptr %16, align 8, !tbaa !26
  store ptr %16, ptr @_ZZN7testing8internal18GetFailureReporterEvE16failure_reporter, align 8, !tbaa !43
  %18 = call ptr @llvm.invariant.start.p0(i64 8, ptr nonnull @_ZZN7testing8internal18GetFailureReporterEvE16failure_reporter)
  call void @__cxa_guard_release(ptr nonnull @_ZGVZN7testing8internal18GetFailureReporterEvE16failure_reporter) #33
  br label %21

19:                                               ; preds = %15
  %20 = landingpad { ptr, i32 }
          cleanup
  call void @__cxa_guard_abort(ptr nonnull @_ZGVZN7testing8internal18GetFailureReporterEvE16failure_reporter) #33
  br label %33

21:                                               ; preds = %17, %12, %2
  %22 = load ptr, ptr @_ZZN7testing8internal18GetFailureReporterEvE16failure_reporter, align 8, !tbaa !43
  %23 = load ptr, ptr %22, align 8, !tbaa !26
  %24 = getelementptr inbounds ptr, ptr %23, i64 2
  %25 = load ptr, ptr %24, align 8
  invoke void %25(ptr noundef nonnull align 8 dereferenceable(8) %22, i32 noundef 1, ptr noundef %0, i32 noundef %1, ptr noundef nonnull align 8 dereferenceable(32) %4)
          to label %26 unwind label %31

26:                                               ; preds = %21
  %27 = load ptr, ptr %4, align 8, !tbaa !5
  %28 = icmp eq ptr %27, %5
  br i1 %28, label %30, label %29

29:                                               ; preds = %26
  call void @_ZdlPv(ptr noundef %27) #34
  br label %30

30:                                               ; preds = %26, %29
  call void @llvm.lifetime.end.p0(i64 32, ptr nonnull %4) #33
  ret void

31:                                               ; preds = %21
  %32 = landingpad { ptr, i32 }
          cleanup
  br label %33

33:                                               ; preds = %19, %31
  %34 = phi { ptr, i32 } [ %32, %31 ], [ %20, %19 ]
  %35 = load ptr, ptr %4, align 8, !tbaa !5
  %36 = icmp eq ptr %35, %5
  br i1 %36, label %38, label %37

37:                                               ; preds = %33
  call void @_ZdlPv(ptr noundef %35) #34
  br label %38

38:                                               ; preds = %37, %33
  call void @llvm.lifetime.end.p0(i64 32, ptr nonnull %4) #33
  resume { ptr, i32 } %34
}

; Function Attrs: uwtable
define hidden noundef zeroext i1 @_ZN7testing8internal14Base64UnescapeERKNSt7__cxx1112basic_stringIcSt11char_traitsIcESaIcEEEPS6_(ptr nocapture noundef nonnull readonly align 8 dereferenceable(32) %0, ptr noundef nonnull %1) local_unnamed_addr #3 personality ptr @__gxx_personality_v0 {
  %3 = getelementptr inbounds %"class.std::__cxx11::basic_string", ptr %1, i64 0, i32 1
  store i64 0, ptr %3, align 8, !tbaa !12
  %4 = load ptr, ptr %1, align 8, !tbaa !5
  store i8 0, ptr %4, align 1, !tbaa !14
  %5 = getelementptr inbounds %"class.std::__cxx11::basic_string", ptr %0, i64 0, i32 1
  %6 = load i64, ptr %5, align 8, !tbaa !12
  %7 = lshr i64 %6, 2
  %8 = mul nuw i64 %7, 3
  %9 = and i64 %6, 3
  %10 = add nuw i64 %8, %9
  tail call void @_ZNSt7__cxx1112basic_stringIcSt11char_traitsIcESaIcEE7reserveEm(ptr noundef nonnull align 8 dereferenceable(32) %1, i64 noundef %10)
  %11 = load ptr, ptr %0, align 8, !tbaa !5
  %12 = load i64, ptr %5, align 8, !tbaa !12
  %13 = getelementptr inbounds i8, ptr %11, i64 %12
  %14 = icmp eq i64 %12, 0
  br i1 %14, label %73, label %15

15:                                               ; preds = %2
  %16 = getelementptr inbounds %"class.std::__cxx11::basic_string", ptr %1, i64 0, i32 2
  br label %17

17:                                               ; preds = %15, %66
  %18 = phi i32 [ 0, %15 ], [ %68, %66 ]
  %19 = phi i8 [ 0, %15 ], [ %67, %66 ]
  %20 = phi ptr [ %11, %15 ], [ %69, %66 ]
  %21 = load i8, ptr %20, align 1, !tbaa !14
  %22 = sext i8 %21 to i32
  %23 = tail call i32 @isspace(i32 noundef %22) #38
  %24 = icmp ne i32 %23, 0
  %25 = icmp eq i8 %21, 61
  %26 = select i1 %24, i1 true, i1 %25
  br i1 %26, label %66, label %27

27:                                               ; preds = %17
  %28 = sext i8 %21 to i64
  %29 = getelementptr inbounds [256 x i8], ptr @_ZN7testing8internalL9kUnBase64E, i64 0, i64 %28
  %30 = load i8, ptr %29, align 1, !tbaa !14
  %31 = sext i8 %30 to i32
  %32 = icmp sgt i8 %30, 63
  br i1 %32, label %71, label %33

33:                                               ; preds = %27
  %34 = icmp eq i32 %18, 0
  br i1 %34, label %35, label %39

35:                                               ; preds = %33
  %36 = shl nsw i32 %31, 2
  %37 = zext i8 %19 to i32
  %38 = or i32 %36, %37
  br label %62

39:                                               ; preds = %33
  %40 = add nsw i32 %18, -2
  %41 = ashr i32 %31, %40
  %42 = trunc i32 %41 to i8
  %43 = or i8 %19, %42
  %44 = load i64, ptr %3, align 8, !tbaa !12
  %45 = add i64 %44, 1
  %46 = load ptr, ptr %1, align 8, !tbaa !5
  %47 = icmp eq ptr %46, %16
  %48 = load i64, ptr %16, align 8
  %49 = select i1 %47, i64 15, i64 %48
  %50 = icmp ugt i64 %45, %49
  br i1 %50, label %51, label %53

51:                                               ; preds = %39
  tail call void @_ZNSt7__cxx1112basic_stringIcSt11char_traitsIcESaIcEE9_M_mutateEmmPKcm(ptr noundef nonnull align 8 dereferenceable(32) %1, i64 noundef %44, i64 noundef 0, ptr noundef null, i64 noundef 1)
  %52 = load ptr, ptr %1, align 8, !tbaa !5
  br label %53

53:                                               ; preds = %39, %51
  %54 = phi ptr [ %52, %51 ], [ %46, %39 ]
  %55 = getelementptr inbounds i8, ptr %54, i64 %44
  store i8 %43, ptr %55, align 1, !tbaa !14
  store i64 %45, ptr %3, align 8, !tbaa !12
  %56 = load ptr, ptr %1, align 8, !tbaa !5
  %57 = getelementptr inbounds i8, ptr %56, i64 %45
  store i8 0, ptr %57, align 1, !tbaa !14
  %58 = sub nuw nsw i32 10, %18
  %59 = shl nsw i32 %31, %58
  %60 = add nuw nsw i32 %18, 6
  %61 = and i32 %60, 7
  br label %62

62:                                               ; preds = %53, %35
  %63 = phi i32 [ %38, %35 ], [ %59, %53 ]
  %64 = phi i32 [ 6, %35 ], [ %61, %53 ]
  %65 = trunc i32 %63 to i8
  br label %66

66:                                               ; preds = %17, %62
  %67 = phi i8 [ %65, %62 ], [ %19, %17 ]
  %68 = phi i32 [ %64, %62 ], [ %18, %17 ]
  %69 = getelementptr inbounds i8, ptr %20, i64 1
  %70 = icmp eq ptr %69, %13
  br i1 %70, label %73, label %17

71:                                               ; preds = %27
  store i64 0, ptr %3, align 8, !tbaa !12
  %72 = load ptr, ptr %1, align 8, !tbaa !5
  store i8 0, ptr %72, align 1, !tbaa !14
  br label %73

73:                                               ; preds = %66, %2, %71
  %74 = phi i1 [ false, %71 ], [ true, %2 ], [ true, %66 ]
  ret i1 %74
}

declare void @_ZNSt7__cxx1112basic_stringIcSt11char_traitsIcESaIcEE7reserveEm(ptr noundef nonnull align 8 dereferenceable(32), i64 noundef) local_unnamed_addr #0

; Function Attrs: mustprogress nofree nounwind willreturn memory(read)
declare i32 @isspace(i32 noundef) local_unnamed_addr #13

; Function Attrs: uwtable
define dso_local void @_ZN7testing8internal24FormatMatcherDescriptionEbPKcRKSt6vectorIS2_SaIS2_EERKS3_INSt7__cxx1112basic_stringIcSt11char_traitsIcESaIcEEESaISD_EE(ptr noalias sret(%"class.std::__cxx11::basic_string") align 8 %0, i1 noundef zeroext %1, ptr nocapture noundef readonly %2, ptr noundef nonnull align 8 dereferenceable(24) %3, ptr noundef nonnull align 8 dereferenceable(24) %4) local_unnamed_addr #3 personality ptr @__gxx_personality_v0 {
  %6 = alloca i64, align 8
  %7 = alloca %"class.std::__cxx11::basic_string", align 8
  %8 = alloca %"class.std::__cxx11::basic_string", align 8
  %9 = alloca %"class.std::__cxx11::basic_string", align 8
  %10 = alloca %"class.std::__cxx11::basic_string", align 8
  call void @llvm.lifetime.start.p0(i64 32, ptr nonnull %7) #33
  call void @_ZN7testing8internal28ConvertIdentifierNameToWordsB5cxx11EPKc(ptr nonnull sret(%"class.std::__cxx11::basic_string") align 8 %7, ptr noundef %2)
  %11 = getelementptr inbounds %"struct.std::_Vector_base<std::__cxx11::basic_string<char>, std::allocator<std::__cxx11::basic_string<char>>>::_Vector_impl_data", ptr %4, i64 0, i32 1
  %12 = load ptr, ptr %11, align 8, !tbaa !70
  %13 = load ptr, ptr %4, align 8, !tbaa !72
  %14 = icmp eq ptr %12, %13
  br i1 %14, label %72, label %15

15:                                               ; preds = %5
  call void @llvm.lifetime.start.p0(i64 32, ptr nonnull %8) #33
  call void @llvm.lifetime.start.p0(i64 32, ptr nonnull %9) #33
  invoke void @_ZN7testing8internal19JoinAsKeyValueTupleERKSt6vectorIPKcSaIS3_EERKS1_INSt7__cxx1112basic_stringIcSt11char_traitsIcESaIcEEESaISD_EE(ptr nonnull sret(%"class.std::__cxx11::basic_string") align 8 %9, ptr noundef nonnull align 8 dereferenceable(24) %3, ptr noundef nonnull align 8 dereferenceable(24) %4)
          to label %16 unwind label %55

16:                                               ; preds = %15
  %17 = invoke noundef nonnull align 8 dereferenceable(32) ptr @_ZNSt7__cxx1112basic_stringIcSt11char_traitsIcESaIcEE10_M_replaceEmmPKcm(ptr noundef nonnull align 8 dereferenceable(32) %9, i64 noundef 0, i64 noundef 0, ptr noundef nonnull @.str.12, i64 noundef 1)
          to label %18 unwind label %57

18:                                               ; preds = %16
  %19 = getelementptr inbounds %"class.std::__cxx11::basic_string", ptr %8, i64 0, i32 2
  store ptr %19, ptr %8, align 8, !tbaa !13, !alias.scope !92
  %20 = load ptr, ptr %17, align 8, !tbaa !5
  %21 = getelementptr inbounds %"class.std::__cxx11::basic_string", ptr %17, i64 0, i32 2
  %22 = icmp eq ptr %20, %21
  br i1 %22, label %23, label %29

23:                                               ; preds = %18
  %24 = getelementptr inbounds %"class.std::__cxx11::basic_string", ptr %17, i64 0, i32 1
  %25 = load i64, ptr %24, align 8, !tbaa !12
  %26 = add i64 %25, 1
  %27 = icmp eq i64 %26, 0
  br i1 %27, label %31, label %28

28:                                               ; preds = %23
  call void @llvm.memcpy.p0.p0.i64(ptr nonnull align 8 %19, ptr nonnull align 8 %20, i64 %26, i1 false)
  br label %31

29:                                               ; preds = %18
  store ptr %20, ptr %8, align 8, !tbaa !5, !alias.scope !92
  %30 = load i64, ptr %21, align 8, !tbaa !14
  store i64 %30, ptr %19, align 8, !tbaa !14, !alias.scope !92
  br label %31

31:                                               ; preds = %29, %28, %23
  %32 = getelementptr inbounds %"class.std::__cxx11::basic_string", ptr %17, i64 0, i32 1
  %33 = load i64, ptr %32, align 8, !tbaa !12
  %34 = getelementptr inbounds %"class.std::__cxx11::basic_string", ptr %8, i64 0, i32 1
  store i64 %33, ptr %34, align 8, !tbaa !12, !alias.scope !92
  store ptr %21, ptr %17, align 8, !tbaa !5
  store i64 0, ptr %32, align 8, !tbaa !12
  store i8 0, ptr %21, align 8, !tbaa !14
  %35 = load i64, ptr %34, align 8, !tbaa !12
  %36 = getelementptr inbounds %"class.std::__cxx11::basic_string", ptr %7, i64 0, i32 1
  %37 = load i64, ptr %36, align 8, !tbaa !12
  %38 = sub i64 4611686018427387903, %37
  %39 = icmp ult i64 %38, %35
  br i1 %39, label %40, label %42

40:                                               ; preds = %31
  invoke void @_ZSt20__throw_length_errorPKc(ptr noundef nonnull @.str.95) #36
          to label %41 unwind label %59

41:                                               ; preds = %40
  unreachable

42:                                               ; preds = %31
  %43 = load ptr, ptr %8, align 8, !tbaa !5
  %44 = invoke noundef nonnull align 8 dereferenceable(32) ptr @_ZNSt7__cxx1112basic_stringIcSt11char_traitsIcESaIcEE9_M_appendEPKcm(ptr noundef nonnull align 8 dereferenceable(32) %7, ptr noundef %43, i64 noundef %35)
          to label %45 unwind label %59

45:                                               ; preds = %42
  %46 = load ptr, ptr %8, align 8, !tbaa !5
  %47 = icmp eq ptr %46, %19
  br i1 %47, label %49, label %48

48:                                               ; preds = %45
  call void @_ZdlPv(ptr noundef %46) #34
  br label %49

49:                                               ; preds = %45, %48
  %50 = load ptr, ptr %9, align 8, !tbaa !5
  %51 = getelementptr inbounds %"class.std::__cxx11::basic_string", ptr %9, i64 0, i32 2
  %52 = icmp eq ptr %50, %51
  br i1 %52, label %54, label %53

53:                                               ; preds = %49
  call void @_ZdlPv(ptr noundef %50) #34
  br label %54

54:                                               ; preds = %49, %53
  call void @llvm.lifetime.end.p0(i64 32, ptr nonnull %9) #33
  call void @llvm.lifetime.end.p0(i64 32, ptr nonnull %8) #33
  br label %72

55:                                               ; preds = %15
  %56 = landingpad { ptr, i32 }
          cleanup
  br label %70

57:                                               ; preds = %16
  %58 = landingpad { ptr, i32 }
          cleanup
  br label %64

59:                                               ; preds = %42, %40
  %60 = landingpad { ptr, i32 }
          cleanup
  %61 = load ptr, ptr %8, align 8, !tbaa !5
  %62 = icmp eq ptr %61, %19
  br i1 %62, label %64, label %63

63:                                               ; preds = %59
  call void @_ZdlPv(ptr noundef %61) #34
  br label %64

64:                                               ; preds = %63, %59, %57
  %65 = phi { ptr, i32 } [ %58, %57 ], [ %60, %59 ], [ %60, %63 ]
  %66 = load ptr, ptr %9, align 8, !tbaa !5
  %67 = getelementptr inbounds %"class.std::__cxx11::basic_string", ptr %9, i64 0, i32 2
  %68 = icmp eq ptr %66, %67
  br i1 %68, label %70, label %69

69:                                               ; preds = %64
  call void @_ZdlPv(ptr noundef %66) #34
  br label %70

70:                                               ; preds = %69, %64, %55
  %71 = phi { ptr, i32 } [ %56, %55 ], [ %65, %64 ], [ %65, %69 ]
  call void @llvm.lifetime.end.p0(i64 32, ptr nonnull %9) #33
  call void @llvm.lifetime.end.p0(i64 32, ptr nonnull %8) #33
  br label %142

72:                                               ; preds = %54, %5
  br i1 %1, label %73, label %95

73:                                               ; preds = %72
  call void @llvm.lifetime.start.p0(i64 32, ptr nonnull %10) #33
  invoke void @_ZStplIcSt11char_traitsIcESaIcEENSt7__cxx1112basic_stringIT_T0_T1_EEPKS5_RKS8_(ptr nonnull sret(%"class.std::__cxx11::basic_string") align 8 %10, ptr noundef nonnull @.str.13, ptr noundef nonnull align 8 dereferenceable(32) %7)
          to label %74 unwind label %130

74:                                               ; preds = %73
  call void @llvm.experimental.noalias.scope.decl(metadata !95)
  %75 = getelementptr inbounds %"class.std::__cxx11::basic_string", ptr %10, i64 0, i32 1
  %76 = load i64, ptr %75, align 8, !tbaa !12, !noalias !95
  %77 = icmp eq i64 %76, 4611686018427387903
  br i1 %77, label %78, label %80

78:                                               ; preds = %74
  invoke void @_ZSt20__throw_length_errorPKc(ptr noundef nonnull @.str.95) #36
          to label %79 unwind label %132

79:                                               ; preds = %78
  unreachable

80:                                               ; preds = %74
  %81 = invoke noundef nonnull align 8 dereferenceable(32) ptr @_ZNSt7__cxx1112basic_stringIcSt11char_traitsIcESaIcEE9_M_appendEPKcm(ptr noundef nonnull align 8 dereferenceable(32) %10, ptr noundef nonnull @.str.7, i64 noundef 1)
          to label %82 unwind label %132

82:                                               ; preds = %80
  %83 = getelementptr inbounds %"class.std::__cxx11::basic_string", ptr %0, i64 0, i32 2
  store ptr %83, ptr %0, align 8, !tbaa !13, !alias.scope !95
  %84 = load ptr, ptr %81, align 8, !tbaa !5
  %85 = getelementptr inbounds %"class.std::__cxx11::basic_string", ptr %81, i64 0, i32 2
  %86 = icmp eq ptr %84, %85
  br i1 %86, label %87, label %93

87:                                               ; preds = %82
  %88 = getelementptr inbounds %"class.std::__cxx11::basic_string", ptr %81, i64 0, i32 1
  %89 = load i64, ptr %88, align 8, !tbaa !12
  %90 = add i64 %89, 1
  %91 = icmp eq i64 %90, 0
  br i1 %91, label %115, label %92

92:                                               ; preds = %87
  call void @llvm.memcpy.p0.p0.i64(ptr nonnull align 8 %83, ptr nonnull align 8 %84, i64 %90, i1 false)
  br label %115

93:                                               ; preds = %82
  store ptr %84, ptr %0, align 8, !tbaa !5, !alias.scope !95
  %94 = load i64, ptr %85, align 8, !tbaa !14
  store i64 %94, ptr %83, align 8, !tbaa !14, !alias.scope !95
  br label %115

95:                                               ; preds = %72
  %96 = getelementptr inbounds %"class.std::__cxx11::basic_string", ptr %0, i64 0, i32 2
  store ptr %96, ptr %0, align 8, !tbaa !13
  %97 = load ptr, ptr %7, align 8, !tbaa !5
  %98 = getelementptr inbounds %"class.std::__cxx11::basic_string", ptr %7, i64 0, i32 1
  %99 = load i64, ptr %98, align 8, !tbaa !12
  call void @llvm.lifetime.start.p0(i64 8, ptr nonnull %6) #33
  store i64 %99, ptr %6, align 8, !tbaa !80
  %100 = icmp ugt i64 %99, 15
  br i1 %100, label %101, label %105

101:                                              ; preds = %95
  %102 = invoke noundef ptr @_ZNSt7__cxx1112basic_stringIcSt11char_traitsIcESaIcEE9_M_createERmm(ptr noundef nonnull align 8 dereferenceable(32) %0, ptr noundef nonnull align 8 dereferenceable(8) %6, i64 noundef 0)
          to label %103 unwind label %138

103:                                              ; preds = %101
  store ptr %102, ptr %0, align 8, !tbaa !5
  %104 = load i64, ptr %6, align 8, !tbaa !80
  store i64 %104, ptr %96, align 8, !tbaa !14
  br label %105

105:                                              ; preds = %103, %95
  %106 = phi ptr [ %102, %103 ], [ %96, %95 ]
  switch i64 %99, label %109 [
    i64 1, label %107
    i64 0, label %110
  ]

107:                                              ; preds = %105
  %108 = load i8, ptr %97, align 1, !tbaa !14
  store i8 %108, ptr %106, align 1, !tbaa !14
  br label %110

109:                                              ; preds = %105
  call void @llvm.memcpy.p0.p0.i64(ptr align 1 %106, ptr align 1 %97, i64 %99, i1 false)
  br label %110

110:                                              ; preds = %109, %107, %105
  %111 = load i64, ptr %6, align 8, !tbaa !80
  %112 = getelementptr inbounds %"class.std::__cxx11::basic_string", ptr %0, i64 0, i32 1
  store i64 %111, ptr %112, align 8, !tbaa !12
  %113 = load ptr, ptr %0, align 8, !tbaa !5
  %114 = getelementptr inbounds i8, ptr %113, i64 %111
  store i8 0, ptr %114, align 1, !tbaa !14
  call void @llvm.lifetime.end.p0(i64 8, ptr nonnull %6) #33
  br label %124

115:                                              ; preds = %93, %92, %87
  %116 = getelementptr inbounds %"class.std::__cxx11::basic_string", ptr %81, i64 0, i32 1
  %117 = load i64, ptr %116, align 8, !tbaa !12
  %118 = getelementptr inbounds %"class.std::__cxx11::basic_string", ptr %0, i64 0, i32 1
  store i64 %117, ptr %118, align 8, !tbaa !12, !alias.scope !95
  store ptr %85, ptr %81, align 8, !tbaa !5
  store i64 0, ptr %116, align 8, !tbaa !12
  store i8 0, ptr %85, align 8, !tbaa !14
  %119 = load ptr, ptr %10, align 8, !tbaa !5
  %120 = getelementptr inbounds %"class.std::__cxx11::basic_string", ptr %10, i64 0, i32 2
  %121 = icmp eq ptr %119, %120
  br i1 %121, label %123, label %122

122:                                              ; preds = %115
  call void @_ZdlPv(ptr noundef %119) #34
  br label %123

123:                                              ; preds = %115, %122
  call void @llvm.lifetime.end.p0(i64 32, ptr nonnull %10) #33
  br label %124

124:                                              ; preds = %110, %123
  %125 = load ptr, ptr %7, align 8, !tbaa !5
  %126 = getelementptr inbounds %"class.std::__cxx11::basic_string", ptr %7, i64 0, i32 2
  %127 = icmp eq ptr %125, %126
  br i1 %127, label %129, label %128

128:                                              ; preds = %124
  call void @_ZdlPv(ptr noundef %125) #34
  br label %129

129:                                              ; preds = %124, %128
  call void @llvm.lifetime.end.p0(i64 32, ptr nonnull %7) #33
  ret void

130:                                              ; preds = %73
  %131 = landingpad { ptr, i32 }
          cleanup
  br label %140

132:                                              ; preds = %80, %78
  %133 = landingpad { ptr, i32 }
          cleanup
  %134 = load ptr, ptr %10, align 8, !tbaa !5
  %135 = getelementptr inbounds %"class.std::__cxx11::basic_string", ptr %10, i64 0, i32 2
  %136 = icmp eq ptr %134, %135
  br i1 %136, label %140, label %137

137:                                              ; preds = %132
  call void @_ZdlPv(ptr noundef %134) #34
  br label %140

138:                                              ; preds = %101
  %139 = landingpad { ptr, i32 }
          cleanup
  br label %142

140:                                              ; preds = %130, %132, %137
  %141 = phi { ptr, i32 } [ %133, %137 ], [ %133, %132 ], [ %131, %130 ]
  call void @llvm.lifetime.end.p0(i64 32, ptr nonnull %10) #33
  br label %142

142:                                              ; preds = %138, %140, %70
  %143 = phi { ptr, i32 } [ %141, %140 ], [ %139, %138 ], [ %71, %70 ]
  %144 = load ptr, ptr %7, align 8, !tbaa !5
  %145 = getelementptr inbounds %"class.std::__cxx11::basic_string", ptr %7, i64 0, i32 2
  %146 = icmp eq ptr %144, %145
  br i1 %146, label %148, label %147

147:                                              ; preds = %142
  call void @_ZdlPv(ptr noundef %144) #34
  br label %148

148:                                              ; preds = %142, %147
  call void @llvm.lifetime.end.p0(i64 32, ptr nonnull %7) #33
  resume { ptr, i32 } %143
}

; Function Attrs: uwtable
define linkonce_odr dso_local void @_ZStplIcSt11char_traitsIcESaIcEENSt7__cxx1112basic_stringIT_T0_T1_EEPKS5_RKS8_(ptr noalias sret(%"class.std::__cxx11::basic_string") align 8 %0, ptr noundef %1, ptr noundef nonnull align 8 dereferenceable(32) %2) local_unnamed_addr #3 comdat personality ptr @__gxx_personality_v0 {
  %4 = tail call i64 @strlen(ptr noundef nonnull dereferenceable(1) %1) #33
  %5 = getelementptr inbounds %"class.std::__cxx11::basic_string", ptr %0, i64 0, i32 2
  store ptr %5, ptr %0, align 8, !tbaa !13
  %6 = getelementptr inbounds %"class.std::__cxx11::basic_string", ptr %0, i64 0, i32 1
  store i64 0, ptr %6, align 8, !tbaa !12
  store i8 0, ptr %5, align 8, !tbaa !14
  %7 = getelementptr inbounds %"class.std::__cxx11::basic_string", ptr %2, i64 0, i32 1
  %8 = load i64, ptr %7, align 8, !tbaa !12
  %9 = add i64 %8, %4
  invoke void @_ZNSt7__cxx1112basic_stringIcSt11char_traitsIcESaIcEE7reserveEm(ptr noundef nonnull align 8 dereferenceable(32) %0, i64 noundef %9)
          to label %10 unwind label %26

10:                                               ; preds = %3
  %11 = load i64, ptr %6, align 8, !tbaa !12
  %12 = sub i64 4611686018427387903, %11
  %13 = icmp ult i64 %12, %4
  br i1 %13, label %21, label %14

14:                                               ; preds = %10
  %15 = invoke noundef nonnull align 8 dereferenceable(32) ptr @_ZNSt7__cxx1112basic_stringIcSt11char_traitsIcESaIcEE9_M_appendEPKcm(ptr noundef nonnull align 8 dereferenceable(32) %0, ptr noundef %1, i64 noundef %4)
          to label %16 unwind label %26

16:                                               ; preds = %14
  %17 = load i64, ptr %7, align 8, !tbaa !12
  %18 = load i64, ptr %6, align 8, !tbaa !12
  %19 = sub i64 4611686018427387903, %18
  %20 = icmp ult i64 %19, %17
  br i1 %20, label %21, label %23

21:                                               ; preds = %16, %10
  invoke void @_ZSt20__throw_length_errorPKc(ptr noundef nonnull @.str.95) #36
          to label %22 unwind label %26

22:                                               ; preds = %21
  unreachable

23:                                               ; preds = %16
  %24 = load ptr, ptr %2, align 8, !tbaa !5
  %25 = invoke noundef nonnull align 8 dereferenceable(32) ptr @_ZNSt7__cxx1112basic_stringIcSt11char_traitsIcESaIcEE9_M_appendEPKcm(ptr noundef nonnull align 8 dereferenceable(32) %0, ptr noundef %24, i64 noundef %17)
          to label %31 unwind label %26

26:                                               ; preds = %21, %23, %14, %3
  %27 = landingpad { ptr, i32 }
          cleanup
  %28 = load ptr, ptr %0, align 8, !tbaa !5
  %29 = icmp eq ptr %28, %5
  br i1 %29, label %32, label %30

30:                                               ; preds = %26
  tail call void @_ZdlPv(ptr noundef %28) #34
  br label %32

31:                                               ; preds = %23
  ret void

32:                                               ; preds = %30, %26
  resume { ptr, i32 } %27
}

; Function Attrs: uwtable
define dso_local void @_ZN7testing8internal24FindMaxBipartiteMatchingERKNS0_11MatchMatrixE(ptr noalias sret(%"class.std::vector.10") align 8 %0, ptr noundef nonnull align 8 dereferenceable(40) %1) local_unnamed_addr #3 personality ptr @__gxx_personality_v0 {
  %3 = alloca %"class.testing::internal::MaxBipartiteMatchState", align 8
  call void @llvm.lifetime.start.p0(i64 56, ptr nonnull %3) #33
  store ptr %1, ptr %3, align 8, !tbaa !98
  %4 = getelementptr inbounds %"class.testing::internal::MaxBipartiteMatchState", ptr %3, i64 0, i32 1
  %5 = load i64, ptr %1, align 8, !tbaa !104
  %6 = icmp ugt i64 %5, 1152921504606846975
  br i1 %6, label %7, label %8

7:                                                ; preds = %2
  tail call void @_ZSt20__throw_length_errorPKc(ptr noundef nonnull @.str.96) #36
  unreachable

8:                                                ; preds = %2
  call void @llvm.memset.p0.i64(ptr noundef nonnull align 8 dereferenceable(24) %4, i8 0, i64 24, i1 false)
  %9 = icmp eq i64 %5, 0
  br i1 %9, label %15, label %10

10:                                               ; preds = %8
  %11 = shl nuw nsw i64 %5, 3
  %12 = tail call noalias noundef nonnull ptr @_Znwm(i64 noundef %11) #35
  store ptr %12, ptr %4, align 8, !tbaa !110
  %13 = getelementptr inbounds i64, ptr %12, i64 %5
  %14 = getelementptr inbounds %"class.testing::internal::MaxBipartiteMatchState", ptr %3, i64 0, i32 1, i32 0, i32 0, i32 0, i32 2
  store ptr %13, ptr %14, align 8, !tbaa !111
  tail call void @llvm.memset.p0.i64(ptr nonnull align 8 %12, i8 -1, i64 %11, i1 false), !tbaa !80
  br label %15

15:                                               ; preds = %10, %8
  %16 = phi ptr [ %12, %10 ], [ null, %8 ]
  %17 = phi ptr [ %13, %10 ], [ null, %8 ]
  %18 = getelementptr inbounds %"class.testing::internal::MaxBipartiteMatchState", ptr %3, i64 0, i32 1, i32 0, i32 0, i32 0, i32 1
  store ptr %17, ptr %18, align 8, !tbaa !112
  %19 = getelementptr inbounds %"class.testing::internal::MaxBipartiteMatchState", ptr %3, i64 0, i32 2
  %20 = getelementptr inbounds %"class.testing::internal::MatchMatrix", ptr %1, i64 0, i32 1
  %21 = load i64, ptr %20, align 8, !tbaa !113
  %22 = icmp ugt i64 %21, 1152921504606846975
  br i1 %22, label %23, label %25

23:                                               ; preds = %15
  invoke void @_ZSt20__throw_length_errorPKc(ptr noundef nonnull @.str.96) #36
          to label %24 unwind label %33

24:                                               ; preds = %23
  unreachable

25:                                               ; preds = %15
  call void @llvm.memset.p0.i64(ptr noundef nonnull align 8 dereferenceable(24) %19, i8 0, i64 24, i1 false)
  %26 = icmp eq i64 %21, 0
  br i1 %26, label %39, label %27

27:                                               ; preds = %25
  %28 = shl nuw nsw i64 %21, 3
  %29 = invoke noalias noundef nonnull ptr @_Znwm(i64 noundef %28) #35
          to label %30 unwind label %33

30:                                               ; preds = %27
  store ptr %29, ptr %19, align 8, !tbaa !110
  %31 = getelementptr inbounds i64, ptr %29, i64 %21
  %32 = getelementptr inbounds %"class.testing::internal::MaxBipartiteMatchState", ptr %3, i64 0, i32 2, i32 0, i32 0, i32 0, i32 2
  store ptr %31, ptr %32, align 8, !tbaa !111
  tail call void @llvm.memset.p0.i64(ptr nonnull align 8 %29, i8 -1, i64 %28, i1 false), !tbaa !80
  br label %39

33:                                               ; preds = %27, %23
  %34 = landingpad { ptr, i32 }
          cleanup
  %35 = icmp eq ptr %16, null
  br i1 %35, label %37, label %36

36:                                               ; preds = %33
  tail call void @_ZdlPv(ptr noundef nonnull %16) #34
  br label %37

37:                                               ; preds = %33, %36, %51
  %38 = phi { ptr, i32 } [ %52, %51 ], [ %34, %36 ], [ %34, %33 ]
  resume { ptr, i32 } %38

39:                                               ; preds = %25, %30
  %40 = phi ptr [ %31, %30 ], [ null, %25 ]
  %41 = getelementptr inbounds %"class.testing::internal::MaxBipartiteMatchState", ptr %3, i64 0, i32 2, i32 0, i32 0, i32 0, i32 1
  store ptr %40, ptr %41, align 8, !tbaa !112
  invoke void @_ZN7testing8internal22MaxBipartiteMatchState7ComputeEv(ptr sret(%"class.std::vector.10") align 8 %0, ptr noundef nonnull align 8 dereferenceable(56) %3)
          to label %42 unwind label %51

42:                                               ; preds = %39
  %43 = load ptr, ptr %19, align 8, !tbaa !110
  %44 = icmp eq ptr %43, null
  br i1 %44, label %46, label %45

45:                                               ; preds = %42
  call void @_ZdlPv(ptr noundef nonnull %43) #34
  br label %46

46:                                               ; preds = %45, %42
  %47 = load ptr, ptr %4, align 8, !tbaa !110
  %48 = icmp eq ptr %47, null
  br i1 %48, label %50, label %49

49:                                               ; preds = %46
  call void @_ZdlPv(ptr noundef nonnull %47) #34
  br label %50

50:                                               ; preds = %46, %49
  call void @llvm.lifetime.end.p0(i64 56, ptr nonnull %3) #33
  ret void

51:                                               ; preds = %39
  %52 = landingpad { ptr, i32 }
          cleanup
  call void @_ZN7testing8internal22MaxBipartiteMatchStateD2Ev(ptr noundef nonnull align 8 dereferenceable(56) %3) #33
  call void @llvm.lifetime.end.p0(i64 56, ptr nonnull %3) #33
  br label %37
}

; Function Attrs: uwtable
define linkonce_odr hidden void @_ZN7testing8internal22MaxBipartiteMatchState7ComputeEv(ptr noalias sret(%"class.std::vector.10") align 8 %0, ptr noundef nonnull align 8 dereferenceable(56) %1) local_unnamed_addr #3 comdat align 2 personality ptr @__gxx_personality_v0 {
  %3 = alloca %"class.std::vector.8", align 8
  %4 = alloca %"class.testing::internal::GTestLog", align 4
  call void @llvm.lifetime.start.p0(i64 24, ptr nonnull %3) #33
  call void @llvm.memset.p0.i64(ptr noundef nonnull align 8 dereferenceable(24) %3, i8 0, i64 24, i1 false)
  %5 = load ptr, ptr %1, align 8, !tbaa !98
  %6 = load i64, ptr %5, align 8, !tbaa !104
  %7 = icmp eq i64 %6, 0
  br i1 %7, label %12, label %8

8:                                                ; preds = %2
  %9 = getelementptr inbounds %"class.testing::internal::MaxBipartiteMatchState", ptr %1, i64 0, i32 1
  %10 = getelementptr inbounds %"struct.std::_Vector_base<char, std::allocator<char>>::_Vector_impl_data", ptr %3, i64 0, i32 2
  %11 = getelementptr inbounds %"struct.std::_Vector_base<char, std::allocator<char>>::_Vector_impl_data", ptr %3, i64 0, i32 1
  br label %23

12:                                               ; preds = %107, %2
  call void @llvm.memset.p0.i64(ptr noundef nonnull align 8 dereferenceable(24) %0, i8 0, i64 24, i1 false)
  %13 = getelementptr inbounds %"class.testing::internal::MaxBipartiteMatchState", ptr %1, i64 0, i32 1
  %14 = getelementptr inbounds %"class.testing::internal::MaxBipartiteMatchState", ptr %1, i64 0, i32 1, i32 0, i32 0, i32 0, i32 1
  %15 = load ptr, ptr %14, align 8, !tbaa !112
  %16 = load ptr, ptr %13, align 8, !tbaa !110
  %17 = icmp eq ptr %15, %16
  br i1 %17, label %116, label %18

18:                                               ; preds = %12
  %19 = getelementptr inbounds %"struct.std::_Vector_base<std::pair<unsigned long, unsigned long>, std::allocator<std::pair<unsigned long, unsigned long>>>::_Vector_impl_data", ptr %0, i64 0, i32 1
  %20 = getelementptr inbounds %"struct.std::_Vector_base<std::pair<unsigned long, unsigned long>, std::allocator<std::pair<unsigned long, unsigned long>>>::_Vector_impl_data", ptr %0, i64 0, i32 2
  br label %121

21:                                               ; preds = %105, %23
  %22 = landingpad { ptr, i32 }
          cleanup
  br label %192

23:                                               ; preds = %8, %107
  %24 = phi i64 [ 0, %8 ], [ %108, %107 ]
  %25 = load ptr, ptr %9, align 8, !tbaa !110
  %26 = getelementptr inbounds i64, ptr %25, i64 %24
  %27 = load i64, ptr %26, align 8, !tbaa !80
  %28 = icmp eq i64 %27, -1
  %29 = invoke noundef zeroext i1 @_ZN7testing8internal6IsTrueEb(i1 noundef zeroext %28)
          to label %30 unwind label %21

30:                                               ; preds = %23
  br i1 %29, label %52, label %31

31:                                               ; preds = %30
  call void @llvm.lifetime.start.p0(i64 4, ptr nonnull %4) #33
  invoke void @_ZN7testing8internal8GTestLogC1ENS0_16GTestLogSeverityEPKci(ptr noundef nonnull align 4 dereferenceable(4) %4, i32 noundef 3, ptr noundef nonnull @.str.97, i32 noundef 151)
          to label %32 unwind label %46

32:                                               ; preds = %31
  %33 = invoke noundef nonnull align 8 dereferenceable(8) ptr @_ZSt16__ostream_insertIcSt11char_traitsIcEERSt13basic_ostreamIT_T0_ES6_PKS3_l(ptr noundef nonnull align 8 dereferenceable(8) @_ZSt4cerr, ptr noundef nonnull @.str.98, i64 noundef 41)
          to label %34 unwind label %48

34:                                               ; preds = %32
  %35 = invoke noundef nonnull align 8 dereferenceable(8) ptr @_ZSt16__ostream_insertIcSt11char_traitsIcEERSt13basic_ostreamIT_T0_ES6_PKS3_l(ptr noundef nonnull align 8 dereferenceable(8) @_ZSt4cerr, ptr noundef nonnull @.str.99, i64 noundef 6)
          to label %36 unwind label %48

36:                                               ; preds = %34
  %37 = invoke noundef nonnull align 8 dereferenceable(8) ptr @_ZNSo9_M_insertImEERSoT_(ptr noundef nonnull align 8 dereferenceable(8) @_ZSt4cerr, i64 noundef %24)
          to label %38 unwind label %48

38:                                               ; preds = %36
  %39 = invoke noundef nonnull align 8 dereferenceable(8) ptr @_ZSt16__ostream_insertIcSt11char_traitsIcEERSt13basic_ostreamIT_T0_ES6_PKS3_l(ptr noundef nonnull align 8 dereferenceable(8) %37, ptr noundef nonnull @.str.100, i64 noundef 15)
          to label %40 unwind label %48

40:                                               ; preds = %38
  %41 = load ptr, ptr %9, align 8, !tbaa !110
  %42 = getelementptr inbounds i64, ptr %41, i64 %24
  %43 = load i64, ptr %42, align 8, !tbaa !80
  %44 = invoke noundef nonnull align 8 dereferenceable(8) ptr @_ZNSo9_M_insertImEERSoT_(ptr noundef nonnull align 8 dereferenceable(8) %37, i64 noundef %43)
          to label %45 unwind label %48

45:                                               ; preds = %40
  call void @_ZN7testing8internal8GTestLogD1Ev(ptr noundef nonnull align 4 dereferenceable(4) %4) #33
  call void @llvm.lifetime.end.p0(i64 4, ptr nonnull %4) #33
  br label %52

46:                                               ; preds = %31
  %47 = landingpad { ptr, i32 }
          cleanup
  br label %50

48:                                               ; preds = %40, %38, %36, %34, %32
  %49 = landingpad { ptr, i32 }
          cleanup
  call void @_ZN7testing8internal8GTestLogD1Ev(ptr noundef nonnull align 4 dereferenceable(4) %4) #33
  br label %50

50:                                               ; preds = %48, %46
  %51 = phi { ptr, i32 } [ %49, %48 ], [ %47, %46 ]
  call void @llvm.lifetime.end.p0(i64 4, ptr nonnull %4) #33
  br label %192

52:                                               ; preds = %30, %45
  %53 = load ptr, ptr %1, align 8, !tbaa !98
  %54 = getelementptr inbounds %"class.testing::internal::MatchMatrix", ptr %53, i64 0, i32 1
  %55 = load i64, ptr %54, align 8, !tbaa !113
  %56 = load ptr, ptr %10, align 8, !tbaa !114
  %57 = load ptr, ptr %3, align 8, !tbaa !115
  %58 = ptrtoint ptr %56 to i64
  %59 = ptrtoint ptr %57 to i64
  %60 = sub i64 %58, %59
  %61 = icmp ult i64 %60, %55
  br i1 %61, label %62, label %72

62:                                               ; preds = %52
  %63 = icmp slt i64 %55, 0
  br i1 %63, label %64, label %66

64:                                               ; preds = %62
  invoke void @_ZSt20__throw_length_errorPKc(ptr noundef nonnull @.str.96) #36
          to label %65 unwind label %114

65:                                               ; preds = %64
  unreachable

66:                                               ; preds = %62
  %67 = invoke noalias noundef nonnull ptr @_Znwm(i64 noundef %55) #35
          to label %68 unwind label %112

68:                                               ; preds = %66
  %69 = getelementptr inbounds i8, ptr %67, i64 %55
  call void @llvm.memset.p0.i64(ptr nonnull align 1 %67, i8 0, i64 %55, i1 false)
  store ptr %67, ptr %3, align 8, !tbaa !115
  store ptr %69, ptr %11, align 8, !tbaa !116
  store ptr %69, ptr %10, align 8, !tbaa !114
  %70 = icmp eq ptr %57, null
  br i1 %70, label %105, label %71

71:                                               ; preds = %68
  call void @_ZdlPv(ptr noundef nonnull %57) #34
  br label %105

72:                                               ; preds = %52
  %73 = load ptr, ptr %11, align 8, !tbaa !116
  %74 = ptrtoint ptr %73 to i64
  %75 = sub i64 %74, %59
  %76 = icmp ult i64 %75, %55
  br i1 %76, label %77, label %95

77:                                               ; preds = %72
  %78 = icmp eq ptr %73, %57
  br i1 %78, label %84, label %79

79:                                               ; preds = %77
  call void @llvm.memset.p0.i64(ptr align 1 %57, i8 0, i64 %75, i1 false)
  %80 = load ptr, ptr %11, align 8, !tbaa !116
  %81 = load ptr, ptr %3, align 8, !tbaa !115
  %82 = ptrtoint ptr %80 to i64
  %83 = ptrtoint ptr %81 to i64
  br label %84

84:                                               ; preds = %79, %77
  %85 = phi i64 [ %59, %77 ], [ %83, %79 ]
  %86 = phi i64 [ %59, %77 ], [ %82, %79 ]
  %87 = phi ptr [ %57, %77 ], [ %80, %79 ]
  %88 = sub i64 %85, %86
  %89 = add i64 %88, %55
  %90 = icmp eq i64 %89, 0
  br i1 %90, label %93, label %91

91:                                               ; preds = %84
  %92 = getelementptr inbounds i8, ptr %87, i64 %89
  call void @llvm.memset.p0.i64(ptr align 1 %87, i8 0, i64 %89, i1 false)
  br label %93

93:                                               ; preds = %91, %84
  %94 = phi ptr [ %87, %84 ], [ %92, %91 ]
  store ptr %94, ptr %11, align 8, !tbaa !116
  br label %105

95:                                               ; preds = %72
  %96 = icmp eq i64 %55, 0
  br i1 %96, label %100, label %97

97:                                               ; preds = %95
  %98 = getelementptr inbounds i8, ptr %57, i64 %55
  call void @llvm.memset.p0.i64(ptr align 1 %57, i8 0, i64 %55, i1 false)
  %99 = load ptr, ptr %11, align 8, !tbaa !116
  br label %100

100:                                              ; preds = %97, %95
  %101 = phi ptr [ %73, %95 ], [ %99, %97 ]
  %102 = phi ptr [ %57, %95 ], [ %98, %97 ]
  %103 = icmp eq ptr %101, %102
  br i1 %103, label %105, label %104

104:                                              ; preds = %100
  store ptr %102, ptr %11, align 8, !tbaa !116
  br label %105

105:                                              ; preds = %68, %71, %93, %100, %104
  %106 = invoke noundef zeroext i1 @_ZN7testing8internal22MaxBipartiteMatchState10TryAugmentEmPSt6vectorIcSaIcEE(ptr noundef nonnull align 8 dereferenceable(56) %1, i64 noundef %24, ptr noundef nonnull %3)
          to label %107 unwind label %21

107:                                              ; preds = %105
  %108 = add nuw i64 %24, 1
  %109 = load ptr, ptr %1, align 8, !tbaa !98
  %110 = load i64, ptr %109, align 8, !tbaa !104
  %111 = icmp ult i64 %108, %110
  br i1 %111, label %23, label %12, !llvm.loop !117

112:                                              ; preds = %66
  %113 = landingpad { ptr, i32 }
          cleanup
  br label %192

114:                                              ; preds = %64
  %115 = landingpad { ptr, i32 }
          cleanup
  br label %192

116:                                              ; preds = %172, %12
  %117 = load ptr, ptr %3, align 8, !tbaa !115
  %118 = icmp eq ptr %117, null
  br i1 %118, label %120, label %119

119:                                              ; preds = %116
  call void @_ZdlPv(ptr noundef nonnull %117) #34
  br label %120

120:                                              ; preds = %116, %119
  call void @llvm.lifetime.end.p0(i64 24, ptr nonnull %3) #33
  ret void

121:                                              ; preds = %18, %172
  %122 = phi ptr [ null, %18 ], [ %173, %172 ]
  %123 = phi ptr [ null, %18 ], [ %174, %172 ]
  %124 = phi ptr [ %16, %18 ], [ %178, %172 ]
  %125 = phi i64 [ 0, %18 ], [ %176, %172 ]
  %126 = phi ptr [ null, %18 ], [ %175, %172 ]
  %127 = getelementptr inbounds i64, ptr %124, i64 %125
  %128 = load i64, ptr %127, align 8, !tbaa !80
  %129 = icmp eq i64 %128, -1
  br i1 %129, label %172, label %130

130:                                              ; preds = %121
  %131 = icmp eq ptr %123, %122
  br i1 %131, label %135, label %132

132:                                              ; preds = %130
  store i64 %125, ptr %123, align 8
  %133 = getelementptr inbounds i8, ptr %123, i64 8
  store i64 %128, ptr %133, align 8
  %134 = getelementptr inbounds %"struct.std::pair", ptr %123, i64 1
  store ptr %134, ptr %19, align 8, !tbaa !118
  br label %172

135:                                              ; preds = %130
  %136 = ptrtoint ptr %122 to i64
  %137 = ptrtoint ptr %126 to i64
  %138 = sub i64 %136, %137
  %139 = icmp eq i64 %138, 9223372036854775792
  br i1 %139, label %140, label %142

140:                                              ; preds = %135
  invoke void @_ZSt20__throw_length_errorPKc(ptr noundef nonnull @.str.101) #36
          to label %141 unwind label %186

141:                                              ; preds = %140
  unreachable

142:                                              ; preds = %135
  %143 = ashr exact i64 %138, 4
  %144 = call i64 @llvm.umax.i64(i64 %143, i64 1)
  %145 = add i64 %144, %143
  %146 = icmp ult i64 %145, %143
  %147 = icmp ugt i64 %145, 576460752303423487
  %148 = or i1 %146, %147
  %149 = select i1 %148, i64 576460752303423487, i64 %145
  %150 = icmp eq i64 %149, 0
  br i1 %150, label %154, label %151

151:                                              ; preds = %142
  %152 = shl nuw nsw i64 %149, 4
  %153 = invoke noalias noundef nonnull ptr @_Znwm(i64 noundef %152) #35
          to label %154 unwind label %184

154:                                              ; preds = %151, %142
  %155 = phi ptr [ null, %142 ], [ %153, %151 ]
  %156 = getelementptr inbounds %"struct.std::pair", ptr %155, i64 %143
  store i64 %125, ptr %156, align 8
  %157 = getelementptr inbounds i8, ptr %156, i64 8
  store i64 %128, ptr %157, align 8
  %158 = icmp eq ptr %126, %122
  br i1 %158, label %165, label %159

159:                                              ; preds = %154, %159
  %160 = phi ptr [ %163, %159 ], [ %155, %154 ]
  %161 = phi ptr [ %162, %159 ], [ %126, %154 ]
  call void @llvm.memcpy.p0.p0.i64(ptr noundef nonnull align 8 dereferenceable(16) %160, ptr noundef nonnull align 8 dereferenceable(16) %161, i64 16, i1 false), !alias.scope !120
  %162 = getelementptr inbounds %"struct.std::pair", ptr %161, i64 1
  %163 = getelementptr inbounds %"struct.std::pair", ptr %160, i64 1
  %164 = icmp eq ptr %162, %122
  br i1 %164, label %165, label %159, !llvm.loop !124

165:                                              ; preds = %159, %154
  %166 = phi ptr [ %155, %154 ], [ %163, %159 ]
  %167 = getelementptr %"struct.std::pair", ptr %166, i64 1
  %168 = icmp eq ptr %126, null
  br i1 %168, label %170, label %169

169:                                              ; preds = %165
  call void @_ZdlPv(ptr noundef nonnull %126) #34
  br label %170

170:                                              ; preds = %169, %165
  store ptr %155, ptr %0, align 8, !tbaa !125
  store ptr %167, ptr %19, align 8, !tbaa !118
  %171 = getelementptr inbounds %"struct.std::pair", ptr %155, i64 %149
  store ptr %171, ptr %20, align 8, !tbaa !126
  br label %172

172:                                              ; preds = %132, %170, %121
  %173 = phi ptr [ %122, %132 ], [ %171, %170 ], [ %122, %121 ]
  %174 = phi ptr [ %134, %132 ], [ %167, %170 ], [ %123, %121 ]
  %175 = phi ptr [ %126, %132 ], [ %155, %170 ], [ %126, %121 ]
  %176 = add nuw i64 %125, 1
  %177 = load ptr, ptr %14, align 8, !tbaa !112
  %178 = load ptr, ptr %13, align 8, !tbaa !110
  %179 = ptrtoint ptr %177 to i64
  %180 = ptrtoint ptr %178 to i64
  %181 = sub i64 %179, %180
  %182 = ashr exact i64 %181, 3
  %183 = icmp ult i64 %176, %182
  br i1 %183, label %121, label %116, !llvm.loop !127

184:                                              ; preds = %151
  %185 = landingpad { ptr, i32 }
          cleanup
  br label %188

186:                                              ; preds = %140
  %187 = landingpad { ptr, i32 }
          cleanup
  br label %188

188:                                              ; preds = %186, %184
  %189 = phi { ptr, i32 } [ %185, %184 ], [ %187, %186 ]
  %190 = icmp eq ptr %126, null
  br i1 %190, label %192, label %191

191:                                              ; preds = %188
  call void @_ZdlPv(ptr noundef nonnull %126) #34
  br label %192

192:                                              ; preds = %112, %114, %191, %188, %21, %50
  %193 = phi { ptr, i32 } [ %22, %21 ], [ %51, %50 ], [ %189, %188 ], [ %189, %191 ], [ %113, %112 ], [ %115, %114 ]
  %194 = load ptr, ptr %3, align 8, !tbaa !115
  %195 = icmp eq ptr %194, null
  br i1 %195, label %197, label %196

196:                                              ; preds = %192
  call void @_ZdlPv(ptr noundef nonnull %194) #34
  br label %197

197:                                              ; preds = %192, %196
  call void @llvm.lifetime.end.p0(i64 24, ptr nonnull %3) #33
  resume { ptr, i32 } %193
}

; Function Attrs: inlinehint nounwind uwtable
define linkonce_odr hidden void @_ZN7testing8internal22MaxBipartiteMatchStateD2Ev(ptr noundef nonnull align 8 dereferenceable(56) %0) unnamed_addr #14 comdat align 2 personality ptr @__gxx_personality_v0 {
  %2 = getelementptr inbounds %"class.testing::internal::MaxBipartiteMatchState", ptr %0, i64 0, i32 2
  %3 = load ptr, ptr %2, align 8, !tbaa !110
  %4 = icmp eq ptr %3, null
  br i1 %4, label %6, label %5

5:                                                ; preds = %1
  tail call void @_ZdlPv(ptr noundef nonnull %3) #34
  br label %6

6:                                                ; preds = %1, %5
  %7 = getelementptr inbounds %"class.testing::internal::MaxBipartiteMatchState", ptr %0, i64 0, i32 1
  %8 = load ptr, ptr %7, align 8, !tbaa !110
  %9 = icmp eq ptr %8, null
  br i1 %9, label %11, label %10

10:                                               ; preds = %6
  tail call void @_ZdlPv(ptr noundef nonnull %8) #34
  br label %11

11:                                               ; preds = %6, %10
  ret void
}

; Function Attrs: mustprogress nofree norecurse nosync nounwind memory(readwrite, inaccessiblemem: none) uwtable
define dso_local noundef zeroext i1 @_ZN7testing8internal11MatchMatrix9NextGraphEv(ptr nocapture noundef nonnull readonly align 8 dereferenceable(40) %0) local_unnamed_addr #15 align 2 {
  %2 = load i64, ptr %0, align 8, !tbaa !104
  %3 = icmp eq i64 %2, 0
  br i1 %3, label %35, label %4

4:                                                ; preds = %1
  %5 = getelementptr inbounds %"class.testing::internal::MatchMatrix", ptr %0, i64 0, i32 1
  %6 = getelementptr inbounds %"class.testing::internal::MatchMatrix", ptr %0, i64 0, i32 2
  %7 = load i64, ptr %5, align 8, !tbaa !113
  %8 = icmp eq i64 %7, 0
  br i1 %8, label %35, label %9

9:                                                ; preds = %4, %30
  %10 = phi i64 [ %31, %30 ], [ %2, %4 ]
  %11 = phi i64 [ %32, %30 ], [ %7, %4 ]
  %12 = phi i64 [ %33, %30 ], [ 0, %4 ]
  %13 = icmp eq i64 %11, 0
  br i1 %13, label %30, label %18

14:                                               ; preds = %18
  %15 = add nuw i64 %20, 1
  %16 = load i64, ptr %5, align 8, !tbaa !113
  %17 = icmp ult i64 %15, %16
  br i1 %17, label %18, label %28, !llvm.loop !128

18:                                               ; preds = %9, %14
  %19 = phi i64 [ %16, %14 ], [ %11, %9 ]
  %20 = phi i64 [ %15, %14 ], [ 0, %9 ]
  %21 = mul i64 %19, %12
  %22 = add i64 %21, %20
  %23 = load ptr, ptr %6, align 8, !tbaa !115
  %24 = getelementptr inbounds i8, ptr %23, i64 %22
  %25 = load i8, ptr %24, align 1, !tbaa !14
  %26 = icmp eq i8 %25, 0
  %27 = zext i1 %26 to i8
  store i8 %27, ptr %24, align 1, !tbaa !14
  br i1 %26, label %35, label %14

28:                                               ; preds = %14
  %29 = load i64, ptr %0, align 8, !tbaa !104
  br label %30

30:                                               ; preds = %28, %9
  %31 = phi i64 [ %29, %28 ], [ %10, %9 ]
  %32 = phi i64 [ %16, %28 ], [ 0, %9 ]
  %33 = add nuw i64 %12, 1
  %34 = icmp ult i64 %33, %31
  br i1 %34, label %9, label %35, !llvm.loop !129

35:                                               ; preds = %30, %18, %4, %1
  %36 = phi i1 [ false, %1 ], [ false, %4 ], [ true, %18 ], [ false, %30 ]
  ret i1 %36
}

; Function Attrs: mustprogress nounwind uwtable
define dso_local void @_ZN7testing8internal11MatchMatrix9RandomizeEv(ptr nocapture noundef nonnull readonly align 8 dereferenceable(40) %0) local_unnamed_addr #11 align 2 {
  %2 = load i64, ptr %0, align 8, !tbaa !104
  %3 = icmp eq i64 %2, 0
  br i1 %3, label %14, label %4

4:                                                ; preds = %1
  %5 = getelementptr inbounds %"class.testing::internal::MatchMatrix", ptr %0, i64 0, i32 1
  %6 = getelementptr inbounds %"class.testing::internal::MatchMatrix", ptr %0, i64 0, i32 2
  %7 = load i64, ptr %5, align 8, !tbaa !113
  %8 = icmp eq i64 %7, 0
  br i1 %8, label %14, label %9

9:                                                ; preds = %4, %17
  %10 = phi i64 [ %18, %17 ], [ %2, %4 ]
  %11 = phi i64 [ %19, %17 ], [ %7, %4 ]
  %12 = phi i64 [ %20, %17 ], [ 0, %4 ]
  %13 = icmp eq i64 %11, 0
  br i1 %13, label %17, label %22

14:                                               ; preds = %17, %4, %1
  ret void

15:                                               ; preds = %22
  %16 = load i64, ptr %0, align 8, !tbaa !104
  br label %17

17:                                               ; preds = %15, %9
  %18 = phi i64 [ %16, %15 ], [ %10, %9 ]
  %19 = phi i64 [ %33, %15 ], [ 0, %9 ]
  %20 = add nuw i64 %12, 1
  %21 = icmp ult i64 %20, %18
  br i1 %21, label %9, label %14, !llvm.loop !131

22:                                               ; preds = %9, %22
  %23 = phi i64 [ %33, %22 ], [ %11, %9 ]
  %24 = phi i64 [ %32, %22 ], [ 0, %9 ]
  %25 = mul i64 %23, %12
  %26 = add i64 %25, %24
  %27 = load ptr, ptr %6, align 8, !tbaa !115
  %28 = getelementptr inbounds i8, ptr %27, i64 %26
  %29 = tail call i32 @rand() #33
  %30 = trunc i32 %29 to i8
  %31 = and i8 %30, 1
  store i8 %31, ptr %28, align 1, !tbaa !14
  %32 = add nuw i64 %24, 1
  %33 = load i64, ptr %5, align 8, !tbaa !113
  %34 = icmp ult i64 %32, %33
  br i1 %34, label %22, label %15, !llvm.loop !132
}

; Function Attrs: nounwind
declare i32 @rand() local_unnamed_addr #1

; Function Attrs: uwtable
define dso_local void @_ZNK7testing8internal11MatchMatrix11DebugStringB5cxx11Ev(ptr noalias sret(%"class.std::__cxx11::basic_string") align 8 %0, ptr nocapture noundef nonnull readonly align 8 dereferenceable(40) %1) local_unnamed_addr #3 align 2 personality ptr @__gxx_personality_v0 {
  %3 = alloca %"class.std::__cxx11::basic_stringstream", align 8
  call void @llvm.lifetime.start.p0(i64 392, ptr nonnull %3) #33
  call void @_ZNSt7__cxx1118basic_stringstreamIcSt11char_traitsIcESaIcEEC1Ev(ptr noundef nonnull align 8 dereferenceable(128) %3)
  %4 = load i64, ptr %1, align 8, !tbaa !104
  %5 = icmp eq i64 %4, 0
  br i1 %5, label %10, label %6

6:                                                ; preds = %2
  %7 = getelementptr inbounds i8, ptr %3, i64 16
  %8 = getelementptr inbounds %"class.testing::internal::MatchMatrix", ptr %1, i64 0, i32 1
  %9 = getelementptr inbounds %"class.testing::internal::MatchMatrix", ptr %1, i64 0, i32 2
  br label %38

10:                                               ; preds = %46, %2
  call void @llvm.experimental.noalias.scope.decl(metadata !133)
  call void @llvm.experimental.noalias.scope.decl(metadata !136)
  %11 = getelementptr inbounds %"class.std::__cxx11::basic_string", ptr %0, i64 0, i32 2
  store ptr %11, ptr %0, align 8, !tbaa !13, !alias.scope !139
  %12 = getelementptr inbounds %"class.std::__cxx11::basic_string", ptr %0, i64 0, i32 1
  store i64 0, ptr %12, align 8, !tbaa !12, !alias.scope !139
  store i8 0, ptr %11, align 8, !tbaa !14, !alias.scope !139
  %13 = getelementptr inbounds %"class.std::__cxx11::basic_stringstream", ptr %3, i64 0, i32 1, i32 0, i32 5
  %14 = load ptr, ptr %13, align 8, !tbaa !22, !noalias !139
  %15 = icmp eq ptr %14, null
  %16 = getelementptr inbounds %"class.std::__cxx11::basic_stringstream", ptr %3, i64 0, i32 1, i32 0, i32 3
  %17 = load ptr, ptr %16, align 8, !noalias !139
  %18 = icmp ugt ptr %14, %17
  %19 = select i1 %18, ptr %14, ptr %17
  %20 = icmp eq ptr %19, null
  %21 = select i1 %15, i1 true, i1 %20
  br i1 %21, label %34, label %22

22:                                               ; preds = %10
  %23 = getelementptr inbounds %"class.std::__cxx11::basic_stringstream", ptr %3, i64 0, i32 1, i32 0, i32 4
  %24 = load ptr, ptr %23, align 8, !tbaa !25, !noalias !139
  %25 = ptrtoint ptr %19 to i64
  %26 = ptrtoint ptr %24 to i64
  %27 = sub i64 %25, %26
  %28 = invoke noundef nonnull align 8 dereferenceable(32) ptr @_ZNSt7__cxx1112basic_stringIcSt11char_traitsIcESaIcEE10_M_replaceEmmPKcm(ptr noundef nonnull align 8 dereferenceable(32) %0, i64 noundef 0, i64 noundef 0, ptr noundef %24, i64 noundef %27)
          to label %66 unwind label %29

29:                                               ; preds = %34, %22
  %30 = landingpad { ptr, i32 }
          cleanup
  %31 = load ptr, ptr %0, align 8, !tbaa !5, !alias.scope !139
  %32 = icmp eq ptr %31, %11
  br i1 %32, label %89, label %33

33:                                               ; preds = %29
  call void @_ZdlPv(ptr noundef %31) #34
  br label %89

34:                                               ; preds = %10
  %35 = getelementptr inbounds %"class.std::__cxx11::basic_stringstream", ptr %3, i64 0, i32 1, i32 2
  invoke void @_ZNSt7__cxx1112basic_stringIcSt11char_traitsIcESaIcEE9_M_assignERKS4_(ptr noundef nonnull align 8 dereferenceable(32) %0, ptr noundef nonnull align 8 dereferenceable(32) %35)
          to label %66 unwind label %29

36:                                               ; preds = %38
  %37 = landingpad { ptr, i32 }
          cleanup
  br label %89

38:                                               ; preds = %6, %46
  %39 = phi i64 [ 0, %6 ], [ %47, %46 ]
  %40 = phi ptr [ @.str.4, %6 ], [ @.str.14, %46 ]
  %41 = call i64 @strlen(ptr noundef nonnull dereferenceable(1) %40) #33
  %42 = invoke noundef nonnull align 8 dereferenceable(8) ptr @_ZSt16__ostream_insertIcSt11char_traitsIcEERSt13basic_ostreamIT_T0_ES6_PKS3_l(ptr noundef nonnull align 8 dereferenceable(8) %7, ptr noundef nonnull %40, i64 noundef %41)
          to label %43 unwind label %36

43:                                               ; preds = %38
  %44 = load i64, ptr %8, align 8, !tbaa !113
  %45 = icmp eq i64 %44, 0
  br i1 %45, label %46, label %52

46:                                               ; preds = %62, %43
  %47 = add nuw i64 %39, 1
  %48 = load i64, ptr %1, align 8, !tbaa !104
  %49 = icmp ult i64 %47, %48
  br i1 %49, label %38, label %10, !llvm.loop !140

50:                                               ; preds = %52
  %51 = landingpad { ptr, i32 }
          cleanup
  br label %89

52:                                               ; preds = %43, %62
  %53 = phi i64 [ %64, %62 ], [ %44, %43 ]
  %54 = phi i64 [ %63, %62 ], [ 0, %43 ]
  %55 = mul i64 %53, %39
  %56 = add i64 %55, %54
  %57 = load ptr, ptr %9, align 8, !tbaa !115
  %58 = getelementptr inbounds i8, ptr %57, i64 %56
  %59 = load i8, ptr %58, align 1, !tbaa !14
  %60 = icmp eq i8 %59, 1
  %61 = invoke noundef nonnull align 8 dereferenceable(8) ptr @_ZNSo9_M_insertIbEERSoT_(ptr noundef nonnull align 8 dereferenceable(8) %7, i1 noundef zeroext %60)
          to label %62 unwind label %50

62:                                               ; preds = %52
  %63 = add nuw i64 %54, 1
  %64 = load i64, ptr %8, align 8, !tbaa !113
  %65 = icmp ult i64 %63, %64
  br i1 %65, label %52, label %46, !llvm.loop !141

66:                                               ; preds = %34, %22
  %67 = load ptr, ptr @_ZTTNSt7__cxx1118basic_stringstreamIcSt11char_traitsIcESaIcEEE, align 8
  store ptr %67, ptr %3, align 8, !tbaa !26
  %68 = load ptr, ptr getelementptr inbounds ([10 x ptr], ptr @_ZTTNSt7__cxx1118basic_stringstreamIcSt11char_traitsIcESaIcEEE, i64 0, i64 8), align 8
  %69 = getelementptr i8, ptr %67, i64 -24
  %70 = load i64, ptr %69, align 8
  %71 = getelementptr inbounds i8, ptr %3, i64 %70
  store ptr %68, ptr %71, align 8, !tbaa !26
  %72 = load ptr, ptr getelementptr inbounds ([10 x ptr], ptr @_ZTTNSt7__cxx1118basic_stringstreamIcSt11char_traitsIcESaIcEEE, i64 0, i64 9), align 8
  %73 = getelementptr inbounds i8, ptr %3, i64 16
  store ptr %72, ptr %73, align 8, !tbaa !26
  %74 = getelementptr inbounds %"class.std::__cxx11::basic_stringstream", ptr %3, i64 0, i32 1
  store ptr getelementptr inbounds ({ [16 x ptr] }, ptr @_ZTVNSt7__cxx1115basic_stringbufIcSt11char_traitsIcESaIcEEE, i64 0, inrange i32 0, i64 2), ptr %74, align 8, !tbaa !26
  %75 = getelementptr inbounds %"class.std::__cxx11::basic_stringstream", ptr %3, i64 0, i32 1, i32 2
  %76 = load ptr, ptr %75, align 8, !tbaa !5
  %77 = getelementptr inbounds %"class.std::__cxx11::basic_stringstream", ptr %3, i64 0, i32 1, i32 2, i32 2
  %78 = icmp eq ptr %76, %77
  br i1 %78, label %80, label %79

79:                                               ; preds = %66
  call void @_ZdlPv(ptr noundef %76) #34
  br label %80

80:                                               ; preds = %66, %79
  store ptr getelementptr inbounds ({ [16 x ptr] }, ptr @_ZTVSt15basic_streambufIcSt11char_traitsIcEE, i64 0, inrange i32 0, i64 2), ptr %74, align 8, !tbaa !26
  %81 = getelementptr inbounds %"class.std::__cxx11::basic_stringstream", ptr %3, i64 0, i32 1, i32 0, i32 7
  call void @_ZNSt6localeD1Ev(ptr noundef nonnull align 8 dereferenceable(8) %81) #33
  %82 = load ptr, ptr getelementptr inbounds ([10 x ptr], ptr @_ZTTNSt7__cxx1118basic_stringstreamIcSt11char_traitsIcESaIcEEE, i64 0, i64 2), align 8
  store ptr %82, ptr %3, align 8, !tbaa !26
  %83 = load ptr, ptr getelementptr inbounds ([10 x ptr], ptr @_ZTTNSt7__cxx1118basic_stringstreamIcSt11char_traitsIcESaIcEEE, i64 0, i64 3), align 8
  %84 = getelementptr i8, ptr %82, i64 -24
  %85 = load i64, ptr %84, align 8
  %86 = getelementptr inbounds i8, ptr %3, i64 %85
  store ptr %83, ptr %86, align 8, !tbaa !26
  %87 = getelementptr inbounds %"class.std::basic_istream", ptr %3, i64 0, i32 1
  store i64 0, ptr %87, align 8, !tbaa !28
  %88 = getelementptr inbounds i8, ptr %3, i64 128
  call void @_ZNSt8ios_baseD2Ev(ptr noundef nonnull align 8 dereferenceable(264) %88) #33
  call void @llvm.lifetime.end.p0(i64 392, ptr nonnull %3) #33
  ret void

89:                                               ; preds = %33, %29, %36, %50
  %90 = phi { ptr, i32 } [ %51, %50 ], [ %37, %36 ], [ %30, %33 ], [ %30, %29 ]
  call void @_ZNSt7__cxx1118basic_stringstreamIcSt11char_traitsIcESaIcEED1Ev(ptr noundef nonnull align 8 dereferenceable(128) %3) #33
  call void @llvm.lifetime.end.p0(i64 392, ptr nonnull %3) #33
  resume { ptr, i32 } %90
}

; Function Attrs: uwtable
declare void @_ZNSt7__cxx1118basic_stringstreamIcSt11char_traitsIcESaIcEEC1Ev(ptr noundef nonnull align 8 dereferenceable(128)) unnamed_addr #3 align 2

; Function Attrs: nounwind uwtable
declare void @_ZNSt7__cxx1118basic_stringstreamIcSt11char_traitsIcESaIcEED1Ev(ptr noundef nonnull align 8 dereferenceable(128)) unnamed_addr #6 align 2

; Function Attrs: uwtable
define dso_local void @_ZNK7testing8internal35UnorderedElementsAreMatcherImplBase14DescribeToImplEPSo(ptr nocapture noundef nonnull readonly align 8 dereferenceable(32) %0, ptr noundef %1) local_unnamed_addr #3 align 2 personality ptr @__gxx_personality_v0 {
  %3 = alloca %"class.std::__cxx11::basic_string", align 8
  %4 = alloca %"class.std::__cxx11::basic_string", align 8
  %5 = alloca %"class.testing::Message", align 8
  %6 = alloca %"class.testing::Message", align 8
  %7 = load i32, ptr %0, align 8, !tbaa !142
  switch i32 %7, label %115 [
    i32 3, label %8
    i32 1, label %111
    i32 2, label %113
  ]

8:                                                ; preds = %2
  %9 = getelementptr inbounds %"class.testing::internal::UnorderedElementsAreMatcherImplBase", ptr %0, i64 0, i32 1
  %10 = load ptr, ptr %9, align 8, !tbaa !43
  %11 = getelementptr inbounds %"class.testing::internal::UnorderedElementsAreMatcherImplBase", ptr %0, i64 0, i32 1, i32 0, i32 0, i32 0, i32 1
  %12 = load ptr, ptr %11, align 8, !tbaa !43
  %13 = icmp eq ptr %10, %12
  br i1 %13, label %14, label %16

14:                                               ; preds = %8
  %15 = tail call noundef nonnull align 8 dereferenceable(8) ptr @_ZSt16__ostream_insertIcSt11char_traitsIcEERSt13basic_ostreamIT_T0_ES6_PKS3_l(ptr noundef nonnull align 8 dereferenceable(8) %1, ptr noundef nonnull @.str.15, i64 noundef 8)
  br label %152

16:                                               ; preds = %8
  %17 = ptrtoint ptr %12 to i64
  %18 = ptrtoint ptr %10 to i64
  %19 = sub i64 %17, %18
  %20 = icmp eq i64 %19, 8
  %21 = tail call noundef nonnull align 8 dereferenceable(8) ptr @_ZSt16__ostream_insertIcSt11char_traitsIcEERSt13basic_ostreamIT_T0_ES6_PKS3_l(ptr noundef nonnull align 8 dereferenceable(8) %1, ptr noundef nonnull @.str.16, i64 noundef 4)
  br i1 %20, label %22, label %66

22:                                               ; preds = %16
  call void @llvm.lifetime.start.p0(i64 8, ptr nonnull %5) #33
  call void @_ZN7testing8internal35UnorderedElementsAreMatcherImplBase8ElementsEm(ptr nonnull sret(%"class.testing::Message") align 8 %5, i64 noundef 1)
  call void @llvm.lifetime.start.p0(i64 32, ptr nonnull %4) #33
  invoke void @_ZNK7testing7Message9GetStringB5cxx11Ev(ptr nonnull sret(%"class.std::__cxx11::basic_string") align 8 %4, ptr noundef nonnull align 8 dereferenceable(8) %5)
          to label %23 unwind label %55

23:                                               ; preds = %22
  %24 = load ptr, ptr %4, align 8, !tbaa !5
  %25 = getelementptr inbounds %"class.std::__cxx11::basic_string", ptr %4, i64 0, i32 1
  %26 = load i64, ptr %25, align 8, !tbaa !12
  %27 = invoke noundef nonnull align 8 dereferenceable(8) ptr @_ZSt16__ostream_insertIcSt11char_traitsIcEERSt13basic_ostreamIT_T0_ES6_PKS3_l(ptr noundef nonnull align 8 dereferenceable(8) %1, ptr noundef %24, i64 noundef %26)
          to label %28 unwind label %33

28:                                               ; preds = %23
  %29 = load ptr, ptr %4, align 8, !tbaa !5
  %30 = getelementptr inbounds %"class.std::__cxx11::basic_string", ptr %4, i64 0, i32 2
  %31 = icmp eq ptr %29, %30
  br i1 %31, label %40, label %32

32:                                               ; preds = %28
  call void @_ZdlPv(ptr noundef %29) #34
  br label %40

33:                                               ; preds = %23
  %34 = landingpad { ptr, i32 }
          cleanup
  %35 = load ptr, ptr %4, align 8, !tbaa !5
  %36 = getelementptr inbounds %"class.std::__cxx11::basic_string", ptr %4, i64 0, i32 2
  %37 = icmp eq ptr %35, %36
  br i1 %37, label %39, label %38

38:                                               ; preds = %33
  call void @_ZdlPv(ptr noundef %35) #34
  br label %39

39:                                               ; preds = %38, %33
  call void @llvm.lifetime.end.p0(i64 32, ptr nonnull %4) #33
  br label %57

40:                                               ; preds = %32, %28
  call void @llvm.lifetime.end.p0(i64 32, ptr nonnull %4) #33
  %41 = invoke noundef nonnull align 8 dereferenceable(8) ptr @_ZSt16__ostream_insertIcSt11char_traitsIcEERSt13basic_ostreamIT_T0_ES6_PKS3_l(ptr noundef nonnull align 8 dereferenceable(8) %27, ptr noundef nonnull @.str.17, i64 noundef 18)
          to label %42 unwind label %55

42:                                               ; preds = %40
  %43 = load ptr, ptr %5, align 8, !tbaa !43
  %44 = icmp eq ptr %43, null
  br i1 %44, label %49, label %45

45:                                               ; preds = %42
  %46 = load ptr, ptr %43, align 8, !tbaa !26
  %47 = getelementptr inbounds ptr, ptr %46, i64 1
  %48 = load ptr, ptr %47, align 8
  call void %48(ptr noundef nonnull align 8 dereferenceable(128) %43) #33
  br label %49

49:                                               ; preds = %42, %45
  call void @llvm.lifetime.end.p0(i64 8, ptr nonnull %5) #33
  %50 = load ptr, ptr %9, align 8, !tbaa !149
  %51 = load ptr, ptr %50, align 8, !tbaa !43
  %52 = load ptr, ptr %51, align 8, !tbaa !26
  %53 = getelementptr inbounds ptr, ptr %52, i64 2
  %54 = load ptr, ptr %53, align 8
  call void %54(ptr noundef nonnull align 8 dereferenceable(8) %51, ptr noundef nonnull %1)
  br label %152

55:                                               ; preds = %40, %22
  %56 = landingpad { ptr, i32 }
          cleanup
  br label %57

57:                                               ; preds = %39, %55
  %58 = phi { ptr, i32 } [ %56, %55 ], [ %34, %39 ]
  %59 = load ptr, ptr %5, align 8, !tbaa !43
  %60 = icmp eq ptr %59, null
  br i1 %60, label %65, label %61

61:                                               ; preds = %57
  %62 = load ptr, ptr %59, align 8, !tbaa !26
  %63 = getelementptr inbounds ptr, ptr %62, i64 1
  %64 = load ptr, ptr %63, align 8
  call void %64(ptr noundef nonnull align 8 dereferenceable(128) %59) #33
  br label %65

65:                                               ; preds = %57, %61
  call void @llvm.lifetime.end.p0(i64 8, ptr nonnull %5) #33
  br label %153

66:                                               ; preds = %16
  call void @llvm.lifetime.start.p0(i64 8, ptr nonnull %6) #33
  %67 = load ptr, ptr %11, align 8, !tbaa !150
  %68 = load ptr, ptr %9, align 8, !tbaa !149
  %69 = ptrtoint ptr %67 to i64
  %70 = ptrtoint ptr %68 to i64
  %71 = sub i64 %69, %70
  %72 = ashr exact i64 %71, 3
  call void @_ZN7testing8internal35UnorderedElementsAreMatcherImplBase8ElementsEm(ptr nonnull sret(%"class.testing::Message") align 8 %6, i64 noundef %72)
  call void @llvm.lifetime.start.p0(i64 32, ptr nonnull %3) #33
  invoke void @_ZNK7testing7Message9GetStringB5cxx11Ev(ptr nonnull sret(%"class.std::__cxx11::basic_string") align 8 %3, ptr noundef nonnull align 8 dereferenceable(8) %6)
          to label %73 unwind label %100

73:                                               ; preds = %66
  %74 = load ptr, ptr %3, align 8, !tbaa !5
  %75 = getelementptr inbounds %"class.std::__cxx11::basic_string", ptr %3, i64 0, i32 1
  %76 = load i64, ptr %75, align 8, !tbaa !12
  %77 = invoke noundef nonnull align 8 dereferenceable(8) ptr @_ZSt16__ostream_insertIcSt11char_traitsIcEERSt13basic_ostreamIT_T0_ES6_PKS3_l(ptr noundef nonnull align 8 dereferenceable(8) %1, ptr noundef %74, i64 noundef %76)
          to label %78 unwind label %83

78:                                               ; preds = %73
  %79 = load ptr, ptr %3, align 8, !tbaa !5
  %80 = getelementptr inbounds %"class.std::__cxx11::basic_string", ptr %3, i64 0, i32 2
  %81 = icmp eq ptr %79, %80
  br i1 %81, label %90, label %82

82:                                               ; preds = %78
  call void @_ZdlPv(ptr noundef %79) #34
  br label %90

83:                                               ; preds = %73
  %84 = landingpad { ptr, i32 }
          cleanup
  %85 = load ptr, ptr %3, align 8, !tbaa !5
  %86 = getelementptr inbounds %"class.std::__cxx11::basic_string", ptr %3, i64 0, i32 2
  %87 = icmp eq ptr %85, %86
  br i1 %87, label %89, label %88

88:                                               ; preds = %83
  call void @_ZdlPv(ptr noundef %85) #34
  br label %89

89:                                               ; preds = %88, %83
  call void @llvm.lifetime.end.p0(i64 32, ptr nonnull %3) #33
  br label %102

90:                                               ; preds = %82, %78
  call void @llvm.lifetime.end.p0(i64 32, ptr nonnull %3) #33
  %91 = invoke noundef nonnull align 8 dereferenceable(8) ptr @_ZSt16__ostream_insertIcSt11char_traitsIcEERSt13basic_ostreamIT_T0_ES6_PKS3_l(ptr noundef nonnull align 8 dereferenceable(8) %77, ptr noundef nonnull @.str.18, i64 noundef 58)
          to label %92 unwind label %100

92:                                               ; preds = %90
  %93 = load ptr, ptr %6, align 8, !tbaa !43
  %94 = icmp eq ptr %93, null
  br i1 %94, label %99, label %95

95:                                               ; preds = %92
  %96 = load ptr, ptr %93, align 8, !tbaa !26
  %97 = getelementptr inbounds ptr, ptr %96, i64 1
  %98 = load ptr, ptr %97, align 8
  call void %98(ptr noundef nonnull align 8 dereferenceable(128) %93) #33
  br label %99

99:                                               ; preds = %92, %95
  call void @llvm.lifetime.end.p0(i64 8, ptr nonnull %6) #33
  br label %115

100:                                              ; preds = %90, %66
  %101 = landingpad { ptr, i32 }
          cleanup
  br label %102

102:                                              ; preds = %89, %100
  %103 = phi { ptr, i32 } [ %101, %100 ], [ %84, %89 ]
  %104 = load ptr, ptr %6, align 8, !tbaa !43
  %105 = icmp eq ptr %104, null
  br i1 %105, label %110, label %106

106:                                              ; preds = %102
  %107 = load ptr, ptr %104, align 8, !tbaa !26
  %108 = getelementptr inbounds ptr, ptr %107, i64 1
  %109 = load ptr, ptr %108, align 8
  call void %109(ptr noundef nonnull align 8 dereferenceable(128) %104) #33
  br label %110

110:                                              ; preds = %102, %106
  call void @llvm.lifetime.end.p0(i64 8, ptr nonnull %6) #33
  br label %153

111:                                              ; preds = %2
  %112 = tail call noundef nonnull align 8 dereferenceable(8) ptr @_ZSt16__ostream_insertIcSt11char_traitsIcEERSt13basic_ostreamIT_T0_ES6_PKS3_l(ptr noundef nonnull align 8 dereferenceable(8) %1, ptr noundef nonnull @.str.19, i64 noundef 61)
  br label %115

113:                                              ; preds = %2
  %114 = tail call noundef nonnull align 8 dereferenceable(8) ptr @_ZSt16__ostream_insertIcSt11char_traitsIcEERSt13basic_ostreamIT_T0_ES6_PKS3_l(ptr noundef nonnull align 8 dereferenceable(8) %1, ptr noundef nonnull @.str.20, i64 noundef 61)
  br label %115

115:                                              ; preds = %2, %113, %111, %99
  %116 = getelementptr inbounds %"class.testing::internal::UnorderedElementsAreMatcherImplBase", ptr %0, i64 0, i32 1
  %117 = getelementptr inbounds %"class.testing::internal::UnorderedElementsAreMatcherImplBase", ptr %0, i64 0, i32 1, i32 0, i32 0, i32 0, i32 1
  %118 = load ptr, ptr %117, align 8, !tbaa !150
  %119 = load ptr, ptr %116, align 8, !tbaa !149
  %120 = icmp eq ptr %118, %119
  br i1 %120, label %152, label %121

121:                                              ; preds = %115, %134
  %122 = phi i64 [ %144, %134 ], [ 0, %115 ]
  %123 = phi ptr [ %143, %134 ], [ @.str.4, %115 ]
  %124 = call i64 @strlen(ptr noundef nonnull dereferenceable(1) %123) #33
  %125 = call noundef nonnull align 8 dereferenceable(8) ptr @_ZSt16__ostream_insertIcSt11char_traitsIcEERSt13basic_ostreamIT_T0_ES6_PKS3_l(ptr noundef nonnull align 8 dereferenceable(8) %1, ptr noundef nonnull %123, i64 noundef %124)
  %126 = load i32, ptr %0, align 8, !tbaa !142
  %127 = icmp eq i32 %126, 3
  br i1 %127, label %128, label %132

128:                                              ; preds = %121
  %129 = call noundef nonnull align 8 dereferenceable(8) ptr @_ZSt16__ostream_insertIcSt11char_traitsIcEERSt13basic_ostreamIT_T0_ES6_PKS3_l(ptr noundef nonnull align 8 dereferenceable(8) %1, ptr noundef nonnull @.str.21, i64 noundef 12)
  %130 = call noundef nonnull align 8 dereferenceable(8) ptr @_ZNSo9_M_insertImEERSoT_(ptr noundef nonnull align 8 dereferenceable(8) %1, i64 noundef %122)
  %131 = call noundef nonnull align 8 dereferenceable(8) ptr @_ZSt16__ostream_insertIcSt11char_traitsIcEERSt13basic_ostreamIT_T0_ES6_PKS3_l(ptr noundef nonnull align 8 dereferenceable(8) %130, ptr noundef nonnull @.str.12, i64 noundef 1)
  br label %134

132:                                              ; preds = %121
  %133 = call noundef nonnull align 8 dereferenceable(8) ptr @_ZSt16__ostream_insertIcSt11char_traitsIcEERSt13basic_ostreamIT_T0_ES6_PKS3_l(ptr noundef nonnull align 8 dereferenceable(8) %1, ptr noundef nonnull @.str.22, i64 noundef 14)
  br label %134

134:                                              ; preds = %132, %128
  %135 = load ptr, ptr %116, align 8, !tbaa !149
  %136 = getelementptr inbounds ptr, ptr %135, i64 %122
  %137 = load ptr, ptr %136, align 8, !tbaa !43
  %138 = load ptr, ptr %137, align 8, !tbaa !26
  %139 = getelementptr inbounds ptr, ptr %138, i64 2
  %140 = load ptr, ptr %139, align 8
  call void %140(ptr noundef nonnull align 8 dereferenceable(8) %137, ptr noundef nonnull %1)
  %141 = load i32, ptr %0, align 8, !tbaa !142
  %142 = icmp eq i32 %141, 3
  %143 = select i1 %142, ptr @.str.23, ptr @.str.9
  %144 = add i64 %122, 1
  %145 = load ptr, ptr %117, align 8, !tbaa !150
  %146 = load ptr, ptr %116, align 8, !tbaa !149
  %147 = ptrtoint ptr %145 to i64
  %148 = ptrtoint ptr %146 to i64
  %149 = sub i64 %147, %148
  %150 = ashr exact i64 %149, 3
  %151 = icmp eq i64 %144, %150
  br i1 %151, label %152, label %121, !llvm.loop !151

152:                                              ; preds = %134, %115, %49, %14
  ret void

153:                                              ; preds = %110, %65
  %154 = phi { ptr, i32 } [ %58, %65 ], [ %103, %110 ]
  resume { ptr, i32 } %154
}

; Function Attrs: uwtable
define linkonce_odr hidden void @_ZN7testing8internal35UnorderedElementsAreMatcherImplBase8ElementsEm(ptr noalias sret(%"class.testing::Message") align 8 %0, i64 noundef %1) local_unnamed_addr #3 comdat align 2 personality ptr @__gxx_personality_v0 {
  %3 = alloca %"class.testing::Message", align 8
  call void @llvm.lifetime.start.p0(i64 8, ptr nonnull %3) #33
  call void @_ZN7testing7MessageC1Ev(ptr noundef nonnull align 8 dereferenceable(8) %3)
  %4 = load ptr, ptr %3, align 8, !tbaa !43
  %5 = getelementptr inbounds i8, ptr %4, i64 16
  %6 = invoke noundef nonnull align 8 dereferenceable(8) ptr @_ZNSo9_M_insertImEERSoT_(ptr noundef nonnull align 8 dereferenceable(8) %5, i64 noundef %1)
          to label %7 unwind label %27

7:                                                ; preds = %2
  %8 = load ptr, ptr %3, align 8, !tbaa !43
  %9 = getelementptr inbounds i8, ptr %8, i64 16
  %10 = invoke noundef nonnull align 8 dereferenceable(8) ptr @_ZSt16__ostream_insertIcSt11char_traitsIcEERSt13basic_ostreamIT_T0_ES6_PKS3_l(ptr noundef nonnull align 8 dereferenceable(8) %9, ptr noundef nonnull @.str.102, i64 noundef 8)
          to label %11 unwind label %27

11:                                               ; preds = %7
  %12 = icmp ne i64 %1, 1
  %13 = select i1 %12, ptr @.str.63, ptr @.str.4
  %14 = load ptr, ptr %3, align 8, !tbaa !43
  %15 = getelementptr inbounds i8, ptr %14, i64 16
  %16 = zext i1 %12 to i64
  %17 = invoke noundef nonnull align 8 dereferenceable(8) ptr @_ZSt16__ostream_insertIcSt11char_traitsIcEERSt13basic_ostreamIT_T0_ES6_PKS3_l(ptr noundef nonnull align 8 dereferenceable(8) %15, ptr noundef nonnull %13, i64 noundef %16)
          to label %18 unwind label %29

18:                                               ; preds = %11
  invoke void @_ZN7testing7MessageC2ERKS0_(ptr noundef nonnull align 8 dereferenceable(8) %0, ptr noundef nonnull align 8 dereferenceable(8) %3)
          to label %19 unwind label %29

19:                                               ; preds = %18
  %20 = load ptr, ptr %3, align 8, !tbaa !43
  %21 = icmp eq ptr %20, null
  br i1 %21, label %26, label %22

22:                                               ; preds = %19
  %23 = load ptr, ptr %20, align 8, !tbaa !26
  %24 = getelementptr inbounds ptr, ptr %23, i64 1
  %25 = load ptr, ptr %24, align 8
  call void %25(ptr noundef nonnull align 8 dereferenceable(128) %20) #33
  br label %26

26:                                               ; preds = %19, %22
  call void @llvm.lifetime.end.p0(i64 8, ptr nonnull %3) #33
  ret void

27:                                               ; preds = %7, %2
  %28 = landingpad { ptr, i32 }
          cleanup
  br label %31

29:                                               ; preds = %11, %18
  %30 = landingpad { ptr, i32 }
          cleanup
  br label %31

31:                                               ; preds = %29, %27
  %32 = phi { ptr, i32 } [ %30, %29 ], [ %28, %27 ]
  %33 = load ptr, ptr %3, align 8, !tbaa !43
  %34 = icmp eq ptr %33, null
  br i1 %34, label %39, label %35

35:                                               ; preds = %31
  %36 = load ptr, ptr %33, align 8, !tbaa !26
  %37 = getelementptr inbounds ptr, ptr %36, i64 1
  %38 = load ptr, ptr %37, align 8
  call void %38(ptr noundef nonnull align 8 dereferenceable(128) %33) #33
  br label %39

39:                                               ; preds = %31, %35
  call void @llvm.lifetime.end.p0(i64 8, ptr nonnull %3) #33
  resume { ptr, i32 } %32
}

; Function Attrs: uwtable
define dso_local void @_ZNK7testing8internal35UnorderedElementsAreMatcherImplBase22DescribeNegationToImplEPSo(ptr nocapture noundef nonnull readonly align 8 dereferenceable(32) %0, ptr noundef %1) local_unnamed_addr #3 align 2 personality ptr @__gxx_personality_v0 {
  %3 = alloca %"class.std::__cxx11::basic_string", align 8
  %4 = alloca %"class.std::__cxx11::basic_string", align 8
  %5 = alloca %"class.std::__cxx11::basic_string", align 8
  %6 = alloca %"class.testing::Message", align 8
  %7 = alloca %"class.testing::Message", align 8
  %8 = alloca %"class.testing::Message", align 8
  %9 = load i32, ptr %0, align 8, !tbaa !142
  switch i32 %9, label %159 [
    i32 3, label %10
    i32 1, label %155
    i32 2, label %157
  ]

10:                                               ; preds = %2
  %11 = getelementptr inbounds %"class.testing::internal::UnorderedElementsAreMatcherImplBase", ptr %0, i64 0, i32 1
  %12 = load ptr, ptr %11, align 8, !tbaa !43
  %13 = getelementptr inbounds %"class.testing::internal::UnorderedElementsAreMatcherImplBase", ptr %0, i64 0, i32 1, i32 0, i32 0, i32 0, i32 1
  %14 = load ptr, ptr %13, align 8, !tbaa !43
  %15 = icmp eq ptr %12, %14
  br i1 %15, label %16, label %18

16:                                               ; preds = %10
  %17 = tail call noundef nonnull align 8 dereferenceable(8) ptr @_ZSt16__ostream_insertIcSt11char_traitsIcEERSt13basic_ostreamIT_T0_ES6_PKS3_l(ptr noundef nonnull align 8 dereferenceable(8) %1, ptr noundef nonnull @.str.24, i64 noundef 11)
  br label %196

18:                                               ; preds = %10
  %19 = ptrtoint ptr %14 to i64
  %20 = ptrtoint ptr %12 to i64
  %21 = sub i64 %19, %20
  %22 = icmp eq i64 %21, 8
  %23 = tail call noundef nonnull align 8 dereferenceable(8) ptr @_ZSt16__ostream_insertIcSt11char_traitsIcEERSt13basic_ostreamIT_T0_ES6_PKS3_l(ptr noundef nonnull align 8 dereferenceable(8) %1, ptr noundef nonnull @.str.25, i64 noundef 13)
  br i1 %22, label %24, label %110

24:                                               ; preds = %18
  call void @llvm.lifetime.start.p0(i64 8, ptr nonnull %6) #33
  call void @_ZN7testing8internal35UnorderedElementsAreMatcherImplBase8ElementsEm(ptr nonnull sret(%"class.testing::Message") align 8 %6, i64 noundef 1)
  call void @llvm.lifetime.start.p0(i64 32, ptr nonnull %5) #33
  invoke void @_ZNK7testing7Message9GetStringB5cxx11Ev(ptr nonnull sret(%"class.std::__cxx11::basic_string") align 8 %5, ptr noundef nonnull align 8 dereferenceable(8) %6)
          to label %25 unwind label %85

25:                                               ; preds = %24
  %26 = load ptr, ptr %5, align 8, !tbaa !5
  %27 = getelementptr inbounds %"class.std::__cxx11::basic_string", ptr %5, i64 0, i32 1
  %28 = load i64, ptr %27, align 8, !tbaa !12
  %29 = invoke noundef nonnull align 8 dereferenceable(8) ptr @_ZSt16__ostream_insertIcSt11char_traitsIcEERSt13basic_ostreamIT_T0_ES6_PKS3_l(ptr noundef nonnull align 8 dereferenceable(8) %1, ptr noundef %26, i64 noundef %28)
          to label %30 unwind label %35

30:                                               ; preds = %25
  %31 = load ptr, ptr %5, align 8, !tbaa !5
  %32 = getelementptr inbounds %"class.std::__cxx11::basic_string", ptr %5, i64 0, i32 2
  %33 = icmp eq ptr %31, %32
  br i1 %33, label %42, label %34

34:                                               ; preds = %30
  call void @_ZdlPv(ptr noundef %31) #34
  br label %42

35:                                               ; preds = %25
  %36 = landingpad { ptr, i32 }
          cleanup
  %37 = load ptr, ptr %5, align 8, !tbaa !5
  %38 = getelementptr inbounds %"class.std::__cxx11::basic_string", ptr %5, i64 0, i32 2
  %39 = icmp eq ptr %37, %38
  br i1 %39, label %41, label %40

40:                                               ; preds = %35
  call void @_ZdlPv(ptr noundef %37) #34
  br label %41

41:                                               ; preds = %40, %35
  call void @llvm.lifetime.end.p0(i64 32, ptr nonnull %5) #33
  br label %101

42:                                               ; preds = %34, %30
  call void @llvm.lifetime.end.p0(i64 32, ptr nonnull %5) #33
  %43 = invoke noundef nonnull align 8 dereferenceable(8) ptr @_ZSt16__ostream_insertIcSt11char_traitsIcEERSt13basic_ostreamIT_T0_ES6_PKS3_l(ptr noundef nonnull align 8 dereferenceable(8) %29, ptr noundef nonnull @.str.26, i64 noundef 9)
          to label %44 unwind label %85

44:                                               ; preds = %42
  call void @llvm.lifetime.start.p0(i64 8, ptr nonnull %7) #33
  invoke void @_ZN7testing8internal35UnorderedElementsAreMatcherImplBase8ElementsEm(ptr nonnull sret(%"class.testing::Message") align 8 %7, i64 noundef 1)
          to label %45 unwind label %87

45:                                               ; preds = %44
  call void @llvm.lifetime.start.p0(i64 32, ptr nonnull %4) #33
  invoke void @_ZNK7testing7Message9GetStringB5cxx11Ev(ptr nonnull sret(%"class.std::__cxx11::basic_string") align 8 %4, ptr noundef nonnull align 8 dereferenceable(8) %7)
          to label %46 unwind label %89

46:                                               ; preds = %45
  %47 = load ptr, ptr %4, align 8, !tbaa !5
  %48 = getelementptr inbounds %"class.std::__cxx11::basic_string", ptr %4, i64 0, i32 1
  %49 = load i64, ptr %48, align 8, !tbaa !12
  %50 = invoke noundef nonnull align 8 dereferenceable(8) ptr @_ZSt16__ostream_insertIcSt11char_traitsIcEERSt13basic_ostreamIT_T0_ES6_PKS3_l(ptr noundef nonnull align 8 dereferenceable(8) %29, ptr noundef %47, i64 noundef %49)
          to label %51 unwind label %56

51:                                               ; preds = %46
  %52 = load ptr, ptr %4, align 8, !tbaa !5
  %53 = getelementptr inbounds %"class.std::__cxx11::basic_string", ptr %4, i64 0, i32 2
  %54 = icmp eq ptr %52, %53
  br i1 %54, label %63, label %55

55:                                               ; preds = %51
  call void @_ZdlPv(ptr noundef %52) #34
  br label %63

56:                                               ; preds = %46
  %57 = landingpad { ptr, i32 }
          cleanup
  %58 = load ptr, ptr %4, align 8, !tbaa !5
  %59 = getelementptr inbounds %"class.std::__cxx11::basic_string", ptr %4, i64 0, i32 2
  %60 = icmp eq ptr %58, %59
  br i1 %60, label %62, label %61

61:                                               ; preds = %56
  call void @_ZdlPv(ptr noundef %58) #34
  br label %62

62:                                               ; preds = %61, %56
  call void @llvm.lifetime.end.p0(i64 32, ptr nonnull %4) #33
  br label %91

63:                                               ; preds = %55, %51
  call void @llvm.lifetime.end.p0(i64 32, ptr nonnull %4) #33
  %64 = invoke noundef nonnull align 8 dereferenceable(8) ptr @_ZSt16__ostream_insertIcSt11char_traitsIcEERSt13basic_ostreamIT_T0_ES6_PKS3_l(ptr noundef nonnull align 8 dereferenceable(8) %50, ptr noundef nonnull @.str.27, i64 noundef 6)
          to label %65 unwind label %89

65:                                               ; preds = %63
  %66 = load ptr, ptr %7, align 8, !tbaa !43
  %67 = icmp eq ptr %66, null
  br i1 %67, label %72, label %68

68:                                               ; preds = %65
  %69 = load ptr, ptr %66, align 8, !tbaa !26
  %70 = getelementptr inbounds ptr, ptr %69, i64 1
  %71 = load ptr, ptr %70, align 8
  call void %71(ptr noundef nonnull align 8 dereferenceable(128) %66) #33
  br label %72

72:                                               ; preds = %65, %68
  call void @llvm.lifetime.end.p0(i64 8, ptr nonnull %7) #33
  %73 = load ptr, ptr %6, align 8, !tbaa !43
  %74 = icmp eq ptr %73, null
  br i1 %74, label %79, label %75

75:                                               ; preds = %72
  %76 = load ptr, ptr %73, align 8, !tbaa !26
  %77 = getelementptr inbounds ptr, ptr %76, i64 1
  %78 = load ptr, ptr %77, align 8
  call void %78(ptr noundef nonnull align 8 dereferenceable(128) %73) #33
  br label %79

79:                                               ; preds = %72, %75
  call void @llvm.lifetime.end.p0(i64 8, ptr nonnull %6) #33
  %80 = load ptr, ptr %11, align 8, !tbaa !149
  %81 = load ptr, ptr %80, align 8, !tbaa !43
  %82 = load ptr, ptr %81, align 8, !tbaa !26
  %83 = getelementptr inbounds ptr, ptr %82, i64 3
  %84 = load ptr, ptr %83, align 8
  call void %84(ptr noundef nonnull align 8 dereferenceable(8) %81, ptr noundef nonnull %1)
  br label %196

85:                                               ; preds = %42, %24
  %86 = landingpad { ptr, i32 }
          cleanup
  br label %101

87:                                               ; preds = %44
  %88 = landingpad { ptr, i32 }
          cleanup
  br label %99

89:                                               ; preds = %63, %45
  %90 = landingpad { ptr, i32 }
          cleanup
  br label %91

91:                                               ; preds = %62, %89
  %92 = phi { ptr, i32 } [ %90, %89 ], [ %57, %62 ]
  %93 = load ptr, ptr %7, align 8, !tbaa !43
  %94 = icmp eq ptr %93, null
  br i1 %94, label %99, label %95

95:                                               ; preds = %91
  %96 = load ptr, ptr %93, align 8, !tbaa !26
  %97 = getelementptr inbounds ptr, ptr %96, i64 1
  %98 = load ptr, ptr %97, align 8
  call void %98(ptr noundef nonnull align 8 dereferenceable(128) %93) #33
  br label %99

99:                                               ; preds = %95, %91, %87
  %100 = phi { ptr, i32 } [ %88, %87 ], [ %92, %91 ], [ %92, %95 ]
  call void @llvm.lifetime.end.p0(i64 8, ptr nonnull %7) #33
  br label %101

101:                                              ; preds = %85, %41, %99
  %102 = phi { ptr, i32 } [ %100, %99 ], [ %86, %85 ], [ %36, %41 ]
  %103 = load ptr, ptr %6, align 8, !tbaa !43
  %104 = icmp eq ptr %103, null
  br i1 %104, label %109, label %105

105:                                              ; preds = %101
  %106 = load ptr, ptr %103, align 8, !tbaa !26
  %107 = getelementptr inbounds ptr, ptr %106, i64 1
  %108 = load ptr, ptr %107, align 8
  call void %108(ptr noundef nonnull align 8 dereferenceable(128) %103) #33
  br label %109

109:                                              ; preds = %101, %105
  call void @llvm.lifetime.end.p0(i64 8, ptr nonnull %6) #33
  br label %197

110:                                              ; preds = %18
  call void @llvm.lifetime.start.p0(i64 8, ptr nonnull %8) #33
  %111 = load ptr, ptr %13, align 8, !tbaa !150
  %112 = load ptr, ptr %11, align 8, !tbaa !149
  %113 = ptrtoint ptr %111 to i64
  %114 = ptrtoint ptr %112 to i64
  %115 = sub i64 %113, %114
  %116 = ashr exact i64 %115, 3
  call void @_ZN7testing8internal35UnorderedElementsAreMatcherImplBase8ElementsEm(ptr nonnull sret(%"class.testing::Message") align 8 %8, i64 noundef %116)
  call void @llvm.lifetime.start.p0(i64 32, ptr nonnull %3) #33
  invoke void @_ZNK7testing7Message9GetStringB5cxx11Ev(ptr nonnull sret(%"class.std::__cxx11::basic_string") align 8 %3, ptr noundef nonnull align 8 dereferenceable(8) %8)
          to label %117 unwind label %144

117:                                              ; preds = %110
  %118 = load ptr, ptr %3, align 8, !tbaa !5
  %119 = getelementptr inbounds %"class.std::__cxx11::basic_string", ptr %3, i64 0, i32 1
  %120 = load i64, ptr %119, align 8, !tbaa !12
  %121 = invoke noundef nonnull align 8 dereferenceable(8) ptr @_ZSt16__ostream_insertIcSt11char_traitsIcEERSt13basic_ostreamIT_T0_ES6_PKS3_l(ptr noundef nonnull align 8 dereferenceable(8) %1, ptr noundef %118, i64 noundef %120)
          to label %122 unwind label %127

122:                                              ; preds = %117
  %123 = load ptr, ptr %3, align 8, !tbaa !5
  %124 = getelementptr inbounds %"class.std::__cxx11::basic_string", ptr %3, i64 0, i32 2
  %125 = icmp eq ptr %123, %124
  br i1 %125, label %134, label %126

126:                                              ; preds = %122
  call void @_ZdlPv(ptr noundef %123) #34
  br label %134

127:                                              ; preds = %117
  %128 = landingpad { ptr, i32 }
          cleanup
  %129 = load ptr, ptr %3, align 8, !tbaa !5
  %130 = getelementptr inbounds %"class.std::__cxx11::basic_string", ptr %3, i64 0, i32 2
  %131 = icmp eq ptr %129, %130
  br i1 %131, label %133, label %132

132:                                              ; preds = %127
  call void @_ZdlPv(ptr noundef %129) #34
  br label %133

133:                                              ; preds = %132, %127
  call void @llvm.lifetime.end.p0(i64 32, ptr nonnull %3) #33
  br label %146

134:                                              ; preds = %126, %122
  call void @llvm.lifetime.end.p0(i64 32, ptr nonnull %3) #33
  %135 = invoke noundef nonnull align 8 dereferenceable(8) ptr @_ZSt16__ostream_insertIcSt11char_traitsIcEERSt13basic_ostreamIT_T0_ES6_PKS3_l(ptr noundef nonnull align 8 dereferenceable(8) %121, ptr noundef nonnull @.str.28, i64 noundef 56)
          to label %136 unwind label %144

136:                                              ; preds = %134
  %137 = load ptr, ptr %8, align 8, !tbaa !43
  %138 = icmp eq ptr %137, null
  br i1 %138, label %143, label %139

139:                                              ; preds = %136
  %140 = load ptr, ptr %137, align 8, !tbaa !26
  %141 = getelementptr inbounds ptr, ptr %140, i64 1
  %142 = load ptr, ptr %141, align 8
  call void %142(ptr noundef nonnull align 8 dereferenceable(128) %137) #33
  br label %143

143:                                              ; preds = %136, %139
  call void @llvm.lifetime.end.p0(i64 8, ptr nonnull %8) #33
  br label %159

144:                                              ; preds = %134, %110
  %145 = landingpad { ptr, i32 }
          cleanup
  br label %146

146:                                              ; preds = %133, %144
  %147 = phi { ptr, i32 } [ %145, %144 ], [ %128, %133 ]
  %148 = load ptr, ptr %8, align 8, !tbaa !43
  %149 = icmp eq ptr %148, null
  br i1 %149, label %154, label %150

150:                                              ; preds = %146
  %151 = load ptr, ptr %148, align 8, !tbaa !26
  %152 = getelementptr inbounds ptr, ptr %151, i64 1
  %153 = load ptr, ptr %152, align 8
  call void %153(ptr noundef nonnull align 8 dereferenceable(128) %148) #33
  br label %154

154:                                              ; preds = %146, %150
  call void @llvm.lifetime.end.p0(i64 8, ptr nonnull %8) #33
  br label %197

155:                                              ; preds = %2
  %156 = tail call noundef nonnull align 8 dereferenceable(8) ptr @_ZSt16__ostream_insertIcSt11char_traitsIcEERSt13basic_ostreamIT_T0_ES6_PKS3_l(ptr noundef nonnull align 8 dereferenceable(8) %1, ptr noundef nonnull @.str.29, i64 noundef 62)
  br label %159

157:                                              ; preds = %2
  %158 = tail call noundef nonnull align 8 dereferenceable(8) ptr @_ZSt16__ostream_insertIcSt11char_traitsIcEERSt13basic_ostreamIT_T0_ES6_PKS3_l(ptr noundef nonnull align 8 dereferenceable(8) %1, ptr noundef nonnull @.str.30, i64 noundef 61)
  br label %159

159:                                              ; preds = %2, %157, %155, %143
  %160 = getelementptr inbounds %"class.testing::internal::UnorderedElementsAreMatcherImplBase", ptr %0, i64 0, i32 1
  %161 = getelementptr inbounds %"class.testing::internal::UnorderedElementsAreMatcherImplBase", ptr %0, i64 0, i32 1, i32 0, i32 0, i32 0, i32 1
  %162 = load ptr, ptr %161, align 8, !tbaa !150
  %163 = load ptr, ptr %160, align 8, !tbaa !149
  %164 = icmp eq ptr %162, %163
  br i1 %164, label %196, label %165

165:                                              ; preds = %159, %178
  %166 = phi i64 [ %188, %178 ], [ 0, %159 ]
  %167 = phi ptr [ %187, %178 ], [ @.str.4, %159 ]
  %168 = call i64 @strlen(ptr noundef nonnull dereferenceable(1) %167) #33
  %169 = call noundef nonnull align 8 dereferenceable(8) ptr @_ZSt16__ostream_insertIcSt11char_traitsIcEERSt13basic_ostreamIT_T0_ES6_PKS3_l(ptr noundef nonnull align 8 dereferenceable(8) %1, ptr noundef nonnull %167, i64 noundef %168)
  %170 = load i32, ptr %0, align 8, !tbaa !142
  %171 = icmp eq i32 %170, 3
  br i1 %171, label %172, label %176

172:                                              ; preds = %165
  %173 = call noundef nonnull align 8 dereferenceable(8) ptr @_ZSt16__ostream_insertIcSt11char_traitsIcEERSt13basic_ostreamIT_T0_ES6_PKS3_l(ptr noundef nonnull align 8 dereferenceable(8) %1, ptr noundef nonnull @.str.21, i64 noundef 12)
  %174 = call noundef nonnull align 8 dereferenceable(8) ptr @_ZNSo9_M_insertImEERSoT_(ptr noundef nonnull align 8 dereferenceable(8) %1, i64 noundef %166)
  %175 = call noundef nonnull align 8 dereferenceable(8) ptr @_ZSt16__ostream_insertIcSt11char_traitsIcEERSt13basic_ostreamIT_T0_ES6_PKS3_l(ptr noundef nonnull align 8 dereferenceable(8) %174, ptr noundef nonnull @.str.12, i64 noundef 1)
  br label %178

176:                                              ; preds = %165
  %177 = call noundef nonnull align 8 dereferenceable(8) ptr @_ZSt16__ostream_insertIcSt11char_traitsIcEERSt13basic_ostreamIT_T0_ES6_PKS3_l(ptr noundef nonnull align 8 dereferenceable(8) %1, ptr noundef nonnull @.str.22, i64 noundef 14)
  br label %178

178:                                              ; preds = %176, %172
  %179 = load ptr, ptr %160, align 8, !tbaa !149
  %180 = getelementptr inbounds ptr, ptr %179, i64 %166
  %181 = load ptr, ptr %180, align 8, !tbaa !43
  %182 = load ptr, ptr %181, align 8, !tbaa !26
  %183 = getelementptr inbounds ptr, ptr %182, i64 2
  %184 = load ptr, ptr %183, align 8
  call void %184(ptr noundef nonnull align 8 dereferenceable(8) %181, ptr noundef nonnull %1)
  %185 = load i32, ptr %0, align 8, !tbaa !142
  %186 = icmp eq i32 %185, 3
  %187 = select i1 %186, ptr @.str.23, ptr @.str.9
  %188 = add i64 %166, 1
  %189 = load ptr, ptr %161, align 8, !tbaa !150
  %190 = load ptr, ptr %160, align 8, !tbaa !149
  %191 = ptrtoint ptr %189 to i64
  %192 = ptrtoint ptr %190 to i64
  %193 = sub i64 %191, %192
  %194 = ashr exact i64 %193, 3
  %195 = icmp eq i64 %188, %194
  br i1 %195, label %196, label %165, !llvm.loop !152

196:                                              ; preds = %178, %159, %79, %16
  ret void

197:                                              ; preds = %154, %109
  %198 = phi { ptr, i32 } [ %102, %109 ], [ %147, %154 ]
  resume { ptr, i32 } %198
}

; Function Attrs: uwtable
define dso_local noundef zeroext i1 @_ZNK7testing8internal35UnorderedElementsAreMatcherImplBase17VerifyMatchMatrixERKSt6vectorINSt7__cxx1112basic_stringIcSt11char_traitsIcESaIcEEESaIS8_EERKNS0_11MatchMatrixEPNS_19MatchResultListenerE(ptr nocapture noundef nonnull readonly align 8 dereferenceable(32) %0, ptr nocapture noundef nonnull readonly align 8 dereferenceable(24) %1, ptr nocapture noundef nonnull readonly align 8 dereferenceable(40) %2, ptr nocapture noundef readonly %3) local_unnamed_addr #3 align 2 personality ptr @__gxx_personality_v0 {
  %5 = load i64, ptr %2, align 8, !tbaa !104
  %6 = icmp slt i64 %5, 0
  br i1 %6, label %7, label %8

7:                                                ; preds = %4
  tail call void @_ZSt20__throw_length_errorPKc(ptr noundef nonnull @.str.96) #36
  unreachable

8:                                                ; preds = %4
  %9 = icmp eq i64 %5, 0
  br i1 %9, label %13, label %10

10:                                               ; preds = %8
  %11 = tail call noalias noundef nonnull ptr @_Znwm(i64 noundef %5) #35
  %12 = getelementptr inbounds i8, ptr %11, i64 %5
  tail call void @llvm.memset.p0.i64(ptr nonnull align 1 %11, i8 0, i64 %5, i1 false)
  br label %13

13:                                               ; preds = %10, %8
  %14 = phi ptr [ %11, %10 ], [ null, %8 ]
  %15 = phi ptr [ %12, %10 ], [ null, %8 ]
  %16 = getelementptr inbounds %"class.testing::internal::MatchMatrix", ptr %2, i64 0, i32 1
  %17 = load i64, ptr %16, align 8, !tbaa !113
  %18 = icmp slt i64 %17, 0
  br i1 %18, label %19, label %21

19:                                               ; preds = %13
  invoke void @_ZSt20__throw_length_errorPKc(ptr noundef nonnull @.str.96) #36
          to label %20 unwind label %178

20:                                               ; preds = %19
  unreachable

21:                                               ; preds = %13
  %22 = icmp eq i64 %17, 0
  br i1 %22, label %25, label %23

23:                                               ; preds = %21
  %24 = invoke noalias noundef nonnull ptr @_Znwm(i64 noundef %17) #35
          to label %26 unwind label %178

25:                                               ; preds = %21
  br i1 %9, label %169, label %161

26:                                               ; preds = %23
  %27 = getelementptr i8, ptr %24, i64 %17
  tail call void @llvm.memset.p0.i64(ptr nonnull align 1 %24, i8 0, i64 %17, i1 false)
  br i1 %9, label %161, label %28

28:                                               ; preds = %26
  %29 = getelementptr inbounds %"class.testing::internal::MatchMatrix", ptr %2, i64 0, i32 2
  %30 = load ptr, ptr %29, align 8
  %31 = icmp ult i64 %17, 8
  %32 = icmp ult i64 %17, 32
  %33 = and i64 %17, -32
  %34 = icmp eq i64 %17, %33
  %35 = and i64 %17, 24
  %36 = icmp eq i64 %35, 0
  %37 = and i64 %17, -8
  %38 = icmp eq i64 %17, %37
  %39 = and i64 %17, 1
  %40 = icmp eq i64 %39, 0
  br label %41

41:                                               ; preds = %28, %158
  %42 = phi i64 [ %159, %158 ], [ 0, %28 ]
  %43 = mul i64 %42, %17
  %44 = getelementptr inbounds i8, ptr %14, i64 %42
  %45 = load i8, ptr %44, align 1, !tbaa !14
  br i1 %31, label %115, label %46

46:                                               ; preds = %41
  %47 = mul i64 %17, %42
  %48 = add i64 %17, %47
  %49 = getelementptr i8, ptr %30, i64 %48
  %50 = getelementptr i8, ptr %30, i64 %47
  %51 = add i64 %42, 1
  %52 = getelementptr i8, ptr %14, i64 %51
  %53 = getelementptr i8, ptr %14, i64 %42
  %54 = icmp ult ptr %53, %27
  %55 = icmp ult ptr %24, %52
  %56 = and i1 %54, %55
  %57 = icmp ult ptr %53, %49
  %58 = icmp ult ptr %50, %52
  %59 = and i1 %57, %58
  %60 = or i1 %56, %59
  %61 = icmp ult ptr %24, %49
  %62 = icmp ult ptr %50, %27
  %63 = and i1 %61, %62
  %64 = or i1 %60, %63
  br i1 %64, label %115, label %65

65:                                               ; preds = %46
  br i1 %32, label %95, label %66

66:                                               ; preds = %65
  %67 = insertelement <16 x i8> <i8 poison, i8 0, i8 0, i8 0, i8 0, i8 0, i8 0, i8 0, i8 0, i8 0, i8 0, i8 0, i8 0, i8 0, i8 0, i8 0>, i8 %45, i64 0
  br label %68

68:                                               ; preds = %68, %66
  %69 = phi i64 [ 0, %66 ], [ %89, %68 ]
  %70 = phi <16 x i8> [ %67, %66 ], [ %81, %68 ]
  %71 = phi <16 x i8> [ zeroinitializer, %66 ], [ %82, %68 ]
  %72 = add i64 %69, %43
  %73 = getelementptr inbounds i8, ptr %30, i64 %72
  %74 = load <16 x i8>, ptr %73, align 1, !tbaa !14, !alias.scope !153
  %75 = getelementptr inbounds i8, ptr %73, i64 16
  %76 = load <16 x i8>, ptr %75, align 1, !tbaa !14, !alias.scope !153
  %77 = icmp eq <16 x i8> %74, <i8 1, i8 1, i8 1, i8 1, i8 1, i8 1, i8 1, i8 1, i8 1, i8 1, i8 1, i8 1, i8 1, i8 1, i8 1, i8 1>
  %78 = icmp eq <16 x i8> %76, <i8 1, i8 1, i8 1, i8 1, i8 1, i8 1, i8 1, i8 1, i8 1, i8 1, i8 1, i8 1, i8 1, i8 1, i8 1, i8 1>
  %79 = zext <16 x i1> %77 to <16 x i8>
  %80 = zext <16 x i1> %78 to <16 x i8>
  %81 = or <16 x i8> %70, %79
  %82 = or <16 x i8> %71, %80
  %83 = getelementptr inbounds i8, ptr %24, i64 %69
  %84 = load <16 x i8>, ptr %83, align 1, !tbaa !14, !alias.scope !156, !noalias !153
  %85 = getelementptr inbounds i8, ptr %83, i64 16
  %86 = load <16 x i8>, ptr %85, align 1, !tbaa !14, !alias.scope !156, !noalias !153
  %87 = or <16 x i8> %84, %79
  %88 = or <16 x i8> %86, %80
  store <16 x i8> %87, ptr %83, align 1, !tbaa !14, !alias.scope !156, !noalias !153
  store <16 x i8> %88, ptr %85, align 1, !tbaa !14, !alias.scope !156, !noalias !153
  %89 = add nuw i64 %69, 32
  %90 = icmp eq i64 %89, %33
  br i1 %90, label %91, label %68, !llvm.loop !158

91:                                               ; preds = %68
  %92 = or <16 x i8> %82, %81
  %93 = tail call i8 @llvm.vector.reduce.or.v16i8(<16 x i8> %92)
  store i8 %93, ptr %44, align 1, !tbaa !14
  br i1 %34, label %158, label %94

94:                                               ; preds = %91
  br i1 %36, label %115, label %95

95:                                               ; preds = %65, %94
  %96 = phi i8 [ %45, %65 ], [ %93, %94 ]
  %97 = phi i64 [ 0, %65 ], [ %33, %94 ]
  %98 = insertelement <8 x i8> <i8 poison, i8 0, i8 0, i8 0, i8 0, i8 0, i8 0, i8 0>, i8 %96, i64 0
  br label %99

99:                                               ; preds = %99, %95
  %100 = phi i64 [ %97, %95 ], [ %111, %99 ]
  %101 = phi <8 x i8> [ %98, %95 ], [ %107, %99 ]
  %102 = add i64 %100, %43
  %103 = getelementptr inbounds i8, ptr %30, i64 %102
  %104 = load <8 x i8>, ptr %103, align 1, !tbaa !14, !alias.scope !161
  %105 = icmp eq <8 x i8> %104, <i8 1, i8 1, i8 1, i8 1, i8 1, i8 1, i8 1, i8 1>
  %106 = zext <8 x i1> %105 to <8 x i8>
  %107 = or <8 x i8> %101, %106
  %108 = getelementptr inbounds i8, ptr %24, i64 %100
  %109 = load <8 x i8>, ptr %108, align 1, !tbaa !14, !alias.scope !164, !noalias !161
  %110 = or <8 x i8> %109, %106
  store <8 x i8> %110, ptr %108, align 1, !tbaa !14, !alias.scope !164, !noalias !161
  %111 = add nuw i64 %100, 8
  %112 = icmp eq i64 %111, %37
  br i1 %112, label %113, label %99, !llvm.loop !166

113:                                              ; preds = %99
  %114 = tail call i8 @llvm.vector.reduce.or.v8i8(<8 x i8> %107)
  store i8 %114, ptr %44, align 1, !tbaa !14
  br i1 %38, label %158, label %115

115:                                              ; preds = %46, %41, %94, %113
  %116 = phi i8 [ %45, %41 ], [ %45, %46 ], [ %93, %94 ], [ %114, %113 ]
  %117 = phi i64 [ 0, %41 ], [ 0, %46 ], [ %33, %94 ], [ %37, %113 ]
  %118 = or i64 %117, 1
  br i1 %40, label %130, label %119

119:                                              ; preds = %115
  %120 = add i64 %117, %43
  %121 = getelementptr inbounds i8, ptr %30, i64 %120
  %122 = load i8, ptr %121, align 1, !tbaa !14
  %123 = icmp eq i8 %122, 1
  %124 = zext i1 %123 to i8
  %125 = or i8 %116, %124
  store i8 %125, ptr %44, align 1, !tbaa !14
  %126 = getelementptr inbounds i8, ptr %24, i64 %117
  %127 = load i8, ptr %126, align 1, !tbaa !14
  %128 = or i8 %127, %124
  store i8 %128, ptr %126, align 1, !tbaa !14
  %129 = or i64 %117, 1
  br label %130

130:                                              ; preds = %119, %115
  %131 = phi i8 [ %116, %115 ], [ %125, %119 ]
  %132 = phi i64 [ %117, %115 ], [ %129, %119 ]
  %133 = icmp eq i64 %17, %118
  br i1 %133, label %158, label %134

134:                                              ; preds = %130, %134
  %135 = phi i8 [ %152, %134 ], [ %131, %130 ]
  %136 = phi i64 [ %156, %134 ], [ %132, %130 ]
  %137 = add i64 %136, %43
  %138 = getelementptr inbounds i8, ptr %30, i64 %137
  %139 = load i8, ptr %138, align 1, !tbaa !14
  %140 = icmp eq i8 %139, 1
  %141 = zext i1 %140 to i8
  %142 = or i8 %135, %141
  store i8 %142, ptr %44, align 1, !tbaa !14
  %143 = getelementptr inbounds i8, ptr %24, i64 %136
  %144 = load i8, ptr %143, align 1, !tbaa !14
  %145 = or i8 %144, %141
  store i8 %145, ptr %143, align 1, !tbaa !14
  %146 = add nuw i64 %136, 1
  %147 = add i64 %146, %43
  %148 = getelementptr inbounds i8, ptr %30, i64 %147
  %149 = load i8, ptr %148, align 1, !tbaa !14
  %150 = icmp eq i8 %149, 1
  %151 = zext i1 %150 to i8
  %152 = or i8 %142, %151
  store i8 %152, ptr %44, align 1, !tbaa !14
  %153 = getelementptr inbounds i8, ptr %24, i64 %146
  %154 = load i8, ptr %153, align 1, !tbaa !14
  %155 = or i8 %154, %151
  store i8 %155, ptr %153, align 1, !tbaa !14
  %156 = add nuw i64 %136, 2
  %157 = icmp eq i64 %156, %17
  br i1 %157, label %158, label %134, !llvm.loop !167

158:                                              ; preds = %130, %134, %113, %91
  %159 = add nuw i64 %42, 1
  %160 = icmp eq i64 %159, %5
  br i1 %160, label %161, label %41, !llvm.loop !168

161:                                              ; preds = %158, %25, %26
  %162 = phi ptr [ %27, %26 ], [ null, %25 ], [ %27, %158 ]
  %163 = phi ptr [ %24, %26 ], [ null, %25 ], [ %24, %158 ]
  %164 = load i32, ptr %0, align 8, !tbaa !142
  %165 = and i32 %164, 1
  %166 = icmp eq i32 %165, 0
  %167 = icmp eq ptr %162, %163
  %168 = select i1 %166, i1 true, i1 %167
  br i1 %168, label %237, label %171

169:                                              ; preds = %25
  %170 = load i32, ptr %0, align 8, !tbaa !142
  br label %237

171:                                              ; preds = %161
  %172 = ptrtoint ptr %162 to i64
  %173 = ptrtoint ptr %163 to i64
  %174 = sub i64 %172, %173
  %175 = getelementptr inbounds %"class.testing::MatchResultListener", ptr %3, i64 0, i32 1
  %176 = getelementptr inbounds %"class.testing::internal::UnorderedElementsAreMatcherImplBase", ptr %0, i64 0, i32 1
  %177 = tail call i64 @llvm.umax.i64(i64 %174, i64 1)
  br label %180

178:                                              ; preds = %23, %19
  %179 = landingpad { ptr, i32 }
          cleanup
  br label %341

180:                                              ; preds = %171, %230
  %181 = phi i8 [ 1, %171 ], [ %232, %230 ]
  %182 = phi i64 [ 0, %171 ], [ %233, %230 ]
  %183 = phi ptr [ @.str.31, %171 ], [ %231, %230 ]
  %184 = getelementptr inbounds i8, ptr %163, i64 %182
  %185 = load i8, ptr %184, align 1, !tbaa !14
  %186 = icmp eq i8 %185, 0
  br i1 %186, label %187, label %230

187:                                              ; preds = %180
  %188 = load ptr, ptr %175, align 8, !tbaa !169
  %189 = icmp eq ptr %188, null
  br i1 %189, label %230, label %190

190:                                              ; preds = %187
  %191 = icmp eq ptr %183, null
  br i1 %191, label %192, label %200

192:                                              ; preds = %190
  %193 = load ptr, ptr %188, align 8, !tbaa !26
  %194 = getelementptr i8, ptr %193, i64 -24
  %195 = load i64, ptr %194, align 8
  %196 = getelementptr inbounds i8, ptr %188, i64 %195
  %197 = getelementptr inbounds %"class.std::ios_base", ptr %196, i64 0, i32 5
  %198 = load i32, ptr %197, align 8, !tbaa !171
  %199 = or i32 %198, 1
  invoke void @_ZNSt9basic_iosIcSt11char_traitsIcEE5clearESt12_Ios_Iostate(ptr noundef nonnull align 8 dereferenceable(264) %196, i32 noundef %199)
          to label %203 unwind label %228

200:                                              ; preds = %190
  %201 = tail call i64 @strlen(ptr noundef nonnull dereferenceable(1) %183) #33
  %202 = invoke noundef nonnull align 8 dereferenceable(8) ptr @_ZSt16__ostream_insertIcSt11char_traitsIcEERSt13basic_ostreamIT_T0_ES6_PKS3_l(ptr noundef nonnull align 8 dereferenceable(8) %188, ptr noundef nonnull %183, i64 noundef %201)
          to label %203 unwind label %228

203:                                              ; preds = %192, %200
  %204 = load ptr, ptr %175, align 8, !tbaa !169
  %205 = icmp eq ptr %204, null
  br i1 %205, label %220, label %206

206:                                              ; preds = %203
  %207 = invoke noundef nonnull align 8 dereferenceable(8) ptr @_ZSt16__ostream_insertIcSt11char_traitsIcEERSt13basic_ostreamIT_T0_ES6_PKS3_l(ptr noundef nonnull align 8 dereferenceable(8) %204, ptr noundef nonnull @.str.32, i64 noundef 9)
          to label %208 unwind label %228

208:                                              ; preds = %206
  %209 = load ptr, ptr %175, align 8, !tbaa !169
  %210 = icmp eq ptr %209, null
  br i1 %210, label %220, label %211

211:                                              ; preds = %208
  %212 = invoke noundef nonnull align 8 dereferenceable(8) ptr @_ZNSo9_M_insertImEERSoT_(ptr noundef nonnull align 8 dereferenceable(8) %209, i64 noundef %182)
          to label %213 unwind label %228

213:                                              ; preds = %211
  %214 = load ptr, ptr %175, align 8, !tbaa !169
  %215 = icmp eq ptr %214, null
  br i1 %215, label %220, label %216

216:                                              ; preds = %213
  %217 = invoke noundef nonnull align 8 dereferenceable(8) ptr @_ZSt16__ostream_insertIcSt11char_traitsIcEERSt13basic_ostreamIT_T0_ES6_PKS3_l(ptr noundef nonnull align 8 dereferenceable(8) %214, ptr noundef nonnull @.str.33, i64 noundef 2)
          to label %218 unwind label %228

218:                                              ; preds = %216
  %219 = load ptr, ptr %175, align 8, !tbaa !169
  br label %220

220:                                              ; preds = %218, %203, %208, %213
  %221 = phi ptr [ %219, %218 ], [ null, %203 ], [ null, %208 ], [ null, %213 ]
  %222 = load ptr, ptr %176, align 8, !tbaa !149
  %223 = getelementptr inbounds ptr, ptr %222, i64 %182
  %224 = load ptr, ptr %223, align 8, !tbaa !43
  %225 = load ptr, ptr %224, align 8, !tbaa !26
  %226 = getelementptr inbounds ptr, ptr %225, i64 2
  %227 = load ptr, ptr %226, align 8
  invoke void %227(ptr noundef nonnull align 8 dereferenceable(8) %224, ptr noundef %221)
          to label %230 unwind label %228

