; ModuleID = '/usr/local/google/home/aeubanks/repos/test-suite/MicroBenchmarks/libs/benchmark/src/counter.cc'
source_filename = "/usr/local/google/home/aeubanks/repos/test-suite/MicroBenchmarks/libs/benchmark/src/counter.cc"
target datalayout = "e-m:e-p270:32:32-p271:32:32-p272:64:64-i64:64-f80:128-n8:16:32:64-S128"
target triple = "x86_64-unknown-linux-gnu"

%"struct.std::piecewise_construct_t" = type { i8 }
%"class.benchmark::Counter" = type { double, i32, i32 }
%"struct.std::_Rb_tree_node" = type { %"struct.std::_Rb_tree_node_base", %"struct.__gnu_cxx::__aligned_membuf" }
%"struct.std::_Rb_tree_node_base" = type { i32, ptr, ptr, ptr }
%"struct.__gnu_cxx::__aligned_membuf" = type { [48 x i8] }
%"class.std::tuple" = type { %"struct.std::_Tuple_impl" }
%"struct.std::_Tuple_impl" = type { %"struct.std::_Head_base" }
%"struct.std::_Head_base" = type { ptr }
%"class.std::tuple.3" = type { i8 }
%"class.std::__cxx11::basic_string" = type { %"struct.std::__cxx11::basic_string<char>::_Alloc_hider", i64, %union.anon }
%"struct.std::__cxx11::basic_string<char>::_Alloc_hider" = type { ptr }
%union.anon = type { i64, [8 x i8] }
%"struct.std::_Rb_tree<std::__cxx11::basic_string<char>, std::pair<const std::__cxx11::basic_string<char>, benchmark::Counter>, std::_Select1st<std::pair<const std::__cxx11::basic_string<char>, benchmark::Counter>>, std::less<std::__cxx11::basic_string<char>>>::_Auto_node" = type { ptr, ptr }

$_ZNSt3mapINSt7__cxx1112basic_stringIcSt11char_traitsIcESaIcEEEN9benchmark7CounterESt4lessIS5_ESaISt4pairIKS5_S7_EEEixERSB_ = comdat any

$__clang_call_terminate = comdat any

$_ZNSt8_Rb_treeINSt7__cxx1112basic_stringIcSt11char_traitsIcESaIcEEESt4pairIKS5_N9benchmark7CounterEESt10_Select1stISA_ESt4lessIS5_ESaISA_EE22_M_emplace_hint_uniqueIJRKSt21piecewise_construct_tSt5tupleIJRS7_EESL_IJEEEEESt17_Rb_tree_iteratorISA_ESt23_Rb_tree_const_iteratorISA_EDpOT_ = comdat any

$_ZNSt8_Rb_treeINSt7__cxx1112basic_stringIcSt11char_traitsIcESaIcEEESt4pairIKS5_N9benchmark7CounterEESt10_Select1stISA_ESt4lessIS5_ESaISA_EE29_M_get_insert_hint_unique_posESt23_Rb_tree_const_iteratorISA_ERS7_ = comdat any

$_ZNSt8_Rb_treeINSt7__cxx1112basic_stringIcSt11char_traitsIcESaIcEEESt4pairIKS5_N9benchmark7CounterEESt10_Select1stISA_ESt4lessIS5_ESaISA_EE10_Auto_nodeD2Ev = comdat any

$_ZNSt8_Rb_treeINSt7__cxx1112basic_stringIcSt11char_traitsIcESaIcEEESt4pairIKS5_N9benchmark7CounterEESt10_Select1stISA_ESt4lessIS5_ESaISA_EE17_M_construct_nodeIJRKSt21piecewise_construct_tSt5tupleIJRS7_EESL_IJEEEEEvPSt13_Rb_tree_nodeISA_EDpOT_ = comdat any

$_ZNSt8_Rb_treeINSt7__cxx1112basic_stringIcSt11char_traitsIcESaIcEEESt4pairIKS5_N9benchmark7CounterEESt10_Select1stISA_ESt4lessIS5_ESaISA_EE24_M_get_insert_unique_posERS7_ = comdat any

@_ZStL19piecewise_construct = internal constant %"struct.std::piecewise_construct_t" undef, align 1
@llvm.global_ctors = appending global [1 x { i32, ptr, ptr }] [{ i32, ptr, ptr } { i32 65535, ptr @_GLOBAL__sub_I_counter.cc, ptr null }]

declare noundef i32 @_ZN9benchmark8internal17InitializeStreamsEv() local_unnamed_addr #0

; Function Attrs: mustprogress nofree norecurse nosync nounwind willreturn memory(argmem: read) uwtable
define hidden noundef double @_ZN9benchmark8internal6FinishERKNS_7CounterEmdd(ptr nocapture noundef nonnull readonly align 8 dereferenceable(16) %c, i64 noundef %iterations, double noundef %cpu_time, double noundef %num_threads) local_unnamed_addr #1 {
entry:
  %0 = load double, ptr %c, align 8, !tbaa !5
  %flags = getelementptr inbounds %"class.benchmark::Counter", ptr %c, i64 0, i32 1
  %1 = load i32, ptr %flags, align 8, !tbaa !12
  %conv = uitofp i64 %iterations to double
  %2 = insertelement <4 x i32> poison, i32 %1, i64 0
  %3 = shufflevector <4 x i32> %2, <4 x i32> poison, <4 x i32> zeroinitializer
  %4 = and <4 x i32> %3, <i32 8, i32 4, i32 2, i32 1>
  %5 = icmp eq <4 x i32> %4, zeroinitializer
  %6 = extractelement <4 x i1> %5, i64 3
  %div = select i1 %6, double 1.000000e+00, double %cpu_time
  %v.0 = fdiv double %0, %div
  %7 = extractelement <4 x i1> %5, i64 2
  %div5 = select i1 %7, double 1.000000e+00, double %num_threads
  %v.1 = fdiv double %v.0, %div5
  %8 = extractelement <4 x i1> %5, i64 1
  %mul = select i1 %8, double 1.000000e+00, double %conv
  %v.2 = fmul double %v.1, %mul
  %9 = extractelement <4 x i1> %5, i64 0
  %div17 = select i1 %9, double 1.000000e+00, double %conv
  %v.3 = fdiv double %v.2, %div17
  %div23 = fdiv double 1.000000e+00, %v.3
  %tobool21.not36 = icmp slt i32 %1, 0
  %v.4 = select i1 %tobool21.not36, double %div23, double %v.3
  ret double %v.4
}

; Function Attrs: mustprogress nocallback nofree nosync nounwind willreturn memory(argmem: readwrite)
declare void @llvm.lifetime.start.p0(i64 immarg, ptr nocapture) #2

; Function Attrs: mustprogress nocallback nofree nosync nounwind willreturn memory(argmem: readwrite)
declare void @llvm.lifetime.end.p0(i64 immarg, ptr nocapture) #2

; Function Attrs: nofree nounwind memory(readwrite, inaccessiblemem: read) uwtable
define hidden void @_ZN9benchmark8internal6FinishEPSt3mapINSt7__cxx1112basic_stringIcSt11char_traitsIcESaIcEEENS_7CounterESt4lessIS7_ESaISt4pairIKS7_S8_EEEmdd(ptr noundef readonly %l, i64 noundef %iterations, double noundef %cpu_time, double noundef %num_threads) local_unnamed_addr #3 personality ptr @__gxx_personality_v0 {
entry:
  %_M_left.i.i = getelementptr inbounds i8, ptr %l, i64 24
  %0 = load ptr, ptr %_M_left.i.i, align 8, !tbaa !13
  %add.ptr.i.i = getelementptr inbounds i8, ptr %l, i64 8
  %cmp.i.not12 = icmp eq ptr %0, %add.ptr.i.i
  br i1 %cmp.i.not12, label %for.cond.cleanup, label %for.body.lr.ph

for.body.lr.ph:                                   ; preds = %entry
  %conv.i = uitofp i64 %iterations to double
  br label %for.body

for.cond.cleanup:                                 ; preds = %for.body, %entry
  ret void

for.body:                                         ; preds = %for.body.lr.ph, %for.body
  %__begin2.sroa.0.013 = phi ptr [ %0, %for.body.lr.ph ], [ %call.i, %for.body ]
  %second = getelementptr inbounds %"struct.std::_Rb_tree_node", ptr %__begin2.sroa.0.013, i64 0, i32 1, i32 0, i64 32
  %1 = load double, ptr %second, align 8, !tbaa !5
  %flags.i = getelementptr inbounds %"struct.std::_Rb_tree_node", ptr %__begin2.sroa.0.013, i64 0, i32 1, i32 0, i64 40
  %2 = load i32, ptr %flags.i, align 8, !tbaa !12
  %3 = insertelement <4 x i32> poison, i32 %2, i64 0
  %4 = shufflevector <4 x i32> %3, <4 x i32> poison, <4 x i32> zeroinitializer
  %5 = and <4 x i32> %4, <i32 8, i32 4, i32 2, i32 1>
  %6 = icmp eq <4 x i32> %5, zeroinitializer
  %7 = extractelement <4 x i1> %6, i64 3
  %div.i = select i1 %7, double 1.000000e+00, double %cpu_time
  %v.0.i = fdiv double %1, %div.i
  %8 = extractelement <4 x i1> %6, i64 2
  %div5.i = select i1 %8, double 1.000000e+00, double %num_threads
  %v.1.i = fdiv double %v.0.i, %div5.i
  %9 = extractelement <4 x i1> %6, i64 1
  %mul.i = select i1 %9, double 1.000000e+00, double %conv.i
  %v.2.i = fmul double %mul.i, %v.1.i
  %10 = extractelement <4 x i1> %6, i64 0
  %div17.i = select i1 %10, double 1.000000e+00, double %conv.i
  %v.3.i = fdiv double %v.2.i, %div17.i
  %div23.i = fdiv double 1.000000e+00, %v.3.i
  %tobool21.not36.i = icmp slt i32 %2, 0
  %v.4.i = select i1 %tobool21.not36.i, double %div23.i, double %v.3.i
  store double %v.4.i, ptr %second, align 8, !tbaa !19
  %call.i = tail call noundef ptr @_ZSt18_Rb_tree_incrementPSt18_Rb_tree_node_base(ptr noundef %__begin2.sroa.0.013) #15
  %cmp.i.not = icmp eq ptr %call.i, %add.ptr.i.i
  br i1 %cmp.i.not, label %for.cond.cleanup, label %for.body
}

; Function Attrs: uwtable
define hidden void @_ZN9benchmark8internal9IncrementEPSt3mapINSt7__cxx1112basic_stringIcSt11char_traitsIcESaIcEEENS_7CounterESt4lessIS7_ESaISt4pairIKS7_S8_EEERKSF_(ptr noundef %l, ptr noundef nonnull readonly align 8 dereferenceable(48) %r) local_unnamed_addr #4 personality ptr @__gxx_personality_v0 {
entry:
  %_M_left.i.i = getelementptr inbounds i8, ptr %l, i64 24
  %0 = load ptr, ptr %_M_left.i.i, align 8, !tbaa !13
  %add.ptr.i.i = getelementptr inbounds i8, ptr %l, i64 8
  %cmp.i.not121 = icmp eq ptr %0, %add.ptr.i.i
  br i1 %cmp.i.not121, label %for.cond.cleanup, label %for.body.lr.ph

for.body.lr.ph:                                   ; preds = %entry
  %_M_parent.i.i.i = getelementptr inbounds i8, ptr %r, i64 16
  %1 = load ptr, ptr %_M_parent.i.i.i, align 8, !tbaa !23
  %add.ptr.i.i.i = getelementptr inbounds i8, ptr %r, i64 8
  %cmp.not9.i.i.i = icmp eq ptr %1, null
  br i1 %cmp.not9.i.i.i, label %for.body.us, label %for.body

for.body.us:                                      ; preds = %for.body.lr.ph, %for.body.us
  %__begin2.sroa.0.0122.us = phi ptr [ %call.i.us, %for.body.us ], [ %0, %for.body.lr.ph ]
  %call.i.us = tail call noundef ptr @_ZSt18_Rb_tree_incrementPSt18_Rb_tree_node_base(ptr noundef %__begin2.sroa.0.0122.us) #15
  %cmp.i.not.us = icmp eq ptr %call.i.us, %add.ptr.i.i
  br i1 %cmp.i.not.us, label %for.cond.cleanup, label %for.body.us

for.cond.cleanup:                                 ; preds = %if.end, %for.body.us, %entry
  %_M_left.i.i55 = getelementptr inbounds i8, ptr %r, i64 24
  %2 = load ptr, ptr %_M_left.i.i55, align 8, !tbaa !13
  %add.ptr.i.i56 = getelementptr inbounds i8, ptr %r, i64 8
  %cmp.i60.not123 = icmp eq ptr %2, %add.ptr.i.i56
  br i1 %cmp.i60.not123, label %for.cond.cleanup25, label %for.body26.lr.ph

for.body26.lr.ph:                                 ; preds = %for.cond.cleanup
  %_M_parent.i.i.i.i = getelementptr inbounds i8, ptr %l, i64 16
  br label %for.body26

for.body:                                         ; preds = %for.body.lr.ph, %if.end
  %__begin2.sroa.0.0122 = phi ptr [ %call.i, %if.end ], [ %0, %for.body.lr.ph ]
  %_M_storage.i.i = getelementptr inbounds %"struct.std::_Rb_tree_node", ptr %__begin2.sroa.0.0122, i64 0, i32 1
  %_M_string_length.i10.i.i.i.i.i.i = getelementptr inbounds %"struct.std::_Rb_tree_node", ptr %__begin2.sroa.0.0122, i64 0, i32 1, i32 0, i64 8
  %3 = load i64, ptr %_M_string_length.i10.i.i.i.i.i.i, align 8, !tbaa !24
  %4 = load ptr, ptr %_M_storage.i.i, align 8
  br label %while.body.i.i.i

while.body.i.i.i:                                 ; preds = %_ZNKSt4lessINSt7__cxx1112basic_stringIcSt11char_traitsIcESaIcEEEEclERKS5_S8_.exit.i.i.i, %for.body
  %__x.addr.011.i.i.i = phi ptr [ %1, %for.body ], [ %__x.addr.1.i.i.i, %_ZNKSt4lessINSt7__cxx1112basic_stringIcSt11char_traitsIcESaIcEEEEclERKS5_S8_.exit.i.i.i ]
  %__y.addr.010.i.i.i = phi ptr [ %add.ptr.i.i.i, %for.body ], [ %__y.addr.1.i.i.i, %_ZNKSt4lessINSt7__cxx1112basic_stringIcSt11char_traitsIcESaIcEEEEclERKS5_S8_.exit.i.i.i ]
  %_M_string_length.i.i.i.i.i.i.i = getelementptr inbounds %"struct.std::_Rb_tree_node", ptr %__x.addr.011.i.i.i, i64 0, i32 1, i32 0, i64 8
  %5 = load i64, ptr %_M_string_length.i.i.i.i.i.i.i, align 8, !tbaa !24
  %.sroa.speculated.i.i.i.i.i.i = tail call i64 @llvm.umin.i64(i64 %5, i64 %3)
  %cmp.i11.i.i.i.i.i.i = icmp eq i64 %.sroa.speculated.i.i.i.i.i.i, 0
  br i1 %cmp.i11.i.i.i.i.i.i, label %if.then.i.i.i.i.i.i, label %_ZNSt11char_traitsIcE7compareEPKcS2_m.exit.i.i.i.i.i.i

_ZNSt11char_traitsIcE7compareEPKcS2_m.exit.i.i.i.i.i.i: ; preds = %while.body.i.i.i
  %_M_storage.i.i.i.i.i = getelementptr inbounds %"struct.std::_Rb_tree_node", ptr %__x.addr.011.i.i.i, i64 0, i32 1
  %6 = load ptr, ptr %_M_storage.i.i.i.i.i, align 8, !tbaa !25
  %call.i.i.i.i.i.i.i = tail call i32 @memcmp(ptr noundef %6, ptr noundef %4, i64 noundef %.sroa.speculated.i.i.i.i.i.i) #16
  %tobool.not.i.i.i.i.i.i = icmp eq i32 %call.i.i.i.i.i.i.i, 0
  br i1 %tobool.not.i.i.i.i.i.i, label %if.then.i.i.i.i.i.i, label %_ZNKSt4lessINSt7__cxx1112basic_stringIcSt11char_traitsIcESaIcEEEEclERKS5_S8_.exit.i.i.i

if.then.i.i.i.i.i.i:                              ; preds = %_ZNSt11char_traitsIcE7compareEPKcS2_m.exit.i.i.i.i.i.i, %while.body.i.i.i
  %sub.i.i.i.i.i.i.i = sub i64 %5, %3
  %spec.select6.i.i.i.i.i.i.i = tail call i64 @llvm.smax.i64(i64 %sub.i.i.i.i.i.i.i, i64 -2147483648)
  %retval.07.i.i.i.i.i.i.i = tail call i64 @llvm.smin.i64(i64 %spec.select6.i.i.i.i.i.i.i, i64 2147483647)
  %retval.0.i12.i.i.i.i.i.i = trunc i64 %retval.07.i.i.i.i.i.i.i to i32
  br label %_ZNKSt4lessINSt7__cxx1112basic_stringIcSt11char_traitsIcESaIcEEEEclERKS5_S8_.exit.i.i.i

_ZNKSt4lessINSt7__cxx1112basic_stringIcSt11char_traitsIcESaIcEEEEclERKS5_S8_.exit.i.i.i: ; preds = %if.then.i.i.i.i.i.i, %_ZNSt11char_traitsIcE7compareEPKcS2_m.exit.i.i.i.i.i.i
  %__r.0.i.i.i.i.i.i = phi i32 [ %call.i.i.i.i.i.i.i, %_ZNSt11char_traitsIcE7compareEPKcS2_m.exit.i.i.i.i.i.i ], [ %retval.0.i12.i.i.i.i.i.i, %if.then.i.i.i.i.i.i ]
  %cmp.i.i.i.i.i = icmp slt i32 %__r.0.i.i.i.i.i.i, 0
  %_M_right.i.i.i.i = getelementptr inbounds %"struct.std::_Rb_tree_node_base", ptr %__x.addr.011.i.i.i, i64 0, i32 3
  %_M_left.i.i.i.i = getelementptr inbounds %"struct.std::_Rb_tree_node_base", ptr %__x.addr.011.i.i.i, i64 0, i32 2
  %__y.addr.1.i.i.i = select i1 %cmp.i.i.i.i.i, ptr %__y.addr.010.i.i.i, ptr %__x.addr.011.i.i.i
  %__x.addr.1.in.i.i.i = select i1 %cmp.i.i.i.i.i, ptr %_M_right.i.i.i.i, ptr %_M_left.i.i.i.i
  %__x.addr.1.i.i.i = load ptr, ptr %__x.addr.1.in.i.i.i, align 8, !tbaa !26
  %cmp.not.i.i.i = icmp eq ptr %__x.addr.1.i.i.i, null
  br i1 %cmp.not.i.i.i, label %_ZNKSt8_Rb_treeINSt7__cxx1112basic_stringIcSt11char_traitsIcESaIcEEESt4pairIKS5_N9benchmark7CounterEESt10_Select1stISA_ESt4lessIS5_ESaISA_EE14_M_lower_boundEPKSt13_Rb_tree_nodeISA_EPKSt18_Rb_tree_node_baseRS7_.exit.i.i, label %while.body.i.i.i, !llvm.loop !27

_ZNKSt8_Rb_treeINSt7__cxx1112basic_stringIcSt11char_traitsIcESaIcEEESt4pairIKS5_N9benchmark7CounterEESt10_Select1stISA_ESt4lessIS5_ESaISA_EE14_M_lower_boundEPKSt13_Rb_tree_nodeISA_EPKSt18_Rb_tree_node_baseRS7_.exit.i.i: ; preds = %_ZNKSt4lessINSt7__cxx1112basic_stringIcSt11char_traitsIcESaIcEEEEclERKS5_S8_.exit.i.i.i
  %cmp.i.i.i = icmp eq ptr %__y.addr.1.i.i.i, %add.ptr.i.i.i
  br i1 %cmp.i.i.i, label %if.end, label %lor.lhs.false.i.i

lor.lhs.false.i.i:                                ; preds = %_ZNKSt8_Rb_treeINSt7__cxx1112basic_stringIcSt11char_traitsIcESaIcEEESt4pairIKS5_N9benchmark7CounterEESt10_Select1stISA_ESt4lessIS5_ESaISA_EE14_M_lower_boundEPKSt13_Rb_tree_nodeISA_EPKSt18_Rb_tree_node_baseRS7_.exit.i.i
  %_M_string_length.i10.i.i.i.i.i = getelementptr inbounds %"struct.std::_Rb_tree_node", ptr %__y.addr.1.i.i.i, i64 0, i32 1, i32 0, i64 8
  %7 = load i64, ptr %_M_string_length.i10.i.i.i.i.i, align 8, !tbaa !24
  %.sroa.speculated.i.i.i.i.i = tail call i64 @llvm.umin.i64(i64 %3, i64 %7)
  %cmp.i11.i.i.i.i.i = icmp eq i64 %.sroa.speculated.i.i.i.i.i, 0
  br i1 %cmp.i11.i.i.i.i.i, label %if.then.i.i.i.i.i, label %_ZNSt11char_traitsIcE7compareEPKcS2_m.exit.i.i.i.i.i

_ZNSt11char_traitsIcE7compareEPKcS2_m.exit.i.i.i.i.i: ; preds = %lor.lhs.false.i.i
  %_M_storage.i.i.i14.i.i = getelementptr inbounds %"struct.std::_Rb_tree_node", ptr %__y.addr.1.i.i.i, i64 0, i32 1
  %8 = load ptr, ptr %_M_storage.i.i.i14.i.i, align 8, !tbaa !25
  %call.i.i.i.i.i.i = tail call i32 @memcmp(ptr noundef %4, ptr noundef %8, i64 noundef %.sroa.speculated.i.i.i.i.i) #16
  %tobool.not.i.i.i.i.i = icmp eq i32 %call.i.i.i.i.i.i, 0
  br i1 %tobool.not.i.i.i.i.i, label %if.then.i.i.i.i.i, label %_ZNKSt3mapINSt7__cxx1112basic_stringIcSt11char_traitsIcESaIcEEEN9benchmark7CounterESt4lessIS5_ESaISt4pairIKS5_S7_EEE4findERSB_.exit

if.then.i.i.i.i.i:                                ; preds = %_ZNSt11char_traitsIcE7compareEPKcS2_m.exit.i.i.i.i.i, %lor.lhs.false.i.i
  %sub.i.i.i.i.i.i = sub i64 %3, %7
  %spec.select6.i.i.i.i.i.i = tail call i64 @llvm.smax.i64(i64 %sub.i.i.i.i.i.i, i64 -2147483648)
  %retval.07.i.i.i.i.i.i = tail call i64 @llvm.smin.i64(i64 %spec.select6.i.i.i.i.i.i, i64 2147483647)
  %retval.0.i12.i.i.i.i.i = trunc i64 %retval.07.i.i.i.i.i.i to i32
  br label %_ZNKSt3mapINSt7__cxx1112basic_stringIcSt11char_traitsIcESaIcEEEN9benchmark7CounterESt4lessIS5_ESaISt4pairIKS5_S7_EEE4findERSB_.exit

_ZNKSt3mapINSt7__cxx1112basic_stringIcSt11char_traitsIcESaIcEEEN9benchmark7CounterESt4lessIS5_ESaISt4pairIKS5_S7_EEE4findERSB_.exit: ; preds = %_ZNSt11char_traitsIcE7compareEPKcS2_m.exit.i.i.i.i.i, %if.then.i.i.i.i.i
  %__r.0.i.i.i.i.i = phi i32 [ %call.i.i.i.i.i.i, %_ZNSt11char_traitsIcE7compareEPKcS2_m.exit.i.i.i.i.i ], [ %retval.0.i12.i.i.i.i.i, %if.then.i.i.i.i.i ]
  %cmp.i.i.i.i = icmp slt i32 %__r.0.i.i.i.i.i, 0
  br i1 %cmp.i.i.i.i, label %if.end, label %if.then

if.then:                                          ; preds = %_ZNKSt3mapINSt7__cxx1112basic_stringIcSt11char_traitsIcESaIcEEEN9benchmark7CounterESt4lessIS5_ESaISt4pairIKS5_S7_EEE4findERSB_.exit
  %second = getelementptr inbounds %"struct.std::_Rb_tree_node", ptr %__begin2.sroa.0.0122, i64 0, i32 1, i32 0, i64 32
  %9 = load double, ptr %second, align 8, !tbaa !29
  %second12 = getelementptr inbounds %"struct.std::_Rb_tree_node", ptr %__y.addr.1.i.i.i, i64 0, i32 1, i32 0, i64 32
  %10 = load double, ptr %second12, align 8, !tbaa !29
  %add = fadd double %9, %10
  store double %add, ptr %second, align 8, !tbaa !19
  br label %if.end

if.end:                                           ; preds = %_ZNKSt8_Rb_treeINSt7__cxx1112basic_stringIcSt11char_traitsIcESaIcEEESt4pairIKS5_N9benchmark7CounterEESt10_Select1stISA_ESt4lessIS5_ESaISA_EE14_M_lower_boundEPKSt13_Rb_tree_nodeISA_EPKSt18_Rb_tree_node_baseRS7_.exit.i.i, %if.then, %_ZNKSt3mapINSt7__cxx1112basic_stringIcSt11char_traitsIcESaIcEEEN9benchmark7CounterESt4lessIS5_ESaISt4pairIKS5_S7_EEE4findERSB_.exit
  %call.i = tail call noundef ptr @_ZSt18_Rb_tree_incrementPSt18_Rb_tree_node_base(ptr noundef %__begin2.sroa.0.0122) #15
  %cmp.i.not = icmp eq ptr %call.i, %add.ptr.i.i
  br i1 %cmp.i.not, label %for.cond.cleanup, label %for.body

for.cond.cleanup25:                               ; preds = %if.end40, %for.cond.cleanup
  ret void

for.body26:                                       ; preds = %for.body26.lr.ph, %if.end40
  %__begin217.sroa.0.0124 = phi ptr [ %2, %for.body26.lr.ph ], [ %call.i111, %if.end40 ]
  %_M_storage.i.i61 = getelementptr inbounds %"struct.std::_Rb_tree_node", ptr %__begin217.sroa.0.0124, i64 0, i32 1
  %11 = load ptr, ptr %_M_parent.i.i.i.i, align 8, !tbaa !23
  %cmp.not9.i.i.i63 = icmp eq ptr %11, null
  br i1 %cmp.not9.i.i.i63, label %if.then36, label %while.body.lr.ph.i.i.i65

while.body.lr.ph.i.i.i65:                         ; preds = %for.body26
  %_M_string_length.i10.i.i.i.i.i.i64 = getelementptr inbounds %"struct.std::_Rb_tree_node", ptr %__begin217.sroa.0.0124, i64 0, i32 1, i32 0, i64 8
  %12 = load i64, ptr %_M_string_length.i10.i.i.i.i.i.i64, align 8, !tbaa !24
  %13 = load ptr, ptr %_M_storage.i.i61, align 8
  br label %while.body.i.i.i71

while.body.i.i.i71:                               ; preds = %_ZNKSt4lessINSt7__cxx1112basic_stringIcSt11char_traitsIcESaIcEEEEclERKS5_S8_.exit.i.i.i89, %while.body.lr.ph.i.i.i65
  %__x.addr.011.i.i.i66 = phi ptr [ %11, %while.body.lr.ph.i.i.i65 ], [ %__x.addr.1.i.i.i87, %_ZNKSt4lessINSt7__cxx1112basic_stringIcSt11char_traitsIcESaIcEEEEclERKS5_S8_.exit.i.i.i89 ]
  %__y.addr.010.i.i.i67 = phi ptr [ %add.ptr.i.i, %while.body.lr.ph.i.i.i65 ], [ %__y.addr.1.i.i.i85, %_ZNKSt4lessINSt7__cxx1112basic_stringIcSt11char_traitsIcESaIcEEEEclERKS5_S8_.exit.i.i.i89 ]
  %_M_string_length.i.i.i.i.i.i.i68 = getelementptr inbounds %"struct.std::_Rb_tree_node", ptr %__x.addr.011.i.i.i66, i64 0, i32 1, i32 0, i64 8
  %14 = load i64, ptr %_M_string_length.i.i.i.i.i.i.i68, align 8, !tbaa !24
  %.sroa.speculated.i.i.i.i.i.i69 = tail call i64 @llvm.umin.i64(i64 %14, i64 %12)
  %cmp.i11.i.i.i.i.i.i70 = icmp eq i64 %.sroa.speculated.i.i.i.i.i.i69, 0
  br i1 %cmp.i11.i.i.i.i.i.i70, label %if.then.i.i.i.i.i.i80, label %_ZNSt11char_traitsIcE7compareEPKcS2_m.exit.i.i.i.i.i.i75

_ZNSt11char_traitsIcE7compareEPKcS2_m.exit.i.i.i.i.i.i75: ; preds = %while.body.i.i.i71
  %_M_storage.i.i.i.i.i72 = getelementptr inbounds %"struct.std::_Rb_tree_node", ptr %__x.addr.011.i.i.i66, i64 0, i32 1
  %15 = load ptr, ptr %_M_storage.i.i.i.i.i72, align 8, !tbaa !25
  %call.i.i.i.i.i.i.i73 = tail call i32 @memcmp(ptr noundef %15, ptr noundef %13, i64 noundef %.sroa.speculated.i.i.i.i.i.i69) #16
  %tobool.not.i.i.i.i.i.i74 = icmp eq i32 %call.i.i.i.i.i.i.i73, 0
  br i1 %tobool.not.i.i.i.i.i.i74, label %if.then.i.i.i.i.i.i80, label %_ZNKSt4lessINSt7__cxx1112basic_stringIcSt11char_traitsIcESaIcEEEEclERKS5_S8_.exit.i.i.i89

if.then.i.i.i.i.i.i80:                            ; preds = %_ZNSt11char_traitsIcE7compareEPKcS2_m.exit.i.i.i.i.i.i75, %while.body.i.i.i71
  %sub.i.i.i.i.i.i.i76 = sub i64 %14, %12
  %spec.select6.i.i.i.i.i.i.i77 = tail call i64 @llvm.smax.i64(i64 %sub.i.i.i.i.i.i.i76, i64 -2147483648)
  %retval.07.i.i.i.i.i.i.i78 = tail call i64 @llvm.smin.i64(i64 %spec.select6.i.i.i.i.i.i.i77, i64 2147483647)
  %retval.0.i12.i.i.i.i.i.i79 = trunc i64 %retval.07.i.i.i.i.i.i.i78 to i32
  br label %_ZNKSt4lessINSt7__cxx1112basic_stringIcSt11char_traitsIcESaIcEEEEclERKS5_S8_.exit.i.i.i89

_ZNKSt4lessINSt7__cxx1112basic_stringIcSt11char_traitsIcESaIcEEEEclERKS5_S8_.exit.i.i.i89: ; preds = %if.then.i.i.i.i.i.i80, %_ZNSt11char_traitsIcE7compareEPKcS2_m.exit.i.i.i.i.i.i75
  %__r.0.i.i.i.i.i.i81 = phi i32 [ %call.i.i.i.i.i.i.i73, %_ZNSt11char_traitsIcE7compareEPKcS2_m.exit.i.i.i.i.i.i75 ], [ %retval.0.i12.i.i.i.i.i.i79, %if.then.i.i.i.i.i.i80 ]
  %cmp.i.i.i.i.i82 = icmp slt i32 %__r.0.i.i.i.i.i.i81, 0
  %_M_right.i.i.i.i83 = getelementptr inbounds %"struct.std::_Rb_tree_node_base", ptr %__x.addr.011.i.i.i66, i64 0, i32 3
  %_M_left.i.i.i.i84 = getelementptr inbounds %"struct.std::_Rb_tree_node_base", ptr %__x.addr.011.i.i.i66, i64 0, i32 2
  %__y.addr.1.i.i.i85 = select i1 %cmp.i.i.i.i.i82, ptr %__y.addr.010.i.i.i67, ptr %__x.addr.011.i.i.i66
  %__x.addr.1.in.i.i.i86 = select i1 %cmp.i.i.i.i.i82, ptr %_M_right.i.i.i.i83, ptr %_M_left.i.i.i.i84
  %__x.addr.1.i.i.i87 = load ptr, ptr %__x.addr.1.in.i.i.i86, align 8, !tbaa !26
  %cmp.not.i.i.i88 = icmp eq ptr %__x.addr.1.i.i.i87, null
  br i1 %cmp.not.i.i.i88, label %_ZNSt8_Rb_treeINSt7__cxx1112basic_stringIcSt11char_traitsIcESaIcEEESt4pairIKS5_N9benchmark7CounterEESt10_Select1stISA_ESt4lessIS5_ESaISA_EE14_M_lower_boundEPSt13_Rb_tree_nodeISA_EPSt18_Rb_tree_node_baseRS7_.exit.i.i, label %while.body.i.i.i71, !llvm.loop !30

_ZNSt8_Rb_treeINSt7__cxx1112basic_stringIcSt11char_traitsIcESaIcEEESt4pairIKS5_N9benchmark7CounterEESt10_Select1stISA_ESt4lessIS5_ESaISA_EE14_M_lower_boundEPSt13_Rb_tree_nodeISA_EPSt18_Rb_tree_node_baseRS7_.exit.i.i: ; preds = %_ZNKSt4lessINSt7__cxx1112basic_stringIcSt11char_traitsIcESaIcEEEEclERKS5_S8_.exit.i.i.i89
  %cmp.i.i.i90 = icmp eq ptr %__y.addr.1.i.i.i85, %add.ptr.i.i
  br i1 %cmp.i.i.i90, label %if.then36, label %lor.lhs.false.i.i94

lor.lhs.false.i.i94:                              ; preds = %_ZNSt8_Rb_treeINSt7__cxx1112basic_stringIcSt11char_traitsIcESaIcEEESt4pairIKS5_N9benchmark7CounterEESt10_Select1stISA_ESt4lessIS5_ESaISA_EE14_M_lower_boundEPSt13_Rb_tree_nodeISA_EPSt18_Rb_tree_node_baseRS7_.exit.i.i
  %_M_string_length.i10.i.i.i.i.i91 = getelementptr inbounds %"struct.std::_Rb_tree_node", ptr %__y.addr.1.i.i.i85, i64 0, i32 1, i32 0, i64 8
  %16 = load i64, ptr %_M_string_length.i10.i.i.i.i.i91, align 8, !tbaa !24
  %.sroa.speculated.i.i.i.i.i92 = tail call i64 @llvm.umin.i64(i64 %12, i64 %16)
  %cmp.i11.i.i.i.i.i93 = icmp eq i64 %.sroa.speculated.i.i.i.i.i92, 0
  br i1 %cmp.i11.i.i.i.i.i93, label %if.then.i.i.i.i.i103, label %_ZNSt11char_traitsIcE7compareEPKcS2_m.exit.i.i.i.i.i98

_ZNSt11char_traitsIcE7compareEPKcS2_m.exit.i.i.i.i.i98: ; preds = %lor.lhs.false.i.i94
  %_M_storage.i.i.i14.i.i95 = getelementptr inbounds %"struct.std::_Rb_tree_node", ptr %__y.addr.1.i.i.i85, i64 0, i32 1
  %17 = load ptr, ptr %_M_storage.i.i.i14.i.i95, align 8, !tbaa !25
  %call.i.i.i.i.i.i96 = tail call i32 @memcmp(ptr noundef %13, ptr noundef %17, i64 noundef %.sroa.speculated.i.i.i.i.i92) #16
  %tobool.not.i.i.i.i.i97 = icmp eq i32 %call.i.i.i.i.i.i96, 0
  br i1 %tobool.not.i.i.i.i.i97, label %if.then.i.i.i.i.i103, label %_ZNSt3mapINSt7__cxx1112basic_stringIcSt11char_traitsIcESaIcEEEN9benchmark7CounterESt4lessIS5_ESaISt4pairIKS5_S7_EEE4findERSB_.exit

if.then.i.i.i.i.i103:                             ; preds = %_ZNSt11char_traitsIcE7compareEPKcS2_m.exit.i.i.i.i.i98, %lor.lhs.false.i.i94
  %sub.i.i.i.i.i.i99 = sub i64 %12, %16
  %spec.select6.i.i.i.i.i.i100 = tail call i64 @llvm.smax.i64(i64 %sub.i.i.i.i.i.i99, i64 -2147483648)
  %retval.07.i.i.i.i.i.i101 = tail call i64 @llvm.smin.i64(i64 %spec.select6.i.i.i.i.i.i100, i64 2147483647)
  %retval.0.i12.i.i.i.i.i102 = trunc i64 %retval.07.i.i.i.i.i.i101 to i32
  br label %_ZNSt3mapINSt7__cxx1112basic_stringIcSt11char_traitsIcESaIcEEEN9benchmark7CounterESt4lessIS5_ESaISt4pairIKS5_S7_EEE4findERSB_.exit

_ZNSt3mapINSt7__cxx1112basic_stringIcSt11char_traitsIcESaIcEEEN9benchmark7CounterESt4lessIS5_ESaISt4pairIKS5_S7_EEE4findERSB_.exit: ; preds = %_ZNSt11char_traitsIcE7compareEPKcS2_m.exit.i.i.i.i.i98, %if.then.i.i.i.i.i103
  %__r.0.i.i.i.i.i104 = phi i32 [ %call.i.i.i.i.i.i96, %_ZNSt11char_traitsIcE7compareEPKcS2_m.exit.i.i.i.i.i98 ], [ %retval.0.i12.i.i.i.i.i102, %if.then.i.i.i.i.i103 ]
  %cmp.i.i.i.i105 = icmp slt i32 %__r.0.i.i.i.i.i104, 0
  br i1 %cmp.i.i.i.i105, label %if.then36, label %if.end40

if.then36:                                        ; preds = %for.body26, %_ZNSt8_Rb_treeINSt7__cxx1112basic_stringIcSt11char_traitsIcESaIcEEESt4pairIKS5_N9benchmark7CounterEESt10_Select1stISA_ESt4lessIS5_ESaISA_EE14_M_lower_boundEPSt13_Rb_tree_nodeISA_EPSt18_Rb_tree_node_baseRS7_.exit.i.i, %_ZNSt3mapINSt7__cxx1112basic_stringIcSt11char_traitsIcESaIcEEEN9benchmark7CounterESt4lessIS5_ESaISt4pairIKS5_S7_EEE4findERSB_.exit
  %second37 = getelementptr inbounds %"struct.std::_Rb_tree_node", ptr %__begin217.sroa.0.0124, i64 0, i32 1, i32 0, i64 32
  %call39 = tail call noundef nonnull align 8 dereferenceable(16) ptr @_ZNSt3mapINSt7__cxx1112basic_stringIcSt11char_traitsIcESaIcEEEN9benchmark7CounterESt4lessIS5_ESaISt4pairIKS5_S7_EEEixERSB_(ptr noundef nonnull align 8 dereferenceable(48) %l, ptr noundef nonnull align 8 dereferenceable(32) %_M_storage.i.i61)
  tail call void @llvm.memcpy.p0.p0.i64(ptr noundef nonnull align 8 dereferenceable(16) %call39, ptr noundef nonnull align 8 dereferenceable(16) %second37, i64 16, i1 false), !tbaa.struct !31
  br label %if.end40

if.end40:                                         ; preds = %if.then36, %_ZNSt3mapINSt7__cxx1112basic_stringIcSt11char_traitsIcESaIcEEEN9benchmark7CounterESt4lessIS5_ESaISt4pairIKS5_S7_EEE4findERSB_.exit
  %call.i111 = tail call noundef ptr @_ZSt18_Rb_tree_incrementPKSt18_Rb_tree_node_base(ptr noundef %__begin217.sroa.0.0124) #15
  %cmp.i60.not = icmp eq ptr %call.i111, %add.ptr.i.i56
  br i1 %cmp.i60.not, label %for.cond.cleanup25, label %for.body26
}

; Function Attrs: uwtable
define linkonce_odr hidden noundef nonnull align 8 dereferenceable(16) ptr @_ZNSt3mapINSt7__cxx1112basic_stringIcSt11char_traitsIcESaIcEEEN9benchmark7CounterESt4lessIS5_ESaISt4pairIKS5_S7_EEEixERSB_(ptr noundef nonnull align 8 dereferenceable(48) %this, ptr noundef nonnull align 8 dereferenceable(32) %__k) local_unnamed_addr #4 comdat align 2 personality ptr @__gxx_personality_v0 {
entry:
  %ref.tmp9 = alloca %"class.std::tuple", align 8
  %ref.tmp10 = alloca %"class.std::tuple.3", align 1
  %_M_parent.i.i.i.i = getelementptr inbounds i8, ptr %this, i64 16
  %0 = load ptr, ptr %_M_parent.i.i.i.i, align 8, !tbaa !23
  %add.ptr.i.i.i = getelementptr inbounds i8, ptr %this, i64 8
  %cmp.not9.i.i.i = icmp eq ptr %0, null
  br i1 %cmp.not9.i.i.i, label %if.then, label %while.body.lr.ph.i.i.i

while.body.lr.ph.i.i.i:                           ; preds = %entry
  %_M_string_length.i10.i.i.i.i.i.i = getelementptr inbounds %"class.std::__cxx11::basic_string", ptr %__k, i64 0, i32 1
  %1 = load i64, ptr %_M_string_length.i10.i.i.i.i.i.i, align 8, !tbaa !24
  %2 = load ptr, ptr %__k, align 8
  br label %while.body.i.i.i

while.body.i.i.i:                                 ; preds = %_ZNKSt4lessINSt7__cxx1112basic_stringIcSt11char_traitsIcESaIcEEEEclERKS5_S8_.exit.i.i.i, %while.body.lr.ph.i.i.i
  %__x.addr.011.i.i.i = phi ptr [ %0, %while.body.lr.ph.i.i.i ], [ %__x.addr.1.i.i.i, %_ZNKSt4lessINSt7__cxx1112basic_stringIcSt11char_traitsIcESaIcEEEEclERKS5_S8_.exit.i.i.i ]
  %__y.addr.010.i.i.i = phi ptr [ %add.ptr.i.i.i, %while.body.lr.ph.i.i.i ], [ %__y.addr.1.i.i.i, %_ZNKSt4lessINSt7__cxx1112basic_stringIcSt11char_traitsIcESaIcEEEEclERKS5_S8_.exit.i.i.i ]
  %_M_string_length.i.i.i.i.i.i.i = getelementptr inbounds %"struct.std::_Rb_tree_node", ptr %__x.addr.011.i.i.i, i64 0, i32 1, i32 0, i64 8
  %3 = load i64, ptr %_M_string_length.i.i.i.i.i.i.i, align 8, !tbaa !24
  %.sroa.speculated.i.i.i.i.i.i = tail call i64 @llvm.umin.i64(i64 %3, i64 %1)
  %cmp.i11.i.i.i.i.i.i = icmp eq i64 %.sroa.speculated.i.i.i.i.i.i, 0
  br i1 %cmp.i11.i.i.i.i.i.i, label %if.then.i.i.i.i.i.i, label %_ZNSt11char_traitsIcE7compareEPKcS2_m.exit.i.i.i.i.i.i

_ZNSt11char_traitsIcE7compareEPKcS2_m.exit.i.i.i.i.i.i: ; preds = %while.body.i.i.i
  %_M_storage.i.i.i.i.i = getelementptr inbounds %"struct.std::_Rb_tree_node", ptr %__x.addr.011.i.i.i, i64 0, i32 1
  %4 = load ptr, ptr %_M_storage.i.i.i.i.i, align 8, !tbaa !25
  %call.i.i.i.i.i.i.i = tail call i32 @memcmp(ptr noundef %4, ptr noundef %2, i64 noundef %.sroa.speculated.i.i.i.i.i.i) #16
  %tobool.not.i.i.i.i.i.i = icmp eq i32 %call.i.i.i.i.i.i.i, 0
  br i1 %tobool.not.i.i.i.i.i.i, label %if.then.i.i.i.i.i.i, label %_ZNKSt4lessINSt7__cxx1112basic_stringIcSt11char_traitsIcESaIcEEEEclERKS5_S8_.exit.i.i.i

if.then.i.i.i.i.i.i:                              ; preds = %_ZNSt11char_traitsIcE7compareEPKcS2_m.exit.i.i.i.i.i.i, %while.body.i.i.i
  %sub.i.i.i.i.i.i.i = sub i64 %3, %1
  %spec.select6.i.i.i.i.i.i.i = tail call i64 @llvm.smax.i64(i64 %sub.i.i.i.i.i.i.i, i64 -2147483648)
  %retval.07.i.i.i.i.i.i.i = tail call i64 @llvm.smin.i64(i64 %spec.select6.i.i.i.i.i.i.i, i64 2147483647)
  %retval.0.i12.i.i.i.i.i.i = trunc i64 %retval.07.i.i.i.i.i.i.i to i32
  br label %_ZNKSt4lessINSt7__cxx1112basic_stringIcSt11char_traitsIcESaIcEEEEclERKS5_S8_.exit.i.i.i

_ZNKSt4lessINSt7__cxx1112basic_stringIcSt11char_traitsIcESaIcEEEEclERKS5_S8_.exit.i.i.i: ; preds = %if.then.i.i.i.i.i.i, %_ZNSt11char_traitsIcE7compareEPKcS2_m.exit.i.i.i.i.i.i
  %__r.0.i.i.i.i.i.i = phi i32 [ %call.i.i.i.i.i.i.i, %_ZNSt11char_traitsIcE7compareEPKcS2_m.exit.i.i.i.i.i.i ], [ %retval.0.i12.i.i.i.i.i.i, %if.then.i.i.i.i.i.i ]
  %cmp.i.i.i.i.i = icmp slt i32 %__r.0.i.i.i.i.i.i, 0
  %_M_right.i.i.i.i = getelementptr inbounds %"struct.std::_Rb_tree_node_base", ptr %__x.addr.011.i.i.i, i64 0, i32 3
  %_M_left.i.i.i.i = getelementptr inbounds %"struct.std::_Rb_tree_node_base", ptr %__x.addr.011.i.i.i, i64 0, i32 2
  %__y.addr.1.i.i.i = select i1 %cmp.i.i.i.i.i, ptr %__y.addr.010.i.i.i, ptr %__x.addr.011.i.i.i
  %__x.addr.1.in.i.i.i = select i1 %cmp.i.i.i.i.i, ptr %_M_right.i.i.i.i, ptr %_M_left.i.i.i.i
  %__x.addr.1.i.i.i = load ptr, ptr %__x.addr.1.in.i.i.i, align 8, !tbaa !26
  %cmp.not.i.i.i = icmp eq ptr %__x.addr.1.i.i.i, null
  br i1 %cmp.not.i.i.i, label %_ZNSt3mapINSt7__cxx1112basic_stringIcSt11char_traitsIcESaIcEEEN9benchmark7CounterESt4lessIS5_ESaISt4pairIKS5_S7_EEE11lower_boundERSB_.exit, label %while.body.i.i.i, !llvm.loop !30

_ZNSt3mapINSt7__cxx1112basic_stringIcSt11char_traitsIcESaIcEEEN9benchmark7CounterESt4lessIS5_ESaISt4pairIKS5_S7_EEE11lower_boundERSB_.exit: ; preds = %_ZNKSt4lessINSt7__cxx1112basic_stringIcSt11char_traitsIcESaIcEEEEclERKS5_S8_.exit.i.i.i
  %cmp.i = icmp eq ptr %__y.addr.1.i.i.i, %add.ptr.i.i.i
  br i1 %cmp.i, label %if.then, label %lor.rhs

lor.rhs:                                          ; preds = %_ZNSt3mapINSt7__cxx1112basic_stringIcSt11char_traitsIcESaIcEEEN9benchmark7CounterESt4lessIS5_ESaISt4pairIKS5_S7_EEE11lower_boundERSB_.exit
  %_M_string_length.i10.i.i.i = getelementptr inbounds %"struct.std::_Rb_tree_node", ptr %__y.addr.1.i.i.i, i64 0, i32 1, i32 0, i64 8
  %5 = load i64, ptr %_M_string_length.i10.i.i.i, align 8, !tbaa !24
  %.sroa.speculated.i.i.i = tail call i64 @llvm.umin.i64(i64 %1, i64 %5)
  %cmp.i11.i.i.i = icmp eq i64 %.sroa.speculated.i.i.i, 0
  br i1 %cmp.i11.i.i.i, label %if.then.i.i.i, label %_ZNSt11char_traitsIcE7compareEPKcS2_m.exit.i.i.i

_ZNSt11char_traitsIcE7compareEPKcS2_m.exit.i.i.i: ; preds = %lor.rhs
  %_M_storage.i.i = getelementptr inbounds %"struct.std::_Rb_tree_node", ptr %__y.addr.1.i.i.i, i64 0, i32 1
  %6 = load ptr, ptr %_M_storage.i.i, align 8, !tbaa !25
  %call.i.i.i.i = tail call i32 @memcmp(ptr noundef %2, ptr noundef %6, i64 noundef %.sroa.speculated.i.i.i) #16
  %tobool.not.i.i.i = icmp eq i32 %call.i.i.i.i, 0
  br i1 %tobool.not.i.i.i, label %if.then.i.i.i, label %_ZNKSt4lessINSt7__cxx1112basic_stringIcSt11char_traitsIcESaIcEEEEclERKS5_S8_.exit

if.then.i.i.i:                                    ; preds = %_ZNSt11char_traitsIcE7compareEPKcS2_m.exit.i.i.i, %lor.rhs
  %sub.i.i.i.i = sub i64 %1, %5
  %spec.select6.i.i.i.i = tail call i64 @llvm.smax.i64(i64 %sub.i.i.i.i, i64 -2147483648)
  %retval.07.i.i.i.i = tail call i64 @llvm.smin.i64(i64 %spec.select6.i.i.i.i, i64 2147483647)
  %retval.0.i12.i.i.i = trunc i64 %retval.07.i.i.i.i to i32
  br label %_ZNKSt4lessINSt7__cxx1112basic_stringIcSt11char_traitsIcESaIcEEEEclERKS5_S8_.exit

_ZNKSt4lessINSt7__cxx1112basic_stringIcSt11char_traitsIcESaIcEEEEclERKS5_S8_.exit: ; preds = %_ZNSt11char_traitsIcE7compareEPKcS2_m.exit.i.i.i, %if.then.i.i.i
  %__r.0.i.i.i = phi i32 [ %call.i.i.i.i, %_ZNSt11char_traitsIcE7compareEPKcS2_m.exit.i.i.i ], [ %retval.0.i12.i.i.i, %if.then.i.i.i ]
  %cmp.i.i = icmp slt i32 %__r.0.i.i.i, 0
  br i1 %cmp.i.i, label %if.then, label %if.end

if.then:                                          ; preds = %entry, %_ZNSt3mapINSt7__cxx1112basic_stringIcSt11char_traitsIcESaIcEEEN9benchmark7CounterESt4lessIS5_ESaISt4pairIKS5_S7_EEE11lower_boundERSB_.exit, %_ZNKSt4lessINSt7__cxx1112basic_stringIcSt11char_traitsIcESaIcEEEEclERKS5_S8_.exit
  %__y.addr.0.lcssa.i.i.i23 = phi ptr [ %add.ptr.i.i.i, %_ZNSt3mapINSt7__cxx1112basic_stringIcSt11char_traitsIcESaIcEEEN9benchmark7CounterESt4lessIS5_ESaISt4pairIKS5_S7_EEE11lower_boundERSB_.exit ], [ %__y.addr.1.i.i.i, %_ZNKSt4lessINSt7__cxx1112basic_stringIcSt11char_traitsIcESaIcEEEEclERKS5_S8_.exit ], [ %add.ptr.i.i.i, %entry ]
  call void @llvm.lifetime.start.p0(i64 8, ptr nonnull %ref.tmp9) #16
  store ptr %__k, ptr %ref.tmp9, align 8, !tbaa !26
  call void @llvm.lifetime.start.p0(i64 1, ptr nonnull %ref.tmp10) #16
  %call12 = call ptr @_ZNSt8_Rb_treeINSt7__cxx1112basic_stringIcSt11char_traitsIcESaIcEEESt4pairIKS5_N9benchmark7CounterEESt10_Select1stISA_ESt4lessIS5_ESaISA_EE22_M_emplace_hint_uniqueIJRKSt21piecewise_construct_tSt5tupleIJRS7_EESL_IJEEEEESt17_Rb_tree_iteratorISA_ESt23_Rb_tree_const_iteratorISA_EDpOT_(ptr noundef nonnull align 8 dereferenceable(48) %this, ptr %__y.addr.0.lcssa.i.i.i23, ptr noundef nonnull align 1 dereferenceable(1) @_ZStL19piecewise_construct, ptr noundef nonnull align 8 dereferenceable(8) %ref.tmp9, ptr noundef nonnull align 1 dereferenceable(1) %ref.tmp10)
  call void @llvm.lifetime.end.p0(i64 1, ptr nonnull %ref.tmp10) #16
  call void @llvm.lifetime.end.p0(i64 8, ptr nonnull %ref.tmp9) #16
  br label %if.end

if.end:                                           ; preds = %if.then, %_ZNKSt4lessINSt7__cxx1112basic_stringIcSt11char_traitsIcESaIcEEEEclERKS5_S8_.exit
  %__i.sroa.0.0 = phi ptr [ %call12, %if.then ], [ %__y.addr.1.i.i.i, %_ZNKSt4lessINSt7__cxx1112basic_stringIcSt11char_traitsIcESaIcEEEEclERKS5_S8_.exit ]
  %second = getelementptr inbounds %"struct.std::_Rb_tree_node", ptr %__i.sroa.0.0, i64 0, i32 1, i32 0, i64 32
  ret ptr %second
}

; Function Attrs: mustprogress nocallback nofree nounwind willreturn memory(argmem: readwrite)
declare void @llvm.memcpy.p0.p0.i64(ptr noalias nocapture writeonly, ptr noalias nocapture readonly, i64, i1 immarg) #5

; Function Attrs: nofree nounwind memory(read) uwtable
define hidden noundef zeroext i1 @_ZN9benchmark8internal9SameNamesERKSt3mapINSt7__cxx1112basic_stringIcSt11char_traitsIcESaIcEEENS_7CounterESt4lessIS7_ESaISt4pairIKS7_S8_EEESH_(ptr noundef nonnull readonly align 8 dereferenceable(48) %l, ptr noundef nonnull readonly align 8 dereferenceable(48) %r) local_unnamed_addr #6 personality ptr @__gxx_personality_v0 {
entry:
  %cmp = icmp eq ptr %l, %r
  br i1 %cmp, label %return, label %if.end

if.end:                                           ; preds = %entry
  %_M_node_count.i.i = getelementptr inbounds i8, ptr %l, i64 40
  %0 = load i64, ptr %_M_node_count.i.i, align 8, !tbaa !34
  %_M_node_count.i.i30 = getelementptr inbounds i8, ptr %r, i64 40
  %1 = load i64, ptr %_M_node_count.i.i30, align 8, !tbaa !34
  %cmp2.not = icmp eq i64 %0, %1
  br i1 %cmp2.not, label %if.end4, label %return

if.end4:                                          ; preds = %if.end
  %_M_left.i.i = getelementptr inbounds i8, ptr %l, i64 24
  %2 = load ptr, ptr %_M_left.i.i, align 8, !tbaa !13
  %add.ptr.i.i = getelementptr inbounds i8, ptr %l, i64 8
  %cmp.i.not37 = icmp eq ptr %2, %add.ptr.i.i
  br i1 %cmp.i.not37, label %return, label %for.body.lr.ph

for.body.lr.ph:                                   ; preds = %if.end4
  %_M_parent.i.i.i = getelementptr inbounds i8, ptr %r, i64 16
  %3 = load ptr, ptr %_M_parent.i.i.i, align 8, !tbaa !23
  %add.ptr.i.i.i = getelementptr inbounds i8, ptr %r, i64 8
  %cmp.not9.i.i.i = icmp eq ptr %3, null
  br i1 %cmp.not9.i.i.i, label %return, label %for.body

for.body:                                         ; preds = %for.body.lr.ph, %for.inc
  %__begin2.sroa.0.038 = phi ptr [ %call.i, %for.inc ], [ %2, %for.body.lr.ph ]
  %_M_storage.i.i = getelementptr inbounds %"struct.std::_Rb_tree_node", ptr %__begin2.sroa.0.038, i64 0, i32 1
  %_M_string_length.i10.i.i.i.i.i.i = getelementptr inbounds %"struct.std::_Rb_tree_node", ptr %__begin2.sroa.0.038, i64 0, i32 1, i32 0, i64 8
  %4 = load i64, ptr %_M_string_length.i10.i.i.i.i.i.i, align 8, !tbaa !24
  %5 = load ptr, ptr %_M_storage.i.i, align 8
  br label %while.body.i.i.i

while.body.i.i.i:                                 ; preds = %_ZNKSt4lessINSt7__cxx1112basic_stringIcSt11char_traitsIcESaIcEEEEclERKS5_S8_.exit.i.i.i, %for.body
  %__x.addr.011.i.i.i = phi ptr [ %3, %for.body ], [ %__x.addr.1.i.i.i, %_ZNKSt4lessINSt7__cxx1112basic_stringIcSt11char_traitsIcESaIcEEEEclERKS5_S8_.exit.i.i.i ]
  %__y.addr.010.i.i.i = phi ptr [ %add.ptr.i.i.i, %for.body ], [ %__y.addr.1.i.i.i, %_ZNKSt4lessINSt7__cxx1112basic_stringIcSt11char_traitsIcESaIcEEEEclERKS5_S8_.exit.i.i.i ]
  %_M_string_length.i.i.i.i.i.i.i = getelementptr inbounds %"struct.std::_Rb_tree_node", ptr %__x.addr.011.i.i.i, i64 0, i32 1, i32 0, i64 8
  %6 = load i64, ptr %_M_string_length.i.i.i.i.i.i.i, align 8, !tbaa !24
  %.sroa.speculated.i.i.i.i.i.i = tail call i64 @llvm.umin.i64(i64 %6, i64 %4)
  %cmp.i11.i.i.i.i.i.i = icmp eq i64 %.sroa.speculated.i.i.i.i.i.i, 0
  br i1 %cmp.i11.i.i.i.i.i.i, label %if.then.i.i.i.i.i.i, label %_ZNSt11char_traitsIcE7compareEPKcS2_m.exit.i.i.i.i.i.i

_ZNSt11char_traitsIcE7compareEPKcS2_m.exit.i.i.i.i.i.i: ; preds = %while.body.i.i.i
  %_M_storage.i.i.i.i.i = getelementptr inbounds %"struct.std::_Rb_tree_node", ptr %__x.addr.011.i.i.i, i64 0, i32 1
  %7 = load ptr, ptr %_M_storage.i.i.i.i.i, align 8, !tbaa !25
  %call.i.i.i.i.i.i.i = tail call i32 @memcmp(ptr noundef %7, ptr noundef %5, i64 noundef %.sroa.speculated.i.i.i.i.i.i) #16
  %tobool.not.i.i.i.i.i.i = icmp eq i32 %call.i.i.i.i.i.i.i, 0
  br i1 %tobool.not.i.i.i.i.i.i, label %if.then.i.i.i.i.i.i, label %_ZNKSt4lessINSt7__cxx1112basic_stringIcSt11char_traitsIcESaIcEEEEclERKS5_S8_.exit.i.i.i

if.then.i.i.i.i.i.i:                              ; preds = %_ZNSt11char_traitsIcE7compareEPKcS2_m.exit.i.i.i.i.i.i, %while.body.i.i.i
  %sub.i.i.i.i.i.i.i = sub i64 %6, %4
  %spec.select6.i.i.i.i.i.i.i = tail call i64 @llvm.smax.i64(i64 %sub.i.i.i.i.i.i.i, i64 -2147483648)
  %retval.07.i.i.i.i.i.i.i = tail call i64 @llvm.smin.i64(i64 %spec.select6.i.i.i.i.i.i.i, i64 2147483647)
  %retval.0.i12.i.i.i.i.i.i = trunc i64 %retval.07.i.i.i.i.i.i.i to i32
  br label %_ZNKSt4lessINSt7__cxx1112basic_stringIcSt11char_traitsIcESaIcEEEEclERKS5_S8_.exit.i.i.i

_ZNKSt4lessINSt7__cxx1112basic_stringIcSt11char_traitsIcESaIcEEEEclERKS5_S8_.exit.i.i.i: ; preds = %if.then.i.i.i.i.i.i, %_ZNSt11char_traitsIcE7compareEPKcS2_m.exit.i.i.i.i.i.i
  %__r.0.i.i.i.i.i.i = phi i32 [ %call.i.i.i.i.i.i.i, %_ZNSt11char_traitsIcE7compareEPKcS2_m.exit.i.i.i.i.i.i ], [ %retval.0.i12.i.i.i.i.i.i, %if.then.i.i.i.i.i.i ]
  %cmp.i.i.i.i.i = icmp slt i32 %__r.0.i.i.i.i.i.i, 0
  %_M_right.i.i.i.i = getelementptr inbounds %"struct.std::_Rb_tree_node_base", ptr %__x.addr.011.i.i.i, i64 0, i32 3
  %_M_left.i.i.i.i = getelementptr inbounds %"struct.std::_Rb_tree_node_base", ptr %__x.addr.011.i.i.i, i64 0, i32 2
  %__y.addr.1.i.i.i = select i1 %cmp.i.i.i.i.i, ptr %__y.addr.010.i.i.i, ptr %__x.addr.011.i.i.i
  %__x.addr.1.in.i.i.i = select i1 %cmp.i.i.i.i.i, ptr %_M_right.i.i.i.i, ptr %_M_left.i.i.i.i
  %__x.addr.1.i.i.i = load ptr, ptr %__x.addr.1.in.i.i.i, align 8, !tbaa !26
  %cmp.not.i.i.i = icmp eq ptr %__x.addr.1.i.i.i, null
  br i1 %cmp.not.i.i.i, label %_ZNKSt8_Rb_treeINSt7__cxx1112basic_stringIcSt11char_traitsIcESaIcEEESt4pairIKS5_N9benchmark7CounterEESt10_Select1stISA_ESt4lessIS5_ESaISA_EE14_M_lower_boundEPKSt13_Rb_tree_nodeISA_EPKSt18_Rb_tree_node_baseRS7_.exit.i.i, label %while.body.i.i.i, !llvm.loop !27

_ZNKSt8_Rb_treeINSt7__cxx1112basic_stringIcSt11char_traitsIcESaIcEEESt4pairIKS5_N9benchmark7CounterEESt10_Select1stISA_ESt4lessIS5_ESaISA_EE14_M_lower_boundEPKSt13_Rb_tree_nodeISA_EPKSt18_Rb_tree_node_baseRS7_.exit.i.i: ; preds = %_ZNKSt4lessINSt7__cxx1112basic_stringIcSt11char_traitsIcESaIcEEEEclERKS5_S8_.exit.i.i.i
  %cmp.i.i.i = icmp eq ptr %__y.addr.1.i.i.i, %add.ptr.i.i.i
  br i1 %cmp.i.i.i, label %return, label %lor.lhs.false.i.i

lor.lhs.false.i.i:                                ; preds = %_ZNKSt8_Rb_treeINSt7__cxx1112basic_stringIcSt11char_traitsIcESaIcEEESt4pairIKS5_N9benchmark7CounterEESt10_Select1stISA_ESt4lessIS5_ESaISA_EE14_M_lower_boundEPKSt13_Rb_tree_nodeISA_EPKSt18_Rb_tree_node_baseRS7_.exit.i.i
  %_M_string_length.i10.i.i.i.i.i = getelementptr inbounds %"struct.std::_Rb_tree_node", ptr %__y.addr.1.i.i.i, i64 0, i32 1, i32 0, i64 8
  %8 = load i64, ptr %_M_string_length.i10.i.i.i.i.i, align 8, !tbaa !24
  %.sroa.speculated.i.i.i.i.i = tail call i64 @llvm.umin.i64(i64 %4, i64 %8)
  %cmp.i11.i.i.i.i.i = icmp eq i64 %.sroa.speculated.i.i.i.i.i, 0
  br i1 %cmp.i11.i.i.i.i.i, label %if.then.i.i.i.i.i, label %_ZNSt11char_traitsIcE7compareEPKcS2_m.exit.i.i.i.i.i

_ZNSt11char_traitsIcE7compareEPKcS2_m.exit.i.i.i.i.i: ; preds = %lor.lhs.false.i.i
  %_M_storage.i.i.i14.i.i = getelementptr inbounds %"struct.std::_Rb_tree_node", ptr %__y.addr.1.i.i.i, i64 0, i32 1
  %9 = load ptr, ptr %_M_storage.i.i.i14.i.i, align 8, !tbaa !25
  %call.i.i.i.i.i.i = tail call i32 @memcmp(ptr noundef %5, ptr noundef %9, i64 noundef %.sroa.speculated.i.i.i.i.i) #16
  %tobool.not.i.i.i.i.i = icmp eq i32 %call.i.i.i.i.i.i, 0
  br i1 %tobool.not.i.i.i.i.i, label %if.then.i.i.i.i.i, label %_ZNKSt3mapINSt7__cxx1112basic_stringIcSt11char_traitsIcESaIcEEEN9benchmark7CounterESt4lessIS5_ESaISt4pairIKS5_S7_EEE4findERSB_.exit

if.then.i.i.i.i.i:                                ; preds = %_ZNSt11char_traitsIcE7compareEPKcS2_m.exit.i.i.i.i.i, %lor.lhs.false.i.i
  %sub.i.i.i.i.i.i = sub i64 %4, %8
  %spec.select6.i.i.i.i.i.i = tail call i64 @llvm.smax.i64(i64 %sub.i.i.i.i.i.i, i64 -2147483648)
  %retval.07.i.i.i.i.i.i = tail call i64 @llvm.smin.i64(i64 %spec.select6.i.i.i.i.i.i, i64 2147483647)
  %retval.0.i12.i.i.i.i.i = trunc i64 %retval.07.i.i.i.i.i.i to i32
  br label %_ZNKSt3mapINSt7__cxx1112basic_stringIcSt11char_traitsIcESaIcEEEN9benchmark7CounterESt4lessIS5_ESaISt4pairIKS5_S7_EEE4findERSB_.exit

_ZNKSt3mapINSt7__cxx1112basic_stringIcSt11char_traitsIcESaIcEEEN9benchmark7CounterESt4lessIS5_ESaISt4pairIKS5_S7_EEE4findERSB_.exit: ; preds = %_ZNSt11char_traitsIcE7compareEPKcS2_m.exit.i.i.i.i.i, %if.then.i.i.i.i.i
  %__r.0.i.i.i.i.i = phi i32 [ %call.i.i.i.i.i.i, %_ZNSt11char_traitsIcE7compareEPKcS2_m.exit.i.i.i.i.i ], [ %retval.0.i12.i.i.i.i.i, %if.then.i.i.i.i.i ]
  %cmp.i.i.i.i = icmp slt i32 %__r.0.i.i.i.i.i, 0
  br i1 %cmp.i.i.i.i, label %return, label %for.inc

for.inc:                                          ; preds = %_ZNKSt3mapINSt7__cxx1112basic_stringIcSt11char_traitsIcESaIcEEEN9benchmark7CounterESt4lessIS5_ESaISt4pairIKS5_S7_EEE4findERSB_.exit
  %call.i = tail call noundef ptr @_ZSt18_Rb_tree_incrementPKSt18_Rb_tree_node_base(ptr noundef %__begin2.sroa.0.038) #15
  %cmp.i.not = icmp eq ptr %call.i, %add.ptr.i.i
  br i1 %cmp.i.not, label %return, label %for.body

return:                                           ; preds = %_ZNKSt8_Rb_treeINSt7__cxx1112basic_stringIcSt11char_traitsIcESaIcEEESt4pairIKS5_N9benchmark7CounterEESt10_Select1stISA_ESt4lessIS5_ESaISA_EE14_M_lower_boundEPKSt13_Rb_tree_nodeISA_EPKSt18_Rb_tree_node_baseRS7_.exit.i.i, %for.inc, %_ZNKSt3mapINSt7__cxx1112basic_stringIcSt11char_traitsIcESaIcEEEN9benchmark7CounterESt4lessIS5_ESaISt4pairIKS5_S7_EEE4findERSB_.exit, %if.end4, %for.body.lr.ph, %if.end, %entry
  %retval.3 = phi i1 [ true, %entry ], [ false, %if.end ], [ false, %for.body.lr.ph ], [ true, %if.end4 ], [ false, %_ZNKSt3mapINSt7__cxx1112basic_stringIcSt11char_traitsIcESaIcEEEN9benchmark7CounterESt4lessIS5_ESaISt4pairIKS5_S7_EEE4findERSB_.exit ], [ true, %for.inc ], [ false, %_ZNKSt8_Rb_treeINSt7__cxx1112basic_stringIcSt11char_traitsIcESaIcEEESt4pairIKS5_N9benchmark7CounterEESt10_Select1stISA_ESt4lessIS5_ESaISA_EE14_M_lower_boundEPKSt13_Rb_tree_nodeISA_EPKSt18_Rb_tree_node_baseRS7_.exit.i.i ]
  ret i1 %retval.3
}

declare i32 @__gxx_personality_v0(...)

; Function Attrs: noinline noreturn nounwind
define linkonce_odr hidden void @__clang_call_terminate(ptr noundef %0) local_unnamed_addr #7 comdat {
  %2 = tail call ptr @__cxa_begin_catch(ptr %0) #16
  tail call void @_ZSt9terminatev() #17
  unreachable
}

declare ptr @__cxa_begin_catch(ptr) local_unnamed_addr

declare void @_ZSt9terminatev() local_unnamed_addr

; Function Attrs: mustprogress nofree nounwind willreturn memory(argmem: read)
declare i32 @memcmp(ptr nocapture noundef, ptr nocapture noundef, i64 noundef) local_unnamed_addr #8

; Function Attrs: mustprogress nofree nounwind willreturn memory(read)
declare noundef ptr @_ZSt18_Rb_tree_incrementPSt18_Rb_tree_node_base(ptr noundef) local_unnamed_addr #9

; Function Attrs: mustprogress nofree nounwind willreturn memory(read)
declare noundef ptr @_ZSt18_Rb_tree_incrementPKSt18_Rb_tree_node_base(ptr noundef) local_unnamed_addr #9

; Function Attrs: uwtable
define linkonce_odr hidden ptr @_ZNSt8_Rb_treeINSt7__cxx1112basic_stringIcSt11char_traitsIcESaIcEEESt4pairIKS5_N9benchmark7CounterEESt10_Select1stISA_ESt4lessIS5_ESaISA_EE22_M_emplace_hint_uniqueIJRKSt21piecewise_construct_tSt5tupleIJRS7_EESL_IJEEEEESt17_Rb_tree_iteratorISA_ESt23_Rb_tree_const_iteratorISA_EDpOT_(ptr noundef nonnull align 8 dereferenceable(48) %this, ptr %__pos.coerce, ptr noundef nonnull align 1 dereferenceable(1) %__args, ptr noundef nonnull align 8 dereferenceable(8) %__args1, ptr noundef nonnull align 1 dereferenceable(1) %__args3) local_unnamed_addr #4 comdat align 2 personality ptr @__gxx_personality_v0 {
entry:
  %__z = alloca %"struct.std::_Rb_tree<std::__cxx11::basic_string<char>, std::pair<const std::__cxx11::basic_string<char>, benchmark::Counter>, std::_Select1st<std::pair<const std::__cxx11::basic_string<char>, benchmark::Counter>>, std::less<std::__cxx11::basic_string<char>>>::_Auto_node", align 8
  call void @llvm.lifetime.start.p0(i64 16, ptr nonnull %__z) #16
  store ptr %this, ptr %__z, align 8, !tbaa !26
  %_M_node.i = getelementptr inbounds %"struct.std::_Rb_tree<std::__cxx11::basic_string<char>, std::pair<const std::__cxx11::basic_string<char>, benchmark::Counter>, std::_Select1st<std::pair<const std::__cxx11::basic_string<char>, benchmark::Counter>>, std::less<std::__cxx11::basic_string<char>>>::_Auto_node", ptr %__z, i64 0, i32 1
  %call5.i.i.i.i.i = tail call noalias noundef nonnull dereferenceable(80) ptr @_Znwm(i64 noundef 80) #18
  tail call void @_ZNSt8_Rb_treeINSt7__cxx1112basic_stringIcSt11char_traitsIcESaIcEEESt4pairIKS5_N9benchmark7CounterEESt10_Select1stISA_ESt4lessIS5_ESaISA_EE17_M_construct_nodeIJRKSt21piecewise_construct_tSt5tupleIJRS7_EESL_IJEEEEEvPSt13_Rb_tree_nodeISA_EDpOT_(ptr noundef nonnull align 8 dereferenceable(48) %this, ptr noundef nonnull %call5.i.i.i.i.i, ptr noundef nonnull align 1 dereferenceable(1) %__args, ptr noundef nonnull align 8 dereferenceable(8) %__args1, ptr noundef nonnull align 1 dereferenceable(1) %__args3)
  store ptr %call5.i.i.i.i.i, ptr %_M_node.i, align 8, !tbaa !35
  %_M_storage.i.i.i = getelementptr inbounds %"struct.std::_Rb_tree_node", ptr %call5.i.i.i.i.i, i64 0, i32 1
  %call8 = invoke { ptr, ptr } @_ZNSt8_Rb_treeINSt7__cxx1112basic_stringIcSt11char_traitsIcESaIcEEESt4pairIKS5_N9benchmark7CounterEESt10_Select1stISA_ESt4lessIS5_ESaISA_EE29_M_get_insert_hint_unique_posESt23_Rb_tree_const_iteratorISA_ERS7_(ptr noundef nonnull align 8 dereferenceable(48) %this, ptr %__pos.coerce, ptr noundef nonnull align 8 dereferenceable(32) %_M_storage.i.i.i)
          to label %invoke.cont7 unwind label %lpad

invoke.cont7:                                     ; preds = %entry
  %0 = extractvalue { ptr, ptr } %call8, 0
  %1 = extractvalue { ptr, ptr } %call8, 1
  %tobool.not = icmp eq ptr %1, null
  br i1 %tobool.not, label %if.then.i, label %if.then

if.then:                                          ; preds = %invoke.cont7
  %cmp.not.i.i = icmp ne ptr %0, null
  %add.ptr.i.i.i = getelementptr inbounds i8, ptr %this, i64 8
  %cmp2.i.i = icmp eq ptr %add.ptr.i.i.i, %1
  %or.cond.i.i = select i1 %cmp.not.i.i, i1 true, i1 %cmp2.i.i
  br i1 %or.cond.i.i, label %cleanup.thread, label %lor.rhs.i.i

lor.rhs.i.i:                                      ; preds = %if.then
  %_M_string_length.i.i.i.i.i.i = getelementptr inbounds %"struct.std::_Rb_tree_node", ptr %call5.i.i.i.i.i, i64 0, i32 1, i32 0, i64 8
  %2 = load i64, ptr %_M_string_length.i.i.i.i.i.i, align 8, !tbaa !24
  %_M_string_length.i10.i.i.i.i.i = getelementptr inbounds %"struct.std::_Rb_tree_node", ptr %1, i64 0, i32 1, i32 0, i64 8
  %3 = load i64, ptr %_M_string_length.i10.i.i.i.i.i, align 8, !tbaa !24
  %.sroa.speculated.i.i.i.i.i = tail call i64 @llvm.umin.i64(i64 %2, i64 %3)
  %cmp.i11.i.i.i.i.i = icmp eq i64 %.sroa.speculated.i.i.i.i.i, 0
  br i1 %cmp.i11.i.i.i.i.i, label %if.then.i.i.i.i.i, label %_ZNSt11char_traitsIcE7compareEPKcS2_m.exit.i.i.i.i.i

_ZNSt11char_traitsIcE7compareEPKcS2_m.exit.i.i.i.i.i: ; preds = %lor.rhs.i.i
  %_M_storage.i.i.i.i.i = getelementptr inbounds %"struct.std::_Rb_tree_node", ptr %1, i64 0, i32 1
  %4 = load ptr, ptr %_M_storage.i.i.i.i.i, align 8, !tbaa !25
  %5 = load ptr, ptr %_M_storage.i.i.i, align 8, !tbaa !25
  %call.i.i.i.i.i.i = tail call i32 @memcmp(ptr noundef %5, ptr noundef %4, i64 noundef %.sroa.speculated.i.i.i.i.i) #16
  %tobool.not.i.i.i.i.i = icmp eq i32 %call.i.i.i.i.i.i, 0
  br i1 %tobool.not.i.i.i.i.i, label %if.then.i.i.i.i.i, label %_ZNKSt4lessINSt7__cxx1112basic_stringIcSt11char_traitsIcESaIcEEEEclERKS5_S8_.exit.i.i

if.then.i.i.i.i.i:                                ; preds = %_ZNSt11char_traitsIcE7compareEPKcS2_m.exit.i.i.i.i.i, %lor.rhs.i.i
  %sub.i.i.i.i.i.i = sub i64 %2, %3
  %spec.select6.i.i.i.i.i.i = tail call i64 @llvm.smax.i64(i64 %sub.i.i.i.i.i.i, i64 -2147483648)
  %retval.07.i.i.i.i.i.i = tail call i64 @llvm.smin.i64(i64 %spec.select6.i.i.i.i.i.i, i64 2147483647)
  %retval.0.i12.i.i.i.i.i = trunc i64 %retval.07.i.i.i.i.i.i to i32
  br label %_ZNKSt4lessINSt7__cxx1112basic_stringIcSt11char_traitsIcESaIcEEEEclERKS5_S8_.exit.i.i

_ZNKSt4lessINSt7__cxx1112basic_stringIcSt11char_traitsIcESaIcEEEEclERKS5_S8_.exit.i.i: ; preds = %if.then.i.i.i.i.i, %_ZNSt11char_traitsIcE7compareEPKcS2_m.exit.i.i.i.i.i
  %__r.0.i.i.i.i.i = phi i32 [ %call.i.i.i.i.i.i, %_ZNSt11char_traitsIcE7compareEPKcS2_m.exit.i.i.i.i.i ], [ %retval.0.i12.i.i.i.i.i, %if.then.i.i.i.i.i ]
  %cmp.i.i.i.i = icmp slt i32 %__r.0.i.i.i.i.i, 0
  br label %cleanup.thread

cleanup.thread:                                   ; preds = %_ZNKSt4lessINSt7__cxx1112basic_stringIcSt11char_traitsIcESaIcEEEEclERKS5_S8_.exit.i.i, %if.then
  %6 = phi i1 [ true, %if.then ], [ %cmp.i.i.i.i, %_ZNKSt4lessINSt7__cxx1112basic_stringIcSt11char_traitsIcESaIcEEEEclERKS5_S8_.exit.i.i ]
  tail call void @_ZSt29_Rb_tree_insert_and_rebalancebPSt18_Rb_tree_node_baseS0_RS_(i1 noundef zeroext %6, ptr noundef nonnull %call5.i.i.i.i.i, ptr noundef nonnull %1, ptr noundef nonnull align 8 dereferenceable(32) %add.ptr.i.i.i) #16
  %_M_node_count.i.i = getelementptr inbounds i8, ptr %this, i64 40
  %7 = load i64, ptr %_M_node_count.i.i, align 8, !tbaa !34
  %inc.i.i = add i64 %7, 1
  store i64 %inc.i.i, ptr %_M_node_count.i.i, align 8, !tbaa !34
  br label %_ZNSt8_Rb_treeINSt7__cxx1112basic_stringIcSt11char_traitsIcESaIcEEESt4pairIKS5_N9benchmark7CounterEESt10_Select1stISA_ESt4lessIS5_ESaISA_EE10_Auto_nodeD2Ev.exit

lpad:                                             ; preds = %entry
  %8 = landingpad { ptr, i32 }
          cleanup
  call void @_ZNSt8_Rb_treeINSt7__cxx1112basic_stringIcSt11char_traitsIcESaIcEEESt4pairIKS5_N9benchmark7CounterEESt10_Select1stISA_ESt4lessIS5_ESaISA_EE10_Auto_nodeD2Ev(ptr noundef nonnull align 8 dereferenceable(16) %__z) #16
  call void @llvm.lifetime.end.p0(i64 16, ptr nonnull %__z) #16
  resume { ptr, i32 } %8

if.then.i:                                        ; preds = %invoke.cont7
  %9 = load ptr, ptr %_M_storage.i.i.i, align 8, !tbaa !25
  %10 = getelementptr inbounds %"struct.std::_Rb_tree_node", ptr %call5.i.i.i.i.i, i64 0, i32 1, i32 0, i64 16
  %cmp.i.i.i.i.i.i.i.i.i = icmp eq ptr %9, %10
  br i1 %cmp.i.i.i.i.i.i.i.i.i, label %_ZNSt8_Rb_treeINSt7__cxx1112basic_stringIcSt11char_traitsIcESaIcEEESt4pairIKS5_N9benchmark7CounterEESt10_Select1stISA_ESt4lessIS5_ESaISA_EE12_M_drop_nodeEPSt13_Rb_tree_nodeISA_E.exit.i, label %if.then.i.i.i.i.i.i.i.i

if.then.i.i.i.i.i.i.i.i:                          ; preds = %if.then.i
  tail call void @_ZdlPv(ptr noundef %9) #19
  br label %_ZNSt8_Rb_treeINSt7__cxx1112basic_stringIcSt11char_traitsIcESaIcEEESt4pairIKS5_N9benchmark7CounterEESt10_Select1stISA_ESt4lessIS5_ESaISA_EE12_M_drop_nodeEPSt13_Rb_tree_nodeISA_E.exit.i

_ZNSt8_Rb_treeINSt7__cxx1112basic_stringIcSt11char_traitsIcESaIcEEESt4pairIKS5_N9benchmark7CounterEESt10_Select1stISA_ESt4lessIS5_ESaISA_EE12_M_drop_nodeEPSt13_Rb_tree_nodeISA_E.exit.i: ; preds = %if.then.i.i.i.i.i.i.i.i, %if.then.i
  tail call void @_ZdlPv(ptr noundef nonnull %call5.i.i.i.i.i) #19
  br label %_ZNSt8_Rb_treeINSt7__cxx1112basic_stringIcSt11char_traitsIcESaIcEEESt4pairIKS5_N9benchmark7CounterEESt10_Select1stISA_ESt4lessIS5_ESaISA_EE10_Auto_nodeD2Ev.exit

_ZNSt8_Rb_treeINSt7__cxx1112basic_stringIcSt11char_traitsIcESaIcEEESt4pairIKS5_N9benchmark7CounterEESt10_Select1stISA_ESt4lessIS5_ESaISA_EE10_Auto_nodeD2Ev.exit: ; preds = %cleanup.thread, %_ZNSt8_Rb_treeINSt7__cxx1112basic_stringIcSt11char_traitsIcESaIcEEESt4pairIKS5_N9benchmark7CounterEESt10_Select1stISA_ESt4lessIS5_ESaISA_EE12_M_drop_nodeEPSt13_Rb_tree_nodeISA_E.exit.i
  %retval.sroa.0.023 = phi ptr [ %call5.i.i.i.i.i, %cleanup.thread ], [ %0, %_ZNSt8_Rb_treeINSt7__cxx1112basic_stringIcSt11char_traitsIcESaIcEEESt4pairIKS5_N9benchmark7CounterEESt10_Select1stISA_ESt4lessIS5_ESaISA_EE12_M_drop_nodeEPSt13_Rb_tree_nodeISA_E.exit.i ]
  call void @llvm.lifetime.end.p0(i64 16, ptr nonnull %__z) #16
  ret ptr %retval.sroa.0.023
}

; Function Attrs: uwtable
define linkonce_odr hidden { ptr, ptr } @_ZNSt8_Rb_treeINSt7__cxx1112basic_stringIcSt11char_traitsIcESaIcEEESt4pairIKS5_N9benchmark7CounterEESt10_Select1stISA_ESt4lessIS5_ESaISA_EE29_M_get_insert_hint_unique_posESt23_Rb_tree_const_iteratorISA_ERS7_(ptr noundef nonnull align 8 dereferenceable(48) %this, ptr %__position.coerce, ptr noundef nonnull align 8 dereferenceable(32) %__k) local_unnamed_addr #4 comdat align 2 personality ptr @__gxx_personality_v0 {
entry:
  %add.ptr.i = getelementptr inbounds i8, ptr %this, i64 8
  %cmp = icmp eq ptr %add.ptr.i, %__position.coerce
  br i1 %cmp, label %if.then, label %if.else12

if.then:                                          ; preds = %entry
  %_M_node_count.i = getelementptr inbounds i8, ptr %this, i64 40
  %0 = load i64, ptr %_M_node_count.i, align 8, !tbaa !34
  %cmp5.not = icmp eq i64 %0, 0
  br i1 %cmp5.not, label %if.else, label %land.lhs.true

land.lhs.true:                                    ; preds = %if.then
  %_M_right.i = getelementptr inbounds i8, ptr %this, i64 32
  %1 = load ptr, ptr %_M_right.i, align 8, !tbaa !26
  %_M_string_length.i.i.i.i = getelementptr inbounds %"struct.std::_Rb_tree_node", ptr %1, i64 0, i32 1, i32 0, i64 8
  %2 = load i64, ptr %_M_string_length.i.i.i.i, align 8, !tbaa !24
  %_M_string_length.i10.i.i.i = getelementptr inbounds %"class.std::__cxx11::basic_string", ptr %__k, i64 0, i32 1
  %3 = load i64, ptr %_M_string_length.i10.i.i.i, align 8, !tbaa !24
  %.sroa.speculated.i.i.i = tail call i64 @llvm.umin.i64(i64 %2, i64 %3)
  %cmp.i11.i.i.i = icmp eq i64 %.sroa.speculated.i.i.i, 0
  br i1 %cmp.i11.i.i.i, label %if.then.i.i.i, label %_ZNSt11char_traitsIcE7compareEPKcS2_m.exit.i.i.i

_ZNSt11char_traitsIcE7compareEPKcS2_m.exit.i.i.i: ; preds = %land.lhs.true
  %_M_storage.i.i.i = getelementptr inbounds %"struct.std::_Rb_tree_node", ptr %1, i64 0, i32 1
  %4 = load ptr, ptr %__k, align 8, !tbaa !25
  %5 = load ptr, ptr %_M_storage.i.i.i, align 8, !tbaa !25
  %call.i.i.i.i = tail call i32 @memcmp(ptr noundef %5, ptr noundef %4, i64 noundef %.sroa.speculated.i.i.i) #16
  %tobool.not.i.i.i = icmp eq i32 %call.i.i.i.i, 0
  br i1 %tobool.not.i.i.i, label %if.then.i.i.i, label %_ZNKSt4lessINSt7__cxx1112basic_stringIcSt11char_traitsIcESaIcEEEEclERKS5_S8_.exit

if.then.i.i.i:                                    ; preds = %_ZNSt11char_traitsIcE7compareEPKcS2_m.exit.i.i.i, %land.lhs.true
  %sub.i.i.i.i = sub i64 %2, %3
  %spec.select6.i.i.i.i = tail call i64 @llvm.smax.i64(i64 %sub.i.i.i.i, i64 -2147483648)
  %retval.07.i.i.i.i = tail call i64 @llvm.smin.i64(i64 %spec.select6.i.i.i.i, i64 2147483647)
  %retval.0.i12.i.i.i = trunc i64 %retval.07.i.i.i.i to i32
  br label %_ZNKSt4lessINSt7__cxx1112basic_stringIcSt11char_traitsIcESaIcEEEEclERKS5_S8_.exit

_ZNKSt4lessINSt7__cxx1112basic_stringIcSt11char_traitsIcESaIcEEEEclERKS5_S8_.exit: ; preds = %_ZNSt11char_traitsIcE7compareEPKcS2_m.exit.i.i.i, %if.then.i.i.i
  %__r.0.i.i.i = phi i32 [ %call.i.i.i.i, %_ZNSt11char_traitsIcE7compareEPKcS2_m.exit.i.i.i ], [ %retval.0.i12.i.i.i, %if.then.i.i.i ]
  %cmp.i.i = icmp slt i32 %__r.0.i.i.i, 0
  br i1 %cmp.i.i, label %cleanup80, label %if.else

if.else:                                          ; preds = %_ZNKSt4lessINSt7__cxx1112basic_stringIcSt11char_traitsIcESaIcEEEEclERKS5_S8_.exit, %if.then
  %call11 = tail call { ptr, ptr } @_ZNSt8_Rb_treeINSt7__cxx1112basic_stringIcSt11char_traitsIcESaIcEEESt4pairIKS5_N9benchmark7CounterEESt10_Select1stISA_ESt4lessIS5_ESaISA_EE24_M_get_insert_unique_posERS7_(ptr noundef nonnull align 8 dereferenceable(48) %this, ptr noundef nonnull align 8 dereferenceable(32) %__k)
  %6 = extractvalue { ptr, ptr } %call11, 0
  %7 = extractvalue { ptr, ptr } %call11, 1
  br label %cleanup80

if.else12:                                        ; preds = %entry
  %_M_string_length.i.i.i.i90 = getelementptr inbounds %"class.std::__cxx11::basic_string", ptr %__k, i64 0, i32 1
  %8 = load i64, ptr %_M_string_length.i.i.i.i90, align 8, !tbaa !24
  %_M_string_length.i10.i.i.i91 = getelementptr inbounds %"struct.std::_Rb_tree_node", ptr %__position.coerce, i64 0, i32 1, i32 0, i64 8
  %9 = load i64, ptr %_M_string_length.i10.i.i.i91, align 8, !tbaa !24
  %.sroa.speculated.i.i.i92 = tail call i64 @llvm.umin.i64(i64 %8, i64 %9)
  %cmp.i11.i.i.i93 = icmp eq i64 %.sroa.speculated.i.i.i92, 0
  br i1 %cmp.i11.i.i.i93, label %_ZNKSt4lessINSt7__cxx1112basic_stringIcSt11char_traitsIcESaIcEEEEclERKS5_S8_.exit104, label %_ZNSt11char_traitsIcE7compareEPKcS2_m.exit.i.i.i96

_ZNSt11char_traitsIcE7compareEPKcS2_m.exit.i.i.i96: ; preds = %if.else12
  %_M_storage.i.i.i89 = getelementptr inbounds %"struct.std::_Rb_tree_node", ptr %__position.coerce, i64 0, i32 1
  %10 = load ptr, ptr %_M_storage.i.i.i89, align 8, !tbaa !25
  %11 = load ptr, ptr %__k, align 8, !tbaa !25
  %call.i.i.i.i94 = tail call i32 @memcmp(ptr noundef %11, ptr noundef %10, i64 noundef %.sroa.speculated.i.i.i92) #16
  %tobool.not.i.i.i95 = icmp eq i32 %call.i.i.i.i94, 0
  br i1 %tobool.not.i.i.i95, label %_ZNKSt4lessINSt7__cxx1112basic_stringIcSt11char_traitsIcESaIcEEEEclERKS5_S8_.exit104.thread183, label %_ZNKSt4lessINSt7__cxx1112basic_stringIcSt11char_traitsIcESaIcEEEEclERKS5_S8_.exit104.thread

_ZNKSt4lessINSt7__cxx1112basic_stringIcSt11char_traitsIcESaIcEEEEclERKS5_S8_.exit104: ; preds = %if.else12
  %sub.i.i.i.i97 = sub i64 %8, %9
  %spec.select6.i.i.i.i98 = tail call i64 @llvm.smax.i64(i64 %sub.i.i.i.i97, i64 -2147483648)
  %retval.07.i.i.i.i99 = tail call i64 @llvm.smin.i64(i64 %spec.select6.i.i.i.i98, i64 2147483647)
  %12 = and i64 %retval.07.i.i.i.i99, 2147483648
  %cmp.i.i103.not = icmp eq i64 %12, 0
  br i1 %cmp.i.i103.not, label %if.then.i.i.i139, label %if.then18

_ZNKSt4lessINSt7__cxx1112basic_stringIcSt11char_traitsIcESaIcEEEEclERKS5_S8_.exit104.thread183: ; preds = %_ZNSt11char_traitsIcE7compareEPKcS2_m.exit.i.i.i96
  %sub.i.i.i.i97184 = sub i64 %8, %9
  %spec.select6.i.i.i.i98185 = tail call i64 @llvm.smax.i64(i64 %sub.i.i.i.i97184, i64 -2147483648)
  %retval.07.i.i.i.i99186 = tail call i64 @llvm.smin.i64(i64 %spec.select6.i.i.i.i98185, i64 2147483647)
  %13 = and i64 %retval.07.i.i.i.i99186, 2147483648
  %cmp.i.i103188.not = icmp eq i64 %13, 0
  br i1 %cmp.i.i103188.not, label %_ZNSt11char_traitsIcE7compareEPKcS2_m.exit.i.i.i134, label %if.then18

_ZNKSt4lessINSt7__cxx1112basic_stringIcSt11char_traitsIcESaIcEEEEclERKS5_S8_.exit104.thread: ; preds = %_ZNSt11char_traitsIcE7compareEPKcS2_m.exit.i.i.i96
  %cmp.i.i103182 = icmp slt i32 %call.i.i.i.i94, 0
  br i1 %cmp.i.i103182, label %if.then18, label %_ZNSt11char_traitsIcE7compareEPKcS2_m.exit.i.i.i134

if.then18:                                        ; preds = %_ZNKSt4lessINSt7__cxx1112basic_stringIcSt11char_traitsIcESaIcEEEEclERKS5_S8_.exit104.thread183, %_ZNKSt4lessINSt7__cxx1112basic_stringIcSt11char_traitsIcESaIcEEEEclERKS5_S8_.exit104.thread, %_ZNKSt4lessINSt7__cxx1112basic_stringIcSt11char_traitsIcESaIcEEEEclERKS5_S8_.exit104
  %_M_left.i = getelementptr inbounds i8, ptr %this, i64 24
  %14 = load ptr, ptr %_M_left.i, align 8, !tbaa !26
  %cmp21 = icmp eq ptr %14, %__position.coerce
  br i1 %cmp21, label %cleanup80, label %if.else25

if.else25:                                        ; preds = %if.then18
  %call.i = tail call noundef ptr @_ZSt18_Rb_tree_decrementPSt18_Rb_tree_node_base(ptr noundef nonnull %__position.coerce) #15
  %_M_string_length.i.i.i.i109 = getelementptr inbounds %"struct.std::_Rb_tree_node", ptr %call.i, i64 0, i32 1, i32 0, i64 8
  %15 = load i64, ptr %_M_string_length.i.i.i.i109, align 8, !tbaa !24
  %.sroa.speculated.i.i.i111 = tail call i64 @llvm.umin.i64(i64 %15, i64 %8)
  %cmp.i11.i.i.i112 = icmp eq i64 %.sroa.speculated.i.i.i111, 0
  br i1 %cmp.i11.i.i.i112, label %if.then.i.i.i120, label %_ZNSt11char_traitsIcE7compareEPKcS2_m.exit.i.i.i115

_ZNSt11char_traitsIcE7compareEPKcS2_m.exit.i.i.i115: ; preds = %if.else25
  %_M_storage.i.i.i108 = getelementptr inbounds %"struct.std::_Rb_tree_node", ptr %call.i, i64 0, i32 1
  %16 = load ptr, ptr %__k, align 8, !tbaa !25
  %17 = load ptr, ptr %_M_storage.i.i.i108, align 8, !tbaa !25
  %call.i.i.i.i113 = tail call i32 @memcmp(ptr noundef %17, ptr noundef %16, i64 noundef %.sroa.speculated.i.i.i111) #16
  %tobool.not.i.i.i114 = icmp eq i32 %call.i.i.i.i113, 0
  br i1 %tobool.not.i.i.i114, label %if.then.i.i.i120, label %_ZNKSt4lessINSt7__cxx1112basic_stringIcSt11char_traitsIcESaIcEEEEclERKS5_S8_.exit123

if.then.i.i.i120:                                 ; preds = %_ZNSt11char_traitsIcE7compareEPKcS2_m.exit.i.i.i115, %if.else25
  %sub.i.i.i.i116 = sub i64 %15, %8
  %spec.select6.i.i.i.i117 = tail call i64 @llvm.smax.i64(i64 %sub.i.i.i.i116, i64 -2147483648)
  %retval.07.i.i.i.i118 = tail call i64 @llvm.smin.i64(i64 %spec.select6.i.i.i.i117, i64 2147483647)
  %retval.0.i12.i.i.i119 = trunc i64 %retval.07.i.i.i.i118 to i32
  br label %_ZNKSt4lessINSt7__cxx1112basic_stringIcSt11char_traitsIcESaIcEEEEclERKS5_S8_.exit123

_ZNKSt4lessINSt7__cxx1112basic_stringIcSt11char_traitsIcESaIcEEEEclERKS5_S8_.exit123: ; preds = %_ZNSt11char_traitsIcE7compareEPKcS2_m.exit.i.i.i115, %if.then.i.i.i120
  %__r.0.i.i.i121 = phi i32 [ %call.i.i.i.i113, %_ZNSt11char_traitsIcE7compareEPKcS2_m.exit.i.i.i115 ], [ %retval.0.i12.i.i.i119, %if.then.i.i.i120 ]
  %cmp.i.i122 = icmp slt i32 %__r.0.i.i.i121, 0
  br i1 %cmp.i.i122, label %if.then32, label %if.else42

if.then32:                                        ; preds = %_ZNKSt4lessINSt7__cxx1112basic_stringIcSt11char_traitsIcESaIcEEEEclERKS5_S8_.exit123
  %_M_right.i124 = getelementptr inbounds %"struct.std::_Rb_tree_node_base", ptr %call.i, i64 0, i32 3
  %18 = load ptr, ptr %_M_right.i124, align 8, !tbaa !37
  %cmp35 = icmp eq ptr %18, null
  %.__position.coerce = select i1 %cmp35, ptr null, ptr %__position.coerce
  %call.i.__position.coerce = select i1 %cmp35, ptr %call.i, ptr %__position.coerce
  br label %cleanup80

if.else42:                                        ; preds = %_ZNKSt4lessINSt7__cxx1112basic_stringIcSt11char_traitsIcESaIcEEEEclERKS5_S8_.exit123
  %call43 = tail call { ptr, ptr } @_ZNSt8_Rb_treeINSt7__cxx1112basic_stringIcSt11char_traitsIcESaIcEEESt4pairIKS5_N9benchmark7CounterEESt10_Select1stISA_ESt4lessIS5_ESaISA_EE24_M_get_insert_unique_posERS7_(ptr noundef nonnull align 8 dereferenceable(48) %this, ptr noundef nonnull align 8 dereferenceable(32) %__k)
  %19 = extractvalue { ptr, ptr } %call43, 0
  %20 = extractvalue { ptr, ptr } %call43, 1
  br label %cleanup80

_ZNSt11char_traitsIcE7compareEPKcS2_m.exit.i.i.i134: ; preds = %_ZNKSt4lessINSt7__cxx1112basic_stringIcSt11char_traitsIcESaIcEEEEclERKS5_S8_.exit104.thread183, %_ZNKSt4lessINSt7__cxx1112basic_stringIcSt11char_traitsIcESaIcEEEEclERKS5_S8_.exit104.thread
  %call.i.i.i.i132 = tail call i32 @memcmp(ptr noundef %10, ptr noundef %11, i64 noundef %.sroa.speculated.i.i.i92) #16
  %tobool.not.i.i.i133 = icmp eq i32 %call.i.i.i.i132, 0
  br i1 %tobool.not.i.i.i133, label %if.then.i.i.i139, label %_ZNKSt4lessINSt7__cxx1112basic_stringIcSt11char_traitsIcESaIcEEEEclERKS5_S8_.exit142

if.then.i.i.i139:                                 ; preds = %_ZNKSt4lessINSt7__cxx1112basic_stringIcSt11char_traitsIcESaIcEEEEclERKS5_S8_.exit104, %_ZNSt11char_traitsIcE7compareEPKcS2_m.exit.i.i.i134
  %sub.i.i.i.i135 = sub i64 %9, %8
  %spec.select6.i.i.i.i136 = tail call i64 @llvm.smax.i64(i64 %sub.i.i.i.i135, i64 -2147483648)
  %retval.07.i.i.i.i137 = tail call i64 @llvm.smin.i64(i64 %spec.select6.i.i.i.i136, i64 2147483647)
  %retval.0.i12.i.i.i138 = trunc i64 %retval.07.i.i.i.i137 to i32
  br label %_ZNKSt4lessINSt7__cxx1112basic_stringIcSt11char_traitsIcESaIcEEEEclERKS5_S8_.exit142

_ZNKSt4lessINSt7__cxx1112basic_stringIcSt11char_traitsIcESaIcEEEEclERKS5_S8_.exit142: ; preds = %_ZNSt11char_traitsIcE7compareEPKcS2_m.exit.i.i.i134, %if.then.i.i.i139
  %__r.0.i.i.i140 = phi i32 [ %call.i.i.i.i132, %_ZNSt11char_traitsIcE7compareEPKcS2_m.exit.i.i.i134 ], [ %retval.0.i12.i.i.i138, %if.then.i.i.i139 ]
  %cmp.i.i141 = icmp slt i32 %__r.0.i.i.i140, 0
  br i1 %cmp.i.i141, label %if.then50, label %cleanup80

if.then50:                                        ; preds = %_ZNKSt4lessINSt7__cxx1112basic_stringIcSt11char_traitsIcESaIcEEEEclERKS5_S8_.exit142
  %_M_right.i143 = getelementptr inbounds i8, ptr %this, i64 32
  %21 = load ptr, ptr %_M_right.i143, align 8, !tbaa !26
  %cmp53 = icmp eq ptr %21, %__position.coerce
  br i1 %cmp53, label %cleanup80, label %if.else57

if.else57:                                        ; preds = %if.then50
  %call.i146 = tail call noundef ptr @_ZSt18_Rb_tree_incrementPSt18_Rb_tree_node_base(ptr noundef nonnull %__position.coerce) #15
  %_M_string_length.i10.i.i.i149 = getelementptr inbounds %"struct.std::_Rb_tree_node", ptr %call.i146, i64 0, i32 1, i32 0, i64 8
  %22 = load i64, ptr %_M_string_length.i10.i.i.i149, align 8, !tbaa !24
  %.sroa.speculated.i.i.i150 = tail call i64 @llvm.umin.i64(i64 %8, i64 %22)
  %cmp.i11.i.i.i151 = icmp eq i64 %.sroa.speculated.i.i.i150, 0
  br i1 %cmp.i11.i.i.i151, label %if.then.i.i.i159, label %_ZNSt11char_traitsIcE7compareEPKcS2_m.exit.i.i.i154

_ZNSt11char_traitsIcE7compareEPKcS2_m.exit.i.i.i154: ; preds = %if.else57
  %_M_storage.i.i.i147 = getelementptr inbounds %"struct.std::_Rb_tree_node", ptr %call.i146, i64 0, i32 1
  %23 = load ptr, ptr %_M_storage.i.i.i147, align 8, !tbaa !25
  %24 = load ptr, ptr %__k, align 8, !tbaa !25
  %call.i.i.i.i152 = tail call i32 @memcmp(ptr noundef %24, ptr noundef %23, i64 noundef %.sroa.speculated.i.i.i150) #16
  %tobool.not.i.i.i153 = icmp eq i32 %call.i.i.i.i152, 0
  br i1 %tobool.not.i.i.i153, label %if.then.i.i.i159, label %_ZNKSt4lessINSt7__cxx1112basic_stringIcSt11char_traitsIcESaIcEEEEclERKS5_S8_.exit162

if.then.i.i.i159:                                 ; preds = %_ZNSt11char_traitsIcE7compareEPKcS2_m.exit.i.i.i154, %if.else57
  %sub.i.i.i.i155 = sub i64 %8, %22
  %spec.select6.i.i.i.i156 = tail call i64 @llvm.smax.i64(i64 %sub.i.i.i.i155, i64 -2147483648)
  %retval.07.i.i.i.i157 = tail call i64 @llvm.smin.i64(i64 %spec.select6.i.i.i.i156, i64 2147483647)
  %retval.0.i12.i.i.i158 = trunc i64 %retval.07.i.i.i.i157 to i32
  br label %_ZNKSt4lessINSt7__cxx1112basic_stringIcSt11char_traitsIcESaIcEEEEclERKS5_S8_.exit162

_ZNKSt4lessINSt7__cxx1112basic_stringIcSt11char_traitsIcESaIcEEEEclERKS5_S8_.exit162: ; preds = %_ZNSt11char_traitsIcE7compareEPKcS2_m.exit.i.i.i154, %if.then.i.i.i159
  %__r.0.i.i.i160 = phi i32 [ %call.i.i.i.i152, %_ZNSt11char_traitsIcE7compareEPKcS2_m.exit.i.i.i154 ], [ %retval.0.i12.i.i.i158, %if.then.i.i.i159 ]
  %cmp.i.i161 = icmp slt i32 %__r.0.i.i.i160, 0
  br i1 %cmp.i.i161, label %if.then64, label %if.else74

if.then64:                                        ; preds = %_ZNKSt4lessINSt7__cxx1112basic_stringIcSt11char_traitsIcESaIcEEEEclERKS5_S8_.exit162
  %_M_right.i163 = getelementptr inbounds %"struct.std::_Rb_tree_node_base", ptr %__position.coerce, i64 0, i32 3
  %25 = load ptr, ptr %_M_right.i163, align 8, !tbaa !37
  %cmp67 = icmp eq ptr %25, null
  %.call.i146 = select i1 %cmp67, ptr null, ptr %call.i146
  %__position.coerce.call.i146 = select i1 %cmp67, ptr %__position.coerce, ptr %call.i146
  br label %cleanup80

if.else74:                                        ; preds = %_ZNKSt4lessINSt7__cxx1112basic_stringIcSt11char_traitsIcESaIcEEEEclERKS5_S8_.exit162
  %call75 = tail call { ptr, ptr } @_ZNSt8_Rb_treeINSt7__cxx1112basic_stringIcSt11char_traitsIcESaIcEEESt4pairIKS5_N9benchmark7CounterEESt10_Select1stISA_ESt4lessIS5_ESaISA_EE24_M_get_insert_unique_posERS7_(ptr noundef nonnull align 8 dereferenceable(48) %this, ptr noundef nonnull align 8 dereferenceable(32) %__k)
  %26 = extractvalue { ptr, ptr } %call75, 0
  %27 = extractvalue { ptr, ptr } %call75, 1
  br label %cleanup80

cleanup80:                                        ; preds = %_ZNKSt4lessINSt7__cxx1112basic_stringIcSt11char_traitsIcESaIcEEEEclERKS5_S8_.exit142, %if.else74, %if.then50, %if.then64, %if.else42, %if.then18, %if.then32, %_ZNKSt4lessINSt7__cxx1112basic_stringIcSt11char_traitsIcESaIcEEEEclERKS5_S8_.exit, %if.else
  %retval.sroa.0.2 = phi ptr [ %6, %if.else ], [ null, %_ZNKSt4lessINSt7__cxx1112basic_stringIcSt11char_traitsIcESaIcEEEEclERKS5_S8_.exit ], [ %19, %if.else42 ], [ %__position.coerce, %if.then18 ], [ %.__position.coerce, %if.then32 ], [ %26, %if.else74 ], [ null, %if.then50 ], [ %.call.i146, %if.then64 ], [ %__position.coerce, %_ZNKSt4lessINSt7__cxx1112basic_stringIcSt11char_traitsIcESaIcEEEEclERKS5_S8_.exit142 ]
  %retval.sroa.12.2 = phi ptr [ %7, %if.else ], [ %1, %_ZNKSt4lessINSt7__cxx1112basic_stringIcSt11char_traitsIcESaIcEEEEclERKS5_S8_.exit ], [ %20, %if.else42 ], [ %__position.coerce, %if.then18 ], [ %call.i.__position.coerce, %if.then32 ], [ %27, %if.else74 ], [ %__position.coerce, %if.then50 ], [ %__position.coerce.call.i146, %if.then64 ], [ null, %_ZNKSt4lessINSt7__cxx1112basic_stringIcSt11char_traitsIcESaIcEEEEclERKS5_S8_.exit142 ]
  %.fca.0.insert = insertvalue { ptr, ptr } poison, ptr %retval.sroa.0.2, 0
  %.fca.1.insert = insertvalue { ptr, ptr } %.fca.0.insert, ptr %retval.sroa.12.2, 1
  ret { ptr, ptr } %.fca.1.insert
}

; Function Attrs: nounwind uwtable
define linkonce_odr hidden void @_ZNSt8_Rb_treeINSt7__cxx1112basic_stringIcSt11char_traitsIcESaIcEEESt4pairIKS5_N9benchmark7CounterEESt10_Select1stISA_ESt4lessIS5_ESaISA_EE10_Auto_nodeD2Ev(ptr noundef nonnull align 8 dereferenceable(16) %this) unnamed_addr #10 comdat align 2 personality ptr @__gxx_personality_v0 {
entry:
  %_M_node = getelementptr inbounds %"struct.std::_Rb_tree<std::__cxx11::basic_string<char>, std::pair<const std::__cxx11::basic_string<char>, benchmark::Counter>, std::_Select1st<std::pair<const std::__cxx11::basic_string<char>, benchmark::Counter>>, std::less<std::__cxx11::basic_string<char>>>::_Auto_node", ptr %this, i64 0, i32 1
  %0 = load ptr, ptr %_M_node, align 8, !tbaa !35
  %tobool.not = icmp eq ptr %0, null
  br i1 %tobool.not, label %if.end, label %if.then

if.then:                                          ; preds = %entry
  %_M_storage.i.i.i = getelementptr inbounds %"struct.std::_Rb_tree_node", ptr %0, i64 0, i32 1
  %1 = load ptr, ptr %_M_storage.i.i.i, align 8, !tbaa !25
  %2 = getelementptr inbounds %"struct.std::_Rb_tree_node", ptr %0, i64 0, i32 1, i32 0, i64 16
  %cmp.i.i.i.i.i.i.i.i = icmp eq ptr %1, %2
  br i1 %cmp.i.i.i.i.i.i.i.i, label %_ZNSt8_Rb_treeINSt7__cxx1112basic_stringIcSt11char_traitsIcESaIcEEESt4pairIKS5_N9benchmark7CounterEESt10_Select1stISA_ESt4lessIS5_ESaISA_EE12_M_drop_nodeEPSt13_Rb_tree_nodeISA_E.exit, label %if.then.i.i.i.i.i.i.i

if.then.i.i.i.i.i.i.i:                            ; preds = %if.then
  tail call void @_ZdlPv(ptr noundef %1) #19
  br label %_ZNSt8_Rb_treeINSt7__cxx1112basic_stringIcSt11char_traitsIcESaIcEEESt4pairIKS5_N9benchmark7CounterEESt10_Select1stISA_ESt4lessIS5_ESaISA_EE12_M_drop_nodeEPSt13_Rb_tree_nodeISA_E.exit

_ZNSt8_Rb_treeINSt7__cxx1112basic_stringIcSt11char_traitsIcESaIcEEESt4pairIKS5_N9benchmark7CounterEESt10_Select1stISA_ESt4lessIS5_ESaISA_EE12_M_drop_nodeEPSt13_Rb_tree_nodeISA_E.exit: ; preds = %if.then, %if.then.i.i.i.i.i.i.i
  tail call void @_ZdlPv(ptr noundef nonnull %0) #19
  br label %if.end

if.end:                                           ; preds = %_ZNSt8_Rb_treeINSt7__cxx1112basic_stringIcSt11char_traitsIcESaIcEEESt4pairIKS5_N9benchmark7CounterEESt10_Select1stISA_ESt4lessIS5_ESaISA_EE12_M_drop_nodeEPSt13_Rb_tree_nodeISA_E.exit, %entry
  ret void
}

; Function Attrs: uwtable
define linkonce_odr hidden void @_ZNSt8_Rb_treeINSt7__cxx1112basic_stringIcSt11char_traitsIcESaIcEEESt4pairIKS5_N9benchmark7CounterEESt10_Select1stISA_ESt4lessIS5_ESaISA_EE17_M_construct_nodeIJRKSt21piecewise_construct_tSt5tupleIJRS7_EESL_IJEEEEEvPSt13_Rb_tree_nodeISA_EDpOT_(ptr noundef nonnull align 8 dereferenceable(48) %this, ptr noundef %__node, ptr noundef nonnull align 1 dereferenceable(1) %__args, ptr noundef nonnull align 8 dereferenceable(8) %__args1, ptr noundef nonnull align 1 dereferenceable(1) %__args3) local_unnamed_addr #4 comdat align 2 personality ptr @__gxx_personality_v0 {
entry:
  %__dnew.i.i.i.i.i.i = alloca i64, align 8
  %_M_storage.i = getelementptr inbounds %"struct.std::_Rb_tree_node", ptr %__node, i64 0, i32 1
  %0 = load i64, ptr %__args1, align 8, !tbaa !26
  %1 = inttoptr i64 %0 to ptr
  %2 = getelementptr inbounds %"struct.std::_Rb_tree_node", ptr %__node, i64 0, i32 1, i32 0, i64 16
  store ptr %2, ptr %_M_storage.i, align 8, !tbaa !38
  %3 = load ptr, ptr %1, align 8, !tbaa !25
  %_M_string_length.i.i.i.i.i.i = getelementptr inbounds %"class.std::__cxx11::basic_string", ptr %1, i64 0, i32 1
  %4 = load i64, ptr %_M_string_length.i.i.i.i.i.i, align 8, !tbaa !24
  call void @llvm.lifetime.start.p0(i64 8, ptr nonnull %__dnew.i.i.i.i.i.i) #16
  store i64 %4, ptr %__dnew.i.i.i.i.i.i, align 8, !tbaa !39
  %cmp.i.i.i.i.i.i = icmp ugt i64 %4, 15
  br i1 %cmp.i.i.i.i.i.i, label %if.then.i.i.i.i.i.i, label %if.end.i.i.i.i.i.i

if.then.i.i.i.i.i.i:                              ; preds = %entry
  %call2.i12.i.i.i.i.i14 = invoke noundef ptr @_ZNSt7__cxx1112basic_stringIcSt11char_traitsIcESaIcEE9_M_createERmm(ptr noundef nonnull align 8 dereferenceable(32) %_M_storage.i, ptr noundef nonnull align 8 dereferenceable(8) %__dnew.i.i.i.i.i.i, i64 noundef 0)
          to label %call2.i12.i.i.i.i.i.noexc unwind label %lpad

call2.i12.i.i.i.i.i.noexc:                        ; preds = %if.then.i.i.i.i.i.i
  store ptr %call2.i12.i.i.i.i.i14, ptr %_M_storage.i, align 8, !tbaa !25
  %5 = load i64, ptr %__dnew.i.i.i.i.i.i, align 8, !tbaa !39
  store i64 %5, ptr %2, align 8, !tbaa !40
  br label %if.end.i.i.i.i.i.i

if.end.i.i.i.i.i.i:                               ; preds = %call2.i12.i.i.i.i.i.noexc, %entry
  %6 = phi ptr [ %call2.i12.i.i.i.i.i14, %call2.i12.i.i.i.i.i.noexc ], [ %2, %entry ]
  switch i64 %4, label %if.end.i.i.i.i.i.i.i.i.i [
    i64 1, label %if.then.i.i.i.i.i.i.i.i
    i64 0, label %_ZNSt16allocator_traitsISaISt13_Rb_tree_nodeISt4pairIKNSt7__cxx1112basic_stringIcSt11char_traitsIcESaIcEEEN9benchmark7CounterEEEEE9constructISB_JRKSt21piecewise_construct_tSt5tupleIJRS8_EESJ_IJEEEEEvRSD_PT_DpOT0_.exit
  ]

if.then.i.i.i.i.i.i.i.i:                          ; preds = %if.end.i.i.i.i.i.i
  %7 = load i8, ptr %3, align 1, !tbaa !40
  store i8 %7, ptr %6, align 1, !tbaa !40
  br label %_ZNSt16allocator_traitsISaISt13_Rb_tree_nodeISt4pairIKNSt7__cxx1112basic_stringIcSt11char_traitsIcESaIcEEEN9benchmark7CounterEEEEE9constructISB_JRKSt21piecewise_construct_tSt5tupleIJRS8_EESJ_IJEEEEEvRSD_PT_DpOT0_.exit

if.end.i.i.i.i.i.i.i.i.i:                         ; preds = %if.end.i.i.i.i.i.i
  call void @llvm.memcpy.p0.p0.i64(ptr align 1 %6, ptr align 1 %3, i64 %4, i1 false)
  br label %_ZNSt16allocator_traitsISaISt13_Rb_tree_nodeISt4pairIKNSt7__cxx1112basic_stringIcSt11char_traitsIcESaIcEEEN9benchmark7CounterEEEEE9constructISB_JRKSt21piecewise_construct_tSt5tupleIJRS8_EESJ_IJEEEEEvRSD_PT_DpOT0_.exit

_ZNSt16allocator_traitsISaISt13_Rb_tree_nodeISt4pairIKNSt7__cxx1112basic_stringIcSt11char_traitsIcESaIcEEEN9benchmark7CounterEEEEE9constructISB_JRKSt21piecewise_construct_tSt5tupleIJRS8_EESJ_IJEEEEEvRSD_PT_DpOT0_.exit: ; preds = %if.end.i.i.i.i.i.i, %if.then.i.i.i.i.i.i.i.i, %if.end.i.i.i.i.i.i.i.i.i
  %8 = load i64, ptr %__dnew.i.i.i.i.i.i, align 8, !tbaa !39
  %_M_string_length.i.i.i.i.i.i.i.i = getelementptr inbounds %"struct.std::_Rb_tree_node", ptr %__node, i64 0, i32 1, i32 0, i64 8
  store i64 %8, ptr %_M_string_length.i.i.i.i.i.i.i.i, align 8, !tbaa !24
  %9 = load ptr, ptr %_M_storage.i, align 8, !tbaa !25
  %arrayidx.i.i.i.i.i.i.i = getelementptr inbounds i8, ptr %9, i64 %8
  store i8 0, ptr %arrayidx.i.i.i.i.i.i.i, align 1, !tbaa !40
  call void @llvm.lifetime.end.p0(i64 8, ptr nonnull %__dnew.i.i.i.i.i.i) #16
  %second.i.i.i.i = getelementptr inbounds %"struct.std::_Rb_tree_node", ptr %__node, i64 0, i32 1, i32 0, i64 32
  store double 0.000000e+00, ptr %second.i.i.i.i, align 8, !tbaa !5
  %flags.i.i.i.i.i = getelementptr inbounds %"struct.std::_Rb_tree_node", ptr %__node, i64 0, i32 1, i32 0, i64 40
  store i32 0, ptr %flags.i.i.i.i.i, align 8, !tbaa !12
  %oneK.i.i.i.i.i = getelementptr inbounds %"struct.std::_Rb_tree_node", ptr %__node, i64 0, i32 1, i32 0, i64 44
  store i32 1000, ptr %oneK.i.i.i.i.i, align 4, !tbaa !41
  ret void

lpad:                                             ; preds = %if.then.i.i.i.i.i.i
  %10 = landingpad { ptr, i32 }
          catch ptr null
  %11 = extractvalue { ptr, i32 } %10, 0
  %12 = call ptr @__cxa_begin_catch(ptr %11) #16
  call void @_ZdlPv(ptr noundef nonnull %__node) #19
  invoke void @__cxa_rethrow() #20
          to label %unreachable unwind label %lpad7

lpad7:                                            ; preds = %lpad
  %13 = landingpad { ptr, i32 }
          cleanup
  invoke void @__cxa_end_catch()
          to label %eh.resume unwind label %terminate.lpad

eh.resume:                                        ; preds = %lpad7
  resume { ptr, i32 } %13

terminate.lpad:                                   ; preds = %lpad7
  %14 = landingpad { ptr, i32 }
          catch ptr null
  %15 = extractvalue { ptr, i32 } %14, 0
  call void @__clang_call_terminate(ptr %15) #17
  unreachable

unreachable:                                      ; preds = %lpad
  unreachable
}

; Function Attrs: nobuiltin allocsize(0)
declare noundef nonnull ptr @_Znwm(i64 noundef) local_unnamed_addr #11

declare void @__cxa_rethrow() local_unnamed_addr

declare void @__cxa_end_catch() local_unnamed_addr

declare noundef ptr @_ZNSt7__cxx1112basic_stringIcSt11char_traitsIcESaIcEE9_M_createERmm(ptr noundef nonnull align 8 dereferenceable(32), ptr noundef nonnull align 8 dereferenceable(8), i64 noundef) local_unnamed_addr #0

; Function Attrs: nobuiltin nounwind
declare void @_ZdlPv(ptr noundef) local_unnamed_addr #12

; Function Attrs: uwtable
define linkonce_odr hidden { ptr, ptr } @_ZNSt8_Rb_treeINSt7__cxx1112basic_stringIcSt11char_traitsIcESaIcEEESt4pairIKS5_N9benchmark7CounterEESt10_Select1stISA_ESt4lessIS5_ESaISA_EE24_M_get_insert_unique_posERS7_(ptr noundef nonnull align 8 dereferenceable(48) %this, ptr noundef nonnull align 8 dereferenceable(32) %__k) local_unnamed_addr #4 comdat align 2 personality ptr @__gxx_personality_v0 {
entry:
  %_M_parent.i.i = getelementptr inbounds i8, ptr %this, i64 16
  %add.ptr.i = getelementptr inbounds i8, ptr %this, i64 8
  %__x.054 = load ptr, ptr %_M_parent.i.i, align 8, !tbaa !26
  %cmp.not55 = icmp eq ptr %__x.054, null
  br i1 %cmp.not55, label %if.then, label %while.body.lr.ph

while.body.lr.ph:                                 ; preds = %entry
  %_M_string_length.i.i.i.i = getelementptr inbounds %"class.std::__cxx11::basic_string", ptr %__k, i64 0, i32 1
  %0 = load i64, ptr %_M_string_length.i.i.i.i, align 8, !tbaa !24
  %1 = load ptr, ptr %__k, align 8
  br label %while.body

while.body:                                       ; preds = %while.body.lr.ph, %_ZNKSt4lessINSt7__cxx1112basic_stringIcSt11char_traitsIcESaIcEEEEclERKS5_S8_.exit
  %__x.056 = phi ptr [ %__x.054, %while.body.lr.ph ], [ %__x.0, %_ZNKSt4lessINSt7__cxx1112basic_stringIcSt11char_traitsIcESaIcEEEEclERKS5_S8_.exit ]
  %_M_string_length.i10.i.i.i = getelementptr inbounds %"struct.std::_Rb_tree_node", ptr %__x.056, i64 0, i32 1, i32 0, i64 8
  %2 = load i64, ptr %_M_string_length.i10.i.i.i, align 8, !tbaa !24
  %.sroa.speculated.i.i.i = tail call i64 @llvm.umin.i64(i64 %0, i64 %2)
  %cmp.i11.i.i.i = icmp eq i64 %.sroa.speculated.i.i.i, 0
  br i1 %cmp.i11.i.i.i, label %if.then.i.i.i, label %_ZNSt11char_traitsIcE7compareEPKcS2_m.exit.i.i.i

_ZNSt11char_traitsIcE7compareEPKcS2_m.exit.i.i.i: ; preds = %while.body
  %_M_storage.i.i = getelementptr inbounds %"struct.std::_Rb_tree_node", ptr %__x.056, i64 0, i32 1
  %3 = load ptr, ptr %_M_storage.i.i, align 8, !tbaa !25
  %call.i.i.i.i = tail call i32 @memcmp(ptr noundef %1, ptr noundef %3, i64 noundef %.sroa.speculated.i.i.i) #16
  %tobool.not.i.i.i = icmp eq i32 %call.i.i.i.i, 0
  br i1 %tobool.not.i.i.i, label %if.then.i.i.i, label %_ZNKSt4lessINSt7__cxx1112basic_stringIcSt11char_traitsIcESaIcEEEEclERKS5_S8_.exit

if.then.i.i.i:                                    ; preds = %_ZNSt11char_traitsIcE7compareEPKcS2_m.exit.i.i.i, %while.body
  %sub.i.i.i.i = sub i64 %0, %2
  %spec.select6.i.i.i.i = tail call i64 @llvm.smax.i64(i64 %sub.i.i.i.i, i64 -2147483648)
  %retval.07.i.i.i.i = tail call i64 @llvm.smin.i64(i64 %spec.select6.i.i.i.i, i64 2147483647)
  %retval.0.i12.i.i.i = trunc i64 %retval.07.i.i.i.i to i32
  br label %_ZNKSt4lessINSt7__cxx1112basic_stringIcSt11char_traitsIcESaIcEEEEclERKS5_S8_.exit

_ZNKSt4lessINSt7__cxx1112basic_stringIcSt11char_traitsIcESaIcEEEEclERKS5_S8_.exit: ; preds = %_ZNSt11char_traitsIcE7compareEPKcS2_m.exit.i.i.i, %if.then.i.i.i
  %__r.0.i.i.i = phi i32 [ %call.i.i.i.i, %_ZNSt11char_traitsIcE7compareEPKcS2_m.exit.i.i.i ], [ %retval.0.i12.i.i.i, %if.then.i.i.i ]
  %cmp.i.i = icmp slt i32 %__r.0.i.i.i, 0
  %_M_left.i = getelementptr inbounds %"struct.std::_Rb_tree_node_base", ptr %__x.056, i64 0, i32 2
  %_M_right.i = getelementptr inbounds %"struct.std::_Rb_tree_node_base", ptr %__x.056, i64 0, i32 3
  %cond.in = select i1 %cmp.i.i, ptr %_M_left.i, ptr %_M_right.i
  %__x.0 = load ptr, ptr %cond.in, align 8, !tbaa !26
  %cmp.not = icmp eq ptr %__x.0, null
  br i1 %cmp.not, label %while.end, label %while.body, !llvm.loop !42

while.end:                                        ; preds = %_ZNKSt4lessINSt7__cxx1112basic_stringIcSt11char_traitsIcESaIcEEEEclERKS5_S8_.exit
  br i1 %cmp.i.i, label %if.then, label %if.end12

if.then:                                          ; preds = %entry, %while.end
  %__y.0.lcssa62 = phi ptr [ %__x.056, %while.end ], [ %add.ptr.i, %entry ]
  %_M_left.i26 = getelementptr inbounds i8, ptr %this, i64 24
  %4 = load ptr, ptr %_M_left.i26, align 8, !tbaa !13
  %cmp.i = icmp eq ptr %__y.0.lcssa62, %4
  br i1 %cmp.i, label %cleanup, label %if.else

if.else:                                          ; preds = %if.then
  %call.i = tail call noundef ptr @_ZSt18_Rb_tree_decrementPSt18_Rb_tree_node_base(ptr noundef nonnull %__y.0.lcssa62) #15
  br label %if.end12

if.end12:                                         ; preds = %if.else, %while.end
  %__y.0.lcssa63 = phi ptr [ %__y.0.lcssa62, %if.else ], [ %__x.056, %while.end ]
  %__j.sroa.0.0 = phi ptr [ %call.i, %if.else ], [ %__x.056, %while.end ]
  %_M_string_length.i.i.i.i27 = getelementptr inbounds %"struct.std::_Rb_tree_node", ptr %__j.sroa.0.0, i64 0, i32 1, i32 0, i64 8
  %5 = load i64, ptr %_M_string_length.i.i.i.i27, align 8, !tbaa !24
  %_M_string_length.i10.i.i.i28 = getelementptr inbounds %"class.std::__cxx11::basic_string", ptr %__k, i64 0, i32 1
  %6 = load i64, ptr %_M_string_length.i10.i.i.i28, align 8, !tbaa !24
  %.sroa.speculated.i.i.i29 = tail call i64 @llvm.umin.i64(i64 %5, i64 %6)
  %cmp.i11.i.i.i30 = icmp eq i64 %.sroa.speculated.i.i.i29, 0
  br i1 %cmp.i11.i.i.i30, label %if.then.i.i.i38, label %_ZNSt11char_traitsIcE7compareEPKcS2_m.exit.i.i.i33

_ZNSt11char_traitsIcE7compareEPKcS2_m.exit.i.i.i33: ; preds = %if.end12
  %_M_storage.i.i.i = getelementptr inbounds %"struct.std::_Rb_tree_node", ptr %__j.sroa.0.0, i64 0, i32 1
  %7 = load ptr, ptr %__k, align 8, !tbaa !25
  %8 = load ptr, ptr %_M_storage.i.i.i, align 8, !tbaa !25
  %call.i.i.i.i31 = tail call i32 @memcmp(ptr noundef %8, ptr noundef %7, i64 noundef %.sroa.speculated.i.i.i29) #16
  %tobool.not.i.i.i32 = icmp eq i32 %call.i.i.i.i31, 0
  br i1 %tobool.not.i.i.i32, label %if.then.i.i.i38, label %_ZNKSt4lessINSt7__cxx1112basic_stringIcSt11char_traitsIcESaIcEEEEclERKS5_S8_.exit41

if.then.i.i.i38:                                  ; preds = %_ZNSt11char_traitsIcE7compareEPKcS2_m.exit.i.i.i33, %if.end12
  %sub.i.i.i.i34 = sub i64 %5, %6
  %spec.select6.i.i.i.i35 = tail call i64 @llvm.smax.i64(i64 %sub.i.i.i.i34, i64 -2147483648)
  %retval.07.i.i.i.i36 = tail call i64 @llvm.smin.i64(i64 %spec.select6.i.i.i.i35, i64 2147483647)
  %retval.0.i12.i.i.i37 = trunc i64 %retval.07.i.i.i.i36 to i32
  br label %_ZNKSt4lessINSt7__cxx1112basic_stringIcSt11char_traitsIcESaIcEEEEclERKS5_S8_.exit41

_ZNKSt4lessINSt7__cxx1112basic_stringIcSt11char_traitsIcESaIcEEEEclERKS5_S8_.exit41: ; preds = %_ZNSt11char_traitsIcE7compareEPKcS2_m.exit.i.i.i33, %if.then.i.i.i38
  %__r.0.i.i.i39 = phi i32 [ %call.i.i.i.i31, %_ZNSt11char_traitsIcE7compareEPKcS2_m.exit.i.i.i33 ], [ %retval.0.i12.i.i.i37, %if.then.i.i.i38 ]
  %cmp.i.i40 = icmp slt i32 %__r.0.i.i.i39, 0
  %__x.0.__j.sroa.0.0 = select i1 %cmp.i.i40, ptr null, ptr %__j.sroa.0.0
  %__y.0. = select i1 %cmp.i.i40, ptr %__y.0.lcssa63, ptr null
  br label %cleanup

cleanup:                                          ; preds = %_ZNKSt4lessINSt7__cxx1112basic_stringIcSt11char_traitsIcESaIcEEEEclERKS5_S8_.exit41, %if.then
  %retval.sroa.0.0 = phi ptr [ null, %if.then ], [ %__x.0.__j.sroa.0.0, %_ZNKSt4lessINSt7__cxx1112basic_stringIcSt11char_traitsIcESaIcEEEEclERKS5_S8_.exit41 ]
  %retval.sroa.4.0 = phi ptr [ %__y.0.lcssa62, %if.then ], [ %__y.0., %_ZNKSt4lessINSt7__cxx1112basic_stringIcSt11char_traitsIcESaIcEEEEclERKS5_S8_.exit41 ]
  %.fca.0.insert = insertvalue { ptr, ptr } poison, ptr %retval.sroa.0.0, 0
  %.fca.1.insert = insertvalue { ptr, ptr } %.fca.0.insert, ptr %retval.sroa.4.0, 1
  ret { ptr, ptr } %.fca.1.insert
}

; Function Attrs: mustprogress nofree nounwind willreturn memory(read)
declare noundef ptr @_ZSt18_Rb_tree_decrementPSt18_Rb_tree_node_base(ptr noundef) local_unnamed_addr #9

; Function Attrs: nounwind
declare void @_ZSt29_Rb_tree_insert_and_rebalancebPSt18_Rb_tree_node_baseS0_RS_(i1 noundef zeroext, ptr noundef, ptr noundef, ptr noundef nonnull align 8 dereferenceable(32)) local_unnamed_addr #13

; Function Attrs: uwtable
define internal void @_GLOBAL__sub_I_counter.cc() #4 section ".text.startup" {
entry:
  %call.i = tail call noundef i32 @_ZN9benchmark8internal17InitializeStreamsEv()
  ret void
}

; Function Attrs: nocallback nofree nosync nounwind speculatable willreturn memory(none)
declare i64 @llvm.smax.i64(i64, i64) #14

; Function Attrs: nocallback nofree nosync nounwind speculatable willreturn memory(none)
declare i64 @llvm.smin.i64(i64, i64) #14

; Function Attrs: nocallback nofree nosync nounwind speculatable willreturn memory(none)
declare i64 @llvm.umin.i64(i64, i64) #14

attributes #0 = { "no-trapping-math"="true" "stack-protector-buffer-size"="8" "target-cpu"="x86-64" "target-features"="+cx8,+fxsr,+mmx,+sse,+sse2,+x87" "tune-cpu"="generic" }
attributes #1 = { mustprogress nofree norecurse nosync nounwind willreturn memory(argmem: read) uwtable "min-legal-vector-width"="0" "no-trapping-math"="true" "stack-protector-buffer-size"="8" "target-cpu"="x86-64" "target-features"="+cx8,+fxsr,+mmx,+sse,+sse2,+x87" "tune-cpu"="generic" }
attributes #2 = { mustprogress nocallback nofree nosync nounwind willreturn memory(argmem: readwrite) }
attributes #3 = { nofree nounwind memory(readwrite, inaccessiblemem: read) uwtable "min-legal-vector-width"="0" "no-trapping-math"="true" "stack-protector-buffer-size"="8" "target-cpu"="x86-64" "target-features"="+cx8,+fxsr,+mmx,+sse,+sse2,+x87" "tune-cpu"="generic" }
attributes #4 = { uwtable "min-legal-vector-width"="0" "no-trapping-math"="true" "stack-protector-buffer-size"="8" "target-cpu"="x86-64" "target-features"="+cx8,+fxsr,+mmx,+sse,+sse2,+x87" "tune-cpu"="generic" }
attributes #5 = { mustprogress nocallback nofree nounwind willreturn memory(argmem: readwrite) }
attributes #6 = { nofree nounwind memory(read) uwtable "min-legal-vector-width"="0" "no-trapping-math"="true" "stack-protector-buffer-size"="8" "target-cpu"="x86-64" "target-features"="+cx8,+fxsr,+mmx,+sse,+sse2,+x87" "tune-cpu"="generic" }
attributes #7 = { noinline noreturn nounwind "no-trapping-math"="true" "stack-protector-buffer-size"="8" "target-cpu"="x86-64" "target-features"="+cx8,+fxsr,+mmx,+sse,+sse2,+x87" "tune-cpu"="generic" }
attributes #8 = { mustprogress nofree nounwind willreturn memory(argmem: read) "no-trapping-math"="true" "stack-protector-buffer-size"="8" "target-cpu"="x86-64" "target-features"="+cx8,+fxsr,+mmx,+sse,+sse2,+x87" "tune-cpu"="generic" }
attributes #9 = { mustprogress nofree nounwind willreturn memory(read) "no-trapping-math"="true" "stack-protector-buffer-size"="8" "target-cpu"="x86-64" "target-features"="+cx8,+fxsr,+mmx,+sse,+sse2,+x87" "tune-cpu"="generic" }
attributes #10 = { nounwind uwtable "min-legal-vector-width"="0" "no-trapping-math"="true" "stack-protector-buffer-size"="8" "target-cpu"="x86-64" "target-features"="+cx8,+fxsr,+mmx,+sse,+sse2,+x87" "tune-cpu"="generic" }
attributes #11 = { nobuiltin allocsize(0) "no-trapping-math"="true" "stack-protector-buffer-size"="8" "target-cpu"="x86-64" "target-features"="+cx8,+fxsr,+mmx,+sse,+sse2,+x87" "tune-cpu"="generic" }
attributes #12 = { nobuiltin nounwind "no-trapping-math"="true" "stack-protector-buffer-size"="8" "target-cpu"="x86-64" "target-features"="+cx8,+fxsr,+mmx,+sse,+sse2,+x87" "tune-cpu"="generic" }
attributes #13 = { nounwind "no-trapping-math"="true" "stack-protector-buffer-size"="8" "target-cpu"="x86-64" "target-features"="+cx8,+fxsr,+mmx,+sse,+sse2,+x87" "tune-cpu"="generic" }
attributes #14 = { nocallback nofree nosync nounwind speculatable willreturn memory(none) }
attributes #15 = { nounwind willreturn memory(read) }
attributes #16 = { nounwind }
attributes #17 = { noreturn nounwind }
attributes #18 = { builtin allocsize(0) }
attributes #19 = { builtin nounwind }
attributes #20 = { noreturn }

!llvm.module.flags = !{!0, !1, !2, !3}
!llvm.ident = !{!4}

!0 = !{i32 1, !"wchar_size", i32 4}
!1 = !{i32 8, !"PIC Level", i32 2}
!2 = !{i32 7, !"PIE Level", i32 2}
!3 = !{i32 7, !"uwtable", i32 2}
!4 = !{!"clang version 17.0.0"}
!5 = !{!6, !7, i64 0}
!6 = !{!"_ZTSN9benchmark7CounterE", !7, i64 0, !10, i64 8, !11, i64 12}
!7 = !{!"double", !8, i64 0}
!8 = !{!"omnipotent char", !9, i64 0}
!9 = !{!"Simple C++ TBAA"}
!10 = !{!"_ZTSN9benchmark7Counter5FlagsE", !8, i64 0}
!11 = !{!"_ZTSN9benchmark7Counter4OneKE", !8, i64 0}
!12 = !{!6, !10, i64 8}
!13 = !{!14, !17, i64 16}
!14 = !{!"_ZTSSt15_Rb_tree_header", !15, i64 0, !18, i64 32}
!15 = !{!"_ZTSSt18_Rb_tree_node_base", !16, i64 0, !17, i64 8, !17, i64 16, !17, i64 24}
!16 = !{!"_ZTSSt14_Rb_tree_color", !8, i64 0}
!17 = !{!"any pointer", !8, i64 0}
!18 = !{!"long", !8, i64 0}
!19 = !{!20, !7, i64 32}
!20 = !{!"_ZTSSt4pairIKNSt7__cxx1112basic_stringIcSt11char_traitsIcESaIcEEEN9benchmark7CounterEE", !21, i64 0, !6, i64 32}
!21 = !{!"_ZTSNSt7__cxx1112basic_stringIcSt11char_traitsIcESaIcEEE", !22, i64 0, !18, i64 8, !8, i64 16}
!22 = !{!"_ZTSNSt7__cxx1112basic_stringIcSt11char_traitsIcESaIcEE12_Alloc_hiderE", !17, i64 0}
!23 = !{!14, !17, i64 8}
!24 = !{!21, !18, i64 8}
!25 = !{!21, !17, i64 0}
!26 = !{!17, !17, i64 0}
!27 = distinct !{!27, !28}
!28 = !{!"llvm.loop.mustprogress"}
!29 = !{!7, !7, i64 0}
!30 = distinct !{!30, !28}
!31 = !{i64 0, i64 8, !29, i64 8, i64 4, !32, i64 12, i64 4, !33}
!32 = !{!10, !10, i64 0}
!33 = !{!11, !11, i64 0}
!34 = !{!14, !18, i64 32}
!35 = !{!36, !17, i64 8}
!36 = !{!"_ZTSNSt8_Rb_treeINSt7__cxx1112basic_stringIcSt11char_traitsIcESaIcEEESt4pairIKS5_N9benchmark7CounterEESt10_Select1stISA_ESt4lessIS5_ESaISA_EE10_Auto_nodeE", !17, i64 0, !17, i64 8}
!37 = !{!15, !17, i64 24}
!38 = !{!22, !17, i64 0}
!39 = !{!18, !18, i64 0}
!40 = !{!8, !8, i64 0}
!41 = !{!6, !11, i64 12}
!42 = distinct !{!42, !28}
