; ModuleID = '/usr/local/google/home/aeubanks/repos/test-suite/MultiSource/Benchmarks/7zip/CPP/7zip/Archive/7z/7zIn.cpp'
source_filename = "/usr/local/google/home/aeubanks/repos/test-suite/MultiSource/Benchmarks/7zip/CPP/7zip/Archive/7z/7zIn.cpp"
target datalayout = "e-m:e-p270:32:32-p271:32:32-p272:64:64-i64:64-f80:128-n8:16:32:64-S128"
target triple = "x86_64-unknown-linux-gnu"

%class.CRecordVector.3 = type { %class.CBaseRecordVector }
%class.CBaseRecordVector = type { ptr, i32, i32, ptr, i64 }
%class.CRecordVector.4 = type { %class.CBaseRecordVector }
%"struct.NArchive::N7z::CFolder" = type <{ %class.CObjectVector, %class.CRecordVector.0, %class.CRecordVector.1, %class.CRecordVector.2, i32, i8, [3 x i8] }>
%class.CObjectVector = type { %class.CRecordVector }
%class.CRecordVector = type { %class.CBaseRecordVector }
%class.CRecordVector.0 = type { %class.CBaseRecordVector }
%class.CRecordVector.1 = type { %class.CBaseRecordVector }
%class.CRecordVector.2 = type { %class.CBaseRecordVector }
%"struct.NArchive::N7z::CBindPair" = type { i32, i32 }
%"struct.NArchive::N7z::CCoderInfo" = type { i64, %class.CBuffer, i32, i32 }
%class.CBuffer = type { ptr, i64, ptr }
%"class.NArchive::N7z::CStreamSwitch" = type <{ ptr, i8, [7 x i8] }>
%"class.NArchive::N7z::CInArchive" = type { %class.CMyComPtr, %class.CObjectVector.5, ptr, i64, [32 x i8], i64 }
%class.CMyComPtr = type { ptr }
%class.CObjectVector.5 = type { %class.CRecordVector }
%"class.NArchive::N7z::CInByte2" = type { ptr, i64, i64 }
%class.CStringBase = type { ptr, i32, i32 }
%"struct.NArchive::N7z::CUInt64DefVector" = type { %class.CRecordVector.2, %class.CRecordVector.3 }
%class.CObjectVector.7 = type { %class.CRecordVector }
%"class.NArchive::N7z::CDecoder" = type { i8, %"struct.NArchive::N7z::CBindInfoEx", i8, ptr, ptr, %class.CMyComPtr.12, %class.CObjectVector.13 }
%"struct.NArchive::N7z::CBindInfoEx" = type { %"struct.NCoderMixer::CBindInfo", %class.CRecordVector.2 }
%"struct.NCoderMixer::CBindInfo" = type { %class.CRecordVector.8, %class.CRecordVector.9, %class.CRecordVector.1, %class.CRecordVector.1 }
%class.CRecordVector.8 = type { %class.CBaseRecordVector }
%class.CRecordVector.9 = type { %class.CBaseRecordVector }
%class.CMyComPtr.12 = type { ptr }
%class.CObjectVector.13 = type { %class.CRecordVector }
%class.CBufPtrSeqOutStream = type { %struct.ISequentialOutStream, %class.CMyUnknownImp, ptr, i64, i64 }
%struct.ISequentialOutStream = type { %struct.IUnknown }
%struct.IUnknown = type { ptr }
%class.CMyUnknownImp = type { i32 }
%class.CObjectVector.6 = type { %class.CRecordVector }
%"struct.NArchive::N7z::CArchiveDatabaseEx" = type { %"struct.NArchive::N7z::CArchiveDatabase", %"struct.NArchive::N7z::CInArchiveInfo", %class.CRecordVector.2, %class.CRecordVector.1, %class.CRecordVector.1, %class.CRecordVector.1, i64, i64 }
%"struct.NArchive::N7z::CArchiveDatabase" = type { %class.CRecordVector.2, %class.CRecordVector.3, %class.CRecordVector.1, %class.CObjectVector.7, %class.CRecordVector.1, %class.CObjectVector.15, %"struct.NArchive::N7z::CUInt64DefVector", %"struct.NArchive::N7z::CUInt64DefVector", %"struct.NArchive::N7z::CUInt64DefVector", %"struct.NArchive::N7z::CUInt64DefVector", %class.CRecordVector.3 }
%class.CObjectVector.15 = type { %class.CRecordVector }
%"struct.NArchive::N7z::CInArchiveInfo" = type { %"struct.NArchive::N7z::CArchiveVersion", i64, i64, i64, i64, %class.CRecordVector.2 }
%"struct.NArchive::N7z::CArchiveVersion" = type { i8, i8 }
%"struct.NArchive::N7z::CFileItem" = type <{ i64, i32, i32, %class.CStringBase, i8, i8, i8, i8, [4 x i8] }>

$_ZN7CBufferIhED2Ev = comdat any

$_ZN8NArchive3N7z7CFolderD2Ev = comdat any

$_ZN8NArchive3N7z13CStreamSwitchD2Ev = comdat any

$_ZN8NArchive3N7z8CDecoderD2Ev = comdat any

$_ZN13CObjectVectorIN8NArchive3N7z7CFolderEED2Ev = comdat any

$_ZN13CObjectVectorI7CBufferIhEED2Ev = comdat any

$_ZN13CObjectVectorIN8NArchive3N7z10CCoderInfoEED2Ev = comdat any

$_ZN13CObjectVectorIN8NArchive3N7z10CCoderInfoEED0Ev = comdat any

$_ZN13CObjectVectorIN8NArchive3N7z10CCoderInfoEE6DeleteEii = comdat any

$_ZN13CRecordVectorIN8NArchive3N7z9CBindPairEED0Ev = comdat any

$__clang_call_terminate = comdat any

$_ZN13CObjectVectorI9CMyComPtrI8IUnknownEED2Ev = comdat any

$_ZN13CObjectVectorI9CMyComPtrI8IUnknownEED0Ev = comdat any

$_ZN13CObjectVectorI9CMyComPtrI8IUnknownEE6DeleteEii = comdat any

$_ZN8NArchive3N7z16CArchiveDatabase5ClearEv = comdat any

$_ZN7CBufferIhED0Ev = comdat any

$_ZN13CRecordVectorIjED0Ev = comdat any

$_ZN13CRecordVectorIyED0Ev = comdat any

$_ZN13CRecordVectorIbED0Ev = comdat any

$_ZN13CRecordVectorIiED0Ev = comdat any

$_ZN8NArchive3N7z7CFolderC2ERKS1_ = comdat any

$_ZN13CObjectVectorIN8NArchive3N7z10CCoderInfoEEpLERKS3_ = comdat any

$_ZN13CObjectVectorIN8NArchive3N7z7CFolderEED0Ev = comdat any

$_ZN13CObjectVectorIN8NArchive3N7z7CFolderEE6DeleteEii = comdat any

$_ZN13CObjectVectorI7CBufferIhEED0Ev = comdat any

$_ZN13CObjectVectorI7CBufferIhEE6DeleteEii = comdat any

$_ZTSN8NArchive3N7z19CInArchiveExceptionE = comdat any

$_ZTIN8NArchive3N7z19CInArchiveExceptionE = comdat any

$_ZTV13CObjectVectorIN8NArchive3N7z10CCoderInfoEE = comdat any

$_ZTS13CObjectVectorIN8NArchive3N7z10CCoderInfoEE = comdat any

$_ZTS13CRecordVectorIPvE = comdat any

$_ZTI13CRecordVectorIPvE = comdat any

$_ZTI13CObjectVectorIN8NArchive3N7z10CCoderInfoEE = comdat any

$_ZTV13CRecordVectorIN8NArchive3N7z9CBindPairEE = comdat any

$_ZTS13CRecordVectorIN8NArchive3N7z9CBindPairEE = comdat any

$_ZTI13CRecordVectorIN8NArchive3N7z9CBindPairEE = comdat any

$_ZTV13CObjectVectorI9CMyComPtrI8IUnknownEE = comdat any

$_ZTS13CObjectVectorI9CMyComPtrI8IUnknownEE = comdat any

$_ZTI13CObjectVectorI9CMyComPtrI8IUnknownEE = comdat any

$_ZTV7CBufferIhE = comdat any

$_ZTS7CBufferIhE = comdat any

$_ZTI7CBufferIhE = comdat any

$_ZTV13CRecordVectorIjE = comdat any

$_ZTS13CRecordVectorIjE = comdat any

$_ZTI13CRecordVectorIjE = comdat any

$_ZTV13CRecordVectorIyE = comdat any

$_ZTS13CRecordVectorIyE = comdat any

$_ZTI13CRecordVectorIyE = comdat any

$_ZTV13CRecordVectorIbE = comdat any

$_ZTS13CRecordVectorIbE = comdat any

$_ZTI13CRecordVectorIbE = comdat any

$_ZTV13CRecordVectorIiE = comdat any

$_ZTS13CRecordVectorIiE = comdat any

$_ZTI13CRecordVectorIiE = comdat any

$_ZTV13CObjectVectorIN8NArchive3N7z7CFolderEE = comdat any

$_ZTS13CObjectVectorIN8NArchive3N7z7CFolderEE = comdat any

$_ZTI13CObjectVectorIN8NArchive3N7z7CFolderEE = comdat any

$_ZTV13CObjectVectorI7CBufferIhEE = comdat any

$_ZTS13CObjectVectorI7CBufferIhEE = comdat any

$_ZTI13CObjectVectorI7CBufferIhEE = comdat any

@_ZTVN10__cxxabiv117__class_type_infoE = external global ptr
@_ZTSN8NArchive3N7z19CInArchiveExceptionE = linkonce_odr dso_local constant [37 x i8] c"N8NArchive3N7z19CInArchiveExceptionE\00", comdat, align 1
@_ZTIN8NArchive3N7z19CInArchiveExceptionE = linkonce_odr dso_local constant { ptr, ptr } { ptr getelementptr inbounds (ptr, ptr @_ZTVN10__cxxabiv117__class_type_infoE, i64 2), ptr @_ZTSN8NArchive3N7z19CInArchiveExceptionE }, comdat, align 8
@_ZN8NArchive3N7z10kSignatureE = external local_unnamed_addr global [6 x i8], align 1
@_ZTV13CObjectVectorIN8NArchive3N7z10CCoderInfoEE = linkonce_odr dso_local unnamed_addr constant { [5 x ptr] } { [5 x ptr] [ptr null, ptr @_ZTI13CObjectVectorIN8NArchive3N7z10CCoderInfoEE, ptr @_ZN13CObjectVectorIN8NArchive3N7z10CCoderInfoEED2Ev, ptr @_ZN13CObjectVectorIN8NArchive3N7z10CCoderInfoEED0Ev, ptr @_ZN13CObjectVectorIN8NArchive3N7z10CCoderInfoEE6DeleteEii] }, comdat, align 8
@_ZTVN10__cxxabiv120__si_class_type_infoE = external global ptr
@_ZTS13CObjectVectorIN8NArchive3N7z10CCoderInfoEE = linkonce_odr dso_local constant [45 x i8] c"13CObjectVectorIN8NArchive3N7z10CCoderInfoEE\00", comdat, align 1
@_ZTS13CRecordVectorIPvE = linkonce_odr dso_local constant [20 x i8] c"13CRecordVectorIPvE\00", comdat, align 1
@_ZTI17CBaseRecordVector = external constant ptr
@_ZTI13CRecordVectorIPvE = linkonce_odr dso_local constant { ptr, ptr, ptr } { ptr getelementptr inbounds (ptr, ptr @_ZTVN10__cxxabiv120__si_class_type_infoE, i64 2), ptr @_ZTS13CRecordVectorIPvE, ptr @_ZTI17CBaseRecordVector }, comdat, align 8
@_ZTI13CObjectVectorIN8NArchive3N7z10CCoderInfoEE = linkonce_odr dso_local constant { ptr, ptr, ptr } { ptr getelementptr inbounds (ptr, ptr @_ZTVN10__cxxabiv120__si_class_type_infoE, i64 2), ptr @_ZTS13CObjectVectorIN8NArchive3N7z10CCoderInfoEE, ptr @_ZTI13CRecordVectorIPvE }, comdat, align 8
@_ZTV13CRecordVectorIN8NArchive3N7z9CBindPairEE = linkonce_odr dso_local unnamed_addr constant { [5 x ptr] } { [5 x ptr] [ptr null, ptr @_ZTI13CRecordVectorIN8NArchive3N7z9CBindPairEE, ptr @_ZN17CBaseRecordVectorD2Ev, ptr @_ZN13CRecordVectorIN8NArchive3N7z9CBindPairEED0Ev, ptr @_ZN17CBaseRecordVector6DeleteEii] }, comdat, align 8
@_ZTS13CRecordVectorIN8NArchive3N7z9CBindPairEE = linkonce_odr dso_local constant [43 x i8] c"13CRecordVectorIN8NArchive3N7z9CBindPairEE\00", comdat, align 1
@_ZTI13CRecordVectorIN8NArchive3N7z9CBindPairEE = linkonce_odr dso_local constant { ptr, ptr, ptr } { ptr getelementptr inbounds (ptr, ptr @_ZTVN10__cxxabiv120__si_class_type_infoE, i64 2), ptr @_ZTS13CRecordVectorIN8NArchive3N7z9CBindPairEE, ptr @_ZTI17CBaseRecordVector }, comdat, align 8
@_ZTIi = external constant ptr
@_ZTV19CBufPtrSeqOutStream = external unnamed_addr constant { [8 x ptr] }, align 8
@_ZTV13CObjectVectorI9CMyComPtrI8IUnknownEE = linkonce_odr dso_local unnamed_addr constant { [5 x ptr] } { [5 x ptr] [ptr null, ptr @_ZTI13CObjectVectorI9CMyComPtrI8IUnknownEE, ptr @_ZN13CObjectVectorI9CMyComPtrI8IUnknownEED2Ev, ptr @_ZN13CObjectVectorI9CMyComPtrI8IUnknownEED0Ev, ptr @_ZN13CObjectVectorI9CMyComPtrI8IUnknownEE6DeleteEii] }, comdat, align 8
@_ZTS13CObjectVectorI9CMyComPtrI8IUnknownEE = linkonce_odr dso_local constant [39 x i8] c"13CObjectVectorI9CMyComPtrI8IUnknownEE\00", comdat, align 1
@_ZTI13CObjectVectorI9CMyComPtrI8IUnknownEE = linkonce_odr dso_local constant { ptr, ptr, ptr } { ptr getelementptr inbounds (ptr, ptr @_ZTVN10__cxxabiv120__si_class_type_infoE, i64 2), ptr @_ZTS13CObjectVectorI9CMyComPtrI8IUnknownEE, ptr @_ZTI13CRecordVectorIPvE }, comdat, align 8
@_ZTV7CBufferIhE = linkonce_odr dso_local unnamed_addr constant { [4 x ptr] } { [4 x ptr] [ptr null, ptr @_ZTI7CBufferIhE, ptr @_ZN7CBufferIhED2Ev, ptr @_ZN7CBufferIhED0Ev] }, comdat, align 8
@_ZTS7CBufferIhE = linkonce_odr dso_local constant [12 x i8] c"7CBufferIhE\00", comdat, align 1
@_ZTI7CBufferIhE = linkonce_odr dso_local constant { ptr, ptr } { ptr getelementptr inbounds (ptr, ptr @_ZTVN10__cxxabiv117__class_type_infoE, i64 2), ptr @_ZTS7CBufferIhE }, comdat, align 8
@_ZTV13CRecordVectorIjE = linkonce_odr dso_local unnamed_addr constant { [5 x ptr] } { [5 x ptr] [ptr null, ptr @_ZTI13CRecordVectorIjE, ptr @_ZN17CBaseRecordVectorD2Ev, ptr @_ZN13CRecordVectorIjED0Ev, ptr @_ZN17CBaseRecordVector6DeleteEii] }, comdat, align 8
@_ZTS13CRecordVectorIjE = linkonce_odr dso_local constant [19 x i8] c"13CRecordVectorIjE\00", comdat, align 1
@_ZTI13CRecordVectorIjE = linkonce_odr dso_local constant { ptr, ptr, ptr } { ptr getelementptr inbounds (ptr, ptr @_ZTVN10__cxxabiv120__si_class_type_infoE, i64 2), ptr @_ZTS13CRecordVectorIjE, ptr @_ZTI17CBaseRecordVector }, comdat, align 8
@_ZTV13CRecordVectorIyE = linkonce_odr dso_local unnamed_addr constant { [5 x ptr] } { [5 x ptr] [ptr null, ptr @_ZTI13CRecordVectorIyE, ptr @_ZN17CBaseRecordVectorD2Ev, ptr @_ZN13CRecordVectorIyED0Ev, ptr @_ZN17CBaseRecordVector6DeleteEii] }, comdat, align 8
@_ZTS13CRecordVectorIyE = linkonce_odr dso_local constant [19 x i8] c"13CRecordVectorIyE\00", comdat, align 1
@_ZTI13CRecordVectorIyE = linkonce_odr dso_local constant { ptr, ptr, ptr } { ptr getelementptr inbounds (ptr, ptr @_ZTVN10__cxxabiv120__si_class_type_infoE, i64 2), ptr @_ZTS13CRecordVectorIyE, ptr @_ZTI17CBaseRecordVector }, comdat, align 8
@_ZTV13CRecordVectorIbE = linkonce_odr dso_local unnamed_addr constant { [5 x ptr] } { [5 x ptr] [ptr null, ptr @_ZTI13CRecordVectorIbE, ptr @_ZN17CBaseRecordVectorD2Ev, ptr @_ZN13CRecordVectorIbED0Ev, ptr @_ZN17CBaseRecordVector6DeleteEii] }, comdat, align 8
@_ZTS13CRecordVectorIbE = linkonce_odr dso_local constant [19 x i8] c"13CRecordVectorIbE\00", comdat, align 1
@_ZTI13CRecordVectorIbE = linkonce_odr dso_local constant { ptr, ptr, ptr } { ptr getelementptr inbounds (ptr, ptr @_ZTVN10__cxxabiv120__si_class_type_infoE, i64 2), ptr @_ZTS13CRecordVectorIbE, ptr @_ZTI17CBaseRecordVector }, comdat, align 8
@_ZTV13CRecordVectorIiE = linkonce_odr dso_local unnamed_addr constant { [5 x ptr] } { [5 x ptr] [ptr null, ptr @_ZTI13CRecordVectorIiE, ptr @_ZN17CBaseRecordVectorD2Ev, ptr @_ZN13CRecordVectorIiED0Ev, ptr @_ZN17CBaseRecordVector6DeleteEii] }, comdat, align 8
@_ZTS13CRecordVectorIiE = linkonce_odr dso_local constant [19 x i8] c"13CRecordVectorIiE\00", comdat, align 1
@_ZTI13CRecordVectorIiE = linkonce_odr dso_local constant { ptr, ptr, ptr } { ptr getelementptr inbounds (ptr, ptr @_ZTVN10__cxxabiv120__si_class_type_infoE, i64 2), ptr @_ZTS13CRecordVectorIiE, ptr @_ZTI17CBaseRecordVector }, comdat, align 8
@_ZTV13CObjectVectorIN8NArchive3N7z7CFolderEE = linkonce_odr dso_local unnamed_addr constant { [5 x ptr] } { [5 x ptr] [ptr null, ptr @_ZTI13CObjectVectorIN8NArchive3N7z7CFolderEE, ptr @_ZN13CObjectVectorIN8NArchive3N7z7CFolderEED2Ev, ptr @_ZN13CObjectVectorIN8NArchive3N7z7CFolderEED0Ev, ptr @_ZN13CObjectVectorIN8NArchive3N7z7CFolderEE6DeleteEii] }, comdat, align 8
@_ZTS13CObjectVectorIN8NArchive3N7z7CFolderEE = linkonce_odr dso_local constant [41 x i8] c"13CObjectVectorIN8NArchive3N7z7CFolderEE\00", comdat, align 1
@_ZTI13CObjectVectorIN8NArchive3N7z7CFolderEE = linkonce_odr dso_local constant { ptr, ptr, ptr } { ptr getelementptr inbounds (ptr, ptr @_ZTVN10__cxxabiv120__si_class_type_infoE, i64 2), ptr @_ZTS13CObjectVectorIN8NArchive3N7z7CFolderEE, ptr @_ZTI13CRecordVectorIPvE }, comdat, align 8
@_ZTV13CObjectVectorI7CBufferIhEE = linkonce_odr dso_local unnamed_addr constant { [5 x ptr] } { [5 x ptr] [ptr null, ptr @_ZTI13CObjectVectorI7CBufferIhEE, ptr @_ZN13CObjectVectorI7CBufferIhEED2Ev, ptr @_ZN13CObjectVectorI7CBufferIhEED0Ev, ptr @_ZN13CObjectVectorI7CBufferIhEE6DeleteEii] }, comdat, align 8
@_ZTS13CObjectVectorI7CBufferIhEE = linkonce_odr dso_local constant [29 x i8] c"13CObjectVectorI7CBufferIhEE\00", comdat, align 1
@_ZTI13CObjectVectorI7CBufferIhEE = linkonce_odr dso_local constant { ptr, ptr, ptr } { ptr getelementptr inbounds (ptr, ptr @_ZTVN10__cxxabiv120__si_class_type_infoE, i64 2), ptr @_ZTS13CObjectVectorI7CBufferIhEE, ptr @_ZTI13CRecordVectorIPvE }, comdat, align 8

; Function Attrs: uwtable
define dso_local noundef zeroext i1 @_ZNK8NArchive3N7z7CFolder14CheckStructureEv(ptr nocapture noundef nonnull readonly align 8 dereferenceable(133) %this) local_unnamed_addr #0 align 2 personality ptr @__gxx_personality_v0 {
entry:
  %v = alloca %class.CRecordVector.3, align 8
  %mask = alloca [32 x i32], align 16
  %inStreamToCoder = alloca %class.CRecordVector.4, align 8
  %outStreamToCoder = alloca %class.CRecordVector.4, align 8
  %_size.i = getelementptr inbounds %class.CBaseRecordVector, ptr %this, i64 0, i32 2
  %0 = load i32, ptr %_size.i, align 4, !tbaa !5
  %cmp = icmp sgt i32 %0, 32
  br i1 %cmp, label %cleanup168, label %lor.lhs.false

lor.lhs.false:                                    ; preds = %entry
  %_size.i217 = getelementptr inbounds %"struct.NArchive::N7z::CFolder", ptr %this, i64 0, i32 1, i32 0, i32 2
  %1 = load i32, ptr %_size.i217, align 4, !tbaa !5
  %cmp3 = icmp sgt i32 %1, 32
  br i1 %cmp3, label %cleanup168, label %if.end

if.end:                                           ; preds = %lor.lhs.false
  call void @llvm.lifetime.start.p0(i64 32, ptr nonnull %v) #16
  %_capacity.i.i = getelementptr inbounds %class.CBaseRecordVector, ptr %v, i64 0, i32 1
  %_itemSize.i.i = getelementptr inbounds %class.CBaseRecordVector, ptr %v, i64 0, i32 4
  call void @llvm.memset.p0.i64(ptr noundef nonnull align 8 dereferenceable(16) %_capacity.i.i, i8 0, i64 16, i1 false)
  store i64 1, ptr %_itemSize.i.i, align 8, !tbaa !12
  store ptr getelementptr inbounds ({ [5 x ptr] }, ptr @_ZTV13CRecordVectorIbE, i64 0, inrange i32 0, i64 2), ptr %v, align 8, !tbaa !13
  %_size.i219 = getelementptr inbounds %"struct.NArchive::N7z::CFolder", ptr %this, i64 0, i32 2, i32 0, i32 2
  %2 = load i32, ptr %_size.i219, align 4, !tbaa !5
  %add = add nsw i32 %2, %1
  invoke void @_ZN17CBaseRecordVector5ClearEv(ptr noundef nonnull align 8 dereferenceable(32) %v)
          to label %.noexc unwind label %lpad.loopexit.split-lp303

.noexc:                                           ; preds = %if.end
  invoke void @_ZN17CBaseRecordVector7ReserveEi(ptr noundef nonnull align 8 dereferenceable(32) %v, i32 noundef %add)
          to label %.noexc220 unwind label %lpad.loopexit.split-lp303

.noexc220:                                        ; preds = %.noexc
  %cmp5.i = icmp sgt i32 %add, 0
  br i1 %cmp5.i, label %for.body.lr.ph.i, label %_ZN8NArchive3N7zL21BoolVector_Fill_FalseER13CRecordVectorIbEi.exit

for.body.lr.ph.i:                                 ; preds = %.noexc220
  %_items.i.i = getelementptr inbounds %class.CBaseRecordVector, ptr %v, i64 0, i32 3
  %_size.i.i = getelementptr inbounds %class.CBaseRecordVector, ptr %v, i64 0, i32 2
  br label %for.body.i

for.body.i:                                       ; preds = %.noexc221, %for.body.lr.ph.i
  %i.06.i = phi i32 [ 0, %for.body.lr.ph.i ], [ %inc.i, %.noexc221 ]
  invoke void @_ZN17CBaseRecordVector18ReserveOnePositionEv(ptr noundef nonnull align 8 dereferenceable(32) %v)
          to label %.noexc221 unwind label %lpad.loopexit302

.noexc221:                                        ; preds = %for.body.i
  %3 = load ptr, ptr %_items.i.i, align 8, !tbaa !15
  %4 = load i32, ptr %_size.i.i, align 4, !tbaa !5
  %idxprom.i.i = sext i32 %4 to i64
  %arrayidx.i.i = getelementptr inbounds i8, ptr %3, i64 %idxprom.i.i
  store i8 0, ptr %arrayidx.i.i, align 1, !tbaa !16
  %inc.i.i = add nsw i32 %4, 1
  store i32 %inc.i.i, ptr %_size.i.i, align 4, !tbaa !5
  %inc.i = add nuw nsw i32 %i.06.i, 1
  %exitcond.not.i = icmp eq i32 %inc.i, %add
  br i1 %exitcond.not.i, label %_ZN8NArchive3N7zL21BoolVector_Fill_FalseER13CRecordVectorIbEi.exit, label %for.body.i, !llvm.loop !18

_ZN8NArchive3N7zL21BoolVector_Fill_FalseER13CRecordVectorIbEi.exit: ; preds = %.noexc221, %.noexc220
  %5 = load i32, ptr %_size.i217, align 4, !tbaa !5
  %cmp13307 = icmp sgt i32 %5, 0
  br i1 %cmp13307, label %for.body.lr.ph, label %for.cond21.preheader

for.body.lr.ph:                                   ; preds = %_ZN8NArchive3N7zL21BoolVector_Fill_FalseER13CRecordVectorIbEi.exit
  %_items.i = getelementptr inbounds %"struct.NArchive::N7z::CFolder", ptr %this, i64 0, i32 1, i32 0, i32 3
  %6 = load ptr, ptr %_items.i, align 8, !tbaa !15
  %7 = getelementptr inbounds i8, ptr %v, i64 12
  %v.val215 = load i32, ptr %7, align 4, !tbaa !5
  %8 = getelementptr inbounds i8, ptr %v, i64 16
  %wide.trip.count = zext i32 %5 to i64
  br label %for.body

for.cond:                                         ; preds = %invoke.cont17
  %indvars.iv.next = add nuw nsw i64 %indvars.iv, 1
  %exitcond.not = icmp eq i64 %indvars.iv.next, %wide.trip.count
  br i1 %exitcond.not, label %for.cond21.preheader, label %for.body, !llvm.loop !20

for.cond21.preheader:                             ; preds = %for.cond, %_ZN8NArchive3N7zL21BoolVector_Fill_FalseER13CRecordVectorIbEi.exit
  %9 = load i32, ptr %_size.i219, align 4, !tbaa !5
  %cmp25309 = icmp sgt i32 %9, 0
  br i1 %cmp25309, label %for.body26.lr.ph, label %for.end36

for.body26.lr.ph:                                 ; preds = %for.cond21.preheader
  %_items.i226 = getelementptr inbounds %"struct.NArchive::N7z::CFolder", ptr %this, i64 0, i32 2, i32 0, i32 3
  %10 = load ptr, ptr %_items.i226, align 8, !tbaa !15
  %11 = getelementptr inbounds i8, ptr %v, i64 12
  %v.val213 = load i32, ptr %11, align 4, !tbaa !5
  %12 = getelementptr inbounds i8, ptr %v, i64 16
  %wide.trip.count335 = zext i32 %9 to i64
  br label %for.body26

for.body:                                         ; preds = %for.body.lr.ph, %for.cond
  %indvars.iv = phi i64 [ 0, %for.body.lr.ph ], [ %indvars.iv.next, %for.cond ]
  %arrayidx.i = getelementptr inbounds %"struct.NArchive::N7z::CBindPair", ptr %6, i64 %indvars.iv
  %13 = load i32, ptr %arrayidx.i, align 4, !tbaa !21
  %cmp.not.i = icmp ugt i32 %v.val215, %13
  br i1 %cmp.not.i, label %invoke.cont17, label %cleanup168.critedge

invoke.cont17:                                    ; preds = %for.body
  %v.val216 = load ptr, ptr %8, align 8
  %idxprom.i.i223 = sext i32 %13 to i64
  %arrayidx.i.i224 = getelementptr inbounds i8, ptr %v.val216, i64 %idxprom.i.i223
  %14 = load i8, ptr %arrayidx.i.i224, align 1, !tbaa !16, !range !23, !noundef !24
  %tobool.i.not = icmp eq i8 %14, 0
  store i8 1, ptr %arrayidx.i.i224, align 1, !tbaa !16
  br i1 %tobool.i.not, label %for.cond, label %cleanup168.critedge

lpad.loopexit302:                                 ; preds = %for.body.i
  %lpad.loopexit304 = landingpad { ptr, i32 }
          cleanup
  br label %ehcleanup

lpad.loopexit.split-lp303:                        ; preds = %if.end, %.noexc
  %lpad.loopexit.split-lp305 = landingpad { ptr, i32 }
          cleanup
  br label %ehcleanup

lpad10.loopexit:                                  ; preds = %for.body.i247
  %lpad.loopexit297 = landingpad { ptr, i32 }
          cleanup
  br label %ehcleanup

lpad10.loopexit.split-lp:                         ; preds = %for.end36, %.noexc248
  %lpad.loopexit.split-lp298 = landingpad { ptr, i32 }
          cleanup
  br label %ehcleanup

for.cond21:                                       ; preds = %invoke.cont30
  %indvars.iv.next333 = add nuw nsw i64 %indvars.iv332, 1
  %exitcond336.not = icmp eq i64 %indvars.iv.next333, %wide.trip.count335
  br i1 %exitcond336.not, label %for.end36, label %for.body26, !llvm.loop !25

for.body26:                                       ; preds = %for.body26.lr.ph, %for.cond21
  %indvars.iv332 = phi i64 [ 0, %for.body26.lr.ph ], [ %indvars.iv.next333, %for.cond21 ]
  %arrayidx.i228 = getelementptr inbounds i32, ptr %10, i64 %indvars.iv332
  %15 = load i32, ptr %arrayidx.i228, align 4, !tbaa !26
  %cmp.not.i229 = icmp ugt i32 %v.val213, %15
  br i1 %cmp.not.i229, label %invoke.cont30, label %cleanup168.critedge

invoke.cont30:                                    ; preds = %for.body26
  %v.val214 = load ptr, ptr %12, align 8
  %idxprom.i.i230 = sext i32 %15 to i64
  %arrayidx.i.i231 = getelementptr inbounds i8, ptr %v.val214, i64 %idxprom.i.i230
  %16 = load i8, ptr %arrayidx.i.i231, align 1, !tbaa !16, !range !23, !noundef !24
  %tobool.i232.not = icmp eq i8 %16, 0
  store i8 1, ptr %arrayidx.i.i231, align 1, !tbaa !16
  br i1 %tobool.i232.not, label %for.cond21, label %cleanup168.critedge

for.end36:                                        ; preds = %for.cond21, %for.cond21.preheader
  %_size.i236 = getelementptr inbounds %"struct.NArchive::N7z::CFolder", ptr %this, i64 0, i32 3, i32 0, i32 2
  %17 = load i32, ptr %_size.i236, align 4, !tbaa !5
  invoke void @_ZN17CBaseRecordVector5ClearEv(ptr noundef nonnull align 8 dereferenceable(32) %v)
          to label %.noexc248 unwind label %lpad10.loopexit.split-lp

.noexc248:                                        ; preds = %for.end36
  invoke void @_ZN17CBaseRecordVector7ReserveEi(ptr noundef nonnull align 8 dereferenceable(32) %v, i32 noundef %17)
          to label %.noexc249 unwind label %lpad10.loopexit.split-lp

.noexc249:                                        ; preds = %.noexc248
  %cmp5.i237 = icmp sgt i32 %17, 0
  br i1 %cmp5.i237, label %for.body.lr.ph.i240, label %_ZN8NArchive3N7zL21BoolVector_Fill_FalseER13CRecordVectorIbEi.exit251

for.body.lr.ph.i240:                              ; preds = %.noexc249
  %_items.i.i238 = getelementptr inbounds %class.CBaseRecordVector, ptr %v, i64 0, i32 3
  %_size.i.i239 = getelementptr inbounds %class.CBaseRecordVector, ptr %v, i64 0, i32 2
  br label %for.body.i247

for.body.i247:                                    ; preds = %.noexc250, %for.body.lr.ph.i240
  %i.06.i241 = phi i32 [ 0, %for.body.lr.ph.i240 ], [ %inc.i245, %.noexc250 ]
  invoke void @_ZN17CBaseRecordVector18ReserveOnePositionEv(ptr noundef nonnull align 8 dereferenceable(32) %v)
          to label %.noexc250 unwind label %lpad10.loopexit

.noexc250:                                        ; preds = %for.body.i247
  %18 = load ptr, ptr %_items.i.i238, align 8, !tbaa !15
  %19 = load i32, ptr %_size.i.i239, align 4, !tbaa !5
  %idxprom.i.i242 = sext i32 %19 to i64
  %arrayidx.i.i243 = getelementptr inbounds i8, ptr %18, i64 %idxprom.i.i242
  store i8 0, ptr %arrayidx.i.i243, align 1, !tbaa !16
  %inc.i.i244 = add nsw i32 %19, 1
  store i32 %inc.i.i244, ptr %_size.i.i239, align 4, !tbaa !5
  %inc.i245 = add nuw nsw i32 %i.06.i241, 1
  %exitcond.not.i246 = icmp eq i32 %inc.i245, %17
  br i1 %exitcond.not.i246, label %_ZN8NArchive3N7zL21BoolVector_Fill_FalseER13CRecordVectorIbEi.exit251, label %for.body.i247, !llvm.loop !18

_ZN8NArchive3N7zL21BoolVector_Fill_FalseER13CRecordVectorIbEi.exit251: ; preds = %.noexc250, %.noexc249
  %20 = load i32, ptr %_size.i217, align 4, !tbaa !5
  %cmp44311 = icmp sgt i32 %20, 0
  br i1 %cmp44311, label %for.body45.lr.ph, label %cleanup

for.body45.lr.ph:                                 ; preds = %_ZN8NArchive3N7zL21BoolVector_Fill_FalseER13CRecordVectorIbEi.exit251
  %_items.i253 = getelementptr inbounds %"struct.NArchive::N7z::CFolder", ptr %this, i64 0, i32 1, i32 0, i32 3
  %21 = load ptr, ptr %_items.i253, align 8, !tbaa !15
  %22 = getelementptr inbounds i8, ptr %v, i64 12
  %v.val = load i32, ptr %22, align 4, !tbaa !5
  %23 = getelementptr inbounds i8, ptr %v, i64 16
  %wide.trip.count340 = zext i32 %20 to i64
  br label %for.body45

for.cond40:                                       ; preds = %invoke.cont49
  %indvars.iv.next338 = add nuw nsw i64 %indvars.iv337, 1
  %exitcond341.not = icmp eq i64 %indvars.iv.next338, %wide.trip.count340
  br i1 %exitcond341.not, label %cleanup, label %for.body45, !llvm.loop !27

for.body45:                                       ; preds = %for.body45.lr.ph, %for.cond40
  %indvars.iv337 = phi i64 [ 0, %for.body45.lr.ph ], [ %indvars.iv.next338, %for.cond40 ]
  %OutIndex = getelementptr inbounds %"struct.NArchive::N7z::CBindPair", ptr %21, i64 %indvars.iv337, i32 1
  %24 = load i32, ptr %OutIndex, align 4, !tbaa !28
  %cmp.not.i256 = icmp ugt i32 %v.val, %24
  br i1 %cmp.not.i256, label %invoke.cont49, label %cleanup168.critedge

invoke.cont49:                                    ; preds = %for.body45
  %v.val212 = load ptr, ptr %23, align 8
  %idxprom.i.i257 = sext i32 %24 to i64
  %arrayidx.i.i258 = getelementptr inbounds i8, ptr %v.val212, i64 %idxprom.i.i257
  %25 = load i8, ptr %arrayidx.i.i258, align 1, !tbaa !16, !range !23, !noundef !24
  %tobool.i259.not = icmp eq i8 %25, 0
  store i8 1, ptr %arrayidx.i.i258, align 1, !tbaa !16
  br i1 %tobool.i259.not, label %for.cond40, label %cleanup168.critedge

cleanup:                                          ; preds = %for.cond40, %_ZN8NArchive3N7zL21BoolVector_Fill_FalseER13CRecordVectorIbEi.exit251
  call void @_ZN17CBaseRecordVectorD2Ev(ptr noundef nonnull align 8 dereferenceable(32) %v) #16
  call void @llvm.lifetime.end.p0(i64 32, ptr nonnull %v) #16
  call void @llvm.lifetime.start.p0(i64 128, ptr nonnull %mask) #16
  call void @llvm.memset.p0.i64(ptr noundef nonnull align 16 dereferenceable(128) %mask, i8 0, i64 128, i1 false), !tbaa !26
  call void @llvm.lifetime.start.p0(i64 32, ptr nonnull %inStreamToCoder) #16
  %_capacity.i.i263 = getelementptr inbounds %class.CBaseRecordVector, ptr %inStreamToCoder, i64 0, i32 1
  %_itemSize.i.i264 = getelementptr inbounds %class.CBaseRecordVector, ptr %inStreamToCoder, i64 0, i32 4
  call void @llvm.memset.p0.i64(ptr noundef nonnull align 8 dereferenceable(16) %_capacity.i.i263, i8 0, i64 16, i1 false)
  store i64 4, ptr %_itemSize.i.i264, align 8, !tbaa !12
  store ptr getelementptr inbounds ({ [5 x ptr] }, ptr @_ZTV13CRecordVectorIiE, i64 0, inrange i32 0, i64 2), ptr %inStreamToCoder, align 8, !tbaa !13
  call void @llvm.lifetime.start.p0(i64 32, ptr nonnull %outStreamToCoder) #16
  %_capacity.i.i265 = getelementptr inbounds %class.CBaseRecordVector, ptr %outStreamToCoder, i64 0, i32 1
  %_itemSize.i.i266 = getelementptr inbounds %class.CBaseRecordVector, ptr %outStreamToCoder, i64 0, i32 4
  call void @llvm.memset.p0.i64(ptr noundef nonnull align 8 dereferenceable(16) %_capacity.i.i265, i8 0, i64 16, i1 false)
  store i64 4, ptr %_itemSize.i.i266, align 8, !tbaa !12
  store ptr getelementptr inbounds ({ [5 x ptr] }, ptr @_ZTV13CRecordVectorIiE, i64 0, inrange i32 0, i64 2), ptr %outStreamToCoder, align 8, !tbaa !13
  %26 = load i32, ptr %_size.i, align 4, !tbaa !5
  %cmp73318 = icmp sgt i32 %26, 0
  br i1 %cmp73318, label %for.body74.lr.ph, label %for.cond100.preheader

ehcleanup:                                        ; preds = %lpad10.loopexit, %lpad10.loopexit.split-lp, %lpad.loopexit302, %lpad.loopexit.split-lp303
  %.pn = phi { ptr, i32 } [ %lpad.loopexit304, %lpad.loopexit302 ], [ %lpad.loopexit.split-lp305, %lpad.loopexit.split-lp303 ], [ %lpad.loopexit297, %lpad10.loopexit ], [ %lpad.loopexit.split-lp298, %lpad10.loopexit.split-lp ]
  call void @_ZN17CBaseRecordVectorD2Ev(ptr noundef nonnull align 8 dereferenceable(32) %v) #16
  call void @llvm.lifetime.end.p0(i64 32, ptr nonnull %v) #16
  br label %ehcleanup169

for.body74.lr.ph:                                 ; preds = %cleanup
  %_items.i.i268 = getelementptr inbounds %class.CBaseRecordVector, ptr %this, i64 0, i32 3
  %_items.i271 = getelementptr inbounds %class.CBaseRecordVector, ptr %inStreamToCoder, i64 0, i32 3
  %_size.i272 = getelementptr inbounds %class.CBaseRecordVector, ptr %inStreamToCoder, i64 0, i32 2
  %_items.i277 = getelementptr inbounds %class.CBaseRecordVector, ptr %outStreamToCoder, i64 0, i32 3
  %_size.i278 = getelementptr inbounds %class.CBaseRecordVector, ptr %outStreamToCoder, i64 0, i32 2
  br label %for.body74

for.cond100.preheader:                            ; preds = %for.end94, %cleanup
  %27 = load i32, ptr %_size.i217, align 4, !tbaa !5
  %cmp104320 = icmp sgt i32 %27, 0
  br i1 %cmp104320, label %for.body105.lr.ph, label %for.end121

for.body105.lr.ph:                                ; preds = %for.cond100.preheader
  %_items.i285 = getelementptr inbounds %"struct.NArchive::N7z::CFolder", ptr %this, i64 0, i32 1, i32 0, i32 3
  %28 = load ptr, ptr %_items.i285, align 8, !tbaa !15
  %_items.i288 = getelementptr inbounds %class.CBaseRecordVector, ptr %outStreamToCoder, i64 0, i32 3
  %29 = load ptr, ptr %_items.i288, align 8, !tbaa !15
  %_items.i291 = getelementptr inbounds %class.CBaseRecordVector, ptr %inStreamToCoder, i64 0, i32 3
  %30 = load ptr, ptr %_items.i291, align 8, !tbaa !15
  %wide.trip.count351 = zext i32 %27 to i64
  %xtraiter = and i64 %wide.trip.count351, 1
  %31 = icmp eq i32 %27, 1
  br i1 %31, label %for.end121.loopexit.unr-lcssa, label %for.body105.lr.ph.new

for.body105.lr.ph.new:                            ; preds = %for.body105.lr.ph
  %unroll_iter = and i64 %wide.trip.count351, 4294967294
  br label %for.body105

for.body74:                                       ; preds = %for.body74.lr.ph, %for.end94
  %indvars.iv345 = phi i64 [ 0, %for.body74.lr.ph ], [ %indvars.iv.next346, %for.end94 ]
  %32 = load ptr, ptr %_items.i.i268, align 8, !tbaa !15
  %arrayidx.i.i270 = getelementptr inbounds ptr, ptr %32, i64 %indvars.iv345
  %33 = load ptr, ptr %arrayidx.i.i270, align 8, !tbaa !29
  %NumInStreams = getelementptr inbounds %"struct.NArchive::N7z::CCoderInfo", ptr %33, i64 0, i32 2
  %34 = load i32, ptr %NumInStreams, align 8, !tbaa !30
  %cmp80314.not = icmp eq i32 %34, 0
  br i1 %cmp80314.not, label %for.cond87.preheader, label %for.body81.preheader

for.body81.preheader:                             ; preds = %for.body74
  %35 = trunc i64 %indvars.iv345 to i32
  br label %for.body81

for.cond87.preheader:                             ; preds = %for.inc84, %for.body74
  %NumOutStreams = getelementptr inbounds %"struct.NArchive::N7z::CCoderInfo", ptr %33, i64 0, i32 3
  %36 = load i32, ptr %NumOutStreams, align 4, !tbaa !34
  %cmp88316.not = icmp eq i32 %36, 0
  br i1 %cmp88316.not, label %for.end94, label %for.body89.preheader

for.body89.preheader:                             ; preds = %for.cond87.preheader
  %37 = trunc i64 %indvars.iv345 to i32
  br label %for.body89

for.body81:                                       ; preds = %for.body81.preheader, %for.inc84
  %j.0315 = phi i32 [ %inc85, %for.inc84 ], [ 0, %for.body81.preheader ]
  invoke void @_ZN17CBaseRecordVector18ReserveOnePositionEv(ptr noundef nonnull align 8 dereferenceable(32) %inStreamToCoder)
          to label %for.inc84 unwind label %lpad76.loopexit.split-lp

for.inc84:                                        ; preds = %for.body81
  %38 = load ptr, ptr %_items.i271, align 8, !tbaa !15
  %39 = load i32, ptr %_size.i272, align 4, !tbaa !5
  %idxprom.i273 = sext i32 %39 to i64
  %arrayidx.i274 = getelementptr inbounds i32, ptr %38, i64 %idxprom.i273
  store i32 %35, ptr %arrayidx.i274, align 4, !tbaa !26
  %40 = load i32, ptr %_size.i272, align 4, !tbaa !5
  %inc.i275 = add nsw i32 %40, 1
  store i32 %inc.i275, ptr %_size.i272, align 4, !tbaa !5
  %inc85 = add nuw i32 %j.0315, 1
  %41 = load i32, ptr %NumInStreams, align 8, !tbaa !30
  %cmp80 = icmp ult i32 %inc85, %41
  br i1 %cmp80, label %for.body81, label %for.cond87.preheader, !llvm.loop !35

lpad76.loopexit:                                  ; preds = %for.body89
  %lpad.loopexit = landingpad { ptr, i32 }
          cleanup
  br label %lpad76

lpad76.loopexit.split-lp:                         ; preds = %for.body81
  %lpad.loopexit.split-lp = landingpad { ptr, i32 }
          cleanup
  br label %lpad76

lpad76:                                           ; preds = %lpad76.loopexit.split-lp, %lpad76.loopexit
  %lpad.phi = phi { ptr, i32 } [ %lpad.loopexit, %lpad76.loopexit ], [ %lpad.loopexit.split-lp, %lpad76.loopexit.split-lp ]
  call void @_ZN17CBaseRecordVectorD2Ev(ptr noundef nonnull align 8 dereferenceable(32) %outStreamToCoder) #16
  call void @llvm.lifetime.end.p0(i64 32, ptr nonnull %outStreamToCoder) #16
  call void @_ZN17CBaseRecordVectorD2Ev(ptr noundef nonnull align 8 dereferenceable(32) %inStreamToCoder) #16
  call void @llvm.lifetime.end.p0(i64 32, ptr nonnull %inStreamToCoder) #16
  call void @llvm.lifetime.end.p0(i64 128, ptr nonnull %mask) #16
  br label %ehcleanup169

for.body89:                                       ; preds = %for.body89.preheader, %for.inc92
  %j.1317 = phi i32 [ %inc93, %for.inc92 ], [ 0, %for.body89.preheader ]
  invoke void @_ZN17CBaseRecordVector18ReserveOnePositionEv(ptr noundef nonnull align 8 dereferenceable(32) %outStreamToCoder)
          to label %for.inc92 unwind label %lpad76.loopexit

for.inc92:                                        ; preds = %for.body89
  %42 = load ptr, ptr %_items.i277, align 8, !tbaa !15
  %43 = load i32, ptr %_size.i278, align 4, !tbaa !5
  %idxprom.i279 = sext i32 %43 to i64
  %arrayidx.i280 = getelementptr inbounds i32, ptr %42, i64 %idxprom.i279
  store i32 %37, ptr %arrayidx.i280, align 4, !tbaa !26
  %44 = load i32, ptr %_size.i278, align 4, !tbaa !5
  %inc.i281 = add nsw i32 %44, 1
  store i32 %inc.i281, ptr %_size.i278, align 4, !tbaa !5
  %inc93 = add nuw i32 %j.1317, 1
  %45 = load i32, ptr %NumOutStreams, align 4, !tbaa !34
  %cmp88 = icmp ult i32 %inc93, %45
  br i1 %cmp88, label %for.body89, label %for.end94, !llvm.loop !36

for.end94:                                        ; preds = %for.inc92, %for.cond87.preheader
  %indvars.iv.next346 = add nuw nsw i64 %indvars.iv345, 1
  %46 = load i32, ptr %_size.i, align 4, !tbaa !5
  %47 = sext i32 %46 to i64
  %cmp73 = icmp slt i64 %indvars.iv.next346, %47
  br i1 %cmp73, label %for.body74, label %for.cond100.preheader, !llvm.loop !37

for.body105:                                      ; preds = %for.body105, %for.body105.lr.ph.new
  %indvars.iv348 = phi i64 [ 0, %for.body105.lr.ph.new ], [ %indvars.iv.next349.1, %for.body105 ]
  %niter = phi i64 [ 0, %for.body105.lr.ph.new ], [ %niter.next.1, %for.body105 ]
  %arrayidx.i287 = getelementptr inbounds %"struct.NArchive::N7z::CBindPair", ptr %28, i64 %indvars.iv348
  %OutIndex110 = getelementptr inbounds %"struct.NArchive::N7z::CBindPair", ptr %28, i64 %indvars.iv348, i32 1
  %48 = load i32, ptr %OutIndex110, align 4, !tbaa !28
  %idxprom.i289 = sext i32 %48 to i64
  %arrayidx.i290 = getelementptr inbounds i32, ptr %29, i64 %idxprom.i289
  %49 = load i32, ptr %arrayidx.i290, align 4, !tbaa !26
  %shl = shl nuw i32 1, %49
  %50 = load i32, ptr %arrayidx.i287, align 4, !tbaa !21
  %idxprom.i292 = sext i32 %50 to i64
  %arrayidx.i293 = getelementptr inbounds i32, ptr %30, i64 %idxprom.i292
  %51 = load i32, ptr %arrayidx.i293, align 4, !tbaa !26
  %idxprom116 = sext i32 %51 to i64
  %arrayidx117 = getelementptr inbounds [32 x i32], ptr %mask, i64 0, i64 %idxprom116
  %52 = load i32, ptr %arrayidx117, align 4, !tbaa !26
  %or = or i32 %52, %shl
  store i32 %or, ptr %arrayidx117, align 4, !tbaa !26
  %indvars.iv.next349 = or i64 %indvars.iv348, 1
  %arrayidx.i287.1 = getelementptr inbounds %"struct.NArchive::N7z::CBindPair", ptr %28, i64 %indvars.iv.next349
  %OutIndex110.1 = getelementptr inbounds %"struct.NArchive::N7z::CBindPair", ptr %28, i64 %indvars.iv.next349, i32 1
  %53 = load i32, ptr %OutIndex110.1, align 4, !tbaa !28
  %idxprom.i289.1 = sext i32 %53 to i64
  %arrayidx.i290.1 = getelementptr inbounds i32, ptr %29, i64 %idxprom.i289.1
  %54 = load i32, ptr %arrayidx.i290.1, align 4, !tbaa !26
  %shl.1 = shl nuw i32 1, %54
  %55 = load i32, ptr %arrayidx.i287.1, align 4, !tbaa !21
  %idxprom.i292.1 = sext i32 %55 to i64
  %arrayidx.i293.1 = getelementptr inbounds i32, ptr %30, i64 %idxprom.i292.1
  %56 = load i32, ptr %arrayidx.i293.1, align 4, !tbaa !26
  %idxprom116.1 = sext i32 %56 to i64
  %arrayidx117.1 = getelementptr inbounds [32 x i32], ptr %mask, i64 0, i64 %idxprom116.1
  %57 = load i32, ptr %arrayidx117.1, align 4, !tbaa !26
  %or.1 = or i32 %57, %shl.1
  store i32 %or.1, ptr %arrayidx117.1, align 4, !tbaa !26
  %indvars.iv.next349.1 = add nuw nsw i64 %indvars.iv348, 2
  %niter.next.1 = add i64 %niter, 2
  %niter.ncmp.1 = icmp eq i64 %niter.next.1, %unroll_iter
  br i1 %niter.ncmp.1, label %for.end121.loopexit.unr-lcssa, label %for.body105, !llvm.loop !38

for.end121.loopexit.unr-lcssa:                    ; preds = %for.body105, %for.body105.lr.ph
  %indvars.iv348.unr = phi i64 [ 0, %for.body105.lr.ph ], [ %indvars.iv.next349.1, %for.body105 ]
  %lcmp.mod.not = icmp eq i64 %xtraiter, 0
  br i1 %lcmp.mod.not, label %for.end121, label %for.body105.epil

for.body105.epil:                                 ; preds = %for.end121.loopexit.unr-lcssa
  %arrayidx.i287.epil = getelementptr inbounds %"struct.NArchive::N7z::CBindPair", ptr %28, i64 %indvars.iv348.unr
  %OutIndex110.epil = getelementptr inbounds %"struct.NArchive::N7z::CBindPair", ptr %28, i64 %indvars.iv348.unr, i32 1
  %58 = load i32, ptr %OutIndex110.epil, align 4, !tbaa !28
  %idxprom.i289.epil = sext i32 %58 to i64
  %arrayidx.i290.epil = getelementptr inbounds i32, ptr %29, i64 %idxprom.i289.epil
  %59 = load i32, ptr %arrayidx.i290.epil, align 4, !tbaa !26
  %shl.epil = shl nuw i32 1, %59
  %60 = load i32, ptr %arrayidx.i287.epil, align 4, !tbaa !21
  %idxprom.i292.epil = sext i32 %60 to i64
  %arrayidx.i293.epil = getelementptr inbounds i32, ptr %30, i64 %idxprom.i292.epil
  %61 = load i32, ptr %arrayidx.i293.epil, align 4, !tbaa !26
  %idxprom116.epil = sext i32 %61 to i64
  %arrayidx117.epil = getelementptr inbounds [32 x i32], ptr %mask, i64 0, i64 %idxprom116.epil
  %62 = load i32, ptr %arrayidx117.epil, align 4, !tbaa !26
  %or.epil = or i32 %62, %shl.epil
  store i32 %or.epil, ptr %arrayidx117.epil, align 4, !tbaa !26
  br label %for.end121

for.end121:                                       ; preds = %for.body105.epil, %for.end121.loopexit.unr-lcssa, %for.cond100.preheader
  call void @_ZN17CBaseRecordVectorD2Ev(ptr noundef nonnull align 8 dereferenceable(32) %outStreamToCoder) #16
  call void @llvm.lifetime.end.p0(i64 32, ptr nonnull %outStreamToCoder) #16
  call void @_ZN17CBaseRecordVectorD2Ev(ptr noundef nonnull align 8 dereferenceable(32) %inStreamToCoder) #16
  call void @llvm.lifetime.end.p0(i64 32, ptr nonnull %inStreamToCoder) #16
  br label %for.cond130.preheader

for.cond130.preheader:                            ; preds = %for.end121, %for.cond.cleanup
  %indvars.iv357 = phi i64 [ 0, %for.end121 ], [ %indvars.iv.next358, %for.cond.cleanup ]
  %arrayidx135 = getelementptr inbounds [32 x i32], ptr %mask, i64 0, i64 %indvars.iv357
  %arrayidx135.promoted = load i32, ptr %arrayidx135, align 4, !tbaa !26
  br label %for.body132

for.cond.cleanup:                                 ; preds = %for.inc144.1
  %indvars.iv.next358 = add nuw nsw i64 %indvars.iv357, 1
  %exitcond360.not = icmp eq i64 %indvars.iv.next358, 32
  br i1 %exitcond360.not, label %for.body153.preheader, label %for.cond130.preheader, !llvm.loop !39

for.body153.preheader:                            ; preds = %for.cond.cleanup
  %63 = load i32, ptr %mask, align 16, !tbaa !26
  %and157 = and i32 %63, 1
  %cmp158.not = icmp eq i32 %and157, 0
  br i1 %cmp158.not, label %for.cond151, label %cleanup164

for.body132:                                      ; preds = %for.inc144.1, %for.cond130.preheader
  %indvars.iv353 = phi i64 [ 0, %for.cond130.preheader ], [ %indvars.iv.next354.1, %for.inc144.1 ]
  %or142323324 = phi i32 [ %arrayidx135.promoted, %for.cond130.preheader ], [ %or142322.1, %for.inc144.1 ]
  %64 = trunc i64 %indvars.iv353 to i32
  %shl133 = shl nuw i32 1, %64
  %and = and i32 %or142323324, %shl133
  %cmp136.not = icmp eq i32 %and, 0
  br i1 %cmp136.not, label %for.inc144, label %if.then137

if.then137:                                       ; preds = %for.body132
  %arrayidx139 = getelementptr inbounds [32 x i32], ptr %mask, i64 0, i64 %indvars.iv353
  %65 = load i32, ptr %arrayidx139, align 8, !tbaa !26
  %or142 = or i32 %65, %or142323324
  store i32 %or142, ptr %arrayidx135, align 4, !tbaa !26
  br label %for.inc144

for.inc144:                                       ; preds = %for.body132, %if.then137
  %or142322 = phi i32 [ %or142323324, %for.body132 ], [ %or142, %if.then137 ]
  %indvars.iv.next354 = or i64 %indvars.iv353, 1
  %66 = trunc i64 %indvars.iv.next354 to i32
  %shl133.1 = shl nuw i32 1, %66
  %and.1 = and i32 %or142322, %shl133.1
  %cmp136.not.1 = icmp eq i32 %and.1, 0
  br i1 %cmp136.not.1, label %for.inc144.1, label %if.then137.1

if.then137.1:                                     ; preds = %for.inc144
  %arrayidx139.1 = getelementptr inbounds [32 x i32], ptr %mask, i64 0, i64 %indvars.iv.next354
  %67 = load i32, ptr %arrayidx139.1, align 4, !tbaa !26
  %or142.1 = or i32 %67, %or142322
  store i32 %or142.1, ptr %arrayidx135, align 4, !tbaa !26
  br label %for.inc144.1

for.inc144.1:                                     ; preds = %if.then137.1, %for.inc144
  %or142322.1 = phi i32 [ %or142322, %for.inc144 ], [ %or142.1, %if.then137.1 ]
  %indvars.iv.next354.1 = add nuw nsw i64 %indvars.iv353, 2
  %exitcond356.not.1 = icmp eq i64 %indvars.iv.next354.1, 32
  br i1 %exitcond356.not.1, label %for.cond.cleanup, label %for.body132, !llvm.loop !40

for.cond151:                                      ; preds = %for.body153.preheader
  %arrayidx156.1 = getelementptr inbounds [32 x i32], ptr %mask, i64 0, i64 1
  %68 = load i32, ptr %arrayidx156.1, align 4, !tbaa !26
  %and157.1 = and i32 %68, 2
  %cmp158.not.1 = icmp eq i32 %and157.1, 0
  br i1 %cmp158.not.1, label %for.cond151.1, label %cleanup164

for.cond151.1:                                    ; preds = %for.cond151
  %arrayidx156.2 = getelementptr inbounds [32 x i32], ptr %mask, i64 0, i64 2
  %69 = load i32, ptr %arrayidx156.2, align 8, !tbaa !26
  %and157.2 = and i32 %69, 4
  %cmp158.not.2 = icmp eq i32 %and157.2, 0
  br i1 %cmp158.not.2, label %for.cond151.2, label %cleanup164

for.cond151.2:                                    ; preds = %for.cond151.1
  %arrayidx156.3 = getelementptr inbounds [32 x i32], ptr %mask, i64 0, i64 3
  %70 = load i32, ptr %arrayidx156.3, align 4, !tbaa !26
  %and157.3 = and i32 %70, 8
  %cmp158.not.3 = icmp eq i32 %and157.3, 0
  br i1 %cmp158.not.3, label %for.cond151.3, label %cleanup164

for.cond151.3:                                    ; preds = %for.cond151.2
  %arrayidx156.4 = getelementptr inbounds [32 x i32], ptr %mask, i64 0, i64 4
  %71 = load i32, ptr %arrayidx156.4, align 16, !tbaa !26
  %and157.4 = and i32 %71, 16
  %cmp158.not.4 = icmp eq i32 %and157.4, 0
  br i1 %cmp158.not.4, label %for.cond151.4, label %cleanup164

for.cond151.4:                                    ; preds = %for.cond151.3
  %arrayidx156.5 = getelementptr inbounds [32 x i32], ptr %mask, i64 0, i64 5
  %72 = load i32, ptr %arrayidx156.5, align 4, !tbaa !26
  %and157.5 = and i32 %72, 32
  %cmp158.not.5 = icmp eq i32 %and157.5, 0
  br i1 %cmp158.not.5, label %for.cond151.5, label %cleanup164

for.cond151.5:                                    ; preds = %for.cond151.4
  %arrayidx156.6 = getelementptr inbounds [32 x i32], ptr %mask, i64 0, i64 6
  %73 = load i32, ptr %arrayidx156.6, align 8, !tbaa !26
  %and157.6 = and i32 %73, 64
  %cmp158.not.6 = icmp eq i32 %and157.6, 0
  br i1 %cmp158.not.6, label %for.cond151.6, label %cleanup164

for.cond151.6:                                    ; preds = %for.cond151.5
  %arrayidx156.7 = getelementptr inbounds [32 x i32], ptr %mask, i64 0, i64 7
  %74 = load i32, ptr %arrayidx156.7, align 4, !tbaa !26
  %and157.7 = and i32 %74, 128
  %cmp158.not.7 = icmp eq i32 %and157.7, 0
  br i1 %cmp158.not.7, label %for.cond151.7, label %cleanup164

for.cond151.7:                                    ; preds = %for.cond151.6
  %arrayidx156.8 = getelementptr inbounds [32 x i32], ptr %mask, i64 0, i64 8
  %75 = load i32, ptr %arrayidx156.8, align 16, !tbaa !26
  %and157.8 = and i32 %75, 256
  %cmp158.not.8 = icmp eq i32 %and157.8, 0
  br i1 %cmp158.not.8, label %for.cond151.8, label %cleanup164

for.cond151.8:                                    ; preds = %for.cond151.7
  %arrayidx156.9 = getelementptr inbounds [32 x i32], ptr %mask, i64 0, i64 9
  %76 = load i32, ptr %arrayidx156.9, align 4, !tbaa !26
  %and157.9 = and i32 %76, 512
  %cmp158.not.9 = icmp eq i32 %and157.9, 0
  br i1 %cmp158.not.9, label %for.cond151.9, label %cleanup164

for.cond151.9:                                    ; preds = %for.cond151.8
  %arrayidx156.10 = getelementptr inbounds [32 x i32], ptr %mask, i64 0, i64 10
  %77 = load i32, ptr %arrayidx156.10, align 8, !tbaa !26
  %and157.10 = and i32 %77, 1024
  %cmp158.not.10 = icmp eq i32 %and157.10, 0
  br i1 %cmp158.not.10, label %for.cond151.10, label %cleanup164

for.cond151.10:                                   ; preds = %for.cond151.9
  %arrayidx156.11 = getelementptr inbounds [32 x i32], ptr %mask, i64 0, i64 11
  %78 = load i32, ptr %arrayidx156.11, align 4, !tbaa !26
  %and157.11 = and i32 %78, 2048
  %cmp158.not.11 = icmp eq i32 %and157.11, 0
  br i1 %cmp158.not.11, label %for.cond151.11, label %cleanup164

for.cond151.11:                                   ; preds = %for.cond151.10
  %arrayidx156.12 = getelementptr inbounds [32 x i32], ptr %mask, i64 0, i64 12
  %79 = load i32, ptr %arrayidx156.12, align 16, !tbaa !26
  %and157.12 = and i32 %79, 4096
  %cmp158.not.12 = icmp eq i32 %and157.12, 0
  br i1 %cmp158.not.12, label %for.cond151.12, label %cleanup164

for.cond151.12:                                   ; preds = %for.cond151.11
  %arrayidx156.13 = getelementptr inbounds [32 x i32], ptr %mask, i64 0, i64 13
  %80 = load i32, ptr %arrayidx156.13, align 4, !tbaa !26
  %and157.13 = and i32 %80, 8192
  %cmp158.not.13 = icmp eq i32 %and157.13, 0
  br i1 %cmp158.not.13, label %for.cond151.13, label %cleanup164

for.cond151.13:                                   ; preds = %for.cond151.12
  %arrayidx156.14 = getelementptr inbounds [32 x i32], ptr %mask, i64 0, i64 14
  %81 = load i32, ptr %arrayidx156.14, align 8, !tbaa !26
  %and157.14 = and i32 %81, 16384
  %cmp158.not.14 = icmp eq i32 %and157.14, 0
  br i1 %cmp158.not.14, label %for.cond151.14, label %cleanup164

for.cond151.14:                                   ; preds = %for.cond151.13
  %arrayidx156.15 = getelementptr inbounds [32 x i32], ptr %mask, i64 0, i64 15
  %82 = load i32, ptr %arrayidx156.15, align 4, !tbaa !26
  %and157.15 = and i32 %82, 32768
  %cmp158.not.15 = icmp eq i32 %and157.15, 0
  br i1 %cmp158.not.15, label %for.cond151.15, label %cleanup164

for.cond151.15:                                   ; preds = %for.cond151.14
  %arrayidx156.16 = getelementptr inbounds [32 x i32], ptr %mask, i64 0, i64 16
  %83 = load i32, ptr %arrayidx156.16, align 16, !tbaa !26
  %and157.16 = and i32 %83, 65536
  %cmp158.not.16 = icmp eq i32 %and157.16, 0
  br i1 %cmp158.not.16, label %for.cond151.16, label %cleanup164

for.cond151.16:                                   ; preds = %for.cond151.15
  %arrayidx156.17 = getelementptr inbounds [32 x i32], ptr %mask, i64 0, i64 17
  %84 = load i32, ptr %arrayidx156.17, align 4, !tbaa !26
  %and157.17 = and i32 %84, 131072
  %cmp158.not.17 = icmp eq i32 %and157.17, 0
  br i1 %cmp158.not.17, label %for.cond151.17, label %cleanup164

for.cond151.17:                                   ; preds = %for.cond151.16
  %arrayidx156.18 = getelementptr inbounds [32 x i32], ptr %mask, i64 0, i64 18
  %85 = load i32, ptr %arrayidx156.18, align 8, !tbaa !26
  %and157.18 = and i32 %85, 262144
  %cmp158.not.18 = icmp eq i32 %and157.18, 0
  br i1 %cmp158.not.18, label %for.cond151.18, label %cleanup164

for.cond151.18:                                   ; preds = %for.cond151.17
  %arrayidx156.19 = getelementptr inbounds [32 x i32], ptr %mask, i64 0, i64 19
  %86 = load i32, ptr %arrayidx156.19, align 4, !tbaa !26
  %and157.19 = and i32 %86, 524288
  %cmp158.not.19 = icmp eq i32 %and157.19, 0
  br i1 %cmp158.not.19, label %for.cond151.19, label %cleanup164

for.cond151.19:                                   ; preds = %for.cond151.18
  %arrayidx156.20 = getelementptr inbounds [32 x i32], ptr %mask, i64 0, i64 20
  %87 = load i32, ptr %arrayidx156.20, align 16, !tbaa !26
  %and157.20 = and i32 %87, 1048576
  %cmp158.not.20 = icmp eq i32 %and157.20, 0
  br i1 %cmp158.not.20, label %for.cond151.20, label %cleanup164

for.cond151.20:                                   ; preds = %for.cond151.19
  %arrayidx156.21 = getelementptr inbounds [32 x i32], ptr %mask, i64 0, i64 21
  %88 = load i32, ptr %arrayidx156.21, align 4, !tbaa !26
  %and157.21 = and i32 %88, 2097152
  %cmp158.not.21 = icmp eq i32 %and157.21, 0
  br i1 %cmp158.not.21, label %for.cond151.21, label %cleanup164

for.cond151.21:                                   ; preds = %for.cond151.20
  %arrayidx156.22 = getelementptr inbounds [32 x i32], ptr %mask, i64 0, i64 22
  %89 = load i32, ptr %arrayidx156.22, align 8, !tbaa !26
  %and157.22 = and i32 %89, 4194304
  %cmp158.not.22 = icmp eq i32 %and157.22, 0
  br i1 %cmp158.not.22, label %for.cond151.22, label %cleanup164

for.cond151.22:                                   ; preds = %for.cond151.21
  %arrayidx156.23 = getelementptr inbounds [32 x i32], ptr %mask, i64 0, i64 23
  %90 = load i32, ptr %arrayidx156.23, align 4, !tbaa !26
  %and157.23 = and i32 %90, 8388608
  %cmp158.not.23 = icmp eq i32 %and157.23, 0
  br i1 %cmp158.not.23, label %for.cond151.23, label %cleanup164

for.cond151.23:                                   ; preds = %for.cond151.22
  %arrayidx156.24 = getelementptr inbounds [32 x i32], ptr %mask, i64 0, i64 24
  %91 = load i32, ptr %arrayidx156.24, align 16, !tbaa !26
  %and157.24 = and i32 %91, 16777216
  %cmp158.not.24 = icmp eq i32 %and157.24, 0
  br i1 %cmp158.not.24, label %for.cond151.24, label %cleanup164

for.cond151.24:                                   ; preds = %for.cond151.23
  %arrayidx156.25 = getelementptr inbounds [32 x i32], ptr %mask, i64 0, i64 25
  %92 = load i32, ptr %arrayidx156.25, align 4, !tbaa !26
  %and157.25 = and i32 %92, 33554432
  %cmp158.not.25 = icmp eq i32 %and157.25, 0
  br i1 %cmp158.not.25, label %for.cond151.25, label %cleanup164

for.cond151.25:                                   ; preds = %for.cond151.24
  %arrayidx156.26 = getelementptr inbounds [32 x i32], ptr %mask, i64 0, i64 26
  %93 = load i32, ptr %arrayidx156.26, align 8, !tbaa !26
  %and157.26 = and i32 %93, 67108864
  %cmp158.not.26 = icmp eq i32 %and157.26, 0
  br i1 %cmp158.not.26, label %for.cond151.26, label %cleanup164

for.cond151.26:                                   ; preds = %for.cond151.25
  %arrayidx156.27 = getelementptr inbounds [32 x i32], ptr %mask, i64 0, i64 27
  %94 = load i32, ptr %arrayidx156.27, align 4, !tbaa !26
  %and157.27 = and i32 %94, 134217728
  %cmp158.not.27 = icmp eq i32 %and157.27, 0
  br i1 %cmp158.not.27, label %for.cond151.27, label %cleanup164

for.cond151.27:                                   ; preds = %for.cond151.26
  %arrayidx156.28 = getelementptr inbounds [32 x i32], ptr %mask, i64 0, i64 28
  %95 = load i32, ptr %arrayidx156.28, align 16, !tbaa !26
  %and157.28 = and i32 %95, 268435456
  %cmp158.not.28 = icmp eq i32 %and157.28, 0
  br i1 %cmp158.not.28, label %for.cond151.28, label %cleanup164

for.cond151.28:                                   ; preds = %for.cond151.27
  %arrayidx156.29 = getelementptr inbounds [32 x i32], ptr %mask, i64 0, i64 29
  %96 = load i32, ptr %arrayidx156.29, align 4, !tbaa !26
  %and157.29 = and i32 %96, 536870912
  %cmp158.not.29 = icmp eq i32 %and157.29, 0
  br i1 %cmp158.not.29, label %for.cond151.29, label %cleanup164

for.cond151.29:                                   ; preds = %for.cond151.28
  %arrayidx156.30 = getelementptr inbounds [32 x i32], ptr %mask, i64 0, i64 30
  %97 = load i32, ptr %arrayidx156.30, align 8, !tbaa !26
  %and157.30 = and i32 %97, 1073741824
  %cmp158.not.30 = icmp eq i32 %and157.30, 0
  %arrayidx156.31 = getelementptr inbounds [32 x i32], ptr %mask, i64 0, i64 31
  %98 = load i32, ptr %arrayidx156.31, align 4
  %cmp158.not.31 = icmp sgt i32 %98, -1
  %or.cond = select i1 %cmp158.not.30, i1 %cmp158.not.31, i1 false
  br label %cleanup164

cleanup164:                                       ; preds = %for.cond151.29, %for.cond151.28, %for.cond151.27, %for.cond151.26, %for.cond151.25, %for.cond151.24, %for.cond151.23, %for.cond151.22, %for.cond151.21, %for.cond151.20, %for.cond151.19, %for.cond151.18, %for.cond151.17, %for.cond151.16, %for.cond151.15, %for.cond151.14, %for.cond151.13, %for.cond151.12, %for.cond151.11, %for.cond151.10, %for.cond151.9, %for.cond151.8, %for.cond151.7, %for.cond151.6, %for.cond151.5, %for.cond151.4, %for.cond151.3, %for.cond151.2, %for.cond151.1, %for.cond151, %for.body153.preheader
  %cmp152.lcssa = phi i1 [ false, %for.body153.preheader ], [ false, %for.cond151 ], [ false, %for.cond151.1 ], [ false, %for.cond151.2 ], [ false, %for.cond151.3 ], [ false, %for.cond151.4 ], [ false, %for.cond151.5 ], [ false, %for.cond151.6 ], [ false, %for.cond151.7 ], [ false, %for.cond151.8 ], [ false, %for.cond151.9 ], [ false, %for.cond151.10 ], [ false, %for.cond151.11 ], [ false, %for.cond151.12 ], [ false, %for.cond151.13 ], [ false, %for.cond151.14 ], [ false, %for.cond151.15 ], [ false, %for.cond151.16 ], [ false, %for.cond151.17 ], [ false, %for.cond151.18 ], [ false, %for.cond151.19 ], [ false, %for.cond151.20 ], [ false, %for.cond151.21 ], [ false, %for.cond151.22 ], [ false, %for.cond151.23 ], [ false, %for.cond151.24 ], [ false, %for.cond151.25 ], [ false, %for.cond151.26 ], [ false, %for.cond151.27 ], [ false, %for.cond151.28 ], [ %or.cond, %for.cond151.29 ]
  call void @llvm.lifetime.end.p0(i64 128, ptr nonnull %mask) #16
  br label %cleanup168

cleanup168.critedge:                              ; preds = %for.body, %invoke.cont17, %for.body26, %invoke.cont30, %for.body45, %invoke.cont49
  call void @_ZN17CBaseRecordVectorD2Ev(ptr noundef nonnull align 8 dereferenceable(32) %v) #16
  call void @llvm.lifetime.end.p0(i64 32, ptr nonnull %v) #16
  br label %cleanup168

cleanup168:                                       ; preds = %cleanup168.critedge, %entry, %lor.lhs.false, %cleanup164
  %retval.2 = phi i1 [ %cmp152.lcssa, %cleanup164 ], [ false, %lor.lhs.false ], [ false, %entry ], [ false, %cleanup168.critedge ]
  ret i1 %retval.2

ehcleanup169:                                     ; preds = %lpad76, %ehcleanup
  %.pn210 = phi { ptr, i32 } [ %lpad.phi, %lpad76 ], [ %.pn, %ehcleanup ]
  resume { ptr, i32 } %.pn210
}

; Function Attrs: mustprogress nocallback nofree nosync nounwind willreturn memory(argmem: readwrite)
declare void @llvm.lifetime.start.p0(i64 immarg, ptr nocapture) #1

declare i32 @__gxx_personality_v0(...)

; Function Attrs: mustprogress nocallback nofree nosync nounwind willreturn memory(argmem: readwrite)
declare void @llvm.lifetime.end.p0(i64 immarg, ptr nocapture) #1

; Function Attrs: mustprogress uwtable
define dso_local void @_ZN8NArchive3N7z13CStreamSwitch6RemoveEv(ptr nocapture noundef nonnull align 8 dereferenceable(9) %this) local_unnamed_addr #2 align 2 {
entry:
  %_needRemove = getelementptr inbounds %"class.NArchive::N7z::CStreamSwitch", ptr %this, i64 0, i32 1
  %0 = load i8, ptr %_needRemove, align 8, !tbaa !41, !range !23, !noundef !24
  %tobool.not = icmp eq i8 %0, 0
  br i1 %tobool.not, label %if.end, label %if.then

if.then:                                          ; preds = %entry
  %1 = load ptr, ptr %this, align 8, !tbaa !43
  %_inByteVector.i = getelementptr inbounds %"class.NArchive::N7z::CInArchive", ptr %1, i64 0, i32 1
  tail call void @_ZN17CBaseRecordVector10DeleteBackEv(ptr noundef nonnull align 8 dereferenceable(32) %_inByteVector.i)
  %_size.i.i = getelementptr inbounds %"class.NArchive::N7z::CInArchive", ptr %1, i64 0, i32 1, i32 0, i32 0, i32 2
  %2 = load i32, ptr %_size.i.i, align 4, !tbaa !5
  %cmp.i.i = icmp eq i32 %2, 0
  br i1 %cmp.i.i, label %_ZN8NArchive3N7z10CInArchive16DeleteByteStreamEv.exit, label %if.then.i

if.then.i:                                        ; preds = %if.then
  %sub.i.i = add nsw i32 %2, -1
  %_items.i.i.i.i = getelementptr inbounds %"class.NArchive::N7z::CInArchive", ptr %1, i64 0, i32 1, i32 0, i32 0, i32 3
  %3 = load ptr, ptr %_items.i.i.i.i, align 8, !tbaa !15
  %idxprom.i.i.i.i = sext i32 %sub.i.i to i64
  %arrayidx.i.i.i.i = getelementptr inbounds ptr, ptr %3, i64 %idxprom.i.i.i.i
  %4 = load ptr, ptr %arrayidx.i.i.i.i, align 8, !tbaa !29
  %_inByteBack.i = getelementptr inbounds %"class.NArchive::N7z::CInArchive", ptr %1, i64 0, i32 2
  store ptr %4, ptr %_inByteBack.i, align 8, !tbaa !44
  br label %_ZN8NArchive3N7z10CInArchive16DeleteByteStreamEv.exit

_ZN8NArchive3N7z10CInArchive16DeleteByteStreamEv.exit: ; preds = %if.then, %if.then.i
  store i8 0, ptr %_needRemove, align 8, !tbaa !41
  br label %if.end

if.end:                                           ; preds = %_ZN8NArchive3N7z10CInArchive16DeleteByteStreamEv.exit, %entry
  ret void
}

; Function Attrs: mustprogress uwtable
define dso_local void @_ZN8NArchive3N7z13CStreamSwitch3SetEPNS0_10CInArchiveEPKhm(ptr nocapture noundef nonnull align 8 dereferenceable(9) %this, ptr noundef %archive, ptr noundef %data, i64 noundef %size) local_unnamed_addr #2 align 2 {
entry:
  %_needRemove.i = getelementptr inbounds %"class.NArchive::N7z::CStreamSwitch", ptr %this, i64 0, i32 1
  %0 = load i8, ptr %_needRemove.i, align 8, !tbaa !41, !range !23, !noundef !24
  %tobool.not.i = icmp eq i8 %0, 0
  br i1 %tobool.not.i, label %_ZN8NArchive3N7z13CStreamSwitch6RemoveEv.exit, label %if.then.i

if.then.i:                                        ; preds = %entry
  %1 = load ptr, ptr %this, align 8, !tbaa !43
  %_inByteVector.i.i = getelementptr inbounds %"class.NArchive::N7z::CInArchive", ptr %1, i64 0, i32 1
  tail call void @_ZN17CBaseRecordVector10DeleteBackEv(ptr noundef nonnull align 8 dereferenceable(32) %_inByteVector.i.i)
  %_size.i.i.i = getelementptr inbounds %"class.NArchive::N7z::CInArchive", ptr %1, i64 0, i32 1, i32 0, i32 0, i32 2
  %2 = load i32, ptr %_size.i.i.i, align 4, !tbaa !5
  %cmp.i.i.i = icmp eq i32 %2, 0
  br i1 %cmp.i.i.i, label %_ZN8NArchive3N7z10CInArchive16DeleteByteStreamEv.exit.i, label %if.then.i.i

if.then.i.i:                                      ; preds = %if.then.i
  %sub.i.i.i = add nsw i32 %2, -1
  %_items.i.i.i.i.i = getelementptr inbounds %"class.NArchive::N7z::CInArchive", ptr %1, i64 0, i32 1, i32 0, i32 0, i32 3
  %3 = load ptr, ptr %_items.i.i.i.i.i, align 8, !tbaa !15
  %idxprom.i.i.i.i.i = sext i32 %sub.i.i.i to i64
  %arrayidx.i.i.i.i.i = getelementptr inbounds ptr, ptr %3, i64 %idxprom.i.i.i.i.i
  %4 = load ptr, ptr %arrayidx.i.i.i.i.i, align 8, !tbaa !29
  %_inByteBack.i.i = getelementptr inbounds %"class.NArchive::N7z::CInArchive", ptr %1, i64 0, i32 2
  store ptr %4, ptr %_inByteBack.i.i, align 8, !tbaa !44
  br label %_ZN8NArchive3N7z10CInArchive16DeleteByteStreamEv.exit.i

_ZN8NArchive3N7z10CInArchive16DeleteByteStreamEv.exit.i: ; preds = %if.then.i.i, %if.then.i
  store i8 0, ptr %_needRemove.i, align 8, !tbaa !41
  br label %_ZN8NArchive3N7z13CStreamSwitch6RemoveEv.exit

_ZN8NArchive3N7z13CStreamSwitch6RemoveEv.exit:    ; preds = %entry, %_ZN8NArchive3N7z10CInArchive16DeleteByteStreamEv.exit.i
  store ptr %archive, ptr %this, align 8, !tbaa !43
  %_inByteVector.i = getelementptr inbounds %"class.NArchive::N7z::CInArchive", ptr %archive, i64 0, i32 1
  %call.i.i = tail call noalias noundef nonnull dereferenceable(24) ptr @_Znwm(i64 noundef 24) #17
  tail call void @llvm.memset.p0.i64(ptr noundef nonnull align 16 dereferenceable(24) %call.i.i, i8 0, i64 24, i1 false)
  tail call void @_ZN17CBaseRecordVector18ReserveOnePositionEv(ptr noundef nonnull align 8 dereferenceable(32) %_inByteVector.i)
  %_items.i.i.i = getelementptr inbounds %"class.NArchive::N7z::CInArchive", ptr %archive, i64 0, i32 1, i32 0, i32 0, i32 3
  %5 = load ptr, ptr %_items.i.i.i, align 8, !tbaa !15
  %_size.i.i.i3 = getelementptr inbounds %"class.NArchive::N7z::CInArchive", ptr %archive, i64 0, i32 1, i32 0, i32 0, i32 2
  %6 = load i32, ptr %_size.i.i.i3, align 4, !tbaa !5
  %idxprom.i.i.i = sext i32 %6 to i64
  %arrayidx.i.i.i = getelementptr inbounds ptr, ptr %5, i64 %idxprom.i.i.i
  store ptr %call.i.i, ptr %arrayidx.i.i.i, align 8, !tbaa !29
  %inc.i.i.i = add nsw i32 %6, 1
  store i32 %inc.i.i.i, ptr %_size.i.i.i3, align 4, !tbaa !5
  %7 = load ptr, ptr %_items.i.i.i, align 8, !tbaa !15
  %arrayidx.i.i.i.i = getelementptr inbounds ptr, ptr %7, i64 %idxprom.i.i.i
  %8 = load ptr, ptr %arrayidx.i.i.i.i, align 8, !tbaa !29
  %_inByteBack.i = getelementptr inbounds %"class.NArchive::N7z::CInArchive", ptr %archive, i64 0, i32 2
  store ptr %8, ptr %_inByteBack.i, align 8, !tbaa !44
  store ptr %data, ptr %8, align 8, !tbaa !49
  %_size.i5.i = getelementptr inbounds %"class.NArchive::N7z::CInByte2", ptr %8, i64 0, i32 1
  store i64 %size, ptr %_size.i5.i, align 8, !tbaa !51
  %_pos.i.i = getelementptr inbounds %"class.NArchive::N7z::CInByte2", ptr %8, i64 0, i32 2
  store i64 0, ptr %_pos.i.i, align 8, !tbaa !52
  store i8 1, ptr %_needRemove.i, align 8, !tbaa !41
  ret void
}

; Function Attrs: mustprogress uwtable
define dso_local void @_ZN8NArchive3N7z13CStreamSwitch3SetEPNS0_10CInArchiveERK7CBufferIhE(ptr nocapture noundef nonnull align 8 dereferenceable(9) %this, ptr noundef %archive, ptr nocapture noundef nonnull readonly align 8 dereferenceable(24) %byteBuffer) local_unnamed_addr #2 align 2 {
entry:
  %_items.i = getelementptr inbounds %class.CBuffer, ptr %byteBuffer, i64 0, i32 2
  %0 = load ptr, ptr %_items.i, align 8, !tbaa !53
  %_capacity.i = getelementptr inbounds %class.CBuffer, ptr %byteBuffer, i64 0, i32 1
  %1 = load i64, ptr %_capacity.i, align 8, !tbaa !54
  %_needRemove.i.i = getelementptr inbounds %"class.NArchive::N7z::CStreamSwitch", ptr %this, i64 0, i32 1
  %2 = load i8, ptr %_needRemove.i.i, align 8, !tbaa !41, !range !23, !noundef !24
  %tobool.not.i.i = icmp eq i8 %2, 0
  br i1 %tobool.not.i.i, label %_ZN8NArchive3N7z13CStreamSwitch3SetEPNS0_10CInArchiveEPKhm.exit, label %if.then.i.i

if.then.i.i:                                      ; preds = %entry
  %3 = load ptr, ptr %this, align 8, !tbaa !43
  %_inByteVector.i.i.i = getelementptr inbounds %"class.NArchive::N7z::CInArchive", ptr %3, i64 0, i32 1
  tail call void @_ZN17CBaseRecordVector10DeleteBackEv(ptr noundef nonnull align 8 dereferenceable(32) %_inByteVector.i.i.i)
  %_size.i.i.i.i = getelementptr inbounds %"class.NArchive::N7z::CInArchive", ptr %3, i64 0, i32 1, i32 0, i32 0, i32 2
  %4 = load i32, ptr %_size.i.i.i.i, align 4, !tbaa !5
  %cmp.i.i.i.i = icmp eq i32 %4, 0
  br i1 %cmp.i.i.i.i, label %_ZN8NArchive3N7z10CInArchive16DeleteByteStreamEv.exit.i.i, label %if.then.i.i.i

if.then.i.i.i:                                    ; preds = %if.then.i.i
  %sub.i.i.i.i = add nsw i32 %4, -1
  %_items.i.i.i.i.i.i = getelementptr inbounds %"class.NArchive::N7z::CInArchive", ptr %3, i64 0, i32 1, i32 0, i32 0, i32 3
  %5 = load ptr, ptr %_items.i.i.i.i.i.i, align 8, !tbaa !15
  %idxprom.i.i.i.i.i.i = sext i32 %sub.i.i.i.i to i64
  %arrayidx.i.i.i.i.i.i = getelementptr inbounds ptr, ptr %5, i64 %idxprom.i.i.i.i.i.i
  %6 = load ptr, ptr %arrayidx.i.i.i.i.i.i, align 8, !tbaa !29
  %_inByteBack.i.i.i = getelementptr inbounds %"class.NArchive::N7z::CInArchive", ptr %3, i64 0, i32 2
  store ptr %6, ptr %_inByteBack.i.i.i, align 8, !tbaa !44
  br label %_ZN8NArchive3N7z10CInArchive16DeleteByteStreamEv.exit.i.i

_ZN8NArchive3N7z10CInArchive16DeleteByteStreamEv.exit.i.i: ; preds = %if.then.i.i.i, %if.then.i.i
  store i8 0, ptr %_needRemove.i.i, align 8, !tbaa !41
  br label %_ZN8NArchive3N7z13CStreamSwitch3SetEPNS0_10CInArchiveEPKhm.exit

_ZN8NArchive3N7z13CStreamSwitch3SetEPNS0_10CInArchiveEPKhm.exit: ; preds = %entry, %_ZN8NArchive3N7z10CInArchive16DeleteByteStreamEv.exit.i.i
  store ptr %archive, ptr %this, align 8, !tbaa !43
  %_inByteVector.i.i = getelementptr inbounds %"class.NArchive::N7z::CInArchive", ptr %archive, i64 0, i32 1
  %call.i.i.i = tail call noalias noundef nonnull dereferenceable(24) ptr @_Znwm(i64 noundef 24) #17
  tail call void @llvm.memset.p0.i64(ptr noundef nonnull align 16 dereferenceable(24) %call.i.i.i, i8 0, i64 24, i1 false)
  tail call void @_ZN17CBaseRecordVector18ReserveOnePositionEv(ptr noundef nonnull align 8 dereferenceable(32) %_inByteVector.i.i)
  %_items.i.i.i.i = getelementptr inbounds %"class.NArchive::N7z::CInArchive", ptr %archive, i64 0, i32 1, i32 0, i32 0, i32 3
  %7 = load ptr, ptr %_items.i.i.i.i, align 8, !tbaa !15
  %_size.i.i.i3.i = getelementptr inbounds %"class.NArchive::N7z::CInArchive", ptr %archive, i64 0, i32 1, i32 0, i32 0, i32 2
  %8 = load i32, ptr %_size.i.i.i3.i, align 4, !tbaa !5
  %idxprom.i.i.i.i = sext i32 %8 to i64
  %arrayidx.i.i.i.i = getelementptr inbounds ptr, ptr %7, i64 %idxprom.i.i.i.i
  store ptr %call.i.i.i, ptr %arrayidx.i.i.i.i, align 8, !tbaa !29
  %inc.i.i.i.i = add nsw i32 %8, 1
  store i32 %inc.i.i.i.i, ptr %_size.i.i.i3.i, align 4, !tbaa !5
  %9 = load ptr, ptr %_items.i.i.i.i, align 8, !tbaa !15
  %arrayidx.i.i.i.i.i = getelementptr inbounds ptr, ptr %9, i64 %idxprom.i.i.i.i
  %10 = load ptr, ptr %arrayidx.i.i.i.i.i, align 8, !tbaa !29
  %_inByteBack.i.i = getelementptr inbounds %"class.NArchive::N7z::CInArchive", ptr %archive, i64 0, i32 2
  store ptr %10, ptr %_inByteBack.i.i, align 8, !tbaa !44
  store ptr %0, ptr %10, align 8, !tbaa !49
  %_size.i5.i.i = getelementptr inbounds %"class.NArchive::N7z::CInByte2", ptr %10, i64 0, i32 1
  store i64 %1, ptr %_size.i5.i.i, align 8, !tbaa !51
  %_pos.i.i.i = getelementptr inbounds %"class.NArchive::N7z::CInByte2", ptr %10, i64 0, i32 2
  store i64 0, ptr %_pos.i.i.i, align 8, !tbaa !52
  store i8 1, ptr %_needRemove.i.i, align 8, !tbaa !41
  ret void
}

; Function Attrs: mustprogress uwtable
define dso_local void @_ZN8NArchive3N7z13CStreamSwitch3SetEPNS0_10CInArchiveEPK13CObjectVectorI7CBufferIhEE(ptr nocapture noundef nonnull align 8 dereferenceable(9) %this, ptr noundef %archive, ptr nocapture noundef readonly %dataVector) local_unnamed_addr #2 align 2 {
entry:
  %_needRemove.i = getelementptr inbounds %"class.NArchive::N7z::CStreamSwitch", ptr %this, i64 0, i32 1
  %0 = load i8, ptr %_needRemove.i, align 8, !tbaa !41, !range !23, !noundef !24
  %tobool.not.i = icmp eq i8 %0, 0
  br i1 %tobool.not.i, label %_ZN8NArchive3N7z13CStreamSwitch6RemoveEv.exit, label %if.then.i

if.then.i:                                        ; preds = %entry
  %1 = load ptr, ptr %this, align 8, !tbaa !43
  %_inByteVector.i.i = getelementptr inbounds %"class.NArchive::N7z::CInArchive", ptr %1, i64 0, i32 1
  tail call void @_ZN17CBaseRecordVector10DeleteBackEv(ptr noundef nonnull align 8 dereferenceable(32) %_inByteVector.i.i)
  %_size.i.i.i = getelementptr inbounds %"class.NArchive::N7z::CInArchive", ptr %1, i64 0, i32 1, i32 0, i32 0, i32 2
  %2 = load i32, ptr %_size.i.i.i, align 4, !tbaa !5
  %cmp.i.i.i = icmp eq i32 %2, 0
  br i1 %cmp.i.i.i, label %_ZN8NArchive3N7z10CInArchive16DeleteByteStreamEv.exit.i, label %if.then.i.i

if.then.i.i:                                      ; preds = %if.then.i
  %sub.i.i.i = add nsw i32 %2, -1
  %_items.i.i.i.i.i = getelementptr inbounds %"class.NArchive::N7z::CInArchive", ptr %1, i64 0, i32 1, i32 0, i32 0, i32 3
  %3 = load ptr, ptr %_items.i.i.i.i.i, align 8, !tbaa !15
  %idxprom.i.i.i.i.i = sext i32 %sub.i.i.i to i64
  %arrayidx.i.i.i.i.i = getelementptr inbounds ptr, ptr %3, i64 %idxprom.i.i.i.i.i
  %4 = load ptr, ptr %arrayidx.i.i.i.i.i, align 8, !tbaa !29
  %_inByteBack.i.i = getelementptr inbounds %"class.NArchive::N7z::CInArchive", ptr %1, i64 0, i32 2
  store ptr %4, ptr %_inByteBack.i.i, align 8, !tbaa !44
  br label %_ZN8NArchive3N7z10CInArchive16DeleteByteStreamEv.exit.i

_ZN8NArchive3N7z10CInArchive16DeleteByteStreamEv.exit.i: ; preds = %if.then.i.i, %if.then.i
  store i8 0, ptr %_needRemove.i, align 8, !tbaa !41
  br label %_ZN8NArchive3N7z13CStreamSwitch6RemoveEv.exit

_ZN8NArchive3N7z13CStreamSwitch6RemoveEv.exit:    ; preds = %entry, %_ZN8NArchive3N7z10CInArchive16DeleteByteStreamEv.exit.i
  %_inByteBack.i = getelementptr inbounds %"class.NArchive::N7z::CInArchive", ptr %archive, i64 0, i32 2
  %5 = load ptr, ptr %_inByteBack.i, align 8, !tbaa !44
  %_pos.i.i = getelementptr inbounds %"class.NArchive::N7z::CInByte2", ptr %5, i64 0, i32 2
  %6 = load i64, ptr %_pos.i.i, align 8, !tbaa !52
  %_size.i.i = getelementptr inbounds %"class.NArchive::N7z::CInByte2", ptr %5, i64 0, i32 1
  %7 = load i64, ptr %_size.i.i, align 8, !tbaa !51
  %cmp.not.i.i = icmp ult i64 %6, %7
  br i1 %cmp.not.i.i, label %_ZN8NArchive3N7z10CInArchive8ReadByteEv.exit, label %if.then.i.i14

if.then.i.i14:                                    ; preds = %_ZN8NArchive3N7z13CStreamSwitch6RemoveEv.exit
  %exception.i.i.i.i = tail call ptr @__cxa_allocate_exception(i64 1) #16
  tail call void @__cxa_throw(ptr %exception.i.i.i.i, ptr nonnull @_ZTIN8NArchive3N7z19CInArchiveExceptionE, ptr null) #18
  unreachable

_ZN8NArchive3N7z10CInArchive8ReadByteEv.exit:     ; preds = %_ZN8NArchive3N7z13CStreamSwitch6RemoveEv.exit
  %8 = load ptr, ptr %5, align 8, !tbaa !49
  %inc.i.i = add nuw i64 %6, 1
  store i64 %inc.i.i, ptr %_pos.i.i, align 8, !tbaa !52
  %arrayidx.i.i = getelementptr inbounds i8, ptr %8, i64 %6
  %9 = load i8, ptr %arrayidx.i.i, align 1, !tbaa !55
  %cmp.not = icmp eq i8 %9, 0
  br i1 %cmp.not, label %if.end8, label %if.then

if.then:                                          ; preds = %_ZN8NArchive3N7z10CInArchive8ReadByteEv.exit
  %call.i.i = tail call noundef i64 @_ZN8NArchive3N7z8CInByte210ReadNumberEv(ptr noundef nonnull align 8 dereferenceable(24) %5)
  %cmp.i.i = icmp ugt i64 %call.i.i, 2147483647
  br i1 %cmp.i.i, label %if.then.i.i17, label %_ZN8NArchive3N7z10CInArchive7ReadNumEv.exit

if.then.i.i17:                                    ; preds = %if.then
  %exception.i.i.i.i16 = tail call ptr @__cxa_allocate_exception(i64 1) #16
  tail call void @__cxa_throw(ptr %exception.i.i.i.i16, ptr nonnull @_ZTIN8NArchive3N7z19CInArchiveExceptionE, ptr null) #18
  unreachable

_ZN8NArchive3N7z10CInArchive7ReadNumEv.exit:      ; preds = %if.then
  %conv.i.i = trunc i64 %call.i.i to i32
  %_size.i = getelementptr inbounds %class.CBaseRecordVector, ptr %dataVector, i64 0, i32 2
  %10 = load i32, ptr %_size.i, align 4, !tbaa !5
  %cmp5.not = icmp sgt i32 %10, %conv.i.i
  br i1 %cmp5.not, label %if.end, label %if.then6

if.then6:                                         ; preds = %_ZN8NArchive3N7z10CInArchive7ReadNumEv.exit
  %exception.i.i = tail call ptr @__cxa_allocate_exception(i64 1) #16
  tail call void @__cxa_throw(ptr %exception.i.i, ptr nonnull @_ZTIN8NArchive3N7z19CInArchiveExceptionE, ptr null) #18
  unreachable

if.end:                                           ; preds = %_ZN8NArchive3N7z10CInArchive7ReadNumEv.exit
  %_items.i.i = getelementptr inbounds %class.CBaseRecordVector, ptr %dataVector, i64 0, i32 3
  %11 = load ptr, ptr %_items.i.i, align 8, !tbaa !15
  %arrayidx.i.i18 = getelementptr inbounds ptr, ptr %11, i64 %call.i.i
  %12 = load ptr, ptr %arrayidx.i.i18, align 8, !tbaa !29
  %_items.i.i19 = getelementptr inbounds %class.CBuffer, ptr %12, i64 0, i32 2
  %13 = load ptr, ptr %_items.i.i19, align 8, !tbaa !53
  %_capacity.i.i = getelementptr inbounds %class.CBuffer, ptr %12, i64 0, i32 1
  %14 = load i64, ptr %_capacity.i.i, align 8, !tbaa !54
  %15 = load i8, ptr %_needRemove.i, align 8, !tbaa !41, !range !23, !noundef !24
  %tobool.not.i.i.i = icmp eq i8 %15, 0
  br i1 %tobool.not.i.i.i, label %_ZN8NArchive3N7z13CStreamSwitch3SetEPNS0_10CInArchiveERK7CBufferIhE.exit, label %if.then.i.i.i

if.then.i.i.i:                                    ; preds = %if.end
  %16 = load ptr, ptr %this, align 8, !tbaa !43
  %_inByteVector.i.i.i.i = getelementptr inbounds %"class.NArchive::N7z::CInArchive", ptr %16, i64 0, i32 1
  tail call void @_ZN17CBaseRecordVector10DeleteBackEv(ptr noundef nonnull align 8 dereferenceable(32) %_inByteVector.i.i.i.i)
  %_size.i.i.i.i.i = getelementptr inbounds %"class.NArchive::N7z::CInArchive", ptr %16, i64 0, i32 1, i32 0, i32 0, i32 2
  %17 = load i32, ptr %_size.i.i.i.i.i, align 4, !tbaa !5
  %cmp.i.i.i.i.i = icmp eq i32 %17, 0
  br i1 %cmp.i.i.i.i.i, label %_ZN8NArchive3N7z10CInArchive16DeleteByteStreamEv.exit.i.i.i, label %if.then.i.i.i.i

if.then.i.i.i.i:                                  ; preds = %if.then.i.i.i
  %sub.i.i.i.i.i = add nsw i32 %17, -1
  %_items.i.i.i.i.i.i.i = getelementptr inbounds %"class.NArchive::N7z::CInArchive", ptr %16, i64 0, i32 1, i32 0, i32 0, i32 3
  %18 = load ptr, ptr %_items.i.i.i.i.i.i.i, align 8, !tbaa !15
  %idxprom.i.i.i.i.i.i.i = sext i32 %sub.i.i.i.i.i to i64
  %arrayidx.i.i.i.i.i.i.i = getelementptr inbounds ptr, ptr %18, i64 %idxprom.i.i.i.i.i.i.i
  %19 = load ptr, ptr %arrayidx.i.i.i.i.i.i.i, align 8, !tbaa !29
  %_inByteBack.i.i.i.i = getelementptr inbounds %"class.NArchive::N7z::CInArchive", ptr %16, i64 0, i32 2
  store ptr %19, ptr %_inByteBack.i.i.i.i, align 8, !tbaa !44
  br label %_ZN8NArchive3N7z10CInArchive16DeleteByteStreamEv.exit.i.i.i

_ZN8NArchive3N7z10CInArchive16DeleteByteStreamEv.exit.i.i.i: ; preds = %if.then.i.i.i.i, %if.then.i.i.i
  store i8 0, ptr %_needRemove.i, align 8, !tbaa !41
  br label %_ZN8NArchive3N7z13CStreamSwitch3SetEPNS0_10CInArchiveERK7CBufferIhE.exit

_ZN8NArchive3N7z13CStreamSwitch3SetEPNS0_10CInArchiveERK7CBufferIhE.exit: ; preds = %if.end, %_ZN8NArchive3N7z10CInArchive16DeleteByteStreamEv.exit.i.i.i
  store ptr %archive, ptr %this, align 8, !tbaa !43
  %_inByteVector.i.i.i = getelementptr inbounds %"class.NArchive::N7z::CInArchive", ptr %archive, i64 0, i32 1
  %call.i.i.i.i = tail call noalias noundef nonnull dereferenceable(24) ptr @_Znwm(i64 noundef 24) #17
  tail call void @llvm.memset.p0.i64(ptr noundef nonnull align 16 dereferenceable(24) %call.i.i.i.i, i8 0, i64 24, i1 false)
  tail call void @_ZN17CBaseRecordVector18ReserveOnePositionEv(ptr noundef nonnull align 8 dereferenceable(32) %_inByteVector.i.i.i)
  %_items.i.i.i.i.i20 = getelementptr inbounds %"class.NArchive::N7z::CInArchive", ptr %archive, i64 0, i32 1, i32 0, i32 0, i32 3
  %20 = load ptr, ptr %_items.i.i.i.i.i20, align 8, !tbaa !15
  %_size.i.i.i3.i.i = getelementptr inbounds %"class.NArchive::N7z::CInArchive", ptr %archive, i64 0, i32 1, i32 0, i32 0, i32 2
  %21 = load i32, ptr %_size.i.i.i3.i.i, align 4, !tbaa !5
  %idxprom.i.i.i.i.i21 = sext i32 %21 to i64
  %arrayidx.i.i.i.i.i22 = getelementptr inbounds ptr, ptr %20, i64 %idxprom.i.i.i.i.i21
  store ptr %call.i.i.i.i, ptr %arrayidx.i.i.i.i.i22, align 8, !tbaa !29
  %inc.i.i.i.i.i = add nsw i32 %21, 1
  store i32 %inc.i.i.i.i.i, ptr %_size.i.i.i3.i.i, align 4, !tbaa !5
  %22 = load ptr, ptr %_items.i.i.i.i.i20, align 8, !tbaa !15
  %arrayidx.i.i.i.i.i.i = getelementptr inbounds ptr, ptr %22, i64 %idxprom.i.i.i.i.i21
  %23 = load ptr, ptr %arrayidx.i.i.i.i.i.i, align 8, !tbaa !29
  store ptr %23, ptr %_inByteBack.i, align 8, !tbaa !44
  store ptr %13, ptr %23, align 8, !tbaa !49
  %_size.i5.i.i.i = getelementptr inbounds %"class.NArchive::N7z::CInByte2", ptr %23, i64 0, i32 1
  store i64 %14, ptr %_size.i5.i.i.i, align 8, !tbaa !51
  %_pos.i.i.i.i = getelementptr inbounds %"class.NArchive::N7z::CInByte2", ptr %23, i64 0, i32 2
  store i64 0, ptr %_pos.i.i.i.i, align 8, !tbaa !52
  store i8 1, ptr %_needRemove.i, align 8, !tbaa !41
  br label %if.end8

if.end8:                                          ; preds = %_ZN8NArchive3N7z13CStreamSwitch3SetEPNS0_10CInArchiveERK7CBufferIhE.exit, %_ZN8NArchive3N7z10CInArchive8ReadByteEv.exit
  ret void
}

; Function Attrs: inlinehint mustprogress noreturn uwtable
define internal fastcc void @_ZN8NArchive3N7zL14ThrowIncorrectEv() unnamed_addr #3 {
entry:
  %exception.i = tail call ptr @__cxa_allocate_exception(i64 1) #16
  tail call void @__cxa_throw(ptr %exception.i, ptr nonnull @_ZTIN8NArchive3N7z19CInArchiveExceptionE, ptr null) #18
  unreachable
}

; Function Attrs: mustprogress uwtable
define dso_local noundef zeroext i8 @_ZN8NArchive3N7z8CInByte28ReadByteEv(ptr nocapture noundef nonnull align 8 dereferenceable(24) %this) local_unnamed_addr #2 align 2 {
entry:
  %_pos = getelementptr inbounds %"class.NArchive::N7z::CInByte2", ptr %this, i64 0, i32 2
  %0 = load i64, ptr %_pos, align 8, !tbaa !52
  %_size = getelementptr inbounds %"class.NArchive::N7z::CInByte2", ptr %this, i64 0, i32 1
  %1 = load i64, ptr %_size, align 8, !tbaa !51
  %cmp.not = icmp ult i64 %0, %1
  br i1 %cmp.not, label %if.end, label %if.then

if.then:                                          ; preds = %entry
  %exception.i.i = tail call ptr @__cxa_allocate_exception(i64 1) #16
  tail call void @__cxa_throw(ptr %exception.i.i, ptr nonnull @_ZTIN8NArchive3N7z19CInArchiveExceptionE, ptr null) #18
  unreachable

if.end:                                           ; preds = %entry
  %2 = load ptr, ptr %this, align 8, !tbaa !49
  %inc = add nuw i64 %0, 1
  store i64 %inc, ptr %_pos, align 8, !tbaa !52
  %arrayidx = getelementptr inbounds i8, ptr %2, i64 %0
  %3 = load i8, ptr %arrayidx, align 1, !tbaa !55
  ret i8 %3
}

; Function Attrs: mustprogress uwtable
define dso_local void @_ZN8NArchive3N7z8CInByte29ReadBytesEPhm(ptr nocapture noundef nonnull align 8 dereferenceable(24) %this, ptr nocapture noundef writeonly %data, i64 noundef %size) local_unnamed_addr #2 align 2 {
entry:
  %_size = getelementptr inbounds %"class.NArchive::N7z::CInByte2", ptr %this, i64 0, i32 1
  %0 = load i64, ptr %_size, align 8, !tbaa !51
  %_pos = getelementptr inbounds %"class.NArchive::N7z::CInByte2", ptr %this, i64 0, i32 2
  %1 = load i64, ptr %_pos, align 8, !tbaa !52
  %sub = sub i64 %0, %1
  %cmp = icmp ult i64 %sub, %size
  br i1 %cmp, label %if.then, label %for.cond.preheader

for.cond.preheader:                               ; preds = %entry
  %cmp29.not = icmp eq i64 %size, 0
  br i1 %cmp29.not, label %for.cond.cleanup, label %for.body.preheader

for.body.preheader:                               ; preds = %for.cond.preheader
  %xtraiter = and i64 %size, 1
  %2 = icmp eq i64 %size, 1
  br i1 %2, label %for.cond.cleanup.loopexit.unr-lcssa, label %for.body.preheader.new

for.body.preheader.new:                           ; preds = %for.body.preheader
  %unroll_iter = and i64 %size, -2
  br label %for.body

if.then:                                          ; preds = %entry
  %exception.i.i = tail call ptr @__cxa_allocate_exception(i64 1) #16
  tail call void @__cxa_throw(ptr %exception.i.i, ptr nonnull @_ZTIN8NArchive3N7z19CInArchiveExceptionE, ptr null) #18
  unreachable

for.cond.cleanup.loopexit.unr-lcssa:              ; preds = %for.body, %for.body.preheader
  %i.010.unr = phi i64 [ 0, %for.body.preheader ], [ %inc5.1, %for.body ]
  %lcmp.mod.not = icmp eq i64 %xtraiter, 0
  br i1 %lcmp.mod.not, label %for.cond.cleanup, label %for.body.epil

for.body.epil:                                    ; preds = %for.cond.cleanup.loopexit.unr-lcssa
  %3 = load ptr, ptr %this, align 8, !tbaa !49
  %4 = load i64, ptr %_pos, align 8, !tbaa !52
  %inc.epil = add i64 %4, 1
  store i64 %inc.epil, ptr %_pos, align 8, !tbaa !52
  %arrayidx.epil = getelementptr inbounds i8, ptr %3, i64 %4
  %5 = load i8, ptr %arrayidx.epil, align 1, !tbaa !55
  %arrayidx4.epil = getelementptr inbounds i8, ptr %data, i64 %i.010.unr
  store i8 %5, ptr %arrayidx4.epil, align 1, !tbaa !55
  br label %for.cond.cleanup

for.cond.cleanup:                                 ; preds = %for.body.epil, %for.cond.cleanup.loopexit.unr-lcssa, %for.cond.preheader
  ret void

for.body:                                         ; preds = %for.body, %for.body.preheader.new
  %i.010 = phi i64 [ 0, %for.body.preheader.new ], [ %inc5.1, %for.body ]
  %niter = phi i64 [ 0, %for.body.preheader.new ], [ %niter.next.1, %for.body ]
  %6 = load ptr, ptr %this, align 8, !tbaa !49
  %7 = load i64, ptr %_pos, align 8, !tbaa !52
  %inc = add i64 %7, 1
  store i64 %inc, ptr %_pos, align 8, !tbaa !52
  %arrayidx = getelementptr inbounds i8, ptr %6, i64 %7
  %8 = load i8, ptr %arrayidx, align 1, !tbaa !55
  %arrayidx4 = getelementptr inbounds i8, ptr %data, i64 %i.010
  store i8 %8, ptr %arrayidx4, align 1, !tbaa !55
  %inc5 = or i64 %i.010, 1
  %9 = load ptr, ptr %this, align 8, !tbaa !49
  %10 = load i64, ptr %_pos, align 8, !tbaa !52
  %inc.1 = add i64 %10, 1
  store i64 %inc.1, ptr %_pos, align 8, !tbaa !52
  %arrayidx.1 = getelementptr inbounds i8, ptr %9, i64 %10
  %11 = load i8, ptr %arrayidx.1, align 1, !tbaa !55
  %arrayidx4.1 = getelementptr inbounds i8, ptr %data, i64 %inc5
  store i8 %11, ptr %arrayidx4.1, align 1, !tbaa !55
  %inc5.1 = add nuw i64 %i.010, 2
  %niter.next.1 = add i64 %niter, 2
  %niter.ncmp.1 = icmp eq i64 %niter.next.1, %unroll_iter
  br i1 %niter.ncmp.1, label %for.cond.cleanup.loopexit.unr-lcssa, label %for.body, !llvm.loop !56
}

; Function Attrs: mustprogress uwtable
define dso_local void @_ZN8NArchive3N7z8CInByte28SkipDataEy(ptr nocapture noundef nonnull align 8 dereferenceable(24) %this, i64 noundef %size) local_unnamed_addr #2 align 2 {
entry:
  %_size = getelementptr inbounds %"class.NArchive::N7z::CInByte2", ptr %this, i64 0, i32 1
  %0 = load i64, ptr %_size, align 8, !tbaa !51
  %_pos = getelementptr inbounds %"class.NArchive::N7z::CInByte2", ptr %this, i64 0, i32 2
  %1 = load i64, ptr %_pos, align 8, !tbaa !52
  %sub = sub i64 %0, %1
  %cmp = icmp ult i64 %sub, %size
  br i1 %cmp, label %if.then, label %if.end

if.then:                                          ; preds = %entry
  %exception.i.i = tail call ptr @__cxa_allocate_exception(i64 1) #16
  tail call void @__cxa_throw(ptr %exception.i.i, ptr nonnull @_ZTIN8NArchive3N7z19CInArchiveExceptionE, ptr null) #18
  unreachable

if.end:                                           ; preds = %entry
  %add = add i64 %1, %size
  store i64 %add, ptr %_pos, align 8, !tbaa !52
  ret void
}

; Function Attrs: mustprogress uwtable
define dso_local void @_ZN8NArchive3N7z8CInByte28SkipDataEv(ptr nocapture noundef nonnull align 8 dereferenceable(24) %this) local_unnamed_addr #2 align 2 {
entry:
  %call = tail call noundef i64 @_ZN8NArchive3N7z8CInByte210ReadNumberEv(ptr noundef nonnull align 8 dereferenceable(24) %this)
  %_size.i = getelementptr inbounds %"class.NArchive::N7z::CInByte2", ptr %this, i64 0, i32 1
  %0 = load i64, ptr %_size.i, align 8, !tbaa !51
  %_pos.i = getelementptr inbounds %"class.NArchive::N7z::CInByte2", ptr %this, i64 0, i32 2
  %1 = load i64, ptr %_pos.i, align 8, !tbaa !52
  %sub.i = sub i64 %0, %1
  %cmp.i = icmp ult i64 %sub.i, %call
  br i1 %cmp.i, label %if.then.i, label %_ZN8NArchive3N7z8CInByte28SkipDataEy.exit

if.then.i:                                        ; preds = %entry
  %exception.i.i.i = tail call ptr @__cxa_allocate_exception(i64 1) #16
  tail call void @__cxa_throw(ptr %exception.i.i.i, ptr nonnull @_ZTIN8NArchive3N7z19CInArchiveExceptionE, ptr null) #18
  unreachable

_ZN8NArchive3N7z8CInByte28SkipDataEy.exit:        ; preds = %entry
  %add.i = add i64 %1, %call
  store i64 %add.i, ptr %_pos.i, align 8, !tbaa !52
  ret void
}

; Function Attrs: mustprogress uwtable
define dso_local noundef i64 @_ZN8NArchive3N7z8CInByte210ReadNumberEv(ptr nocapture noundef nonnull align 8 dereferenceable(24) %this) local_unnamed_addr #2 align 2 {
entry:
  %_pos = getelementptr inbounds %"class.NArchive::N7z::CInByte2", ptr %this, i64 0, i32 2
  %0 = load i64, ptr %_pos, align 8, !tbaa !52
  %_size = getelementptr inbounds %"class.NArchive::N7z::CInByte2", ptr %this, i64 0, i32 1
  %1 = load i64, ptr %_size, align 8, !tbaa !51
  %cmp.not = icmp ult i64 %0, %1
  br i1 %cmp.not, label %if.end, label %if.then

if.then:                                          ; preds = %entry
  %exception.i.i = tail call ptr @__cxa_allocate_exception(i64 1) #16
  tail call void @__cxa_throw(ptr %exception.i.i, ptr nonnull @_ZTIN8NArchive3N7z19CInArchiveExceptionE, ptr null) #18
  unreachable

if.end:                                           ; preds = %entry
  %2 = load ptr, ptr %this, align 8, !tbaa !49
  %inc = add nuw i64 %0, 1
  store i64 %inc, ptr %_pos, align 8, !tbaa !52
  %arrayidx = getelementptr inbounds i8, ptr %2, i64 %0
  %3 = load i8, ptr %arrayidx, align 1, !tbaa !55
  %conv = zext i8 %3 to i32
  %4 = xor i64 %0, -1
  %5 = add i64 %1, %4
  %cmp5 = icmp sgt i8 %3, -1
  br i1 %cmp5, label %if.then6, label %if.end11

if.then6:                                         ; preds = %if.end16.6, %if.end16.5, %if.end16.4, %if.end16.3, %if.end16.2, %if.end16.1, %if.end16, %if.end
  %i.053.lcssa.wide = phi i64 [ 0, %if.end ], [ 8, %if.end16 ], [ 16, %if.end16.1 ], [ 24, %if.end16.2 ], [ 32, %if.end16.3 ], [ 40, %if.end16.4 ], [ 48, %if.end16.5 ], [ 56, %if.end16.6 ]
  %value.052.lcssa = phi i64 [ 0, %if.end ], [ %conv21, %if.end16 ], [ %or.1, %if.end16.1 ], [ %or.2, %if.end16.2 ], [ %or.3, %if.end16.3 ], [ %or.4, %if.end16.4 ], [ %or.5, %if.end16.5 ], [ %or.6, %if.end16.6 ]
  %mask.051.lcssa = phi i32 [ 383, %if.end ], [ 319, %if.end16 ], [ 287, %if.end16.1 ], [ 271, %if.end16.2 ], [ 263, %if.end16.3 ], [ 259, %if.end16.4 ], [ 257, %if.end16.5 ], [ 256, %if.end16.6 ]
  %and9 = and i32 %mask.051.lcssa, %conv
  %conv10 = zext i32 %and9 to i64
  %shl = shl nuw nsw i64 %conv10, %i.053.lcssa.wide
  %add = add nuw nsw i64 %shl, %value.052.lcssa
  br label %cleanup

if.end11:                                         ; preds = %if.end
  %exitcond.not = icmp eq i64 %5, 0
  br i1 %exitcond.not, label %if.then15, label %if.end16

if.then15:                                        ; preds = %if.end11.7, %if.end11.6, %if.end11.5, %if.end11.4, %if.end11.3, %if.end11.2, %if.end11.1, %if.end11
  %exception.i.i40 = tail call ptr @__cxa_allocate_exception(i64 1) #16
  tail call void @__cxa_throw(ptr %exception.i.i40, ptr nonnull @_ZTIN8NArchive3N7z19CInArchiveExceptionE, ptr null) #18
  unreachable

if.end16:                                         ; preds = %if.end11
  %inc19 = add nuw i64 %0, 2
  store i64 %inc19, ptr %_pos, align 8, !tbaa !52
  %arrayidx20 = getelementptr inbounds i8, ptr %2, i64 %inc
  %6 = load i8, ptr %arrayidx20, align 1, !tbaa !55
  %conv21 = zext i8 %6 to i64
  %and.1 = and i32 %conv, 64
  %cmp5.1 = icmp eq i32 %and.1, 0
  br i1 %cmp5.1, label %if.then6, label %if.end11.1

if.end11.1:                                       ; preds = %if.end16
  %exitcond.1.not = icmp eq i64 %5, 1
  br i1 %exitcond.1.not, label %if.then15, label %if.end16.1

if.end16.1:                                       ; preds = %if.end11.1
  %inc19.1 = add nuw i64 %0, 3
  store i64 %inc19.1, ptr %_pos, align 8, !tbaa !52
  %arrayidx20.1 = getelementptr inbounds i8, ptr %2, i64 %inc19
  %7 = load i8, ptr %arrayidx20.1, align 1, !tbaa !55
  %conv21.1 = zext i8 %7 to i64
  %shl24.1 = shl nuw nsw i64 %conv21.1, 8
  %or.1 = or i64 %shl24.1, %conv21
  %and.2 = and i32 %conv, 32
  %cmp5.2 = icmp eq i32 %and.2, 0
  br i1 %cmp5.2, label %if.then6, label %if.end11.2

if.end11.2:                                       ; preds = %if.end16.1
  %exitcond.2.not = icmp eq i64 %5, 2
  br i1 %exitcond.2.not, label %if.then15, label %if.end16.2

if.end16.2:                                       ; preds = %if.end11.2
  %inc19.2 = add nuw i64 %0, 4
  store i64 %inc19.2, ptr %_pos, align 8, !tbaa !52
  %arrayidx20.2 = getelementptr inbounds i8, ptr %2, i64 %inc19.1
  %8 = load i8, ptr %arrayidx20.2, align 1, !tbaa !55
  %conv21.2 = zext i8 %8 to i64
  %shl24.2 = shl nuw nsw i64 %conv21.2, 16
  %or.2 = or i64 %shl24.2, %or.1
  %and.3 = and i32 %conv, 16
  %cmp5.3 = icmp eq i32 %and.3, 0
  br i1 %cmp5.3, label %if.then6, label %if.end11.3

if.end11.3:                                       ; preds = %if.end16.2
  %exitcond.3.not = icmp eq i64 %5, 3
  br i1 %exitcond.3.not, label %if.then15, label %if.end16.3

if.end16.3:                                       ; preds = %if.end11.3
  %inc19.3 = add nuw i64 %0, 5
  store i64 %inc19.3, ptr %_pos, align 8, !tbaa !52
  %arrayidx20.3 = getelementptr inbounds i8, ptr %2, i64 %inc19.2
  %9 = load i8, ptr %arrayidx20.3, align 1, !tbaa !55
  %conv21.3 = zext i8 %9 to i64
  %shl24.3 = shl nuw nsw i64 %conv21.3, 24
  %or.3 = or i64 %shl24.3, %or.2
  %and.4 = and i32 %conv, 8
  %cmp5.4 = icmp eq i32 %and.4, 0
  br i1 %cmp5.4, label %if.then6, label %if.end11.4

if.end11.4:                                       ; preds = %if.end16.3
  %exitcond.4.not = icmp eq i64 %5, 4
  br i1 %exitcond.4.not, label %if.then15, label %if.end16.4

if.end16.4:                                       ; preds = %if.end11.4
  %inc19.4 = add nuw i64 %0, 6
  store i64 %inc19.4, ptr %_pos, align 8, !tbaa !52
  %arrayidx20.4 = getelementptr inbounds i8, ptr %2, i64 %inc19.3
  %10 = load i8, ptr %arrayidx20.4, align 1, !tbaa !55
  %conv21.4 = zext i8 %10 to i64
  %shl24.4 = shl nuw nsw i64 %conv21.4, 32
  %or.4 = or i64 %shl24.4, %or.3
  %and.5 = and i32 %conv, 4
  %cmp5.5 = icmp eq i32 %and.5, 0
  br i1 %cmp5.5, label %if.then6, label %if.end11.5

if.end11.5:                                       ; preds = %if.end16.4
  %exitcond.5.not = icmp eq i64 %5, 5
  br i1 %exitcond.5.not, label %if.then15, label %if.end16.5

if.end16.5:                                       ; preds = %if.end11.5
  %inc19.5 = add nuw i64 %0, 7
  store i64 %inc19.5, ptr %_pos, align 8, !tbaa !52
  %arrayidx20.5 = getelementptr inbounds i8, ptr %2, i64 %inc19.4
  %11 = load i8, ptr %arrayidx20.5, align 1, !tbaa !55
  %conv21.5 = zext i8 %11 to i64
  %shl24.5 = shl nuw nsw i64 %conv21.5, 40
  %or.5 = or i64 %shl24.5, %or.4
  %and.6 = and i32 %conv, 2
  %cmp5.6 = icmp eq i32 %and.6, 0
  br i1 %cmp5.6, label %if.then6, label %if.end11.6

if.end11.6:                                       ; preds = %if.end16.5
  %exitcond.6.not = icmp eq i64 %5, 6
  br i1 %exitcond.6.not, label %if.then15, label %if.end16.6

if.end16.6:                                       ; preds = %if.end11.6
  %inc19.6 = add nuw i64 %0, 8
  store i64 %inc19.6, ptr %_pos, align 8, !tbaa !52
  %arrayidx20.6 = getelementptr inbounds i8, ptr %2, i64 %inc19.5
  %12 = load i8, ptr %arrayidx20.6, align 1, !tbaa !55
  %conv21.6 = zext i8 %12 to i64
  %shl24.6 = shl nuw nsw i64 %conv21.6, 48
  %or.6 = or i64 %shl24.6, %or.5
  %and.7 = and i32 %conv, 1
  %cmp5.7 = icmp eq i32 %and.7, 0
  br i1 %cmp5.7, label %if.then6, label %if.end11.7

if.end11.7:                                       ; preds = %if.end16.6
  %exitcond.7.not = icmp eq i64 %5, 7
  br i1 %exitcond.7.not, label %if.then15, label %if.end16.7

if.end16.7:                                       ; preds = %if.end11.7
  %inc19.7 = add nuw i64 %0, 9
  store i64 %inc19.7, ptr %_pos, align 8, !tbaa !52
  %arrayidx20.7 = getelementptr inbounds i8, ptr %2, i64 %inc19.6
  %13 = load i8, ptr %arrayidx20.7, align 1, !tbaa !55
  %conv21.7 = zext i8 %13 to i64
  %shl24.7 = shl nuw i64 %conv21.7, 56
  %or.7 = or i64 %shl24.7, %or.6
  br label %cleanup

cleanup:                                          ; preds = %if.end16.7, %if.then6
  %spec.select = phi i64 [ %add, %if.then6 ], [ %or.7, %if.end16.7 ]
  ret i64 %spec.select
}

; Function Attrs: mustprogress uwtable
define dso_local noundef i32 @_ZN8NArchive3N7z8CInByte27ReadNumEv(ptr nocapture noundef nonnull align 8 dereferenceable(24) %this) local_unnamed_addr #2 align 2 {
entry:
  %call = tail call noundef i64 @_ZN8NArchive3N7z8CInByte210ReadNumberEv(ptr noundef nonnull align 8 dereferenceable(24) %this)
  %cmp = icmp ugt i64 %call, 2147483647
  br i1 %cmp, label %if.then, label %if.end

if.then:                                          ; preds = %entry
  %exception.i.i = tail call ptr @__cxa_allocate_exception(i64 1) #16
  tail call void @__cxa_throw(ptr %exception.i.i, ptr nonnull @_ZTIN8NArchive3N7z19CInArchiveExceptionE, ptr null) #18
  unreachable

if.end:                                           ; preds = %entry
  %conv = trunc i64 %call to i32
  ret i32 %conv
}

; Function Attrs: mustprogress uwtable
define dso_local noundef i32 @_ZN8NArchive3N7z8CInByte210ReadUInt32Ev(ptr nocapture noundef nonnull align 8 dereferenceable(24) %this) local_unnamed_addr #2 align 2 {
entry:
  %_pos = getelementptr inbounds %"class.NArchive::N7z::CInByte2", ptr %this, i64 0, i32 2
  %0 = load i64, ptr %_pos, align 8, !tbaa !52
  %add = add i64 %0, 4
  %_size = getelementptr inbounds %"class.NArchive::N7z::CInByte2", ptr %this, i64 0, i32 1
  %1 = load i64, ptr %_size, align 8, !tbaa !51
  %cmp = icmp ugt i64 %add, %1
  br i1 %cmp, label %if.then, label %if.end

if.then:                                          ; preds = %entry
  %exception.i.i = tail call ptr @__cxa_allocate_exception(i64 1) #16
  tail call void @__cxa_throw(ptr %exception.i.i, ptr nonnull @_ZTIN8NArchive3N7z19CInArchiveExceptionE, ptr null) #18
  unreachable

if.end:                                           ; preds = %entry
  %2 = load ptr, ptr %this, align 8, !tbaa !49
  %add.ptr = getelementptr inbounds i8, ptr %2, i64 %0
  %3 = load i32, ptr %add.ptr, align 4, !tbaa !26
  store i64 %add, ptr %_pos, align 8, !tbaa !52
  ret i32 %3
}

; Function Attrs: mustprogress uwtable
define dso_local noundef i64 @_ZN8NArchive3N7z8CInByte210ReadUInt64Ev(ptr nocapture noundef nonnull align 8 dereferenceable(24) %this) local_unnamed_addr #2 align 2 {
entry:
  %_pos = getelementptr inbounds %"class.NArchive::N7z::CInByte2", ptr %this, i64 0, i32 2
  %0 = load i64, ptr %_pos, align 8, !tbaa !52
  %add = add i64 %0, 8
  %_size = getelementptr inbounds %"class.NArchive::N7z::CInByte2", ptr %this, i64 0, i32 1
  %1 = load i64, ptr %_size, align 8, !tbaa !51
  %cmp = icmp ugt i64 %add, %1
  br i1 %cmp, label %if.then, label %if.end

if.then:                                          ; preds = %entry
  %exception.i.i = tail call ptr @__cxa_allocate_exception(i64 1) #16
  tail call void @__cxa_throw(ptr %exception.i.i, ptr nonnull @_ZTIN8NArchive3N7z19CInArchiveExceptionE, ptr null) #18
  unreachable

if.end:                                           ; preds = %entry
  %2 = load ptr, ptr %this, align 8, !tbaa !49
  %add.ptr = getelementptr inbounds i8, ptr %2, i64 %0
  %3 = load i64, ptr %add.ptr, align 8, !tbaa !57
  store i64 %add, ptr %_pos, align 8, !tbaa !52
  ret i64 %3
}

; Function Attrs: mustprogress uwtable
define dso_local void @_ZN8NArchive3N7z8CInByte210ReadStringER11CStringBaseIwE(ptr nocapture noundef nonnull align 8 dereferenceable(24) %this, ptr nocapture noundef nonnull align 8 dereferenceable(16) %s) local_unnamed_addr #2 align 2 {
entry:
  %0 = load ptr, ptr %this, align 8, !tbaa !49
  %_pos = getelementptr inbounds %"class.NArchive::N7z::CInByte2", ptr %this, i64 0, i32 2
  %1 = load i64, ptr %_pos, align 8, !tbaa !52
  %add.ptr = getelementptr inbounds i8, ptr %0, i64 %1
  %_size = getelementptr inbounds %"class.NArchive::N7z::CInByte2", ptr %this, i64 0, i32 1
  %2 = load i64, ptr %_size, align 8, !tbaa !51
  %sub = sub i64 %2, %1
  %div50 = and i64 %sub, -2
  %cmp53.not = icmp eq i64 %div50, 0
  br i1 %cmp53.not, label %for.end, label %for.body

for.body:                                         ; preds = %entry, %for.inc
  %i.054 = phi i64 [ %add7, %for.inc ], [ 0, %entry ]
  %arrayidx = getelementptr inbounds i8, ptr %add.ptr, i64 %i.054
  %3 = load i8, ptr %arrayidx, align 1, !tbaa !55
  %cmp3 = icmp eq i8 %3, 0
  br i1 %cmp3, label %land.lhs.true, label %for.inc

land.lhs.true:                                    ; preds = %for.body
  %add = or i64 %i.054, 1
  %arrayidx4 = getelementptr inbounds i8, ptr %add.ptr, i64 %add
  %4 = load i8, ptr %arrayidx4, align 1, !tbaa !55
  %cmp6 = icmp eq i8 %4, 0
  br i1 %cmp6, label %for.end, label %for.inc

for.inc:                                          ; preds = %for.body, %land.lhs.true
  %add7 = add nuw i64 %i.054, 2
  %cmp = icmp ult i64 %add7, %div50
  br i1 %cmp, label %for.body, label %for.end, !llvm.loop !58

for.end:                                          ; preds = %for.inc, %land.lhs.true, %entry
  %i.0.lcssa = phi i64 [ 0, %entry ], [ %i.054, %land.lhs.true ], [ %add7, %for.inc ]
  %cmp8 = icmp eq i64 %i.0.lcssa, %div50
  br i1 %cmp8, label %if.then9, label %if.end10

if.then9:                                         ; preds = %for.end
  %exception.i.i = tail call ptr @__cxa_allocate_exception(i64 1) #16
  tail call void @__cxa_throw(ptr %exception.i.i, ptr nonnull @_ZTIN8NArchive3N7z19CInArchiveExceptionE, ptr null) #18
  unreachable

if.end10:                                         ; preds = %for.end
  %div1151 = lshr exact i64 %i.0.lcssa, 1
  %conv12 = trunc i64 %div1151 to i32
  %cmp13 = icmp sgt i32 %conv12, -1
  %mul15 = and i64 %i.0.lcssa, 8589934590
  %cmp16.not = icmp eq i64 %mul15, %i.0.lcssa
  %or.cond = and i1 %cmp16.not, %cmp13
  br i1 %or.cond, label %if.end18, label %if.then17

if.then17:                                        ; preds = %if.end10
  %exception.i.i52 = tail call ptr @__cxa_allocate_exception(i64 1) #16
  tail call void @__cxa_throw(ptr %exception.i.i52, ptr nonnull @_ZTIN8NArchive3N7z19CInArchiveExceptionE, ptr null) #18
  unreachable

if.end18:                                         ; preds = %if.end10
  %_capacity.i = getelementptr inbounds %class.CStringBase, ptr %s, i64 0, i32 2
  %5 = load i32, ptr %_capacity.i, align 4, !tbaa !59
  %cmp.not.i = icmp sgt i32 %5, %conv12
  br i1 %cmp.not.i, label %_ZN11CStringBaseIwE9GetBufferEi.exit, label %if.then.i

if.then.i:                                        ; preds = %if.end18
  %add.i.i = add nuw nsw i32 %conv12, 1
  %cmp.i.i = icmp eq i32 %add.i.i, %5
  br i1 %cmp.i.i, label %_ZN11CStringBaseIwE9GetBufferEi.exit, label %if.end.i.i

if.end.i.i:                                       ; preds = %if.then.i
  %conv.i.i = zext i32 %add.i.i to i64
  %6 = shl nuw nsw i64 %conv.i.i, 2
  %call.i.i = tail call noalias noundef nonnull ptr @_Znam(i64 noundef %6) #17
  %call.i.i60 = ptrtoint ptr %call.i.i to i64
  %cmp3.i.i = icmp sgt i32 %5, 0
  br i1 %cmp3.i.i, label %for.cond.preheader.i.i, label %if.end9.i.i

for.cond.preheader.i.i:                           ; preds = %if.end.i.i
  %_length.i.i = getelementptr inbounds %class.CStringBase, ptr %s, i64 0, i32 1
  %7 = load i32, ptr %_length.i.i, align 8, !tbaa !61
  %cmp522.i.i = icmp sgt i32 %7, 0
  %8 = load ptr, ptr %s, align 8, !tbaa !62
  br i1 %cmp522.i.i, label %for.body.lr.ph.i.i, label %for.cond.cleanup.i.i

for.body.lr.ph.i.i:                               ; preds = %for.cond.preheader.i.i
  %9 = ptrtoint ptr %8 to i64
  %wide.trip.count.i.i = zext i32 %7 to i64
  %min.iters.check = icmp ult i32 %7, 8
  %10 = sub i64 %call.i.i60, %9
  %diff.check = icmp ult i64 %10, 32
  %or.cond77 = select i1 %min.iters.check, i1 true, i1 %diff.check
  br i1 %or.cond77, label %for.body.i.i.preheader, label %vector.ph

vector.ph:                                        ; preds = %for.body.lr.ph.i.i
  %n.vec = and i64 %wide.trip.count.i.i, 4294967288
  br label %vector.body

vector.body:                                      ; preds = %vector.body, %vector.ph
  %index = phi i64 [ 0, %vector.ph ], [ %index.next, %vector.body ]
  %11 = getelementptr inbounds i32, ptr %8, i64 %index
  %wide.load = load <4 x i32>, ptr %11, align 4, !tbaa !63
  %12 = getelementptr inbounds i32, ptr %11, i64 4
  %wide.load61 = load <4 x i32>, ptr %12, align 4, !tbaa !63
  %13 = getelementptr inbounds i32, ptr %call.i.i, i64 %index
  store <4 x i32> %wide.load, ptr %13, align 4, !tbaa !63
  %14 = getelementptr inbounds i32, ptr %13, i64 4
  store <4 x i32> %wide.load61, ptr %14, align 4, !tbaa !63
  %index.next = add nuw i64 %index, 8
  %15 = icmp eq i64 %index.next, %n.vec
  br i1 %15, label %middle.block, label %vector.body, !llvm.loop !65

middle.block:                                     ; preds = %vector.body
  %cmp.n = icmp eq i64 %n.vec, %wide.trip.count.i.i
  br i1 %cmp.n, label %delete.notnull.i.i, label %for.body.i.i.preheader

for.body.i.i.preheader:                           ; preds = %for.body.lr.ph.i.i, %middle.block
  %indvars.iv.i.i.ph = phi i64 [ 0, %for.body.lr.ph.i.i ], [ %n.vec, %middle.block ]
  %16 = xor i64 %indvars.iv.i.i.ph, -1
  %17 = add nsw i64 %16, %wide.trip.count.i.i
  %xtraiter = and i64 %wide.trip.count.i.i, 3
  %lcmp.mod.not = icmp eq i64 %xtraiter, 0
  br i1 %lcmp.mod.not, label %for.body.i.i.prol.loopexit, label %for.body.i.i.prol

for.body.i.i.prol:                                ; preds = %for.body.i.i.preheader, %for.body.i.i.prol
  %indvars.iv.i.i.prol = phi i64 [ %indvars.iv.next.i.i.prol, %for.body.i.i.prol ], [ %indvars.iv.i.i.ph, %for.body.i.i.preheader ]
  %prol.iter = phi i64 [ %prol.iter.next, %for.body.i.i.prol ], [ 0, %for.body.i.i.preheader ]
  %arrayidx.i.i.prol = getelementptr inbounds i32, ptr %8, i64 %indvars.iv.i.i.prol
  %18 = load i32, ptr %arrayidx.i.i.prol, align 4, !tbaa !63
  %arrayidx7.i.i.prol = getelementptr inbounds i32, ptr %call.i.i, i64 %indvars.iv.i.i.prol
  store i32 %18, ptr %arrayidx7.i.i.prol, align 4, !tbaa !63
  %indvars.iv.next.i.i.prol = add nuw nsw i64 %indvars.iv.i.i.prol, 1
  %prol.iter.next = add i64 %prol.iter, 1
  %prol.iter.cmp.not = icmp eq i64 %prol.iter.next, %xtraiter
  br i1 %prol.iter.cmp.not, label %for.body.i.i.prol.loopexit, label %for.body.i.i.prol, !llvm.loop !68

for.body.i.i.prol.loopexit:                       ; preds = %for.body.i.i.prol, %for.body.i.i.preheader
  %indvars.iv.i.i.unr = phi i64 [ %indvars.iv.i.i.ph, %for.body.i.i.preheader ], [ %indvars.iv.next.i.i.prol, %for.body.i.i.prol ]
  %19 = icmp ult i64 %17, 3
  br i1 %19, label %delete.notnull.i.i, label %for.body.i.i

for.cond.cleanup.i.i:                             ; preds = %for.cond.preheader.i.i
  %isnull.i.i = icmp eq ptr %8, null
  br i1 %isnull.i.i, label %if.end9.i.i, label %delete.notnull.i.i

for.body.i.i:                                     ; preds = %for.body.i.i.prol.loopexit, %for.body.i.i
  %indvars.iv.i.i = phi i64 [ %indvars.iv.next.i.i.3, %for.body.i.i ], [ %indvars.iv.i.i.unr, %for.body.i.i.prol.loopexit ]
  %arrayidx.i.i = getelementptr inbounds i32, ptr %8, i64 %indvars.iv.i.i
  %20 = load i32, ptr %arrayidx.i.i, align 4, !tbaa !63
  %arrayidx7.i.i = getelementptr inbounds i32, ptr %call.i.i, i64 %indvars.iv.i.i
  store i32 %20, ptr %arrayidx7.i.i, align 4, !tbaa !63
  %indvars.iv.next.i.i = add nuw nsw i64 %indvars.iv.i.i, 1
  %arrayidx.i.i.1 = getelementptr inbounds i32, ptr %8, i64 %indvars.iv.next.i.i
  %21 = load i32, ptr %arrayidx.i.i.1, align 4, !tbaa !63
  %arrayidx7.i.i.1 = getelementptr inbounds i32, ptr %call.i.i, i64 %indvars.iv.next.i.i
  store i32 %21, ptr %arrayidx7.i.i.1, align 4, !tbaa !63
  %indvars.iv.next.i.i.1 = add nuw nsw i64 %indvars.iv.i.i, 2
  %arrayidx.i.i.2 = getelementptr inbounds i32, ptr %8, i64 %indvars.iv.next.i.i.1
  %22 = load i32, ptr %arrayidx.i.i.2, align 4, !tbaa !63
  %arrayidx7.i.i.2 = getelementptr inbounds i32, ptr %call.i.i, i64 %indvars.iv.next.i.i.1
  store i32 %22, ptr %arrayidx7.i.i.2, align 4, !tbaa !63
  %indvars.iv.next.i.i.2 = add nuw nsw i64 %indvars.iv.i.i, 3
  %arrayidx.i.i.3 = getelementptr inbounds i32, ptr %8, i64 %indvars.iv.next.i.i.2
  %23 = load i32, ptr %arrayidx.i.i.3, align 4, !tbaa !63
  %arrayidx7.i.i.3 = getelementptr inbounds i32, ptr %call.i.i, i64 %indvars.iv.next.i.i.2
  store i32 %23, ptr %arrayidx7.i.i.3, align 4, !tbaa !63
  %indvars.iv.next.i.i.3 = add nuw nsw i64 %indvars.iv.i.i, 4
  %exitcond.not.i.i.3 = icmp eq i64 %indvars.iv.next.i.i.3, %wide.trip.count.i.i
  br i1 %exitcond.not.i.i.3, label %delete.notnull.i.i, label %for.body.i.i, !llvm.loop !70

delete.notnull.i.i:                               ; preds = %for.body.i.i.prol.loopexit, %for.body.i.i, %middle.block, %for.cond.cleanup.i.i
  tail call void @_ZdaPv(ptr noundef nonnull %8) #19
  br label %if.end9.i.i

if.end9.i.i:                                      ; preds = %delete.notnull.i.i, %for.cond.cleanup.i.i, %if.end.i.i
  store ptr %call.i.i, ptr %s, align 8, !tbaa !62
  %_length12.i.i = getelementptr inbounds %class.CStringBase, ptr %s, i64 0, i32 1
  %24 = load i32, ptr %_length12.i.i, align 8, !tbaa !61
  %idxprom13.i.i = sext i32 %24 to i64
  %arrayidx14.i.i = getelementptr inbounds i32, ptr %call.i.i, i64 %idxprom13.i.i
  store i32 0, ptr %arrayidx14.i.i, align 4, !tbaa !63
  store i32 %add.i.i, ptr %_capacity.i, align 4, !tbaa !59
  br label %_ZN11CStringBaseIwE9GetBufferEi.exit

_ZN11CStringBaseIwE9GetBufferEi.exit:             ; preds = %if.end18, %if.then.i, %if.end9.i.i
  %25 = load ptr, ptr %s, align 8, !tbaa !62
  %cmp2156 = icmp sgt i32 %conv12, 0
  br i1 %cmp2156, label %for.body22.preheader, label %for.end27

for.body22.preheader:                             ; preds = %_ZN11CStringBaseIwE9GetBufferEi.exit
  %wide.trip.count = and i64 %div1151, 4294967295
  %min.iters.check64 = icmp ult i64 %wide.trip.count, 8
  br i1 %min.iters.check64, label %for.body22.preheader78, label %vector.ph65

vector.ph65:                                      ; preds = %for.body22.preheader
  %n.mod.vf66 = and i64 %div1151, 7
  %n.vec67 = sub nsw i64 %wide.trip.count, %n.mod.vf66
  %26 = shl nsw i64 %n.vec67, 1
  %ind.end = getelementptr i8, ptr %add.ptr, i64 %26
  br label %vector.body71

vector.body71:                                    ; preds = %vector.body71, %vector.ph65
  %index72 = phi i64 [ 0, %vector.ph65 ], [ %index.next76, %vector.body71 ]
  %27 = shl i64 %index72, 1
  %next.gep = getelementptr i8, ptr %add.ptr, i64 %27
  %wide.load74 = load <4 x i16>, ptr %next.gep, align 2, !tbaa !71
  %28 = getelementptr i16, ptr %next.gep, i64 4
  %wide.load75 = load <4 x i16>, ptr %28, align 2, !tbaa !71
  %29 = zext <4 x i16> %wide.load74 to <4 x i32>
  %30 = zext <4 x i16> %wide.load75 to <4 x i32>
  %31 = getelementptr inbounds i32, ptr %25, i64 %index72
  store <4 x i32> %29, ptr %31, align 4, !tbaa !63
  %32 = getelementptr inbounds i32, ptr %31, i64 4
  store <4 x i32> %30, ptr %32, align 4, !tbaa !63
  %index.next76 = add nuw i64 %index72, 8
  %33 = icmp eq i64 %index.next76, %n.vec67
  br i1 %33, label %middle.block62, label %vector.body71, !llvm.loop !73

middle.block62:                                   ; preds = %vector.body71
  %cmp.n70 = icmp eq i64 %n.mod.vf66, 0
  br i1 %cmp.n70, label %for.end27, label %for.body22.preheader78

for.body22.preheader78:                           ; preds = %for.body22.preheader, %middle.block62
  %indvars.iv.ph = phi i64 [ 0, %for.body22.preheader ], [ %n.vec67, %middle.block62 ]
  %buf.057.ph = phi ptr [ %add.ptr, %for.body22.preheader ], [ %ind.end, %middle.block62 ]
  br label %for.body22

for.body22:                                       ; preds = %for.body22.preheader78, %for.body22
  %indvars.iv = phi i64 [ %indvars.iv.next, %for.body22 ], [ %indvars.iv.ph, %for.body22.preheader78 ]
  %buf.057 = phi ptr [ %add.ptr26, %for.body22 ], [ %buf.057.ph, %for.body22.preheader78 ]
  %34 = load i16, ptr %buf.057, align 2, !tbaa !71
  %conv23 = zext i16 %34 to i32
  %arrayidx24 = getelementptr inbounds i32, ptr %25, i64 %indvars.iv
  store i32 %conv23, ptr %arrayidx24, align 4, !tbaa !63
  %indvars.iv.next = add nuw nsw i64 %indvars.iv, 1
  %add.ptr26 = getelementptr inbounds i8, ptr %buf.057, i64 2
  %exitcond.not = icmp eq i64 %indvars.iv.next, %wide.trip.count
  br i1 %exitcond.not, label %for.end27, label %for.body22, !llvm.loop !74

for.end27:                                        ; preds = %for.body22, %middle.block62, %_ZN11CStringBaseIwE9GetBufferEi.exit
  %sext = shl i64 %i.0.lcssa, 31
  %idxprom.i = ashr exact i64 %sext, 32
  %arrayidx.i = getelementptr inbounds i32, ptr %25, i64 %idxprom.i
  store i32 0, ptr %arrayidx.i, align 4, !tbaa !63
  %_length.i = getelementptr inbounds %class.CStringBase, ptr %s, i64 0, i32 1
  store i32 %conv12, ptr %_length.i, align 8, !tbaa !61
  %add28 = add i64 %i.0.lcssa, 2
  %35 = load i64, ptr %_pos, align 8, !tbaa !52
  %add30 = add i64 %add28, %35
  store i64 %add30, ptr %_pos, align 8, !tbaa !52
  ret void
}

; Function Attrs: uwtable
define dso_local noundef i32 @_ZN8NArchive3N7z10CInArchive20FindAndReadSignatureEP9IInStreamPKy(ptr noundef nonnull align 8 dereferenceable(96) %this, ptr noundef %stream, ptr noundef readonly %searchHeaderSizeLimit) local_unnamed_addr #0 align 2 personality ptr @__gxx_personality_v0 {
entry:
  %processedSize = alloca i32, align 4
  %_header = getelementptr inbounds %"class.NArchive::N7z::CInArchive", ptr %this, i64 0, i32 4
  %call = tail call noundef i32 @_Z16ReadStream_FALSEP19ISequentialInStreamPvm(ptr noundef %stream, ptr noundef nonnull %_header, i64 noundef 32)
  %cmp.not.not = icmp eq i32 %call, 0
  br i1 %cmp.not.not, label %cleanup.cont, label %return

cleanup.cont:                                     ; preds = %entry
  %0 = load i8, ptr %_header, align 8, !tbaa !55
  %1 = load i8, ptr @_ZN8NArchive3N7z10kSignatureE, align 1, !tbaa !55
  %cmp4.not.i = icmp eq i8 %0, %1
  br i1 %cmp4.not.i, label %for.cond.i, label %if.end.i

for.cond.i:                                       ; preds = %cleanup.cont
  %arrayidx.1.i = getelementptr inbounds %"class.NArchive::N7z::CInArchive", ptr %this, i64 0, i32 4, i64 1
  %2 = load i8, ptr %arrayidx.1.i, align 1, !tbaa !55
  %3 = load i8, ptr getelementptr inbounds ([6 x i8], ptr @_ZN8NArchive3N7z10kSignatureE, i64 0, i64 1), align 1, !tbaa !55
  %cmp4.not.1.i = icmp eq i8 %2, %3
  br i1 %cmp4.not.1.i, label %for.cond.1.i, label %if.end.i

for.cond.1.i:                                     ; preds = %for.cond.i
  %arrayidx.2.i = getelementptr inbounds %"class.NArchive::N7z::CInArchive", ptr %this, i64 0, i32 4, i64 2
  %4 = load i8, ptr %arrayidx.2.i, align 2, !tbaa !55
  %5 = load i8, ptr getelementptr inbounds ([6 x i8], ptr @_ZN8NArchive3N7z10kSignatureE, i64 0, i64 2), align 1, !tbaa !55
  %cmp4.not.2.i = icmp eq i8 %4, %5
  br i1 %cmp4.not.2.i, label %for.cond.2.i, label %if.end.i

for.cond.2.i:                                     ; preds = %for.cond.1.i
  %arrayidx.3.i = getelementptr inbounds %"class.NArchive::N7z::CInArchive", ptr %this, i64 0, i32 4, i64 3
  %6 = load i8, ptr %arrayidx.3.i, align 1, !tbaa !55
  %7 = load i8, ptr getelementptr inbounds ([6 x i8], ptr @_ZN8NArchive3N7z10kSignatureE, i64 0, i64 3), align 1, !tbaa !55
  %cmp4.not.3.i = icmp eq i8 %6, %7
  br i1 %cmp4.not.3.i, label %for.cond.3.i, label %if.end.i

for.cond.3.i:                                     ; preds = %for.cond.2.i
  %arrayidx.4.i = getelementptr inbounds %"class.NArchive::N7z::CInArchive", ptr %this, i64 0, i32 4, i64 4
  %8 = load i8, ptr %arrayidx.4.i, align 4, !tbaa !55
  %9 = load i8, ptr getelementptr inbounds ([6 x i8], ptr @_ZN8NArchive3N7z10kSignatureE, i64 0, i64 4), align 1, !tbaa !55
  %cmp4.not.4.i = icmp eq i8 %8, %9
  br i1 %cmp4.not.4.i, label %for.cond.4.i, label %if.end.i

for.cond.4.i:                                     ; preds = %for.cond.3.i
  %arrayidx.5.i = getelementptr inbounds %"class.NArchive::N7z::CInArchive", ptr %this, i64 0, i32 4, i64 5
  %10 = load i8, ptr %arrayidx.5.i, align 1, !tbaa !55
  %11 = load i8, ptr getelementptr inbounds ([6 x i8], ptr @_ZN8NArchive3N7z10kSignatureE, i64 0, i64 5), align 1, !tbaa !55
  %cmp4.not.5.i = icmp eq i8 %10, %11
  br i1 %cmp4.not.5.i, label %for.cond.5.i, label %if.end.i

for.cond.5.i:                                     ; preds = %for.cond.4.i
  %add.ptr.i = getelementptr inbounds %"class.NArchive::N7z::CInArchive", ptr %this, i64 0, i32 4, i64 12
  %call.i = tail call i32 @CrcCalc(ptr noundef nonnull %add.ptr.i, i64 noundef 20)
  %add.ptr5.i = getelementptr inbounds %"class.NArchive::N7z::CInArchive", ptr %this, i64 0, i32 4, i64 8
  %12 = load i32, ptr %add.ptr5.i, align 8
  %cmp6.i = icmp eq i32 %call.i, %12
  br i1 %cmp6.i, label %return, label %for.body11.preheader.i

for.body11.preheader.i:                           ; preds = %for.cond.5.i
  %13 = load <16 x i8>, ptr %add.ptr.i, align 4
  %.fr = freeze <16 x i8> %13
  %14 = icmp ne <16 x i8> %.fr, zeroinitializer
  %arrayidx13.20.i = getelementptr inbounds %"class.NArchive::N7z::CInArchive", ptr %this, i64 0, i32 4, i64 28
  %15 = load <4 x i8>, ptr %arrayidx13.20.i, align 4
  %.fr277 = freeze <4 x i8> %15
  %16 = bitcast <16 x i1> %14 to i16
  %17 = icmp eq i16 %16, 0
  %.fr277.scalar = bitcast <4 x i8> %.fr277 to i32
  %18 = or i32 %12, %.fr277.scalar
  %19 = icmp eq i32 %18, 0
  %op.rdx276 = and i1 %17, %19
  br i1 %op.rdx276, label %for.cond9.23.i, label %if.end.i

for.cond9.23.i:                                   ; preds = %for.body11.preheader.i
  %arrayidx21.i = getelementptr inbounds %"class.NArchive::N7z::CInArchive", ptr %this, i64 0, i32 4, i64 6
  %20 = load i8, ptr %arrayidx21.i, align 2, !tbaa !55
  %cmp23.not.i = icmp ne i8 %20, 0
  %arrayidx24.i = getelementptr inbounds %"class.NArchive::N7z::CInArchive", ptr %this, i64 0, i32 4, i64 7
  %21 = load i8, ptr %arrayidx24.i, align 1
  %cmp26.i = icmp ne i8 %21, 0
  %or.cond221 = select i1 %cmp23.not.i, i1 true, i1 %cmp26.i
  br i1 %or.cond221, label %return, label %if.end.i

if.end.i:                                         ; preds = %for.cond9.23.i, %cleanup.cont, %for.cond.i, %for.cond.1.i, %for.cond.2.i, %for.cond.3.i, %for.cond.4.i, %for.body11.preheader.i
  %call.i138139 = tail call noalias noundef nonnull dereferenceable(65536) ptr @_Znam(i64 noundef 65536) #17
  tail call void @llvm.memcpy.p0.p0.i64(ptr noundef nonnull align 1 dereferenceable(32) %call.i138139, ptr noundef nonnull align 8 dereferenceable(32) %_header, i64 32, i1 false)
  %_arhiveBeginStreamPosition = getelementptr inbounds %"class.NArchive::N7z::CInArchive", ptr %this, i64 0, i32 3
  %22 = load i64, ptr %_arhiveBeginStreamPosition, align 8, !tbaa !75
  %cmp12.not = icmp eq ptr %searchHeaderSizeLimit, null
  br label %for.cond

for.cond:                                         ; preds = %cleanup78, %if.end.i
  %curTestPos.0 = phi i64 [ %22, %if.end.i ], [ %add73, %cleanup78 ]
  br i1 %cmp12.not, label %do.body.preheader, label %if.then13

if.then13:                                        ; preds = %for.cond
  %23 = load i64, ptr %_arhiveBeginStreamPosition, align 8, !tbaa !75
  %sub = sub i64 %curTestPos.0, %23
  %24 = load i64, ptr %searchHeaderSizeLimit, align 8, !tbaa !57
  %cmp15 = icmp ugt i64 %sub, %24
  br i1 %cmp15, label %_ZN7CBufferIhED2Ev.exit, label %do.body.preheader

do.body.preheader:                                ; preds = %if.then13, %for.cond
  br label %do.body

do.body:                                          ; preds = %do.body.preheader, %do.cond
  %numPrevBytes.1 = phi i32 [ %add, %do.cond ], [ 32, %do.body.preheader ]
  %sub19 = sub nuw nsw i32 65536, %numPrevBytes.1
  call void @llvm.lifetime.start.p0(i64 4, ptr nonnull %processedSize) #16
  %idx.ext = zext i32 %numPrevBytes.1 to i64
  %add.ptr = getelementptr inbounds i8, ptr %call.i138139, i64 %idx.ext
  %vtable = load ptr, ptr %stream, align 8, !tbaa !13
  %vfn = getelementptr inbounds ptr, ptr %vtable, i64 5
  %25 = load ptr, ptr %vfn, align 8
  %call23 = invoke noundef i32 %25(ptr noundef nonnull align 8 dereferenceable(8) %stream, ptr noundef nonnull %add.ptr, i32 noundef %sub19, ptr noundef nonnull %processedSize)
          to label %invoke.cont22 unwind label %lpad21

invoke.cont22:                                    ; preds = %do.body
  %cmp24.not = icmp eq i32 %call23, 0
  br i1 %cmp24.not, label %cleanup33, label %cleanup33.thread

cleanup33.thread:                                 ; preds = %invoke.cont22
  call void @llvm.lifetime.end.p0(i64 4, ptr nonnull %processedSize) #16
  br label %_ZN7CBufferIhED2Ev.exit

lpad21:                                           ; preds = %do.body
  %26 = landingpad { ptr, i32 }
          cleanup
  call void @llvm.lifetime.end.p0(i64 4, ptr nonnull %processedSize) #16
  br label %delete.notnull.i169

cleanup33:                                        ; preds = %invoke.cont22
  %27 = load i32, ptr %processedSize, align 4, !tbaa !26
  %cmp30.not = icmp eq i32 %27, 0
  call void @llvm.lifetime.end.p0(i64 4, ptr nonnull %processedSize) #16
  br i1 %cmp30.not, label %_ZN7CBufferIhED2Ev.exit, label %do.cond

do.cond:                                          ; preds = %cleanup33
  %add = add i32 %27, %numPrevBytes.1
  %cmp37 = icmp ult i32 %add, 33
  br i1 %cmp37, label %do.body, label %for.cond41.preheader.preheader, !llvm.loop !76

for.cond41.preheader.preheader:                   ; preds = %do.cond
  %sub38 = add i32 %add, -32
  %28 = zext i32 %sub38 to i64
  br label %for.cond41.preheader

for.cond41.preheader:                             ; preds = %for.cond41.preheader.preheader, %for.inc67
  %pos.0236 = phi i32 [ %inc68, %for.inc67 ], [ 0, %for.cond41.preheader.preheader ]
  %29 = zext i32 %pos.0236 to i64
  br label %for.cond41

for.cond41:                                       ; preds = %for.cond41, %for.cond41.preheader
  %indvars.iv = phi i64 [ %indvars.iv.next, %for.cond41 ], [ %29, %for.cond41.preheader ]
  %arrayidx = getelementptr inbounds i8, ptr %call.i138139, i64 %indvars.iv
  %30 = load i8, ptr %arrayidx, align 1, !tbaa !55
  %cmp42 = icmp ne i8 %30, 55
  %cmp43 = icmp ult i64 %indvars.iv, %28
  %31 = and i1 %cmp43, %cmp42
  %indvars.iv.next = add nuw nsw i64 %indvars.iv, 1
  br i1 %31, label %for.cond41, label %for.end, !llvm.loop !77

for.end:                                          ; preds = %for.cond41
  %arrayidx.le = getelementptr inbounds i8, ptr %call.i138139, i64 %indvars.iv
  %32 = trunc i64 %indvars.iv to i32
  %cmp45 = icmp eq i32 %sub38, %32
  br i1 %cmp45, label %cleanup78, label %if.end47

if.end47:                                         ; preds = %for.end
  %33 = load i8, ptr @_ZN8NArchive3N7z10kSignatureE, align 1, !tbaa !55
  %cmp4.not.i141 = icmp eq i8 %30, %33
  br i1 %cmp4.not.i141, label %for.cond.i144, label %for.inc67

for.cond.i144:                                    ; preds = %if.end47
  %arrayidx.1.i142 = getelementptr inbounds i8, ptr %arrayidx.le, i64 1
  %34 = load i8, ptr %arrayidx.1.i142, align 1, !tbaa !55
  %35 = load i8, ptr getelementptr inbounds ([6 x i8], ptr @_ZN8NArchive3N7z10kSignatureE, i64 0, i64 1), align 1, !tbaa !55
  %cmp4.not.1.i143 = icmp eq i8 %34, %35
  br i1 %cmp4.not.1.i143, label %for.cond.1.i147, label %for.inc67

for.cond.1.i147:                                  ; preds = %for.cond.i144
  %arrayidx.2.i145 = getelementptr inbounds i8, ptr %arrayidx.le, i64 2
  %36 = load i8, ptr %arrayidx.2.i145, align 1, !tbaa !55
  %37 = load i8, ptr getelementptr inbounds ([6 x i8], ptr @_ZN8NArchive3N7z10kSignatureE, i64 0, i64 2), align 1, !tbaa !55
  %cmp4.not.2.i146 = icmp eq i8 %36, %37
  br i1 %cmp4.not.2.i146, label %for.cond.2.i150, label %for.inc67

for.cond.2.i150:                                  ; preds = %for.cond.1.i147
  %arrayidx.3.i148 = getelementptr inbounds i8, ptr %arrayidx.le, i64 3
  %38 = load i8, ptr %arrayidx.3.i148, align 1, !tbaa !55
  %39 = load i8, ptr getelementptr inbounds ([6 x i8], ptr @_ZN8NArchive3N7z10kSignatureE, i64 0, i64 3), align 1, !tbaa !55
  %cmp4.not.3.i149 = icmp eq i8 %38, %39
  br i1 %cmp4.not.3.i149, label %for.cond.3.i153, label %for.inc67

for.cond.3.i153:                                  ; preds = %for.cond.2.i150
  %arrayidx.4.i151 = getelementptr inbounds i8, ptr %arrayidx.le, i64 4
  %40 = load i8, ptr %arrayidx.4.i151, align 1, !tbaa !55
  %41 = load i8, ptr getelementptr inbounds ([6 x i8], ptr @_ZN8NArchive3N7z10kSignatureE, i64 0, i64 4), align 1, !tbaa !55
  %cmp4.not.4.i152 = icmp eq i8 %40, %41
  br i1 %cmp4.not.4.i152, label %for.cond.4.i156, label %for.inc67

for.cond.4.i156:                                  ; preds = %for.cond.3.i153
  %arrayidx.5.i154 = getelementptr inbounds i8, ptr %arrayidx.le, i64 5
  %42 = load i8, ptr %arrayidx.5.i154, align 1, !tbaa !55
  %43 = load i8, ptr getelementptr inbounds ([6 x i8], ptr @_ZN8NArchive3N7z10kSignatureE, i64 0, i64 5), align 1, !tbaa !55
  %cmp4.not.5.i155 = icmp eq i8 %42, %43
  br i1 %cmp4.not.5.i155, label %for.cond.5.i161, label %for.inc67

for.cond.5.i161:                                  ; preds = %for.cond.4.i156
  %add.ptr.i157 = getelementptr inbounds i8, ptr %arrayidx.le, i64 12
  %call.i158162 = invoke i32 @CrcCalc(ptr noundef nonnull %add.ptr.i157, i64 noundef 20)
          to label %invoke.cont51 unwind label %lpad50.loopexit

invoke.cont51:                                    ; preds = %for.cond.5.i161
  %add.ptr5.i159 = getelementptr inbounds i8, ptr %arrayidx.le, i64 8
  %44 = load i32, ptr %add.ptr5.i159, align 4, !tbaa !26
  %cmp6.i160 = icmp eq i32 %call.i158162, %44
  br i1 %cmp6.i160, label %if.then53, label %for.inc67

if.then53:                                        ; preds = %invoke.cont51
  call void @llvm.memcpy.p0.p0.i64(ptr noundef nonnull align 8 dereferenceable(32) %_header, ptr noundef nonnull align 1 dereferenceable(32) %arrayidx.le, i64 32, i1 false)
  %add59 = add i64 %curTestPos.0, %indvars.iv
  store i64 %add59, ptr %_arhiveBeginStreamPosition, align 8, !tbaa !75
  %add61 = add i64 %add59, 32
  %vtable62 = load ptr, ptr %stream, align 8, !tbaa !13
  %vfn63 = getelementptr inbounds ptr, ptr %vtable62, i64 6
  %45 = load ptr, ptr %vfn63, align 8
  %call65 = invoke noundef i32 %45(ptr noundef nonnull align 8 dereferenceable(8) %stream, i64 noundef %add61, i32 noundef 0, ptr noundef null)
          to label %_ZN7CBufferIhED2Ev.exit unwind label %lpad50.loopexit.split-lp

lpad50.loopexit:                                  ; preds = %for.cond.5.i161
  %lpad.loopexit = landingpad { ptr, i32 }
          cleanup
  br label %delete.notnull.i169

lpad50.loopexit.split-lp:                         ; preds = %if.then53
  %lpad.loopexit.split-lp = landingpad { ptr, i32 }
          cleanup
  br label %delete.notnull.i169

for.inc67:                                        ; preds = %if.end47, %for.cond.i144, %for.cond.1.i147, %for.cond.2.i150, %for.cond.3.i153, %for.cond.4.i156, %invoke.cont51
  %inc68 = add i32 %32, 1
  %cmp40 = icmp ult i32 %inc68, %sub38
  br i1 %cmp40, label %for.cond41.preheader, label %cleanup78, !llvm.loop !78

cleanup78:                                        ; preds = %for.inc67, %for.end
  %add73 = add i64 %curTestPos.0, %28
  %add.ptr76 = getelementptr inbounds i8, ptr %call.i138139, i64 %28
  call void @llvm.memmove.p0.p0.i64(ptr noundef nonnull align 1 dereferenceable(32) %call.i138139, ptr noundef nonnull align 1 dereferenceable(32) %add.ptr76, i64 32, i1 false)
  br label %for.cond, !llvm.loop !79

_ZN7CBufferIhED2Ev.exit:                          ; preds = %if.then13, %cleanup33, %if.then53, %cleanup33.thread
  %retval.6 = phi i32 [ %call23, %cleanup33.thread ], [ %call65, %if.then53 ], [ 1, %cleanup33 ], [ 1, %if.then13 ]
  call void @_ZdaPv(ptr noundef nonnull %call.i138139) #19
  br label %return

delete.notnull.i169:                              ; preds = %lpad50.loopexit, %lpad50.loopexit.split-lp, %lpad21
  %.pn.pn.ph = phi { ptr, i32 } [ %26, %lpad21 ], [ %lpad.loopexit, %lpad50.loopexit ], [ %lpad.loopexit.split-lp, %lpad50.loopexit.split-lp ]
  call void @_ZdaPv(ptr noundef nonnull %call.i138139) #19
  resume { ptr, i32 } %.pn.pn.ph

return:                                           ; preds = %for.cond9.23.i, %for.cond.5.i, %entry, %_ZN7CBufferIhED2Ev.exit
  %retval.7 = phi i32 [ %call, %entry ], [ %retval.6, %_ZN7CBufferIhED2Ev.exit ], [ 0, %for.cond.5.i ], [ 0, %for.cond9.23.i ]
  ret i32 %retval.7
}

declare noundef i32 @_Z16ReadStream_FALSEP19ISequentialInStreamPvm(ptr noundef, ptr noundef, i64 noundef) local_unnamed_addr #4

; Function Attrs: mustprogress nocallback nofree nounwind willreturn memory(argmem: readwrite)
declare void @llvm.memcpy.p0.p0.i64(ptr noalias nocapture writeonly, ptr noalias nocapture readonly, i64, i1 immarg) #5

; Function Attrs: mustprogress nocallback nofree nounwind willreturn memory(argmem: readwrite)
declare void @llvm.memmove.p0.p0.i64(ptr nocapture writeonly, ptr nocapture readonly, i64, i1 immarg) #5

; Function Attrs: nounwind uwtable
define linkonce_odr dso_local void @_ZN7CBufferIhED2Ev(ptr noundef nonnull align 8 dereferenceable(24) %this) unnamed_addr #6 comdat align 2 {
entry:
  store ptr getelementptr inbounds ({ [4 x ptr] }, ptr @_ZTV7CBufferIhE, i64 0, inrange i32 0, i64 2), ptr %this, align 8, !tbaa !13
  %_items = getelementptr inbounds %class.CBuffer, ptr %this, i64 0, i32 2
  %0 = load ptr, ptr %_items, align 8, !tbaa !53
  %isnull = icmp eq ptr %0, null
  br i1 %isnull, label %delete.end, label %delete.notnull

delete.notnull:                                   ; preds = %entry
  tail call void @_ZdaPv(ptr noundef nonnull %0) #19
  br label %delete.end

delete.end:                                       ; preds = %delete.notnull, %entry
  ret void
}

; Function Attrs: mustprogress uwtable
define dso_local noundef i32 @_ZN8NArchive3N7z10CInArchive4OpenEP9IInStreamPKy(ptr noundef nonnull align 8 dereferenceable(96) %this, ptr noundef %stream, ptr noundef %searchHeaderSizeLimit) local_unnamed_addr #2 align 2 {
entry:
  %HeadersSize = getelementptr inbounds %"class.NArchive::N7z::CInArchive", ptr %this, i64 0, i32 5
  store i64 0, ptr %HeadersSize, align 8, !tbaa !80
  %0 = load ptr, ptr %this, align 8, !tbaa !81
  %tobool.not.i.i = icmp eq ptr %0, null
  br i1 %tobool.not.i.i, label %_ZN8NArchive3N7z10CInArchive5CloseEv.exit, label %if.then.i.i

if.then.i.i:                                      ; preds = %entry
  %vtable.i.i = load ptr, ptr %0, align 8, !tbaa !13
  %vfn.i.i = getelementptr inbounds ptr, ptr %vtable.i.i, i64 2
  %1 = load ptr, ptr %vfn.i.i, align 8
  %call.i.i = tail call noundef i32 %1(ptr noundef nonnull align 8 dereferenceable(8) %0)
  store ptr null, ptr %this, align 8, !tbaa !81
  br label %_ZN8NArchive3N7z10CInArchive5CloseEv.exit

_ZN8NArchive3N7z10CInArchive5CloseEv.exit:        ; preds = %entry, %if.then.i.i
  %_arhiveBeginStreamPosition = getelementptr inbounds %"class.NArchive::N7z::CInArchive", ptr %this, i64 0, i32 3
  %vtable = load ptr, ptr %stream, align 8, !tbaa !13
  %vfn = getelementptr inbounds ptr, ptr %vtable, i64 6
  %2 = load ptr, ptr %vfn, align 8
  %call = tail call noundef i32 %2(ptr noundef nonnull align 8 dereferenceable(8) %stream, i64 noundef 0, i32 noundef 1, ptr noundef nonnull %_arhiveBeginStreamPosition)
  %cmp.not.not = icmp eq i32 %call, 0
  br i1 %cmp.not.not, label %cleanup.cont, label %return

cleanup.cont:                                     ; preds = %_ZN8NArchive3N7z10CInArchive5CloseEv.exit
  %call3 = tail call noundef i32 @_ZN8NArchive3N7z10CInArchive20FindAndReadSignatureEP9IInStreamPKy(ptr noundef nonnull align 8 dereferenceable(96) %this, ptr noundef nonnull %stream, ptr noundef %searchHeaderSizeLimit)
  %cmp4.not.not = icmp eq i32 %call3, 0
  br i1 %cmp4.not.not, label %if.end.i, label %return

if.end.i:                                         ; preds = %cleanup.cont
  %vtable.i = load ptr, ptr %stream, align 8, !tbaa !13
  %vfn.i = getelementptr inbounds ptr, ptr %vtable.i, i64 1
  %3 = load ptr, ptr %vfn.i, align 8
  %call.i = tail call noundef i32 %3(ptr noundef nonnull align 8 dereferenceable(8) %stream)
  %4 = load ptr, ptr %this, align 8, !tbaa !81
  %tobool.not.i = icmp eq ptr %4, null
  br i1 %tobool.not.i, label %_ZN9CMyComPtrI9IInStreamEaSEPS0_.exit, label %if.then2.i

if.then2.i:                                       ; preds = %if.end.i
  %vtable4.i = load ptr, ptr %4, align 8, !tbaa !13
  %vfn5.i = getelementptr inbounds ptr, ptr %vtable4.i, i64 2
  %5 = load ptr, ptr %vfn5.i, align 8
  %call6.i = tail call noundef i32 %5(ptr noundef nonnull align 8 dereferenceable(8) %4)
  br label %_ZN9CMyComPtrI9IInStreamEaSEPS0_.exit

_ZN9CMyComPtrI9IInStreamEaSEPS0_.exit:            ; preds = %if.end.i, %if.then2.i
  store ptr %stream, ptr %this, align 8, !tbaa !81
  br label %return

return:                                           ; preds = %cleanup.cont, %_ZN8NArchive3N7z10CInArchive5CloseEv.exit, %_ZN9CMyComPtrI9IInStreamEaSEPS0_.exit
  %retval.2 = phi i32 [ %call, %_ZN8NArchive3N7z10CInArchive5CloseEv.exit ], [ %call3, %cleanup.cont ], [ 0, %_ZN9CMyComPtrI9IInStreamEaSEPS0_.exit ]
  ret i32 %retval.2
}

; Function Attrs: mustprogress uwtable
define dso_local void @_ZN8NArchive3N7z10CInArchive5CloseEv(ptr nocapture noundef nonnull align 8 dereferenceable(96) %this) local_unnamed_addr #2 align 2 {
entry:
  %0 = load ptr, ptr %this, align 8, !tbaa !81
  %tobool.not.i = icmp eq ptr %0, null
  br i1 %tobool.not.i, label %_ZN9CMyComPtrI9IInStreamE7ReleaseEv.exit, label %if.then.i

if.then.i:                                        ; preds = %entry
  %vtable.i = load ptr, ptr %0, align 8, !tbaa !13
  %vfn.i = getelementptr inbounds ptr, ptr %vtable.i, i64 2
  %1 = load ptr, ptr %vfn.i, align 8
  %call.i = tail call noundef i32 %1(ptr noundef nonnull align 8 dereferenceable(8) %0)
  store ptr null, ptr %this, align 8, !tbaa !81
  br label %_ZN9CMyComPtrI9IInStreamE7ReleaseEv.exit

_ZN9CMyComPtrI9IInStreamE7ReleaseEv.exit:         ; preds = %entry, %if.then.i
  ret void
}

; Function Attrs: mustprogress uwtable
define dso_local void @_ZN8NArchive3N7z10CInArchive21ReadArchivePropertiesERNS0_14CInArchiveInfoE(ptr nocapture noundef nonnull readonly align 8 dereferenceable(96) %this, ptr nocapture noundef nonnull readnone align 8 dereferenceable(72) %0) local_unnamed_addr #2 align 2 {
entry:
  %_inByteBack.i = getelementptr inbounds %"class.NArchive::N7z::CInArchive", ptr %this, i64 0, i32 2
  %1 = load ptr, ptr %_inByteBack.i, align 8, !tbaa !44
  %call.i3 = tail call noundef i64 @_ZN8NArchive3N7z8CInByte210ReadNumberEv(ptr noundef nonnull align 8 dereferenceable(24) %1)
  %cmp4 = icmp eq i64 %call.i3, 0
  br i1 %cmp4, label %for.end, label %if.end

if.end:                                           ; preds = %entry, %_ZN8NArchive3N7z10CInArchive8SkipDataEv.exit
  %2 = load ptr, ptr %_inByteBack.i, align 8, !tbaa !44
  %call.i.i = tail call noundef i64 @_ZN8NArchive3N7z8CInByte210ReadNumberEv(ptr noundef nonnull align 8 dereferenceable(24) %2)
  %_size.i.i.i = getelementptr inbounds %"class.NArchive::N7z::CInByte2", ptr %2, i64 0, i32 1
  %3 = load i64, ptr %_size.i.i.i, align 8, !tbaa !51
  %_pos.i.i.i = getelementptr inbounds %"class.NArchive::N7z::CInByte2", ptr %2, i64 0, i32 2
  %4 = load i64, ptr %_pos.i.i.i, align 8, !tbaa !52
  %sub.i.i.i = sub i64 %3, %4
  %cmp.i.i.i = icmp ult i64 %sub.i.i.i, %call.i.i
  br i1 %cmp.i.i.i, label %if.then.i.i.i, label %_ZN8NArchive3N7z10CInArchive8SkipDataEv.exit

if.then.i.i.i:                                    ; preds = %if.end
  %exception.i.i.i.i.i = tail call ptr @__cxa_allocate_exception(i64 1) #16
  tail call void @__cxa_throw(ptr %exception.i.i.i.i.i, ptr nonnull @_ZTIN8NArchive3N7z19CInArchiveExceptionE, ptr null) #18
  unreachable

_ZN8NArchive3N7z10CInArchive8SkipDataEv.exit:     ; preds = %if.end
  %add.i.i.i = add i64 %4, %call.i.i
  store i64 %add.i.i.i, ptr %_pos.i.i.i, align 8, !tbaa !52
  %5 = load ptr, ptr %_inByteBack.i, align 8, !tbaa !44
  %call.i = tail call noundef i64 @_ZN8NArchive3N7z8CInByte210ReadNumberEv(ptr noundef nonnull align 8 dereferenceable(24) %5)
  %cmp = icmp eq i64 %call.i, 0
  br i1 %cmp, label %for.end, label %if.end, !llvm.loop !82

for.end:                                          ; preds = %_ZN8NArchive3N7z10CInArchive8SkipDataEv.exit, %entry
  ret void
}

; Function Attrs: uwtable
define dso_local void @_ZN8NArchive3N7z10CInArchive17GetNextFolderItemERNS0_7CFolderE(ptr nocapture noundef nonnull readonly align 8 dereferenceable(96) %this, ptr noundef nonnull align 8 dereferenceable(133) %folder) local_unnamed_addr #0 align 2 personality ptr @__gxx_personality_v0 {
entry:
  %longID = alloca [15 x i8], align 1
  %_inByteBack.i = getelementptr inbounds %"class.NArchive::N7z::CInArchive", ptr %this, i64 0, i32 2
  %0 = load ptr, ptr %_inByteBack.i, align 8, !tbaa !44
  %call.i.i = tail call noundef i64 @_ZN8NArchive3N7z8CInByte210ReadNumberEv(ptr noundef nonnull align 8 dereferenceable(24) %0)
  %cmp.i.i = icmp ugt i64 %call.i.i, 2147483647
  br i1 %cmp.i.i, label %if.then.i.i, label %_ZN8NArchive3N7z10CInArchive7ReadNumEv.exit

if.then.i.i:                                      ; preds = %entry
  %exception.i.i.i.i = tail call ptr @__cxa_allocate_exception(i64 1) #16
  tail call void @__cxa_throw(ptr %exception.i.i.i.i, ptr nonnull @_ZTIN8NArchive3N7z19CInArchiveExceptionE, ptr null) #18
  unreachable

_ZN8NArchive3N7z10CInArchive7ReadNumEv.exit:      ; preds = %entry
  %conv.i.i = trunc i64 %call.i.i to i32
  tail call void @_ZN17CBaseRecordVector5ClearEv(ptr noundef nonnull align 8 dereferenceable(32) %folder)
  tail call void @_ZN17CBaseRecordVector7ReserveEi(ptr noundef nonnull align 8 dereferenceable(32) %folder, i32 noundef %conv.i.i)
  %cmp276.not = icmp eq i32 %conv.i.i, 0
  br i1 %cmp276.not, label %for.end44, label %for.body.lr.ph

for.body.lr.ph:                                   ; preds = %_ZN8NArchive3N7z10CInArchive7ReadNumEv.exit
  %_items.i.i = getelementptr inbounds %class.CBaseRecordVector, ptr %folder, i64 0, i32 3
  %_size.i.i = getelementptr inbounds %class.CBaseRecordVector, ptr %folder, i64 0, i32 2
  br label %for.body

for.body:                                         ; preds = %for.body.lr.ph, %if.end38
  %numInStreams.0279 = phi i32 [ 0, %for.body.lr.ph ], [ %add, %if.end38 ]
  %numOutStreams.0278 = phi i32 [ 0, %for.body.lr.ph ], [ %add41, %if.end38 ]
  %i.0277 = phi i32 [ 0, %for.body.lr.ph ], [ %inc43, %if.end38 ]
  %call.i141 = tail call noalias noundef nonnull dereferenceable(40) ptr @_Znwm(i64 noundef 40) #17
  store i64 0, ptr %call.i141, align 8, !tbaa !83
  %Props.i.i = getelementptr inbounds %"struct.NArchive::N7z::CCoderInfo", ptr %call.i141, i64 0, i32 1
  store ptr getelementptr inbounds ({ [4 x ptr] }, ptr @_ZTV7CBufferIhE, i64 0, inrange i32 0, i64 2), ptr %Props.i.i, align 8, !tbaa !13
  %_capacity.i.i.i = getelementptr inbounds %"struct.NArchive::N7z::CCoderInfo", ptr %call.i141, i64 0, i32 1, i32 1
  tail call void @llvm.memset.p0.i64(ptr noundef nonnull align 8 dereferenceable(24) %_capacity.i.i.i, i8 0, i64 24, i1 false)
  tail call void @_ZN17CBaseRecordVector18ReserveOnePositionEv(ptr noundef nonnull align 8 dereferenceable(32) %folder)
  %1 = load ptr, ptr %_items.i.i, align 8, !tbaa !15
  %2 = load i32, ptr %_size.i.i, align 4, !tbaa !5
  %idxprom.i.i = sext i32 %2 to i64
  %arrayidx.i.i = getelementptr inbounds ptr, ptr %1, i64 %idxprom.i.i
  store ptr %call.i141, ptr %arrayidx.i.i, align 8, !tbaa !29
  %inc.i.i = add nsw i32 %2, 1
  store i32 %inc.i.i, ptr %_size.i.i, align 4, !tbaa !5
  %3 = load ptr, ptr %_items.i.i, align 8, !tbaa !15
  %arrayidx.i.i.i = getelementptr inbounds ptr, ptr %3, i64 %idxprom.i.i
  %4 = load ptr, ptr %arrayidx.i.i.i, align 8, !tbaa !29
  %5 = load ptr, ptr %_inByteBack.i, align 8, !tbaa !44
  %_pos.i.i = getelementptr inbounds %"class.NArchive::N7z::CInByte2", ptr %5, i64 0, i32 2
  %6 = load i64, ptr %_pos.i.i, align 8, !tbaa !52
  %_size.i.i146 = getelementptr inbounds %"class.NArchive::N7z::CInByte2", ptr %5, i64 0, i32 1
  %7 = load i64, ptr %_size.i.i146, align 8, !tbaa !51
  %cmp.not.i.i = icmp ult i64 %6, %7
  br i1 %cmp.not.i.i, label %_ZN8NArchive3N7z10CInArchive8ReadByteEv.exit, label %if.then.i.i148

if.then.i.i148:                                   ; preds = %for.body
  %exception.i.i.i.i147 = tail call ptr @__cxa_allocate_exception(i64 1) #16
  tail call void @__cxa_throw(ptr %exception.i.i.i.i147, ptr nonnull @_ZTIN8NArchive3N7z19CInArchiveExceptionE, ptr null) #18
  unreachable

_ZN8NArchive3N7z10CInArchive8ReadByteEv.exit:     ; preds = %for.body
  %8 = load ptr, ptr %5, align 8, !tbaa !49
  %inc.i.i149 = add nuw i64 %6, 1
  store i64 %inc.i.i149, ptr %_pos.i.i, align 8, !tbaa !52
  %arrayidx.i.i150 = getelementptr inbounds i8, ptr %8, i64 %6
  %9 = load i8, ptr %arrayidx.i.i150, align 1, !tbaa !55
  %conv = zext i8 %9 to i32
  %and = and i32 %conv, 15
  call void @llvm.lifetime.start.p0(i64 15, ptr nonnull %longID) #16
  %conv8 = zext i32 %and to i64
  %sub.i.i = sub i64 %7, %inc.i.i149
  %cmp.i.i154 = icmp ult i64 %sub.i.i, %conv8
  br i1 %cmp.i.i154, label %if.then.i.i156, label %for.cond.preheader.i.i

for.cond.preheader.i.i:                           ; preds = %_ZN8NArchive3N7z10CInArchive8ReadByteEv.exit
  %cmp29.not.i.i = icmp eq i32 %and, 0
  br i1 %cmp29.not.i.i, label %for.cond.cleanup, label %for.body.i.i.preheader

for.body.i.i.preheader:                           ; preds = %for.cond.preheader.i.i
  %xtraiter = and i64 %conv8, 3
  %10 = icmp ult i32 %and, 4
  br i1 %10, label %_ZN8NArchive3N7z10CInArchive9ReadBytesEPhm.exit.unr-lcssa, label %for.body.i.i.preheader.new

for.body.i.i.preheader.new:                       ; preds = %for.body.i.i.preheader
  %unroll_iter = and i64 %conv8, 12
  br label %for.body.i.i

if.then.i.i156:                                   ; preds = %_ZN8NArchive3N7z10CInArchive8ReadByteEv.exit
  %exception.i.i.i.i155 = tail call ptr @__cxa_allocate_exception(i64 1) #16
  tail call void @__cxa_throw(ptr %exception.i.i.i.i155, ptr nonnull @_ZTIN8NArchive3N7z19CInArchiveExceptionE, ptr null) #18
  unreachable

for.body.i.i:                                     ; preds = %for.body.i.i, %for.body.i.i.preheader.new
  %11 = phi i64 [ %inc.i.i149, %for.body.i.i.preheader.new ], [ %inc.i.i157.3, %for.body.i.i ]
  %i.010.i.i = phi i64 [ 0, %for.body.i.i.preheader.new ], [ %inc5.i.i.3, %for.body.i.i ]
  %niter = phi i64 [ 0, %for.body.i.i.preheader.new ], [ %niter.next.3, %for.body.i.i ]
  %inc.i.i157 = add i64 %11, 1
  store i64 %inc.i.i157, ptr %_pos.i.i, align 8, !tbaa !52
  %arrayidx.i.i158 = getelementptr inbounds i8, ptr %8, i64 %11
  %12 = load i8, ptr %arrayidx.i.i158, align 1, !tbaa !55
  %arrayidx4.i.i = getelementptr inbounds i8, ptr %longID, i64 %i.010.i.i
  store i8 %12, ptr %arrayidx4.i.i, align 1, !tbaa !55
  %inc5.i.i = or i64 %i.010.i.i, 1
  %inc.i.i157.1 = add i64 %11, 2
  store i64 %inc.i.i157.1, ptr %_pos.i.i, align 8, !tbaa !52
  %arrayidx.i.i158.1 = getelementptr inbounds i8, ptr %8, i64 %inc.i.i157
  %13 = load i8, ptr %arrayidx.i.i158.1, align 1, !tbaa !55
  %arrayidx4.i.i.1 = getelementptr inbounds i8, ptr %longID, i64 %inc5.i.i
  store i8 %13, ptr %arrayidx4.i.i.1, align 1, !tbaa !55
  %inc5.i.i.1 = or i64 %i.010.i.i, 2
  %inc.i.i157.2 = add i64 %11, 3
  store i64 %inc.i.i157.2, ptr %_pos.i.i, align 8, !tbaa !52
  %arrayidx.i.i158.2 = getelementptr inbounds i8, ptr %8, i64 %inc.i.i157.1
  %14 = load i8, ptr %arrayidx.i.i158.2, align 1, !tbaa !55
  %arrayidx4.i.i.2 = getelementptr inbounds i8, ptr %longID, i64 %inc5.i.i.1
  store i8 %14, ptr %arrayidx4.i.i.2, align 1, !tbaa !55
  %inc5.i.i.2 = or i64 %i.010.i.i, 3
  %inc.i.i157.3 = add i64 %11, 4
  store i64 %inc.i.i157.3, ptr %_pos.i.i, align 8, !tbaa !52
  %arrayidx.i.i158.3 = getelementptr inbounds i8, ptr %8, i64 %inc.i.i157.2
  %15 = load i8, ptr %arrayidx.i.i158.3, align 1, !tbaa !55
  %arrayidx4.i.i.3 = getelementptr inbounds i8, ptr %longID, i64 %inc5.i.i.2
  store i8 %15, ptr %arrayidx4.i.i.3, align 1, !tbaa !55
  %inc5.i.i.3 = add nuw nsw i64 %i.010.i.i, 4
  %niter.next.3 = add i64 %niter, 4
  %niter.ncmp.3 = icmp eq i64 %niter.next.3, %unroll_iter
  br i1 %niter.ncmp.3, label %_ZN8NArchive3N7z10CInArchive9ReadBytesEPhm.exit.unr-lcssa, label %for.body.i.i, !llvm.loop !56

_ZN8NArchive3N7z10CInArchive9ReadBytesEPhm.exit.unr-lcssa: ; preds = %for.body.i.i, %for.body.i.i.preheader
  %.unr = phi i64 [ %inc.i.i149, %for.body.i.i.preheader ], [ %inc.i.i157.3, %for.body.i.i ]
  %i.010.i.i.unr = phi i64 [ 0, %for.body.i.i.preheader ], [ %inc5.i.i.3, %for.body.i.i ]
  %lcmp.mod.not = icmp eq i64 %xtraiter, 0
  br i1 %lcmp.mod.not, label %_ZN8NArchive3N7z10CInArchive9ReadBytesEPhm.exit, label %for.body.i.i.epil

for.body.i.i.epil:                                ; preds = %_ZN8NArchive3N7z10CInArchive9ReadBytesEPhm.exit.unr-lcssa, %for.body.i.i.epil
  %16 = phi i64 [ %inc.i.i157.epil, %for.body.i.i.epil ], [ %.unr, %_ZN8NArchive3N7z10CInArchive9ReadBytesEPhm.exit.unr-lcssa ]
  %i.010.i.i.epil = phi i64 [ %inc5.i.i.epil, %for.body.i.i.epil ], [ %i.010.i.i.unr, %_ZN8NArchive3N7z10CInArchive9ReadBytesEPhm.exit.unr-lcssa ]
  %epil.iter = phi i64 [ %epil.iter.next, %for.body.i.i.epil ], [ 0, %_ZN8NArchive3N7z10CInArchive9ReadBytesEPhm.exit.unr-lcssa ]
  %inc.i.i157.epil = add i64 %16, 1
  store i64 %inc.i.i157.epil, ptr %_pos.i.i, align 8, !tbaa !52
  %arrayidx.i.i158.epil = getelementptr inbounds i8, ptr %8, i64 %16
  %17 = load i8, ptr %arrayidx.i.i158.epil, align 1, !tbaa !55
  %arrayidx4.i.i.epil = getelementptr inbounds i8, ptr %longID, i64 %i.010.i.i.epil
  store i8 %17, ptr %arrayidx4.i.i.epil, align 1, !tbaa !55
  %inc5.i.i.epil = add nuw nsw i64 %i.010.i.i.epil, 1
  %epil.iter.next = add i64 %epil.iter, 1
  %epil.iter.cmp.not = icmp eq i64 %epil.iter.next, %xtraiter
  br i1 %epil.iter.cmp.not, label %_ZN8NArchive3N7z10CInArchive9ReadBytesEPhm.exit, label %for.body.i.i.epil, !llvm.loop !84

_ZN8NArchive3N7z10CInArchive9ReadBytesEPhm.exit:  ; preds = %for.body.i.i.epil, %_ZN8NArchive3N7z10CInArchive9ReadBytesEPhm.exit.unr-lcssa
  %cmp9 = icmp ugt i32 %and, 8
  br i1 %cmp9, label %if.then, label %for.cond10.preheader

for.cond10.preheader:                             ; preds = %_ZN8NArchive3N7z10CInArchive9ReadBytesEPhm.exit
  br i1 %cmp29.not.i.i, label %for.cond.cleanup, label %for.body12.preheader

for.body12.preheader:                             ; preds = %for.cond10.preheader
  %18 = zext i32 %and to i64
  %xtraiter313 = and i64 %conv8, 1
  %19 = icmp eq i32 %and, 1
  br i1 %19, label %for.cond.cleanup.loopexit.unr-lcssa, label %for.body12.preheader.new

for.body12.preheader.new:                         ; preds = %for.body12.preheader
  %unroll_iter317 = and i64 %conv8, 14
  br label %for.body12

if.then:                                          ; preds = %_ZN8NArchive3N7z10CInArchive9ReadBytesEPhm.exit
  %exception.i.i = tail call ptr @__cxa_allocate_exception(i64 1) #16
  tail call void @__cxa_throw(ptr %exception.i.i, ptr nonnull @_ZTIN8NArchive3N7z19CInArchiveExceptionE, ptr null) #18
  unreachable

for.cond.cleanup.loopexit.unr-lcssa:              ; preds = %for.body12, %for.body12.preheader
  %or.lcssa.ph = phi i64 [ undef, %for.body12.preheader ], [ %or.1, %for.body12 ]
  %indvars.iv.unr = phi i64 [ 0, %for.body12.preheader ], [ %indvars.iv.next.1, %for.body12 ]
  %id.0275.unr = phi i64 [ 0, %for.body12.preheader ], [ %or.1, %for.body12 ]
  %lcmp.mod315.not = icmp eq i64 %xtraiter313, 0
  br i1 %lcmp.mod315.not, label %for.cond.cleanup, label %for.body12.epil

for.body12.epil:                                  ; preds = %for.cond.cleanup.loopexit.unr-lcssa
  %20 = xor i64 %indvars.iv.unr, -1
  %21 = add nsw i64 %18, %20
  %arrayidx.epil = getelementptr inbounds [15 x i8], ptr %longID, i64 0, i64 %21
  %22 = load i8, ptr %arrayidx.epil, align 1, !tbaa !55
  %conv14.epil = zext i8 %22 to i64
  %23 = shl nsw i64 %indvars.iv.unr, 3
  %shl.epil = shl i64 %conv14.epil, %23
  %or.epil = or i64 %shl.epil, %id.0275.unr
  br label %for.cond.cleanup

for.cond.cleanup:                                 ; preds = %for.body12.epil, %for.cond.cleanup.loopexit.unr-lcssa, %for.cond.preheader.i.i, %for.cond10.preheader
  %id.0.lcssa = phi i64 [ 0, %for.cond10.preheader ], [ 0, %for.cond.preheader.i.i ], [ %or.lcssa.ph, %for.cond.cleanup.loopexit.unr-lcssa ], [ %or.epil, %for.body12.epil ]
  store i64 %id.0.lcssa, ptr %4, align 8, !tbaa !83
  %and16 = and i32 %conv, 16
  %cmp17.not = icmp eq i32 %and16, 0
  br i1 %cmp17.not, label %if.else, label %if.then18

for.body12:                                       ; preds = %for.body12, %for.body12.preheader.new
  %indvars.iv = phi i64 [ 0, %for.body12.preheader.new ], [ %indvars.iv.next.1, %for.body12 ]
  %id.0275 = phi i64 [ 0, %for.body12.preheader.new ], [ %or.1, %for.body12 ]
  %niter318 = phi i64 [ 0, %for.body12.preheader.new ], [ %niter318.next.1, %for.body12 ]
  %24 = xor i64 %indvars.iv, -1
  %25 = add nsw i64 %18, %24
  %arrayidx = getelementptr inbounds [15 x i8], ptr %longID, i64 0, i64 %25
  %26 = load i8, ptr %arrayidx, align 1, !tbaa !55
  %conv14 = zext i8 %26 to i64
  %27 = shl nsw i64 %indvars.iv, 3
  %shl = shl i64 %conv14, %27
  %or = or i64 %shl, %id.0275
  %reass.sub = sub nsw i64 %18, %indvars.iv
  %28 = add i64 %reass.sub, -2
  %arrayidx.1 = getelementptr inbounds [15 x i8], ptr %longID, i64 0, i64 %28
  %29 = load i8, ptr %arrayidx.1, align 1, !tbaa !55
  %conv14.1 = zext i8 %29 to i64
  %indvars.iv.next = shl i64 %indvars.iv, 3
  %30 = or i64 %indvars.iv.next, 8
  %shl.1 = shl i64 %conv14.1, %30
  %or.1 = or i64 %shl.1, %or
  %indvars.iv.next.1 = add nuw nsw i64 %indvars.iv, 2
  %niter318.next.1 = add i64 %niter318, 2
  %niter318.ncmp.1 = icmp eq i64 %niter318.next.1, %unroll_iter317
  br i1 %niter318.ncmp.1, label %for.cond.cleanup.loopexit.unr-lcssa, label %for.body12, !llvm.loop !85

if.then18:                                        ; preds = %for.cond.cleanup
  %call.i.i165 = tail call noundef i64 @_ZN8NArchive3N7z8CInByte210ReadNumberEv(ptr noundef nonnull align 8 dereferenceable(24) %5)
  %cmp.i.i166 = icmp ugt i64 %call.i.i165, 2147483647
  br i1 %cmp.i.i166, label %if.then.i.i168, label %_ZN8NArchive3N7z10CInArchive7ReadNumEv.exit170

if.then.i.i168:                                   ; preds = %if.then18
  %exception.i.i.i.i167 = tail call ptr @__cxa_allocate_exception(i64 1) #16
  tail call void @__cxa_throw(ptr %exception.i.i.i.i167, ptr nonnull @_ZTIN8NArchive3N7z19CInArchiveExceptionE, ptr null) #18
  unreachable

_ZN8NArchive3N7z10CInArchive7ReadNumEv.exit170:   ; preds = %if.then18
  %conv.i.i169 = trunc i64 %call.i.i165 to i32
  %NumInStreams = getelementptr inbounds %"struct.NArchive::N7z::CCoderInfo", ptr %4, i64 0, i32 2
  store i32 %conv.i.i169, ptr %NumInStreams, align 8, !tbaa !30
  %31 = load ptr, ptr %_inByteBack.i, align 8, !tbaa !44
  %call.i.i172 = tail call noundef i64 @_ZN8NArchive3N7z8CInByte210ReadNumberEv(ptr noundef nonnull align 8 dereferenceable(24) %31)
  %cmp.i.i173 = icmp ugt i64 %call.i.i172, 2147483647
  br i1 %cmp.i.i173, label %if.then.i.i175, label %_ZN8NArchive3N7z10CInArchive7ReadNumEv.exit177

if.then.i.i175:                                   ; preds = %_ZN8NArchive3N7z10CInArchive7ReadNumEv.exit170
  %exception.i.i.i.i174 = tail call ptr @__cxa_allocate_exception(i64 1) #16
  tail call void @__cxa_throw(ptr %exception.i.i.i.i174, ptr nonnull @_ZTIN8NArchive3N7z19CInArchiveExceptionE, ptr null) #18
  unreachable

_ZN8NArchive3N7z10CInArchive7ReadNumEv.exit177:   ; preds = %_ZN8NArchive3N7z10CInArchive7ReadNumEv.exit170
  %conv.i.i176 = trunc i64 %call.i.i172 to i32
  br label %if.end23

if.else:                                          ; preds = %for.cond.cleanup
  %NumInStreams21 = getelementptr inbounds %"struct.NArchive::N7z::CCoderInfo", ptr %4, i64 0, i32 2
  store i32 1, ptr %NumInStreams21, align 8, !tbaa !30
  br label %if.end23

if.end23:                                         ; preds = %if.else, %_ZN8NArchive3N7z10CInArchive7ReadNumEv.exit177
  %.sink = phi i32 [ 1, %if.else ], [ %conv.i.i176, %_ZN8NArchive3N7z10CInArchive7ReadNumEv.exit177 ]
  %NumOutStreams22 = getelementptr inbounds %"struct.NArchive::N7z::CCoderInfo", ptr %4, i64 0, i32 3
  store i32 %.sink, ptr %NumOutStreams22, align 4, !tbaa !34
  %and25 = and i32 %conv, 32
  %cmp26.not = icmp eq i32 %and25, 0
  br i1 %cmp26.not, label %if.end33, label %if.then27

if.then27:                                        ; preds = %if.end23
  %32 = load ptr, ptr %_inByteBack.i, align 8, !tbaa !44
  %call.i.i179 = tail call noundef i64 @_ZN8NArchive3N7z8CInByte210ReadNumberEv(ptr noundef nonnull align 8 dereferenceable(24) %32)
  %cmp.i.i180 = icmp ugt i64 %call.i.i179, 2147483647
  br i1 %cmp.i.i180, label %if.then.i.i182, label %_ZN8NArchive3N7z10CInArchive7ReadNumEv.exit184

if.then.i.i182:                                   ; preds = %if.then27
  %exception.i.i.i.i181 = tail call ptr @__cxa_allocate_exception(i64 1) #16
  tail call void @__cxa_throw(ptr %exception.i.i.i.i181, ptr nonnull @_ZTIN8NArchive3N7z19CInArchiveExceptionE, ptr null) #18
  unreachable

_ZN8NArchive3N7z10CInArchive7ReadNumEv.exit184:   ; preds = %if.then27
  %_capacity.i = getelementptr inbounds %"struct.NArchive::N7z::CCoderInfo", ptr %4, i64 0, i32 1, i32 1
  %33 = load i64, ptr %_capacity.i, align 8, !tbaa !54
  %cmp.i = icmp eq i64 %33, %call.i.i179
  br i1 %cmp.i, label %_ZN8NArchive3N7z10CInArchive7ReadNumEv.exit184._ZN7CBufferIhE11SetCapacityEm.exit_crit_edge, label %if.end.i

_ZN8NArchive3N7z10CInArchive7ReadNumEv.exit184._ZN7CBufferIhE11SetCapacityEm.exit_crit_edge: ; preds = %_ZN8NArchive3N7z10CInArchive7ReadNumEv.exit184
  %_items.i185.phi.trans.insert = getelementptr inbounds %"struct.NArchive::N7z::CCoderInfo", ptr %4, i64 0, i32 1, i32 2
  %.pre = load ptr, ptr %_items.i185.phi.trans.insert, align 8, !tbaa !53
  br label %_ZN7CBufferIhE11SetCapacityEm.exit

if.end.i:                                         ; preds = %_ZN8NArchive3N7z10CInArchive7ReadNumEv.exit184
  %cmp2.not.i = icmp eq i64 %call.i.i179, 0
  br i1 %cmp2.not.i, label %if.end10.i, label %if.then3.i

if.then3.i:                                       ; preds = %if.end.i
  %call.i = tail call noalias noundef nonnull ptr @_Znam(i64 noundef %call.i.i179) #17
  %cmp5.not.i = icmp eq i64 %33, 0
  br i1 %cmp5.not.i, label %if.end10.i, label %if.then6.i

if.then6.i:                                       ; preds = %if.then3.i
  %_items.i = getelementptr inbounds %"struct.NArchive::N7z::CCoderInfo", ptr %4, i64 0, i32 1, i32 2
  %34 = load ptr, ptr %_items.i, align 8, !tbaa !53
  %cond.i.i = tail call i64 @llvm.umin.i64(i64 %33, i64 %call.i.i179)
  tail call void @llvm.memmove.p0.p0.i64(ptr nonnull align 1 %call.i, ptr align 1 %34, i64 %cond.i.i, i1 false)
  br label %if.end10.i

if.end10.i:                                       ; preds = %if.then6.i, %if.then3.i, %if.end.i
  %newBuffer.0.i = phi ptr [ %call.i, %if.then6.i ], [ %call.i, %if.then3.i ], [ null, %if.end.i ]
  %_items11.i = getelementptr inbounds %"struct.NArchive::N7z::CCoderInfo", ptr %4, i64 0, i32 1, i32 2
  %35 = load ptr, ptr %_items11.i, align 8, !tbaa !53
  %isnull.i = icmp eq ptr %35, null
  br i1 %isnull.i, label %delete.end.i, label %delete.notnull.i

delete.notnull.i:                                 ; preds = %if.end10.i
  tail call void @_ZdaPv(ptr noundef nonnull %35) #19
  br label %delete.end.i

delete.end.i:                                     ; preds = %delete.notnull.i, %if.end10.i
  store ptr %newBuffer.0.i, ptr %_items11.i, align 8, !tbaa !53
  store i64 %call.i.i179, ptr %_capacity.i, align 8, !tbaa !54
  br label %_ZN7CBufferIhE11SetCapacityEm.exit

_ZN7CBufferIhE11SetCapacityEm.exit:               ; preds = %_ZN8NArchive3N7z10CInArchive7ReadNumEv.exit184._ZN7CBufferIhE11SetCapacityEm.exit_crit_edge, %delete.end.i
  %36 = phi ptr [ %.pre, %_ZN8NArchive3N7z10CInArchive7ReadNumEv.exit184._ZN7CBufferIhE11SetCapacityEm.exit_crit_edge ], [ %newBuffer.0.i, %delete.end.i ]
  %37 = load ptr, ptr %_inByteBack.i, align 8, !tbaa !44
  %_size.i.i187 = getelementptr inbounds %"class.NArchive::N7z::CInByte2", ptr %37, i64 0, i32 1
  %38 = load i64, ptr %_size.i.i187, align 8, !tbaa !51
  %_pos.i.i188 = getelementptr inbounds %"class.NArchive::N7z::CInByte2", ptr %37, i64 0, i32 2
  %39 = load i64, ptr %_pos.i.i188, align 8, !tbaa !52
  %sub.i.i189 = sub i64 %38, %39
  %cmp.i.i190 = icmp ult i64 %sub.i.i189, %call.i.i179
  br i1 %cmp.i.i190, label %if.then.i.i194, label %for.cond.preheader.i.i192

for.cond.preheader.i.i192:                        ; preds = %_ZN7CBufferIhE11SetCapacityEm.exit
  %cmp29.not.i.i191 = icmp eq i64 %call.i.i179, 0
  br i1 %cmp29.not.i.i191, label %if.end33, label %for.body.i.i201.preheader

for.body.i.i201.preheader:                        ; preds = %for.cond.preheader.i.i192
  %xtraiter319 = and i64 %call.i.i179, 1
  %40 = icmp eq i64 %call.i.i179, 1
  br i1 %40, label %if.end33.loopexit.unr-lcssa, label %for.body.i.i201.preheader.new

for.body.i.i201.preheader.new:                    ; preds = %for.body.i.i201.preheader
  %unroll_iter322 = and i64 %call.i.i179, -2
  br label %for.body.i.i201

if.then.i.i194:                                   ; preds = %_ZN7CBufferIhE11SetCapacityEm.exit
  %exception.i.i.i.i193 = tail call ptr @__cxa_allocate_exception(i64 1) #16
  tail call void @__cxa_throw(ptr %exception.i.i.i.i193, ptr nonnull @_ZTIN8NArchive3N7z19CInArchiveExceptionE, ptr null) #18
  unreachable

for.body.i.i201:                                  ; preds = %for.body.i.i201, %for.body.i.i201.preheader.new
  %i.010.i.i195 = phi i64 [ 0, %for.body.i.i201.preheader.new ], [ %inc5.i.i199.1, %for.body.i.i201 ]
  %niter323 = phi i64 [ 0, %for.body.i.i201.preheader.new ], [ %niter323.next.1, %for.body.i.i201 ]
  %41 = load ptr, ptr %37, align 8, !tbaa !49
  %42 = load i64, ptr %_pos.i.i188, align 8, !tbaa !52
  %inc.i.i196 = add i64 %42, 1
  store i64 %inc.i.i196, ptr %_pos.i.i188, align 8, !tbaa !52
  %arrayidx.i.i197 = getelementptr inbounds i8, ptr %41, i64 %42
  %43 = load i8, ptr %arrayidx.i.i197, align 1, !tbaa !55
  %arrayidx4.i.i198 = getelementptr inbounds i8, ptr %36, i64 %i.010.i.i195
  store i8 %43, ptr %arrayidx4.i.i198, align 1, !tbaa !55
  %inc5.i.i199 = or i64 %i.010.i.i195, 1
  %44 = load ptr, ptr %37, align 8, !tbaa !49
  %45 = load i64, ptr %_pos.i.i188, align 8, !tbaa !52
  %inc.i.i196.1 = add i64 %45, 1
  store i64 %inc.i.i196.1, ptr %_pos.i.i188, align 8, !tbaa !52
  %arrayidx.i.i197.1 = getelementptr inbounds i8, ptr %44, i64 %45
  %46 = load i8, ptr %arrayidx.i.i197.1, align 1, !tbaa !55
  %arrayidx4.i.i198.1 = getelementptr inbounds i8, ptr %36, i64 %inc5.i.i199
  store i8 %46, ptr %arrayidx4.i.i198.1, align 1, !tbaa !55
  %inc5.i.i199.1 = add nuw nsw i64 %i.010.i.i195, 2
  %niter323.next.1 = add i64 %niter323, 2
  %niter323.ncmp.1 = icmp eq i64 %niter323.next.1, %unroll_iter322
  br i1 %niter323.ncmp.1, label %if.end33.loopexit.unr-lcssa, label %for.body.i.i201, !llvm.loop !56

if.end33.loopexit.unr-lcssa:                      ; preds = %for.body.i.i201, %for.body.i.i201.preheader
  %i.010.i.i195.unr = phi i64 [ 0, %for.body.i.i201.preheader ], [ %inc5.i.i199.1, %for.body.i.i201 ]
  %lcmp.mod321.not = icmp eq i64 %xtraiter319, 0
  br i1 %lcmp.mod321.not, label %if.end33, label %for.body.i.i201.epil

for.body.i.i201.epil:                             ; preds = %if.end33.loopexit.unr-lcssa
  %47 = load ptr, ptr %37, align 8, !tbaa !49
  %48 = load i64, ptr %_pos.i.i188, align 8, !tbaa !52
  %inc.i.i196.epil = add i64 %48, 1
  store i64 %inc.i.i196.epil, ptr %_pos.i.i188, align 8, !tbaa !52
  %arrayidx.i.i197.epil = getelementptr inbounds i8, ptr %47, i64 %48
  %49 = load i8, ptr %arrayidx.i.i197.epil, align 1, !tbaa !55
  %arrayidx4.i.i198.epil = getelementptr inbounds i8, ptr %36, i64 %i.010.i.i195.unr
  store i8 %49, ptr %arrayidx4.i.i198.epil, align 1, !tbaa !55
  br label %if.end33

if.end33:                                         ; preds = %for.body.i.i201.epil, %if.end33.loopexit.unr-lcssa, %for.cond.preheader.i.i192, %if.end23
  %cmp36.not = icmp sgt i8 %9, -1
  br i1 %cmp36.not, label %if.end38, label %if.then37

if.then37:                                        ; preds = %if.end33
  %exception.i.i203 = tail call ptr @__cxa_allocate_exception(i64 1) #16
  tail call void @__cxa_throw(ptr %exception.i.i203, ptr nonnull @_ZTIN8NArchive3N7z19CInArchiveExceptionE, ptr null) #18
  unreachable

if.end38:                                         ; preds = %if.end33
  call void @llvm.lifetime.end.p0(i64 15, ptr nonnull %longID) #16
  %NumInStreams39 = getelementptr inbounds %"struct.NArchive::N7z::CCoderInfo", ptr %4, i64 0, i32 2
  %50 = load i32, ptr %NumInStreams39, align 8, !tbaa !30
  %add = add i32 %50, %numInStreams.0279
  %NumOutStreams40 = getelementptr inbounds %"struct.NArchive::N7z::CCoderInfo", ptr %4, i64 0, i32 3
  %51 = load i32, ptr %NumOutStreams40, align 4, !tbaa !34
  %add41 = add i32 %51, %numOutStreams.0278
  %inc43 = add nuw i32 %i.0277, 1
  %exitcond296.not = icmp eq i32 %inc43, %conv.i.i
  br i1 %exitcond296.not, label %for.end44.loopexit, label %for.body, !llvm.loop !86

for.end44.loopexit:                               ; preds = %if.end38
  %52 = add i32 %add41, -1
  br label %for.end44

for.end44:                                        ; preds = %for.end44.loopexit, %_ZN8NArchive3N7z10CInArchive7ReadNumEv.exit
  %numOutStreams.0.lcssa = phi i32 [ -1, %_ZN8NArchive3N7z10CInArchive7ReadNumEv.exit ], [ %52, %for.end44.loopexit ]
  %numInStreams.0.lcssa = phi i32 [ 0, %_ZN8NArchive3N7z10CInArchive7ReadNumEv.exit ], [ %add, %for.end44.loopexit ]
  %BindPairs = getelementptr inbounds %"struct.NArchive::N7z::CFolder", ptr %folder, i64 0, i32 1
  tail call void @_ZN17CBaseRecordVector5ClearEv(ptr noundef nonnull align 8 dereferenceable(32) %BindPairs)
  tail call void @_ZN17CBaseRecordVector7ReserveEi(ptr noundef nonnull align 8 dereferenceable(32) %BindPairs, i32 noundef %numOutStreams.0.lcssa)
  %cmp48282.not = icmp eq i32 %numOutStreams.0.lcssa, 0
  br i1 %cmp48282.not, label %for.end56, label %for.body49.lr.ph

for.body49.lr.ph:                                 ; preds = %for.end44
  %_items.i219 = getelementptr inbounds %"struct.NArchive::N7z::CFolder", ptr %folder, i64 0, i32 1, i32 0, i32 3
  %_size.i220 = getelementptr inbounds %"struct.NArchive::N7z::CFolder", ptr %folder, i64 0, i32 1, i32 0, i32 2
  br label %for.body49

for.body49:                                       ; preds = %for.body49.lr.ph, %_ZN8NArchive3N7z10CInArchive7ReadNumEv.exit218
  %i.1283 = phi i32 [ 0, %for.body49.lr.ph ], [ %inc55, %_ZN8NArchive3N7z10CInArchive7ReadNumEv.exit218 ]
  %53 = load ptr, ptr %_inByteBack.i, align 8, !tbaa !44
  %call.i.i206 = tail call noundef i64 @_ZN8NArchive3N7z8CInByte210ReadNumberEv(ptr noundef nonnull align 8 dereferenceable(24) %53)
  %cmp.i.i207 = icmp ugt i64 %call.i.i206, 2147483647
  br i1 %cmp.i.i207, label %if.then.i.i209, label %_ZN8NArchive3N7z10CInArchive7ReadNumEv.exit211

if.then.i.i209:                                   ; preds = %for.body49
  %exception.i.i.i.i208 = tail call ptr @__cxa_allocate_exception(i64 1) #16
  tail call void @__cxa_throw(ptr %exception.i.i.i.i208, ptr nonnull @_ZTIN8NArchive3N7z19CInArchiveExceptionE, ptr null) #18
  unreachable

_ZN8NArchive3N7z10CInArchive7ReadNumEv.exit211:   ; preds = %for.body49
  %54 = load ptr, ptr %_inByteBack.i, align 8, !tbaa !44
  %call.i.i213 = tail call noundef i64 @_ZN8NArchive3N7z8CInByte210ReadNumberEv(ptr noundef nonnull align 8 dereferenceable(24) %54)
  %cmp.i.i214 = icmp ugt i64 %call.i.i213, 2147483647
  br i1 %cmp.i.i214, label %if.then.i.i216, label %_ZN8NArchive3N7z10CInArchive7ReadNumEv.exit218

if.then.i.i216:                                   ; preds = %_ZN8NArchive3N7z10CInArchive7ReadNumEv.exit211
  %exception.i.i.i.i215 = tail call ptr @__cxa_allocate_exception(i64 1) #16
  tail call void @__cxa_throw(ptr %exception.i.i.i.i215, ptr nonnull @_ZTIN8NArchive3N7z19CInArchiveExceptionE, ptr null) #18
  unreachable

_ZN8NArchive3N7z10CInArchive7ReadNumEv.exit218:   ; preds = %_ZN8NArchive3N7z10CInArchive7ReadNumEv.exit211
  %bp.sroa.4.0.insert.ext = shl nuw nsw i64 %call.i.i213, 32
  %bp.sroa.0.0.insert.insert = or i64 %bp.sroa.4.0.insert.ext, %call.i.i206
  tail call void @_ZN17CBaseRecordVector18ReserveOnePositionEv(ptr noundef nonnull align 8 dereferenceable(32) %BindPairs)
  %55 = load ptr, ptr %_items.i219, align 8, !tbaa !15
  %56 = load i32, ptr %_size.i220, align 4, !tbaa !5
  %idxprom.i = sext i32 %56 to i64
  %arrayidx.i = getelementptr inbounds %"struct.NArchive::N7z::CBindPair", ptr %55, i64 %idxprom.i
  store i64 %bp.sroa.0.0.insert.insert, ptr %arrayidx.i, align 4, !tbaa.struct !87
  %57 = load i32, ptr %_size.i220, align 4, !tbaa !5
  %inc.i = add nsw i32 %57, 1
  store i32 %inc.i, ptr %_size.i220, align 4, !tbaa !5
  %inc55 = add nuw i32 %i.1283, 1
  %exitcond297.not = icmp eq i32 %inc55, %numOutStreams.0.lcssa
  br i1 %exitcond297.not, label %for.end56, label %for.body49, !llvm.loop !88

for.end56:                                        ; preds = %_ZN8NArchive3N7z10CInArchive7ReadNumEv.exit218, %for.end44
  %cmp57 = icmp ult i32 %numInStreams.0.lcssa, %numOutStreams.0.lcssa
  br i1 %cmp57, label %if.then58, label %if.end59

if.then58:                                        ; preds = %for.end56
  %exception.i.i221 = tail call ptr @__cxa_allocate_exception(i64 1) #16
  tail call void @__cxa_throw(ptr %exception.i.i221, ptr nonnull @_ZTIN8NArchive3N7z19CInArchiveExceptionE, ptr null) #18
  unreachable

if.end59:                                         ; preds = %for.end56
  %sub60 = sub i32 %numInStreams.0.lcssa, %numOutStreams.0.lcssa
  %PackStreams = getelementptr inbounds %"struct.NArchive::N7z::CFolder", ptr %folder, i64 0, i32 2
  tail call void @_ZN17CBaseRecordVector7ReserveEi(ptr noundef nonnull align 8 dereferenceable(32) %PackStreams, i32 noundef %sub60)
  %cmp61 = icmp eq i32 %sub60, 1
  br i1 %cmp61, label %for.cond63.preheader, label %for.cond81.preheader

for.cond81.preheader:                             ; preds = %if.end59
  %cmp82284.not = icmp eq i32 %numInStreams.0.lcssa, %numOutStreams.0.lcssa
  br i1 %cmp82284.not, label %if.end90, label %for.body83.lr.ph

for.body83.lr.ph:                                 ; preds = %for.cond81.preheader
  %_items.i241 = getelementptr inbounds %"struct.NArchive::N7z::CFolder", ptr %folder, i64 0, i32 2, i32 0, i32 3
  %_size.i242 = getelementptr inbounds %"struct.NArchive::N7z::CFolder", ptr %folder, i64 0, i32 2, i32 0, i32 2
  %umax = tail call i32 @llvm.umax.i32(i32 %sub60, i32 1)
  br label %for.body83

for.cond63.preheader:                             ; preds = %if.end59
  %cmp64286.not = icmp eq i32 %numInStreams.0.lcssa, 0
  br i1 %cmp64286.not, label %for.end74, label %for.body65.lr.ph

for.body65.lr.ph:                                 ; preds = %for.cond63.preheader
  %_size.i.i223 = getelementptr inbounds %"struct.NArchive::N7z::CFolder", ptr %folder, i64 0, i32 1, i32 0, i32 2
  %58 = load i32, ptr %_size.i.i223, align 4, !tbaa !5
  %cmp.not8.i = icmp sgt i32 %58, 0
  %_items.i.i224 = getelementptr inbounds %"struct.NArchive::N7z::CFolder", ptr %folder, i64 0, i32 1, i32 0, i32 3
  %59 = load ptr, ptr %_items.i.i224, align 8
  %wide.trip.count.i = zext i32 %58 to i64
  br i1 %cmp.not8.i, label %for.body65.us, label %if.then68

for.body65.us:                                    ; preds = %for.body65.lr.ph, %for.inc72.us
  %i.2287.us = phi i32 [ %inc73.us, %for.inc72.us ], [ 0, %for.body65.lr.ph ]
  br label %for.body.i.us

for.body.i.us:                                    ; preds = %for.inc.i.us, %for.body65.us
  %indvars.iv.i.us = phi i64 [ 0, %for.body65.us ], [ %indvars.iv.next.i.us, %for.inc.i.us ]
  %arrayidx.i.i225.us = getelementptr inbounds %"struct.NArchive::N7z::CBindPair", ptr %59, i64 %indvars.iv.i.us
  %60 = load i32, ptr %arrayidx.i.i225.us, align 4, !tbaa !21
  %cmp4.i.us = icmp eq i32 %60, %i.2287.us
  br i1 %cmp4.i.us, label %_ZNK8NArchive3N7z7CFolder23FindBindPairForInStreamEj.exit.us, label %for.inc.i.us

for.inc.i.us:                                     ; preds = %for.body.i.us
  %indvars.iv.next.i.us = add nuw nsw i64 %indvars.iv.i.us, 1
  %exitcond.not.i.us = icmp eq i64 %indvars.iv.next.i.us, %wide.trip.count.i
  br i1 %exitcond.not.i.us, label %if.then68, label %for.body.i.us, !llvm.loop !89

_ZNK8NArchive3N7z7CFolder23FindBindPairForInStreamEj.exit.us: ; preds = %for.body.i.us
  %61 = and i64 %indvars.iv.i.us, 2147483648
  %cmp67.not.us = icmp eq i64 %61, 0
  br i1 %cmp67.not.us, label %for.inc72.us, label %if.then68

for.inc72.us:                                     ; preds = %_ZNK8NArchive3N7z7CFolder23FindBindPairForInStreamEj.exit.us
  %inc73.us = add nuw i32 %i.2287.us, 1
  %exitcond299.not = icmp eq i32 %inc73.us, %numInStreams.0.lcssa
  br i1 %exitcond299.not, label %for.end74, label %for.body65.us, !llvm.loop !90

if.then68:                                        ; preds = %_ZNK8NArchive3N7z7CFolder23FindBindPairForInStreamEj.exit.us, %for.inc.i.us, %for.body65.lr.ph
  %i.2256 = phi i32 [ 0, %for.body65.lr.ph ], [ %i.2287.us, %for.inc.i.us ], [ %i.2287.us, %_ZNK8NArchive3N7z7CFolder23FindBindPairForInStreamEj.exit.us ]
  tail call void @_ZN17CBaseRecordVector18ReserveOnePositionEv(ptr noundef nonnull align 8 dereferenceable(32) %PackStreams)
  %_items.i226 = getelementptr inbounds %"struct.NArchive::N7z::CFolder", ptr %folder, i64 0, i32 2, i32 0, i32 3
  %62 = load ptr, ptr %_items.i226, align 8, !tbaa !15
  %_size.i227 = getelementptr inbounds %"struct.NArchive::N7z::CFolder", ptr %folder, i64 0, i32 2, i32 0, i32 2
  %63 = load i32, ptr %_size.i227, align 4, !tbaa !5
  %idxprom.i228 = sext i32 %63 to i64
  %arrayidx.i229 = getelementptr inbounds i32, ptr %62, i64 %idxprom.i228
  store i32 %i.2256, ptr %arrayidx.i229, align 4, !tbaa !26
  %64 = load i32, ptr %_size.i227, align 4, !tbaa !5
  %inc.i230 = add nsw i32 %64, 1
  store i32 %inc.i230, ptr %_size.i227, align 4, !tbaa !5
  br label %for.end74

for.end74:                                        ; preds = %for.inc72.us, %for.cond63.preheader, %if.then68
  %_size.i231 = getelementptr inbounds %"struct.NArchive::N7z::CFolder", ptr %folder, i64 0, i32 2, i32 0, i32 2
  %65 = load i32, ptr %_size.i231, align 4, !tbaa !5
  %cmp77.not = icmp eq i32 %65, 1
  br i1 %cmp77.not, label %if.end90, label %if.then78

if.then78:                                        ; preds = %for.end74
  %exception.i.i232 = tail call ptr @__cxa_allocate_exception(i64 1) #16
  tail call void @__cxa_throw(ptr %exception.i.i232, ptr nonnull @_ZTIN8NArchive3N7z19CInArchiveExceptionE, ptr null) #18
  unreachable

for.body83:                                       ; preds = %for.body83.lr.ph, %_ZN8NArchive3N7z10CInArchive7ReadNumEv.exit240
  %i.3285 = phi i32 [ 0, %for.body83.lr.ph ], [ %inc88, %_ZN8NArchive3N7z10CInArchive7ReadNumEv.exit240 ]
  %66 = load ptr, ptr %_inByteBack.i, align 8, !tbaa !44
  %call.i.i235 = tail call noundef i64 @_ZN8NArchive3N7z8CInByte210ReadNumberEv(ptr noundef nonnull align 8 dereferenceable(24) %66)
  %cmp.i.i236 = icmp ugt i64 %call.i.i235, 2147483647
  br i1 %cmp.i.i236, label %if.then.i.i238, label %_ZN8NArchive3N7z10CInArchive7ReadNumEv.exit240

if.then.i.i238:                                   ; preds = %for.body83
  %exception.i.i.i.i237 = tail call ptr @__cxa_allocate_exception(i64 1) #16
  tail call void @__cxa_throw(ptr %exception.i.i.i.i237, ptr nonnull @_ZTIN8NArchive3N7z19CInArchiveExceptionE, ptr null) #18
  unreachable

_ZN8NArchive3N7z10CInArchive7ReadNumEv.exit240:   ; preds = %for.body83
  %conv.i.i239 = trunc i64 %call.i.i235 to i32
  tail call void @_ZN17CBaseRecordVector18ReserveOnePositionEv(ptr noundef nonnull align 8 dereferenceable(32) %PackStreams)
  %67 = load ptr, ptr %_items.i241, align 8, !tbaa !15
  %68 = load i32, ptr %_size.i242, align 4, !tbaa !5
  %idxprom.i243 = sext i32 %68 to i64
  %arrayidx.i244 = getelementptr inbounds i32, ptr %67, i64 %idxprom.i243
  store i32 %conv.i.i239, ptr %arrayidx.i244, align 4, !tbaa !26
  %69 = load i32, ptr %_size.i242, align 4, !tbaa !5
  %inc.i245 = add nsw i32 %69, 1
  store i32 %inc.i245, ptr %_size.i242, align 4, !tbaa !5
  %inc88 = add nuw i32 %i.3285, 1
  %exitcond298.not = icmp eq i32 %inc88, %umax
  br i1 %exitcond298.not, label %if.end90, label %for.body83, !llvm.loop !91

if.end90:                                         ; preds = %_ZN8NArchive3N7z10CInArchive7ReadNumEv.exit240, %for.cond81.preheader, %for.end74
  ret void
}

declare void @_ZN17CBaseRecordVector5ClearEv(ptr noundef nonnull align 8 dereferenceable(32)) local_unnamed_addr #4

declare void @_ZN17CBaseRecordVector7ReserveEi(ptr noundef nonnull align 8 dereferenceable(32), i32 noundef) local_unnamed_addr #4

; Function Attrs: mustprogress nocallback nofree nounwind willreturn memory(argmem: write)
declare void @llvm.memset.p0.i64(ptr nocapture writeonly, i8, i64, i1 immarg) #7

; Function Attrs: mustprogress uwtable
define dso_local void @_ZN8NArchive3N7z10CInArchive13WaitAttributeEy(ptr nocapture noundef nonnull readonly align 8 dereferenceable(96) %this, i64 noundef %attribute) local_unnamed_addr #2 align 2 {
entry:
  %_inByteBack.i = getelementptr inbounds %"class.NArchive::N7z::CInArchive", ptr %this, i64 0, i32 2
  %0 = load ptr, ptr %_inByteBack.i, align 8, !tbaa !44
  %call.i8 = tail call noundef i64 @_ZN8NArchive3N7z8CInByte210ReadNumberEv(ptr noundef nonnull align 8 dereferenceable(24) %0)
  %cmp9 = icmp eq i64 %call.i8, %attribute
  br i1 %cmp9, label %return, label %if.end

if.end:                                           ; preds = %entry, %cleanup
  %call.i10 = phi i64 [ %call.i, %cleanup ], [ %call.i8, %entry ]
  %cmp2 = icmp eq i64 %call.i10, 0
  br i1 %cmp2, label %if.then3, label %if.end4

if.then3:                                         ; preds = %if.end
  %exception.i.i = tail call ptr @__cxa_allocate_exception(i64 1) #16
  tail call void @__cxa_throw(ptr %exception.i.i, ptr nonnull @_ZTIN8NArchive3N7z19CInArchiveExceptionE, ptr null) #18
  unreachable

if.end4:                                          ; preds = %if.end
  %1 = load ptr, ptr %_inByteBack.i, align 8, !tbaa !44
  %call.i.i = tail call noundef i64 @_ZN8NArchive3N7z8CInByte210ReadNumberEv(ptr noundef nonnull align 8 dereferenceable(24) %1)
  %_size.i.i.i = getelementptr inbounds %"class.NArchive::N7z::CInByte2", ptr %1, i64 0, i32 1
  %2 = load i64, ptr %_size.i.i.i, align 8, !tbaa !51
  %_pos.i.i.i = getelementptr inbounds %"class.NArchive::N7z::CInByte2", ptr %1, i64 0, i32 2
  %3 = load i64, ptr %_pos.i.i.i, align 8, !tbaa !52
  %sub.i.i.i = sub i64 %2, %3
  %cmp.i.i.i = icmp ult i64 %sub.i.i.i, %call.i.i
  br i1 %cmp.i.i.i, label %if.then.i.i.i, label %cleanup

if.then.i.i.i:                                    ; preds = %if.end4
  %exception.i.i.i.i.i = tail call ptr @__cxa_allocate_exception(i64 1) #16
  tail call void @__cxa_throw(ptr %exception.i.i.i.i.i, ptr nonnull @_ZTIN8NArchive3N7z19CInArchiveExceptionE, ptr null) #18
  unreachable

cleanup:                                          ; preds = %if.end4
  %add.i.i.i = add i64 %3, %call.i.i
  store i64 %add.i.i.i, ptr %_pos.i.i.i, align 8, !tbaa !52
  %4 = load ptr, ptr %_inByteBack.i, align 8, !tbaa !44
  %call.i = tail call noundef i64 @_ZN8NArchive3N7z8CInByte210ReadNumberEv(ptr noundef nonnull align 8 dereferenceable(24) %4)
  %cmp = icmp eq i64 %call.i, %attribute
  br i1 %cmp, label %return, label %if.end

return:                                           ; preds = %cleanup, %entry
  ret void
}

; Function Attrs: mustprogress uwtable
define dso_local void @_ZN8NArchive3N7z10CInArchive15ReadHashDigestsEiR13CRecordVectorIbERS2_IjE(ptr nocapture noundef nonnull readonly align 8 dereferenceable(96) %this, i32 noundef %numItems, ptr noundef nonnull align 8 dereferenceable(32) %digestsDefined, ptr noundef nonnull align 8 dereferenceable(32) %digests) local_unnamed_addr #2 align 2 {
entry:
  tail call void @_ZN8NArchive3N7z10CInArchive15ReadBoolVector2EiR13CRecordVectorIbE(ptr noundef nonnull align 8 dereferenceable(96) %this, i32 noundef %numItems, ptr noundef nonnull align 8 dereferenceable(32) %digestsDefined)
  tail call void @_ZN17CBaseRecordVector5ClearEv(ptr noundef nonnull align 8 dereferenceable(32) %digests)
  tail call void @_ZN17CBaseRecordVector7ReserveEi(ptr noundef nonnull align 8 dereferenceable(32) %digests, i32 noundef %numItems)
  %cmp14 = icmp sgt i32 %numItems, 0
  br i1 %cmp14, label %for.body.lr.ph, label %for.cond.cleanup

for.body.lr.ph:                                   ; preds = %entry
  %_items.i = getelementptr inbounds %class.CBaseRecordVector, ptr %digestsDefined, i64 0, i32 3
  %_inByteBack.i = getelementptr inbounds %"class.NArchive::N7z::CInArchive", ptr %this, i64 0, i32 2
  %_items.i11 = getelementptr inbounds %class.CBaseRecordVector, ptr %digests, i64 0, i32 3
  %_size.i = getelementptr inbounds %class.CBaseRecordVector, ptr %digests, i64 0, i32 2
  %wide.trip.count = zext i32 %numItems to i64
  br label %for.body

for.cond.cleanup:                                 ; preds = %if.end, %entry
  ret void

for.body:                                         ; preds = %for.body.lr.ph, %if.end
  %indvars.iv = phi i64 [ 0, %for.body.lr.ph ], [ %indvars.iv.next, %if.end ]
  %0 = load ptr, ptr %_items.i, align 8, !tbaa !15
  %arrayidx.i = getelementptr inbounds i8, ptr %0, i64 %indvars.iv
  %1 = load i8, ptr %arrayidx.i, align 1, !tbaa !16, !range !23, !noundef !24
  %tobool.not = icmp eq i8 %1, 0
  br i1 %tobool.not, label %if.end, label %if.then

if.then:                                          ; preds = %for.body
  %2 = load ptr, ptr %_inByteBack.i, align 8, !tbaa !44
  %_pos.i.i = getelementptr inbounds %"class.NArchive::N7z::CInByte2", ptr %2, i64 0, i32 2
  %3 = load i64, ptr %_pos.i.i, align 8, !tbaa !52
  %add.i.i = add i64 %3, 4
  %_size.i.i = getelementptr inbounds %"class.NArchive::N7z::CInByte2", ptr %2, i64 0, i32 1
  %4 = load i64, ptr %_size.i.i, align 8, !tbaa !51
  %cmp.i.i = icmp ugt i64 %add.i.i, %4
  br i1 %cmp.i.i, label %if.then.i.i, label %_ZN8NArchive3N7z10CInArchive10ReadUInt32Ev.exit

if.then.i.i:                                      ; preds = %if.then
  %exception.i.i.i.i = tail call ptr @__cxa_allocate_exception(i64 1) #16
  tail call void @__cxa_throw(ptr %exception.i.i.i.i, ptr nonnull @_ZTIN8NArchive3N7z19CInArchiveExceptionE, ptr null) #18
  unreachable

_ZN8NArchive3N7z10CInArchive10ReadUInt32Ev.exit:  ; preds = %if.then
  %5 = load ptr, ptr %2, align 8, !tbaa !49
  %add.ptr.i.i = getelementptr inbounds i8, ptr %5, i64 %3
  %6 = load i32, ptr %add.ptr.i.i, align 4, !tbaa !26
  store i64 %add.i.i, ptr %_pos.i.i, align 8, !tbaa !52
  br label %if.end

if.end:                                           ; preds = %_ZN8NArchive3N7z10CInArchive10ReadUInt32Ev.exit, %for.body
  %crc.0 = phi i32 [ %6, %_ZN8NArchive3N7z10CInArchive10ReadUInt32Ev.exit ], [ 0, %for.body ]
  tail call void @_ZN17CBaseRecordVector18ReserveOnePositionEv(ptr noundef nonnull align 8 dereferenceable(32) %digests)
  %7 = load ptr, ptr %_items.i11, align 8, !tbaa !15
  %8 = load i32, ptr %_size.i, align 4, !tbaa !5
  %idxprom.i12 = sext i32 %8 to i64
  %arrayidx.i13 = getelementptr inbounds i32, ptr %7, i64 %idxprom.i12
  store i32 %crc.0, ptr %arrayidx.i13, align 4, !tbaa !26
  %9 = load i32, ptr %_size.i, align 4, !tbaa !5
  %inc.i = add nsw i32 %9, 1
  store i32 %inc.i, ptr %_size.i, align 4, !tbaa !5
  %indvars.iv.next = add nuw nsw i64 %indvars.iv, 1
  %exitcond.not = icmp eq i64 %indvars.iv.next, %wide.trip.count
  br i1 %exitcond.not, label %for.cond.cleanup, label %for.body, !llvm.loop !92
}

; Function Attrs: mustprogress uwtable
define dso_local void @_ZN8NArchive3N7z10CInArchive15ReadBoolVector2EiR13CRecordVectorIbE(ptr nocapture noundef nonnull readonly align 8 dereferenceable(96) %this, i32 noundef %numItems, ptr noundef nonnull align 8 dereferenceable(32) %v) local_unnamed_addr #2 align 2 {
entry:
  %_inByteBack.i = getelementptr inbounds %"class.NArchive::N7z::CInArchive", ptr %this, i64 0, i32 2
  %0 = load ptr, ptr %_inByteBack.i, align 8, !tbaa !44
  %_pos.i.i = getelementptr inbounds %"class.NArchive::N7z::CInByte2", ptr %0, i64 0, i32 2
  %1 = load i64, ptr %_pos.i.i, align 8, !tbaa !52
  %_size.i.i = getelementptr inbounds %"class.NArchive::N7z::CInByte2", ptr %0, i64 0, i32 1
  %2 = load i64, ptr %_size.i.i, align 8, !tbaa !51
  %cmp.not.i.i = icmp ult i64 %1, %2
  br i1 %cmp.not.i.i, label %_ZN8NArchive3N7z10CInArchive8ReadByteEv.exit, label %if.then.i.i

if.then.i.i:                                      ; preds = %entry
  %exception.i.i.i.i = tail call ptr @__cxa_allocate_exception(i64 1) #16
  tail call void @__cxa_throw(ptr %exception.i.i.i.i, ptr nonnull @_ZTIN8NArchive3N7z19CInArchiveExceptionE, ptr null) #18
  unreachable

_ZN8NArchive3N7z10CInArchive8ReadByteEv.exit:     ; preds = %entry
  %3 = load ptr, ptr %0, align 8, !tbaa !49
  %inc.i.i = add nuw i64 %1, 1
  store i64 %inc.i.i, ptr %_pos.i.i, align 8, !tbaa !52
  %arrayidx.i.i = getelementptr inbounds i8, ptr %3, i64 %1
  %4 = load i8, ptr %arrayidx.i.i, align 1, !tbaa !55
  %cmp = icmp eq i8 %4, 0
  br i1 %cmp, label %if.then, label %if.end

if.then:                                          ; preds = %_ZN8NArchive3N7z10CInArchive8ReadByteEv.exit
  tail call void @_ZN8NArchive3N7z10CInArchive14ReadBoolVectorEiR13CRecordVectorIbE(ptr noundef nonnull align 8 dereferenceable(96) %this, i32 noundef %numItems, ptr noundef nonnull align 8 dereferenceable(32) %v)
  br label %cleanup

if.end:                                           ; preds = %_ZN8NArchive3N7z10CInArchive8ReadByteEv.exit
  tail call void @_ZN17CBaseRecordVector5ClearEv(ptr noundef nonnull align 8 dereferenceable(32) %v)
  tail call void @_ZN17CBaseRecordVector7ReserveEi(ptr noundef nonnull align 8 dereferenceable(32) %v, i32 noundef %numItems)
  %cmp210 = icmp sgt i32 %numItems, 0
  br i1 %cmp210, label %for.body.lr.ph, label %cleanup

for.body.lr.ph:                                   ; preds = %if.end
  %_items.i = getelementptr inbounds %class.CBaseRecordVector, ptr %v, i64 0, i32 3
  %_size.i = getelementptr inbounds %class.CBaseRecordVector, ptr %v, i64 0, i32 2
  br label %for.body

for.body:                                         ; preds = %for.body.lr.ph, %for.body
  %i.011 = phi i32 [ 0, %for.body.lr.ph ], [ %inc, %for.body ]
  tail call void @_ZN17CBaseRecordVector18ReserveOnePositionEv(ptr noundef nonnull align 8 dereferenceable(32) %v)
  %5 = load ptr, ptr %_items.i, align 8, !tbaa !15
  %6 = load i32, ptr %_size.i, align 4, !tbaa !5
  %idxprom.i = sext i32 %6 to i64
  %arrayidx.i = getelementptr inbounds i8, ptr %5, i64 %idxprom.i
  store i8 1, ptr %arrayidx.i, align 1, !tbaa !16
  %inc.i = add nsw i32 %6, 1
  store i32 %inc.i, ptr %_size.i, align 4, !tbaa !5
  %inc = add nuw nsw i32 %i.011, 1
  %exitcond.not = icmp eq i32 %inc, %numItems
  br i1 %exitcond.not, label %cleanup, label %for.body, !llvm.loop !93

cleanup:                                          ; preds = %for.body, %if.end, %if.then
  ret void
}

; Function Attrs: mustprogress uwtable
define dso_local void @_ZN8NArchive3N7z10CInArchive12ReadPackInfoERyR13CRecordVectorIyERS3_IbERS3_IjE(ptr nocapture noundef nonnull readonly align 8 dereferenceable(96) %this, ptr nocapture noundef nonnull writeonly align 8 dereferenceable(8) %dataOffset, ptr noundef nonnull align 8 dereferenceable(32) %packSizes, ptr noundef nonnull align 8 dereferenceable(32) %packCRCsDefined, ptr noundef nonnull align 8 dereferenceable(32) %packCRCs) local_unnamed_addr #2 align 2 {
entry:
  %_inByteBack.i = getelementptr inbounds %"class.NArchive::N7z::CInArchive", ptr %this, i64 0, i32 2
  %0 = load ptr, ptr %_inByteBack.i, align 8, !tbaa !44
  %call.i = tail call noundef i64 @_ZN8NArchive3N7z8CInByte210ReadNumberEv(ptr noundef nonnull align 8 dereferenceable(24) %0)
  store i64 %call.i, ptr %dataOffset, align 8, !tbaa !57
  %1 = load ptr, ptr %_inByteBack.i, align 8, !tbaa !44
  %call.i.i = tail call noundef i64 @_ZN8NArchive3N7z8CInByte210ReadNumberEv(ptr noundef nonnull align 8 dereferenceable(24) %1)
  %cmp.i.i = icmp ugt i64 %call.i.i, 2147483647
  br i1 %cmp.i.i, label %if.then.i.i, label %_ZN8NArchive3N7z10CInArchive7ReadNumEv.exit

if.then.i.i:                                      ; preds = %entry
  %exception.i.i.i.i = tail call ptr @__cxa_allocate_exception(i64 1) #16
  tail call void @__cxa_throw(ptr %exception.i.i.i.i, ptr nonnull @_ZTIN8NArchive3N7z19CInArchiveExceptionE, ptr null) #18
  unreachable

_ZN8NArchive3N7z10CInArchive7ReadNumEv.exit:      ; preds = %entry
  %conv.i.i = trunc i64 %call.i.i to i32
  tail call void @_ZN8NArchive3N7z10CInArchive13WaitAttributeEy(ptr noundef nonnull align 8 dereferenceable(96) %this, i64 noundef 9)
  tail call void @_ZN17CBaseRecordVector5ClearEv(ptr noundef nonnull align 8 dereferenceable(32) %packSizes)
  tail call void @_ZN17CBaseRecordVector7ReserveEi(ptr noundef nonnull align 8 dereferenceable(32) %packSizes, i32 noundef %conv.i.i)
  %cmp53.not = icmp eq i32 %conv.i.i, 0
  br i1 %cmp53.not, label %for.cond5.preheader, label %for.body.lr.ph

for.body.lr.ph:                                   ; preds = %_ZN8NArchive3N7z10CInArchive7ReadNumEv.exit
  %_items.i = getelementptr inbounds %class.CBaseRecordVector, ptr %packSizes, i64 0, i32 3
  %_size.i = getelementptr inbounds %class.CBaseRecordVector, ptr %packSizes, i64 0, i32 2
  br label %for.body

for.body:                                         ; preds = %for.body.lr.ph, %for.body
  %i.054 = phi i32 [ 0, %for.body.lr.ph ], [ %inc, %for.body ]
  %2 = load ptr, ptr %_inByteBack.i, align 8, !tbaa !44
  %call.i41 = tail call noundef i64 @_ZN8NArchive3N7z8CInByte210ReadNumberEv(ptr noundef nonnull align 8 dereferenceable(24) %2)
  tail call void @_ZN17CBaseRecordVector18ReserveOnePositionEv(ptr noundef nonnull align 8 dereferenceable(32) %packSizes)
  %3 = load ptr, ptr %_items.i, align 8, !tbaa !15
  %4 = load i32, ptr %_size.i, align 4, !tbaa !5
  %idxprom.i = sext i32 %4 to i64
  %arrayidx.i = getelementptr inbounds i64, ptr %3, i64 %idxprom.i
  store i64 %call.i41, ptr %arrayidx.i, align 8, !tbaa !57
  %inc.i = add nsw i32 %4, 1
  store i32 %inc.i, ptr %_size.i, align 4, !tbaa !5
  %inc = add nuw i32 %i.054, 1
  %exitcond.not = icmp eq i32 %inc, %conv.i.i
  br i1 %exitcond.not, label %for.cond5.preheader, label %for.body, !llvm.loop !94

for.cond5.preheader:                              ; preds = %for.body, %_ZN8NArchive3N7z10CInArchive7ReadNumEv.exit
  br label %for.cond5

for.cond5:                                        ; preds = %for.cond5.backedge, %for.cond5.preheader
  %5 = load ptr, ptr %_inByteBack.i, align 8, !tbaa !44
  %call.i43 = tail call noundef i64 @_ZN8NArchive3N7z8CInByte210ReadNumberEv(ptr noundef nonnull align 8 dereferenceable(24) %5)
  switch i64 %call.i43, label %if.end10 [
    i64 0, label %for.end11
    i64 10, label %if.then9
  ]

if.then9:                                         ; preds = %for.cond5
  tail call void @_ZN8NArchive3N7z10CInArchive15ReadHashDigestsEiR13CRecordVectorIbERS2_IjE(ptr noundef nonnull align 8 dereferenceable(96) %this, i32 noundef %conv.i.i, ptr noundef nonnull align 8 dereferenceable(32) %packCRCsDefined, ptr noundef nonnull align 8 dereferenceable(32) %packCRCs)
  br label %for.cond5.backedge

for.cond5.backedge:                               ; preds = %if.then9, %_ZN8NArchive3N7z10CInArchive8SkipDataEv.exit
  br label %for.cond5, !llvm.loop !95

if.end10:                                         ; preds = %for.cond5
  %6 = load ptr, ptr %_inByteBack.i, align 8, !tbaa !44
  %call.i.i45 = tail call noundef i64 @_ZN8NArchive3N7z8CInByte210ReadNumberEv(ptr noundef nonnull align 8 dereferenceable(24) %6)
  %_size.i.i.i = getelementptr inbounds %"class.NArchive::N7z::CInByte2", ptr %6, i64 0, i32 1
  %7 = load i64, ptr %_size.i.i.i, align 8, !tbaa !51
  %_pos.i.i.i = getelementptr inbounds %"class.NArchive::N7z::CInByte2", ptr %6, i64 0, i32 2
  %8 = load i64, ptr %_pos.i.i.i, align 8, !tbaa !52
  %sub.i.i.i = sub i64 %7, %8
  %cmp.i.i.i = icmp ult i64 %sub.i.i.i, %call.i.i45
  br i1 %cmp.i.i.i, label %if.then.i.i.i, label %_ZN8NArchive3N7z10CInArchive8SkipDataEv.exit

if.then.i.i.i:                                    ; preds = %if.end10
  %exception.i.i.i.i.i = tail call ptr @__cxa_allocate_exception(i64 1) #16
  tail call void @__cxa_throw(ptr %exception.i.i.i.i.i, ptr nonnull @_ZTIN8NArchive3N7z19CInArchiveExceptionE, ptr null) #18
  unreachable

_ZN8NArchive3N7z10CInArchive8SkipDataEv.exit:     ; preds = %if.end10
  %add.i.i.i = add i64 %8, %call.i.i45
  store i64 %add.i.i.i, ptr %_pos.i.i.i, align 8, !tbaa !52
  br label %for.cond5.backedge

for.end11:                                        ; preds = %for.cond5
  %_size.i46 = getelementptr inbounds %class.CBaseRecordVector, ptr %packCRCsDefined, i64 0, i32 2
  %9 = load i32, ptr %_size.i46, align 4, !tbaa !5
  %cmp.i = icmp eq i32 %9, 0
  br i1 %cmp.i, label %if.then13, label %if.end23

if.then13:                                        ; preds = %for.end11
  tail call void @_ZN17CBaseRecordVector5ClearEv(ptr noundef nonnull align 8 dereferenceable(32) %packCRCsDefined)
  tail call void @_ZN17CBaseRecordVector7ReserveEi(ptr noundef nonnull align 8 dereferenceable(32) %packCRCsDefined, i32 noundef %conv.i.i)
  %cmp5.i = icmp sgt i32 %conv.i.i, 0
  br i1 %cmp5.i, label %for.body.lr.ph.i, label %_ZN8NArchive3N7zL21BoolVector_Fill_FalseER13CRecordVectorIbEi.exit

for.body.lr.ph.i:                                 ; preds = %if.then13
  %_items.i.i = getelementptr inbounds %class.CBaseRecordVector, ptr %packCRCsDefined, i64 0, i32 3
  br label %for.body.i

for.body.i:                                       ; preds = %for.body.i, %for.body.lr.ph.i
  %i.06.i = phi i32 [ 0, %for.body.lr.ph.i ], [ %inc.i47, %for.body.i ]
  tail call void @_ZN17CBaseRecordVector18ReserveOnePositionEv(ptr noundef nonnull align 8 dereferenceable(32) %packCRCsDefined)
  %10 = load ptr, ptr %_items.i.i, align 8, !tbaa !15
  %11 = load i32, ptr %_size.i46, align 4, !tbaa !5
  %idxprom.i.i = sext i32 %11 to i64
  %arrayidx.i.i = getelementptr inbounds i8, ptr %10, i64 %idxprom.i.i
  store i8 0, ptr %arrayidx.i.i, align 1, !tbaa !16
  %inc.i.i = add nsw i32 %11, 1
  store i32 %inc.i.i, ptr %_size.i46, align 4, !tbaa !5
  %inc.i47 = add nuw nsw i32 %i.06.i, 1
  %exitcond.not.i = icmp eq i32 %inc.i47, %conv.i.i
  br i1 %exitcond.not.i, label %_ZN8NArchive3N7zL21BoolVector_Fill_FalseER13CRecordVectorIbEi.exit, label %for.body.i, !llvm.loop !18

_ZN8NArchive3N7zL21BoolVector_Fill_FalseER13CRecordVectorIbEi.exit: ; preds = %for.body.i, %if.then13
  tail call void @_ZN17CBaseRecordVector7ReserveEi(ptr noundef nonnull align 8 dereferenceable(32) %packCRCs, i32 noundef %conv.i.i)
  tail call void @_ZN17CBaseRecordVector5ClearEv(ptr noundef nonnull align 8 dereferenceable(32) %packCRCs)
  br i1 %cmp53.not, label %if.end23, label %for.body18.lr.ph

for.body18.lr.ph:                                 ; preds = %_ZN8NArchive3N7zL21BoolVector_Fill_FalseER13CRecordVectorIbEi.exit
  %_items.i48 = getelementptr inbounds %class.CBaseRecordVector, ptr %packCRCs, i64 0, i32 3
  %_size.i49 = getelementptr inbounds %class.CBaseRecordVector, ptr %packCRCs, i64 0, i32 2
  br label %for.body18

for.body18:                                       ; preds = %for.body18.lr.ph, %for.body18
  %i14.056 = phi i32 [ 0, %for.body18.lr.ph ], [ %inc21, %for.body18 ]
  tail call void @_ZN17CBaseRecordVector18ReserveOnePositionEv(ptr noundef nonnull align 8 dereferenceable(32) %packCRCs)
  %12 = load ptr, ptr %_items.i48, align 8, !tbaa !15
  %13 = load i32, ptr %_size.i49, align 4, !tbaa !5
  %idxprom.i50 = sext i32 %13 to i64
  %arrayidx.i51 = getelementptr inbounds i32, ptr %12, i64 %idxprom.i50
  store i32 0, ptr %arrayidx.i51, align 4, !tbaa !26
  %14 = load i32, ptr %_size.i49, align 4, !tbaa !5
  %inc.i52 = add nsw i32 %14, 1
  store i32 %inc.i52, ptr %_size.i49, align 4, !tbaa !5
  %inc21 = add nuw i32 %i14.056, 1
  %exitcond57.not = icmp eq i32 %inc21, %conv.i.i
  br i1 %exitcond57.not, label %if.end23, label %for.body18, !llvm.loop !96

if.end23:                                         ; preds = %for.body18, %_ZN8NArchive3N7zL21BoolVector_Fill_FalseER13CRecordVectorIbEi.exit, %for.end11
  ret void
}

; Function Attrs: uwtable
define dso_local void @_ZN8NArchive3N7z10CInArchive14ReadUnpackInfoEPK13CObjectVectorI7CBufferIhEERS2_INS0_7CFolderEE(ptr noundef nonnull align 8 dereferenceable(96) %this, ptr nocapture noundef readonly %dataVector, ptr noundef nonnull align 8 dereferenceable(32) %folders) local_unnamed_addr #0 align 2 personality ptr @__gxx_personality_v0 {
entry:
  %streamSwitch = alloca %"class.NArchive::N7z::CStreamSwitch", align 8
  %ref.tmp = alloca %"struct.NArchive::N7z::CFolder", align 8
  %crcsDefined = alloca %class.CRecordVector.3, align 8
  %crcs = alloca %class.CRecordVector.1, align 8
  tail call void @_ZN8NArchive3N7z10CInArchive13WaitAttributeEy(ptr noundef nonnull align 8 dereferenceable(96) %this, i64 noundef 11)
  %_inByteBack.i = getelementptr inbounds %"class.NArchive::N7z::CInArchive", ptr %this, i64 0, i32 2
  %0 = load ptr, ptr %_inByteBack.i, align 8, !tbaa !44
  %call.i.i = tail call noundef i64 @_ZN8NArchive3N7z8CInByte210ReadNumberEv(ptr noundef nonnull align 8 dereferenceable(24) %0)
  %cmp.i.i = icmp ugt i64 %call.i.i, 2147483647
  br i1 %cmp.i.i, label %if.then.i.i, label %_ZN8NArchive3N7z10CInArchive7ReadNumEv.exit

if.then.i.i:                                      ; preds = %entry
  %exception.i.i.i.i = tail call ptr @__cxa_allocate_exception(i64 1) #16
  tail call void @__cxa_throw(ptr %exception.i.i.i.i, ptr nonnull @_ZTIN8NArchive3N7z19CInArchiveExceptionE, ptr null) #18
  unreachable

_ZN8NArchive3N7z10CInArchive7ReadNumEv.exit:      ; preds = %entry
  %conv.i.i = trunc i64 %call.i.i to i32
  call void @llvm.lifetime.start.p0(i64 16, ptr nonnull %streamSwitch) #16
  %_needRemove.i = getelementptr inbounds %"class.NArchive::N7z::CStreamSwitch", ptr %streamSwitch, i64 0, i32 1
  store i8 0, ptr %_needRemove.i, align 8, !tbaa !41
  invoke void @_ZN8NArchive3N7z13CStreamSwitch3SetEPNS0_10CInArchiveEPK13CObjectVectorI7CBufferIhEE(ptr noundef nonnull align 8 dereferenceable(9) %streamSwitch, ptr noundef nonnull %this, ptr noundef %dataVector)
          to label %invoke.cont unwind label %lpad

invoke.cont:                                      ; preds = %_ZN8NArchive3N7z10CInArchive7ReadNumEv.exit
  invoke void @_ZN17CBaseRecordVector5ClearEv(ptr noundef nonnull align 8 dereferenceable(32) %folders)
          to label %invoke.cont2 unwind label %lpad

invoke.cont2:                                     ; preds = %invoke.cont
  invoke void @_ZN17CBaseRecordVector7ReserveEi(ptr noundef nonnull align 8 dereferenceable(32) %folders, i32 noundef %conv.i.i)
          to label %for.cond.preheader unwind label %lpad

for.cond.preheader:                               ; preds = %invoke.cont2
  %cmp130.not = icmp eq i32 %conv.i.i, 0
  br i1 %cmp130.not, label %for.cond.cleanup, label %invoke.cont5.lr.ph

invoke.cont5.lr.ph:                               ; preds = %for.cond.preheader
  %_capacity.i.i.i.i = getelementptr inbounds %class.CBaseRecordVector, ptr %ref.tmp, i64 0, i32 1
  %_itemSize.i.i.i.i = getelementptr inbounds %class.CBaseRecordVector, ptr %ref.tmp, i64 0, i32 4
  %BindPairs.i = getelementptr inbounds %"struct.NArchive::N7z::CFolder", ptr %ref.tmp, i64 0, i32 1
  %_capacity.i.i.i = getelementptr inbounds %"struct.NArchive::N7z::CFolder", ptr %ref.tmp, i64 0, i32 1, i32 0, i32 1
  %_itemSize.i.i.i = getelementptr inbounds %"struct.NArchive::N7z::CFolder", ptr %ref.tmp, i64 0, i32 1, i32 0, i32 4
  %PackStreams.i = getelementptr inbounds %"struct.NArchive::N7z::CFolder", ptr %ref.tmp, i64 0, i32 2
  %_capacity.i.i8.i = getelementptr inbounds %"struct.NArchive::N7z::CFolder", ptr %ref.tmp, i64 0, i32 2, i32 0, i32 1
  %_itemSize.i.i9.i = getelementptr inbounds %"struct.NArchive::N7z::CFolder", ptr %ref.tmp, i64 0, i32 2, i32 0, i32 4
  %UnpackSizes.i = getelementptr inbounds %"struct.NArchive::N7z::CFolder", ptr %ref.tmp, i64 0, i32 3
  %_capacity.i.i10.i = getelementptr inbounds %"struct.NArchive::N7z::CFolder", ptr %ref.tmp, i64 0, i32 3, i32 0, i32 1
  %_itemSize.i.i11.i = getelementptr inbounds %"struct.NArchive::N7z::CFolder", ptr %ref.tmp, i64 0, i32 3, i32 0, i32 4
  %UnpackCRCDefined.i = getelementptr inbounds %"struct.NArchive::N7z::CFolder", ptr %ref.tmp, i64 0, i32 5
  %_items.i.i = getelementptr inbounds %class.CBaseRecordVector, ptr %folders, i64 0, i32 3
  %_size.i.i = getelementptr inbounds %class.CBaseRecordVector, ptr %folders, i64 0, i32 2
  br label %invoke.cont5

for.cond.cleanup:                                 ; preds = %for.inc, %for.cond.preheader
  %1 = load i8, ptr %_needRemove.i, align 8, !tbaa !41, !range !23, !noundef !24
  %tobool.not.i.i = icmp eq i8 %1, 0
  br i1 %tobool.not.i.i, label %_ZN8NArchive3N7z13CStreamSwitchD2Ev.exit, label %if.then.i.i98

if.then.i.i98:                                    ; preds = %for.cond.cleanup
  %2 = load ptr, ptr %streamSwitch, align 8, !tbaa !43
  %_inByteVector.i.i.i = getelementptr inbounds %"class.NArchive::N7z::CInArchive", ptr %2, i64 0, i32 1
  invoke void @_ZN17CBaseRecordVector10DeleteBackEv(ptr noundef nonnull align 8 dereferenceable(32) %_inByteVector.i.i.i)
          to label %.noexc.i unwind label %terminate.lpad.i

.noexc.i:                                         ; preds = %if.then.i.i98
  %_size.i.i.i.i = getelementptr inbounds %"class.NArchive::N7z::CInArchive", ptr %2, i64 0, i32 1, i32 0, i32 0, i32 2
  %3 = load i32, ptr %_size.i.i.i.i, align 4, !tbaa !5
  %cmp.i.i.i.i = icmp eq i32 %3, 0
  br i1 %cmp.i.i.i.i, label %_ZN8NArchive3N7z13CStreamSwitchD2Ev.exit, label %if.then.i.i.i

if.then.i.i.i:                                    ; preds = %.noexc.i
  %sub.i.i.i.i = add nsw i32 %3, -1
  %_items.i.i.i.i.i.i = getelementptr inbounds %"class.NArchive::N7z::CInArchive", ptr %2, i64 0, i32 1, i32 0, i32 0, i32 3
  %4 = load ptr, ptr %_items.i.i.i.i.i.i, align 8, !tbaa !15
  %idxprom.i.i.i.i.i.i = sext i32 %sub.i.i.i.i to i64
  %arrayidx.i.i.i.i.i.i = getelementptr inbounds ptr, ptr %4, i64 %idxprom.i.i.i.i.i.i
  %5 = load ptr, ptr %arrayidx.i.i.i.i.i.i, align 8, !tbaa !29
  %_inByteBack.i.i.i = getelementptr inbounds %"class.NArchive::N7z::CInArchive", ptr %2, i64 0, i32 2
  store ptr %5, ptr %_inByteBack.i.i.i, align 8, !tbaa !44
  br label %_ZN8NArchive3N7z13CStreamSwitchD2Ev.exit

terminate.lpad.i:                                 ; preds = %if.then.i.i98
  %6 = landingpad { ptr, i32 }
          catch ptr null
  %7 = extractvalue { ptr, i32 } %6, 0
  call void @__clang_call_terminate(ptr %7) #20
  unreachable

_ZN8NArchive3N7z13CStreamSwitchD2Ev.exit:         ; preds = %.noexc.i, %if.then.i.i.i, %for.cond.cleanup
  call void @llvm.lifetime.end.p0(i64 16, ptr nonnull %streamSwitch) #16
  call void @_ZN8NArchive3N7z10CInArchive13WaitAttributeEy(ptr noundef nonnull align 8 dereferenceable(96) %this, i64 noundef 12)
  br i1 %cmp130.not, label %for.cond35.preheader.thread, label %for.body19.lr.ph

for.cond35.preheader.thread:                      ; preds = %_ZN8NArchive3N7z13CStreamSwitchD2Ev.exit
  %_capacity.i.i147 = getelementptr inbounds %class.CBaseRecordVector, ptr %crcsDefined, i64 0, i32 1
  %_itemSize.i.i148 = getelementptr inbounds %class.CBaseRecordVector, ptr %crcsDefined, i64 0, i32 4
  %_capacity.i.i113149 = getelementptr inbounds %class.CBaseRecordVector, ptr %crcs, i64 0, i32 1
  %_itemSize.i.i114150 = getelementptr inbounds %class.CBaseRecordVector, ptr %crcs, i64 0, i32 4
  br label %for.cond35.preheader138

for.body19.lr.ph:                                 ; preds = %_ZN8NArchive3N7z13CStreamSwitchD2Ev.exit
  %_items.i.i103 = getelementptr inbounds %class.CBaseRecordVector, ptr %folders, i64 0, i32 3
  br label %for.body19

lpad:                                             ; preds = %invoke.cont2, %invoke.cont, %_ZN8NArchive3N7z10CInArchive7ReadNumEv.exit
  %8 = landingpad { ptr, i32 }
          cleanup
  br label %ehcleanup14

invoke.cont5:                                     ; preds = %invoke.cont5.lr.ph, %for.inc
  %i.0131 = phi i32 [ 0, %invoke.cont5.lr.ph ], [ %inc, %for.inc ]
  call void @llvm.lifetime.start.p0(i64 136, ptr nonnull %ref.tmp) #16
  call void @llvm.memset.p0.i64(ptr noundef nonnull align 8 dereferenceable(16) %_capacity.i.i.i.i, i8 0, i64 16, i1 false)
  store i64 8, ptr %_itemSize.i.i.i.i, align 8, !tbaa !12
  store ptr getelementptr inbounds ({ [5 x ptr] }, ptr @_ZTV13CObjectVectorIN8NArchive3N7z10CCoderInfoEE, i64 0, inrange i32 0, i64 2), ptr %ref.tmp, align 8, !tbaa !13
  call void @llvm.memset.p0.i64(ptr noundef nonnull align 8 dereferenceable(16) %_capacity.i.i.i, i8 0, i64 16, i1 false)
  store i64 8, ptr %_itemSize.i.i.i, align 8, !tbaa !12
  store ptr getelementptr inbounds ({ [5 x ptr] }, ptr @_ZTV13CRecordVectorIN8NArchive3N7z9CBindPairEE, i64 0, inrange i32 0, i64 2), ptr %BindPairs.i, align 8, !tbaa !13
  call void @llvm.memset.p0.i64(ptr noundef nonnull align 8 dereferenceable(16) %_capacity.i.i8.i, i8 0, i64 16, i1 false)
  store i64 4, ptr %_itemSize.i.i9.i, align 8, !tbaa !12
  store ptr getelementptr inbounds ({ [5 x ptr] }, ptr @_ZTV13CRecordVectorIjE, i64 0, inrange i32 0, i64 2), ptr %PackStreams.i, align 8, !tbaa !13
  call void @llvm.memset.p0.i64(ptr noundef nonnull align 8 dereferenceable(16) %_capacity.i.i10.i, i8 0, i64 16, i1 false)
  store i64 8, ptr %_itemSize.i.i11.i, align 8, !tbaa !12
  store ptr getelementptr inbounds ({ [5 x ptr] }, ptr @_ZTV13CRecordVectorIyE, i64 0, inrange i32 0, i64 2), ptr %UnpackSizes.i, align 8, !tbaa !13
  store i8 0, ptr %UnpackCRCDefined.i, align 4, !tbaa !97
  %call.i99 = invoke noalias noundef nonnull dereferenceable(136) ptr @_Znwm(i64 noundef 136) #17
          to label %call.i.noexc unwind label %lpad6

call.i.noexc:                                     ; preds = %invoke.cont5
  invoke void @_ZN8NArchive3N7z7CFolderC2ERKS1_(ptr noundef nonnull align 8 dereferenceable(133) %call.i99, ptr noundef nonnull align 8 dereferenceable(133) %ref.tmp)
          to label %invoke.cont.i unwind label %lpad.i

invoke.cont.i:                                    ; preds = %call.i.noexc
  invoke void @_ZN17CBaseRecordVector18ReserveOnePositionEv(ptr noundef nonnull align 8 dereferenceable(32) %folders)
          to label %invoke.cont7 unwind label %lpad6

lpad.i:                                           ; preds = %call.i.noexc
  %9 = landingpad { ptr, i32 }
          cleanup
  call void @_ZdlPv(ptr noundef nonnull %call.i99) #19
  br label %lpad6.body

invoke.cont7:                                     ; preds = %invoke.cont.i
  %10 = load ptr, ptr %_items.i.i, align 8, !tbaa !15
  %11 = load i32, ptr %_size.i.i, align 4, !tbaa !5
  %idxprom.i.i = sext i32 %11 to i64
  %arrayidx.i.i = getelementptr inbounds ptr, ptr %10, i64 %idxprom.i.i
  store ptr %call.i99, ptr %arrayidx.i.i, align 8, !tbaa !29
  %inc.i.i = add nsw i32 %11, 1
  store i32 %inc.i.i, ptr %_size.i.i, align 4, !tbaa !5
  call void @_ZN17CBaseRecordVectorD2Ev(ptr noundef nonnull align 8 dereferenceable(32) %UnpackSizes.i) #16
  call void @_ZN17CBaseRecordVectorD2Ev(ptr noundef nonnull align 8 dereferenceable(32) %PackStreams.i) #16
  call void @_ZN17CBaseRecordVectorD2Ev(ptr noundef nonnull align 8 dereferenceable(32) %BindPairs.i) #16
  store ptr getelementptr inbounds ({ [5 x ptr] }, ptr @_ZTV13CObjectVectorIN8NArchive3N7z10CCoderInfoEE, i64 0, inrange i32 0, i64 2), ptr %ref.tmp, align 8, !tbaa !13
  invoke void @_ZN17CBaseRecordVector5ClearEv(ptr noundef nonnull align 8 dereferenceable(32) %ref.tmp)
          to label %invoke.cont10 unwind label %terminate.lpad.i.i

terminate.lpad.i.i:                               ; preds = %invoke.cont7
  %12 = landingpad { ptr, i32 }
          catch ptr null
  %13 = extractvalue { ptr, i32 } %12, 0
  call void @__clang_call_terminate(ptr %13) #20
  unreachable

invoke.cont10:                                    ; preds = %invoke.cont7
  call void @_ZN17CBaseRecordVectorD2Ev(ptr noundef nonnull align 8 dereferenceable(32) %ref.tmp) #16
  call void @llvm.lifetime.end.p0(i64 136, ptr nonnull %ref.tmp) #16
  %14 = load i32, ptr %_size.i.i, align 4, !tbaa !5
  %sub.i = add nsw i32 %14, -1
  %15 = load ptr, ptr %_items.i.i, align 8, !tbaa !15
  %idxprom.i.i.i = sext i32 %sub.i to i64
  %arrayidx.i.i.i = getelementptr inbounds ptr, ptr %15, i64 %idxprom.i.i.i
  %16 = load ptr, ptr %arrayidx.i.i.i, align 8, !tbaa !29
  invoke void @_ZN8NArchive3N7z10CInArchive17GetNextFolderItemERNS0_7CFolderE(ptr noundef nonnull align 8 dereferenceable(96) %this, ptr noundef nonnull align 8 dereferenceable(133) %16)
          to label %for.inc unwind label %lpad9

for.inc:                                          ; preds = %invoke.cont10
  %inc = add nuw i32 %i.0131, 1
  %exitcond.not = icmp eq i32 %inc, %conv.i.i
  br i1 %exitcond.not, label %for.cond.cleanup, label %invoke.cont5, !llvm.loop !103

lpad6:                                            ; preds = %invoke.cont.i, %invoke.cont5
  %17 = landingpad { ptr, i32 }
          cleanup
  br label %lpad6.body

lpad6.body:                                       ; preds = %lpad.i, %lpad6
  %eh.lpad-body = phi { ptr, i32 } [ %17, %lpad6 ], [ %9, %lpad.i ]
  call void @_ZN8NArchive3N7z7CFolderD2Ev(ptr noundef nonnull align 8 dereferenceable(133) %ref.tmp) #16
  call void @llvm.lifetime.end.p0(i64 136, ptr nonnull %ref.tmp) #16
  br label %ehcleanup14

lpad9:                                            ; preds = %invoke.cont10
  %18 = landingpad { ptr, i32 }
          cleanup
  br label %ehcleanup14

for.cond35.preheader:                             ; preds = %for.cond.cleanup24
  %_capacity.i.i = getelementptr inbounds %class.CBaseRecordVector, ptr %crcsDefined, i64 0, i32 1
  %_itemSize.i.i = getelementptr inbounds %class.CBaseRecordVector, ptr %crcsDefined, i64 0, i32 4
  %_capacity.i.i113 = getelementptr inbounds %class.CBaseRecordVector, ptr %crcs, i64 0, i32 1
  %_itemSize.i.i114 = getelementptr inbounds %class.CBaseRecordVector, ptr %crcs, i64 0, i32 4
  %_items.i.i115 = getelementptr inbounds %class.CBaseRecordVector, ptr %folders, i64 0, i32 3
  %_items.i118 = getelementptr inbounds %class.CBaseRecordVector, ptr %crcsDefined, i64 0, i32 3
  %_items.i121 = getelementptr inbounds %class.CBaseRecordVector, ptr %crcs, i64 0, i32 3
  br i1 %cmp130.not, label %for.cond35.preheader138, label %for.cond35.us.preheader

for.cond35.us.preheader:                          ; preds = %for.cond35.preheader
  %xtraiter177 = and i32 %conv.i.i, 1
  %19 = icmp eq i32 %conv.i.i, 1
  %unroll_iter180 = and i32 %conv.i.i, -2
  %lcmp.mod179.not = icmp eq i32 %xtraiter177, 0
  br label %for.cond35.us

for.cond35.preheader138:                          ; preds = %for.cond35.preheader.thread, %for.cond35.preheader
  %_itemSize.i.i114157 = phi ptr [ %_itemSize.i.i114150, %for.cond35.preheader.thread ], [ %_itemSize.i.i114, %for.cond35.preheader ]
  %_capacity.i.i113156 = phi ptr [ %_capacity.i.i113149, %for.cond35.preheader.thread ], [ %_capacity.i.i113, %for.cond35.preheader ]
  %_itemSize.i.i155 = phi ptr [ %_itemSize.i.i148, %for.cond35.preheader.thread ], [ %_itemSize.i.i, %for.cond35.preheader ]
  %_capacity.i.i154 = phi ptr [ %_capacity.i.i147, %for.cond35.preheader.thread ], [ %_capacity.i.i, %for.cond35.preheader ]
  br label %for.cond35

for.cond35.us:                                    ; preds = %for.cond35.us.backedge, %for.cond35.us.preheader
  %20 = load ptr, ptr %_inByteBack.i, align 8, !tbaa !44
  %call.i112.us = call noundef i64 @_ZN8NArchive3N7z8CInByte210ReadNumberEv(ptr noundef nonnull align 8 dereferenceable(24) %20)
  switch i64 %call.i112.us, label %if.end63.us [
    i64 0, label %cleanup65
    i64 10, label %if.then39.us
  ]

if.then39.us:                                     ; preds = %for.cond35.us
  call void @llvm.lifetime.start.p0(i64 32, ptr nonnull %crcsDefined) #16
  call void @llvm.memset.p0.i64(ptr noundef nonnull align 8 dereferenceable(16) %_capacity.i.i, i8 0, i64 16, i1 false)
  store i64 1, ptr %_itemSize.i.i, align 8, !tbaa !12
  store ptr getelementptr inbounds ({ [5 x ptr] }, ptr @_ZTV13CRecordVectorIbE, i64 0, inrange i32 0, i64 2), ptr %crcsDefined, align 8, !tbaa !13
  call void @llvm.lifetime.start.p0(i64 32, ptr nonnull %crcs) #16
  call void @llvm.memset.p0.i64(ptr noundef nonnull align 8 dereferenceable(16) %_capacity.i.i113, i8 0, i64 16, i1 false)
  store i64 4, ptr %_itemSize.i.i114, align 8, !tbaa !12
  store ptr getelementptr inbounds ({ [5 x ptr] }, ptr @_ZTV13CRecordVectorIjE, i64 0, inrange i32 0, i64 2), ptr %crcs, align 8, !tbaa !13
  invoke void @_ZN8NArchive3N7z10CInArchive15ReadHashDigestsEiR13CRecordVectorIbERS2_IjE(ptr noundef nonnull align 8 dereferenceable(96) %this, i32 noundef %conv.i.i, ptr noundef nonnull align 8 dereferenceable(32) %crcsDefined, ptr noundef nonnull align 8 dereferenceable(32) %crcs)
          to label %for.cond44.preheader.us unwind label %lpad42.split.us

for.body46.us:                                    ; preds = %for.cond44.preheader.us, %for.body46.us
  %i16.1137.us = phi i32 [ %inc57.us.1, %for.body46.us ], [ 0, %for.cond44.preheader.us ]
  %niter181 = phi i32 [ %niter181.next.1, %for.body46.us ], [ 0, %for.cond44.preheader.us ]
  %idxprom.i.i116.us = sext i32 %i16.1137.us to i64
  %arrayidx.i.i117.us = getelementptr inbounds ptr, ptr %30, i64 %idxprom.i.i116.us
  %21 = load ptr, ptr %arrayidx.i.i117.us, align 8, !tbaa !29
  %arrayidx.i120.us = getelementptr inbounds i8, ptr %31, i64 %idxprom.i.i116.us
  %22 = load i8, ptr %arrayidx.i120.us, align 1, !tbaa !16, !range !23, !noundef !24
  %UnpackCRCDefined.us = getelementptr inbounds %"struct.NArchive::N7z::CFolder", ptr %21, i64 0, i32 5
  store i8 %22, ptr %UnpackCRCDefined.us, align 4, !tbaa !97
  %arrayidx.i123.us = getelementptr inbounds i32, ptr %32, i64 %idxprom.i.i116.us
  %23 = load i32, ptr %arrayidx.i123.us, align 4, !tbaa !26
  %UnpackCRC.us = getelementptr inbounds %"struct.NArchive::N7z::CFolder", ptr %21, i64 0, i32 4
  store i32 %23, ptr %UnpackCRC.us, align 8, !tbaa !104
  %inc57.us = or i32 %i16.1137.us, 1
  %idxprom.i.i116.us.1 = sext i32 %inc57.us to i64
  %arrayidx.i.i117.us.1 = getelementptr inbounds ptr, ptr %30, i64 %idxprom.i.i116.us.1
  %24 = load ptr, ptr %arrayidx.i.i117.us.1, align 8, !tbaa !29
  %arrayidx.i120.us.1 = getelementptr inbounds i8, ptr %31, i64 %idxprom.i.i116.us.1
  %25 = load i8, ptr %arrayidx.i120.us.1, align 1, !tbaa !16, !range !23, !noundef !24
  %UnpackCRCDefined.us.1 = getelementptr inbounds %"struct.NArchive::N7z::CFolder", ptr %24, i64 0, i32 5
  store i8 %25, ptr %UnpackCRCDefined.us.1, align 4, !tbaa !97
  %arrayidx.i123.us.1 = getelementptr inbounds i32, ptr %32, i64 %idxprom.i.i116.us.1
  %26 = load i32, ptr %arrayidx.i123.us.1, align 4, !tbaa !26
  %UnpackCRC.us.1 = getelementptr inbounds %"struct.NArchive::N7z::CFolder", ptr %24, i64 0, i32 4
  store i32 %26, ptr %UnpackCRC.us.1, align 8, !tbaa !104
  %inc57.us.1 = add nuw i32 %i16.1137.us, 2
  %niter181.next.1 = add i32 %niter181, 2
  %niter181.ncmp.1 = icmp eq i32 %niter181.next.1, %unroll_iter180
  br i1 %niter181.ncmp.1, label %for.cond44.for.end58_crit_edge.us.unr-lcssa, label %for.body46.us, !llvm.loop !105

if.end63.us:                                      ; preds = %for.cond35.us
  %27 = load ptr, ptr %_inByteBack.i, align 8, !tbaa !44
  %call.i.i125.us = call noundef i64 @_ZN8NArchive3N7z8CInByte210ReadNumberEv(ptr noundef nonnull align 8 dereferenceable(24) %27)
  %_size.i.i.i.us = getelementptr inbounds %"class.NArchive::N7z::CInByte2", ptr %27, i64 0, i32 1
  %28 = load i64, ptr %_size.i.i.i.us, align 8, !tbaa !51
  %_pos.i.i.i.us = getelementptr inbounds %"class.NArchive::N7z::CInByte2", ptr %27, i64 0, i32 2
  %29 = load i64, ptr %_pos.i.i.i.us, align 8, !tbaa !52
  %sub.i.i.i.us = sub i64 %28, %29
  %cmp.i.i.i.us = icmp ult i64 %sub.i.i.i.us, %call.i.i125.us
  br i1 %cmp.i.i.i.us, label %if.then.i.i.i126, label %_ZN8NArchive3N7z10CInArchive8SkipDataEv.exit.us

_ZN8NArchive3N7z10CInArchive8SkipDataEv.exit.us:  ; preds = %if.end63.us
  %add.i.i.i.us = add i64 %29, %call.i.i125.us
  store i64 %add.i.i.i.us, ptr %_pos.i.i.i.us, align 8, !tbaa !52
  br label %for.cond35.us.backedge

for.cond35.us.backedge:                           ; preds = %_ZN8NArchive3N7z10CInArchive8SkipDataEv.exit.us, %for.cond44.for.end58_crit_edge.us
  br label %for.cond35.us

for.cond44.preheader.us:                          ; preds = %if.then39.us
  %30 = load ptr, ptr %_items.i.i115, align 8, !tbaa !15
  %31 = load ptr, ptr %_items.i118, align 8, !tbaa !15
  %32 = load ptr, ptr %_items.i121, align 8, !tbaa !15
  br i1 %19, label %for.cond44.for.end58_crit_edge.us.unr-lcssa, label %for.body46.us

for.cond44.for.end58_crit_edge.us.unr-lcssa:      ; preds = %for.body46.us, %for.cond44.preheader.us
  %i16.1137.us.unr = phi i32 [ 0, %for.cond44.preheader.us ], [ %inc57.us.1, %for.body46.us ]
  br i1 %lcmp.mod179.not, label %for.cond44.for.end58_crit_edge.us, label %for.body46.us.epil

for.body46.us.epil:                               ; preds = %for.cond44.for.end58_crit_edge.us.unr-lcssa
  %idxprom.i.i116.us.epil = sext i32 %i16.1137.us.unr to i64
  %arrayidx.i.i117.us.epil = getelementptr inbounds ptr, ptr %30, i64 %idxprom.i.i116.us.epil
  %33 = load ptr, ptr %arrayidx.i.i117.us.epil, align 8, !tbaa !29
  %arrayidx.i120.us.epil = getelementptr inbounds i8, ptr %31, i64 %idxprom.i.i116.us.epil
  %34 = load i8, ptr %arrayidx.i120.us.epil, align 1, !tbaa !16, !range !23, !noundef !24
  %UnpackCRCDefined.us.epil = getelementptr inbounds %"struct.NArchive::N7z::CFolder", ptr %33, i64 0, i32 5
  store i8 %34, ptr %UnpackCRCDefined.us.epil, align 4, !tbaa !97
  %arrayidx.i123.us.epil = getelementptr inbounds i32, ptr %32, i64 %idxprom.i.i116.us.epil
  %35 = load i32, ptr %arrayidx.i123.us.epil, align 4, !tbaa !26
  %UnpackCRC.us.epil = getelementptr inbounds %"struct.NArchive::N7z::CFolder", ptr %33, i64 0, i32 4
  store i32 %35, ptr %UnpackCRC.us.epil, align 8, !tbaa !104
  br label %for.cond44.for.end58_crit_edge.us

for.cond44.for.end58_crit_edge.us:                ; preds = %for.cond44.for.end58_crit_edge.us.unr-lcssa, %for.body46.us.epil
  call void @_ZN17CBaseRecordVectorD2Ev(ptr noundef nonnull align 8 dereferenceable(32) %crcs) #16
  call void @llvm.lifetime.end.p0(i64 32, ptr nonnull %crcs) #16
  call void @_ZN17CBaseRecordVectorD2Ev(ptr noundef nonnull align 8 dereferenceable(32) %crcsDefined) #16
  call void @llvm.lifetime.end.p0(i64 32, ptr nonnull %crcsDefined) #16
  br label %for.cond35.us.backedge

lpad42.split.us:                                  ; preds = %if.then39.us
  %36 = landingpad { ptr, i32 }
          cleanup
  br label %lpad42

for.body19:                                       ; preds = %for.body19.lr.ph, %for.cond.cleanup24
  %i16.0135 = phi i32 [ 0, %for.body19.lr.ph ], [ %inc33, %for.cond.cleanup24 ]
  %37 = load ptr, ptr %_items.i.i103, align 8, !tbaa !15
  %idxprom.i.i104 = sext i32 %i16.0135 to i64
  %arrayidx.i.i105 = getelementptr inbounds ptr, ptr %37, i64 %idxprom.i.i104
  %38 = load ptr, ptr %arrayidx.i.i105, align 8, !tbaa !29
  %_size.i.i106 = getelementptr inbounds %class.CBaseRecordVector, ptr %38, i64 0, i32 2
  %39 = load i32, ptr %_size.i.i106, align 4, !tbaa !5
  %cmp7.i = icmp sgt i32 %39, 0
  br i1 %cmp7.i, label %for.body.lr.ph.i, label %_ZNK8NArchive3N7z7CFolder16GetNumOutStreamsEv.exit.thread

_ZNK8NArchive3N7z7CFolder16GetNumOutStreamsEv.exit.thread: ; preds = %for.body19
  %UnpackSizes159 = getelementptr inbounds %"struct.NArchive::N7z::CFolder", ptr %38, i64 0, i32 3
  call void @_ZN17CBaseRecordVector7ReserveEi(ptr noundef nonnull align 8 dereferenceable(32) %UnpackSizes159, i32 noundef 0)
  br label %for.cond.cleanup24

for.body.lr.ph.i:                                 ; preds = %for.body19
  %_items.i.i.i107 = getelementptr inbounds %class.CBaseRecordVector, ptr %38, i64 0, i32 3
  %40 = load ptr, ptr %_items.i.i.i107, align 8, !tbaa !15
  %wide.trip.count.i = zext i32 %39 to i64
  %xtraiter = and i64 %wide.trip.count.i, 3
  %41 = icmp ult i32 %39, 4
  br i1 %41, label %_ZNK8NArchive3N7z7CFolder16GetNumOutStreamsEv.exit.unr-lcssa, label %for.body.lr.ph.i.new

for.body.lr.ph.i.new:                             ; preds = %for.body.lr.ph.i
  %unroll_iter = and i64 %wide.trip.count.i, 4294967292
  br label %for.body.i

for.body.i:                                       ; preds = %for.body.i, %for.body.lr.ph.i.new
  %indvars.iv.i = phi i64 [ 0, %for.body.lr.ph.i.new ], [ %indvars.iv.next.i.3, %for.body.i ]
  %result.08.i = phi i32 [ 0, %for.body.lr.ph.i.new ], [ %add.i.3, %for.body.i ]
  %niter = phi i64 [ 0, %for.body.lr.ph.i.new ], [ %niter.next.3, %for.body.i ]
  %arrayidx.i.i.i108 = getelementptr inbounds ptr, ptr %40, i64 %indvars.iv.i
  %42 = load ptr, ptr %arrayidx.i.i.i108, align 8, !tbaa !29
  %NumOutStreams.i = getelementptr inbounds %"struct.NArchive::N7z::CCoderInfo", ptr %42, i64 0, i32 3
  %43 = load i32, ptr %NumOutStreams.i, align 4, !tbaa !34
  %add.i = add i32 %43, %result.08.i
  %indvars.iv.next.i = or i64 %indvars.iv.i, 1
  %arrayidx.i.i.i108.1 = getelementptr inbounds ptr, ptr %40, i64 %indvars.iv.next.i
  %44 = load ptr, ptr %arrayidx.i.i.i108.1, align 8, !tbaa !29
  %NumOutStreams.i.1 = getelementptr inbounds %"struct.NArchive::N7z::CCoderInfo", ptr %44, i64 0, i32 3
  %45 = load i32, ptr %NumOutStreams.i.1, align 4, !tbaa !34
  %add.i.1 = add i32 %45, %add.i
  %indvars.iv.next.i.1 = or i64 %indvars.iv.i, 2
  %arrayidx.i.i.i108.2 = getelementptr inbounds ptr, ptr %40, i64 %indvars.iv.next.i.1
  %46 = load ptr, ptr %arrayidx.i.i.i108.2, align 8, !tbaa !29
  %NumOutStreams.i.2 = getelementptr inbounds %"struct.NArchive::N7z::CCoderInfo", ptr %46, i64 0, i32 3
  %47 = load i32, ptr %NumOutStreams.i.2, align 4, !tbaa !34
  %add.i.2 = add i32 %47, %add.i.1
  %indvars.iv.next.i.2 = or i64 %indvars.iv.i, 3
  %arrayidx.i.i.i108.3 = getelementptr inbounds ptr, ptr %40, i64 %indvars.iv.next.i.2
  %48 = load ptr, ptr %arrayidx.i.i.i108.3, align 8, !tbaa !29
  %NumOutStreams.i.3 = getelementptr inbounds %"struct.NArchive::N7z::CCoderInfo", ptr %48, i64 0, i32 3
  %49 = load i32, ptr %NumOutStreams.i.3, align 4, !tbaa !34
  %add.i.3 = add i32 %49, %add.i.2
  %indvars.iv.next.i.3 = add nuw nsw i64 %indvars.iv.i, 4
  %niter.next.3 = add i64 %niter, 4
  %niter.ncmp.3 = icmp eq i64 %niter.next.3, %unroll_iter
  br i1 %niter.ncmp.3, label %_ZNK8NArchive3N7z7CFolder16GetNumOutStreamsEv.exit.unr-lcssa, label %for.body.i, !llvm.loop !106

_ZNK8NArchive3N7z7CFolder16GetNumOutStreamsEv.exit.unr-lcssa: ; preds = %for.body.i, %for.body.lr.ph.i
  %add.i.lcssa.ph = phi i32 [ undef, %for.body.lr.ph.i ], [ %add.i.3, %for.body.i ]
  %indvars.iv.i.unr = phi i64 [ 0, %for.body.lr.ph.i ], [ %indvars.iv.next.i.3, %for.body.i ]
  %result.08.i.unr = phi i32 [ 0, %for.body.lr.ph.i ], [ %add.i.3, %for.body.i ]
  %lcmp.mod.not = icmp eq i64 %xtraiter, 0
  br i1 %lcmp.mod.not, label %_ZNK8NArchive3N7z7CFolder16GetNumOutStreamsEv.exit, label %for.body.i.epil

for.body.i.epil:                                  ; preds = %_ZNK8NArchive3N7z7CFolder16GetNumOutStreamsEv.exit.unr-lcssa, %for.body.i.epil
  %indvars.iv.i.epil = phi i64 [ %indvars.iv.next.i.epil, %for.body.i.epil ], [ %indvars.iv.i.unr, %_ZNK8NArchive3N7z7CFolder16GetNumOutStreamsEv.exit.unr-lcssa ]
  %result.08.i.epil = phi i32 [ %add.i.epil, %for.body.i.epil ], [ %result.08.i.unr, %_ZNK8NArchive3N7z7CFolder16GetNumOutStreamsEv.exit.unr-lcssa ]
  %epil.iter = phi i64 [ %epil.iter.next, %for.body.i.epil ], [ 0, %_ZNK8NArchive3N7z7CFolder16GetNumOutStreamsEv.exit.unr-lcssa ]
  %arrayidx.i.i.i108.epil = getelementptr inbounds ptr, ptr %40, i64 %indvars.iv.i.epil
  %50 = load ptr, ptr %arrayidx.i.i.i108.epil, align 8, !tbaa !29
  %NumOutStreams.i.epil = getelementptr inbounds %"struct.NArchive::N7z::CCoderInfo", ptr %50, i64 0, i32 3
  %51 = load i32, ptr %NumOutStreams.i.epil, align 4, !tbaa !34
  %add.i.epil = add i32 %51, %result.08.i.epil
  %indvars.iv.next.i.epil = add nuw nsw i64 %indvars.iv.i.epil, 1
  %epil.iter.next = add i64 %epil.iter, 1
  %epil.iter.cmp.not = icmp eq i64 %epil.iter.next, %xtraiter
  br i1 %epil.iter.cmp.not, label %_ZNK8NArchive3N7z7CFolder16GetNumOutStreamsEv.exit, label %for.body.i.epil, !llvm.loop !107

_ZNK8NArchive3N7z7CFolder16GetNumOutStreamsEv.exit: ; preds = %for.body.i.epil, %_ZNK8NArchive3N7z7CFolder16GetNumOutStreamsEv.exit.unr-lcssa
  %add.i.lcssa = phi i32 [ %add.i.lcssa.ph, %_ZNK8NArchive3N7z7CFolder16GetNumOutStreamsEv.exit.unr-lcssa ], [ %add.i.epil, %for.body.i.epil ]
  %UnpackSizes = getelementptr inbounds %"struct.NArchive::N7z::CFolder", ptr %38, i64 0, i32 3
  call void @_ZN17CBaseRecordVector7ReserveEi(ptr noundef nonnull align 8 dereferenceable(32) %UnpackSizes, i32 noundef %add.i.lcssa)
  %cmp23132.not = icmp eq i32 %add.i.lcssa, 0
  br i1 %cmp23132.not, label %for.cond.cleanup24, label %for.body25.lr.ph

for.body25.lr.ph:                                 ; preds = %_ZNK8NArchive3N7z7CFolder16GetNumOutStreamsEv.exit
  %_items.i = getelementptr inbounds %"struct.NArchive::N7z::CFolder", ptr %38, i64 0, i32 3, i32 0, i32 3
  %_size.i110 = getelementptr inbounds %"struct.NArchive::N7z::CFolder", ptr %38, i64 0, i32 3, i32 0, i32 2
  br label %for.body25

for.cond.cleanup24:                               ; preds = %for.body25, %_ZNK8NArchive3N7z7CFolder16GetNumOutStreamsEv.exit.thread, %_ZNK8NArchive3N7z7CFolder16GetNumOutStreamsEv.exit
  %inc33 = add nuw i32 %i16.0135, 1
  %exitcond145.not = icmp eq i32 %inc33, %conv.i.i
  br i1 %exitcond145.not, label %for.cond35.preheader, label %for.body19, !llvm.loop !108

ehcleanup14:                                      ; preds = %lpad6.body, %lpad9, %lpad
  %.pn94.pn = phi { ptr, i32 } [ %8, %lpad ], [ %18, %lpad9 ], [ %eh.lpad-body, %lpad6.body ]
  call void @_ZN8NArchive3N7z13CStreamSwitchD2Ev(ptr noundef nonnull align 8 dereferenceable(9) %streamSwitch) #16
  call void @llvm.lifetime.end.p0(i64 16, ptr nonnull %streamSwitch) #16
  br label %ehcleanup68

for.body25:                                       ; preds = %for.body25.lr.ph, %for.body25
  %j.0133 = phi i32 [ 0, %for.body25.lr.ph ], [ %inc30, %for.body25 ]
  %52 = load ptr, ptr %_inByteBack.i, align 8, !tbaa !44
  %call.i = call noundef i64 @_ZN8NArchive3N7z8CInByte210ReadNumberEv(ptr noundef nonnull align 8 dereferenceable(24) %52)
  call void @_ZN17CBaseRecordVector18ReserveOnePositionEv(ptr noundef nonnull align 8 dereferenceable(32) %UnpackSizes)
  %53 = load ptr, ptr %_items.i, align 8, !tbaa !15
  %54 = load i32, ptr %_size.i110, align 4, !tbaa !5
  %idxprom.i = sext i32 %54 to i64
  %arrayidx.i = getelementptr inbounds i64, ptr %53, i64 %idxprom.i
  store i64 %call.i, ptr %arrayidx.i, align 8, !tbaa !57
  %inc.i = add nsw i32 %54, 1
  store i32 %inc.i, ptr %_size.i110, align 4, !tbaa !5
  %inc30 = add nuw i32 %j.0133, 1
  %exitcond144.not = icmp eq i32 %inc30, %add.i.lcssa
  br i1 %exitcond144.not, label %for.cond.cleanup24, label %for.body25, !llvm.loop !109

for.cond35:                                       ; preds = %for.cond35.backedge, %for.cond35.preheader138
  %55 = load ptr, ptr %_inByteBack.i, align 8, !tbaa !44
  %call.i112 = call noundef i64 @_ZN8NArchive3N7z8CInByte210ReadNumberEv(ptr noundef nonnull align 8 dereferenceable(24) %55)
  switch i64 %call.i112, label %if.end63 [
    i64 0, label %cleanup65
    i64 10, label %if.then39
  ]

if.then39:                                        ; preds = %for.cond35
  call void @llvm.lifetime.start.p0(i64 32, ptr nonnull %crcsDefined) #16
  call void @llvm.memset.p0.i64(ptr noundef nonnull align 8 dereferenceable(16) %_capacity.i.i154, i8 0, i64 16, i1 false)
  store i64 1, ptr %_itemSize.i.i155, align 8, !tbaa !12
  store ptr getelementptr inbounds ({ [5 x ptr] }, ptr @_ZTV13CRecordVectorIbE, i64 0, inrange i32 0, i64 2), ptr %crcsDefined, align 8, !tbaa !13
  call void @llvm.lifetime.start.p0(i64 32, ptr nonnull %crcs) #16
  call void @llvm.memset.p0.i64(ptr noundef nonnull align 8 dereferenceable(16) %_capacity.i.i113156, i8 0, i64 16, i1 false)
  store i64 4, ptr %_itemSize.i.i114157, align 8, !tbaa !12
  store ptr getelementptr inbounds ({ [5 x ptr] }, ptr @_ZTV13CRecordVectorIjE, i64 0, inrange i32 0, i64 2), ptr %crcs, align 8, !tbaa !13
  invoke void @_ZN8NArchive3N7z10CInArchive15ReadHashDigestsEiR13CRecordVectorIbERS2_IjE(ptr noundef nonnull align 8 dereferenceable(96) %this, i32 noundef 0, ptr noundef nonnull align 8 dereferenceable(32) %crcsDefined, ptr noundef nonnull align 8 dereferenceable(32) %crcs)
          to label %for.cond44.preheader unwind label %lpad42.split

for.cond44.preheader:                             ; preds = %if.then39
  call void @_ZN17CBaseRecordVectorD2Ev(ptr noundef nonnull align 8 dereferenceable(32) %crcs) #16
  call void @llvm.lifetime.end.p0(i64 32, ptr nonnull %crcs) #16
  call void @_ZN17CBaseRecordVectorD2Ev(ptr noundef nonnull align 8 dereferenceable(32) %crcsDefined) #16
  call void @llvm.lifetime.end.p0(i64 32, ptr nonnull %crcsDefined) #16
  br label %for.cond35.backedge

lpad42.split:                                     ; preds = %if.then39
  %56 = landingpad { ptr, i32 }
          cleanup
  br label %lpad42

lpad42:                                           ; preds = %lpad42.split.us, %lpad42.split
  %.us-phi = phi { ptr, i32 } [ %56, %lpad42.split ], [ %36, %lpad42.split.us ]
  call void @_ZN17CBaseRecordVectorD2Ev(ptr noundef nonnull align 8 dereferenceable(32) %crcs) #16
  call void @llvm.lifetime.end.p0(i64 32, ptr nonnull %crcs) #16
  call void @_ZN17CBaseRecordVectorD2Ev(ptr noundef nonnull align 8 dereferenceable(32) %crcsDefined) #16
  call void @llvm.lifetime.end.p0(i64 32, ptr nonnull %crcsDefined) #16
  br label %ehcleanup68

if.end63:                                         ; preds = %for.cond35
  %57 = load ptr, ptr %_inByteBack.i, align 8, !tbaa !44
  %call.i.i125 = call noundef i64 @_ZN8NArchive3N7z8CInByte210ReadNumberEv(ptr noundef nonnull align 8 dereferenceable(24) %57)
  %_size.i.i.i = getelementptr inbounds %"class.NArchive::N7z::CInByte2", ptr %57, i64 0, i32 1
  %58 = load i64, ptr %_size.i.i.i, align 8, !tbaa !51
  %_pos.i.i.i = getelementptr inbounds %"class.NArchive::N7z::CInByte2", ptr %57, i64 0, i32 2
  %59 = load i64, ptr %_pos.i.i.i, align 8, !tbaa !52
  %sub.i.i.i = sub i64 %58, %59
  %cmp.i.i.i = icmp ult i64 %sub.i.i.i, %call.i.i125
  br i1 %cmp.i.i.i, label %if.then.i.i.i126, label %_ZN8NArchive3N7z10CInArchive8SkipDataEv.exit

if.then.i.i.i126:                                 ; preds = %if.end63.us, %if.end63
  %exception.i.i.i.i.i = call ptr @__cxa_allocate_exception(i64 1) #16
  call void @__cxa_throw(ptr %exception.i.i.i.i.i, ptr nonnull @_ZTIN8NArchive3N7z19CInArchiveExceptionE, ptr null) #18
  unreachable

_ZN8NArchive3N7z10CInArchive8SkipDataEv.exit:     ; preds = %if.end63
  %add.i.i.i = add i64 %59, %call.i.i125
  store i64 %add.i.i.i, ptr %_pos.i.i.i, align 8, !tbaa !52
  br label %for.cond35.backedge

for.cond35.backedge:                              ; preds = %_ZN8NArchive3N7z10CInArchive8SkipDataEv.exit, %for.cond44.preheader
  br label %for.cond35

cleanup65:                                        ; preds = %for.cond35.us, %for.cond35
  ret void

ehcleanup68:                                      ; preds = %lpad42, %ehcleanup14
  %.pn94.pn.pn = phi { ptr, i32 } [ %.pn94.pn, %ehcleanup14 ], [ %.us-phi, %lpad42 ]
  resume { ptr, i32 } %.pn94.pn.pn
}

; Function Attrs: inlinehint nounwind uwtable
define linkonce_odr dso_local void @_ZN8NArchive3N7z7CFolderD2Ev(ptr noundef nonnull align 8 dereferenceable(133) %this) unnamed_addr #8 comdat align 2 personality ptr @__gxx_personality_v0 {
entry:
  %UnpackSizes = getelementptr inbounds %"struct.NArchive::N7z::CFolder", ptr %this, i64 0, i32 3
  tail call void @_ZN17CBaseRecordVectorD2Ev(ptr noundef nonnull align 8 dereferenceable(32) %UnpackSizes) #16
  %PackStreams = getelementptr inbounds %"struct.NArchive::N7z::CFolder", ptr %this, i64 0, i32 2
  tail call void @_ZN17CBaseRecordVectorD2Ev(ptr noundef nonnull align 8 dereferenceable(32) %PackStreams) #16
  %BindPairs = getelementptr inbounds %"struct.NArchive::N7z::CFolder", ptr %this, i64 0, i32 1
  tail call void @_ZN17CBaseRecordVectorD2Ev(ptr noundef nonnull align 8 dereferenceable(32) %BindPairs) #16
  store ptr getelementptr inbounds ({ [5 x ptr] }, ptr @_ZTV13CObjectVectorIN8NArchive3N7z10CCoderInfoEE, i64 0, inrange i32 0, i64 2), ptr %this, align 8, !tbaa !13
  invoke void @_ZN17CBaseRecordVector5ClearEv(ptr noundef nonnull align 8 dereferenceable(32) %this)
          to label %_ZN13CObjectVectorIN8NArchive3N7z10CCoderInfoEED2Ev.exit unwind label %terminate.lpad.i

terminate.lpad.i:                                 ; preds = %entry
  %0 = landingpad { ptr, i32 }
          catch ptr null
  %1 = extractvalue { ptr, i32 } %0, 0
  tail call void @__clang_call_terminate(ptr %1) #20
  unreachable

_ZN13CObjectVectorIN8NArchive3N7z10CCoderInfoEED2Ev.exit: ; preds = %entry
  tail call void @_ZN17CBaseRecordVectorD2Ev(ptr noundef nonnull align 8 dereferenceable(32) %this) #16
  ret void
}

; Function Attrs: nounwind uwtable
define linkonce_odr dso_local void @_ZN8NArchive3N7z13CStreamSwitchD2Ev(ptr noundef nonnull align 8 dereferenceable(9) %this) unnamed_addr #6 comdat align 2 personality ptr @__gxx_personality_v0 {
entry:
  %_needRemove.i = getelementptr inbounds %"class.NArchive::N7z::CStreamSwitch", ptr %this, i64 0, i32 1
  %0 = load i8, ptr %_needRemove.i, align 8, !tbaa !41, !range !23, !noundef !24
  %tobool.not.i = icmp eq i8 %0, 0
  br i1 %tobool.not.i, label %invoke.cont, label %if.then.i

if.then.i:                                        ; preds = %entry
  %1 = load ptr, ptr %this, align 8, !tbaa !43
  %_inByteVector.i.i = getelementptr inbounds %"class.NArchive::N7z::CInArchive", ptr %1, i64 0, i32 1
  invoke void @_ZN17CBaseRecordVector10DeleteBackEv(ptr noundef nonnull align 8 dereferenceable(32) %_inByteVector.i.i)
          to label %.noexc unwind label %terminate.lpad

.noexc:                                           ; preds = %if.then.i
  %_size.i.i.i = getelementptr inbounds %"class.NArchive::N7z::CInArchive", ptr %1, i64 0, i32 1, i32 0, i32 0, i32 2
  %2 = load i32, ptr %_size.i.i.i, align 4, !tbaa !5
  %cmp.i.i.i = icmp eq i32 %2, 0
  br i1 %cmp.i.i.i, label %_ZN8NArchive3N7z10CInArchive16DeleteByteStreamEv.exit.i, label %if.then.i.i

if.then.i.i:                                      ; preds = %.noexc
  %sub.i.i.i = add nsw i32 %2, -1
  %_items.i.i.i.i.i = getelementptr inbounds %"class.NArchive::N7z::CInArchive", ptr %1, i64 0, i32 1, i32 0, i32 0, i32 3
  %3 = load ptr, ptr %_items.i.i.i.i.i, align 8, !tbaa !15
  %idxprom.i.i.i.i.i = sext i32 %sub.i.i.i to i64
  %arrayidx.i.i.i.i.i = getelementptr inbounds ptr, ptr %3, i64 %idxprom.i.i.i.i.i
  %4 = load ptr, ptr %arrayidx.i.i.i.i.i, align 8, !tbaa !29
  %_inByteBack.i.i = getelementptr inbounds %"class.NArchive::N7z::CInArchive", ptr %1, i64 0, i32 2
  store ptr %4, ptr %_inByteBack.i.i, align 8, !tbaa !44
  br label %_ZN8NArchive3N7z10CInArchive16DeleteByteStreamEv.exit.i

_ZN8NArchive3N7z10CInArchive16DeleteByteStreamEv.exit.i: ; preds = %if.then.i.i, %.noexc
  store i8 0, ptr %_needRemove.i, align 8, !tbaa !41
  br label %invoke.cont

invoke.cont:                                      ; preds = %_ZN8NArchive3N7z10CInArchive16DeleteByteStreamEv.exit.i, %entry
  ret void

terminate.lpad:                                   ; preds = %if.then.i
  %5 = landingpad { ptr, i32 }
          catch ptr null
  %6 = extractvalue { ptr, i32 } %5, 0
  tail call void @__clang_call_terminate(ptr %6) #20
  unreachable
}

; Function Attrs: uwtable
define dso_local void @_ZN8NArchive3N7z10CInArchive18ReadSubStreamsInfoERK13CObjectVectorINS0_7CFolderEER13CRecordVectorIjERS7_IyERS7_IbES9_(ptr nocapture noundef nonnull readonly align 8 dereferenceable(96) %this, ptr nocapture noundef nonnull readonly align 8 dereferenceable(32) %folders, ptr noundef nonnull align 8 dereferenceable(32) %numUnpackStreamsInFolders, ptr noundef nonnull align 8 dereferenceable(32) %unpackSizes, ptr noundef nonnull align 8 dereferenceable(32) %digestsDefined, ptr noundef nonnull align 8 dereferenceable(32) %digests) local_unnamed_addr #0 align 2 personality ptr @__gxx_personality_v0 {
entry:
  %digestsDefined2 = alloca %class.CRecordVector.3, align 8
  %digests2 = alloca %class.CRecordVector.1, align 8
  tail call void @_ZN17CBaseRecordVector5ClearEv(ptr noundef nonnull align 8 dereferenceable(32) %numUnpackStreamsInFolders)
  %_size.i = getelementptr inbounds %class.CBaseRecordVector, ptr %folders, i64 0, i32 2
  %0 = load i32, ptr %_size.i, align 4, !tbaa !5
  tail call void @_ZN17CBaseRecordVector7ReserveEi(ptr noundef nonnull align 8 dereferenceable(32) %numUnpackStreamsInFolders, i32 noundef %0)
  %_inByteBack.i = getelementptr inbounds %"class.NArchive::N7z::CInArchive", ptr %this, i64 0, i32 2
  %_items.i = getelementptr inbounds %class.CBaseRecordVector, ptr %numUnpackStreamsInFolders, i64 0, i32 3
  %_size.i223 = getelementptr inbounds %class.CBaseRecordVector, ptr %numUnpackStreamsInFolders, i64 0, i32 2
  br label %for.cond

for.cond:                                         ; preds = %for.cond.backedge, %entry
  %1 = load ptr, ptr %_inByteBack.i, align 8, !tbaa !44
  %call.i = tail call noundef i64 @_ZN8NArchive3N7z8CInByte210ReadNumberEv(ptr noundef nonnull align 8 dereferenceable(24) %1)
  switch i64 %call.i, label %if.end14 [
    i64 13, label %for.cond3.preheader
    i64 10, label %for.end15
    i64 9, label %for.end15
    i64 0, label %for.end15
  ]

for.cond3.preheader:                              ; preds = %for.cond
  %2 = load i32, ptr %_size.i, align 4, !tbaa !5
  %cmp5336 = icmp sgt i32 %2, 0
  br i1 %cmp5336, label %for.body, label %for.cond.backedge, !llvm.loop !110

for.body:                                         ; preds = %for.cond3.preheader, %_ZN8NArchive3N7z10CInArchive7ReadNumEv.exit
  %i.0337 = phi i32 [ %inc, %_ZN8NArchive3N7z10CInArchive7ReadNumEv.exit ], [ 0, %for.cond3.preheader ]
  %3 = load ptr, ptr %_inByteBack.i, align 8, !tbaa !44
  %call.i.i = tail call noundef i64 @_ZN8NArchive3N7z8CInByte210ReadNumberEv(ptr noundef nonnull align 8 dereferenceable(24) %3)
  %cmp.i.i = icmp ugt i64 %call.i.i, 2147483647
  br i1 %cmp.i.i, label %if.then.i.i, label %_ZN8NArchive3N7z10CInArchive7ReadNumEv.exit

if.then.i.i:                                      ; preds = %for.body
  %exception.i.i.i.i = tail call ptr @__cxa_allocate_exception(i64 1) #16
  tail call void @__cxa_throw(ptr %exception.i.i.i.i, ptr nonnull @_ZTIN8NArchive3N7z19CInArchiveExceptionE, ptr null) #18
  unreachable

_ZN8NArchive3N7z10CInArchive7ReadNumEv.exit:      ; preds = %for.body
  %conv.i.i = trunc i64 %call.i.i to i32
  tail call void @_ZN17CBaseRecordVector18ReserveOnePositionEv(ptr noundef nonnull align 8 dereferenceable(32) %numUnpackStreamsInFolders)
  %4 = load ptr, ptr %_items.i, align 8, !tbaa !15
  %5 = load i32, ptr %_size.i223, align 4, !tbaa !5
  %idxprom.i = sext i32 %5 to i64
  %arrayidx.i = getelementptr inbounds i32, ptr %4, i64 %idxprom.i
  store i32 %conv.i.i, ptr %arrayidx.i, align 4, !tbaa !26
  %6 = load i32, ptr %_size.i223, align 4, !tbaa !5
  %inc.i = add nsw i32 %6, 1
  store i32 %inc.i, ptr %_size.i223, align 4, !tbaa !5
  %inc = add nuw nsw i32 %i.0337, 1
  %7 = load i32, ptr %_size.i, align 4, !tbaa !5
  %cmp5 = icmp slt i32 %inc, %7
  br i1 %cmp5, label %for.body, label %for.cond.backedge, !llvm.loop !111

if.end14:                                         ; preds = %for.cond
  %8 = load ptr, ptr %_inByteBack.i, align 8, !tbaa !44
  %call.i.i225 = tail call noundef i64 @_ZN8NArchive3N7z8CInByte210ReadNumberEv(ptr noundef nonnull align 8 dereferenceable(24) %8)
  %_size.i.i.i = getelementptr inbounds %"class.NArchive::N7z::CInByte2", ptr %8, i64 0, i32 1
  %9 = load i64, ptr %_size.i.i.i, align 8, !tbaa !51
  %_pos.i.i.i = getelementptr inbounds %"class.NArchive::N7z::CInByte2", ptr %8, i64 0, i32 2
  %10 = load i64, ptr %_pos.i.i.i, align 8, !tbaa !52
  %sub.i.i.i = sub i64 %9, %10
  %cmp.i.i.i = icmp ult i64 %sub.i.i.i, %call.i.i225
  br i1 %cmp.i.i.i, label %if.then.i.i.i, label %_ZN8NArchive3N7z10CInArchive8SkipDataEv.exit

if.then.i.i.i:                                    ; preds = %if.end14
  %exception.i.i.i.i.i = tail call ptr @__cxa_allocate_exception(i64 1) #16
  tail call void @__cxa_throw(ptr %exception.i.i.i.i.i, ptr nonnull @_ZTIN8NArchive3N7z19CInArchiveExceptionE, ptr null) #18
  unreachable

_ZN8NArchive3N7z10CInArchive8SkipDataEv.exit:     ; preds = %if.end14
  %add.i.i.i = add i64 %10, %call.i.i225
  store i64 %add.i.i.i, ptr %_pos.i.i.i, align 8, !tbaa !52
  br label %for.cond.backedge

for.cond.backedge:                                ; preds = %_ZN8NArchive3N7z10CInArchive7ReadNumEv.exit, %for.cond3.preheader, %_ZN8NArchive3N7z10CInArchive8SkipDataEv.exit
  br label %for.cond, !llvm.loop !110

for.end15:                                        ; preds = %for.cond, %for.cond, %for.cond
  %cmp9.le = icmp eq i64 %call.i, 9
  %11 = load i32, ptr %_size.i223, align 4, !tbaa !5
  %cmp.i = icmp eq i32 %11, 0
  %12 = load i32, ptr %_size.i, align 4
  %cmp21339 = icmp sgt i32 %12, 0
  %or.cond360 = select i1 %cmp.i, i1 %cmp21339, i1 false
  br i1 %or.cond360, label %for.body23, label %if.end28

for.body23:                                       ; preds = %for.end15, %for.body23
  %i18.0340 = phi i32 [ %inc26, %for.body23 ], [ 0, %for.end15 ]
  tail call void @_ZN17CBaseRecordVector18ReserveOnePositionEv(ptr noundef nonnull align 8 dereferenceable(32) %numUnpackStreamsInFolders)
  %13 = load ptr, ptr %_items.i, align 8, !tbaa !15
  %14 = load i32, ptr %_size.i223, align 4, !tbaa !5
  %idxprom.i230 = sext i32 %14 to i64
  %arrayidx.i231 = getelementptr inbounds i32, ptr %13, i64 %idxprom.i230
  store i32 1, ptr %arrayidx.i231, align 4, !tbaa !26
  %15 = load i32, ptr %_size.i223, align 4, !tbaa !5
  %inc.i232 = add nsw i32 %15, 1
  store i32 %inc.i232, ptr %_size.i223, align 4, !tbaa !5
  %inc26 = add nuw nsw i32 %i18.0340, 1
  %16 = load i32, ptr %_size.i, align 4, !tbaa !5
  %cmp21 = icmp slt i32 %inc26, %16
  br i1 %cmp21, label %for.body23, label %if.end28, !llvm.loop !112

if.end28:                                         ; preds = %for.body23, %for.end15
  %17 = phi i32 [ %11, %for.end15 ], [ %inc.i232, %for.body23 ]
  %cmp32344 = icmp sgt i32 %17, 0
  br i1 %cmp32344, label %for.body33.lr.ph, label %for.end55

for.body33.lr.ph:                                 ; preds = %if.end28
  %_items.i250 = getelementptr inbounds %class.CBaseRecordVector, ptr %unpackSizes, i64 0, i32 3
  %_size.i251 = getelementptr inbounds %class.CBaseRecordVector, ptr %unpackSizes, i64 0, i32 2
  %_items.i.i = getelementptr inbounds %class.CBaseRecordVector, ptr %folders, i64 0, i32 3
  br label %for.body33

for.body33:                                       ; preds = %for.body33.lr.ph, %cleanup
  %18 = phi i32 [ %17, %for.body33.lr.ph ], [ %35, %cleanup ]
  %indvars.iv = phi i64 [ 0, %for.body33.lr.ph ], [ %indvars.iv.next, %cleanup ]
  %19 = load ptr, ptr %_items.i, align 8, !tbaa !15
  %arrayidx.i236 = getelementptr inbounds i32, ptr %19, i64 %indvars.iv
  %20 = load i32, ptr %arrayidx.i236, align 4, !tbaa !26
  switch i32 %20, label %for.body41.lr.ph [
    i32 0, label %cleanup
    i32 1, label %for.cond.cleanup40
  ]

for.body41.lr.ph:                                 ; preds = %for.body33
  br i1 %cmp9.le, label %for.body41.us, label %for.cond.cleanup40

for.body41.us:                                    ; preds = %for.body41.lr.ph, %for.body41.us
  %j.0343.us = phi i32 [ %inc48.us, %for.body41.us ], [ 1, %for.body41.lr.ph ]
  %sum.0342.us = phi i64 [ %add.us, %for.body41.us ], [ 0, %for.body41.lr.ph ]
  %21 = load ptr, ptr %_inByteBack.i, align 8, !tbaa !44
  %call.i249.us = tail call noundef i64 @_ZN8NArchive3N7z8CInByte210ReadNumberEv(ptr noundef nonnull align 8 dereferenceable(24) %21)
  tail call void @_ZN17CBaseRecordVector18ReserveOnePositionEv(ptr noundef nonnull align 8 dereferenceable(32) %unpackSizes)
  %22 = load ptr, ptr %_items.i250, align 8, !tbaa !15
  %23 = load i32, ptr %_size.i251, align 4, !tbaa !5
  %idxprom.i252.us = sext i32 %23 to i64
  %arrayidx.i253.us = getelementptr inbounds i64, ptr %22, i64 %idxprom.i252.us
  store i64 %call.i249.us, ptr %arrayidx.i253.us, align 8, !tbaa !57
  %inc.i254.us = add nsw i32 %23, 1
  store i32 %inc.i254.us, ptr %_size.i251, align 4, !tbaa !5
  %add.us = add i64 %call.i249.us, %sum.0342.us
  %inc48.us = add nuw i32 %j.0343.us, 1
  %exitcond.not = icmp eq i32 %inc48.us, %20
  br i1 %exitcond.not, label %for.cond.cleanup40, label %for.body41.us, !llvm.loop !113

for.cond.cleanup40:                               ; preds = %for.body41.us, %for.body33, %for.body41.lr.ph
  %sum.0.lcssa = phi i64 [ 0, %for.body41.lr.ph ], [ 0, %for.body33 ], [ %add.us, %for.body41.us ]
  %24 = load ptr, ptr %_items.i.i, align 8, !tbaa !15
  %arrayidx.i.i = getelementptr inbounds ptr, ptr %24, i64 %indvars.iv
  %25 = load ptr, ptr %arrayidx.i.i, align 8, !tbaa !29
  %_size.i.i = getelementptr inbounds %"struct.NArchive::N7z::CFolder", ptr %25, i64 0, i32 3, i32 0, i32 2
  %26 = load i32, ptr %_size.i.i, align 4, !tbaa !5
  %cmp.i.i237 = icmp eq i32 %26, 0
  br i1 %cmp.i.i237, label %_ZNK8NArchive3N7z7CFolder13GetUnpackSizeEv.exit, label %for.cond.preheader.i

for.cond.preheader.i:                             ; preds = %for.cond.cleanup40
  %_size.i.i.i238 = getelementptr inbounds %"struct.NArchive::N7z::CFolder", ptr %25, i64 0, i32 1, i32 0, i32 2
  %27 = load i32, ptr %_size.i.i.i238, align 4
  %.fr.i = freeze i32 %27
  %cmp.not8.i.i = icmp sgt i32 %.fr.i, 0
  %_items.i.i.i = getelementptr inbounds %"struct.NArchive::N7z::CFolder", ptr %25, i64 0, i32 1, i32 0, i32 3
  %28 = load ptr, ptr %_items.i.i.i, align 8
  %wide.trip.count.i.i = zext i32 %.fr.i to i64
  br i1 %cmp.not8.i.i, label %for.cond.us.i, label %for.cond.i

for.cond.us.i:                                    ; preds = %for.cond.preheader.i, %_ZNK8NArchive3N7z7CFolder24FindBindPairForOutStreamEj.exit.us.i
  %i.0.in.us.i = phi i32 [ %i.0.us.i, %_ZNK8NArchive3N7z7CFolder24FindBindPairForOutStreamEj.exit.us.i ], [ %26, %for.cond.preheader.i ]
  %i.0.us.i = add nsw i32 %i.0.in.us.i, -1
  %cmp.us.i = icmp sgt i32 %i.0.in.us.i, 0
  br i1 %cmp.us.i, label %for.body.i.us.i, label %for.end.i

for.body.i.us.i:                                  ; preds = %for.cond.us.i, %for.inc.i.us.i
  %indvars.iv.i.us.i = phi i64 [ %indvars.iv.next.i.us.i, %for.inc.i.us.i ], [ 0, %for.cond.us.i ]
  %OutIndex.i.us.i = getelementptr inbounds %"struct.NArchive::N7z::CBindPair", ptr %28, i64 %indvars.iv.i.us.i, i32 1
  %29 = load i32, ptr %OutIndex.i.us.i, align 4, !tbaa !28
  %cmp4.i.us.i = icmp eq i32 %29, %i.0.us.i
  br i1 %cmp4.i.us.i, label %_ZNK8NArchive3N7z7CFolder24FindBindPairForOutStreamEj.exit.us.i, label %for.inc.i.us.i

for.inc.i.us.i:                                   ; preds = %for.body.i.us.i
  %indvars.iv.next.i.us.i = add nuw nsw i64 %indvars.iv.i.us.i, 1
  %exitcond.not.i.us.i = icmp eq i64 %indvars.iv.next.i.us.i, %wide.trip.count.i.i
  br i1 %exitcond.not.i.us.i, label %cleanup.i, label %for.body.i.us.i, !llvm.loop !114

_ZNK8NArchive3N7z7CFolder24FindBindPairForOutStreamEj.exit.us.i: ; preds = %for.body.i.us.i
  %30 = and i64 %indvars.iv.i.us.i, 2147483648
  %cmp5.not.us.i = icmp eq i64 %30, 0
  br i1 %cmp5.not.us.i, label %for.cond.us.i, label %cleanup.i, !llvm.loop !115

for.cond.i:                                       ; preds = %for.cond.preheader.i
  %i.0.i = add nsw i32 %26, -1
  %cmp.i239 = icmp sgt i32 %26, 0
  br i1 %cmp.i239, label %cleanup.i, label %for.end.i

cleanup.i:                                        ; preds = %_ZNK8NArchive3N7z7CFolder24FindBindPairForOutStreamEj.exit.us.i, %for.inc.i.us.i, %for.cond.i
  %i.024.i = phi i32 [ %i.0.i, %for.cond.i ], [ %i.0.us.i, %for.inc.i.us.i ], [ %i.0.us.i, %_ZNK8NArchive3N7z7CFolder24FindBindPairForOutStreamEj.exit.us.i ]
  %_items.i.i240 = getelementptr inbounds %"struct.NArchive::N7z::CFolder", ptr %25, i64 0, i32 3, i32 0, i32 3
  %31 = load ptr, ptr %_items.i.i240, align 8, !tbaa !15
  %idxprom.i.i241 = sext i32 %i.024.i to i64
  %arrayidx.i.i242 = getelementptr inbounds i64, ptr %31, i64 %idxprom.i.i241
  %32 = load i64, ptr %arrayidx.i.i242, align 8, !tbaa !57
  br label %_ZNK8NArchive3N7z7CFolder13GetUnpackSizeEv.exit

for.end.i:                                        ; preds = %for.cond.i, %for.cond.us.i
  %exception.i = tail call ptr @__cxa_allocate_exception(i64 4) #16
  store i32 1, ptr %exception.i, align 16, !tbaa !26
  tail call void @__cxa_throw(ptr nonnull %exception.i, ptr nonnull @_ZTIi, ptr null) #18
  unreachable

_ZNK8NArchive3N7z7CFolder13GetUnpackSizeEv.exit:  ; preds = %for.cond.cleanup40, %cleanup.i
  %retval.1.i = phi i64 [ %32, %cleanup.i ], [ 0, %for.cond.cleanup40 ]
  %sub = sub i64 %retval.1.i, %sum.0.lcssa
  tail call void @_ZN17CBaseRecordVector18ReserveOnePositionEv(ptr noundef nonnull align 8 dereferenceable(32) %unpackSizes)
  %33 = load ptr, ptr %_items.i250, align 8, !tbaa !15
  %34 = load i32, ptr %_size.i251, align 4, !tbaa !5
  %idxprom.i245 = sext i32 %34 to i64
  %arrayidx.i246 = getelementptr inbounds i64, ptr %33, i64 %idxprom.i245
  store i64 %sub, ptr %arrayidx.i246, align 8, !tbaa !57
  %inc.i247 = add nsw i32 %34, 1
  store i32 %inc.i247, ptr %_size.i251, align 4, !tbaa !5
  %.pre = load i32, ptr %_size.i223, align 4, !tbaa !5
  br label %cleanup

cleanup:                                          ; preds = %for.body33, %_ZNK8NArchive3N7z7CFolder13GetUnpackSizeEv.exit
  %35 = phi i32 [ %18, %for.body33 ], [ %.pre, %_ZNK8NArchive3N7z7CFolder13GetUnpackSizeEv.exit ]
  %indvars.iv.next = add nuw nsw i64 %indvars.iv, 1
  %36 = sext i32 %35 to i64
  %cmp32 = icmp slt i64 %indvars.iv.next, %36
  br i1 %cmp32, label %for.body33, label %for.end55, !llvm.loop !116

for.end55:                                        ; preds = %cleanup, %if.end28
  br i1 %cmp9.le, label %if.then57, label %if.end59

if.then57:                                        ; preds = %for.end55
  %37 = load ptr, ptr %_inByteBack.i, align 8, !tbaa !44
  %call.i256 = tail call noundef i64 @_ZN8NArchive3N7z8CInByte210ReadNumberEv(ptr noundef nonnull align 8 dereferenceable(24) %37)
  br label %if.end59

if.end59:                                         ; preds = %if.then57, %for.end55
  %type.0 = phi i64 [ %call.i256, %if.then57 ], [ %call.i, %for.end55 ]
  %38 = load i32, ptr %_size.i, align 4, !tbaa !5
  %cmp62346 = icmp sgt i32 %38, 0
  br i1 %cmp62346, label %for.body63.lr.ph, label %for.cond76.preheader

for.body63.lr.ph:                                 ; preds = %if.end59
  %39 = load ptr, ptr %_items.i, align 8, !tbaa !15
  %_items.i.i261 = getelementptr inbounds %class.CBaseRecordVector, ptr %folders, i64 0, i32 3
  %40 = load ptr, ptr %_items.i.i261, align 8
  %wide.trip.count = zext i32 %38 to i64
  %xtraiter = and i64 %wide.trip.count, 1
  %41 = icmp eq i32 %38, 1
  br i1 %41, label %for.cond76.preheader.loopexit.unr-lcssa, label %for.body63.lr.ph.new

for.body63.lr.ph.new:                             ; preds = %for.body63.lr.ph
  %unroll_iter = and i64 %wide.trip.count, 4294967294
  br label %for.body63

for.cond76.preheader.loopexit.unr-lcssa:          ; preds = %if.end71.1, %for.body63.lr.ph
  %numDigests.1.lcssa.ph = phi i32 [ undef, %for.body63.lr.ph ], [ %numDigests.1.1, %if.end71.1 ]
  %add72.lcssa.ph = phi i32 [ undef, %for.body63.lr.ph ], [ %add72.1, %if.end71.1 ]
  %indvars.iv370.unr = phi i64 [ 0, %for.body63.lr.ph ], [ %indvars.iv.next371.1, %if.end71.1 ]
  %numDigestsTotal.0349.unr = phi i32 [ 0, %for.body63.lr.ph ], [ %add72.1, %if.end71.1 ]
  %numDigests.0348.unr = phi i32 [ 0, %for.body63.lr.ph ], [ %numDigests.1.1, %if.end71.1 ]
  %lcmp.mod.not = icmp eq i64 %xtraiter, 0
  br i1 %lcmp.mod.not, label %for.cond76.preheader, label %for.body63.epil

for.body63.epil:                                  ; preds = %for.cond76.preheader.loopexit.unr-lcssa
  %arrayidx.i260.epil = getelementptr inbounds i32, ptr %39, i64 %indvars.iv370.unr
  %42 = load i32, ptr %arrayidx.i260.epil, align 4, !tbaa !26
  %cmp66.not.epil = icmp eq i32 %42, 1
  br i1 %cmp66.not.epil, label %lor.lhs.false67.epil, label %if.then69.epil

lor.lhs.false67.epil:                             ; preds = %for.body63.epil
  %arrayidx.i.i263.epil = getelementptr inbounds ptr, ptr %40, i64 %indvars.iv370.unr
  %43 = load ptr, ptr %arrayidx.i.i263.epil, align 8, !tbaa !29
  %UnpackCRCDefined.epil = getelementptr inbounds %"struct.NArchive::N7z::CFolder", ptr %43, i64 0, i32 5
  %44 = load i8, ptr %UnpackCRCDefined.epil, align 4, !tbaa !97, !range !23, !noundef !24
  %tobool.not.epil = icmp eq i8 %44, 0
  br i1 %tobool.not.epil, label %if.then69.epil, label %if.end71.epil

if.then69.epil:                                   ; preds = %lor.lhs.false67.epil, %for.body63.epil
  %add70.epil = add i32 %42, %numDigests.0348.unr
  br label %if.end71.epil

if.end71.epil:                                    ; preds = %if.then69.epil, %lor.lhs.false67.epil
  %numDigests.1.epil = phi i32 [ %add70.epil, %if.then69.epil ], [ %numDigests.0348.unr, %lor.lhs.false67.epil ]
  %add72.epil = add i32 %42, %numDigestsTotal.0349.unr
  br label %for.cond76.preheader

for.cond76.preheader:                             ; preds = %if.end71.epil, %for.cond76.preheader.loopexit.unr-lcssa, %if.end59
  %numDigests.0.lcssa = phi i32 [ 0, %if.end59 ], [ %numDigests.1.lcssa.ph, %for.cond76.preheader.loopexit.unr-lcssa ], [ %numDigests.1.epil, %if.end71.epil ]
  %numDigestsTotal.0.lcssa = phi i32 [ 0, %if.end59 ], [ %add72.lcssa.ph, %for.cond76.preheader.loopexit.unr-lcssa ], [ %add72.epil, %if.end71.epil ]
  %_capacity.i.i = getelementptr inbounds %class.CBaseRecordVector, ptr %digestsDefined2, i64 0, i32 1
  %_itemSize.i.i = getelementptr inbounds %class.CBaseRecordVector, ptr %digestsDefined2, i64 0, i32 4
  %_capacity.i.i264 = getelementptr inbounds %class.CBaseRecordVector, ptr %digests2, i64 0, i32 1
  %_itemSize.i.i265 = getelementptr inbounds %class.CBaseRecordVector, ptr %digests2, i64 0, i32 4
  %_items.i.i270 = getelementptr inbounds %class.CBaseRecordVector, ptr %folders, i64 0, i32 3
  %_items.i273 = getelementptr inbounds %class.CBaseRecordVector, ptr %digestsDefined, i64 0, i32 3
  %_size.i274 = getelementptr inbounds %class.CBaseRecordVector, ptr %digestsDefined, i64 0, i32 2
  %_items.i278 = getelementptr inbounds %class.CBaseRecordVector, ptr %digests, i64 0, i32 3
  %_size.i279 = getelementptr inbounds %class.CBaseRecordVector, ptr %digests, i64 0, i32 2
  %_items.i283 = getelementptr inbounds %class.CBaseRecordVector, ptr %digestsDefined2, i64 0, i32 3
  %_items.i292 = getelementptr inbounds %class.CBaseRecordVector, ptr %digests2, i64 0, i32 3
  br label %for.cond76

for.body63:                                       ; preds = %if.end71.1, %for.body63.lr.ph.new
  %indvars.iv370 = phi i64 [ 0, %for.body63.lr.ph.new ], [ %indvars.iv.next371.1, %if.end71.1 ]
  %numDigestsTotal.0349 = phi i32 [ 0, %for.body63.lr.ph.new ], [ %add72.1, %if.end71.1 ]
  %numDigests.0348 = phi i32 [ 0, %for.body63.lr.ph.new ], [ %numDigests.1.1, %if.end71.1 ]
  %niter = phi i64 [ 0, %for.body63.lr.ph.new ], [ %niter.next.1, %if.end71.1 ]
  %arrayidx.i260 = getelementptr inbounds i32, ptr %39, i64 %indvars.iv370
  %45 = load i32, ptr %arrayidx.i260, align 4, !tbaa !26
  %cmp66.not = icmp eq i32 %45, 1
  br i1 %cmp66.not, label %lor.lhs.false67, label %if.then69

lor.lhs.false67:                                  ; preds = %for.body63
  %arrayidx.i.i263 = getelementptr inbounds ptr, ptr %40, i64 %indvars.iv370
  %46 = load ptr, ptr %arrayidx.i.i263, align 8, !tbaa !29
  %UnpackCRCDefined = getelementptr inbounds %"struct.NArchive::N7z::CFolder", ptr %46, i64 0, i32 5
  %47 = load i8, ptr %UnpackCRCDefined, align 4, !tbaa !97, !range !23, !noundef !24
  %tobool.not = icmp eq i8 %47, 0
  br i1 %tobool.not, label %if.then69, label %if.end71

if.then69:                                        ; preds = %lor.lhs.false67, %for.body63
  %add70 = add i32 %45, %numDigests.0348
  br label %if.end71

if.end71:                                         ; preds = %if.then69, %lor.lhs.false67
  %numDigests.1 = phi i32 [ %add70, %if.then69 ], [ %numDigests.0348, %lor.lhs.false67 ]
  %add72 = add i32 %45, %numDigestsTotal.0349
  %indvars.iv.next371 = or i64 %indvars.iv370, 1
  %arrayidx.i260.1 = getelementptr inbounds i32, ptr %39, i64 %indvars.iv.next371
  %48 = load i32, ptr %arrayidx.i260.1, align 4, !tbaa !26
  %cmp66.not.1 = icmp eq i32 %48, 1
  br i1 %cmp66.not.1, label %lor.lhs.false67.1, label %if.then69.1

lor.lhs.false67.1:                                ; preds = %if.end71
