; ModuleID = '/usr/local/google/home/aeubanks/repos/test-suite/MultiSource/Applications/kimwitu++/gutil.cc'
source_filename = "/usr/local/google/home/aeubanks/repos/test-suite/MultiSource/Applications/kimwitu++/gutil.cc"
target datalayout = "e-m:e-p270:32:32-p271:32:32-p272:64:64-i64:64-f80:128-n8:16:32:64-S128"
target triple = "x86_64-unknown-linux-gnu"

%"struct.kc::base_rview_class" = type { %"class.kc::rview_class" }
%"class.kc::rview_class" = type { i32 }
%"class.kc::impl_Ccode_option_CcodeOption" = type { %"class.kc::impl_Ccode_option", ptr, ptr }
%"class.kc::impl_Ccode_option" = type { %"class.kc::impl_abstract_phylum" }
%"class.kc::impl_abstract_phylum" = type { ptr }
%"class.kc::impl_attributes" = type { %"class.kc::impl_abstract_list", ptr, ptr }
%"class.kc::impl_abstract_list" = type { %"class.kc::impl_abstract_phylum" }
%"class.kc::impl_attribute_Attribute" = type { %"class.kc::impl_attribute", ptr, ptr, ptr }
%"class.kc::impl_attribute" = type { %"class.kc::impl_abstract_phylum" }
%"class.kc::impl_alternative" = type { %"class.kc::impl_abstract_phylum", ptr, ptr, ptr, ptr }
%"class.kc::impl_fndeclarations" = type { %"class.kc::impl_abstract_list", ptr, ptr }
%"class.kc::impl_fndeclaration_FnAcDeclaration" = type { %"class.kc::impl_fndeclaration.base", ptr, ptr, ptr, ptr, ptr, ptr, ptr }
%"class.kc::impl_fndeclaration.base" = type <{ %"class.kc::impl_abstract_phylum", ptr, i32, [4 x i8], ptr, i8 }>
%"class.kc::impl_phylumdeclaration" = type { %"class.kc::impl_abstract_phylum", i32, ptr, ptr }
%"class.kc::impl_ac_parameter_type_list_AcParList" = type { %"class.kc::impl_ac_parameter_type_list", ptr }
%"class.kc::impl_ac_parameter_type_list" = type { %"class.kc::impl_abstract_phylum" }
%"class.kc::impl_ac_declarator_AcDeclarator" = type { %"class.kc::impl_ac_declarator", ptr, ptr, ptr }
%"class.kc::impl_ac_declarator" = type { %"class.kc::impl_abstract_phylum" }
%"class.kc::impl_ac_direct_declarator_AcQualifiedDeclProto" = type { %"class.kc::impl_ac_direct_declarator", ptr, ptr, ptr, ptr }
%"class.kc::impl_ac_direct_declarator" = type { %"class.kc::impl_abstract_phylum" }
%"class.kc::impl_ac_direct_declarator_AcDirectDeclId" = type { %"class.kc::impl_ac_direct_declarator", ptr }
%"class.kc::impl_ID_Id" = type { %"class.kc::impl_ID", ptr }
%"class.kc::impl_ID" = type { %"class.kc::impl_abstract_phylum", ptr, ptr, i32, ptr }
%"class.kc::impl_uniqID_Str" = type { %"class.kc::impl_uniqID", ptr }
%"class.kc::impl_uniqID" = type { %"class.kc::impl_abstract_phylum", ptr, i32, ptr, ptr }
%"class.kc::impl_casestring__Str" = type { %"class.kc::impl_abstract_phylum", ptr }
%"class.kc::impl_alternative_Alternative" = type { %"class.kc::impl_alternative", ptr, ptr }
%"class.kc::impl_withcasesinfo" = type { %"class.kc::impl_abstract_list", ptr, ptr }
%"class.kc::impl_withcaseinfo_Withcaseinfo" = type { %"class.kc::impl_withcaseinfo", ptr, ptr, ptr }
%"class.kc::impl_withcaseinfo" = type { %"class.kc::impl_abstract_phylum" }
%"class.kc::impl_patternrepresentation" = type { %"class.kc::impl_abstract_list", ptr, ptr }
%"class.kc::impl_elem_patternrepresentation_PROperPredicate" = type { %"class.kc::impl_elem_patternrepresentation", ptr, ptr }
%"class.kc::impl_elem_patternrepresentation" = type { %"class.kc::impl_abstract_phylum", i32, ptr, ptr }
%"class.kc::impl_ac_direct_declarator_AcDirectDeclProto" = type { %"class.kc::impl_ac_direct_declarator", ptr, ptr }
%"class.kc::impl_ac_identifier_list" = type { %"class.kc::impl_abstract_list", ptr, ptr }
%"class.kc::impl_ac_declaration_list" = type { %"class.kc::impl_abstract_list", ptr, ptr }
%"class.kc::impl_ac_declaration_AcDeclaration" = type { %"class.kc::impl_ac_declaration", ptr, ptr }
%"class.kc::impl_ac_declaration" = type { %"class.kc::impl_abstract_phylum" }
%"class.kc::impl_ac_init_declarator_list" = type { %"class.kc::impl_abstract_list", ptr, ptr }
%"class.kc::impl_ac_init_declarator_AcInitDecl" = type { %"class.kc::impl_ac_init_declarator", ptr }
%"class.kc::impl_ac_init_declarator" = type { %"class.kc::impl_abstract_phylum" }
%"class.kc::impl_charruns" = type <{ %"class.kc::impl_abstract_phylum", i32, [4 x i8] }>
%"class.kc::impl_rewriteruleinfo_Rewriteruleinfo" = type { %"class.kc::impl_rewriteruleinfo", ptr, ptr, ptr }
%"class.kc::impl_rewriteruleinfo" = type { %"class.kc::impl_abstract_phylum" }
%"class.kc::impl_rewriteclause_RewriteClause" = type { %"class.kc::impl_rewriteclause", ptr, ptr }
%"class.kc::impl_rewriteclause" = type { %"class.kc::impl_abstract_phylum" }
%"class.kc::impl_viewnames" = type { %"class.kc::impl_abstract_list", i8, ptr, ptr }
%"class.kc::impl_unparsedeclinfo_Unparsedeclinfo" = type { %"class.kc::impl_unparsedeclinfo", ptr, ptr, ptr }
%"class.kc::impl_unparsedeclinfo" = type { %"class.kc::impl_abstract_phylum" }
%"class.kc::impl_unparseclause_UnparseClause" = type { %"class.kc::impl_unparseclause", ptr, ptr }
%"class.kc::impl_unparseclause" = type { %"class.kc::impl_abstract_phylum" }
%"class.kc::impl_path" = type { %"class.kc::impl_abstract_list", ptr, ptr, ptr, ptr }
%"class.kc::impl_elem_patternrepresentation_PRIntLiteral" = type { %"class.kc::impl_elem_patternrepresentation", ptr, ptr }
%"class.kc::impl_elem_patternrepresentation_PRStringLiteral" = type { %"class.kc::impl_elem_patternrepresentation", ptr, ptr }
%"class.kc::impl_elem_patternrepresentation_PRWildcard" = type { %"class.kc::impl_elem_patternrepresentation", ptr }
%"class.kc::impl_elem_patternrepresentation_PRNonLeafBinding" = type { %"class.kc::impl_elem_patternrepresentation", ptr, ptr, ptr }
%"class.kc::impl_elem_patternrepresentation_PRBinding" = type { %"class.kc::impl_elem_patternrepresentation", ptr, ptr }
%"class.kc::impl_elem_patternrepresentation_PRVarPredicate" = type { %"class.kc::impl_elem_patternrepresentation", ptr, ptr, ptr }
%"class.kc::impl_paths" = type { %"class.kc::impl_abstract_list", ptr, ptr }
%"class.kc::impl_unpsubterm_UnpCastedVariable" = type { %"class.kc::impl_unpsubterm", ptr, ptr }
%"class.kc::impl_unpsubterm" = type { %"class.kc::impl_abstract_phylum" }
%"class.kc::impl_unpsubterm_UnpDollarvarAttr" = type { %"class.kc::impl_unpsubterm", ptr, ptr }
%"class.kc::impl_unpsubterm_UnpSubAttr" = type { %"class.kc::impl_unpsubterm", ptr, ptr }
%"class.kc::impl_unpsubterm_UnpDollarvarTerm" = type { %"class.kc::impl_unpsubterm", ptr }
%"class.kc::impl_unpsubterm_UnpSubTerm" = type { %"class.kc::impl_unpsubterm", ptr }
%"class.kc::impl_rewriterulesinfo" = type { %"class.kc::impl_abstract_list", ptr, ptr }
%"class.kc::impl_unparsedeclsinfo" = type { %"class.kc::impl_abstract_list", ptr, ptr }
%"class.kc::impl_phylumnames" = type { %"class.kc::impl_abstract_list", ptr, ptr }
%"class.kc::impl_patternchain" = type { %"class.kc::impl_abstract_list", i32, ptr, ptr, ptr }
%"class.kc::impl_patternchainitem_PatternchainitemOutmost" = type { %"class.kc::impl_patternchainitem", ptr }
%"class.kc::impl_patternchainitem" = type { %"class.kc::impl_abstract_phylum", i32, ptr, ptr }
%"class.kc::impl_outmostpattern_OPOperatorWildcard" = type { %"class.kc::impl_outmostpattern", ptr, ptr }
%"class.kc::impl_outmostpattern" = type { %"class.kc::impl_abstract_phylum", i32, ptr, ptr }
%"class.std::__cxx11::basic_string" = type { %"struct.std::__cxx11::basic_string<char>::_Alloc_hider", i64, %union.anon }
%"struct.std::__cxx11::basic_string<char>::_Alloc_hider" = type { ptr }
%union.anon = type { i64, [8 x i8] }

@The_abstract_phylum_decl = dso_local local_unnamed_addr global ptr null, align 8
@The_abstract_phylum_ref_decl = dso_local local_unnamed_addr global ptr null, align 8
@The_abstract_list_decl = dso_local local_unnamed_addr global ptr null, align 8
@.str = private unnamed_addr constant [26 x i8] c"f_something_to_initialize\00", align 1
@.str.1 = private unnamed_addr constant [93 x i8] c"/usr/local/google/home/aeubanks/repos/test-suite/MultiSource/Applications/kimwitu++/gutil.cc\00", align 1
@.str.2 = private unnamed_addr constant [12 x i8] c"f_NilCtexts\00", align 1
@.str.3 = private unnamed_addr constant [24 x i8] c"f_phylumofwithcasesinfo\00", align 1
@.str.4 = private unnamed_addr constant [44 x i8] c"Error: can not find type of with expression\00", align 1
@.str.5 = private unnamed_addr constant [20 x i8] c"KC_ERRORunknownTYPE\00", align 1
@.str.6 = private unnamed_addr constant [32 x i8] c"f_phylumofpatternrepresentation\00", align 1
@.str.7 = private unnamed_addr constant [32 x i8] c"sort_extend_parameter_type_list\00", align 1
@.str.8 = private unnamed_addr constant [29 x i8] c"t_sort_extend_parameter_list\00", align 1
@.str.9 = private unnamed_addr constant [3 x i8] c"%d\00", align 1
@.str.10 = private unnamed_addr constant [6 x i8] c"%d_%d\00", align 1
@_ZL17global_filterview = internal unnamed_addr global ptr null, align 8
@.str.11 = private unnamed_addr constant [9 x i8] c"f_typeof\00", align 1
@.str.12 = private unnamed_addr constant [34 x i8] c"f_operatorofpatternrepresentation\00", align 1
@.str.13 = private unnamed_addr constant [19 x i8] c"f_typeofunpsubterm\00", align 1
@.str.14 = private unnamed_addr constant [39 x i8] c"f_outmost_nl_preds_in_rewriterulesinfo\00", align 1
@.str.15 = private unnamed_addr constant [39 x i8] c"f_outmost_nl_preds_in_unparsedeclsinfo\00", align 1
@_ZZN2kc19f_is_known_ptr_typeEPNS_7impl_IDEE5known = internal unnamed_addr global ptr null, align 8
@.str.16 = private unnamed_addr constant [7 x i8] c"size_t\00", align 1
@.str.17 = private unnamed_addr constant [9 x i8] c"unsigned\00", align 1
@.str.18 = private unnamed_addr constant [11 x i8] c"enum_phyla\00", align 1
@.str.19 = private unnamed_addr constant [15 x i8] c"enum_operators\00", align 1
@.str.20 = private unnamed_addr constant [13 x i8] c"KC_UNIQ_INFO\00", align 1
@.str.21 = private unnamed_addr constant [5 x i8] c"bool\00", align 1
@.str.22 = private unnamed_addr constant [12 x i8] c"hashtable_t\00", align 1
@.str.23 = private unnamed_addr constant [13 x i8] c"KC_IO_STATUS\00", align 1
@.str.24 = private unnamed_addr constant [6 x i8] c"uview\00", align 1
@.str.25 = private unnamed_addr constant [6 x i8] c"rview\00", align 1
@_ZN2kc10base_rviewE = external global %"struct.kc::base_rview_class", align 4
@.str.26 = private unnamed_addr constant [22 x i8] c"rewrite_withcasesinfo\00", align 1
@.str.28 = private unnamed_addr constant [27 x i8] c"f_attributes_to_initialize\00", align 1
@.str.29 = private unnamed_addr constant [12 x i8] c"post_create\00", align 1
@.str.30 = private unnamed_addr constant [8 x i8] c"rewrite\00", align 1
@.str.31 = private unnamed_addr constant [50 x i8] c"more than one type defined for function argument:\00", align 1
@.str.32 = private unnamed_addr constant [40 x i8] c"can not find type of function argument:\00", align 1
@.str.33 = private unnamed_addr constant [31 x i8] c"is_viewname_in_rewriteruleinfo\00", align 1
@.str.34 = private unnamed_addr constant [31 x i8] c"is_viewname_in_unparsedeclinfo\00", align 1
@.str.35 = private unnamed_addr constant [39 x i8] c"f_operatorofelem_patternrepresentation\00", align 1
@.str.36 = private unnamed_addr constant [17 x i8] c"f_operatorofpath\00", align 1
@.str.37 = private unnamed_addr constant [18 x i8] c"f_operatorofpaths\00", align 1
@.str.38 = private unnamed_addr constant [44 x i8] c"f_outmost_nl_preds_in_patternrepresentation\00", align 1
@.str.39 = private unnamed_addr constant [28 x i8] c"f_outmost_nl_preds_in_paths\00", align 1

; Function Attrs: mustprogress uwtable
define dso_local noundef zeroext i1 @_ZN2kc25f_something_to_initializeEPNS_17impl_Ccode_optionE(ptr noundef %0) local_unnamed_addr #0 {
  %2 = load ptr, ptr %0, align 8, !tbaa !5
  %3 = load ptr, ptr %2, align 8
  %4 = tail call noundef i32 %3(ptr noundef nonnull align 8 dereferenceable(8) %0)
  %5 = icmp eq i32 %4, 31
  br i1 %5, label %6, label %61

6:                                                ; preds = %1
  %7 = getelementptr inbounds %"class.kc::impl_Ccode_option_CcodeOption", ptr %0, i64 0, i32 1
  %8 = load ptr, ptr %7, align 8, !tbaa !8
  %9 = getelementptr inbounds %"class.kc::impl_Ccode_option_CcodeOption", ptr %0, i64 0, i32 2
  %10 = load ptr, ptr %9, align 8, !tbaa !14
  %11 = load ptr, ptr %8, align 8, !tbaa !5
  %12 = load ptr, ptr %11, align 8
  %13 = tail call noundef i32 %12(ptr noundef nonnull align 8 dereferenceable(24) %8)
  %14 = icmp eq i32 %13, 33
  br i1 %14, label %15, label %50

15:                                               ; preds = %6, %43
  %16 = phi ptr [ %45, %43 ], [ %8, %6 ]
  %17 = getelementptr inbounds %"class.kc::impl_attributes", ptr %16, i64 0, i32 1
  %18 = load ptr, ptr %17, align 8, !tbaa !15
  %19 = load ptr, ptr %18, align 8, !tbaa !5
  %20 = load ptr, ptr %19, align 8
  %21 = tail call noundef i32 %20(ptr noundef nonnull align 8 dereferenceable(8) %18)
  %22 = icmp eq i32 %21, 34
  br i1 %22, label %23, label %30

23:                                               ; preds = %15
  %24 = getelementptr inbounds %"class.kc::impl_attribute_Attribute", ptr %18, i64 0, i32 3
  %25 = load ptr, ptr %24, align 8, !tbaa !18
  %26 = load ptr, ptr %25, align 8, !tbaa !5
  %27 = load ptr, ptr %26, align 8
  %28 = tail call noundef i32 %27(ptr noundef nonnull align 8 dereferenceable(8) %25)
  %29 = icmp eq i32 %28, 36
  br i1 %29, label %62, label %30

30:                                               ; preds = %23, %15
  %31 = load ptr, ptr %18, align 8, !tbaa !5
  %32 = load ptr, ptr %31, align 8
  %33 = tail call noundef i32 %32(ptr noundef nonnull align 8 dereferenceable(8) %18)
  %34 = icmp eq i32 %33, 34
  br i1 %34, label %35, label %42

35:                                               ; preds = %30
  %36 = getelementptr inbounds %"class.kc::impl_attribute_Attribute", ptr %18, i64 0, i32 3
  %37 = load ptr, ptr %36, align 8, !tbaa !18
  %38 = load ptr, ptr %37, align 8, !tbaa !5
  %39 = load ptr, ptr %38, align 8
  %40 = tail call noundef i32 %39(ptr noundef nonnull align 8 dereferenceable(8) %37)
  %41 = icmp eq i32 %40, 35
  br i1 %41, label %43, label %42

42:                                               ; preds = %35, %30
  tail call void @_ZN2kc21kc_no_default_in_withEPKciS1_(ptr noundef nonnull @.str.28, i32 noundef 148, ptr noundef nonnull @.str.1)
  br label %50

43:                                               ; preds = %35
  %44 = getelementptr inbounds %"class.kc::impl_attributes", ptr %16, i64 0, i32 2
  %45 = load ptr, ptr %44, align 8, !tbaa !21
  %46 = load ptr, ptr %45, align 8, !tbaa !5
  %47 = load ptr, ptr %46, align 8
  %48 = tail call noundef i32 %47(ptr noundef nonnull align 8 dereferenceable(24) %45)
  %49 = icmp eq i32 %48, 33
  br i1 %49, label %15, label %50, !llvm.loop !22

50:                                               ; preds = %43, %42, %6
  %51 = load ptr, ptr %10, align 8, !tbaa !5
  %52 = load ptr, ptr %51, align 8
  %53 = tail call noundef i32 %52(ptr noundef nonnull align 8 dereferenceable(24) %10)
  %54 = icmp eq i32 %53, 58
  br i1 %54, label %62, label %55

55:                                               ; preds = %50
  %56 = load ptr, ptr %10, align 8, !tbaa !5
  %57 = load ptr, ptr %56, align 8
  %58 = tail call noundef i32 %57(ptr noundef nonnull align 8 dereferenceable(24) %10)
  %59 = icmp eq i32 %58, 57
  br i1 %59, label %62, label %60

60:                                               ; preds = %55
  tail call void @_ZN2kc21kc_no_default_in_withEPKciS1_(ptr noundef nonnull @.str.2, i32 noundef 118, ptr noundef nonnull @.str.1)
  br label %62

61:                                               ; preds = %1
  tail call void @_ZN2kc21kc_no_default_in_withEPKciS1_(ptr noundef nonnull @.str, i32 noundef 96, ptr noundef nonnull @.str.1)
  br label %62

62:                                               ; preds = %23, %60, %55, %50, %61
  %63 = phi i1 [ false, %61 ], [ true, %60 ], [ true, %50 ], [ false, %55 ], [ true, %23 ]
  ret i1 %63
}

; Function Attrs: mustprogress nocallback nofree nosync nounwind willreturn memory(argmem: readwrite)
declare void @llvm.lifetime.start.p0(i64 immarg, ptr nocapture) #1

; Function Attrs: mustprogress uwtable
define dso_local noundef zeroext i1 @_ZN2kc11f_NilCtextsEPNS_11impl_CtextsE(ptr noundef %0) local_unnamed_addr #0 {
  %2 = load ptr, ptr %0, align 8, !tbaa !5
  %3 = load ptr, ptr %2, align 8
  %4 = tail call noundef i32 %3(ptr noundef nonnull align 8 dereferenceable(24) %0)
  %5 = icmp eq i32 %4, 58
  br i1 %5, label %12, label %6

6:                                                ; preds = %1
  %7 = load ptr, ptr %0, align 8, !tbaa !5
  %8 = load ptr, ptr %7, align 8
  %9 = tail call noundef i32 %8(ptr noundef nonnull align 8 dereferenceable(24) %0)
  %10 = icmp eq i32 %9, 57
  br i1 %10, label %12, label %11

11:                                               ; preds = %6
  tail call void @_ZN2kc21kc_no_default_in_withEPKciS1_(ptr noundef nonnull @.str.2, i32 noundef 118, ptr noundef nonnull @.str.1)
  br label %12

12:                                               ; preds = %6, %1, %11
  %13 = phi i1 [ false, %11 ], [ false, %1 ], [ true, %6 ]
  ret i1 %13
}

; Function Attrs: mustprogress nocallback nofree nosync nounwind willreturn memory(argmem: readwrite)
declare void @llvm.lifetime.end.p0(i64 immarg, ptr nocapture) #1

declare void @_ZN2kc21kc_no_default_in_withEPKciS1_(ptr noundef, i32 noundef, ptr noundef) local_unnamed_addr #2

; Function Attrs: mustprogress nofree norecurse nosync nounwind willreturn memory(none) uwtable
define dso_local noundef zeroext i1 @_ZN2kc25f_something_to_initializeEPNS_16impl_alternativeE(ptr nocapture noundef readnone %0) local_unnamed_addr #3 {
  ret i1 false
}

; Function Attrs: mustprogress uwtable
define dso_local noundef zeroext i1 @_ZN2kc30f_constructors_in_operatordeclEPNS_16impl_alternativeE(ptr nocapture noundef readonly %0) local_unnamed_addr #0 {
  %2 = getelementptr inbounds %"class.kc::impl_alternative", ptr %0, i64 0, i32 3
  br label %3

3:                                                ; preds = %25, %1
  %4 = phi ptr [ %2, %1 ], [ %30, %25 ]
  %5 = load ptr, ptr %4, align 8, !tbaa !24
  %6 = load ptr, ptr %5, align 8, !tbaa !5
  %7 = load ptr, ptr %6, align 8
  %8 = tail call noundef i32 %7(ptr noundef nonnull align 8 dereferenceable(24) %5)
  %9 = icmp eq i32 %8, 108
  br i1 %9, label %10, label %25

10:                                               ; preds = %3
  %11 = getelementptr inbounds %"class.kc::impl_fndeclarations", ptr %5, i64 0, i32 1
  %12 = load ptr, ptr %11, align 8, !tbaa !25
  %13 = load ptr, ptr %12, align 8, !tbaa !5
  %14 = load ptr, ptr %13, align 8
  %15 = tail call noundef i32 %14(ptr noundef nonnull align 8 dereferenceable(8) %12)
  %16 = icmp eq i32 %15, 109
  br i1 %16, label %17, label %25

17:                                               ; preds = %10
  %18 = load ptr, ptr %11, align 8, !tbaa !25
  %19 = getelementptr inbounds %"class.kc::impl_fndeclaration_FnAcDeclaration", ptr %18, i64 0, i32 7
  %20 = load ptr, ptr %19, align 8, !tbaa !27
  %21 = load ptr, ptr %20, align 8, !tbaa !5
  %22 = load ptr, ptr %21, align 8
  %23 = tail call noundef i32 %22(ptr noundef nonnull align 8 dereferenceable(8) %20)
  %24 = icmp eq i32 %23, 114
  br i1 %24, label %31, label %25

25:                                               ; preds = %17, %10, %3
  %26 = load ptr, ptr %5, align 8, !tbaa !5
  %27 = load ptr, ptr %26, align 8
  %28 = tail call noundef i32 %27(ptr noundef nonnull align 8 dereferenceable(24) %5)
  %29 = icmp eq i32 %28, 108
  %30 = getelementptr inbounds %"class.kc::impl_fndeclarations", ptr %5, i64 0, i32 2
  br i1 %29, label %3, label %31

31:                                               ; preds = %17, %25
  %32 = phi i1 [ true, %17 ], [ false, %25 ]
  ret i1 %32
}

; Function Attrs: mustprogress uwtable
define dso_local noundef zeroext i1 @_ZN2kc28f_constructors_in_phylumdeclEPNS_22impl_phylumdeclarationE(ptr nocapture noundef readonly %0) local_unnamed_addr #0 {
  %2 = getelementptr inbounds %"class.kc::impl_phylumdeclaration", ptr %0, i64 0, i32 2
  br label %3

3:                                                ; preds = %25, %1
  %4 = phi ptr [ %2, %1 ], [ %30, %25 ]
  %5 = load ptr, ptr %4, align 8, !tbaa !24
  %6 = load ptr, ptr %5, align 8, !tbaa !5
  %7 = load ptr, ptr %6, align 8
  %8 = tail call noundef i32 %7(ptr noundef nonnull align 8 dereferenceable(24) %5)
  %9 = icmp eq i32 %8, 108
  br i1 %9, label %10, label %25

10:                                               ; preds = %3
  %11 = getelementptr inbounds %"class.kc::impl_fndeclarations", ptr %5, i64 0, i32 1
  %12 = load ptr, ptr %11, align 8, !tbaa !25
  %13 = load ptr, ptr %12, align 8, !tbaa !5
  %14 = load ptr, ptr %13, align 8
  %15 = tail call noundef i32 %14(ptr noundef nonnull align 8 dereferenceable(8) %12)
  %16 = icmp eq i32 %15, 109
  br i1 %16, label %17, label %25

17:                                               ; preds = %10
  %18 = load ptr, ptr %11, align 8, !tbaa !25
  %19 = getelementptr inbounds %"class.kc::impl_fndeclaration_FnAcDeclaration", ptr %18, i64 0, i32 7
  %20 = load ptr, ptr %19, align 8, !tbaa !27
  %21 = load ptr, ptr %20, align 8, !tbaa !5
  %22 = load ptr, ptr %21, align 8
  %23 = tail call noundef i32 %22(ptr noundef nonnull align 8 dereferenceable(8) %20)
  %24 = icmp eq i32 %23, 114
  br i1 %24, label %31, label %25

25:                                               ; preds = %17, %10, %3
  %26 = load ptr, ptr %5, align 8, !tbaa !5
  %27 = load ptr, ptr %26, align 8
  %28 = tail call noundef i32 %27(ptr noundef nonnull align 8 dereferenceable(24) %5)
  %29 = icmp eq i32 %28, 108
  %30 = getelementptr inbounds %"class.kc::impl_fndeclarations", ptr %5, i64 0, i32 2
  br i1 %29, label %3, label %31

31:                                               ; preds = %17, %25
  %32 = phi i1 [ true, %17 ], [ false, %25 ]
  ret i1 %32
}

; Function Attrs: mustprogress uwtable
define dso_local noundef zeroext i1 @_ZN2kc29f_destructors_in_operatordeclEPNS_16impl_alternativeE(ptr nocapture noundef readonly %0) local_unnamed_addr #0 {
  %2 = getelementptr inbounds %"class.kc::impl_alternative", ptr %0, i64 0, i32 3
  br label %3

3:                                                ; preds = %25, %1
  %4 = phi ptr [ %2, %1 ], [ %30, %25 ]
  %5 = load ptr, ptr %4, align 8, !tbaa !24
  %6 = load ptr, ptr %5, align 8, !tbaa !5
  %7 = load ptr, ptr %6, align 8
  %8 = tail call noundef i32 %7(ptr noundef nonnull align 8 dereferenceable(24) %5)
  %9 = icmp eq i32 %8, 108
  br i1 %9, label %10, label %25

10:                                               ; preds = %3
  %11 = getelementptr inbounds %"class.kc::impl_fndeclarations", ptr %5, i64 0, i32 1
  %12 = load ptr, ptr %11, align 8, !tbaa !25
  %13 = load ptr, ptr %12, align 8, !tbaa !5
  %14 = load ptr, ptr %13, align 8
  %15 = tail call noundef i32 %14(ptr noundef nonnull align 8 dereferenceable(8) %12)
  %16 = icmp eq i32 %15, 109
  br i1 %16, label %17, label %25

17:                                               ; preds = %10
  %18 = load ptr, ptr %11, align 8, !tbaa !25
  %19 = getelementptr inbounds %"class.kc::impl_fndeclaration_FnAcDeclaration", ptr %18, i64 0, i32 7
  %20 = load ptr, ptr %19, align 8, !tbaa !27
  %21 = load ptr, ptr %20, align 8, !tbaa !5
  %22 = load ptr, ptr %21, align 8
  %23 = tail call noundef i32 %22(ptr noundef nonnull align 8 dereferenceable(8) %20)
  %24 = icmp eq i32 %23, 115
  br i1 %24, label %31, label %25

25:                                               ; preds = %17, %10, %3
  %26 = load ptr, ptr %5, align 8, !tbaa !5
  %27 = load ptr, ptr %26, align 8
  %28 = tail call noundef i32 %27(ptr noundef nonnull align 8 dereferenceable(24) %5)
  %29 = icmp eq i32 %28, 108
  %30 = getelementptr inbounds %"class.kc::impl_fndeclarations", ptr %5, i64 0, i32 2
  br i1 %29, label %3, label %31

31:                                               ; preds = %17, %25
  %32 = phi i1 [ true, %17 ], [ false, %25 ]
  ret i1 %32
}

; Function Attrs: mustprogress uwtable
define dso_local noundef zeroext i1 @_ZN2kc27f_destructors_in_phylumdeclEPNS_22impl_phylumdeclarationE(ptr nocapture noundef readonly %0) local_unnamed_addr #0 {
  %2 = getelementptr inbounds %"class.kc::impl_phylumdeclaration", ptr %0, i64 0, i32 2
  br label %3

3:                                                ; preds = %25, %1
  %4 = phi ptr [ %2, %1 ], [ %30, %25 ]
  %5 = load ptr, ptr %4, align 8, !tbaa !24
  %6 = load ptr, ptr %5, align 8, !tbaa !5
  %7 = load ptr, ptr %6, align 8
  %8 = tail call noundef i32 %7(ptr noundef nonnull align 8 dereferenceable(24) %5)
  %9 = icmp eq i32 %8, 108
  br i1 %9, label %10, label %25

10:                                               ; preds = %3
  %11 = getelementptr inbounds %"class.kc::impl_fndeclarations", ptr %5, i64 0, i32 1
  %12 = load ptr, ptr %11, align 8, !tbaa !25
  %13 = load ptr, ptr %12, align 8, !tbaa !5
  %14 = load ptr, ptr %13, align 8
  %15 = tail call noundef i32 %14(ptr noundef nonnull align 8 dereferenceable(8) %12)
  %16 = icmp eq i32 %15, 109
  br i1 %16, label %17, label %25

17:                                               ; preds = %10
  %18 = load ptr, ptr %11, align 8, !tbaa !25
  %19 = getelementptr inbounds %"class.kc::impl_fndeclaration_FnAcDeclaration", ptr %18, i64 0, i32 7
  %20 = load ptr, ptr %19, align 8, !tbaa !27
  %21 = load ptr, ptr %20, align 8, !tbaa !5
  %22 = load ptr, ptr %21, align 8
  %23 = tail call noundef i32 %22(ptr noundef nonnull align 8 dereferenceable(8) %20)
  %24 = icmp eq i32 %23, 115
  br i1 %24, label %31, label %25

25:                                               ; preds = %17, %10, %3
  %26 = load ptr, ptr %5, align 8, !tbaa !5
  %27 = load ptr, ptr %26, align 8
  %28 = tail call noundef i32 %27(ptr noundef nonnull align 8 dereferenceable(24) %5)
  %29 = icmp eq i32 %28, 108
  %30 = getelementptr inbounds %"class.kc::impl_fndeclarations", ptr %5, i64 0, i32 2
  br i1 %29, label %3, label %31

31:                                               ; preds = %17, %25
  %32 = phi i1 [ true, %17 ], [ false, %25 ]
  ret i1 %32
}

; Function Attrs: mustprogress uwtable
define dso_local noundef zeroext i1 @_ZN2kc11f_no_paramsEPNS_27impl_ac_parameter_type_listE(ptr noundef %0) local_unnamed_addr #0 {
  %2 = load ptr, ptr %0, align 8, !tbaa !5
  %3 = load ptr, ptr %2, align 8
  %4 = tail call noundef i32 %3(ptr noundef nonnull align 8 dereferenceable(8) %0)
  %5 = icmp eq i32 %4, 276
  br i1 %5, label %6, label %13

6:                                                ; preds = %1
  %7 = getelementptr inbounds %"class.kc::impl_ac_parameter_type_list_AcParList", ptr %0, i64 0, i32 1
  %8 = load ptr, ptr %7, align 8, !tbaa !32
  %9 = load ptr, ptr %8, align 8, !tbaa !5
  %10 = load ptr, ptr %9, align 8
  %11 = tail call noundef i32 %10(ptr noundef nonnull align 8 dereferenceable(24) %8)
  %12 = icmp eq i32 %11, 278
  br i1 %12, label %14, label %13

13:                                               ; preds = %6, %1
  br label %14

14:                                               ; preds = %6, %13
  %15 = phi i1 [ false, %13 ], [ true, %6 ]
  ret i1 %15
}

; Function Attrs: mustprogress uwtable
define dso_local noundef zeroext i1 @_ZN2kc29f_post_create_in_operatordeclEPNS_16impl_alternativeE(ptr nocapture noundef readonly %0) local_unnamed_addr #0 {
  %2 = getelementptr inbounds %"class.kc::impl_alternative", ptr %0, i64 0, i32 3
  %3 = load ptr, ptr %2, align 8, !tbaa !35
  %4 = tail call fastcc noundef zeroext i1 @_ZN2kcL24f_post_create_in_membersEPNS_19impl_fndeclarationsE(ptr noundef %3)
  ret i1 %4
}

; Function Attrs: mustprogress uwtable
define internal fastcc noundef zeroext i1 @_ZN2kcL24f_post_create_in_membersEPNS_19impl_fndeclarationsE(ptr noundef %0) unnamed_addr #0 {
  br label %2

2:                                                ; preds = %105, %1
  %3 = phi ptr [ %0, %1 ], [ %107, %105 ]
  %4 = load ptr, ptr %3, align 8, !tbaa !5
  %5 = load ptr, ptr %4, align 8
  %6 = tail call noundef i32 %5(ptr noundef nonnull align 8 dereferenceable(24) %3)
  %7 = icmp eq i32 %6, 108
  br i1 %7, label %8, label %100

8:                                                ; preds = %2
  %9 = getelementptr inbounds %"class.kc::impl_fndeclarations", ptr %3, i64 0, i32 1
  %10 = load ptr, ptr %9, align 8, !tbaa !25
  %11 = load ptr, ptr %10, align 8, !tbaa !5
  %12 = load ptr, ptr %11, align 8
  %13 = tail call noundef i32 %12(ptr noundef nonnull align 8 dereferenceable(8) %10)
  %14 = icmp eq i32 %13, 109
  br i1 %14, label %15, label %100

15:                                               ; preds = %8
  %16 = load ptr, ptr %9, align 8, !tbaa !25
  %17 = getelementptr inbounds %"class.kc::impl_fndeclaration_FnAcDeclaration", ptr %16, i64 0, i32 2
  %18 = load ptr, ptr %17, align 8, !tbaa !37
  %19 = load ptr, ptr %18, align 8, !tbaa !5
  %20 = load ptr, ptr %19, align 8
  %21 = tail call noundef i32 %20(ptr noundef nonnull align 8 dereferenceable(8) %18)
  %22 = icmp eq i32 %21, 254
  br i1 %22, label %23, label %100

23:                                               ; preds = %15
  %24 = load ptr, ptr %9, align 8, !tbaa !25
  %25 = getelementptr inbounds %"class.kc::impl_fndeclaration_FnAcDeclaration", ptr %24, i64 0, i32 2
  %26 = load ptr, ptr %25, align 8, !tbaa !37
  %27 = getelementptr inbounds %"class.kc::impl_ac_declarator_AcDeclarator", ptr %26, i64 0, i32 3
  %28 = load ptr, ptr %27, align 8, !tbaa !38
  %29 = load ptr, ptr %28, align 8, !tbaa !5
  %30 = load ptr, ptr %29, align 8
  %31 = tail call noundef i32 %30(ptr noundef nonnull align 8 dereferenceable(8) %28)
  %32 = icmp eq i32 %31, 259
  br i1 %32, label %33, label %100

33:                                               ; preds = %23
  %34 = load ptr, ptr %9, align 8, !tbaa !25
  %35 = getelementptr inbounds %"class.kc::impl_fndeclaration_FnAcDeclaration", ptr %34, i64 0, i32 2
  %36 = load ptr, ptr %35, align 8, !tbaa !37
  %37 = getelementptr inbounds %"class.kc::impl_ac_declarator_AcDeclarator", ptr %36, i64 0, i32 3
  %38 = load ptr, ptr %37, align 8, !tbaa !38
  %39 = getelementptr inbounds %"class.kc::impl_ac_direct_declarator_AcQualifiedDeclProto", ptr %38, i64 0, i32 2
  %40 = load ptr, ptr %39, align 8, !tbaa !41
  %41 = load ptr, ptr %40, align 8, !tbaa !5
  %42 = load ptr, ptr %41, align 8
  %43 = tail call noundef i32 %42(ptr noundef nonnull align 8 dereferenceable(8) %40)
  %44 = icmp eq i32 %43, 255
  br i1 %44, label %45, label %100

45:                                               ; preds = %33
  %46 = load ptr, ptr %9, align 8, !tbaa !25
  %47 = getelementptr inbounds %"class.kc::impl_fndeclaration_FnAcDeclaration", ptr %46, i64 0, i32 2
  %48 = load ptr, ptr %47, align 8, !tbaa !37
  %49 = getelementptr inbounds %"class.kc::impl_ac_declarator_AcDeclarator", ptr %48, i64 0, i32 3
  %50 = load ptr, ptr %49, align 8, !tbaa !38
  %51 = getelementptr inbounds %"class.kc::impl_ac_direct_declarator_AcQualifiedDeclProto", ptr %50, i64 0, i32 2
  %52 = load ptr, ptr %51, align 8, !tbaa !41
  %53 = getelementptr inbounds %"class.kc::impl_ac_direct_declarator_AcDirectDeclId", ptr %52, i64 0, i32 1
  %54 = load ptr, ptr %53, align 8, !tbaa !44
  %55 = load ptr, ptr %54, align 8, !tbaa !5
  %56 = load ptr, ptr %55, align 8
  %57 = tail call noundef i32 %56(ptr noundef nonnull align 8 dereferenceable(8) %54)
  %58 = icmp eq i32 %57, 7
  br i1 %58, label %59, label %100

59:                                               ; preds = %45
  %60 = load ptr, ptr %9, align 8, !tbaa !25
  %61 = getelementptr inbounds %"class.kc::impl_fndeclaration_FnAcDeclaration", ptr %60, i64 0, i32 2
  %62 = load ptr, ptr %61, align 8, !tbaa !37
  %63 = getelementptr inbounds %"class.kc::impl_ac_declarator_AcDeclarator", ptr %62, i64 0, i32 3
  %64 = load ptr, ptr %63, align 8, !tbaa !38
  %65 = getelementptr inbounds %"class.kc::impl_ac_direct_declarator_AcQualifiedDeclProto", ptr %64, i64 0, i32 2
  %66 = load ptr, ptr %65, align 8, !tbaa !41
  %67 = getelementptr inbounds %"class.kc::impl_ac_direct_declarator_AcDirectDeclId", ptr %66, i64 0, i32 1
  %68 = load ptr, ptr %67, align 8, !tbaa !44
  %69 = getelementptr inbounds %"class.kc::impl_ID_Id", ptr %68, i64 0, i32 1
  %70 = load ptr, ptr %69, align 8, !tbaa !46
  %71 = load ptr, ptr %70, align 8, !tbaa !5
  %72 = load ptr, ptr %71, align 8
  %73 = tail call noundef i32 %72(ptr noundef nonnull align 8 dereferenceable(8) %70)
  %74 = icmp eq i32 %73, 6
  br i1 %74, label %75, label %100

75:                                               ; preds = %59
  %76 = load ptr, ptr %9, align 8, !tbaa !25
  %77 = getelementptr inbounds %"class.kc::impl_fndeclaration_FnAcDeclaration", ptr %76, i64 0, i32 2
  %78 = load ptr, ptr %77, align 8, !tbaa !37
  %79 = getelementptr inbounds %"class.kc::impl_ac_declarator_AcDeclarator", ptr %78, i64 0, i32 3
  %80 = load ptr, ptr %79, align 8, !tbaa !38
  %81 = getelementptr inbounds %"class.kc::impl_ac_direct_declarator_AcQualifiedDeclProto", ptr %80, i64 0, i32 2
  %82 = load ptr, ptr %81, align 8, !tbaa !41
  %83 = getelementptr inbounds %"class.kc::impl_ac_direct_declarator_AcDirectDeclId", ptr %82, i64 0, i32 1
  %84 = load ptr, ptr %83, align 8, !tbaa !44
  %85 = getelementptr inbounds %"class.kc::impl_ID_Id", ptr %84, i64 0, i32 1
  %86 = load ptr, ptr %85, align 8, !tbaa !46
  %87 = getelementptr inbounds %"class.kc::impl_uniqID_Str", ptr %86, i64 0, i32 1
  %88 = load ptr, ptr %87, align 8, !tbaa !49
  %89 = getelementptr inbounds %"class.kc::impl_casestring__Str", ptr %88, i64 0, i32 1
  %90 = load ptr, ptr %89, align 8, !tbaa !52
  %91 = tail call i32 @strcmp(ptr noundef nonnull dereferenceable(1) %90, ptr noundef nonnull dereferenceable(12) @.str.29) #12
  %92 = icmp eq i32 %91, 0
  br i1 %92, label %93, label %100

93:                                               ; preds = %75
  %94 = getelementptr inbounds %"class.kc::impl_fndeclaration_FnAcDeclaration", ptr %76, i64 0, i32 7
  %95 = load ptr, ptr %94, align 8, !tbaa !27
  %96 = load ptr, ptr %95, align 8, !tbaa !5
  %97 = load ptr, ptr %96, align 8
  %98 = tail call noundef i32 %97(ptr noundef nonnull align 8 dereferenceable(8) %95)
  %99 = icmp eq i32 %98, 113
  br i1 %99, label %108, label %100

100:                                              ; preds = %93, %75, %59, %45, %33, %23, %15, %8, %2
  %101 = load ptr, ptr %3, align 8, !tbaa !5
  %102 = load ptr, ptr %101, align 8
  %103 = tail call noundef i32 %102(ptr noundef nonnull align 8 dereferenceable(24) %3)
  %104 = icmp eq i32 %103, 108
  br i1 %104, label %105, label %108

105:                                              ; preds = %100
  %106 = getelementptr inbounds %"class.kc::impl_fndeclarations", ptr %3, i64 0, i32 2
  %107 = load ptr, ptr %106, align 8, !tbaa !54
  br label %2

108:                                              ; preds = %100, %93
  %109 = phi i1 [ true, %93 ], [ false, %100 ]
  ret i1 %109
}

; Function Attrs: mustprogress uwtable
define dso_local noundef zeroext i1 @_ZN2kc27f_post_create_in_phylumdeclEPNS_22impl_phylumdeclarationE(ptr nocapture noundef readonly %0) local_unnamed_addr #0 {
  %2 = getelementptr inbounds %"class.kc::impl_phylumdeclaration", ptr %0, i64 0, i32 2
  %3 = load ptr, ptr %2, align 8, !tbaa !55
  %4 = tail call fastcc noundef zeroext i1 @_ZN2kcL24f_post_create_in_membersEPNS_19impl_fndeclarationsE(ptr noundef %3)
  ret i1 %4
}

; Function Attrs: mustprogress uwtable
define dso_local noundef zeroext i1 @_ZN2kc23f_rewrite_in_phylumdeclEPNS_22impl_phylumdeclarationE(ptr nocapture noundef readonly %0) local_unnamed_addr #0 {
  %2 = getelementptr inbounds %"class.kc::impl_phylumdeclaration", ptr %0, i64 0, i32 2
  %3 = load ptr, ptr %2, align 8, !tbaa !55
  %4 = tail call fastcc noundef zeroext i1 @_ZN2kcL20f_rewrite_in_membersEPNS_19impl_fndeclarationsE(ptr noundef %3)
  ret i1 %4
}

; Function Attrs: mustprogress uwtable
define internal fastcc noundef zeroext i1 @_ZN2kcL20f_rewrite_in_membersEPNS_19impl_fndeclarationsE(ptr noundef %0) unnamed_addr #0 {
  br label %2

2:                                                ; preds = %105, %1
  %3 = phi ptr [ %0, %1 ], [ %107, %105 ]
  %4 = load ptr, ptr %3, align 8, !tbaa !5
  %5 = load ptr, ptr %4, align 8
  %6 = tail call noundef i32 %5(ptr noundef nonnull align 8 dereferenceable(24) %3)
  %7 = icmp eq i32 %6, 108
  br i1 %7, label %8, label %100

8:                                                ; preds = %2
  %9 = getelementptr inbounds %"class.kc::impl_fndeclarations", ptr %3, i64 0, i32 1
  %10 = load ptr, ptr %9, align 8, !tbaa !25
  %11 = load ptr, ptr %10, align 8, !tbaa !5
  %12 = load ptr, ptr %11, align 8
  %13 = tail call noundef i32 %12(ptr noundef nonnull align 8 dereferenceable(8) %10)
  %14 = icmp eq i32 %13, 109
  br i1 %14, label %15, label %100

15:                                               ; preds = %8
  %16 = load ptr, ptr %9, align 8, !tbaa !25
  %17 = getelementptr inbounds %"class.kc::impl_fndeclaration_FnAcDeclaration", ptr %16, i64 0, i32 2
  %18 = load ptr, ptr %17, align 8, !tbaa !37
  %19 = load ptr, ptr %18, align 8, !tbaa !5
  %20 = load ptr, ptr %19, align 8
  %21 = tail call noundef i32 %20(ptr noundef nonnull align 8 dereferenceable(8) %18)
  %22 = icmp eq i32 %21, 254
  br i1 %22, label %23, label %100

23:                                               ; preds = %15
  %24 = load ptr, ptr %9, align 8, !tbaa !25
  %25 = getelementptr inbounds %"class.kc::impl_fndeclaration_FnAcDeclaration", ptr %24, i64 0, i32 2
  %26 = load ptr, ptr %25, align 8, !tbaa !37
  %27 = getelementptr inbounds %"class.kc::impl_ac_declarator_AcDeclarator", ptr %26, i64 0, i32 3
  %28 = load ptr, ptr %27, align 8, !tbaa !38
  %29 = load ptr, ptr %28, align 8, !tbaa !5
  %30 = load ptr, ptr %29, align 8
  %31 = tail call noundef i32 %30(ptr noundef nonnull align 8 dereferenceable(8) %28)
  %32 = icmp eq i32 %31, 259
  br i1 %32, label %33, label %100

33:                                               ; preds = %23
  %34 = load ptr, ptr %9, align 8, !tbaa !25
  %35 = getelementptr inbounds %"class.kc::impl_fndeclaration_FnAcDeclaration", ptr %34, i64 0, i32 2
  %36 = load ptr, ptr %35, align 8, !tbaa !37
  %37 = getelementptr inbounds %"class.kc::impl_ac_declarator_AcDeclarator", ptr %36, i64 0, i32 3
  %38 = load ptr, ptr %37, align 8, !tbaa !38
  %39 = getelementptr inbounds %"class.kc::impl_ac_direct_declarator_AcQualifiedDeclProto", ptr %38, i64 0, i32 2
  %40 = load ptr, ptr %39, align 8, !tbaa !41
  %41 = load ptr, ptr %40, align 8, !tbaa !5
  %42 = load ptr, ptr %41, align 8
  %43 = tail call noundef i32 %42(ptr noundef nonnull align 8 dereferenceable(8) %40)
  %44 = icmp eq i32 %43, 255
  br i1 %44, label %45, label %100

45:                                               ; preds = %33
  %46 = load ptr, ptr %9, align 8, !tbaa !25
  %47 = getelementptr inbounds %"class.kc::impl_fndeclaration_FnAcDeclaration", ptr %46, i64 0, i32 2
  %48 = load ptr, ptr %47, align 8, !tbaa !37
  %49 = getelementptr inbounds %"class.kc::impl_ac_declarator_AcDeclarator", ptr %48, i64 0, i32 3
  %50 = load ptr, ptr %49, align 8, !tbaa !38
  %51 = getelementptr inbounds %"class.kc::impl_ac_direct_declarator_AcQualifiedDeclProto", ptr %50, i64 0, i32 2
  %52 = load ptr, ptr %51, align 8, !tbaa !41
  %53 = getelementptr inbounds %"class.kc::impl_ac_direct_declarator_AcDirectDeclId", ptr %52, i64 0, i32 1
  %54 = load ptr, ptr %53, align 8, !tbaa !44
  %55 = load ptr, ptr %54, align 8, !tbaa !5
  %56 = load ptr, ptr %55, align 8
  %57 = tail call noundef i32 %56(ptr noundef nonnull align 8 dereferenceable(8) %54)
  %58 = icmp eq i32 %57, 7
  br i1 %58, label %59, label %100

59:                                               ; preds = %45
  %60 = load ptr, ptr %9, align 8, !tbaa !25
  %61 = getelementptr inbounds %"class.kc::impl_fndeclaration_FnAcDeclaration", ptr %60, i64 0, i32 2
  %62 = load ptr, ptr %61, align 8, !tbaa !37
  %63 = getelementptr inbounds %"class.kc::impl_ac_declarator_AcDeclarator", ptr %62, i64 0, i32 3
  %64 = load ptr, ptr %63, align 8, !tbaa !38
  %65 = getelementptr inbounds %"class.kc::impl_ac_direct_declarator_AcQualifiedDeclProto", ptr %64, i64 0, i32 2
  %66 = load ptr, ptr %65, align 8, !tbaa !41
  %67 = getelementptr inbounds %"class.kc::impl_ac_direct_declarator_AcDirectDeclId", ptr %66, i64 0, i32 1
  %68 = load ptr, ptr %67, align 8, !tbaa !44
  %69 = getelementptr inbounds %"class.kc::impl_ID_Id", ptr %68, i64 0, i32 1
  %70 = load ptr, ptr %69, align 8, !tbaa !46
  %71 = load ptr, ptr %70, align 8, !tbaa !5
  %72 = load ptr, ptr %71, align 8
  %73 = tail call noundef i32 %72(ptr noundef nonnull align 8 dereferenceable(8) %70)
  %74 = icmp eq i32 %73, 6
  br i1 %74, label %75, label %100

75:                                               ; preds = %59
  %76 = load ptr, ptr %9, align 8, !tbaa !25
  %77 = getelementptr inbounds %"class.kc::impl_fndeclaration_FnAcDeclaration", ptr %76, i64 0, i32 2
  %78 = load ptr, ptr %77, align 8, !tbaa !37
  %79 = getelementptr inbounds %"class.kc::impl_ac_declarator_AcDeclarator", ptr %78, i64 0, i32 3
  %80 = load ptr, ptr %79, align 8, !tbaa !38
  %81 = getelementptr inbounds %"class.kc::impl_ac_direct_declarator_AcQualifiedDeclProto", ptr %80, i64 0, i32 2
  %82 = load ptr, ptr %81, align 8, !tbaa !41
  %83 = getelementptr inbounds %"class.kc::impl_ac_direct_declarator_AcDirectDeclId", ptr %82, i64 0, i32 1
  %84 = load ptr, ptr %83, align 8, !tbaa !44
  %85 = getelementptr inbounds %"class.kc::impl_ID_Id", ptr %84, i64 0, i32 1
  %86 = load ptr, ptr %85, align 8, !tbaa !46
  %87 = getelementptr inbounds %"class.kc::impl_uniqID_Str", ptr %86, i64 0, i32 1
  %88 = load ptr, ptr %87, align 8, !tbaa !49
  %89 = getelementptr inbounds %"class.kc::impl_casestring__Str", ptr %88, i64 0, i32 1
  %90 = load ptr, ptr %89, align 8, !tbaa !52
  %91 = tail call i32 @strcmp(ptr noundef nonnull dereferenceable(1) %90, ptr noundef nonnull dereferenceable(8) @.str.30) #12
  %92 = icmp eq i32 %91, 0
  br i1 %92, label %93, label %100

93:                                               ; preds = %75
  %94 = getelementptr inbounds %"class.kc::impl_fndeclaration_FnAcDeclaration", ptr %76, i64 0, i32 7
  %95 = load ptr, ptr %94, align 8, !tbaa !27
  %96 = load ptr, ptr %95, align 8, !tbaa !5
  %97 = load ptr, ptr %96, align 8
  %98 = tail call noundef i32 %97(ptr noundef nonnull align 8 dereferenceable(8) %95)
  %99 = icmp eq i32 %98, 113
  br i1 %99, label %108, label %100

100:                                              ; preds = %93, %75, %59, %45, %33, %23, %15, %8, %2
  %101 = load ptr, ptr %3, align 8, !tbaa !5
  %102 = load ptr, ptr %101, align 8
  %103 = tail call noundef i32 %102(ptr noundef nonnull align 8 dereferenceable(24) %3)
  %104 = icmp eq i32 %103, 108
  br i1 %104, label %105, label %108

105:                                              ; preds = %100
  %106 = getelementptr inbounds %"class.kc::impl_fndeclarations", ptr %3, i64 0, i32 2
  %107 = load ptr, ptr %106, align 8, !tbaa !54
  br label %2

108:                                              ; preds = %100, %93
  %109 = phi i1 [ true, %93 ], [ false, %100 ]
  ret i1 %109
}

; Function Attrs: mustprogress uwtable
define dso_local noundef zeroext i1 @_ZN2kc25f_rewrite_in_operatordeclEPNS_16impl_alternativeE(ptr noundef %0) local_unnamed_addr #0 {
  %2 = load ptr, ptr %0, align 8, !tbaa !5
  %3 = load ptr, ptr %2, align 8
  %4 = tail call noundef i32 %3(ptr noundef nonnull align 8 dereferenceable(8) %0)
  %5 = icmp eq i32 %4, 27
  br i1 %5, label %6, label %18

6:                                                ; preds = %1
  %7 = getelementptr inbounds %"class.kc::impl_alternative_Alternative", ptr %0, i64 0, i32 1
  %8 = load ptr, ptr %7, align 8, !tbaa !57
  %9 = getelementptr inbounds %"class.kc::impl_alternative", ptr %0, i64 0, i32 3
  %10 = load ptr, ptr %9, align 8, !tbaa !35
  %11 = tail call fastcc noundef zeroext i1 @_ZN2kcL20f_rewrite_in_membersEPNS_19impl_fndeclarationsE(ptr noundef %10)
  br i1 %11, label %18, label %12

12:                                               ; preds = %6
  %13 = tail call noundef ptr @_ZN2kc18f_phylumofoperatorEPNS_7impl_IDE(ptr noundef %8)
  %14 = tail call noundef ptr @_ZN2kc16f_phylumdeclofidEPNS_7impl_IDE(ptr noundef %13)
  %15 = getelementptr inbounds %"class.kc::impl_phylumdeclaration", ptr %14, i64 0, i32 2
  %16 = load ptr, ptr %15, align 8, !tbaa !55
  %17 = tail call fastcc noundef zeroext i1 @_ZN2kcL20f_rewrite_in_membersEPNS_19impl_fndeclarationsE(ptr noundef %16)
  br label %18

18:                                               ; preds = %1, %12, %6
  %19 = phi i1 [ %17, %12 ], [ true, %6 ], [ false, %1 ]
  ret i1 %19
}

declare noundef ptr @_ZN2kc16f_phylumdeclofidEPNS_7impl_IDE(ptr noundef) local_unnamed_addr #2

declare noundef ptr @_ZN2kc18f_phylumofoperatorEPNS_7impl_IDE(ptr noundef) local_unnamed_addr #2

; Function Attrs: mustprogress uwtable
define dso_local noundef ptr @_ZN2kc23f_phylumofwithcasesinfoEPNS_18impl_withcasesinfoE(ptr noundef %0) local_unnamed_addr #0 {
  br label %2

2:                                                ; preds = %47, %1
  %3 = phi ptr [ %0, %1 ], [ %12, %47 ]
  %4 = load ptr, ptr %3, align 8, !tbaa !5
  %5 = load ptr, ptr %4, align 8
  %6 = tail call noundef i32 %5(ptr noundef nonnull align 8 dereferenceable(24) %3)
  %7 = icmp eq i32 %6, 221
  br i1 %7, label %8, label %52

8:                                                ; preds = %2
  %9 = getelementptr inbounds %"class.kc::impl_withcasesinfo", ptr %3, i64 0, i32 1
  %10 = load ptr, ptr %9, align 8, !tbaa !59
  %11 = getelementptr inbounds %"class.kc::impl_withcasesinfo", ptr %3, i64 0, i32 2
  %12 = load ptr, ptr %11, align 8, !tbaa !61
  %13 = load ptr, ptr %10, align 8, !tbaa !5
  %14 = load ptr, ptr %13, align 8
  %15 = tail call noundef i32 %14(ptr noundef nonnull align 8 dereferenceable(8) %10)
  %16 = icmp eq i32 %15, 222
  br i1 %16, label %17, label %51

17:                                               ; preds = %8
  %18 = getelementptr inbounds %"class.kc::impl_withcaseinfo_Withcaseinfo", ptr %10, i64 0, i32 1
  %19 = load ptr, ptr %18, align 8, !tbaa !62
  br label %20

20:                                               ; preds = %26, %17
  %21 = phi ptr [ %19, %17 ], [ %30, %26 ]
  %22 = load ptr, ptr %21, align 8, !tbaa !5
  %23 = load ptr, ptr %22, align 8
  %24 = tail call noundef i32 %23(ptr noundef nonnull align 8 dereferenceable(24) %21)
  %25 = icmp eq i32 %24, 201
  br i1 %25, label %26, label %39

26:                                               ; preds = %20
  %27 = getelementptr inbounds %"class.kc::impl_patternrepresentation", ptr %21, i64 0, i32 1
  %28 = load ptr, ptr %27, align 8, !tbaa !65
  %29 = getelementptr inbounds %"class.kc::impl_patternrepresentation", ptr %21, i64 0, i32 2
  %30 = load ptr, ptr %29, align 8, !tbaa !67
  %31 = load ptr, ptr %28, align 8, !tbaa !5
  %32 = load ptr, ptr %31, align 8
  %33 = tail call noundef i32 %32(ptr noundef nonnull align 8 dereferenceable(8) %28)
  %34 = icmp eq i32 %33, 204
  br i1 %34, label %35, label %20

35:                                               ; preds = %26
  %36 = getelementptr inbounds %"class.kc::impl_elem_patternrepresentation_PROperPredicate", ptr %28, i64 0, i32 2
  %37 = load ptr, ptr %36, align 8, !tbaa !68
  %38 = tail call noundef ptr @_ZN2kc18f_phylumofoperatorEPNS_7impl_IDE(ptr noundef %37)
  br label %47

39:                                               ; preds = %20
  %40 = load ptr, ptr %21, align 8, !tbaa !5
  %41 = load ptr, ptr %40, align 8
  %42 = tail call noundef i32 %41(ptr noundef nonnull align 8 dereferenceable(24) %21)
  %43 = icmp eq i32 %42, 200
  br i1 %43, label %44, label %46

44:                                               ; preds = %39
  %45 = tail call noundef ptr @_ZN2kc9f_emptyIdEv()
  br label %47

46:                                               ; preds = %39
  tail call void @_ZN2kc21kc_no_default_in_withEPKciS1_(ptr noundef nonnull @.str.6, i32 noundef 371, ptr noundef nonnull @.str.1)
  br label %47

47:                                               ; preds = %35, %44, %46
  %48 = phi ptr [ %45, %44 ], [ null, %46 ], [ %38, %35 ]
  %49 = tail call noundef ptr @_ZN2kc9f_emptyIdEv()
  %50 = tail call noundef zeroext i1 @_ZNK2kc20impl_abstract_phylum2eqEPKS0_(ptr noundef nonnull align 8 dereferenceable(8) %48, ptr noundef %49)
  br i1 %50, label %2, label %65

51:                                               ; preds = %8
  tail call void @_ZN2kc21kc_no_default_in_withEPKciS1_(ptr noundef nonnull @.str.3, i32 noundef 325, ptr noundef nonnull @.str.1)
  br label %65

52:                                               ; preds = %2
  %53 = load ptr, ptr %3, align 8, !tbaa !5
  %54 = load ptr, ptr %53, align 8
  %55 = tail call noundef i32 %54(ptr noundef nonnull align 8 dereferenceable(24) %3)
  %56 = icmp eq i32 %55, 220
  br i1 %56, label %57, label %64

57:                                               ; preds = %52
  %58 = tail call noundef ptr @_ZN2kc10NoFileLineEv()
  %59 = tail call noundef ptr @_ZN2kc9Problem1SEPKc(ptr noundef nonnull @.str.4)
  %60 = tail call noundef ptr @_ZN2kc8NonFatalEPNS_13impl_filelineEPNS_12impl_problemE(ptr noundef %58, ptr noundef %59)
  tail call void @_ZN2kc8v_reportEPNS_10impl_errorE(ptr noundef %60)
  %61 = tail call noundef ptr @_ZN2kc12mkcasestringEPKci(ptr noundef nonnull @.str.5, i32 noundef -1)
  %62 = tail call noundef ptr @_ZN2kc3StrEPNS_20impl_casestring__StrE(ptr noundef %61)
  %63 = tail call noundef ptr @_ZN2kc2IdEPNS_11impl_uniqIDE(ptr noundef %62)
  br label %65

64:                                               ; preds = %52
  tail call void @_ZN2kc21kc_no_default_in_withEPKciS1_(ptr noundef nonnull @.str.3, i32 noundef 336, ptr noundef nonnull @.str.1)
  br label %65

65:                                               ; preds = %47, %51, %64, %57
  %66 = phi ptr [ %63, %57 ], [ null, %64 ], [ null, %51 ], [ %48, %47 ]
  ret ptr %66
}

; Function Attrs: mustprogress uwtable
define dso_local noundef ptr @_ZN2kc31f_phylumofpatternrepresentationEPNS_26impl_patternrepresentationE(ptr noundef %0) local_unnamed_addr #0 {
  br label %2

2:                                                ; preds = %8, %1
  %3 = phi ptr [ %0, %1 ], [ %12, %8 ]
  %4 = load ptr, ptr %3, align 8, !tbaa !5
  %5 = load ptr, ptr %4, align 8
  %6 = tail call noundef i32 %5(ptr noundef nonnull align 8 dereferenceable(24) %3)
  %7 = icmp eq i32 %6, 201
  br i1 %7, label %8, label %21

8:                                                ; preds = %2
  %9 = getelementptr inbounds %"class.kc::impl_patternrepresentation", ptr %3, i64 0, i32 1
  %10 = load ptr, ptr %9, align 8, !tbaa !65
  %11 = getelementptr inbounds %"class.kc::impl_patternrepresentation", ptr %3, i64 0, i32 2
  %12 = load ptr, ptr %11, align 8, !tbaa !67
  %13 = load ptr, ptr %10, align 8, !tbaa !5
  %14 = load ptr, ptr %13, align 8
  %15 = tail call noundef i32 %14(ptr noundef nonnull align 8 dereferenceable(8) %10)
  %16 = icmp eq i32 %15, 204
  br i1 %16, label %17, label %2

17:                                               ; preds = %8
  %18 = getelementptr inbounds %"class.kc::impl_elem_patternrepresentation_PROperPredicate", ptr %10, i64 0, i32 2
  %19 = load ptr, ptr %18, align 8, !tbaa !68
  %20 = tail call noundef ptr @_ZN2kc18f_phylumofoperatorEPNS_7impl_IDE(ptr noundef %19)
  br label %29

21:                                               ; preds = %2
  %22 = load ptr, ptr %3, align 8, !tbaa !5
  %23 = load ptr, ptr %22, align 8
  %24 = tail call noundef i32 %23(ptr noundef nonnull align 8 dereferenceable(24) %3)
  %25 = icmp eq i32 %24, 200
  br i1 %25, label %26, label %28

26:                                               ; preds = %21
  %27 = tail call noundef ptr @_ZN2kc9f_emptyIdEv()
  br label %29

28:                                               ; preds = %21
  tail call void @_ZN2kc21kc_no_default_in_withEPKciS1_(ptr noundef nonnull @.str.6, i32 noundef 371, ptr noundef nonnull @.str.1)
  br label %29

29:                                               ; preds = %17, %28, %26
  %30 = phi ptr [ %27, %26 ], [ null, %28 ], [ %20, %17 ]
  ret ptr %30
}

declare noundef zeroext i1 @_ZNK2kc20impl_abstract_phylum2eqEPKS0_(ptr noundef nonnull align 8 dereferenceable(8), ptr noundef) local_unnamed_addr #2

declare noundef ptr @_ZN2kc9f_emptyIdEv() local_unnamed_addr #2

declare void @_ZN2kc8v_reportEPNS_10impl_errorE(ptr noundef) local_unnamed_addr #2

declare noundef ptr @_ZN2kc8NonFatalEPNS_13impl_filelineEPNS_12impl_problemE(ptr noundef, ptr noundef) local_unnamed_addr #2

declare noundef ptr @_ZN2kc10NoFileLineEv() local_unnamed_addr #2

declare noundef ptr @_ZN2kc9Problem1SEPKc(ptr noundef) local_unnamed_addr #2

declare noundef ptr @_ZN2kc2IdEPNS_11impl_uniqIDE(ptr noundef) local_unnamed_addr #2

declare noundef ptr @_ZN2kc3StrEPNS_20impl_casestring__StrE(ptr noundef) local_unnamed_addr #2

declare noundef ptr @_ZN2kc12mkcasestringEPKci(ptr noundef, i32 noundef) local_unnamed_addr #2

; Function Attrs: mustprogress uwtable
define dso_local noundef ptr @_ZN2kc31sort_extend_parameter_type_listEPNS_24impl_ac_declaration_listEPNS_18impl_ac_declaratorE(ptr nocapture noundef readnone %0, ptr noundef %1) local_unnamed_addr #0 {
  %3 = load ptr, ptr %1, align 8, !tbaa !5
  %4 = load ptr, ptr %3, align 8
  %5 = tail call noundef i32 %4(ptr noundef nonnull align 8 dereferenceable(8) %1)
  %6 = icmp eq i32 %5, 254
  br i1 %6, label %7, label %50

7:                                                ; preds = %2
  %8 = getelementptr inbounds %"class.kc::impl_ac_declarator_AcDeclarator", ptr %1, i64 0, i32 3
  %9 = load ptr, ptr %8, align 8, !tbaa !38
  %10 = load ptr, ptr %9, align 8, !tbaa !5
  %11 = load ptr, ptr %10, align 8
  %12 = tail call noundef i32 %11(ptr noundef nonnull align 8 dereferenceable(8) %9)
  %13 = icmp eq i32 %12, 259
  br i1 %13, label %14, label %17

14:                                               ; preds = %7
  %15 = getelementptr inbounds %"class.kc::impl_ac_direct_declarator_AcQualifiedDeclProto", ptr %9, i64 0, i32 3
  %16 = load ptr, ptr %15, align 8, !tbaa !71
  br label %51

17:                                               ; preds = %7
  %18 = load ptr, ptr %9, align 8, !tbaa !5
  %19 = load ptr, ptr %18, align 8
  %20 = tail call noundef i32 %19(ptr noundef nonnull align 8 dereferenceable(8) %9)
  %21 = icmp eq i32 %20, 258
  br i1 %21, label %22, label %25

22:                                               ; preds = %17
  %23 = getelementptr inbounds %"class.kc::impl_ac_direct_declarator_AcDirectDeclProto", ptr %9, i64 0, i32 2
  %24 = load ptr, ptr %23, align 8, !tbaa !72
  br label %51

25:                                               ; preds = %17
  %26 = load ptr, ptr %9, align 8, !tbaa !5
  %27 = load ptr, ptr %26, align 8
  %28 = tail call noundef i32 %27(ptr noundef nonnull align 8 dereferenceable(8) %9)
  %29 = icmp eq i32 %28, 257
  br i1 %29, label %30, label %33

30:                                               ; preds = %25
  %31 = tail call noundef ptr @_ZN2kc20Nilac_parameter_listEv()
  %32 = tail call noundef ptr @_ZN2kc9AcParListEPNS_22impl_ac_parameter_listE(ptr noundef %31)
  br label %51

33:                                               ; preds = %25
  %34 = load ptr, ptr %9, align 8, !tbaa !5
  %35 = load ptr, ptr %34, align 8
  %36 = tail call noundef i32 %35(ptr noundef nonnull align 8 dereferenceable(8) %9)
  %37 = icmp eq i32 %36, 256
  br i1 %37, label %38, label %41

38:                                               ; preds = %33
  %39 = tail call noundef ptr @_ZN2kc20Nilac_parameter_listEv()
  %40 = tail call noundef ptr @_ZN2kc9AcParListEPNS_22impl_ac_parameter_listE(ptr noundef %39)
  br label %51

41:                                               ; preds = %33
  %42 = load ptr, ptr %9, align 8, !tbaa !5
  %43 = load ptr, ptr %42, align 8
  %44 = tail call noundef i32 %43(ptr noundef nonnull align 8 dereferenceable(8) %9)
  %45 = icmp eq i32 %44, 255
  br i1 %45, label %46, label %49

46:                                               ; preds = %41
  %47 = tail call noundef ptr @_ZN2kc20Nilac_parameter_listEv()
  %48 = tail call noundef ptr @_ZN2kc9AcParListEPNS_22impl_ac_parameter_listE(ptr noundef %47)
  br label %51

49:                                               ; preds = %41
  tail call void @_ZN2kc21kc_no_default_in_withEPKciS1_(ptr noundef nonnull @.str.7, i32 noundef 402, ptr noundef nonnull @.str.1)
  br label %51

50:                                               ; preds = %2
  tail call void @_ZN2kc21kc_no_default_in_withEPKciS1_(ptr noundef nonnull @.str.7, i32 noundef 407, ptr noundef nonnull @.str.1)
  br label %51

51:                                               ; preds = %14, %22, %30, %38, %46, %49, %50
  %52 = phi ptr [ null, %50 ], [ %16, %14 ], [ %24, %22 ], [ %32, %30 ], [ %40, %38 ], [ %48, %46 ], [ null, %49 ]
  ret ptr %52
}

declare noundef ptr @_ZN2kc9AcParListEPNS_22impl_ac_parameter_listE(ptr noundef) local_unnamed_addr #2

declare noundef ptr @_ZN2kc20Nilac_parameter_listEv() local_unnamed_addr #2

; Function Attrs: mustprogress uwtable
define dso_local noundef ptr @_ZN2kc28t_sort_extend_parameter_listEPNS_24impl_ac_declaration_listEPNS_23impl_ac_identifier_listEPNS_22impl_ac_parameter_listE(ptr noundef %0, ptr noundef %1, ptr noundef %2) local_unnamed_addr #0 {
  %4 = load ptr, ptr %1, align 8, !tbaa !5
  %5 = load ptr, ptr %4, align 8
  %6 = tail call noundef i32 %5(ptr noundef nonnull align 8 dereferenceable(24) %1)
  %7 = icmp eq i32 %6, 283
  br i1 %7, label %8, label %104

8:                                                ; preds = %3
  %9 = getelementptr inbounds %"class.kc::impl_ac_identifier_list", ptr %1, i64 0, i32 1
  %10 = load ptr, ptr %9, align 8, !tbaa !74
  %11 = getelementptr inbounds %"class.kc::impl_ac_identifier_list", ptr %1, i64 0, i32 2
  %12 = load ptr, ptr %11, align 8, !tbaa !76
  %13 = tail call noundef ptr @_ZN2kc28t_sort_extend_parameter_listEPNS_24impl_ac_declaration_listEPNS_23impl_ac_identifier_listEPNS_22impl_ac_parameter_listE(ptr noundef %0, ptr noundef %12, ptr noundef %2)
  %14 = load ptr, ptr %0, align 8, !tbaa !5
  %15 = load ptr, ptr %14, align 8
  %16 = tail call noundef i32 %15(ptr noundef nonnull align 8 dereferenceable(24) %0)
  %17 = icmp eq i32 %16, 234
  br i1 %17, label %18, label %78

18:                                               ; preds = %8, %65
  %19 = phi ptr [ %67, %65 ], [ null, %8 ]
  %20 = phi i32 [ %66, %65 ], [ 0, %8 ]
  %21 = phi ptr [ %69, %65 ], [ %0, %8 ]
  %22 = getelementptr inbounds %"class.kc::impl_ac_declaration_list", ptr %21, i64 0, i32 1
  %23 = load ptr, ptr %22, align 8, !tbaa !77
  %24 = load ptr, ptr %23, align 8, !tbaa !5
  %25 = load ptr, ptr %24, align 8
  %26 = tail call noundef i32 %25(ptr noundef nonnull align 8 dereferenceable(8) %23)
  %27 = icmp eq i32 %26, 232
  br i1 %27, label %28, label %65

28:                                               ; preds = %18
  %29 = getelementptr inbounds %"class.kc::impl_ac_declaration_AcDeclaration", ptr %23, i64 0, i32 1
  %30 = load ptr, ptr %29, align 8, !tbaa !79
  %31 = getelementptr inbounds %"class.kc::impl_ac_declaration_AcDeclaration", ptr %23, i64 0, i32 2
  %32 = load ptr, ptr %31, align 8, !tbaa !24
  %33 = load ptr, ptr %32, align 8, !tbaa !5
  %34 = load ptr, ptr %33, align 8
  %35 = tail call noundef i32 %34(ptr noundef nonnull align 8 dereferenceable(24) %32)
  %36 = icmp eq i32 %35, 252
  br i1 %36, label %37, label %65

37:                                               ; preds = %28, %56
  %38 = phi ptr [ %60, %56 ], [ %32, %28 ]
  %39 = phi ptr [ %58, %56 ], [ %19, %28 ]
  %40 = phi i32 [ %57, %56 ], [ %20, %28 ]
  %41 = getelementptr inbounds %"class.kc::impl_ac_init_declarator_list", ptr %38, i64 0, i32 1
  %42 = load ptr, ptr %41, align 8, !tbaa !82
  %43 = load ptr, ptr %42, align 8, !tbaa !5
  %44 = load ptr, ptr %43, align 8
  %45 = tail call noundef i32 %44(ptr noundef nonnull align 8 dereferenceable(8) %42)
  %46 = icmp eq i32 %45, 253
  br i1 %46, label %47, label %56

47:                                               ; preds = %37
  %48 = getelementptr inbounds %"class.kc::impl_ac_init_declarator_AcInitDecl", ptr %42, i64 0, i32 1
  %49 = load ptr, ptr %48, align 8, !tbaa !84
  %50 = tail call noundef ptr @_ZN2kc18f_ID_of_declaratorEPNS_18impl_ac_declaratorE(ptr noundef %49)
  %51 = tail call noundef zeroext i1 @_ZNK2kc20impl_abstract_phylum2eqEPKS0_(ptr noundef nonnull align 8 dereferenceable(8) %50, ptr noundef %10)
  br i1 %51, label %52, label %56

52:                                               ; preds = %47
  %53 = tail call noundef ptr @_ZN2kc24Noac_constant_expressionEv()
  %54 = tail call noundef ptr @_ZN2kc13AcParDeclDeclEPNS_30impl_ac_declaration_specifiersEPNS_18impl_ac_declaratorEPNS_34impl_ac_constant_expression_optionE(ptr noundef %30, ptr noundef %49, ptr noundef %53)
  %55 = add nsw i32 %40, 1
  br label %56

56:                                               ; preds = %52, %47, %37
  %57 = phi i32 [ %40, %37 ], [ %55, %52 ], [ %40, %47 ]
  %58 = phi ptr [ %39, %37 ], [ %54, %52 ], [ %39, %47 ]
  %59 = getelementptr inbounds %"class.kc::impl_ac_init_declarator_list", ptr %38, i64 0, i32 2
  %60 = load ptr, ptr %59, align 8, !tbaa !24
  %61 = load ptr, ptr %60, align 8, !tbaa !5
  %62 = load ptr, ptr %61, align 8
  %63 = tail call noundef i32 %62(ptr noundef nonnull align 8 dereferenceable(24) %60)
  %64 = icmp eq i32 %63, 252
  br i1 %64, label %37, label %65, !llvm.loop !87

65:                                               ; preds = %56, %28, %18
  %66 = phi i32 [ %20, %18 ], [ %20, %28 ], [ %57, %56 ]
  %67 = phi ptr [ %19, %18 ], [ %19, %28 ], [ %58, %56 ]
  %68 = getelementptr inbounds %"class.kc::impl_ac_declaration_list", ptr %21, i64 0, i32 2
  %69 = load ptr, ptr %68, align 8, !tbaa !88
  %70 = load ptr, ptr %69, align 8, !tbaa !5
  %71 = load ptr, ptr %70, align 8
  %72 = tail call noundef i32 %71(ptr noundef nonnull align 8 dereferenceable(24) %69)
  %73 = icmp eq i32 %72, 234
  br i1 %73, label %18, label %74, !llvm.loop !89

74:                                               ; preds = %65
  %75 = icmp eq i32 %66, 1
  br i1 %75, label %101, label %76

76:                                               ; preds = %74
  %77 = icmp sgt i32 %66, 1
  br i1 %77, label %79, label %78

78:                                               ; preds = %76, %8
  br label %79

79:                                               ; preds = %78, %76
  %80 = phi ptr [ @.str.32, %78 ], [ @.str.31, %76 ]
  %81 = getelementptr inbounds %"class.kc::impl_ID", ptr %10, i64 0, i32 4
  %82 = load ptr, ptr %81, align 8, !tbaa !90
  %83 = getelementptr inbounds %"class.kc::impl_ID", ptr %10, i64 0, i32 3
  %84 = load i32, ptr %83, align 8, !tbaa !91
  %85 = tail call noundef ptr @_ZN2kc8FileLineEPNS_20impl_casestring__StrEi(ptr noundef %82, i32 noundef %84)
  %86 = tail call noundef ptr @_ZN2kc12Problem1S1IDEPKcPNS_7impl_IDE(ptr noundef nonnull %80, ptr noundef %10)
  %87 = tail call noundef ptr @_ZN2kc7WarningEPNS_13impl_filelineEPNS_12impl_problemE(ptr noundef %85, ptr noundef %86)
  tail call void @_ZN2kc8v_reportEPNS_10impl_errorE(ptr noundef %87)
  %88 = tail call noundef ptr @_ZN2kc12mkcasestringEPKci(ptr noundef nonnull @.str.5, i32 noundef -1)
  %89 = tail call noundef ptr @_ZN2kc3StrEPNS_20impl_casestring__StrE(ptr noundef %88)
  %90 = tail call noundef ptr @_ZN2kc2IdEPNS_11impl_uniqIDE(ptr noundef %89)
  %91 = tail call noundef ptr @_ZN2kc10AcTypeSpecEPNS_7impl_IDE(ptr noundef %90)
  %92 = tail call noundef ptr @_ZN2kc18AcDeclSpecTypeSpecEPNS_22impl_ac_type_specifierE(ptr noundef %91)
  %93 = tail call noundef ptr @_ZN2kc28Nilac_declaration_specifiersEv()
  %94 = tail call noundef ptr @_ZN2kc29Consac_declaration_specifiersEPNS_29impl_ac_declaration_specifierEPNS_30impl_ac_declaration_specifiersE(ptr noundef %92, ptr noundef %93)
  %95 = tail call noundef ptr @_ZN2kc9NopointerEv()
  %96 = tail call noundef ptr @_ZN2kc7AcNoRefEv()
  %97 = tail call noundef ptr @_ZN2kc14AcDirectDeclIdEPNS_7impl_IDE(ptr noundef nonnull %10)
  %98 = tail call noundef ptr @_ZN2kc12AcDeclaratorEPNS_22impl_ac_pointer_optionEPNS_18impl_ac_ref_optionEPNS_25impl_ac_direct_declaratorE(ptr noundef %95, ptr noundef %96, ptr noundef %97)
  %99 = tail call noundef ptr @_ZN2kc24Noac_constant_expressionEv()
  %100 = tail call noundef ptr @_ZN2kc13AcParDeclDeclEPNS_30impl_ac_declaration_specifiersEPNS_18impl_ac_declaratorEPNS_34impl_ac_constant_expression_optionE(ptr noundef %94, ptr noundef %98, ptr noundef %99)
  br label %101

101:                                              ; preds = %74, %79
  %102 = phi ptr [ %100, %79 ], [ %67, %74 ]
  %103 = tail call noundef ptr @_ZN2kc21Consac_parameter_listEPNS_29impl_ac_parameter_declarationEPNS_22impl_ac_parameter_listE(ptr noundef %102, ptr noundef %13)
  br label %110

104:                                              ; preds = %3
  %105 = load ptr, ptr %1, align 8, !tbaa !5
  %106 = load ptr, ptr %105, align 8
  %107 = tail call noundef i32 %106(ptr noundef nonnull align 8 dereferenceable(24) %1)
  %108 = icmp eq i32 %107, 282
  br i1 %108, label %110, label %109

109:                                              ; preds = %104
  tail call void @_ZN2kc21kc_no_default_in_withEPKciS1_(ptr noundef nonnull @.str.8, i32 noundef 428, ptr noundef nonnull @.str.1)
  br label %110

110:                                              ; preds = %104, %109, %101
  %111 = phi ptr [ %103, %101 ], [ null, %109 ], [ %2, %104 ]
  ret ptr %111
}

declare noundef ptr @_ZN2kc21Consac_parameter_listEPNS_29impl_ac_parameter_declarationEPNS_22impl_ac_parameter_listE(ptr noundef, ptr noundef) local_unnamed_addr #2

; Function Attrs: mustprogress uwtable
define dso_local void @_ZN2kc7unparseEPKcRNS_21printer_functor_classERNS_11uview_classE(ptr noundef %0, ptr noundef nonnull align 8 dereferenceable(8) %1, ptr noundef nonnull align 4 dereferenceable(4) %2) local_unnamed_addr #0 {
  %4 = load ptr, ptr %1, align 8, !tbaa !5
  %5 = load ptr, ptr %4, align 8
  tail call void %5(ptr noundef nonnull align 8 dereferenceable(8) %1, ptr noundef %0, ptr noundef nonnull align 4 dereferenceable(4) %2)
  ret void
}

; Function Attrs: mustprogress nofree norecurse nosync nounwind willreturn memory(argmem: write) uwtable
define dso_local noundef nonnull ptr @_ZN2kc13impl_charruns3setEi(ptr noundef nonnull returned writeonly align 8 dereferenceable(12) %0, i32 noundef %1) local_unnamed_addr #4 align 2 {
  %3 = getelementptr inbounds %"class.kc::impl_charruns", ptr %0, i64 0, i32 1
  store i32 %1, ptr %3, align 8, !tbaa !92
  ret ptr %0
}

; Function Attrs: mustprogress uwtable
define dso_local noundef ptr @_ZN2kc10f_mkselvarEPKci(ptr nocapture noundef readonly %0, i32 noundef %1) local_unnamed_addr #0 {
  %3 = alloca [8192 x i8], align 16
  call void @llvm.lifetime.start.p0(i64 8192, ptr nonnull %3) #13
  %4 = tail call i64 @strlen(ptr noundef nonnull dereferenceable(1) %0) #12
  %5 = add i64 %4, 31
  %6 = icmp ugt i64 %5, 8192
  br i1 %6, label %7, label %9

7:                                                ; preds = %2
  %8 = tail call noalias noundef nonnull ptr @_Znam(i64 noundef %5) #14
  br label %9

9:                                                ; preds = %2, %7
  %10 = phi ptr [ %8, %7 ], [ %3, %2 ]
  %11 = phi ptr [ %8, %7 ], [ null, %2 ]
  %12 = call ptr @strcpy(ptr noundef nonnull dereferenceable(1) %10, ptr noundef nonnull dereferenceable(1) %0) #13
  %13 = call i64 @strlen(ptr noundef nonnull dereferenceable(1) %0) #12
  %14 = getelementptr inbounds i8, ptr %10, i64 %13
  %15 = call i32 (ptr, ptr, ...) @sprintf(ptr noundef nonnull dereferenceable(1) %14, ptr noundef nonnull dereferenceable(1) @.str.9, i32 noundef %1) #13
  %16 = call noundef ptr @_ZN2kc12mkcasestringEPKci(ptr noundef nonnull %10, i32 noundef -1)
  %17 = call noundef ptr @_ZN2kc3StrEPNS_20impl_casestring__StrE(ptr noundef %16)
  %18 = call noundef ptr @_ZN2kc2IdEPNS_11impl_uniqIDE(ptr noundef %17)
  %19 = icmp eq ptr %11, null
  br i1 %19, label %21, label %20

20:                                               ; preds = %9
  call void @_ZdaPv(ptr noundef nonnull %11) #15
  br label %21

21:                                               ; preds = %20, %9
  call void @llvm.lifetime.end.p0(i64 8192, ptr nonnull %3) #13
  ret ptr %18
}

; Function Attrs: mustprogress nofree nounwind willreturn memory(argmem: read)
declare i64 @strlen(ptr nocapture noundef) local_unnamed_addr #5

; Function Attrs: nobuiltin allocsize(0)
declare noundef nonnull ptr @_Znam(i64 noundef) local_unnamed_addr #6

; Function Attrs: mustprogress nofree nounwind willreturn memory(argmem: readwrite)
declare ptr @strcpy(ptr noalias noundef returned writeonly, ptr noalias nocapture noundef readonly) local_unnamed_addr #7

; Function Attrs: nofree nounwind
declare noundef i32 @sprintf(ptr noalias nocapture noundef writeonly, ptr nocapture noundef readonly, ...) local_unnamed_addr #8

; Function Attrs: nobuiltin nounwind
declare void @_ZdaPv(ptr noundef) local_unnamed_addr #9

; Function Attrs: mustprogress uwtable
define dso_local noundef ptr @_ZN2kc11f_mkselvar2EPKcii(ptr nocapture noundef readonly %0, i32 noundef %1, i32 noundef %2) local_unnamed_addr #0 {
  %4 = alloca [8192 x i8], align 16
  call void @llvm.lifetime.start.p0(i64 8192, ptr nonnull %4) #13
  %5 = tail call i64 @strlen(ptr noundef nonnull dereferenceable(1) %0) #12
  %6 = add i64 %5, 62
  %7 = icmp ugt i64 %6, 8192
  br i1 %7, label %8, label %10

8:                                                ; preds = %3
  %9 = tail call noalias noundef nonnull ptr @_Znam(i64 noundef %6) #14
  br label %10

10:                                               ; preds = %3, %8
  %11 = phi ptr [ %9, %8 ], [ %4, %3 ]
  %12 = phi ptr [ %9, %8 ], [ null, %3 ]
  %13 = call ptr @strcpy(ptr noundef nonnull dereferenceable(1) %11, ptr noundef nonnull dereferenceable(1) %0) #13
  %14 = call i64 @strlen(ptr noundef nonnull dereferenceable(1) %0) #12
  %15 = getelementptr inbounds i8, ptr %11, i64 %14
  %16 = call i32 (ptr, ptr, ...) @sprintf(ptr noundef nonnull dereferenceable(1) %15, ptr noundef nonnull dereferenceable(1) @.str.10, i32 noundef %1, i32 noundef %2) #13
  %17 = call noundef ptr @_ZN2kc12mkcasestringEPKci(ptr noundef nonnull %11, i32 noundef -1)
  %18 = call noundef ptr @_ZN2kc3StrEPNS_20impl_casestring__StrE(ptr noundef %17)
  %19 = call noundef ptr @_ZN2kc2IdEPNS_11impl_uniqIDE(ptr noundef %18)
  %20 = icmp eq ptr %12, null
  br i1 %20, label %22, label %21

21:                                               ; preds = %10
  call void @_ZdaPv(ptr noundef nonnull %12) #15
  br label %22

22:                                               ; preds = %21, %10
  call void @llvm.lifetime.end.p0(i64 8192, ptr nonnull %4) #13
  ret ptr %19
}

; Function Attrs: mustprogress uwtable
define dso_local noundef nonnull ptr @_ZN2kc13f_mk_filenameEPNS_20impl_casestring__StrEPKc(ptr nocapture noundef readonly %0, ptr nocapture noundef readonly %1) local_unnamed_addr #0 {
  %3 = getelementptr inbounds %"class.kc::impl_casestring__Str", ptr %0, i64 0, i32 1
  %4 = load ptr, ptr %3, align 8, !tbaa !52
  %5 = tail call noundef ptr @strrchr(ptr noundef nonnull dereferenceable(1) %4, i32 noundef 47) #12
  %6 = icmp eq ptr %5, null
  %7 = select i1 %6, ptr %4, ptr %5
  %8 = load i8, ptr %7, align 1, !tbaa !94
  switch i8 %8, label %13 [
    i8 47, label %9
    i8 34, label %11
  ]

9:                                                ; preds = %2
  %10 = getelementptr inbounds i8, ptr %7, i64 1
  br label %13

11:                                               ; preds = %2
  %12 = getelementptr inbounds i8, ptr %7, i64 1
  br label %13

13:                                               ; preds = %2, %11, %9
  %14 = phi ptr [ %10, %9 ], [ %12, %11 ], [ %7, %2 ]
  %15 = tail call i64 @strlen(ptr noundef nonnull dereferenceable(1) %14) #12
  %16 = tail call i64 @strlen(ptr noundef nonnull dereferenceable(1) %1) #12
  %17 = add i64 %15, 1
  %18 = add i64 %17, %16
  %19 = tail call noalias noundef nonnull ptr @_Znam(i64 noundef %18) #14
  %20 = tail call ptr @strcpy(ptr noundef nonnull dereferenceable(1) %19, ptr noundef nonnull dereferenceable(1) %14) #13
  %21 = icmp eq i64 %15, 0
  br i1 %21, label %42, label %22

22:                                               ; preds = %13
  %23 = add i64 %15, -1
  %24 = getelementptr inbounds i8, ptr %19, i64 %23
  %25 = load i8, ptr %24, align 1, !tbaa !94
  %26 = icmp eq i8 %25, 34
  br i1 %26, label %27, label %28

27:                                               ; preds = %22
  store i8 0, ptr %24, align 1, !tbaa !94
  br label %28

28:                                               ; preds = %27, %22
  %29 = phi i64 [ %23, %27 ], [ %15, %22 ]
  %30 = icmp ugt i64 %29, 1
  br i1 %30, label %31, label %42

31:                                               ; preds = %28
  %32 = add i64 %29, -1
  %33 = getelementptr inbounds i8, ptr %19, i64 %32
  %34 = load i8, ptr %33, align 1, !tbaa !94
  %35 = icmp eq i8 %34, 107
  br i1 %35, label %36, label %42

36:                                               ; preds = %31
  %37 = add i64 %29, -2
  %38 = getelementptr inbounds i8, ptr %19, i64 %37
  %39 = load i8, ptr %38, align 1, !tbaa !94
  %40 = icmp eq i8 %39, 46
  %41 = select i1 %40, i64 %37, i64 %29
  br label %42

42:                                               ; preds = %13, %36, %31, %28
  %43 = phi i64 [ %29, %31 ], [ %29, %28 ], [ %41, %36 ], [ 0, %13 ]
  %44 = load i8, ptr %1, align 1
  %45 = icmp eq i8 %44, 0
  %46 = getelementptr inbounds i8, ptr %19, i64 %43
  br i1 %45, label %47, label %48

47:                                               ; preds = %42
  store i8 0, ptr %46, align 1, !tbaa !94
  br label %57

48:                                               ; preds = %42
  store i8 46, ptr %46, align 1, !tbaa !94
  %49 = getelementptr inbounds i8, ptr %46, i64 1
  store i8 %44, ptr %49, align 1, !tbaa !94
  br label %50

50:                                               ; preds = %48, %50
  %51 = phi ptr [ %49, %48 ], [ %55, %50 ]
  %52 = phi ptr [ %1, %48 ], [ %53, %50 ]
  %53 = getelementptr inbounds i8, ptr %52, i64 1
  %54 = load i8, ptr %53, align 1, !tbaa !94
  %55 = getelementptr inbounds i8, ptr %51, i64 1
  store i8 %54, ptr %55, align 1, !tbaa !94
  %56 = icmp eq i8 %54, 0
  br i1 %56, label %57, label %50, !llvm.loop !95

57:                                               ; preds = %50, %47
  ret ptr %19
}

; Function Attrs: mustprogress nofree nounwind willreturn memory(argmem: read)
declare noundef ptr @strrchr(ptr noundef, i32 noundef) local_unnamed_addr #5

; Function Attrs: mustprogress uwtable
define dso_local noundef nonnull ptr @_ZN2kc13f_mk_filenameEPNS_20impl_casestring__StrERKNSt7__cxx1112basic_stringIcSt11char_traitsIcESaIcEEE(ptr nocapture noundef readonly %0, ptr nocapture noundef nonnull readonly align 8 dereferenceable(32) %1) local_unnamed_addr #0 personality ptr @__gxx_personality_v0 {
  %3 = load ptr, ptr %1, align 8, !tbaa !96
  %4 = tail call noundef ptr @_ZN2kc13f_mk_filenameEPNS_20impl_casestring__StrEPKc(ptr noundef %0, ptr noundef %3)
  ret ptr %4
}

; Function Attrs: mustprogress uwtable
define dso_local noundef nonnull ptr @_ZN2kc26f_make_identifier_basenameEPKc(ptr nocapture noundef readonly %0) local_unnamed_addr #0 {
  %2 = tail call i64 @strlen(ptr noundef nonnull dereferenceable(1) %0) #12
  %3 = add i64 %2, -2
  %4 = add i64 %2, -1
  %5 = tail call noalias noundef nonnull ptr @_Znam(i64 noundef %4) #14
  %6 = tail call ptr @strncpy(ptr noundef nonnull %5, ptr noundef %0, i64 noundef %3) #13
  %7 = getelementptr inbounds i8, ptr %5, i64 %3
  store i8 0, ptr %7, align 1, !tbaa !94
  %8 = icmp eq i64 %3, 0
  br i1 %8, label %9, label %10

9:                                                ; preds = %18, %1
  ret ptr %5

10:                                               ; preds = %1, %18
  %11 = phi i64 [ %20, %18 ], [ 0, %1 ]
  %12 = getelementptr inbounds i8, ptr %5, i64 %11
  %13 = load i8, ptr %12, align 1, !tbaa !94
  %14 = sext i8 %13 to i32
  %15 = tail call i32 @isalnum(i32 noundef %14) #12
  %16 = icmp eq i32 %15, 0
  br i1 %16, label %17, label %18

17:                                               ; preds = %10
  store i8 95, ptr %12, align 1, !tbaa !94
  br label %18

18:                                               ; preds = %10, %17
  %19 = add nuw nsw i64 %11, 1
  %20 = and i64 %19, 4294967295
  %21 = icmp ugt i64 %3, %20
  br i1 %21, label %10, label %9, !llvm.loop !100
}

; Function Attrs: mustprogress nofree nounwind willreturn memory(argmem: readwrite)
declare ptr @strncpy(ptr noalias noundef returned writeonly, ptr noalias nocapture noundef readonly, i64 noundef) local_unnamed_addr #7

; Function Attrs: mustprogress nofree nounwind willreturn memory(read)
declare i32 @isalnum(i32 noundef) local_unnamed_addr #10

; Function Attrs: mustprogress uwtable
define dso_local noundef ptr @_ZN2kc37f_rewriterulesinfoofalternativeinviewEPNS_16impl_alternativeEPNS_7impl_IDE(ptr nocapture noundef readonly %0, ptr noundef %1) local_unnamed_addr #0 {
  store ptr %1, ptr @_ZL17global_filterview, align 8, !tbaa !24
  %3 = getelementptr inbounds %"class.kc::impl_alternative", ptr %0, i64 0, i32 1
  %4 = load ptr, ptr %3, align 8, !tbaa !101
  %5 = tail call noundef ptr @_ZN2kc21impl_rewriterulesinfo6filterEPFbPNS_20impl_rewriteruleinfoEE(ptr noundef nonnull align 8 dereferenceable(24) %4, ptr noundef nonnull @_ZN2kcL27filterrewriteruleinfoonviewEPNS_20impl_rewriteruleinfoE)
  ret ptr %5
}

declare noundef ptr @_ZN2kc21impl_rewriterulesinfo6filterEPFbPNS_20impl_rewriteruleinfoEE(ptr noundef nonnull align 8 dereferenceable(24), ptr noundef) local_unnamed_addr #2

; Function Attrs: mustprogress uwtable
define internal noundef zeroext i1 @_ZN2kcL27filterrewriteruleinfoonviewEPNS_20impl_rewriteruleinfoE(ptr noundef %0) #0 {
  %2 = load ptr, ptr @_ZL17global_filterview, align 8, !tbaa !24
  %3 = load ptr, ptr %0, align 8, !tbaa !5
  %4 = load ptr, ptr %3, align 8
  %5 = tail call noundef i32 %4(ptr noundef nonnull align 8 dereferenceable(8) %0)
  %6 = icmp eq i32 %5, 219
  br i1 %6, label %7, label %34

7:                                                ; preds = %1
  %8 = getelementptr inbounds %"class.kc::impl_rewriteruleinfo_Rewriteruleinfo", ptr %0, i64 0, i32 3
  %9 = load ptr, ptr %8, align 8, !tbaa !102
  %10 = load ptr, ptr %9, align 8, !tbaa !5
  %11 = load ptr, ptr %10, align 8
  %12 = tail call noundef i32 %11(ptr noundef nonnull align 8 dereferenceable(8) %9)
  %13 = icmp eq i32 %12, 70
  br i1 %13, label %14, label %34

14:                                               ; preds = %7
  %15 = load ptr, ptr %8, align 8, !tbaa !102
  %16 = getelementptr inbounds %"class.kc::impl_rewriteclause_RewriteClause", ptr %15, i64 0, i32 1
  %17 = load ptr, ptr %16, align 8, !tbaa !105
  %18 = load ptr, ptr %17, align 8, !tbaa !5
  %19 = load ptr, ptr %18, align 8
  %20 = tail call noundef i32 %19(ptr noundef nonnull align 8 dereferenceable(32) %17)
  %21 = icmp eq i32 %20, 145
  br i1 %21, label %22, label %35

22:                                               ; preds = %14, %27
  %23 = phi ptr [ %29, %27 ], [ %17, %14 ]
  %24 = getelementptr inbounds %"class.kc::impl_viewnames", ptr %23, i64 0, i32 2
  %25 = load ptr, ptr %24, align 8, !tbaa !108
  %26 = tail call noundef zeroext i1 @_ZNK2kc20impl_abstract_phylum2eqEPKS0_(ptr noundef nonnull align 8 dereferenceable(8) %2, ptr noundef %25)
  br i1 %26, label %35, label %27

27:                                               ; preds = %22
  %28 = getelementptr inbounds %"class.kc::impl_viewnames", ptr %23, i64 0, i32 3
  %29 = load ptr, ptr %28, align 8, !tbaa !110
  %30 = load ptr, ptr %29, align 8, !tbaa !5
  %31 = load ptr, ptr %30, align 8
  %32 = tail call noundef i32 %31(ptr noundef nonnull align 8 dereferenceable(32) %29)
  %33 = icmp eq i32 %32, 145
  br i1 %33, label %22, label %35

34:                                               ; preds = %7, %1
  tail call void @_ZN2kc21kc_no_default_in_withEPKciS1_(ptr noundef nonnull @.str.33, i32 noundef 719, ptr noundef nonnull @.str.1)
  br label %35

35:                                               ; preds = %22, %27, %14, %34
  %36 = phi i1 [ false, %34 ], [ false, %14 ], [ %26, %27 ], [ %26, %22 ]
  ret i1 %36
}

; Function Attrs: mustprogress uwtable
define dso_local noundef ptr @_ZN2kc33f_rewriteviewsinfo_of_alternativeEPNS_16impl_alternativeEPNS_14impl_viewnamesE(ptr nocapture noundef readonly %0, ptr noundef %1) local_unnamed_addr #0 {
  %3 = getelementptr inbounds %"class.kc::impl_alternative", ptr %0, i64 0, i32 1
  %4 = load ptr, ptr %3, align 8, !tbaa !101
  %5 = tail call noundef ptr @_ZN2kc19NilrewriteviewsinfoEv()
  %6 = load ptr, ptr %1, align 8, !tbaa !5
  %7 = load ptr, ptr %6, align 8
  %8 = tail call noundef i32 %7(ptr noundef nonnull align 8 dereferenceable(32) %1)
  %9 = icmp eq i32 %8, 145
  br i1 %9, label %10, label %24

10:                                               ; preds = %2, %10
  %11 = phi ptr [ %17, %10 ], [ %5, %2 ]
  %12 = phi ptr [ %19, %10 ], [ %1, %2 ]
  %13 = getelementptr inbounds %"class.kc::impl_viewnames", ptr %12, i64 0, i32 2
  %14 = load ptr, ptr %13, align 8, !tbaa !108
  store ptr %14, ptr @_ZL17global_filterview, align 8, !tbaa !24
  %15 = tail call noundef ptr @_ZN2kc21impl_rewriterulesinfo6filterEPFbPNS_20impl_rewriteruleinfoEE(ptr noundef nonnull align 8 dereferenceable(24) %4, ptr noundef nonnull @_ZN2kcL27filterrewriteruleinfoonviewEPNS_20impl_rewriteruleinfoE)
  %16 = tail call noundef ptr @_ZN2kc15RewriteviewinfoEPNS_7impl_IDEPNS_21impl_rewriterulesinfoE(ptr noundef %14, ptr noundef %15)
  %17 = tail call noundef ptr @_ZN2kc20ConsrewriteviewsinfoEPNS_20impl_rewriteviewinfoEPNS_21impl_rewriteviewsinfoE(ptr noundef %16, ptr noundef %11)
  %18 = getelementptr inbounds %"class.kc::impl_viewnames", ptr %12, i64 0, i32 3
  %19 = load ptr, ptr %18, align 8, !tbaa !110
  %20 = load ptr, ptr %19, align 8, !tbaa !5
  %21 = load ptr, ptr %20, align 8
  %22 = tail call noundef i32 %21(ptr noundef nonnull align 8 dereferenceable(32) %19)
  %23 = icmp eq i32 %22, 145
  br i1 %23, label %10, label %24, !llvm.loop !111

24:                                               ; preds = %10, %2
  %25 = phi ptr [ %5, %2 ], [ %17, %10 ]
  ret ptr %25
}

declare noundef ptr @_ZN2kc19NilrewriteviewsinfoEv() local_unnamed_addr #2

declare noundef ptr @_ZN2kc20ConsrewriteviewsinfoEPNS_20impl_rewriteviewinfoEPNS_21impl_rewriteviewsinfoE(ptr noundef, ptr noundef) local_unnamed_addr #2

declare noundef ptr @_ZN2kc15RewriteviewinfoEPNS_7impl_IDEPNS_21impl_rewriterulesinfoE(ptr noundef, ptr noundef) local_unnamed_addr #2

; Function Attrs: mustprogress uwtable
define dso_local noundef ptr @_ZN2kc33f_unparseviewsinfo_of_alternativeEPNS_16impl_alternativeEPNS_14impl_viewnamesE(ptr nocapture noundef readonly %0, ptr noundef %1) local_unnamed_addr #0 {
  %3 = getelementptr inbounds %"class.kc::impl_alternative", ptr %0, i64 0, i32 2
  %4 = load ptr, ptr %3, align 8, !tbaa !112
  %5 = tail call noundef ptr @_ZN2kc19NilunparseviewsinfoEv()
  %6 = load ptr, ptr %1, align 8, !tbaa !5
  %7 = load ptr, ptr %6, align 8
  %8 = tail call noundef i32 %7(ptr noundef nonnull align 8 dereferenceable(32) %1)
  %9 = icmp eq i32 %8, 145
  br i1 %9, label %10, label %24

10:                                               ; preds = %2, %10
  %11 = phi ptr [ %17, %10 ], [ %5, %2 ]
  %12 = phi ptr [ %19, %10 ], [ %1, %2 ]
  %13 = getelementptr inbounds %"class.kc::impl_viewnames", ptr %12, i64 0, i32 2
  %14 = load ptr, ptr %13, align 8, !tbaa !108
  store ptr %14, ptr @_ZL17global_filterview, align 8, !tbaa !24
  %15 = tail call noundef ptr @_ZN2kc21impl_unparsedeclsinfo6filterEPFbPNS_20impl_unparsedeclinfoEE(ptr noundef nonnull align 8 dereferenceable(24) %4, ptr noundef nonnull @_ZN2kcL27filterunparsedeclinfoonviewEPNS_20impl_unparsedeclinfoE)
  %16 = tail call noundef ptr @_ZN2kc15UnparseviewinfoEPNS_7impl_IDEPNS_21impl_unparsedeclsinfoE(ptr noundef %14, ptr noundef %15)
  %17 = tail call noundef ptr @_ZN2kc20ConsunparseviewsinfoEPNS_20impl_unparseviewinfoEPNS_21impl_unparseviewsinfoE(ptr noundef %16, ptr noundef %11)
  %18 = getelementptr inbounds %"class.kc::impl_viewnames", ptr %12, i64 0, i32 3
  %19 = load ptr, ptr %18, align 8, !tbaa !110
  %20 = load ptr, ptr %19, align 8, !tbaa !5
  %21 = load ptr, ptr %20, align 8
  %22 = tail call noundef i32 %21(ptr noundef nonnull align 8 dereferenceable(32) %19)
  %23 = icmp eq i32 %22, 145
  br i1 %23, label %10, label %24, !llvm.loop !113

24:                                               ; preds = %10, %2
  %25 = phi ptr [ %5, %2 ], [ %17, %10 ]
  ret ptr %25
}

declare noundef ptr @_ZN2kc19NilunparseviewsinfoEv() local_unnamed_addr #2

declare noundef ptr @_ZN2kc20ConsunparseviewsinfoEPNS_20impl_unparseviewinfoEPNS_21impl_unparseviewsinfoE(ptr noundef, ptr noundef) local_unnamed_addr #2

declare noundef ptr @_ZN2kc15UnparseviewinfoEPNS_7impl_IDEPNS_21impl_unparsedeclsinfoE(ptr noundef, ptr noundef) local_unnamed_addr #2

declare noundef ptr @_ZN2kc21impl_unparsedeclsinfo6filterEPFbPNS_20impl_unparsedeclinfoEE(ptr noundef nonnull align 8 dereferenceable(24), ptr noundef) local_unnamed_addr #2

; Function Attrs: mustprogress uwtable
define internal noundef zeroext i1 @_ZN2kcL27filterunparsedeclinfoonviewEPNS_20impl_unparsedeclinfoE(ptr noundef %0) #0 {
  %2 = load ptr, ptr @_ZL17global_filterview, align 8, !tbaa !24
  %3 = load ptr, ptr %0, align 8, !tbaa !5
  %4 = load ptr, ptr %3, align 8
  %5 = tail call noundef i32 %4(ptr noundef nonnull align 8 dereferenceable(8) %0)
  %6 = icmp eq i32 %5, 231
  br i1 %6, label %7, label %34

7:                                                ; preds = %1
  %8 = getelementptr inbounds %"class.kc::impl_unparsedeclinfo_Unparsedeclinfo", ptr %0, i64 0, i32 3
  %9 = load ptr, ptr %8, align 8, !tbaa !114
  %10 = load ptr, ptr %9, align 8, !tbaa !5
  %11 = load ptr, ptr %10, align 8
  %12 = tail call noundef i32 %11(ptr noundef nonnull align 8 dereferenceable(8) %9)
  %13 = icmp eq i32 %12, 143
  br i1 %13, label %14, label %34

14:                                               ; preds = %7
  %15 = load ptr, ptr %8, align 8, !tbaa !114
  %16 = getelementptr inbounds %"class.kc::impl_unparseclause_UnparseClause", ptr %15, i64 0, i32 1
  %17 = load ptr, ptr %16, align 8, !tbaa !117
  %18 = load ptr, ptr %17, align 8, !tbaa !5
  %19 = load ptr, ptr %18, align 8
  %20 = tail call noundef i32 %19(ptr noundef nonnull align 8 dereferenceable(32) %17)
  %21 = icmp eq i32 %20, 145
  br i1 %21, label %22, label %35

22:                                               ; preds = %14, %27
  %23 = phi ptr [ %29, %27 ], [ %17, %14 ]
  %24 = getelementptr inbounds %"class.kc::impl_viewnames", ptr %23, i64 0, i32 2
  %25 = load ptr, ptr %24, align 8, !tbaa !108
  %26 = tail call noundef zeroext i1 @_ZNK2kc20impl_abstract_phylum2eqEPKS0_(ptr noundef nonnull align 8 dereferenceable(8) %2, ptr noundef %25)
  br i1 %26, label %35, label %27

27:                                               ; preds = %22
  %28 = getelementptr inbounds %"class.kc::impl_viewnames", ptr %23, i64 0, i32 3
  %29 = load ptr, ptr %28, align 8, !tbaa !110
  %30 = load ptr, ptr %29, align 8, !tbaa !5
  %31 = load ptr, ptr %30, align 8
  %32 = tail call noundef i32 %31(ptr noundef nonnull align 8 dereferenceable(32) %29)
  %33 = icmp eq i32 %32, 145
  br i1 %33, label %22, label %35

34:                                               ; preds = %7, %1
  tail call void @_ZN2kc21kc_no_default_in_withEPKciS1_(ptr noundef nonnull @.str.34, i32 noundef 735, ptr noundef nonnull @.str.1)
  br label %35

35:                                               ; preds = %22, %27, %14, %34
  %36 = phi i1 [ false, %34 ], [ false, %14 ], [ %26, %27 ], [ %26, %22 ]
  ret i1 %36
}

; Function Attrs: mustprogress uwtable
define dso_local noundef ptr @_ZN2kc8f_typeofEPNS_9impl_pathE(ptr noundef %0) local_unnamed_addr #0 {
  %2 = getelementptr inbounds %"class.kc::impl_path", ptr %0, i64 0, i32 2
  %3 = load ptr, ptr %2, align 8, !tbaa !120
  %4 = tail call noundef ptr @_ZN2kc9f_emptyIdEv()
  %5 = tail call noundef zeroext i1 @_ZNK2kc20impl_abstract_phylum2eqEPKS0_(ptr noundef nonnull align 8 dereferenceable(8) %3, ptr noundef %4)
  br i1 %5, label %6, label %30

6:                                                ; preds = %1
  %7 = load ptr, ptr %0, align 8, !tbaa !5
  %8 = load ptr, ptr %7, align 8
  %9 = tail call noundef i32 %8(ptr noundef nonnull align 8 dereferenceable(40) %0)
  %10 = icmp eq i32 %9, 212
  br i1 %10, label %11, label %20

11:                                               ; preds = %6
  %12 = getelementptr inbounds %"class.kc::impl_path", ptr %0, i64 0, i32 3
  %13 = load ptr, ptr %12, align 8, !tbaa !122
  %14 = getelementptr inbounds %"class.kc::impl_path", ptr %0, i64 0, i32 4
  %15 = load ptr, ptr %14, align 8, !tbaa !123
  %16 = getelementptr inbounds %"class.kc::impl_path", ptr %15, i64 0, i32 1
  %17 = load ptr, ptr %16, align 8, !tbaa !124
  %18 = tail call noundef ptr @_ZN2kc3IntEPNS_17impl_integer__IntE(ptr noundef %13)
  %19 = tail call noundef ptr @_ZN2kc21f_subphylumofoperatorEPNS_7impl_IDEPNS_8impl_INTE(ptr noundef %17, ptr noundef %18)
  br label %32

20:                                               ; preds = %6
  %21 = load ptr, ptr %0, align 8, !tbaa !5
  %22 = load ptr, ptr %21, align 8
  %23 = tail call noundef i32 %22(ptr noundef nonnull align 8 dereferenceable(40) %0)
  %24 = icmp eq i32 %23, 211
  br i1 %24, label %25, label %29

25:                                               ; preds = %20
  %26 = getelementptr inbounds %"class.kc::impl_path", ptr %0, i64 0, i32 1
  %27 = load ptr, ptr %26, align 8, !tbaa !124
  %28 = tail call noundef ptr @_ZN2kc18f_phylumofoperatorEPNS_7impl_IDE(ptr noundef %27)
  br label %32

29:                                               ; preds = %20
  tail call void @_ZN2kc21kc_no_default_in_withEPKciS1_(ptr noundef nonnull @.str.11, i32 noundef 787, ptr noundef nonnull @.str.1)
  br label %32

30:                                               ; preds = %1
  %31 = load ptr, ptr %2, align 8, !tbaa !120
  br label %32

32:                                               ; preds = %11, %25, %29, %30
  %33 = phi ptr [ %31, %30 ], [ %19, %11 ], [ %28, %25 ], [ null, %29 ]
  ret ptr %33
}

declare noundef ptr @_ZN2kc21f_subphylumofoperatorEPNS_7impl_IDEPNS_8impl_INTE(ptr noundef, ptr noundef) local_unnamed_addr #2

declare noundef ptr @_ZN2kc3IntEPNS_17impl_integer__IntE(ptr noundef) local_unnamed_addr #2

; Function Attrs: mustprogress uwtable
define dso_local noundef ptr @_ZN2kc33f_operatorofpatternrepresentationEPNS_26impl_patternrepresentationE(ptr noundef %0) local_unnamed_addr #0 {
  %2 = load ptr, ptr %0, align 8, !tbaa !5
  %3 = load ptr, ptr %2, align 8
  %4 = tail call noundef i32 %3(ptr noundef nonnull align 8 dereferenceable(24) %0)
  %5 = icmp eq i32 %4, 201
  br i1 %5, label %6, label %220

6:                                                ; preds = %1
  %7 = getelementptr inbounds %"class.kc::impl_patternrepresentation", ptr %0, i64 0, i32 1
  %8 = load ptr, ptr %7, align 8, !tbaa !65
  %9 = load ptr, ptr %8, align 8, !tbaa !5
  %10 = load ptr, ptr %9, align 8
  %11 = tail call noundef i32 %10(ptr noundef nonnull align 8 dereferenceable(8) %8)
  %12 = icmp eq i32 %11, 208
  br i1 %12, label %13, label %15

13:                                               ; preds = %6
  %14 = tail call noundef ptr @_ZN2kc9f_emptyIdEv()
  br label %228

15:                                               ; preds = %6
  %16 = load ptr, ptr %8, align 8, !tbaa !5
  %17 = load ptr, ptr %16, align 8
  %18 = tail call noundef i32 %17(ptr noundef nonnull align 8 dereferenceable(8) %8)
  %19 = icmp eq i32 %18, 205
  br i1 %19, label %20, label %22

20:                                               ; preds = %15
  %21 = tail call noundef ptr @_ZN2kc9f_emptyIdEv()
  br label %228

22:                                               ; preds = %15
  %23 = load ptr, ptr %8, align 8, !tbaa !5
  %24 = load ptr, ptr %23, align 8
  %25 = tail call noundef i32 %24(ptr noundef nonnull align 8 dereferenceable(8) %8)
  %26 = icmp eq i32 %25, 210
  br i1 %26, label %27, label %48

27:                                               ; preds = %22
  %28 = getelementptr inbounds %"class.kc::impl_elem_patternrepresentation_PRIntLiteral", ptr %8, i64 0, i32 1
  %29 = load ptr, ptr %28, align 8, !tbaa !125
  %30 = load ptr, ptr %29, align 8, !tbaa !5
  %31 = load ptr, ptr %30, align 8
  %32 = tail call noundef i32 %31(ptr noundef nonnull align 8 dereferenceable(40) %29)
  %33 = icmp eq i32 %32, 212
  br i1 %33, label %34, label %39

34:                                               ; preds = %27
  %35 = getelementptr inbounds %"class.kc::impl_path", ptr %29, i64 0, i32 4
  %36 = load ptr, ptr %35, align 8, !tbaa !123
  %37 = getelementptr inbounds %"class.kc::impl_path", ptr %36, i64 0, i32 1
  %38 = load ptr, ptr %37, align 8, !tbaa !124
  br label %228

39:                                               ; preds = %27
  %40 = load ptr, ptr %29, align 8, !tbaa !5
  %41 = load ptr, ptr %40, align 8
  %42 = tail call noundef i32 %41(ptr noundef nonnull align 8 dereferenceable(40) %29)
  %43 = icmp eq i32 %42, 211
  br i1 %43, label %44, label %47

44:                                               ; preds = %39
  %45 = getelementptr inbounds %"class.kc::impl_path", ptr %29, i64 0, i32 1
  %46 = load ptr, ptr %45, align 8, !tbaa !124
  br label %228

47:                                               ; preds = %39
  tail call void @_ZN2kc21kc_no_default_in_withEPKciS1_(ptr noundef nonnull @.str.36, i32 noundef 897, ptr noundef nonnull @.str.1)
  br label %228

48:                                               ; preds = %22
  %49 = load ptr, ptr %8, align 8, !tbaa !5
  %50 = load ptr, ptr %49, align 8
  %51 = tail call noundef i32 %50(ptr noundef nonnull align 8 dereferenceable(8) %8)
  %52 = icmp eq i32 %51, 209
  br i1 %52, label %53, label %74

53:                                               ; preds = %48
  %54 = getelementptr inbounds %"class.kc::impl_elem_patternrepresentation_PRStringLiteral", ptr %8, i64 0, i32 1
  %55 = load ptr, ptr %54, align 8, !tbaa !127
  %56 = load ptr, ptr %55, align 8, !tbaa !5
  %57 = load ptr, ptr %56, align 8
  %58 = tail call noundef i32 %57(ptr noundef nonnull align 8 dereferenceable(40) %55)
  %59 = icmp eq i32 %58, 212
  br i1 %59, label %60, label %65

60:                                               ; preds = %53
  %61 = getelementptr inbounds %"class.kc::impl_path", ptr %55, i64 0, i32 4
  %62 = load ptr, ptr %61, align 8, !tbaa !123
  %63 = getelementptr inbounds %"class.kc::impl_path", ptr %62, i64 0, i32 1
  %64 = load ptr, ptr %63, align 8, !tbaa !124
  br label %228

65:                                               ; preds = %53
  %66 = load ptr, ptr %55, align 8, !tbaa !5
  %67 = load ptr, ptr %66, align 8
  %68 = tail call noundef i32 %67(ptr noundef nonnull align 8 dereferenceable(40) %55)
  %69 = icmp eq i32 %68, 211
  br i1 %69, label %70, label %73

70:                                               ; preds = %65
  %71 = getelementptr inbounds %"class.kc::impl_path", ptr %55, i64 0, i32 1
  %72 = load ptr, ptr %71, align 8, !tbaa !124
  br label %228

73:                                               ; preds = %65
  tail call void @_ZN2kc21kc_no_default_in_withEPKciS1_(ptr noundef nonnull @.str.36, i32 noundef 897, ptr noundef nonnull @.str.1)
  br label %228

74:                                               ; preds = %48
  %75 = load ptr, ptr %8, align 8, !tbaa !5
  %76 = load ptr, ptr %75, align 8
  %77 = tail call noundef i32 %76(ptr noundef nonnull align 8 dereferenceable(8) %8)
  %78 = icmp eq i32 %77, 207
  br i1 %78, label %79, label %100

79:                                               ; preds = %74
  %80 = getelementptr inbounds %"class.kc::impl_elem_patternrepresentation_PRWildcard", ptr %8, i64 0, i32 1
  %81 = load ptr, ptr %80, align 8, !tbaa !129
  %82 = load ptr, ptr %81, align 8, !tbaa !5
  %83 = load ptr, ptr %82, align 8
  %84 = tail call noundef i32 %83(ptr noundef nonnull align 8 dereferenceable(40) %81)
  %85 = icmp eq i32 %84, 212
  br i1 %85, label %86, label %91

86:                                               ; preds = %79
  %87 = getelementptr inbounds %"class.kc::impl_path", ptr %81, i64 0, i32 4
  %88 = load ptr, ptr %87, align 8, !tbaa !123
  %89 = getelementptr inbounds %"class.kc::impl_path", ptr %88, i64 0, i32 1
  %90 = load ptr, ptr %89, align 8, !tbaa !124
  br label %228

91:                                               ; preds = %79
  %92 = load ptr, ptr %81, align 8, !tbaa !5
  %93 = load ptr, ptr %92, align 8
  %94 = tail call noundef i32 %93(ptr noundef nonnull align 8 dereferenceable(40) %81)
  %95 = icmp eq i32 %94, 211
  br i1 %95, label %96, label %99

96:                                               ; preds = %91
  %97 = getelementptr inbounds %"class.kc::impl_path", ptr %81, i64 0, i32 1
  %98 = load ptr, ptr %97, align 8, !tbaa !124
  br label %228

99:                                               ; preds = %91
  tail call void @_ZN2kc21kc_no_default_in_withEPKciS1_(ptr noundef nonnull @.str.36, i32 noundef 897, ptr noundef nonnull @.str.1)
  br label %228

100:                                              ; preds = %74
  %101 = load ptr, ptr %8, align 8, !tbaa !5
  %102 = load ptr, ptr %101, align 8
  %103 = tail call noundef i32 %102(ptr noundef nonnull align 8 dereferenceable(8) %8)
  %104 = icmp eq i32 %103, 206
  br i1 %104, label %105, label %126

105:                                              ; preds = %100
  %106 = getelementptr inbounds %"class.kc::impl_elem_patternrepresentation_PRNonLeafBinding", ptr %8, i64 0, i32 1
  %107 = load ptr, ptr %106, align 8, !tbaa !131
  %108 = load ptr, ptr %107, align 8, !tbaa !5
  %109 = load ptr, ptr %108, align 8
  %110 = tail call noundef i32 %109(ptr noundef nonnull align 8 dereferenceable(40) %107)
  %111 = icmp eq i32 %110, 212
  br i1 %111, label %112, label %117

112:                                              ; preds = %105
  %113 = getelementptr inbounds %"class.kc::impl_path", ptr %107, i64 0, i32 4
  %114 = load ptr, ptr %113, align 8, !tbaa !123
  %115 = getelementptr inbounds %"class.kc::impl_path", ptr %114, i64 0, i32 1
  %116 = load ptr, ptr %115, align 8, !tbaa !124
  br label %228

117:                                              ; preds = %105
  %118 = load ptr, ptr %107, align 8, !tbaa !5
  %119 = load ptr, ptr %118, align 8
  %120 = tail call noundef i32 %119(ptr noundef nonnull align 8 dereferenceable(40) %107)
  %121 = icmp eq i32 %120, 211
  br i1 %121, label %122, label %125

122:                                              ; preds = %117
  %123 = getelementptr inbounds %"class.kc::impl_path", ptr %107, i64 0, i32 1
  %124 = load ptr, ptr %123, align 8, !tbaa !124
  br label %228

125:                                              ; preds = %117
  tail call void @_ZN2kc21kc_no_default_in_withEPKciS1_(ptr noundef nonnull @.str.36, i32 noundef 897, ptr noundef nonnull @.str.1)
  br label %228

126:                                              ; preds = %100
  %127 = load ptr, ptr %8, align 8, !tbaa !5
  %128 = load ptr, ptr %127, align 8
  %129 = tail call noundef i32 %128(ptr noundef nonnull align 8 dereferenceable(8) %8)
  %130 = icmp eq i32 %129, 204
  br i1 %130, label %131, label %152

131:                                              ; preds = %126
  %132 = getelementptr inbounds %"class.kc::impl_elem_patternrepresentation_PROperPredicate", ptr %8, i64 0, i32 1
  %133 = load ptr, ptr %132, align 8, !tbaa !133
  %134 = load ptr, ptr %133, align 8, !tbaa !5
  %135 = load ptr, ptr %134, align 8
  %136 = tail call noundef i32 %135(ptr noundef nonnull align 8 dereferenceable(40) %133)
  %137 = icmp eq i32 %136, 212
  br i1 %137, label %138, label %143

138:                                              ; preds = %131
  %139 = getelementptr inbounds %"class.kc::impl_path", ptr %133, i64 0, i32 4
  %140 = load ptr, ptr %139, align 8, !tbaa !123
  %141 = getelementptr inbounds %"class.kc::impl_path", ptr %140, i64 0, i32 1
  %142 = load ptr, ptr %141, align 8, !tbaa !124
  br label %228

143:                                              ; preds = %131
  %144 = load ptr, ptr %133, align 8, !tbaa !5
  %145 = load ptr, ptr %144, align 8
  %146 = tail call noundef i32 %145(ptr noundef nonnull align 8 dereferenceable(40) %133)
  %147 = icmp eq i32 %146, 211
  br i1 %147, label %148, label %151

148:                                              ; preds = %143
  %149 = getelementptr inbounds %"class.kc::impl_path", ptr %133, i64 0, i32 1
  %150 = load ptr, ptr %149, align 8, !tbaa !124
  br label %228

151:                                              ; preds = %143
  tail call void @_ZN2kc21kc_no_default_in_withEPKciS1_(ptr noundef nonnull @.str.36, i32 noundef 897, ptr noundef nonnull @.str.1)
  br label %228

152:                                              ; preds = %126
  %153 = load ptr, ptr %8, align 8, !tbaa !5
  %154 = load ptr, ptr %153, align 8
  %155 = tail call noundef i32 %154(ptr noundef nonnull align 8 dereferenceable(8) %8)
  %156 = icmp eq i32 %155, 202
  br i1 %156, label %157, label %178

157:                                              ; preds = %152
  %158 = getelementptr inbounds %"class.kc::impl_elem_patternrepresentation_PRBinding", ptr %8, i64 0, i32 1
  %159 = load ptr, ptr %158, align 8, !tbaa !134
  %160 = load ptr, ptr %159, align 8, !tbaa !5
  %161 = load ptr, ptr %160, align 8
  %162 = tail call noundef i32 %161(ptr noundef nonnull align 8 dereferenceable(40) %159)
  %163 = icmp eq i32 %162, 212
  br i1 %163, label %164, label %169

164:                                              ; preds = %157
  %165 = getelementptr inbounds %"class.kc::impl_path", ptr %159, i64 0, i32 4
  %166 = load ptr, ptr %165, align 8, !tbaa !123
  %167 = getelementptr inbounds %"class.kc::impl_path", ptr %166, i64 0, i32 1
  %168 = load ptr, ptr %167, align 8, !tbaa !124
  br label %228

169:                                              ; preds = %157
  %170 = load ptr, ptr %159, align 8, !tbaa !5
  %171 = load ptr, ptr %170, align 8
  %172 = tail call noundef i32 %171(ptr noundef nonnull align 8 dereferenceable(40) %159)
  %173 = icmp eq i32 %172, 211
  br i1 %173, label %174, label %177

174:                                              ; preds = %169
  %175 = getelementptr inbounds %"class.kc::impl_path", ptr %159, i64 0, i32 1
  %176 = load ptr, ptr %175, align 8, !tbaa !124
  br label %228

177:                                              ; preds = %169
  tail call void @_ZN2kc21kc_no_default_in_withEPKciS1_(ptr noundef nonnull @.str.36, i32 noundef 897, ptr noundef nonnull @.str.1)
  br label %228

178:                                              ; preds = %152
  %179 = load ptr, ptr %8, align 8, !tbaa !5
  %180 = load ptr, ptr %179, align 8
  %181 = tail call noundef i32 %180(ptr noundef nonnull align 8 dereferenceable(8) %8)
  %182 = icmp eq i32 %181, 203
  br i1 %182, label %183, label %219

183:                                              ; preds = %178
  %184 = getelementptr inbounds %"class.kc::impl_elem_patternrepresentation_PRVarPredicate", ptr %8, i64 0, i32 1
  %185 = load ptr, ptr %184, align 8, !tbaa !136
  %186 = load ptr, ptr %185, align 8, !tbaa !5
  %187 = load ptr, ptr %186, align 8
  %188 = tail call noundef i32 %187(ptr noundef nonnull align 8 dereferenceable(24) %185)
  %189 = icmp eq i32 %188, 214
  br i1 %189, label %190, label %211

190:                                              ; preds = %183
  %191 = getelementptr inbounds %"class.kc::impl_paths", ptr %185, i64 0, i32 1
  %192 = load ptr, ptr %191, align 8, !tbaa !138
  %193 = load ptr, ptr %192, align 8, !tbaa !5
  %194 = load ptr, ptr %193, align 8
  %195 = tail call noundef i32 %194(ptr noundef nonnull align 8 dereferenceable(40) %192)
  %196 = icmp eq i32 %195, 212
  br i1 %196, label %197, label %202

197:                                              ; preds = %190
  %198 = getelementptr inbounds %"class.kc::impl_path", ptr %192, i64 0, i32 4
  %199 = load ptr, ptr %198, align 8, !tbaa !123
  %200 = getelementptr inbounds %"class.kc::impl_path", ptr %199, i64 0, i32 1
  %201 = load ptr, ptr %200, align 8, !tbaa !124
  br label %228

202:                                              ; preds = %190
  %203 = load ptr, ptr %192, align 8, !tbaa !5
  %204 = load ptr, ptr %203, align 8
  %205 = tail call noundef i32 %204(ptr noundef nonnull align 8 dereferenceable(40) %192)
  %206 = icmp eq i32 %205, 211
  br i1 %206, label %207, label %210

207:                                              ; preds = %202
  %208 = getelementptr inbounds %"class.kc::impl_path", ptr %192, i64 0, i32 1
  %209 = load ptr, ptr %208, align 8, !tbaa !124
  br label %228

210:                                              ; preds = %202
  tail call void @_ZN2kc21kc_no_default_in_withEPKciS1_(ptr noundef nonnull @.str.36, i32 noundef 897, ptr noundef nonnull @.str.1)
  br label %228

211:                                              ; preds = %183
  %212 = load ptr, ptr %185, align 8, !tbaa !5
  %213 = load ptr, ptr %212, align 8
  %214 = tail call noundef i32 %213(ptr noundef nonnull align 8 dereferenceable(24) %185)
  %215 = icmp eq i32 %214, 213
  br i1 %215, label %216, label %218

216:                                              ; preds = %211
  %217 = tail call noundef ptr @_ZN2kc9f_emptyIdEv()
  br label %228

218:                                              ; preds = %211
  tail call void @_ZN2kc21kc_no_default_in_withEPKciS1_(ptr noundef nonnull @.str.37, i32 noundef 876, ptr noundef nonnull @.str.1)
  br label %228

219:                                              ; preds = %178
  tail call void @_ZN2kc21kc_no_default_in_withEPKciS1_(ptr noundef nonnull @.str.35, i32 noundef 855, ptr noundef nonnull @.str.1)
  br label %228

220:                                              ; preds = %1
  %221 = load ptr, ptr %0, align 8, !tbaa !5
  %222 = load ptr, ptr %221, align 8
  %223 = tail call noundef i32 %222(ptr noundef nonnull align 8 dereferenceable(24) %0)
  %224 = icmp eq i32 %223, 200
  br i1 %224, label %225, label %227

225:                                              ; preds = %220
  %226 = tail call noundef ptr @_ZN2kc9f_emptyIdEv()
  br label %228

227:                                              ; preds = %220
  tail call void @_ZN2kc21kc_no_default_in_withEPKciS1_(ptr noundef nonnull @.str.12, i32 noundef 811, ptr noundef nonnull @.str.1)
  br label %228

228:                                              ; preds = %219, %99, %96, %86, %73, %70, %60, %47, %44, %34, %20, %13, %112, %122, %125, %138, %148, %151, %164, %174, %177, %197, %207, %210, %216, %218, %227, %225
  %229 = phi ptr [ %226, %225 ], [ null, %227 ], [ %14, %13 ], [ %21, %20 ], [ null, %219 ], [ %38, %34 ], [ %46, %44 ], [ null, %47 ], [ %64, %60 ], [ %72, %70 ], [ null, %73 ], [ %90, %86 ], [ %98, %96 ], [ null, %99 ], [ %116, %112 ], [ %124, %122 ], [ null, %125 ], [ %142, %138 ], [ %150, %148 ], [ null, %151 ], [ %168, %164 ], [ %176, %174 ], [ null, %177 ], [ %217, %216 ], [ null, %218 ], [ %201, %197 ], [ %209, %207 ], [ null, %210 ]
  ret ptr %229
}

; Function Attrs: mustprogress uwtable
define dso_local noundef ptr @_ZN2kc18f_typeofunpsubtermEPNS_15impl_unpsubtermEPNS_7impl_IDE(ptr noundef %0, ptr noundef %1) local_unnamed_addr #0 {
  %3 = load ptr, ptr %0, align 8, !tbaa !5
  %4 = load ptr, ptr %3, align 8
  %5 = tail call noundef i32 %4(ptr noundef nonnull align 8 dereferenceable(8) %0)
  %6 = icmp eq i32 %5, 157
  br i1 %6, label %7, label %10

7:                                                ; preds = %2
  %8 = getelementptr inbounds %"class.kc::impl_unpsubterm_UnpCastedVariable", ptr %0, i64 0, i32 1
  %9 = load ptr, ptr %8, align 8, !tbaa !140
  br label %53

10:                                               ; preds = %2
  %11 = load ptr, ptr %0, align 8, !tbaa !5
  %12 = load ptr, ptr %11, align 8
  %13 = tail call noundef i32 %12(ptr noundef nonnull align 8 dereferenceable(8) %0)
  %14 = icmp eq i32 %13, 156
  br i1 %14, label %15, label %22

15:                                               ; preds = %10
  %16 = getelementptr inbounds %"class.kc::impl_unpsubterm_UnpDollarvarAttr", ptr %0, i64 0, i32 1
  %17 = load ptr, ptr %16, align 8, !tbaa !143
  %18 = getelementptr inbounds %"class.kc::impl_unpsubterm_UnpDollarvarAttr", ptr %0, i64 0, i32 2
  %19 = load ptr, ptr %18, align 8, !tbaa !145
  %20 = tail call noundef ptr @_ZN2kc21f_subphylumofoperatorEPNS_7impl_IDEPNS_8impl_INTE(ptr noundef %1, ptr noundef %17)
  %21 = tail call noundef ptr @_ZN2kc31f_check_unpattributes_in_phylumEPNS_18impl_unpattributesEPNS_7impl_IDE(ptr noundef %19, ptr noundef %20)
  br label %53

22:                                               ; preds = %10
  %23 = load ptr, ptr %0, align 8, !tbaa !5
  %24 = load ptr, ptr %23, align 8
  %25 = tail call noundef i32 %24(ptr noundef nonnull align 8 dereferenceable(8) %0)
  %26 = icmp eq i32 %25, 155
  br i1 %26, label %27, label %34

27:                                               ; preds = %22
  %28 = getelementptr inbounds %"class.kc::impl_unpsubterm_UnpSubAttr", ptr %0, i64 0, i32 1
  %29 = load ptr, ptr %28, align 8, !tbaa !146
  %30 = getelementptr inbounds %"class.kc::impl_unpsubterm_UnpSubAttr", ptr %0, i64 0, i32 2
  %31 = load ptr, ptr %30, align 8, !tbaa !148
  %32 = tail call noundef ptr @_ZN2kc19f_phylumofpatternIDEPNS_7impl_IDE(ptr noundef %29)
  %33 = tail call noundef ptr @_ZN2kc31f_check_unpattributes_in_phylumEPNS_18impl_unpattributesEPNS_7impl_IDE(ptr noundef %31, ptr noundef %32)
  br label %53

34:                                               ; preds = %22
  %35 = load ptr, ptr %0, align 8, !tbaa !5
  %36 = load ptr, ptr %35, align 8
  %37 = tail call noundef i32 %36(ptr noundef nonnull align 8 dereferenceable(8) %0)
  %38 = icmp eq i32 %37, 154
  br i1 %38, label %39, label %43

39:                                               ; preds = %34
  %40 = getelementptr inbounds %"class.kc::impl_unpsubterm_UnpDollarvarTerm", ptr %0, i64 0, i32 1
  %41 = load ptr, ptr %40, align 8, !tbaa !149
  %42 = tail call noundef ptr @_ZN2kc21f_subphylumofoperatorEPNS_7impl_IDEPNS_8impl_INTE(ptr noundef %1, ptr noundef %41)
  br label %53

43:                                               ; preds = %34
  %44 = load ptr, ptr %0, align 8, !tbaa !5
  %45 = load ptr, ptr %44, align 8
  %46 = tail call noundef i32 %45(ptr noundef nonnull align 8 dereferenceable(8) %0)
  %47 = icmp eq i32 %46, 153
  br i1 %47, label %48, label %52

48:                                               ; preds = %43
  %49 = getelementptr inbounds %"class.kc::impl_unpsubterm_UnpSubTerm", ptr %0, i64 0, i32 1
  %50 = load ptr, ptr %49, align 8, !tbaa !151
  %51 = tail call noundef ptr @_ZN2kc19f_phylumofpatternIDEPNS_7impl_IDE(ptr noundef %50)
  br label %53

52:                                               ; preds = %43
  tail call void @_ZN2kc21kc_no_default_in_withEPKciS1_(ptr noundef nonnull @.str.13, i32 noundef 929, ptr noundef nonnull @.str.1)
  br label %53

53:                                               ; preds = %52, %48, %39, %27, %15, %7
  %54 = phi ptr [ %9, %7 ], [ %21, %15 ], [ %33, %27 ], [ %42, %39 ], [ %51, %48 ], [ null, %52 ]
  ret ptr %54
}

declare noundef ptr @_ZN2kc31f_check_unpattributes_in_phylumEPNS_18impl_unpattributesEPNS_7impl_IDE(ptr noundef, ptr noundef) local_unnamed_addr #2

declare noundef ptr @_ZN2kc19f_phylumofpatternIDEPNS_7impl_IDE(ptr noundef) local_unnamed_addr #2

; Function Attrs: mustprogress uwtable
define dso_local noundef ptr @_ZN2kc38f_outmost_nl_preds_in_rewriterulesinfoEPNS_21impl_rewriterulesinfoE(ptr noundef %0) local_unnamed_addr #0 {
  br label %2

2:                                                ; preds = %15, %1
  %3 = phi ptr [ %0, %1 ], [ %20, %15 ]
  %4 = load ptr, ptr %3, align 8, !tbaa !5
  %5 = load ptr, ptr %4, align 8
  %6 = tail call noundef i32 %5(ptr noundef nonnull align 8 dereferenceable(24) %3)
  %7 = icmp eq i32 %6, 218
  br i1 %7, label %8, label %23

8:                                                ; preds = %2
  %9 = getelementptr inbounds %"class.kc::impl_rewriterulesinfo", ptr %3, i64 0, i32 1
  %10 = load ptr, ptr %9, align 8, !tbaa !153
  %11 = load ptr, ptr %10, align 8, !tbaa !5
  %12 = load ptr, ptr %11, align 8
  %13 = tail call noundef i32 %12(ptr noundef nonnull align 8 dereferenceable(8) %10)
  %14 = icmp eq i32 %13, 219
  br i1 %14, label %15, label %23

15:                                               ; preds = %8
  %16 = load ptr, ptr %9, align 8, !tbaa !153
  %17 = getelementptr inbounds %"class.kc::impl_rewriteruleinfo_Rewriteruleinfo", ptr %16, i64 0, i32 1
  %18 = load ptr, ptr %17, align 8, !tbaa !155
  %19 = getelementptr inbounds %"class.kc::impl_rewriterulesinfo", ptr %3, i64 0, i32 2
  %20 = load ptr, ptr %19, align 8, !tbaa !156
  %21 = tail call fastcc noundef ptr @_ZN2kcL43f_outmost_nl_preds_in_patternrepresentationEPNS_26impl_patternrepresentationE(ptr noundef %18)
  %22 = icmp eq ptr %21, null
  br i1 %22, label %2, label %29

23:                                               ; preds = %8, %2
  %24 = load ptr, ptr %3, align 8, !tbaa !5
  %25 = load ptr, ptr %24, align 8
  %26 = tail call noundef i32 %25(ptr noundef nonnull align 8 dereferenceable(24) %3)
  %27 = icmp eq i32 %26, 217
  br i1 %27, label %29, label %28

28:                                               ; preds = %23
  tail call void @_ZN2kc21kc_no_default_in_withEPKciS1_(ptr noundef nonnull @.str.14, i32 noundef 952, ptr noundef nonnull @.str.1)
  br label %29

29:                                               ; preds = %15, %23, %28
  %30 = phi ptr [ null, %28 ], [ null, %23 ], [ %21, %15 ]
  ret ptr %30
}

; Function Attrs: mustprogress uwtable
define internal fastcc noundef ptr @_ZN2kcL43f_outmost_nl_preds_in_patternrepresentationEPNS_26impl_patternrepresentationE(ptr noundef %0) unnamed_addr #0 {
  %2 = load ptr, ptr %0, align 8, !tbaa !5
  %3 = load ptr, ptr %2, align 8
  %4 = tail call noundef i32 %3(ptr noundef nonnull align 8 dereferenceable(24) %0)
  %5 = icmp eq i32 %4, 201
  br i1 %5, label %6, label %62

6:                                                ; preds = %1, %57
  %7 = phi ptr [ %11, %57 ], [ %0, %1 ]
  %8 = getelementptr inbounds %"class.kc::impl_patternrepresentation", ptr %7, i64 0, i32 1
  %9 = load ptr, ptr %8, align 8, !tbaa !65
  %10 = getelementptr inbounds %"class.kc::impl_patternrepresentation", ptr %7, i64 0, i32 2
  %11 = load ptr, ptr %10, align 8, !tbaa !67
  %12 = load ptr, ptr %9, align 8, !tbaa !5
  %13 = load ptr, ptr %12, align 8
  %14 = tail call noundef i32 %13(ptr noundef nonnull align 8 dereferenceable(8) %9)
  %15 = icmp eq i32 %14, 203
  br i1 %15, label %16, label %57

16:                                               ; preds = %6
  %17 = getelementptr inbounds %"class.kc::impl_elem_patternrepresentation_PRVarPredicate", ptr %9, i64 0, i32 1
  %18 = load ptr, ptr %17, align 8, !tbaa !136
  %19 = load ptr, ptr %18, align 8, !tbaa !5
  %20 = load ptr, ptr %19, align 8
  %21 = tail call noundef i32 %20(ptr noundef nonnull align 8 dereferenceable(24) %18)
  %22 = icmp eq i32 %21, 214
  br i1 %22, label %23, label %38

23:                                               ; preds = %16, %31
  %24 = phi ptr [ %33, %31 ], [ %18, %16 ]
  %25 = getelementptr inbounds %"class.kc::impl_paths", ptr %24, i64 0, i32 1
  %26 = load ptr, ptr %25, align 8, !tbaa !138
  %27 = load ptr, ptr %26, align 8, !tbaa !5
  %28 = load ptr, ptr %27, align 8
  %29 = tail call noundef i32 %28(ptr noundef nonnull align 8 dereferenceable(40) %26)
  %30 = icmp eq i32 %29, 212
  br i1 %30, label %31, label %38

31:                                               ; preds = %23
  %32 = getelementptr inbounds %"class.kc::impl_paths", ptr %24, i64 0, i32 2
  %33 = load ptr, ptr %32, align 8, !tbaa !157
  %34 = load ptr, ptr %33, align 8, !tbaa !5
  %35 = load ptr, ptr %34, align 8
  %36 = tail call noundef i32 %35(ptr noundef nonnull align 8 dereferenceable(24) %33)
  %37 = icmp eq i32 %36, 214
  br i1 %37, label %23, label %38

38:                                               ; preds = %31, %23, %16
  %39 = phi ptr [ %18, %16 ], [ %24, %23 ], [ %33, %31 ]
  %40 = load ptr, ptr %39, align 8, !tbaa !5
  %41 = load ptr, ptr %40, align 8
  %42 = tail call noundef i32 %41(ptr noundef nonnull align 8 dereferenceable(24) %39)
  %43 = icmp eq i32 %42, 214
  br i1 %43, label %44, label %51

44:                                               ; preds = %38
  %45 = getelementptr inbounds %"class.kc::impl_paths", ptr %39, i64 0, i32 1
  %46 = load ptr, ptr %45, align 8, !tbaa !138
  %47 = load ptr, ptr %46, align 8, !tbaa !5
  %48 = load ptr, ptr %47, align 8
  %49 = tail call noundef i32 %48(ptr noundef nonnull align 8 dereferenceable(40) %46)
  %50 = icmp eq i32 %49, 211
  br i1 %50, label %69, label %51

51:                                               ; preds = %44, %38
  %52 = load ptr, ptr %39, align 8, !tbaa !5
  %53 = load ptr, ptr %52, align 8
  %54 = tail call noundef i32 %53(ptr noundef nonnull align 8 dereferenceable(24) %39)
  %55 = icmp eq i32 %54, 213
  br i1 %55, label %57, label %56

56:                                               ; preds = %51
  tail call void @_ZN2kc21kc_no_default_in_withEPKciS1_(ptr noundef nonnull @.str.39, i32 noundef 1035, ptr noundef nonnull @.str.1)
  br label %57

57:                                               ; preds = %6, %56, %51
  %58 = load ptr, ptr %11, align 8, !tbaa !5
  %59 = load ptr, ptr %58, align 8
  %60 = tail call noundef i32 %59(ptr noundef nonnull align 8 dereferenceable(24) %11)
  %61 = icmp eq i32 %60, 201
  br i1 %61, label %6, label %62

62:                                               ; preds = %57, %1
  %63 = phi ptr [ %0, %1 ], [ %11, %57 ]
  %64 = load ptr, ptr %63, align 8, !tbaa !5
  %65 = load ptr, ptr %64, align 8
  %66 = tail call noundef i32 %65(ptr noundef nonnull align 8 dereferenceable(24) %63)
  %67 = icmp eq i32 %66, 200
  br i1 %67, label %69, label %68

68:                                               ; preds = %62
  tail call void @_ZN2kc21kc_no_default_in_withEPKciS1_(ptr noundef nonnull @.str.38, i32 noundef 996, ptr noundef nonnull @.str.1)
  br label %69

69:                                               ; preds = %44, %62, %68
  %70 = phi ptr [ null, %68 ], [ null, %62 ], [ %9, %44 ]
  ret ptr %70
}

; Function Attrs: mustprogress uwtable
define dso_local noundef ptr @_ZN2kc38f_outmost_nl_preds_in_unparsedeclsinfoEPNS_21impl_unparsedeclsinfoE(ptr noundef %0) local_unnamed_addr #0 {
  br label %2

2:                                                ; preds = %15, %1
  %3 = phi ptr [ %0, %1 ], [ %20, %15 ]
  %4 = load ptr, ptr %3, align 8, !tbaa !5
  %5 = load ptr, ptr %4, align 8
  %6 = tail call noundef i32 %5(ptr noundef nonnull align 8 dereferenceable(24) %3)
  %7 = icmp eq i32 %6, 230
  br i1 %7, label %8, label %23

8:                                                ; preds = %2
  %9 = getelementptr inbounds %"class.kc::impl_unparsedeclsinfo", ptr %3, i64 0, i32 1
  %10 = load ptr, ptr %9, align 8, !tbaa !158
  %11 = load ptr, ptr %10, align 8, !tbaa !5
  %12 = load ptr, ptr %11, align 8
  %13 = tail call noundef i32 %12(ptr noundef nonnull align 8 dereferenceable(8) %10)
  %14 = icmp eq i32 %13, 231
  br i1 %14, label %15, label %23

15:                                               ; preds = %8
  %16 = load ptr, ptr %9, align 8, !tbaa !158
  %17 = getelementptr inbounds %"class.kc::impl_unparsedeclinfo_Unparsedeclinfo", ptr %16, i64 0, i32 1
  %18 = load ptr, ptr %17, align 8, !tbaa !160
  %19 = getelementptr inbounds %"class.kc::impl_unparsedeclsinfo", ptr %3, i64 0, i32 2
  %20 = load ptr, ptr %19, align 8, !tbaa !161
  %21 = tail call fastcc noundef ptr @_ZN2kcL43f_outmost_nl_preds_in_patternrepresentationEPNS_26impl_patternrepresentationE(ptr noundef %18)
  %22 = icmp eq ptr %21, null
  br i1 %22, label %2, label %29

23:                                               ; preds = %8, %2
  %24 = load ptr, ptr %3, align 8, !tbaa !5
  %25 = load ptr, ptr %24, align 8
  %26 = tail call noundef i32 %25(ptr noundef nonnull align 8 dereferenceable(24) %3)
  %27 = icmp eq i32 %26, 229
  br i1 %27, label %29, label %28

28:                                               ; preds = %23
  tail call void @_ZN2kc21kc_no_default_in_withEPKciS1_(ptr noundef nonnull @.str.15, i32 noundef 975, ptr noundef nonnull @.str.1)
  br label %29

29:                                               ; preds = %15, %23, %28
  %30 = phi ptr [ null, %28 ], [ null, %23 ], [ %21, %15 ]
  ret ptr %30
}

; Function Attrs: mustprogress uwtable
define dso_local noundef zeroext i1 @_ZN2kc19f_is_known_ptr_typeEPNS_7impl_IDE(ptr noundef %0) local_unnamed_addr #0 {
  %2 = load ptr, ptr @_ZZN2kc19f_is_known_ptr_typeEPNS_7impl_IDEE5known, align 8, !tbaa !24
  %3 = icmp eq ptr %2, null
  br i1 %3, label %4, label %56

4:                                                ; preds = %1
  %5 = tail call noundef ptr @_ZN2kc14NilphylumnamesEv()
  store ptr %5, ptr @_ZZN2kc19f_is_known_ptr_typeEPNS_7impl_IDEE5known, align 8, !tbaa !24
  %6 = tail call noundef ptr @_ZN2kc12mkcasestringEPKci(ptr noundef nonnull @.str.16, i32 noundef -1)
  %7 = tail call noundef ptr @_ZN2kc3StrEPNS_20impl_casestring__StrE(ptr noundef %6)
  %8 = tail call noundef ptr @_ZN2kc2IdEPNS_11impl_uniqIDE(ptr noundef %7)
  %9 = load ptr, ptr @_ZZN2kc19f_is_known_ptr_typeEPNS_7impl_IDEE5known, align 8, !tbaa !24
  %10 = tail call noundef ptr @_ZN2kc15ConsphylumnamesEPNS_7impl_IDEPNS_16impl_phylumnamesE(ptr noundef %8, ptr noundef %9)
  store ptr %10, ptr @_ZZN2kc19f_is_known_ptr_typeEPNS_7impl_IDEE5known, align 8, !tbaa !24
  %11 = tail call noundef ptr @_ZN2kc12mkcasestringEPKci(ptr noundef nonnull @.str.17, i32 noundef -1)
  %12 = tail call noundef ptr @_ZN2kc3StrEPNS_20impl_casestring__StrE(ptr noundef %11)
  %13 = tail call noundef ptr @_ZN2kc2IdEPNS_11impl_uniqIDE(ptr noundef %12)
  %14 = load ptr, ptr @_ZZN2kc19f_is_known_ptr_typeEPNS_7impl_IDEE5known, align 8, !tbaa !24
  %15 = tail call noundef ptr @_ZN2kc15ConsphylumnamesEPNS_7impl_IDEPNS_16impl_phylumnamesE(ptr noundef %13, ptr noundef %14)
  store ptr %15, ptr @_ZZN2kc19f_is_known_ptr_typeEPNS_7impl_IDEE5known, align 8, !tbaa !24
  %16 = tail call noundef ptr @_ZN2kc12mkcasestringEPKci(ptr noundef nonnull @.str.18, i32 noundef -1)
  %17 = tail call noundef ptr @_ZN2kc3StrEPNS_20impl_casestring__StrE(ptr noundef %16)
  %18 = tail call noundef ptr @_ZN2kc2IdEPNS_11impl_uniqIDE(ptr noundef %17)
  %19 = load ptr, ptr @_ZZN2kc19f_is_known_ptr_typeEPNS_7impl_IDEE5known, align 8, !tbaa !24
  %20 = tail call noundef ptr @_ZN2kc15ConsphylumnamesEPNS_7impl_IDEPNS_16impl_phylumnamesE(ptr noundef %18, ptr noundef %19)
  store ptr %20, ptr @_ZZN2kc19f_is_known_ptr_typeEPNS_7impl_IDEE5known, align 8, !tbaa !24
  %21 = tail call noundef ptr @_ZN2kc12mkcasestringEPKci(ptr noundef nonnull @.str.19, i32 noundef -1)
  %22 = tail call noundef ptr @_ZN2kc3StrEPNS_20impl_casestring__StrE(ptr noundef %21)
  %23 = tail call noundef ptr @_ZN2kc2IdEPNS_11impl_uniqIDE(ptr noundef %22)
  %24 = load ptr, ptr @_ZZN2kc19f_is_known_ptr_typeEPNS_7impl_IDEE5known, align 8, !tbaa !24
  %25 = tail call noundef ptr @_ZN2kc15ConsphylumnamesEPNS_7impl_IDEPNS_16impl_phylumnamesE(ptr noundef %23, ptr noundef %24)
  store ptr %25, ptr @_ZZN2kc19f_is_known_ptr_typeEPNS_7impl_IDEE5known, align 8, !tbaa !24
  %26 = tail call noundef ptr @_ZN2kc12mkcasestringEPKci(ptr noundef nonnull @.str.20, i32 noundef -1)
  %27 = tail call noundef ptr @_ZN2kc3StrEPNS_20impl_casestring__StrE(ptr noundef %26)
  %28 = tail call noundef ptr @_ZN2kc2IdEPNS_11impl_uniqIDE(ptr noundef %27)
  %29 = load ptr, ptr @_ZZN2kc19f_is_known_ptr_typeEPNS_7impl_IDEE5known, align 8, !tbaa !24
  %30 = tail call noundef ptr @_ZN2kc15ConsphylumnamesEPNS_7impl_IDEPNS_16impl_phylumnamesE(ptr noundef %28, ptr noundef %29)
  store ptr %30, ptr @_ZZN2kc19f_is_known_ptr_typeEPNS_7impl_IDEE5known, align 8, !tbaa !24
  %31 = tail call noundef ptr @_ZN2kc12mkcasestringEPKci(ptr noundef nonnull @.str.21, i32 noundef -1)
  %32 = tail call noundef ptr @_ZN2kc3StrEPNS_20impl_casestring__StrE(ptr noundef %31)
  %33 = tail call noundef ptr @_ZN2kc2IdEPNS_11impl_uniqIDE(ptr noundef %32)
  %34 = load ptr, ptr @_ZZN2kc19f_is_known_ptr_typeEPNS_7impl_IDEE5known, align 8, !tbaa !24
  %35 = tail call noundef ptr @_ZN2kc15ConsphylumnamesEPNS_7impl_IDEPNS_16impl_phylumnamesE(ptr noundef %33, ptr noundef %34)
  store ptr %35, ptr @_ZZN2kc19f_is_known_ptr_typeEPNS_7impl_IDEE5known, align 8, !tbaa !24
  %36 = tail call noundef ptr @_ZN2kc12mkcasestringEPKci(ptr noundef nonnull @.str.22, i32 noundef -1)
  %37 = tail call noundef ptr @_ZN2kc3StrEPNS_20impl_casestring__StrE(ptr noundef %36)
  %38 = tail call noundef ptr @_ZN2kc2IdEPNS_11impl_uniqIDE(ptr noundef %37)
  %39 = load ptr, ptr @_ZZN2kc19f_is_known_ptr_typeEPNS_7impl_IDEE5known, align 8, !tbaa !24
  %40 = tail call noundef ptr @_ZN2kc15ConsphylumnamesEPNS_7impl_IDEPNS_16impl_phylumnamesE(ptr noundef %38, ptr noundef %39)
  store ptr %40, ptr @_ZZN2kc19f_is_known_ptr_typeEPNS_7impl_IDEE5known, align 8, !tbaa !24
  %41 = tail call noundef ptr @_ZN2kc12mkcasestringEPKci(ptr noundef nonnull @.str.23, i32 noundef -1)
  %42 = tail call noundef ptr @_ZN2kc3StrEPNS_20impl_casestring__StrE(ptr noundef %41)
  %43 = tail call noundef ptr @_ZN2kc2IdEPNS_11impl_uniqIDE(ptr noundef %42)
  %44 = load ptr, ptr @_ZZN2kc19f_is_known_ptr_typeEPNS_7impl_IDEE5known, align 8, !tbaa !24
  %45 = tail call noundef ptr @_ZN2kc15ConsphylumnamesEPNS_7impl_IDEPNS_16impl_phylumnamesE(ptr noundef %43, ptr noundef %44)
  store ptr %45, ptr @_ZZN2kc19f_is_known_ptr_typeEPNS_7impl_IDEE5known, align 8, !tbaa !24
  %46 = tail call noundef ptr @_ZN2kc12mkcasestringEPKci(ptr noundef nonnull @.str.24, i32 noundef -1)
  %47 = tail call noundef ptr @_ZN2kc3StrEPNS_20impl_casestring__StrE(ptr noundef %46)
  %48 = tail call noundef ptr @_ZN2kc2IdEPNS_11impl_uniqIDE(ptr noundef %47)
  %49 = load ptr, ptr @_ZZN2kc19f_is_known_ptr_typeEPNS_7impl_IDEE5known, align 8, !tbaa !24
  %50 = tail call noundef ptr @_ZN2kc15ConsphylumnamesEPNS_7impl_IDEPNS_16impl_phylumnamesE(ptr noundef %48, ptr noundef %49)
  store ptr %50, ptr @_ZZN2kc19f_is_known_ptr_typeEPNS_7impl_IDEE5known, align 8, !tbaa !24
  %51 = tail call noundef ptr @_ZN2kc12mkcasestringEPKci(ptr noundef nonnull @.str.25, i32 noundef -1)
  %52 = tail call noundef ptr @_ZN2kc3StrEPNS_20impl_casestring__StrE(ptr noundef %51)
  %53 = tail call noundef ptr @_ZN2kc2IdEPNS_11impl_uniqIDE(ptr noundef %52)
  %54 = load ptr, ptr @_ZZN2kc19f_is_known_ptr_typeEPNS_7impl_IDEE5known, align 8, !tbaa !24
  %55 = tail call noundef ptr @_ZN2kc15ConsphylumnamesEPNS_7impl_IDEPNS_16impl_phylumnamesE(ptr noundef %53, ptr noundef %54)
  store ptr %55, ptr @_ZZN2kc19f_is_known_ptr_typeEPNS_7impl_IDEE5known, align 8, !tbaa !24
  br label %56

56:                                               ; preds = %4, %1
  %57 = phi ptr [ %55, %4 ], [ %2, %1 ]
  %58 = load ptr, ptr %57, align 8, !tbaa !5
  %59 = load ptr, ptr %58, align 8
  %60 = tail call noundef i32 %59(ptr noundef nonnull align 8 dereferenceable(24) %57)
  %61 = icmp eq i32 %60, 14
  br i1 %61, label %69, label %74

62:                                               ; preds = %69
  %63 = getelementptr inbounds %"class.kc::impl_phylumnames", ptr %70, i64 0, i32 2
  %64 = load ptr, ptr %63, align 8, !tbaa !24
  %65 = load ptr, ptr %64, align 8, !tbaa !5
  %66 = load ptr, ptr %65, align 8
  %67 = tail call noundef i32 %66(ptr noundef nonnull align 8 dereferenceable(24) %64)
  %68 = icmp eq i32 %67, 14
  br i1 %68, label %69, label %74

69:                                               ; preds = %56, %62
  %70 = phi ptr [ %64, %62 ], [ %57, %56 ]
  %71 = getelementptr inbounds %"class.kc::impl_phylumnames", ptr %70, i64 0, i32 1
  %72 = load ptr, ptr %71, align 8, !tbaa !162
  %73 = tail call noundef zeroext i1 @_ZNK2kc20impl_abstract_phylum2eqEPKS0_(ptr noundef nonnull align 8 dereferenceable(8) %72, ptr noundef %0)
  br i1 %73, label %74, label %62

74:                                               ; preds = %62, %69, %56
  %75 = phi i1 [ false, %56 ], [ %73, %69 ], [ %73, %62 ]
  ret i1 %75
}

declare noundef ptr @_ZN2kc14NilphylumnamesEv() local_unnamed_addr #2

declare noundef ptr @_ZN2kc15ConsphylumnamesEPNS_7impl_IDEPNS_16impl_phylumnamesE(ptr noundef, ptr noundef) local_unnamed_addr #2

; Function Attrs: mustprogress uwtable
define dso_local noundef ptr @_ZN2kc21rewrite_withcasesinfoEPNS_18impl_withcasesinfoE(ptr noundef %0) local_unnamed_addr #0 {
  %2 = load ptr, ptr %0, align 8, !tbaa !5
  %3 = load ptr, ptr %2, align 8
  %4 = tail call noundef i32 %3(ptr noundef nonnull align 8 dereferenceable(24) %0)
  %5 = icmp eq i32 %4, 221
  br i1 %5, label %6, label %32

6:                                                ; preds = %1
  %7 = getelementptr inbounds %"class.kc::impl_withcasesinfo", ptr %0, i64 0, i32 1
  %8 = load ptr, ptr %7, align 8, !tbaa !59
  %9 = load ptr, ptr %8, align 8, !tbaa !5
  %10 = load ptr, ptr %9, align 8
  %11 = tail call noundef i32 %10(ptr noundef nonnull align 8 dereferenceable(8) %8)
  %12 = icmp eq i32 %11, 222
  br i1 %12, label %15, label %32

13:                                               ; preds = %32, %37, %15
  %14 = phi ptr [ %31, %15 ], [ null, %37 ], [ %0, %32 ]
  ret ptr %14

15:                                               ; preds = %6
  %16 = load ptr, ptr %7, align 8, !tbaa !59
  %17 = getelementptr inbounds %"class.kc::impl_withcaseinfo_Withcaseinfo", ptr %16, i64 0, i32 1
  %18 = load ptr, ptr %17, align 8, !tbaa !62
  %19 = getelementptr inbounds %"class.kc::impl_withcaseinfo_Withcaseinfo", ptr %16, i64 0, i32 2
  %20 = load ptr, ptr %19, align 8, !tbaa !164
  %21 = getelementptr inbounds %"class.kc::impl_withcaseinfo_Withcaseinfo", ptr %16, i64 0, i32 3
  %22 = load ptr, ptr %21, align 8, !tbaa !165
  %23 = getelementptr inbounds %"class.kc::impl_withcasesinfo", ptr %0, i64 0, i32 2
  %24 = load ptr, ptr %23, align 8, !tbaa !61
  %25 = load ptr, ptr %18, align 8, !tbaa !5
  %26 = getelementptr inbounds ptr, ptr %25, i64 3
  %27 = load ptr, ptr %26, align 8
  %28 = tail call noundef ptr %27(ptr noundef nonnull align 8 dereferenceable(24) %18, ptr noundef nonnull align 4 dereferenceable(4) @_ZN2kc10base_rviewE)
  %29 = tail call noundef ptr @_ZN2kc12WithcaseinfoEPNS_26impl_patternrepresentationES1_PNS_10impl_CtextE(ptr noundef %28, ptr noundef %20, ptr noundef %22)
  %30 = tail call noundef ptr @_ZN2kc21rewrite_withcasesinfoEPNS_18impl_withcasesinfoE(ptr noundef %24)
  %31 = tail call noundef ptr @_ZN2kc17ConswithcasesinfoEPNS_17impl_withcaseinfoEPNS_18impl_withcasesinfoE(ptr noundef %29, ptr noundef %30)
  br label %13

32:                                               ; preds = %6, %1
  %33 = load ptr, ptr %0, align 8, !tbaa !5
  %34 = load ptr, ptr %33, align 8
  %35 = tail call noundef i32 %34(ptr noundef nonnull align 8 dereferenceable(24) %0)
  %36 = icmp eq i32 %35, 220
  br i1 %36, label %13, label %37

37:                                               ; preds = %32
  tail call void @_ZN2kc21kc_no_default_in_withEPKciS1_(ptr noundef nonnull @.str.26, i32 noundef 1102, ptr noundef nonnull @.str.1)
  br label %13
}

declare noundef ptr @_ZN2kc17ConswithcasesinfoEPNS_17impl_withcaseinfoEPNS_18impl_withcasesinfoE(ptr noundef, ptr noundef) local_unnamed_addr #2

declare noundef ptr @_ZN2kc12WithcaseinfoEPNS_26impl_patternrepresentationES1_PNS_10impl_CtextE(ptr noundef, ptr noundef, ptr noundef) local_unnamed_addr #2

; Function Attrs: mustprogress uwtable
define dso_local noundef i32 @_ZN2kc45pos_of_sole_dollar_or_pattern_in_patternchainEPNS_17impl_patternchainE(ptr noundef %0) local_unnamed_addr #0 {
  %2 = tail call noundef i32 @_ZN2kc47t_pos_of_sole_dollar_or_pattern_in_patternchainEPNS_17impl_patternchainEii(ptr noundef %0, i32 noundef -2, i32 noundef 1)
  ret i32 %2
}

; Function Attrs: mustprogress uwtable
define dso_local noundef i32 @_ZN2kc47t_pos_of_sole_dollar_or_pattern_in_patternchainEPNS_17impl_patternchainEii(ptr noundef %0, i32 noundef %1, i32 noundef %2) local_unnamed_addr #0 {
  %4 = icmp eq i32 %1, -1
  br i1 %4, label %66, label %5

5:                                                ; preds = %3
  %6 = load ptr, ptr %0, align 8, !tbaa !5
  %7 = load ptr, ptr %6, align 8
  %8 = tail call noundef i32 %7(ptr noundef nonnull align 8 dereferenceable(40) %0)
  %9 = icmp eq i32 %8, 74
  br i1 %9, label %10, label %66

10:                                               ; preds = %5
  %11 = getelementptr inbounds %"class.kc::impl_patternchain", ptr %0, i64 0, i32 3
  %12 = load ptr, ptr %11, align 8, !tbaa !166
  %13 = getelementptr inbounds %"class.kc::impl_patternchain", ptr %0, i64 0, i32 4
  %14 = load ptr, ptr %13, align 8, !tbaa !168
  %15 = add nsw i32 %2, 1
  %16 = tail call noundef i32 @_ZN2kc47t_pos_of_sole_dollar_or_pattern_in_patternchainEPNS_17impl_patternchainEii(ptr noundef %14, i32 noundef %1, i32 noundef %15)
  %17 = icmp eq i32 %16, -1
  br i1 %17, label %66, label %18

18:                                               ; preds = %10
  %19 = load ptr, ptr %12, align 8, !tbaa !5
  %20 = load ptr, ptr %19, align 8
  %21 = tail call noundef i32 %20(ptr noundef nonnull align 8 dereferenceable(8) %12)
  %22 = icmp eq i32 %21, 79
  br i1 %22, label %23, label %26

23:                                               ; preds = %18
  %24 = icmp sgt i32 %16, -1
  %25 = select i1 %24, i32 -1, i32 %2
  br label %66

26:                                               ; preds = %18
  %27 = load ptr, ptr %12, align 8, !tbaa !5
  %28 = load ptr, ptr %27, align 8
  %29 = tail call noundef i32 %28(ptr noundef nonnull align 8 dereferenceable(8) %12)
  %30 = icmp eq i32 %29, 77
  br i1 %30, label %31, label %66

31:                                               ; preds = %26
  %32 = getelementptr inbounds %"class.kc::impl_patternchainitem_PatternchainitemOutmost", ptr %12, i64 0, i32 1
  %33 = load ptr, ptr %32, align 8, !tbaa !169
  %34 = load ptr, ptr %33, align 8, !tbaa !5
  %35 = load ptr, ptr %34, align 8
  %36 = tail call noundef i32 %35(ptr noundef nonnull align 8 dereferenceable(8) %33)
  %37 = icmp eq i32 %36, 80
  br i1 %37, label %38, label %63

38:                                               ; preds = %31
  %39 = getelementptr inbounds %"class.kc::impl_outmostpattern_OPOperatorWildcard", ptr %33, i64 0, i32 1
  %40 = load ptr, ptr %39, align 8, !tbaa !172
  %41 = load ptr, ptr %40, align 8, !tbaa !5
  %42 = load ptr, ptr %41, align 8
  %43 = tail call noundef i32 %42(ptr noundef nonnull align 8 dereferenceable(8) %40)
  %44 = icmp eq i32 %43, 7
  br i1 %44, label %45, label %63

45:                                               ; preds = %38
  %46 = load ptr, ptr %39, align 8, !tbaa !172
  %47 = getelementptr inbounds %"class.kc::impl_ID_Id", ptr %46, i64 0, i32 1
  %48 = load ptr, ptr %47, align 8, !tbaa !46
  %49 = getelementptr inbounds %"class.kc::impl_uniqID", ptr %48, i64 0, i32 1
  %50 = load ptr, ptr %49, align 8, !tbaa !175
  %51 = load ptr, ptr %50, align 8, !tbaa !5
  %52 = load ptr, ptr %51, align 8
  %53 = tail call noundef i32 %52(ptr noundef nonnull align 8 dereferenceable(8) %50)
  %54 = icmp eq i32 %53, 172
  br i1 %54, label %66, label %55

55:                                               ; preds = %45
  %56 = load ptr, ptr %50, align 8, !tbaa !5
  %57 = load ptr, ptr %56, align 8
  %58 = tail call noundef i32 %57(ptr noundef nonnull align 8 dereferenceable(8) %50)
  %59 = icmp eq i32 %58, 185
  br i1 %59, label %66, label %60

60:                                               ; preds = %55
  %61 = icmp sgt i32 %16, -1
  %62 = select i1 %61, i32 -1, i32 %2
  br label %66

63:                                               ; preds = %38, %31
  %64 = icmp sgt i32 %16, -1
  %65 = select i1 %64, i32 -1, i32 %2
  br label %66

66:                                               ; preds = %23, %45, %55, %60, %63, %26, %10, %5, %3
  %67 = phi i32 [ -1, %3 ], [ -1, %10 ], [ %25, %23 ], [ %65, %63 ], [ %16, %45 ], [ %16, %55 ], [ %62, %60 ], [ -1, %26 ], [ %1, %5 ]
  ret i32 %67
}

; Function Attrs: uwtable
define dso_local void @_ZN2kc20f_getidentfromstringB5cxx11EPPKc(ptr noalias sret(%"class.std::__cxx11::basic_string") align 8 %0, ptr nocapture noundef %1) local_unnamed_addr #11 personality ptr @__gxx_personality_v0 {
  %3 = getelementptr inbounds %"class.std::__cxx11::basic_string", ptr %0, i64 0, i32 2
  store ptr %3, ptr %0, align 8, !tbaa !176
  %4 = getelementptr inbounds %"class.std::__cxx11::basic_string", ptr %0, i64 0, i32 1
  store i64 0, ptr %4, align 8, !tbaa !177
  store i8 0, ptr %3, align 8, !tbaa !94
  %5 = load ptr, ptr %1, align 8, !tbaa !24
  %6 = load i8, ptr %5, align 1, !tbaa !94
  %7 = sext i8 %6 to i32
  %8 = tail call i32 @isalnum(i32 noundef %7) #12
  %9 = icmp ne i32 %8, 0
  %10 = icmp eq i8 %6, 95
  %11 = select i1 %9, i1 true, i1 %10
  br i1 %11, label %12, label %47

12:                                               ; preds = %2, %26
  %13 = phi ptr [ %31, %26 ], [ %5, %2 ]
  %14 = getelementptr inbounds i8, ptr %13, i64 1
  store ptr %14, ptr %1, align 8, !tbaa !24
  %15 = load i8, ptr %13, align 1, !tbaa !94
  %16 = load i64, ptr %4, align 8, !tbaa !177
  %17 = add i64 %16, 1
  %18 = load ptr, ptr %0, align 8, !tbaa !96
  %19 = icmp eq ptr %18, %3
  %20 = load i64, ptr %3, align 8
  %21 = select i1 %19, i64 15, i64 %20
  %22 = icmp ugt i64 %17, %21
  br i1 %22, label %23, label %26

23:                                               ; preds = %12
  invoke void @_ZNSt7__cxx1112basic_stringIcSt11char_traitsIcESaIcEE9_M_mutateEmmPKcm(ptr noundef nonnull align 8 dereferenceable(32) %0, i64 noundef %16, i64 noundef 0, ptr noundef null, i64 noundef 1)
          to label %24 unwind label %38

24:                                               ; preds = %23
  %25 = load ptr, ptr %0, align 8, !tbaa !96
  br label %26

26:                                               ; preds = %12, %24
  %27 = phi ptr [ %25, %24 ], [ %18, %12 ]
  %28 = getelementptr inbounds i8, ptr %27, i64 %16
  store i8 %15, ptr %28, align 1, !tbaa !94
  store i64 %17, ptr %4, align 8, !tbaa !177
  %29 = load ptr, ptr %0, align 8, !tbaa !96
  %30 = getelementptr inbounds i8, ptr %29, i64 %17
  store i8 0, ptr %30, align 1, !tbaa !94
  %31 = load ptr, ptr %1, align 8, !tbaa !24
  %32 = load i8, ptr %31, align 1, !tbaa !94
  %33 = sext i8 %32 to i32
  %34 = tail call i32 @isalnum(i32 noundef %33) #12
  %35 = icmp ne i32 %34, 0
  %36 = icmp eq i8 %32, 95
  %37 = select i1 %35, i1 true, i1 %36
  br i1 %37, label %12, label %74

38:                                               ; preds = %23
  %39 = landingpad { ptr, i32 }
          cleanup
  br label %42

40:                                               ; preds = %60
  %41 = landingpad { ptr, i32 }
          cleanup
  br label %42

42:                                               ; preds = %40, %38
  %43 = phi { ptr, i32 } [ %39, %38 ], [ %41, %40 ]
  %44 = load ptr, ptr %0, align 8, !tbaa !96
  %45 = icmp eq ptr %44, %3
  br i1 %45, label %75, label %46

46:                                               ; preds = %42
  tail call void @_ZdlPv(ptr noundef %44) #15
  br label %75

47:                                               ; preds = %2, %63
  %48 = phi i8 [ %69, %63 ], [ %6, %2 ]
  %49 = phi ptr [ %68, %63 ], [ %5, %2 ]
  switch i8 %48, label %50 [
    i8 95, label %74
    i8 0, label %74
  ]

50:                                               ; preds = %47
  %51 = getelementptr inbounds i8, ptr %49, i64 1
  store ptr %51, ptr %1, align 8, !tbaa !24
  %52 = load i8, ptr %49, align 1, !tbaa !94
  %53 = load i64, ptr %4, align 8, !tbaa !177
  %54 = add i64 %53, 1
  %55 = load ptr, ptr %0, align 8, !tbaa !96
  %56 = icmp eq ptr %55, %3
  %57 = load i64, ptr %3, align 8
  %58 = select i1 %56, i64 15, i64 %57
  %59 = icmp ugt i64 %54, %58
  br i1 %59, label %60, label %63

60:                                               ; preds = %50
  invoke void @_ZNSt7__cxx1112basic_stringIcSt11char_traitsIcESaIcEE9_M_mutateEmmPKcm(ptr noundef nonnull align 8 dereferenceable(32) %0, i64 noundef %53, i64 noundef 0, ptr noundef null, i64 noundef 1)
          to label %61 unwind label %40

61:                                               ; preds = %60
  %62 = load ptr, ptr %0, align 8, !tbaa !96
  br label %63

63:                                               ; preds = %50, %61
  %64 = phi ptr [ %62, %61 ], [ %55, %50 ]
  %65 = getelementptr inbounds i8, ptr %64, i64 %53
  store i8 %52, ptr %65, align 1, !tbaa !94
  store i64 %54, ptr %4, align 8, !tbaa !177
  %66 = load ptr, ptr %0, align 8, !tbaa !96
  %67 = getelementptr inbounds i8, ptr %66, i64 %54
  store i8 0, ptr %67, align 1, !tbaa !94
  %68 = load ptr, ptr %1, align 8, !tbaa !24
  %69 = load i8, ptr %68, align 1, !tbaa !94
  %70 = sext i8 %69 to i32
  %71 = tail call i32 @isalnum(i32 noundef %70) #12
  %72 = freeze i32 %71
  %73 = icmp eq i32 %72, 0
  br i1 %73, label %47, label %74

74:                                               ; preds = %63, %47, %47, %26
  ret void

75:                                               ; preds = %46, %42
  resume { ptr, i32 } %43
}

declare i32 @__gxx_personality_v0(...)

; Function Attrs: mustprogress nofree nounwind willreturn memory(argmem: read)
declare i32 @strcmp(ptr nocapture noundef, ptr nocapture noundef) local_unnamed_addr #5

declare noundef ptr @_ZN2kc18f_ID_of_declaratorEPNS_18impl_ac_declaratorE(ptr noundef) local_unnamed_addr #2

declare noundef ptr @_ZN2kc13AcParDeclDeclEPNS_30impl_ac_declaration_specifiersEPNS_18impl_ac_declaratorEPNS_34impl_ac_constant_expression_optionE(ptr noundef, ptr noundef, ptr noundef) local_unnamed_addr #2

declare noundef ptr @_ZN2kc24Noac_constant_expressionEv() local_unnamed_addr #2

declare noundef ptr @_ZN2kc7WarningEPNS_13impl_filelineEPNS_12impl_problemE(ptr noundef, ptr noundef) local_unnamed_addr #2

declare noundef ptr @_ZN2kc8FileLineEPNS_20impl_casestring__StrEi(ptr noundef, i32 noundef) local_unnamed_addr #2

declare noundef ptr @_ZN2kc12Problem1S1IDEPKcPNS_7impl_IDE(ptr noundef, ptr noundef) local_unnamed_addr #2

declare noundef ptr @_ZN2kc29Consac_declaration_specifiersEPNS_29impl_ac_declaration_specifierEPNS_30impl_ac_declaration_specifiersE(ptr noundef, ptr noundef) local_unnamed_addr #2

declare noundef ptr @_ZN2kc18AcDeclSpecTypeSpecEPNS_22impl_ac_type_specifierE(ptr noundef) local_unnamed_addr #2

declare noundef ptr @_ZN2kc10AcTypeSpecEPNS_7impl_IDE(ptr noundef) local_unnamed_addr #2

declare noundef ptr @_ZN2kc28Nilac_declaration_specifiersEv() local_unnamed_addr #2

declare noundef ptr @_ZN2kc12AcDeclaratorEPNS_22impl_ac_pointer_optionEPNS_18impl_ac_ref_optionEPNS_25impl_ac_direct_declaratorE(ptr noundef, ptr noundef, ptr noundef) local_unnamed_addr #2

declare noundef ptr @_ZN2kc9NopointerEv() local_unnamed_addr #2

declare noundef ptr @_ZN2kc7AcNoRefEv() local_unnamed_addr #2

declare noundef ptr @_ZN2kc14AcDirectDeclIdEPNS_7impl_IDE(ptr noundef) local_unnamed_addr #2

; Function Attrs: nobuiltin nounwind
declare void @_ZdlPv(ptr noundef) local_unnamed_addr #9

declare void @_ZNSt7__cxx1112basic_stringIcSt11char_traitsIcESaIcEE9_M_mutateEmmPKcm(ptr noundef nonnull align 8 dereferenceable(32), i64 noundef, i64 noundef, ptr noundef, i64 noundef) local_unnamed_addr #2

attributes #0 = { mustprogress uwtable "min-legal-vector-width"="0" "no-trapping-math"="true" "stack-protector-buffer-size"="8" "target-cpu"="x86-64" "target-features"="+cx8,+fxsr,+mmx,+sse,+sse2,+x87" "tune-cpu"="generic" }
attributes #1 = { mustprogress nocallback nofree nosync nounwind willreturn memory(argmem: readwrite) }
attributes #2 = { "no-trapping-math"="true" "stack-protector-buffer-size"="8" "target-cpu"="x86-64" "target-features"="+cx8,+fxsr,+mmx,+sse,+sse2,+x87" "tune-cpu"="generic" }
attributes #3 = { mustprogress nofree norecurse nosync nounwind willreturn memory(none) uwtable "min-legal-vector-width"="0" "no-trapping-math"="true" "stack-protector-buffer-size"="8" "target-cpu"="x86-64" "target-features"="+cx8,+fxsr,+mmx,+sse,+sse2,+x87" "tune-cpu"="generic" }
attributes #4 = { mustprogress nofree norecurse nosync nounwind willreturn memory(argmem: write) uwtable "min-legal-vector-width"="0" "no-trapping-math"="true" "stack-protector-buffer-size"="8" "target-cpu"="x86-64" "target-features"="+cx8,+fxsr,+mmx,+sse,+sse2,+x87" "tune-cpu"="generic" }
attributes #5 = { mustprogress nofree nounwind willreturn memory(argmem: read) "no-trapping-math"="true" "stack-protector-buffer-size"="8" "target-cpu"="x86-64" "target-features"="+cx8,+fxsr,+mmx,+sse,+sse2,+x87" "tune-cpu"="generic" }
attributes #6 = { nobuiltin allocsize(0) "no-trapping-math"="true" "stack-protector-buffer-size"="8" "target-cpu"="x86-64" "target-features"="+cx8,+fxsr,+mmx,+sse,+sse2,+x87" "tune-cpu"="generic" }
attributes #7 = { mustprogress nofree nounwind willreturn memory(argmem: readwrite) "no-trapping-math"="true" "stack-protector-buffer-size"="8" "target-cpu"="x86-64" "target-features"="+cx8,+fxsr,+mmx,+sse,+sse2,+x87" "tune-cpu"="generic" }
attributes #8 = { nofree nounwind "no-trapping-math"="true" "stack-protector-buffer-size"="8" "target-cpu"="x86-64" "target-features"="+cx8,+fxsr,+mmx,+sse,+sse2,+x87" "tune-cpu"="generic" }
attributes #9 = { nobuiltin nounwind "no-trapping-math"="true" "stack-protector-buffer-size"="8" "target-cpu"="x86-64" "target-features"="+cx8,+fxsr,+mmx,+sse,+sse2,+x87" "tune-cpu"="generic" }
attributes #10 = { mustprogress nofree nounwind willreturn memory(read) "no-trapping-math"="true" "stack-protector-buffer-size"="8" "target-cpu"="x86-64" "target-features"="+cx8,+fxsr,+mmx,+sse,+sse2,+x87" "tune-cpu"="generic" }
attributes #11 = { uwtable "min-legal-vector-width"="0" "no-trapping-math"="true" "stack-protector-buffer-size"="8" "target-cpu"="x86-64" "target-features"="+cx8,+fxsr,+mmx,+sse,+sse2,+x87" "tune-cpu"="generic" }
attributes #12 = { nounwind willreturn memory(read) }
attributes #13 = { nounwind }
attributes #14 = { builtin allocsize(0) }
attributes #15 = { builtin nounwind }

!llvm.module.flags = !{!0, !1, !2, !3}
!llvm.ident = !{!4}

!0 = !{i32 1, !"wchar_size", i32 4}
!1 = !{i32 8, !"PIC Level", i32 2}
!2 = !{i32 7, !"PIE Level", i32 2}
!3 = !{i32 7, !"uwtable", i32 2}
!4 = !{!"clang version 17.0.0"}
!5 = !{!6, !6, i64 0}
!6 = !{!"vtable pointer", !7, i64 0}
!7 = !{!"Simple C++ TBAA"}
!8 = !{!9, !12, i64 8}
!9 = !{!"_ZTSN2kc29impl_Ccode_option_CcodeOptionE", !10, i64 0, !12, i64 8, !12, i64 16}
!10 = !{!"_ZTSN2kc17impl_Ccode_optionE", !11, i64 0}
!11 = !{!"_ZTSN2kc20impl_abstract_phylumE"}
!12 = !{!"any pointer", !13, i64 0}
!13 = !{!"omnipotent char", !7, i64 0}
!14 = !{!9, !12, i64 16}
!15 = !{!16, !12, i64 8}
!16 = !{!"_ZTSN2kc15impl_attributesE", !17, i64 0, !12, i64 8, !12, i64 16}
!17 = !{!"_ZTSN2kc18impl_abstract_listE", !11, i64 0}
!18 = !{!19, !12, i64 24}
!19 = !{!"_ZTSN2kc24impl_attribute_AttributeE", !20, i64 0, !12, i64 8, !12, i64 16, !12, i64 24}
!20 = !{!"_ZTSN2kc14impl_attributeE", !11, i64 0}
!21 = !{!16, !12, i64 16}
!22 = distinct !{!22, !23}
!23 = !{!"llvm.loop.mustprogress"}
!24 = !{!12, !12, i64 0}
!25 = !{!26, !12, i64 8}
!26 = !{!"_ZTSN2kc19impl_fndeclarationsE", !17, i64 0, !12, i64 8, !12, i64 16}
!27 = !{!28, !12, i64 88}
!28 = !{!"_ZTSN2kc34impl_fndeclaration_FnAcDeclarationE", !29, i64 0, !12, i64 40, !12, i64 48, !12, i64 56, !12, i64 64, !12, i64 72, !12, i64 80, !12, i64 88}
!29 = !{!"_ZTSN2kc18impl_fndeclarationE", !11, i64 0, !12, i64 8, !30, i64 16, !12, i64 24, !31, i64 32}
!30 = !{!"int", !13, i64 0}
!31 = !{!"bool", !13, i64 0}
!32 = !{!33, !12, i64 8}
!33 = !{!"_ZTSN2kc37impl_ac_parameter_type_list_AcParListE", !34, i64 0, !12, i64 8}
!34 = !{!"_ZTSN2kc27impl_ac_parameter_type_listE", !11, i64 0}
!35 = !{!36, !12, i64 24}
!36 = !{!"_ZTSN2kc16impl_alternativeE", !11, i64 0, !12, i64 8, !12, i64 16, !12, i64 24, !12, i64 32}
!37 = !{!28, !12, i64 48}
!38 = !{!39, !12, i64 24}
!39 = !{!"_ZTSN2kc31impl_ac_declarator_AcDeclaratorE", !40, i64 0, !12, i64 8, !12, i64 16, !12, i64 24}
!40 = !{!"_ZTSN2kc18impl_ac_declaratorE", !11, i64 0}
!41 = !{!42, !12, i64 16}
!42 = !{!"_ZTSN2kc46impl_ac_direct_declarator_AcQualifiedDeclProtoE", !43, i64 0, !12, i64 8, !12, i64 16, !12, i64 24, !12, i64 32}
!43 = !{!"_ZTSN2kc25impl_ac_direct_declaratorE", !11, i64 0}
!44 = !{!45, !12, i64 8}
!45 = !{!"_ZTSN2kc40impl_ac_direct_declarator_AcDirectDeclIdE", !43, i64 0, !12, i64 8}
!46 = !{!47, !12, i64 40}
!47 = !{!"_ZTSN2kc10impl_ID_IdE", !48, i64 0, !12, i64 40}
!48 = !{!"_ZTSN2kc7impl_IDE", !11, i64 0, !12, i64 8, !12, i64 16, !30, i64 24, !12, i64 32}
!49 = !{!50, !12, i64 40}
!50 = !{!"_ZTSN2kc15impl_uniqID_StrE", !51, i64 0, !12, i64 40}
!51 = !{!"_ZTSN2kc11impl_uniqIDE", !11, i64 0, !12, i64 8, !30, i64 16, !12, i64 24, !12, i64 32}
!52 = !{!53, !12, i64 8}
!53 = !{!"_ZTSN2kc20impl_casestring__StrE", !11, i64 0, !12, i64 8}
!54 = !{!26, !12, i64 16}
!55 = !{!56, !12, i64 16}
!56 = !{!"_ZTSN2kc22impl_phylumdeclarationE", !11, i64 0, !30, i64 8, !12, i64 16, !12, i64 24}
!57 = !{!58, !12, i64 40}
!58 = !{!"_ZTSN2kc28impl_alternative_AlternativeE", !36, i64 0, !12, i64 40, !12, i64 48}
!59 = !{!60, !12, i64 8}
!60 = !{!"_ZTSN2kc18impl_withcasesinfoE", !17, i64 0, !12, i64 8, !12, i64 16}
!61 = !{!60, !12, i64 16}
!62 = !{!63, !12, i64 8}
!63 = !{!"_ZTSN2kc30impl_withcaseinfo_WithcaseinfoE", !64, i64 0, !12, i64 8, !12, i64 16, !12, i64 24}
!64 = !{!"_ZTSN2kc17impl_withcaseinfoE", !11, i64 0}
!65 = !{!66, !12, i64 8}
!66 = !{!"_ZTSN2kc26impl_patternrepresentationE", !17, i64 0, !12, i64 8, !12, i64 16}
!67 = !{!66, !12, i64 16}
!68 = !{!69, !12, i64 40}
!69 = !{!"_ZTSN2kc47impl_elem_patternrepresentation_PROperPredicateE", !70, i64 0, !12, i64 32, !12, i64 40}
!70 = !{!"_ZTSN2kc31impl_elem_patternrepresentationE", !11, i64 0, !30, i64 8, !12, i64 16, !12, i64 24}
!71 = !{!42, !12, i64 24}
!72 = !{!73, !12, i64 16}
!73 = !{!"_ZTSN2kc43impl_ac_direct_declarator_AcDirectDeclProtoE", !43, i64 0, !12, i64 8, !12, i64 16}
!74 = !{!75, !12, i64 8}
!75 = !{!"_ZTSN2kc23impl_ac_identifier_listE", !17, i64 0, !12, i64 8, !12, i64 16}
!76 = !{!75, !12, i64 16}
!77 = !{!78, !12, i64 8}
!78 = !{!"_ZTSN2kc24impl_ac_declaration_listE", !17, i64 0, !12, i64 8, !12, i64 16}
!79 = !{!80, !12, i64 8}
!80 = !{!"_ZTSN2kc33impl_ac_declaration_AcDeclarationE", !81, i64 0, !12, i64 8, !12, i64 16}
!81 = !{!"_ZTSN2kc19impl_ac_declarationE", !11, i64 0}
!82 = !{!83, !12, i64 8}
!83 = !{!"_ZTSN2kc28impl_ac_init_declarator_listE", !17, i64 0, !12, i64 8, !12, i64 16}
!84 = !{!85, !12, i64 8}
!85 = !{!"_ZTSN2kc34impl_ac_init_declarator_AcInitDeclE", !86, i64 0, !12, i64 8}
!86 = !{!"_ZTSN2kc23impl_ac_init_declaratorE", !11, i64 0}
!87 = distinct !{!87, !23}
!88 = !{!78, !12, i64 16}
!89 = distinct !{!89, !23}
!90 = !{!48, !12, i64 32}
!91 = !{!48, !30, i64 24}
!92 = !{!93, !30, i64 8}
!93 = !{!"_ZTSN2kc13impl_charrunsE", !11, i64 0, !30, i64 8}
!94 = !{!13, !13, i64 0}
!95 = distinct !{!95, !23}
!96 = !{!97, !12, i64 0}
!97 = !{!"_ZTSNSt7__cxx1112basic_stringIcSt11char_traitsIcESaIcEEE", !98, i64 0, !99, i64 8, !13, i64 16}
!98 = !{!"_ZTSNSt7__cxx1112basic_stringIcSt11char_traitsIcESaIcEE12_Alloc_hiderE", !12, i64 0}
!99 = !{!"long", !13, i64 0}
!100 = distinct !{!100, !23}
!101 = !{!36, !12, i64 8}
!102 = !{!103, !12, i64 24}
!103 = !{!"_ZTSN2kc36impl_rewriteruleinfo_RewriteruleinfoE", !104, i64 0, !12, i64 8, !12, i64 16, !12, i64 24}
!104 = !{!"_ZTSN2kc20impl_rewriteruleinfoE", !11, i64 0}
!105 = !{!106, !12, i64 8}
!106 = !{!"_ZTSN2kc32impl_rewriteclause_RewriteClauseE", !107, i64 0, !12, i64 8, !12, i64 16}
!107 = !{!"_ZTSN2kc18impl_rewriteclauseE", !11, i64 0}
!108 = !{!109, !12, i64 16}
!109 = !{!"_ZTSN2kc14impl_viewnamesE", !17, i64 0, !31, i64 8, !12, i64 16, !12, i64 24}
!110 = !{!109, !12, i64 24}
!111 = distinct !{!111, !23}
!112 = !{!36, !12, i64 16}
!113 = distinct !{!113, !23}
!114 = !{!115, !12, i64 24}
!115 = !{!"_ZTSN2kc36impl_unparsedeclinfo_UnparsedeclinfoE", !116, i64 0, !12, i64 8, !12, i64 16, !12, i64 24}
!116 = !{!"_ZTSN2kc20impl_unparsedeclinfoE", !11, i64 0}
!117 = !{!118, !12, i64 8}
!118 = !{!"_ZTSN2kc32impl_unparseclause_UnparseClauseE", !119, i64 0, !12, i64 8, !12, i64 16}
!119 = !{!"_ZTSN2kc18impl_unparseclauseE", !11, i64 0}
!120 = !{!121, !12, i64 16}
!121 = !{!"_ZTSN2kc9impl_pathE", !17, i64 0, !12, i64 8, !12, i64 16, !12, i64 24, !12, i64 32}
!122 = !{!121, !12, i64 24}
!123 = !{!121, !12, i64 32}
!124 = !{!121, !12, i64 8}
!125 = !{!126, !12, i64 32}
!126 = !{!"_ZTSN2kc44impl_elem_patternrepresentation_PRIntLiteralE", !70, i64 0, !12, i64 32, !12, i64 40}
!127 = !{!128, !12, i64 32}
!128 = !{!"_ZTSN2kc47impl_elem_patternrepresentation_PRStringLiteralE", !70, i64 0, !12, i64 32, !12, i64 40}
!129 = !{!130, !12, i64 32}
!130 = !{!"_ZTSN2kc42impl_elem_patternrepresentation_PRWildcardE", !70, i64 0, !12, i64 32}
!131 = !{!132, !12, i64 32}
!132 = !{!"_ZTSN2kc48impl_elem_patternrepresentation_PRNonLeafBindingE", !70, i64 0, !12, i64 32, !12, i64 40, !12, i64 48}
!133 = !{!69, !12, i64 32}
!134 = !{!135, !12, i64 32}
!135 = !{!"_ZTSN2kc41impl_elem_patternrepresentation_PRBindingE", !70, i64 0, !12, i64 32, !12, i64 40}
!136 = !{!137, !12, i64 32}
!137 = !{!"_ZTSN2kc46impl_elem_patternrepresentation_PRVarPredicateE", !70, i64 0, !12, i64 32, !12, i64 40, !12, i64 48}
!138 = !{!139, !12, i64 8}
!139 = !{!"_ZTSN2kc10impl_pathsE", !17, i64 0, !12, i64 8, !12, i64 16}
!140 = !{!141, !12, i64 8}
!141 = !{!"_ZTSN2kc33impl_unpsubterm_UnpCastedVariableE", !142, i64 0, !12, i64 8, !12, i64 16}
!142 = !{!"_ZTSN2kc15impl_unpsubtermE", !11, i64 0}
!143 = !{!144, !12, i64 8}
!144 = !{!"_ZTSN2kc32impl_unpsubterm_UnpDollarvarAttrE", !142, i64 0, !12, i64 8, !12, i64 16}
!145 = !{!144, !12, i64 16}
!146 = !{!147, !12, i64 8}
!147 = !{!"_ZTSN2kc26impl_unpsubterm_UnpSubAttrE", !142, i64 0, !12, i64 8, !12, i64 16}
!148 = !{!147, !12, i64 16}
!149 = !{!150, !12, i64 8}
!150 = !{!"_ZTSN2kc32impl_unpsubterm_UnpDollarvarTermE", !142, i64 0, !12, i64 8}
!151 = !{!152, !12, i64 8}
!152 = !{!"_ZTSN2kc26impl_unpsubterm_UnpSubTermE", !142, i64 0, !12, i64 8}
!153 = !{!154, !12, i64 8}
!154 = !{!"_ZTSN2kc21impl_rewriterulesinfoE", !17, i64 0, !12, i64 8, !12, i64 16}
!155 = !{!103, !12, i64 8}
!156 = !{!154, !12, i64 16}
!157 = !{!139, !12, i64 16}
!158 = !{!159, !12, i64 8}
!159 = !{!"_ZTSN2kc21impl_unparsedeclsinfoE", !17, i64 0, !12, i64 8, !12, i64 16}
!160 = !{!115, !12, i64 8}
!161 = !{!159, !12, i64 16}
!162 = !{!163, !12, i64 8}
!163 = !{!"_ZTSN2kc16impl_phylumnamesE", !17, i64 0, !12, i64 8, !12, i64 16}
!164 = !{!63, !12, i64 16}
!165 = !{!63, !12, i64 24}
!166 = !{!167, !12, i64 24}
!167 = !{!"_ZTSN2kc17impl_patternchainE", !17, i64 0, !30, i64 8, !12, i64 16, !12, i64 24, !12, i64 32}
!168 = !{!167, !12, i64 32}
!169 = !{!170, !12, i64 32}
!170 = !{!"_ZTSN2kc45impl_patternchainitem_PatternchainitemOutmostE", !171, i64 0, !12, i64 32}
!171 = !{!"_ZTSN2kc21impl_patternchainitemE", !11, i64 0, !30, i64 8, !12, i64 16, !12, i64 24}
!172 = !{!173, !12, i64 32}
!173 = !{!"_ZTSN2kc38impl_outmostpattern_OPOperatorWildcardE", !174, i64 0, !12, i64 32, !12, i64 40}
!174 = !{!"_ZTSN2kc19impl_outmostpatternE", !11, i64 0, !30, i64 8, !12, i64 16, !12, i64 24}
!175 = !{!51, !12, i64 8}
!176 = !{!98, !12, i64 0}
!177 = !{!97, !99, i64 8}
