; ModuleID = '/usr/local/google/home/aeubanks/repos/test-suite/MicroBenchmarks/libs/benchmark/test/string_util_gtest.cc'
source_filename = "/usr/local/google/home/aeubanks/repos/test-suite/MicroBenchmarks/libs/benchmark/test/string_util_gtest.cc"
target datalayout = "e-m:e-p270:32:32-p271:32:32-p272:64:64-i64:64-f80:128-n8:16:32:64-S128"
target triple = "x86_64-unknown-linux-gnu"

%"class.std::ios_base::Init" = type { i8 }
%"class.std::basic_ostream" = type { ptr, %"class.std::basic_ios" }
%"class.std::basic_ios" = type { %"class.std::ios_base", ptr, i8, i8, ptr, ptr, ptr, ptr }
%"class.std::ios_base" = type { ptr, i64, i64, i32, i32, i32, ptr, %"struct.std::ios_base::_Words", [8 x %"struct.std::ios_base::_Words"], i32, ptr, %"class.std::locale" }
%"struct.std::ios_base::_Words" = type { ptr, i64 }
%"class.std::locale" = type { ptr }
%"class.testing::internal::GTestLog" = type { i32 }
%"class.testing::AssertionResult" = type { i8, %"class.std::unique_ptr.21" }
%"class.std::unique_ptr.21" = type { %"struct.std::__uniq_ptr_data.22" }
%"struct.std::__uniq_ptr_data.22" = type { %"class.std::__uniq_ptr_impl.23" }
%"class.std::__uniq_ptr_impl.23" = type { %"class.std::tuple.24" }
%"class.std::tuple.24" = type { %"struct.std::_Tuple_impl.25" }
%"struct.std::_Tuple_impl.25" = type { %"struct.std::_Head_base.28" }
%"struct.std::_Head_base.28" = type { ptr }
%"class.std::__cxx11::basic_string" = type { %"struct.std::__cxx11::basic_string<char>::_Alloc_hider", i64, %union.anon }
%"struct.std::__cxx11::basic_string<char>::_Alloc_hider" = type { ptr }
%union.anon = type { i64, [8 x i8] }
%"class.testing::Message" = type { %"class.std::unique_ptr.29" }
%"class.std::unique_ptr.29" = type { %"struct.std::__uniq_ptr_data.30" }
%"struct.std::__uniq_ptr_data.30" = type { %"class.std::__uniq_ptr_impl.31" }
%"class.std::__uniq_ptr_impl.31" = type { %"class.std::tuple.32" }
%"class.std::tuple.32" = type { %"struct.std::_Tuple_impl.33" }
%"struct.std::_Tuple_impl.33" = type { %"struct.std::_Head_base.36" }
%"struct.std::_Head_base.36" = type { ptr }
%"class.testing::internal::AssertHelper" = type { ptr }
%"struct.testing::internal::TrueWithString" = type { %"class.std::__cxx11::basic_string" }
%"class.std::type_info" = type { ptr, ptr }
%"class.std::__cxx11::basic_stringstream" = type { %"class.std::basic_iostream.base", %"class.std::__cxx11::basic_stringbuf", %"class.std::basic_ios" }
%"class.std::basic_iostream.base" = type { %"class.std::basic_istream.base", %"class.std::basic_ostream.base" }
%"class.std::basic_istream.base" = type { ptr, i64 }
%"class.std::basic_ostream.base" = type { ptr }
%"class.std::__cxx11::basic_stringbuf" = type { %"class.std::basic_streambuf", i32, %"class.std::__cxx11::basic_string" }
%"class.std::basic_streambuf" = type { ptr, ptr, ptr, ptr, ptr, ptr, ptr, %"class.std::locale" }
%"class.std::basic_istream" = type { ptr, i64, %"class.std::basic_ios" }
%"class.std::vector.46" = type { %"struct.std::_Vector_base.47" }
%"struct.std::_Vector_base.47" = type { %"struct.std::_Vector_base<std::__cxx11::basic_string<char>, std::allocator<std::__cxx11::basic_string<char>>>::_Vector_impl" }
%"struct.std::_Vector_base<std::__cxx11::basic_string<char>, std::allocator<std::__cxx11::basic_string<char>>>::_Vector_impl" = type { %"struct.std::_Vector_base<std::__cxx11::basic_string<char>, std::allocator<std::__cxx11::basic_string<char>>>::_Vector_impl_data" }
%"struct.std::_Vector_base<std::__cxx11::basic_string<char>, std::allocator<std::__cxx11::basic_string<char>>>::_Vector_impl_data" = type { ptr, ptr, ptr }
%"struct.testing::internal::CodeLocation" = type <{ %"class.std::__cxx11::basic_string", i32, [4 x i8] }>

$_ZN7testing8internal16SuiteApiResolverINS_4TestEE19GetSetUpCaseOrSuiteEPKci = comdat any

$_ZN7testing8internal16SuiteApiResolverINS_4TestEE22GetTearDownCaseOrSuiteEPKci = comdat any

$__clang_call_terminate = comdat any

$_ZN7testing8internal15TestFactoryBaseD2Ev = comdat any

$_ZN7testing4Test5SetupEv = comdat any

$_ZN7testing15AssertionResultD2Ev = comdat any

$_ZN7testing8internal11GetTypeNameB5cxx11ERKSt9type_info = comdat any

$_ZN7testing8internal18CmpHelperEQFailureImmEENS_15AssertionResultEPKcS4_RKT_RKT0_ = comdat any

$_ZN7testing13PrintToStringImEENSt7__cxx1112basic_stringIcSt11char_traitsIcESaIcEEERKT_ = comdat any

$_ZN7testing8internal31CanonicalizeForStdLibVersioningENSt7__cxx1112basic_stringIcSt11char_traitsIcESaIcEEE = comdat any

$_ZN7testing8internal18CmpHelperEQFailureIiiEENS_15AssertionResultEPKcS4_RKT_RKT0_ = comdat any

$_ZN7testing13PrintToStringIiEENSt7__cxx1112basic_stringIcSt11char_traitsIcESaIcEEERKT_ = comdat any

$_ZN7testing8internal18CmpHelperEQFailureIddEENS_15AssertionResultEPKcS4_RKT_RKT0_ = comdat any

$_ZN7testing13PrintToStringIdEENSt7__cxx1112basic_stringIcSt11char_traitsIcESaIcEEERKT_ = comdat any

$_ZNSt6vectorINSt7__cxx1112basic_stringIcSt11char_traitsIcESaIcEEESaIS5_EED2Ev = comdat any

$_ZN7testing8internal18CmpHelperEQFailureISt6vectorINSt7__cxx1112basic_stringIcSt11char_traitsIcESaIcEEESaIS8_EESA_EENS_15AssertionResultEPKcSD_RKT_RKT0_ = comdat any

$_ZN7testing13PrintToStringISt6vectorINSt7__cxx1112basic_stringIcSt11char_traitsIcESaIcEEESaIS7_EEEES7_RKT_ = comdat any

$_ZN7testing8internal16ContainerPrinter10PrintValueISt6vectorINSt7__cxx1112basic_stringIcSt11char_traitsIcESaIcEEESaIS9_EEvEEvRKT_PSo = comdat any

$_ZSt16__do_uninit_copyIPKNSt7__cxx1112basic_stringIcSt11char_traitsIcESaIcEEEPS5_ET0_T_SA_S9_ = comdat any

$_ZTSN7testing8internal15TestFactoryBaseE = comdat any

$_ZTIN7testing8internal15TestFactoryBaseE = comdat any

$_ZZN7testing8internal31CanonicalizeForStdLibVersioningENSt7__cxx1112basic_stringIcSt11char_traitsIcESaIcEEEE6prefix = comdat any

@_ZStL8__ioinit = internal global %"class.std::ios_base::Init" zeroinitializer, align 1
@__dso_handle = external hidden global i8
@_ZN12_GLOBAL__N_125StringUtilTest_stoul_Test10test_info_E = internal global ptr null, align 8
@.str = private unnamed_addr constant [15 x i8] c"StringUtilTest\00", align 1
@.str.3 = private unnamed_addr constant [6 x i8] c"stoul\00", align 1
@.str.4 = private unnamed_addr constant [106 x i8] c"/usr/local/google/home/aeubanks/repos/test-suite/MicroBenchmarks/libs/benchmark/test/string_util_gtest.cc\00", align 1
@_ZN12_GLOBAL__N_124StringUtilTest_stoi_Test10test_info_E = internal global ptr null, align 8
@.str.6 = private unnamed_addr constant [5 x i8] c"stoi\00", align 1
@_ZN12_GLOBAL__N_124StringUtilTest_stod_Test10test_info_E = internal global ptr null, align 8
@.str.8 = private unnamed_addr constant [5 x i8] c"stod\00", align 1
@_ZN12_GLOBAL__N_128StringUtilTest_StrSplit_Test10test_info_E = internal global ptr null, align 8
@.str.10 = private unnamed_addr constant [9 x i8] c"StrSplit\00", align 1
@_ZTVN7testing8internal15TestFactoryImplIN12_GLOBAL__N_125StringUtilTest_stoul_TestEEE = internal unnamed_addr constant { [5 x ptr] } { [5 x ptr] [ptr null, ptr @_ZTIN7testing8internal15TestFactoryImplIN12_GLOBAL__N_125StringUtilTest_stoul_TestEEE, ptr @_ZN7testing8internal15TestFactoryBaseD2Ev, ptr @_ZN7testing8internal15TestFactoryImplIN12_GLOBAL__N_125StringUtilTest_stoul_TestEED0Ev, ptr @_ZN7testing8internal15TestFactoryImplIN12_GLOBAL__N_125StringUtilTest_stoul_TestEE10CreateTestEv] }, align 8
@_ZTVN10__cxxabiv120__si_class_type_infoE = external global ptr
@_ZTSN7testing8internal15TestFactoryImplIN12_GLOBAL__N_125StringUtilTest_stoul_TestEEE = internal constant [82 x i8] c"N7testing8internal15TestFactoryImplIN12_GLOBAL__N_125StringUtilTest_stoul_TestEEE\00", align 1
@_ZTVN10__cxxabiv117__class_type_infoE = external global ptr
@_ZTSN7testing8internal15TestFactoryBaseE = linkonce_odr hidden constant [37 x i8] c"N7testing8internal15TestFactoryBaseE\00", comdat, align 1
@_ZTIN7testing8internal15TestFactoryBaseE = linkonce_odr hidden constant { ptr, ptr } { ptr getelementptr inbounds (ptr, ptr @_ZTVN10__cxxabiv117__class_type_infoE, i64 2), ptr @_ZTSN7testing8internal15TestFactoryBaseE }, comdat, align 8
@_ZTIN7testing8internal15TestFactoryImplIN12_GLOBAL__N_125StringUtilTest_stoul_TestEEE = internal constant { ptr, ptr, ptr } { ptr getelementptr inbounds (ptr, ptr @_ZTVN10__cxxabiv120__si_class_type_infoE, i64 2), ptr @_ZTSN7testing8internal15TestFactoryImplIN12_GLOBAL__N_125StringUtilTest_stoul_TestEEE, ptr @_ZTIN7testing8internal15TestFactoryBaseE }, align 8
@_ZTVN12_GLOBAL__N_125StringUtilTest_stoul_TestE = internal unnamed_addr constant { [8 x ptr] } { [8 x ptr] [ptr null, ptr @_ZTIN12_GLOBAL__N_125StringUtilTest_stoul_TestE, ptr @_ZN7testing4TestD2Ev, ptr @_ZN12_GLOBAL__N_125StringUtilTest_stoul_TestD0Ev, ptr @_ZN7testing4Test5SetUpEv, ptr @_ZN7testing4Test8TearDownEv, ptr @_ZN12_GLOBAL__N_125StringUtilTest_stoul_Test8TestBodyEv, ptr @_ZN7testing4Test5SetupEv] }, align 8
@_ZTSN12_GLOBAL__N_125StringUtilTest_stoul_TestE = internal constant [44 x i8] c"N12_GLOBAL__N_125StringUtilTest_stoul_TestE\00", align 1
@_ZTIN7testing4TestE = external constant ptr
@_ZTIN12_GLOBAL__N_125StringUtilTest_stoul_TestE = internal constant { ptr, ptr, ptr } { ptr getelementptr inbounds (ptr, ptr @_ZTVN10__cxxabiv120__si_class_type_infoE, i64 2), ptr @_ZTSN12_GLOBAL__N_125StringUtilTest_stoul_TestE, ptr @_ZTIN7testing4TestE }, align 8
@.str.11 = private unnamed_addr constant [4 x i8] c"0ul\00", align 1
@.str.12 = private unnamed_addr constant [28 x i8] c"benchmark::stoul(\220\22, &pos)\00", align 1
@.str.13 = private unnamed_addr constant [2 x i8] c"0\00", align 1
@.str.14 = private unnamed_addr constant [4 x i8] c"1ul\00", align 1
@.str.15 = private unnamed_addr constant [4 x i8] c"pos\00", align 1
@.str.16 = private unnamed_addr constant [4 x i8] c"7ul\00", align 1
@.str.17 = private unnamed_addr constant [28 x i8] c"benchmark::stoul(\227\22, &pos)\00", align 1
@.str.19 = private unnamed_addr constant [6 x i8] c"135ul\00", align 1
@.str.20 = private unnamed_addr constant [30 x i8] c"benchmark::stoul(\22135\22, &pos)\00", align 1
@.str.21 = private unnamed_addr constant [4 x i8] c"135\00", align 1
@.str.22 = private unnamed_addr constant [4 x i8] c"3ul\00", align 1
@.str.23 = private unnamed_addr constant [5 x i8] c"10ul\00", align 1
@.str.24 = private unnamed_addr constant [34 x i8] c"benchmark::stoul(\221010\22, &pos, 2)\00", align 1
@.str.25 = private unnamed_addr constant [5 x i8] c"1010\00", align 1
@.str.26 = private unnamed_addr constant [4 x i8] c"4ul\00", align 1
@.str.27 = private unnamed_addr constant [6 x i8] c"520ul\00", align 1
@.str.28 = private unnamed_addr constant [34 x i8] c"benchmark::stoul(\221010\22, &pos, 8)\00", align 1
@.str.29 = private unnamed_addr constant [7 x i8] c"1010ul\00", align 1
@.str.30 = private unnamed_addr constant [35 x i8] c"benchmark::stoul(\221010\22, &pos, 10)\00", align 1
@.str.31 = private unnamed_addr constant [7 x i8] c"4112ul\00", align 1
@.str.32 = private unnamed_addr constant [35 x i8] c"benchmark::stoul(\221010\22, &pos, 16)\00", align 1
@.str.33 = private unnamed_addr constant [9 x i8] c"0xBEEFul\00", align 1
@.str.34 = private unnamed_addr constant [35 x i8] c"benchmark::stoul(\22BEEF\22, &pos, 16)\00", align 1
@_ZTISt16invalid_argument = external constant ptr
@_ZTISt9exception = external constant ptr
@.str.36 = private unnamed_addr constant [15 x i8] c"this is a test\00", align 1
@.str.37 = private unnamed_addr constant [134 x i8] c"Expected: benchmark::stoul(\22this is a test\22) throws an exception of type std::invalid_argument.\0A  Actual: it throws a different type.\00", align 1
@.str.38 = private unnamed_addr constant [117 x i8] c"Expected: benchmark::stoul(\22this is a test\22) throws an exception of type std::invalid_argument.\0A  Actual: it throws \00", align 1
@.str.39 = private unnamed_addr constant [20 x i8] c" with description \22\00", align 1
@.str.40 = private unnamed_addr constant [3 x i8] c"\22.\00", align 1
@.str.41 = private unnamed_addr constant [125 x i8] c"Expected: benchmark::stoul(\22this is a test\22) throws an exception of type std::invalid_argument.\0A  Actual: it throws nothing.\00", align 1
@_ZTTNSt7__cxx1118basic_stringstreamIcSt11char_traitsIcESaIcEEE = external unnamed_addr constant [10 x ptr], align 8
@_ZTVNSt7__cxx1115basic_stringbufIcSt11char_traitsIcESaIcEEE = external unnamed_addr constant { [16 x ptr] }, align 8
@_ZTVSt15basic_streambufIcSt11char_traitsIcEE = external unnamed_addr constant { [16 x ptr] }, align 8
@.str.43 = private unnamed_addr constant [55 x i8] c"%s: __pos (which is %zu) > this->size() (which is %zu)\00", align 1
@.str.44 = private unnamed_addr constant [1 x i8] zeroinitializer, align 1
@_ZZN7testing8internal31CanonicalizeForStdLibVersioningENSt7__cxx1112basic_stringIcSt11char_traitsIcESaIcEEEE6prefix = linkonce_odr hidden constant [8 x i8] c"std::__\00", comdat, align 1
@.str.45 = private unnamed_addr constant [3 x i8] c"::\00", align 1
@.str.46 = private unnamed_addr constant [20 x i8] c"basic_string::erase\00", align 1
@_ZTVN7testing8internal15TestFactoryImplIN12_GLOBAL__N_124StringUtilTest_stoi_TestEEE = internal unnamed_addr constant { [5 x ptr] } { [5 x ptr] [ptr null, ptr @_ZTIN7testing8internal15TestFactoryImplIN12_GLOBAL__N_124StringUtilTest_stoi_TestEEE, ptr @_ZN7testing8internal15TestFactoryBaseD2Ev, ptr @_ZN7testing8internal15TestFactoryImplIN12_GLOBAL__N_124StringUtilTest_stoi_TestEED0Ev, ptr @_ZN7testing8internal15TestFactoryImplIN12_GLOBAL__N_124StringUtilTest_stoi_TestEE10CreateTestEv] }, align 8
@_ZTSN7testing8internal15TestFactoryImplIN12_GLOBAL__N_124StringUtilTest_stoi_TestEEE = internal constant [81 x i8] c"N7testing8internal15TestFactoryImplIN12_GLOBAL__N_124StringUtilTest_stoi_TestEEE\00", align 1
@_ZTIN7testing8internal15TestFactoryImplIN12_GLOBAL__N_124StringUtilTest_stoi_TestEEE = internal constant { ptr, ptr, ptr } { ptr getelementptr inbounds (ptr, ptr @_ZTVN10__cxxabiv120__si_class_type_infoE, i64 2), ptr @_ZTSN7testing8internal15TestFactoryImplIN12_GLOBAL__N_124StringUtilTest_stoi_TestEEE, ptr @_ZTIN7testing8internal15TestFactoryBaseE }, align 8
@_ZTVN12_GLOBAL__N_124StringUtilTest_stoi_TestE = internal unnamed_addr constant { [8 x ptr] } { [8 x ptr] [ptr null, ptr @_ZTIN12_GLOBAL__N_124StringUtilTest_stoi_TestE, ptr @_ZN7testing4TestD2Ev, ptr @_ZN12_GLOBAL__N_124StringUtilTest_stoi_TestD0Ev, ptr @_ZN7testing4Test5SetUpEv, ptr @_ZN7testing4Test8TearDownEv, ptr @_ZN12_GLOBAL__N_124StringUtilTest_stoi_Test8TestBodyEv, ptr @_ZN7testing4Test5SetupEv] }, align 8
@_ZTSN12_GLOBAL__N_124StringUtilTest_stoi_TestE = internal constant [43 x i8] c"N12_GLOBAL__N_124StringUtilTest_stoi_TestE\00", align 1
@_ZTIN12_GLOBAL__N_124StringUtilTest_stoi_TestE = internal constant { ptr, ptr, ptr } { ptr getelementptr inbounds (ptr, ptr @_ZTVN10__cxxabiv120__si_class_type_infoE, i64 2), ptr @_ZTSN12_GLOBAL__N_124StringUtilTest_stoi_TestE, ptr @_ZTIN7testing4TestE }, align 8
@.str.48 = private unnamed_addr constant [27 x i8] c"benchmark::stoi(\220\22, &pos)\00", align 1
@.str.49 = private unnamed_addr constant [4 x i8] c"-17\00", align 1
@.str.50 = private unnamed_addr constant [29 x i8] c"benchmark::stoi(\22-17\22, &pos)\00", align 1
@.str.51 = private unnamed_addr constant [5 x i8] c"1357\00", align 1
@.str.52 = private unnamed_addr constant [30 x i8] c"benchmark::stoi(\221357\22, &pos)\00", align 1
@.str.53 = private unnamed_addr constant [3 x i8] c"10\00", align 1
@.str.54 = private unnamed_addr constant [33 x i8] c"benchmark::stoi(\221010\22, &pos, 2)\00", align 1
@.str.55 = private unnamed_addr constant [4 x i8] c"520\00", align 1
@.str.56 = private unnamed_addr constant [33 x i8] c"benchmark::stoi(\221010\22, &pos, 8)\00", align 1
@.str.57 = private unnamed_addr constant [34 x i8] c"benchmark::stoi(\221010\22, &pos, 10)\00", align 1
@.str.58 = private unnamed_addr constant [5 x i8] c"4112\00", align 1
@.str.59 = private unnamed_addr constant [34 x i8] c"benchmark::stoi(\221010\22, &pos, 16)\00", align 1
@.str.60 = private unnamed_addr constant [7 x i8] c"0xBEEF\00", align 1
@.str.61 = private unnamed_addr constant [34 x i8] c"benchmark::stoi(\22BEEF\22, &pos, 16)\00", align 1
@.str.62 = private unnamed_addr constant [133 x i8] c"Expected: benchmark::stoi(\22this is a test\22) throws an exception of type std::invalid_argument.\0A  Actual: it throws a different type.\00", align 1
@.str.63 = private unnamed_addr constant [116 x i8] c"Expected: benchmark::stoi(\22this is a test\22) throws an exception of type std::invalid_argument.\0A  Actual: it throws \00", align 1
@.str.64 = private unnamed_addr constant [124 x i8] c"Expected: benchmark::stoi(\22this is a test\22) throws an exception of type std::invalid_argument.\0A  Actual: it throws nothing.\00", align 1
@_ZTVN7testing8internal15TestFactoryImplIN12_GLOBAL__N_124StringUtilTest_stod_TestEEE = internal unnamed_addr constant { [5 x ptr] } { [5 x ptr] [ptr null, ptr @_ZTIN7testing8internal15TestFactoryImplIN12_GLOBAL__N_124StringUtilTest_stod_TestEEE, ptr @_ZN7testing8internal15TestFactoryBaseD2Ev, ptr @_ZN7testing8internal15TestFactoryImplIN12_GLOBAL__N_124StringUtilTest_stod_TestEED0Ev, ptr @_ZN7testing8internal15TestFactoryImplIN12_GLOBAL__N_124StringUtilTest_stod_TestEE10CreateTestEv] }, align 8
@_ZTSN7testing8internal15TestFactoryImplIN12_GLOBAL__N_124StringUtilTest_stod_TestEEE = internal constant [81 x i8] c"N7testing8internal15TestFactoryImplIN12_GLOBAL__N_124StringUtilTest_stod_TestEEE\00", align 1
@_ZTIN7testing8internal15TestFactoryImplIN12_GLOBAL__N_124StringUtilTest_stod_TestEEE = internal constant { ptr, ptr, ptr } { ptr getelementptr inbounds (ptr, ptr @_ZTVN10__cxxabiv120__si_class_type_infoE, i64 2), ptr @_ZTSN7testing8internal15TestFactoryImplIN12_GLOBAL__N_124StringUtilTest_stod_TestEEE, ptr @_ZTIN7testing8internal15TestFactoryBaseE }, align 8
@_ZTVN12_GLOBAL__N_124StringUtilTest_stod_TestE = internal unnamed_addr constant { [8 x ptr] } { [8 x ptr] [ptr null, ptr @_ZTIN12_GLOBAL__N_124StringUtilTest_stod_TestE, ptr @_ZN7testing4TestD2Ev, ptr @_ZN12_GLOBAL__N_124StringUtilTest_stod_TestD0Ev, ptr @_ZN7testing4Test5SetUpEv, ptr @_ZN7testing4Test8TearDownEv, ptr @_ZN12_GLOBAL__N_124StringUtilTest_stod_Test8TestBodyEv, ptr @_ZN7testing4Test5SetupEv] }, align 8
@_ZTSN12_GLOBAL__N_124StringUtilTest_stod_TestE = internal constant [43 x i8] c"N12_GLOBAL__N_124StringUtilTest_stod_TestE\00", align 1
@_ZTIN12_GLOBAL__N_124StringUtilTest_stod_TestE = internal constant { ptr, ptr, ptr } { ptr getelementptr inbounds (ptr, ptr @_ZTVN10__cxxabiv120__si_class_type_infoE, i64 2), ptr @_ZTSN12_GLOBAL__N_124StringUtilTest_stod_TestE, ptr @_ZTIN7testing4TestE }, align 8
@.str.65 = private unnamed_addr constant [4 x i8] c"0.0\00", align 1
@.str.66 = private unnamed_addr constant [27 x i8] c"benchmark::stod(\220\22, &pos)\00", align 1
@.str.67 = private unnamed_addr constant [6 x i8] c"-84.0\00", align 1
@.str.68 = private unnamed_addr constant [29 x i8] c"benchmark::stod(\22-84\22, &pos)\00", align 1
@.str.69 = private unnamed_addr constant [4 x i8] c"-84\00", align 1
@.str.70 = private unnamed_addr constant [7 x i8] c"1234.0\00", align 1
@.str.71 = private unnamed_addr constant [30 x i8] c"benchmark::stod(\221234\22, &pos)\00", align 1
@.str.73 = private unnamed_addr constant [4 x i8] c"1.5\00", align 1
@.str.74 = private unnamed_addr constant [29 x i8] c"benchmark::stod(\221.5\22, &pos)\00", align 1
@.str.75 = private unnamed_addr constant [9 x i8] c"-1.25e+9\00", align 1
@.str.76 = private unnamed_addr constant [34 x i8] c"benchmark::stod(\22-1.25e+9\22, &pos)\00", align 1
@.str.77 = private unnamed_addr constant [4 x i8] c"8ul\00", align 1
@.str.78 = private unnamed_addr constant [133 x i8] c"Expected: benchmark::stod(\22this is a test\22) throws an exception of type std::invalid_argument.\0A  Actual: it throws a different type.\00", align 1
@.str.79 = private unnamed_addr constant [116 x i8] c"Expected: benchmark::stod(\22this is a test\22) throws an exception of type std::invalid_argument.\0A  Actual: it throws \00", align 1
@.str.80 = private unnamed_addr constant [124 x i8] c"Expected: benchmark::stod(\22this is a test\22) throws an exception of type std::invalid_argument.\0A  Actual: it throws nothing.\00", align 1
@_ZTVN7testing8internal15TestFactoryImplIN12_GLOBAL__N_128StringUtilTest_StrSplit_TestEEE = internal unnamed_addr constant { [5 x ptr] } { [5 x ptr] [ptr null, ptr @_ZTIN7testing8internal15TestFactoryImplIN12_GLOBAL__N_128StringUtilTest_StrSplit_TestEEE, ptr @_ZN7testing8internal15TestFactoryBaseD2Ev, ptr @_ZN7testing8internal15TestFactoryImplIN12_GLOBAL__N_128StringUtilTest_StrSplit_TestEED0Ev, ptr @_ZN7testing8internal15TestFactoryImplIN12_GLOBAL__N_128StringUtilTest_StrSplit_TestEE10CreateTestEv] }, align 8
@_ZTSN7testing8internal15TestFactoryImplIN12_GLOBAL__N_128StringUtilTest_StrSplit_TestEEE = internal constant [85 x i8] c"N7testing8internal15TestFactoryImplIN12_GLOBAL__N_128StringUtilTest_StrSplit_TestEEE\00", align 1
@_ZTIN7testing8internal15TestFactoryImplIN12_GLOBAL__N_128StringUtilTest_StrSplit_TestEEE = internal constant { ptr, ptr, ptr } { ptr getelementptr inbounds (ptr, ptr @_ZTVN10__cxxabiv120__si_class_type_infoE, i64 2), ptr @_ZTSN7testing8internal15TestFactoryImplIN12_GLOBAL__N_128StringUtilTest_StrSplit_TestEEE, ptr @_ZTIN7testing8internal15TestFactoryBaseE }, align 8
@_ZTVN12_GLOBAL__N_128StringUtilTest_StrSplit_TestE = internal unnamed_addr constant { [8 x ptr] } { [8 x ptr] [ptr null, ptr @_ZTIN12_GLOBAL__N_128StringUtilTest_StrSplit_TestE, ptr @_ZN7testing4TestD2Ev, ptr @_ZN12_GLOBAL__N_128StringUtilTest_StrSplit_TestD0Ev, ptr @_ZN7testing4Test5SetUpEv, ptr @_ZN7testing4Test8TearDownEv, ptr @_ZN12_GLOBAL__N_128StringUtilTest_StrSplit_Test8TestBodyEv, ptr @_ZN7testing4Test5SetupEv] }, align 8
@_ZTSN12_GLOBAL__N_128StringUtilTest_StrSplit_TestE = internal constant [47 x i8] c"N12_GLOBAL__N_128StringUtilTest_StrSplit_TestE\00", align 1
@_ZTIN12_GLOBAL__N_128StringUtilTest_StrSplit_TestE = internal constant { ptr, ptr, ptr } { ptr getelementptr inbounds (ptr, ptr @_ZTVN10__cxxabiv120__si_class_type_infoE, i64 2), ptr @_ZTSN12_GLOBAL__N_128StringUtilTest_StrSplit_TestE, ptr @_ZTIN7testing4TestE }, align 8
@.str.81 = private unnamed_addr constant [29 x i8] c"benchmark::StrSplit(\22\22, ',')\00", align 1
@.str.82 = private unnamed_addr constant [27 x i8] c"std::vector<std::string>{}\00", align 1
@.str.83 = private unnamed_addr constant [34 x i8] c"benchmark::StrSplit(\22hello\22, ',')\00", align 1
@.str.84 = private unnamed_addr constant [36 x i8] c"std::vector<std::string>({\22hello\22})\00", align 1
@.str.85 = private unnamed_addr constant [6 x i8] c"hello\00", align 1
@.str.86 = private unnamed_addr constant [48 x i8] c"benchmark::StrSplit(\22hello,there,is,more\22, ',')\00", align 1
@.str.87 = private unnamed_addr constant [59 x i8] c"std::vector<std::string>({\22hello\22, \22there\22, \22is\22, \22more\22})\00", align 1
@.str.88 = private unnamed_addr constant [20 x i8] c"hello,there,is,more\00", align 1
@.str.89 = private unnamed_addr constant [6 x i8] c"there\00", align 1
@.str.92 = private unnamed_addr constant [5 x i8] c" ...\00", align 1
@.str.94 = private unnamed_addr constant [50 x i8] c"basic_string: construction from null is not valid\00", align 1
@.str.95 = private unnamed_addr constant [142 x i8] c"/usr/local/google/home/aeubanks/repos/test-suite/MicroBenchmarks/libs/benchmark/googletest/googletest/include/gtest/internal/gtest-internal.h\00", align 1
@.str.96 = private unnamed_addr constant [51 x i8] c"Condition !test_case_fp || !test_suite_fp failed. \00", align 1
@.str.97 = private unnamed_addr constant [107 x i8] c"Test can not provide both SetUpTestSuite and SetUpTestCase, please make sure there is only one present at \00", align 1
@.str.98 = private unnamed_addr constant [2 x i8] c":\00", align 1
@_ZSt4cerr = external global %"class.std::basic_ostream", align 8
@.str.99 = private unnamed_addr constant [112 x i8] c"Test can not provide both TearDownTestSuite and TearDownTestCase, please make sure there is only one present at\00", align 1
@llvm.global_ctors = appending global [1 x { i32, ptr, ptr }] [{ i32, ptr, ptr } { i32 65535, ptr @_GLOBAL__sub_I_string_util_gtest.cc, ptr null }]

declare noundef i32 @_ZN9benchmark8internal17InitializeStreamsEv() local_unnamed_addr #0

declare void @_ZNSt8ios_base4InitC1Ev(ptr noundef nonnull align 1 dereferenceable(1)) unnamed_addr #0

; Function Attrs: nounwind
declare void @_ZNSt8ios_base4InitD1Ev(ptr noundef nonnull align 1 dereferenceable(1)) unnamed_addr #1

; Function Attrs: nofree nounwind
declare i32 @__cxa_atexit(ptr, ptr, ptr) local_unnamed_addr #2

declare noundef ptr @_ZN7testing8internal23MakeAndRegisterTestInfoEPKcS2_S2_S2_NS0_12CodeLocationEPKvPFvvES7_PNS0_15TestFactoryBaseE(ptr noundef, ptr noundef, ptr noundef, ptr noundef, ptr noundef, ptr noundef, ptr noundef, ptr noundef, ptr noundef) local_unnamed_addr #0

; Function Attrs: mustprogress nocallback nofree nosync nounwind willreturn memory(argmem: readwrite)
declare void @llvm.lifetime.start.p0(i64 immarg, ptr nocapture) #3

declare i32 @__gxx_personality_v0(...)

declare noundef ptr @_ZN7testing8internal13GetTestTypeIdEv() local_unnamed_addr #0

; Function Attrs: mustprogress uwtable
define linkonce_odr hidden noundef ptr @_ZN7testing8internal16SuiteApiResolverINS_4TestEE19GetSetUpCaseOrSuiteEPKci(ptr noundef %filename, i32 noundef %line_num) local_unnamed_addr #4 comdat align 2 personality ptr @__gxx_personality_v0 {
entry:
  %ref.tmp = alloca %"class.testing::internal::GTestLog", align 4
  %call3 = tail call noundef zeroext i1 @_ZN7testing8internal6IsTrueEb(i1 noundef zeroext true)
  br i1 %call3, label %if.end, label %if.else

if.else:                                          ; preds = %entry
  call void @llvm.lifetime.start.p0(i64 4, ptr nonnull %ref.tmp) #24
  call void @_ZN7testing8internal8GTestLogC1ENS0_16GTestLogSeverityEPKci(ptr noundef nonnull align 4 dereferenceable(4) %ref.tmp, i32 noundef 3, ptr noundef nonnull @.str.95, i32 noundef 531)
  %call1.i19 = invoke noundef nonnull align 8 dereferenceable(8) ptr @_ZSt16__ostream_insertIcSt11char_traitsIcEERSt13basic_ostreamIT_T0_ES6_PKS3_l(ptr noundef nonnull align 8 dereferenceable(8) @_ZSt4cerr, ptr noundef nonnull @.str.96, i64 noundef 50)
          to label %invoke.cont5 unwind label %lpad

invoke.cont5:                                     ; preds = %if.else
  %call1.i21 = invoke noundef nonnull align 8 dereferenceable(8) ptr @_ZSt16__ostream_insertIcSt11char_traitsIcEERSt13basic_ostreamIT_T0_ES6_PKS3_l(ptr noundef nonnull align 8 dereferenceable(8) @_ZSt4cerr, ptr noundef nonnull @.str.97, i64 noundef 106)
          to label %invoke.cont7 unwind label %lpad

invoke.cont7:                                     ; preds = %invoke.cont5
  %tobool.not.i = icmp eq ptr %filename, null
  br i1 %tobool.not.i, label %if.then.i, label %if.else.i

if.then.i:                                        ; preds = %invoke.cont7
  %vtable.i = load ptr, ptr @_ZSt4cerr, align 8, !tbaa !5
  %vbase.offset.ptr.i = getelementptr i8, ptr %vtable.i, i64 -24
  %vbase.offset.i = load i64, ptr %vbase.offset.ptr.i, align 8
  %add.ptr.i = getelementptr inbounds i8, ptr @_ZSt4cerr, i64 %vbase.offset.i
  %_M_streambuf_state.i.i.i = getelementptr inbounds %"class.std::ios_base", ptr %add.ptr.i, i64 0, i32 5
  %0 = load i32, ptr %_M_streambuf_state.i.i.i, align 8, !tbaa !8
  %or.i.i.i = or i32 %0, 1
  invoke void @_ZNSt9basic_iosIcSt11char_traitsIcEE5clearESt12_Ios_Iostate(ptr noundef nonnull align 8 dereferenceable(264) %add.ptr.i, i32 noundef %or.i.i.i)
          to label %invoke.cont9 unwind label %lpad

if.else.i:                                        ; preds = %invoke.cont7
  %call.i.i23 = call i64 @strlen(ptr noundef nonnull dereferenceable(1) %filename) #24
  %call1.i24 = invoke noundef nonnull align 8 dereferenceable(8) ptr @_ZSt16__ostream_insertIcSt11char_traitsIcEERSt13basic_ostreamIT_T0_ES6_PKS3_l(ptr noundef nonnull align 8 dereferenceable(8) @_ZSt4cerr, ptr noundef nonnull %filename, i64 noundef %call.i.i23)
          to label %invoke.cont9 unwind label %lpad

invoke.cont9:                                     ; preds = %if.then.i, %if.else.i
  %call1.i29 = invoke noundef nonnull align 8 dereferenceable(8) ptr @_ZSt16__ostream_insertIcSt11char_traitsIcEERSt13basic_ostreamIT_T0_ES6_PKS3_l(ptr noundef nonnull align 8 dereferenceable(8) @_ZSt4cerr, ptr noundef nonnull @.str.98, i64 noundef 1)
          to label %invoke.cont11 unwind label %lpad

invoke.cont11:                                    ; preds = %invoke.cont9
  %call14 = invoke noundef nonnull align 8 dereferenceable(8) ptr @_ZNSolsEi(ptr noundef nonnull align 8 dereferenceable(8) @_ZSt4cerr, i32 noundef %line_num)
          to label %invoke.cont13 unwind label %lpad

invoke.cont13:                                    ; preds = %invoke.cont11
  call void @_ZN7testing8internal8GTestLogD1Ev(ptr noundef nonnull align 4 dereferenceable(4) %ref.tmp) #24
  call void @llvm.lifetime.end.p0(i64 4, ptr nonnull %ref.tmp) #24
  br label %if.end

lpad:                                             ; preds = %invoke.cont9, %if.else.i, %if.then.i, %invoke.cont5, %if.else, %invoke.cont11
  %1 = landingpad { ptr, i32 }
          cleanup
  call void @_ZN7testing8internal8GTestLogD1Ev(ptr noundef nonnull align 4 dereferenceable(4) %ref.tmp) #24
  call void @llvm.lifetime.end.p0(i64 4, ptr nonnull %ref.tmp) #24
  resume { ptr, i32 } %1

if.end:                                           ; preds = %entry, %invoke.cont13
  ret ptr null
}

; Function Attrs: mustprogress uwtable
define linkonce_odr hidden noundef ptr @_ZN7testing8internal16SuiteApiResolverINS_4TestEE22GetTearDownCaseOrSuiteEPKci(ptr noundef %filename, i32 noundef %line_num) local_unnamed_addr #4 comdat align 2 personality ptr @__gxx_personality_v0 {
entry:
  %ref.tmp = alloca %"class.testing::internal::GTestLog", align 4
  %call3 = tail call noundef zeroext i1 @_ZN7testing8internal6IsTrueEb(i1 noundef zeroext true)
  br i1 %call3, label %if.end, label %if.else

if.else:                                          ; preds = %entry
  call void @llvm.lifetime.start.p0(i64 4, ptr nonnull %ref.tmp) #24
  call void @_ZN7testing8internal8GTestLogC1ENS0_16GTestLogSeverityEPKci(ptr noundef nonnull align 4 dereferenceable(4) %ref.tmp, i32 noundef 3, ptr noundef nonnull @.str.95, i32 noundef 552)
  %call1.i18 = invoke noundef nonnull align 8 dereferenceable(8) ptr @_ZSt16__ostream_insertIcSt11char_traitsIcEERSt13basic_ostreamIT_T0_ES6_PKS3_l(ptr noundef nonnull align 8 dereferenceable(8) @_ZSt4cerr, ptr noundef nonnull @.str.96, i64 noundef 50)
          to label %invoke.cont unwind label %lpad

invoke.cont:                                      ; preds = %if.else
  %call1.i20 = invoke noundef nonnull align 8 dereferenceable(8) ptr @_ZSt16__ostream_insertIcSt11char_traitsIcEERSt13basic_ostreamIT_T0_ES6_PKS3_l(ptr noundef nonnull align 8 dereferenceable(8) @_ZSt4cerr, ptr noundef nonnull @.str.99, i64 noundef 111)
          to label %invoke.cont6 unwind label %lpad

invoke.cont6:                                     ; preds = %invoke.cont
  %tobool.not.i = icmp eq ptr %filename, null
  br i1 %tobool.not.i, label %if.then.i, label %if.else.i

if.then.i:                                        ; preds = %invoke.cont6
  %vtable.i = load ptr, ptr @_ZSt4cerr, align 8, !tbaa !5
  %vbase.offset.ptr.i = getelementptr i8, ptr %vtable.i, i64 -24
  %vbase.offset.i = load i64, ptr %vbase.offset.ptr.i, align 8
  %add.ptr.i = getelementptr inbounds i8, ptr @_ZSt4cerr, i64 %vbase.offset.i
  %_M_streambuf_state.i.i.i = getelementptr inbounds %"class.std::ios_base", ptr %add.ptr.i, i64 0, i32 5
  %0 = load i32, ptr %_M_streambuf_state.i.i.i, align 8, !tbaa !8
  %or.i.i.i = or i32 %0, 1
  invoke void @_ZNSt9basic_iosIcSt11char_traitsIcEE5clearESt12_Ios_Iostate(ptr noundef nonnull align 8 dereferenceable(264) %add.ptr.i, i32 noundef %or.i.i.i)
          to label %invoke.cont8 unwind label %lpad

if.else.i:                                        ; preds = %invoke.cont6
  %call.i.i22 = call i64 @strlen(ptr noundef nonnull dereferenceable(1) %filename) #24
  %call1.i23 = invoke noundef nonnull align 8 dereferenceable(8) ptr @_ZSt16__ostream_insertIcSt11char_traitsIcEERSt13basic_ostreamIT_T0_ES6_PKS3_l(ptr noundef nonnull align 8 dereferenceable(8) @_ZSt4cerr, ptr noundef nonnull %filename, i64 noundef %call.i.i22)
          to label %invoke.cont8 unwind label %lpad

invoke.cont8:                                     ; preds = %if.then.i, %if.else.i
  %call1.i28 = invoke noundef nonnull align 8 dereferenceable(8) ptr @_ZSt16__ostream_insertIcSt11char_traitsIcEERSt13basic_ostreamIT_T0_ES6_PKS3_l(ptr noundef nonnull align 8 dereferenceable(8) @_ZSt4cerr, ptr noundef nonnull @.str.98, i64 noundef 1)
          to label %invoke.cont10 unwind label %lpad

invoke.cont10:                                    ; preds = %invoke.cont8
  %call13 = invoke noundef nonnull align 8 dereferenceable(8) ptr @_ZNSolsEi(ptr noundef nonnull align 8 dereferenceable(8) @_ZSt4cerr, i32 noundef %line_num)
          to label %invoke.cont12 unwind label %lpad

invoke.cont12:                                    ; preds = %invoke.cont10
  call void @_ZN7testing8internal8GTestLogD1Ev(ptr noundef nonnull align 4 dereferenceable(4) %ref.tmp) #24
  call void @llvm.lifetime.end.p0(i64 4, ptr nonnull %ref.tmp) #24
  br label %if.end

lpad:                                             ; preds = %invoke.cont8, %if.else.i, %if.then.i, %invoke.cont, %if.else, %invoke.cont10
  %1 = landingpad { ptr, i32 }
          cleanup
  call void @_ZN7testing8internal8GTestLogD1Ev(ptr noundef nonnull align 4 dereferenceable(4) %ref.tmp) #24
  call void @llvm.lifetime.end.p0(i64 4, ptr nonnull %ref.tmp) #24
  resume { ptr, i32 } %1

if.end:                                           ; preds = %entry, %invoke.cont12
  ret ptr null
}

; Function Attrs: nobuiltin allocsize(0)
declare noundef nonnull ptr @_Znwm(i64 noundef) local_unnamed_addr #5

; Function Attrs: nobuiltin nounwind
declare void @_ZdlPv(ptr noundef) local_unnamed_addr #6

; Function Attrs: mustprogress nocallback nofree nosync nounwind willreturn memory(argmem: readwrite)
declare void @llvm.lifetime.end.p0(i64 immarg, ptr nocapture) #3

; Function Attrs: mustprogress nocallback nofree nosync nounwind willreturn memory(argmem: readwrite)
declare ptr @llvm.invariant.start.p0(i64 immarg, ptr nocapture) #3

declare noundef ptr @_ZNSt7__cxx1112basic_stringIcSt11char_traitsIcESaIcEE9_M_createERmm(ptr noundef nonnull align 8 dereferenceable(32), ptr noundef nonnull align 8 dereferenceable(8), i64 noundef) local_unnamed_addr #0

; Function Attrs: noinline noreturn nounwind
define linkonce_odr hidden void @__clang_call_terminate(ptr noundef %0) local_unnamed_addr #7 comdat {
  %2 = tail call ptr @__cxa_begin_catch(ptr %0) #24
  tail call void @_ZSt9terminatev() #25
  unreachable
}

declare ptr @__cxa_begin_catch(ptr) local_unnamed_addr

declare void @_ZSt9terminatev() local_unnamed_addr

; Function Attrs: mustprogress nocallback nofree nounwind willreturn memory(argmem: readwrite)
declare void @llvm.memcpy.p0.p0.i64(ptr noalias nocapture writeonly, ptr noalias nocapture readonly, i64, i1 immarg) #8

; Function Attrs: nounwind uwtable
define linkonce_odr hidden void @_ZN7testing8internal15TestFactoryBaseD2Ev(ptr noundef nonnull align 8 dereferenceable(8) %this) unnamed_addr #9 comdat align 2 {
entry:
  ret void
}

; Function Attrs: inlinehint nounwind uwtable
define internal void @_ZN7testing8internal15TestFactoryImplIN12_GLOBAL__N_125StringUtilTest_stoul_TestEED0Ev(ptr noundef nonnull align 8 dereferenceable(8) %this) unnamed_addr #10 align 2 {
entry:
  tail call void @_ZdlPv(ptr noundef nonnull %this) #26
  ret void
}

; Function Attrs: uwtable
define internal noundef nonnull ptr @_ZN7testing8internal15TestFactoryImplIN12_GLOBAL__N_125StringUtilTest_stoul_TestEE10CreateTestEv(ptr nocapture nonnull readnone align 8 %this) unnamed_addr #11 align 2 personality ptr @__gxx_personality_v0 {
entry:
  %call = tail call noalias noundef nonnull dereferenceable(16) ptr @_Znwm(i64 noundef 16) #27
  invoke void @_ZN7testing4TestC2Ev(ptr noundef nonnull align 8 dereferenceable(16) %call)
          to label %invoke.cont unwind label %lpad

invoke.cont:                                      ; preds = %entry
  store ptr getelementptr inbounds ({ [8 x ptr] }, ptr @_ZTVN12_GLOBAL__N_125StringUtilTest_stoul_TestE, i64 0, inrange i32 0, i64 2), ptr %call, align 8, !tbaa !5
  ret ptr %call

lpad:                                             ; preds = %entry
  %0 = landingpad { ptr, i32 }
          cleanup
  tail call void @_ZdlPv(ptr noundef nonnull %call) #26
  resume { ptr, i32 } %0
}

declare void @_ZN7testing4TestC2Ev(ptr noundef nonnull align 8 dereferenceable(16)) unnamed_addr #0

; Function Attrs: nounwind uwtable
define internal void @_ZN12_GLOBAL__N_125StringUtilTest_stoul_TestD0Ev(ptr noundef nonnull align 8 dereferenceable(16) %this) unnamed_addr #9 align 2 {
entry:
  tail call void @_ZN7testing4TestD2Ev(ptr noundef nonnull align 8 dereferenceable(16) %this) #24
  tail call void @_ZdlPv(ptr noundef nonnull %this) #26
  ret void
}

declare void @_ZN7testing4Test5SetUpEv(ptr noundef nonnull align 8 dereferenceable(16)) unnamed_addr #0

declare void @_ZN7testing4Test8TearDownEv(ptr noundef nonnull align 8 dereferenceable(16)) unnamed_addr #0

; Function Attrs: uwtable
define internal void @_ZN12_GLOBAL__N_125StringUtilTest_stoul_Test8TestBodyEv(ptr nocapture nonnull readnone align 8 %this) unnamed_addr #11 align 2 personality ptr @__gxx_personality_v0 {
entry:
  %__endptr.i.i1437 = alloca ptr, align 8
  %__endptr.i.i1340 = alloca ptr, align 8
  %__endptr.i.i1244 = alloca ptr, align 8
  %__endptr.i.i1148 = alloca ptr, align 8
  %__endptr.i.i1052 = alloca ptr, align 8
  %__endptr.i.i956 = alloca ptr, align 8
  %__endptr.i.i860 = alloca ptr, align 8
  %__endptr.i.i764 = alloca ptr, align 8
  %__endptr.i.i = alloca ptr, align 8
  %pos = alloca i64, align 8
  %gtest_ar = alloca %"class.testing::AssertionResult", align 8
  %ref.tmp = alloca i64, align 8
  %ref.tmp2 = alloca i64, align 8
  %ref.tmp3 = alloca %"class.std::__cxx11::basic_string", align 8
  %ref.tmp15 = alloca %"class.testing::Message", align 8
  %ref.tmp18 = alloca %"class.testing::internal::AssertHelper", align 8
  %gtest_ar31 = alloca %"class.testing::AssertionResult", align 8
  %ref.tmp32 = alloca i64, align 8
  %ref.tmp38 = alloca %"class.testing::Message", align 8
  %ref.tmp41 = alloca %"class.testing::internal::AssertHelper", align 8
  %pos56 = alloca i64, align 8
  %gtest_ar57 = alloca %"class.testing::AssertionResult", align 8
  %ref.tmp58 = alloca i64, align 8
  %ref.tmp59 = alloca i64, align 8
  %ref.tmp60 = alloca %"class.std::__cxx11::basic_string", align 8
  %ref.tmp79 = alloca %"class.testing::Message", align 8
  %ref.tmp82 = alloca %"class.testing::internal::AssertHelper", align 8
  %gtest_ar96 = alloca %"class.testing::AssertionResult", align 8
  %ref.tmp97 = alloca i64, align 8
  %ref.tmp103 = alloca %"class.testing::Message", align 8
  %ref.tmp106 = alloca %"class.testing::internal::AssertHelper", align 8
  %pos121 = alloca i64, align 8
  %gtest_ar122 = alloca %"class.testing::AssertionResult", align 8
  %ref.tmp123 = alloca i64, align 8
  %ref.tmp124 = alloca i64, align 8
  %ref.tmp125 = alloca %"class.std::__cxx11::basic_string", align 8
  %ref.tmp144 = alloca %"class.testing::Message", align 8
  %ref.tmp147 = alloca %"class.testing::internal::AssertHelper", align 8
  %gtest_ar161 = alloca %"class.testing::AssertionResult", align 8
  %ref.tmp162 = alloca i64, align 8
  %ref.tmp168 = alloca %"class.testing::Message", align 8
  %ref.tmp171 = alloca %"class.testing::internal::AssertHelper", align 8
  %pos186 = alloca i64, align 8
  %gtest_ar187 = alloca %"class.testing::AssertionResult", align 8
  %ref.tmp188 = alloca i64, align 8
  %ref.tmp189 = alloca i64, align 8
  %ref.tmp190 = alloca %"class.std::__cxx11::basic_string", align 8
  %ref.tmp209 = alloca %"class.testing::Message", align 8
  %ref.tmp212 = alloca %"class.testing::internal::AssertHelper", align 8
  %gtest_ar226 = alloca %"class.testing::AssertionResult", align 8
  %ref.tmp227 = alloca i64, align 8
  %ref.tmp233 = alloca %"class.testing::Message", align 8
  %ref.tmp236 = alloca %"class.testing::internal::AssertHelper", align 8
  %pos251 = alloca i64, align 8
  %gtest_ar252 = alloca %"class.testing::AssertionResult", align 8
  %ref.tmp253 = alloca i64, align 8
  %ref.tmp254 = alloca i64, align 8
  %ref.tmp255 = alloca %"class.std::__cxx11::basic_string", align 8
  %ref.tmp274 = alloca %"class.testing::Message", align 8
  %ref.tmp277 = alloca %"class.testing::internal::AssertHelper", align 8
  %gtest_ar291 = alloca %"class.testing::AssertionResult", align 8
  %ref.tmp292 = alloca i64, align 8
  %ref.tmp298 = alloca %"class.testing::Message", align 8
  %ref.tmp301 = alloca %"class.testing::internal::AssertHelper", align 8
  %pos316 = alloca i64, align 8
  %gtest_ar317 = alloca %"class.testing::AssertionResult", align 8
  %ref.tmp318 = alloca i64, align 8
  %ref.tmp319 = alloca i64, align 8
  %ref.tmp320 = alloca %"class.std::__cxx11::basic_string", align 8
  %ref.tmp339 = alloca %"class.testing::Message", align 8
  %ref.tmp342 = alloca %"class.testing::internal::AssertHelper", align 8
  %gtest_ar356 = alloca %"class.testing::AssertionResult", align 8
  %ref.tmp357 = alloca i64, align 8
  %ref.tmp363 = alloca %"class.testing::Message", align 8
  %ref.tmp366 = alloca %"class.testing::internal::AssertHelper", align 8
  %pos381 = alloca i64, align 8
  %gtest_ar382 = alloca %"class.testing::AssertionResult", align 8
  %ref.tmp383 = alloca i64, align 8
  %ref.tmp384 = alloca i64, align 8
  %ref.tmp385 = alloca %"class.std::__cxx11::basic_string", align 8
  %ref.tmp404 = alloca %"class.testing::Message", align 8
  %ref.tmp407 = alloca %"class.testing::internal::AssertHelper", align 8
  %gtest_ar421 = alloca %"class.testing::AssertionResult", align 8
  %ref.tmp422 = alloca i64, align 8
  %ref.tmp428 = alloca %"class.testing::Message", align 8
  %ref.tmp431 = alloca %"class.testing::internal::AssertHelper", align 8
  %pos446 = alloca i64, align 8
  %gtest_ar447 = alloca %"class.testing::AssertionResult", align 8
  %ref.tmp448 = alloca i64, align 8
  %ref.tmp449 = alloca i64, align 8
  %ref.tmp450 = alloca %"class.std::__cxx11::basic_string", align 8
  %ref.tmp469 = alloca %"class.testing::Message", align 8
  %ref.tmp472 = alloca %"class.testing::internal::AssertHelper", align 8
  %gtest_ar486 = alloca %"class.testing::AssertionResult", align 8
  %ref.tmp487 = alloca i64, align 8
  %ref.tmp493 = alloca %"class.testing::Message", align 8
  %ref.tmp496 = alloca %"class.testing::internal::AssertHelper", align 8
  %gtest_msg = alloca %"struct.testing::internal::TrueWithString", align 8
  %ref.tmp519 = alloca %"class.std::__cxx11::basic_string", align 8
  %ref.tmp546 = alloca %"class.std::__cxx11::basic_string", align 8
  %ref.tmp583 = alloca %"class.testing::Message", align 8
  %ref.tmp586 = alloca %"class.testing::internal::AssertHelper", align 8
  call void @llvm.lifetime.start.p0(i64 8, ptr nonnull %pos) #24
  store i64 0, ptr %pos, align 8, !tbaa !18
  call void @llvm.lifetime.start.p0(i64 16, ptr nonnull %gtest_ar) #24
  call void @llvm.lifetime.start.p0(i64 8, ptr nonnull %ref.tmp) #24
  store i64 0, ptr %ref.tmp, align 8, !tbaa !18
  call void @llvm.lifetime.start.p0(i64 8, ptr nonnull %ref.tmp2) #24
  call void @llvm.lifetime.start.p0(i64 32, ptr nonnull %ref.tmp3) #24
  %0 = getelementptr inbounds %"class.std::__cxx11::basic_string", ptr %ref.tmp3, i64 0, i32 2
  store ptr %0, ptr %ref.tmp3, align 8, !tbaa !19
  store i8 48, ptr %0, align 8, !tbaa !21
  %_M_string_length.i.i.i.i = getelementptr inbounds %"class.std::__cxx11::basic_string", ptr %ref.tmp3, i64 0, i32 1
  store i64 1, ptr %_M_string_length.i.i.i.i, align 8, !tbaa !22
  %arrayidx.i.i.i = getelementptr inbounds i8, ptr %ref.tmp3, i64 17
  store i8 0, ptr %arrayidx.i.i.i, align 1, !tbaa !21
  call void @llvm.lifetime.start.p0(i64 8, ptr nonnull %__endptr.i.i) #24
  %call.i.i.i = tail call ptr @__errno_location() #28
  %1 = load i32, ptr %call.i.i.i, align 4, !tbaa !24
  store i32 0, ptr %call.i.i.i, align 4, !tbaa !24
  %call.i.i706 = call noundef i64 @strtoul(ptr noundef nonnull %0, ptr noundef nonnull %__endptr.i.i, i32 noundef 10)
  %2 = load ptr, ptr %__endptr.i.i, align 8, !tbaa !25
  %cmp.i.i707 = icmp eq ptr %2, %0
  br i1 %cmp.i.i707, label %if.then.i.i708, label %if.else.i.i

if.then.i.i708:                                   ; preds = %entry
  invoke void @_ZSt24__throw_invalid_argumentPKc(ptr noundef nonnull @.str.3) #29
          to label %invoke.cont1.i.i unwind label %lpad.i.i

invoke.cont1.i.i:                                 ; preds = %if.then.i.i708
  unreachable

lpad.i.i:                                         ; preds = %if.then7.i.i, %if.then.i.i708
  %3 = landingpad { ptr, i32 }
          cleanup
  %4 = load i32, ptr %call.i.i.i, align 4, !tbaa !24
  %cmp.i.i.i = icmp eq i32 %4, 0
  br i1 %cmp.i.i.i, label %if.then.i.i.i, label %_ZZN9__gnu_cxx6__stoaImmcJiEEET0_PFT_PKT1_PPS3_DpT2_EPKcS5_PmS9_EN11_Save_errnoD2Ev.exit.i.i

if.then.i.i.i:                                    ; preds = %lpad.i.i
  store i32 %1, ptr %call.i.i.i, align 4, !tbaa !24
  br label %_ZZN9__gnu_cxx6__stoaImmcJiEEET0_PFT_PKT1_PPS3_DpT2_EPKcS5_PmS9_EN11_Save_errnoD2Ev.exit.i.i

_ZZN9__gnu_cxx6__stoaImmcJiEEET0_PFT_PKT1_PPS3_DpT2_EPKcS5_PmS9_EN11_Save_errnoD2Ev.exit.i.i: ; preds = %if.then.i.i.i, %lpad.i.i
  call void @llvm.lifetime.end.p0(i64 8, ptr nonnull %__endptr.i.i) #24
  br label %lpad5.body

if.else.i.i:                                      ; preds = %entry
  %5 = load i32, ptr %call.i.i.i, align 4, !tbaa !24
  %cmp3.i.i = icmp eq i32 %5, 34
  br i1 %cmp3.i.i, label %if.then7.i.i, label %if.else9.i.i

if.then7.i.i:                                     ; preds = %if.else.i.i
  invoke void @_ZSt20__throw_out_of_rangePKc(ptr noundef nonnull @.str.3) #29
          to label %invoke.cont8.i.i unwind label %lpad.i.i

invoke.cont8.i.i:                                 ; preds = %if.then7.i.i
  unreachable

if.else9.i.i:                                     ; preds = %if.else.i.i
  %sub.ptr.lhs.cast.i.i = ptrtoint ptr %2 to i64
  %sub.ptr.rhs.cast.i.i = ptrtoint ptr %0 to i64
  %sub.ptr.sub.i.i = sub i64 %sub.ptr.lhs.cast.i.i, %sub.ptr.rhs.cast.i.i
  store i64 %sub.ptr.sub.i.i, ptr %pos, align 8, !tbaa !18
  %cmp.i25.i.i = icmp eq i32 %5, 0
  br i1 %cmp.i25.i.i, label %if.then.i26.i.i, label %invoke.cont6

if.then.i26.i.i:                                  ; preds = %if.else9.i.i
  store i32 %1, ptr %call.i.i.i, align 4, !tbaa !24
  br label %invoke.cont6

invoke.cont6:                                     ; preds = %if.then.i26.i.i, %if.else9.i.i
  call void @llvm.lifetime.end.p0(i64 8, ptr nonnull %__endptr.i.i) #24
  store i64 %call.i.i706, ptr %ref.tmp2, align 8, !tbaa !18
  %cmp.i.i709 = icmp eq i64 %call.i.i706, 0
  br i1 %cmp.i.i709, label %if.then.i.i710, label %if.end.i.i711

if.then.i.i710:                                   ; preds = %invoke.cont6
  invoke void @_ZN7testing16AssertionSuccessEv(ptr nonnull sret(%"class.testing::AssertionResult") align 8 %gtest_ar)
          to label %invoke.cont7 unwind label %lpad5

if.end.i.i711:                                    ; preds = %invoke.cont6
  invoke void @_ZN7testing8internal18CmpHelperEQFailureImmEENS_15AssertionResultEPKcS4_RKT_RKT0_(ptr nonnull sret(%"class.testing::AssertionResult") align 8 %gtest_ar, ptr noundef nonnull @.str.11, ptr noundef nonnull @.str.12, ptr noundef nonnull align 8 dereferenceable(8) %ref.tmp, ptr noundef nonnull align 8 dereferenceable(8) %ref.tmp2)
          to label %invoke.cont7 unwind label %lpad5

invoke.cont7:                                     ; preds = %if.then.i.i710, %if.end.i.i711
  %6 = load ptr, ptr %ref.tmp3, align 8, !tbaa !26
  %cmp.i.i.i713 = icmp eq ptr %6, %0
  br i1 %cmp.i.i.i713, label %_ZNSt7__cxx1112basic_stringIcSt11char_traitsIcESaIcEED2Ev.exit, label %if.then.i.i714

if.then.i.i714:                                   ; preds = %invoke.cont7
  call void @_ZdlPv(ptr noundef %6) #26
  br label %_ZNSt7__cxx1112basic_stringIcSt11char_traitsIcESaIcEED2Ev.exit

_ZNSt7__cxx1112basic_stringIcSt11char_traitsIcESaIcEED2Ev.exit: ; preds = %invoke.cont7, %if.then.i.i714
  call void @llvm.lifetime.end.p0(i64 32, ptr nonnull %ref.tmp3) #24
  call void @llvm.lifetime.end.p0(i64 8, ptr nonnull %ref.tmp2) #24
  call void @llvm.lifetime.end.p0(i64 8, ptr nonnull %ref.tmp) #24
  %7 = load i8, ptr %gtest_ar, align 8, !tbaa !27, !range !36, !noundef !37
  %tobool.i.not = icmp eq i8 %7, 0
  br i1 %tobool.i.not, label %if.else, label %if.end

lpad5:                                            ; preds = %if.end.i.i711, %if.then.i.i710
  %8 = landingpad { ptr, i32 }
          cleanup
  br label %lpad5.body

lpad5.body:                                       ; preds = %_ZZN9__gnu_cxx6__stoaImmcJiEEET0_PFT_PKT1_PPS3_DpT2_EPKcS5_PmS9_EN11_Save_errnoD2Ev.exit.i.i, %lpad5
  %eh.lpad-body = phi { ptr, i32 } [ %8, %lpad5 ], [ %3, %_ZZN9__gnu_cxx6__stoaImmcJiEEET0_PFT_PKT1_PPS3_DpT2_EPKcS5_PmS9_EN11_Save_errnoD2Ev.exit.i.i ]
  %9 = load ptr, ptr %ref.tmp3, align 8, !tbaa !26
  %cmp.i.i.i715 = icmp eq ptr %9, %0
  br i1 %cmp.i.i.i715, label %ehcleanup, label %if.then.i.i716

if.then.i.i716:                                   ; preds = %lpad5.body
  call void @_ZdlPv(ptr noundef %9) #26
  br label %ehcleanup

ehcleanup:                                        ; preds = %if.then.i.i716, %lpad5.body
  call void @llvm.lifetime.end.p0(i64 32, ptr nonnull %ref.tmp3) #24
  call void @llvm.lifetime.end.p0(i64 8, ptr nonnull %ref.tmp2) #24
  call void @llvm.lifetime.end.p0(i64 8, ptr nonnull %ref.tmp) #24
  br label %ehcleanup30

if.else:                                          ; preds = %_ZNSt7__cxx1112basic_stringIcSt11char_traitsIcESaIcEED2Ev.exit
  call void @llvm.lifetime.start.p0(i64 8, ptr nonnull %ref.tmp15) #24
  invoke void @_ZN7testing7MessageC1Ev(ptr noundef nonnull align 8 dereferenceable(8) %ref.tmp15)
          to label %invoke.cont17 unwind label %lpad16

invoke.cont17:                                    ; preds = %if.else
  call void @llvm.lifetime.start.p0(i64 8, ptr nonnull %ref.tmp18) #24
  %message_.i.i = getelementptr inbounds %"class.testing::AssertionResult", ptr %gtest_ar, i64 0, i32 1
  %10 = load ptr, ptr %message_.i.i, align 8, !tbaa !25
  %cmp.not.i.i = icmp eq ptr %10, null
  br i1 %cmp.not.i.i, label %invoke.cont20, label %cond.true.i.i

cond.true.i.i:                                    ; preds = %invoke.cont17
  %11 = load ptr, ptr %10, align 8, !tbaa !26
  br label %invoke.cont20

invoke.cont20:                                    ; preds = %cond.true.i.i, %invoke.cont17
  %cond.i.i = phi ptr [ %11, %cond.true.i.i ], [ @.str.44, %invoke.cont17 ]
  invoke void @_ZN7testing8internal12AssertHelperC1ENS_14TestPartResult4TypeEPKciS5_(ptr noundef nonnull align 8 dereferenceable(8) %ref.tmp18, i32 noundef 1, ptr noundef nonnull @.str.4, i32 noundef 13, ptr noundef %cond.i.i)
          to label %invoke.cont22 unwind label %lpad19

invoke.cont22:                                    ; preds = %invoke.cont20
  invoke void @_ZNK7testing8internal12AssertHelperaSERKNS_7MessageE(ptr noundef nonnull align 8 dereferenceable(8) %ref.tmp18, ptr noundef nonnull align 8 dereferenceable(8) %ref.tmp15)
          to label %invoke.cont24 unwind label %lpad23

invoke.cont24:                                    ; preds = %invoke.cont22
  call void @_ZN7testing8internal12AssertHelperD1Ev(ptr noundef nonnull align 8 dereferenceable(8) %ref.tmp18) #24
  call void @llvm.lifetime.end.p0(i64 8, ptr nonnull %ref.tmp18) #24
  %12 = load ptr, ptr %ref.tmp15, align 8, !tbaa !25
  %cmp.not.i.i718 = icmp eq ptr %12, null
  br i1 %cmp.not.i.i718, label %_ZN7testing7MessageD2Ev.exit, label %_ZNKSt14default_deleteINSt7__cxx1118basic_stringstreamIcSt11char_traitsIcESaIcEEEEclEPS5_.exit.i.i

_ZNKSt14default_deleteINSt7__cxx1118basic_stringstreamIcSt11char_traitsIcESaIcEEEEclEPS5_.exit.i.i: ; preds = %invoke.cont24
  %vtable.i.i.i = load ptr, ptr %12, align 8, !tbaa !5
  %vfn.i.i.i = getelementptr inbounds ptr, ptr %vtable.i.i.i, i64 1
  %13 = load ptr, ptr %vfn.i.i.i, align 8
  call void %13(ptr noundef nonnull align 8 dereferenceable(128) %12) #24
  br label %_ZN7testing7MessageD2Ev.exit

_ZN7testing7MessageD2Ev.exit:                     ; preds = %invoke.cont24, %_ZNKSt14default_deleteINSt7__cxx1118basic_stringstreamIcSt11char_traitsIcESaIcEEEEclEPS5_.exit.i.i
  call void @llvm.lifetime.end.p0(i64 8, ptr nonnull %ref.tmp15) #24
  br label %if.end

lpad16:                                           ; preds = %if.else
  %14 = landingpad { ptr, i32 }
          cleanup
  br label %ehcleanup28

lpad19:                                           ; preds = %invoke.cont20
  %15 = landingpad { ptr, i32 }
          cleanup
  br label %ehcleanup26

lpad23:                                           ; preds = %invoke.cont22
  %16 = landingpad { ptr, i32 }
          cleanup
  call void @_ZN7testing8internal12AssertHelperD1Ev(ptr noundef nonnull align 8 dereferenceable(8) %ref.tmp18) #24
  br label %ehcleanup26

ehcleanup26:                                      ; preds = %lpad23, %lpad19
  %.pn610 = phi { ptr, i32 } [ %16, %lpad23 ], [ %15, %lpad19 ]
  call void @llvm.lifetime.end.p0(i64 8, ptr nonnull %ref.tmp18) #24
  %17 = load ptr, ptr %ref.tmp15, align 8, !tbaa !25
  %cmp.not.i.i719 = icmp eq ptr %17, null
  br i1 %cmp.not.i.i719, label %ehcleanup28, label %_ZNKSt14default_deleteINSt7__cxx1118basic_stringstreamIcSt11char_traitsIcESaIcEEEEclEPS5_.exit.i.i722

_ZNKSt14default_deleteINSt7__cxx1118basic_stringstreamIcSt11char_traitsIcESaIcEEEEclEPS5_.exit.i.i722: ; preds = %ehcleanup26
  %vtable.i.i.i720 = load ptr, ptr %17, align 8, !tbaa !5
  %vfn.i.i.i721 = getelementptr inbounds ptr, ptr %vtable.i.i.i720, i64 1
  %18 = load ptr, ptr %vfn.i.i.i721, align 8
  call void %18(ptr noundef nonnull align 8 dereferenceable(128) %17) #24
  br label %ehcleanup28

ehcleanup28:                                      ; preds = %_ZNKSt14default_deleteINSt7__cxx1118basic_stringstreamIcSt11char_traitsIcESaIcEEEEclEPS5_.exit.i.i722, %ehcleanup26, %lpad16
  %.pn610.pn = phi { ptr, i32 } [ %14, %lpad16 ], [ %.pn610, %ehcleanup26 ], [ %.pn610, %_ZNKSt14default_deleteINSt7__cxx1118basic_stringstreamIcSt11char_traitsIcESaIcEEEEclEPS5_.exit.i.i722 ]
  call void @llvm.lifetime.end.p0(i64 8, ptr nonnull %ref.tmp15) #24
  call void @_ZN7testing15AssertionResultD2Ev(ptr noundef nonnull align 8 dereferenceable(16) %gtest_ar) #24
  br label %ehcleanup30

if.end:                                           ; preds = %_ZNSt7__cxx1112basic_stringIcSt11char_traitsIcESaIcEED2Ev.exit, %_ZN7testing7MessageD2Ev.exit
  %message_.i = getelementptr inbounds %"class.testing::AssertionResult", ptr %gtest_ar, i64 0, i32 1
  %19 = load ptr, ptr %message_.i, align 8, !tbaa !25
  %cmp.not.i.i724 = icmp eq ptr %19, null
  br i1 %cmp.not.i.i724, label %_ZN7testing15AssertionResultD2Ev.exit, label %delete.notnull.i.i.i

delete.notnull.i.i.i:                             ; preds = %if.end
  %20 = load ptr, ptr %19, align 8, !tbaa !26
  %21 = getelementptr inbounds %"class.std::__cxx11::basic_string", ptr %19, i64 0, i32 2
  %cmp.i.i.i.i.i.i = icmp eq ptr %20, %21
  br i1 %cmp.i.i.i.i.i.i, label %_ZNKSt14default_deleteINSt7__cxx1112basic_stringIcSt11char_traitsIcESaIcEEEEclEPS5_.exit.i.i, label %if.then.i.i.i.i.i

if.then.i.i.i.i.i:                                ; preds = %delete.notnull.i.i.i
  call void @_ZdlPv(ptr noundef %20) #26
  br label %_ZNKSt14default_deleteINSt7__cxx1112basic_stringIcSt11char_traitsIcESaIcEEEEclEPS5_.exit.i.i

_ZNKSt14default_deleteINSt7__cxx1112basic_stringIcSt11char_traitsIcESaIcEEEEclEPS5_.exit.i.i: ; preds = %if.then.i.i.i.i.i, %delete.notnull.i.i.i
  call void @_ZdlPv(ptr noundef nonnull %19) #26
  br label %_ZN7testing15AssertionResultD2Ev.exit

_ZN7testing15AssertionResultD2Ev.exit:            ; preds = %if.end, %_ZNKSt14default_deleteINSt7__cxx1112basic_stringIcSt11char_traitsIcESaIcEEEEclEPS5_.exit.i.i
  call void @llvm.lifetime.end.p0(i64 16, ptr nonnull %gtest_ar) #24
  call void @llvm.lifetime.start.p0(i64 16, ptr nonnull %gtest_ar31) #24
  call void @llvm.lifetime.start.p0(i64 8, ptr nonnull %ref.tmp32) #24
  store i64 1, ptr %ref.tmp32, align 8, !tbaa !18
  %22 = load i64, ptr %pos, align 8, !tbaa !18, !noalias !38
  %cmp.i.i725 = icmp eq i64 %22, 1
  br i1 %cmp.i.i725, label %if.then.i.i726, label %if.end.i.i727

if.then.i.i726:                                   ; preds = %_ZN7testing15AssertionResultD2Ev.exit
  call void @_ZN7testing16AssertionSuccessEv(ptr nonnull sret(%"class.testing::AssertionResult") align 8 %gtest_ar31)
  br label %_ZN7testing8internal8EqHelper7CompareImmLPv0EEENS_15AssertionResultEPKcS6_RKT_RKT0_.exit728

if.end.i.i727:                                    ; preds = %_ZN7testing15AssertionResultD2Ev.exit
  call void @_ZN7testing8internal18CmpHelperEQFailureImmEENS_15AssertionResultEPKcS4_RKT_RKT0_(ptr nonnull sret(%"class.testing::AssertionResult") align 8 %gtest_ar31, ptr noundef nonnull @.str.14, ptr noundef nonnull @.str.15, ptr noundef nonnull align 8 dereferenceable(8) %ref.tmp32, ptr noundef nonnull align 8 dereferenceable(8) %pos)
  br label %_ZN7testing8internal8EqHelper7CompareImmLPv0EEENS_15AssertionResultEPKcS6_RKT_RKT0_.exit728

_ZN7testing8internal8EqHelper7CompareImmLPv0EEENS_15AssertionResultEPKcS6_RKT_RKT0_.exit728: ; preds = %if.then.i.i726, %if.end.i.i727
  call void @llvm.lifetime.end.p0(i64 8, ptr nonnull %ref.tmp32) #24
  %23 = load i8, ptr %gtest_ar31, align 8, !tbaa !27, !range !36, !noundef !37
  %tobool.i729.not = icmp eq i8 %23, 0
  br i1 %tobool.i729.not, label %if.else37, label %if.end52

ehcleanup30:                                      ; preds = %ehcleanup28, %ehcleanup
  %.pn610.pn.pn = phi { ptr, i32 } [ %.pn610.pn, %ehcleanup28 ], [ %eh.lpad-body, %ehcleanup ]
  call void @llvm.lifetime.end.p0(i64 16, ptr nonnull %gtest_ar) #24
  br label %ehcleanup55

if.else37:                                        ; preds = %_ZN7testing8internal8EqHelper7CompareImmLPv0EEENS_15AssertionResultEPKcS6_RKT_RKT0_.exit728
  call void @llvm.lifetime.start.p0(i64 8, ptr nonnull %ref.tmp38) #24
  invoke void @_ZN7testing7MessageC1Ev(ptr noundef nonnull align 8 dereferenceable(8) %ref.tmp38)
          to label %invoke.cont40 unwind label %lpad39

invoke.cont40:                                    ; preds = %if.else37
  call void @llvm.lifetime.start.p0(i64 8, ptr nonnull %ref.tmp41) #24
  %message_.i.i730 = getelementptr inbounds %"class.testing::AssertionResult", ptr %gtest_ar31, i64 0, i32 1
  %24 = load ptr, ptr %message_.i.i730, align 8, !tbaa !25
  %cmp.not.i.i731 = icmp eq ptr %24, null
  br i1 %cmp.not.i.i731, label %invoke.cont43, label %cond.true.i.i732

cond.true.i.i732:                                 ; preds = %invoke.cont40
  %25 = load ptr, ptr %24, align 8, !tbaa !26
  br label %invoke.cont43

invoke.cont43:                                    ; preds = %cond.true.i.i732, %invoke.cont40
  %cond.i.i733 = phi ptr [ %25, %cond.true.i.i732 ], [ @.str.44, %invoke.cont40 ]
  invoke void @_ZN7testing8internal12AssertHelperC1ENS_14TestPartResult4TypeEPKciS5_(ptr noundef nonnull align 8 dereferenceable(8) %ref.tmp41, i32 noundef 1, ptr noundef nonnull @.str.4, i32 noundef 14, ptr noundef %cond.i.i733)
          to label %invoke.cont45 unwind label %lpad42

invoke.cont45:                                    ; preds = %invoke.cont43
  invoke void @_ZNK7testing8internal12AssertHelperaSERKNS_7MessageE(ptr noundef nonnull align 8 dereferenceable(8) %ref.tmp41, ptr noundef nonnull align 8 dereferenceable(8) %ref.tmp38)
          to label %invoke.cont47 unwind label %lpad46

invoke.cont47:                                    ; preds = %invoke.cont45
  call void @_ZN7testing8internal12AssertHelperD1Ev(ptr noundef nonnull align 8 dereferenceable(8) %ref.tmp41) #24
  call void @llvm.lifetime.end.p0(i64 8, ptr nonnull %ref.tmp41) #24
  %26 = load ptr, ptr %ref.tmp38, align 8, !tbaa !25
  %cmp.not.i.i735 = icmp eq ptr %26, null
  br i1 %cmp.not.i.i735, label %_ZN7testing7MessageD2Ev.exit739, label %_ZNKSt14default_deleteINSt7__cxx1118basic_stringstreamIcSt11char_traitsIcESaIcEEEEclEPS5_.exit.i.i738

_ZNKSt14default_deleteINSt7__cxx1118basic_stringstreamIcSt11char_traitsIcESaIcEEEEclEPS5_.exit.i.i738: ; preds = %invoke.cont47
  %vtable.i.i.i736 = load ptr, ptr %26, align 8, !tbaa !5
  %vfn.i.i.i737 = getelementptr inbounds ptr, ptr %vtable.i.i.i736, i64 1
  %27 = load ptr, ptr %vfn.i.i.i737, align 8
  call void %27(ptr noundef nonnull align 8 dereferenceable(128) %26) #24
  br label %_ZN7testing7MessageD2Ev.exit739

_ZN7testing7MessageD2Ev.exit739:                  ; preds = %invoke.cont47, %_ZNKSt14default_deleteINSt7__cxx1118basic_stringstreamIcSt11char_traitsIcESaIcEEEEclEPS5_.exit.i.i738
  call void @llvm.lifetime.end.p0(i64 8, ptr nonnull %ref.tmp38) #24
  br label %if.end52

lpad39:                                           ; preds = %if.else37
  %28 = landingpad { ptr, i32 }
          cleanup
  br label %ehcleanup51

lpad42:                                           ; preds = %invoke.cont43
  %29 = landingpad { ptr, i32 }
          cleanup
  br label %ehcleanup49

lpad46:                                           ; preds = %invoke.cont45
  %30 = landingpad { ptr, i32 }
          cleanup
  call void @_ZN7testing8internal12AssertHelperD1Ev(ptr noundef nonnull align 8 dereferenceable(8) %ref.tmp41) #24
  br label %ehcleanup49

ehcleanup49:                                      ; preds = %lpad46, %lpad42
  %.pn614 = phi { ptr, i32 } [ %30, %lpad46 ], [ %29, %lpad42 ]
  call void @llvm.lifetime.end.p0(i64 8, ptr nonnull %ref.tmp41) #24
  %31 = load ptr, ptr %ref.tmp38, align 8, !tbaa !25
  %cmp.not.i.i740 = icmp eq ptr %31, null
  br i1 %cmp.not.i.i740, label %ehcleanup51, label %_ZNKSt14default_deleteINSt7__cxx1118basic_stringstreamIcSt11char_traitsIcESaIcEEEEclEPS5_.exit.i.i743

_ZNKSt14default_deleteINSt7__cxx1118basic_stringstreamIcSt11char_traitsIcESaIcEEEEclEPS5_.exit.i.i743: ; preds = %ehcleanup49
  %vtable.i.i.i741 = load ptr, ptr %31, align 8, !tbaa !5
  %vfn.i.i.i742 = getelementptr inbounds ptr, ptr %vtable.i.i.i741, i64 1
  %32 = load ptr, ptr %vfn.i.i.i742, align 8
  call void %32(ptr noundef nonnull align 8 dereferenceable(128) %31) #24
  br label %ehcleanup51

ehcleanup51:                                      ; preds = %_ZNKSt14default_deleteINSt7__cxx1118basic_stringstreamIcSt11char_traitsIcESaIcEEEEclEPS5_.exit.i.i743, %ehcleanup49, %lpad39
  %.pn614.pn = phi { ptr, i32 } [ %28, %lpad39 ], [ %.pn614, %ehcleanup49 ], [ %.pn614, %_ZNKSt14default_deleteINSt7__cxx1118basic_stringstreamIcSt11char_traitsIcESaIcEEEEclEPS5_.exit.i.i743 ]
  call void @llvm.lifetime.end.p0(i64 8, ptr nonnull %ref.tmp38) #24
  call void @_ZN7testing15AssertionResultD2Ev(ptr noundef nonnull align 8 dereferenceable(16) %gtest_ar31) #24
  call void @llvm.lifetime.end.p0(i64 16, ptr nonnull %gtest_ar31) #24
  br label %ehcleanup55

if.end52:                                         ; preds = %_ZN7testing8internal8EqHelper7CompareImmLPv0EEENS_15AssertionResultEPKcS6_RKT_RKT0_.exit728, %_ZN7testing7MessageD2Ev.exit739
  %message_.i745 = getelementptr inbounds %"class.testing::AssertionResult", ptr %gtest_ar31, i64 0, i32 1
  %33 = load ptr, ptr %message_.i745, align 8, !tbaa !25
  %cmp.not.i.i746 = icmp eq ptr %33, null
  br i1 %cmp.not.i.i746, label %_ZN7testing15AssertionResultD2Ev.exit751, label %delete.notnull.i.i.i748

delete.notnull.i.i.i748:                          ; preds = %if.end52
  %34 = load ptr, ptr %33, align 8, !tbaa !26
  %35 = getelementptr inbounds %"class.std::__cxx11::basic_string", ptr %33, i64 0, i32 2
  %cmp.i.i.i.i.i.i747 = icmp eq ptr %34, %35
  br i1 %cmp.i.i.i.i.i.i747, label %_ZNKSt14default_deleteINSt7__cxx1112basic_stringIcSt11char_traitsIcESaIcEEEEclEPS5_.exit.i.i750, label %if.then.i.i.i.i.i749

if.then.i.i.i.i.i749:                             ; preds = %delete.notnull.i.i.i748
  call void @_ZdlPv(ptr noundef %34) #26
  br label %_ZNKSt14default_deleteINSt7__cxx1112basic_stringIcSt11char_traitsIcESaIcEEEEclEPS5_.exit.i.i750

_ZNKSt14default_deleteINSt7__cxx1112basic_stringIcSt11char_traitsIcESaIcEEEEclEPS5_.exit.i.i750: ; preds = %if.then.i.i.i.i.i749, %delete.notnull.i.i.i748
  call void @_ZdlPv(ptr noundef nonnull %33) #26
  br label %_ZN7testing15AssertionResultD2Ev.exit751

_ZN7testing15AssertionResultD2Ev.exit751:         ; preds = %if.end52, %_ZNKSt14default_deleteINSt7__cxx1112basic_stringIcSt11char_traitsIcESaIcEEEEclEPS5_.exit.i.i750
  call void @llvm.lifetime.end.p0(i64 16, ptr nonnull %gtest_ar31) #24
  call void @llvm.lifetime.end.p0(i64 8, ptr nonnull %pos) #24
  call void @llvm.lifetime.start.p0(i64 8, ptr nonnull %pos56) #24
  store i64 0, ptr %pos56, align 8, !tbaa !18
  call void @llvm.lifetime.start.p0(i64 16, ptr nonnull %gtest_ar57) #24
  call void @llvm.lifetime.start.p0(i64 8, ptr nonnull %ref.tmp58) #24
  store i64 7, ptr %ref.tmp58, align 8, !tbaa !18
  call void @llvm.lifetime.start.p0(i64 8, ptr nonnull %ref.tmp59) #24
  call void @llvm.lifetime.start.p0(i64 32, ptr nonnull %ref.tmp60) #24
  %36 = getelementptr inbounds %"class.std::__cxx11::basic_string", ptr %ref.tmp60, i64 0, i32 2
  store ptr %36, ptr %ref.tmp60, align 8, !tbaa !19
  store i8 55, ptr %36, align 8, !tbaa !21
  %_M_string_length.i.i.i.i759 = getelementptr inbounds %"class.std::__cxx11::basic_string", ptr %ref.tmp60, i64 0, i32 1
  store i64 1, ptr %_M_string_length.i.i.i.i759, align 8, !tbaa !22
  %arrayidx.i.i.i760 = getelementptr inbounds i8, ptr %ref.tmp60, i64 17
  store i8 0, ptr %arrayidx.i.i.i760, align 1, !tbaa !21
  call void @llvm.lifetime.start.p0(i64 8, ptr nonnull %__endptr.i.i764) #24
  %37 = load i32, ptr %call.i.i.i, align 4, !tbaa !24
  store i32 0, ptr %call.i.i.i, align 4, !tbaa !24
  %call.i.i766 = call noundef i64 @strtoul(ptr noundef nonnull %36, ptr noundef nonnull %__endptr.i.i764, i32 noundef 10)
  %38 = load ptr, ptr %__endptr.i.i764, align 8, !tbaa !25
  %cmp.i.i767 = icmp eq ptr %38, %36
  br i1 %cmp.i.i767, label %if.then.i.i768, label %if.else.i.i775

if.then.i.i768:                                   ; preds = %_ZN7testing15AssertionResultD2Ev.exit751
  invoke void @_ZSt24__throw_invalid_argumentPKc(ptr noundef nonnull @.str.3) #29
          to label %invoke.cont1.i.i769 unwind label %lpad.i.i771

invoke.cont1.i.i769:                              ; preds = %if.then.i.i768
  unreachable

lpad.i.i771:                                      ; preds = %if.then7.i.i776, %if.then.i.i768
  %39 = landingpad { ptr, i32 }
          cleanup
  %40 = load i32, ptr %call.i.i.i, align 4, !tbaa !24
  %cmp.i.i.i770 = icmp eq i32 %40, 0
  br i1 %cmp.i.i.i770, label %if.then.i.i.i772, label %_ZZN9__gnu_cxx6__stoaImmcJiEEET0_PFT_PKT1_PPS3_DpT2_EPKcS5_PmS9_EN11_Save_errnoD2Ev.exit.i.i773

if.then.i.i.i772:                                 ; preds = %lpad.i.i771
  store i32 %37, ptr %call.i.i.i, align 4, !tbaa !24
  br label %_ZZN9__gnu_cxx6__stoaImmcJiEEET0_PFT_PKT1_PPS3_DpT2_EPKcS5_PmS9_EN11_Save_errnoD2Ev.exit.i.i773

_ZZN9__gnu_cxx6__stoaImmcJiEEET0_PFT_PKT1_PPS3_DpT2_EPKcS5_PmS9_EN11_Save_errnoD2Ev.exit.i.i773: ; preds = %if.then.i.i.i772, %lpad.i.i771
  call void @llvm.lifetime.end.p0(i64 8, ptr nonnull %__endptr.i.i764) #24
  br label %lpad64.body

if.else.i.i775:                                   ; preds = %_ZN7testing15AssertionResultD2Ev.exit751
  %41 = load i32, ptr %call.i.i.i, align 4, !tbaa !24
  %cmp3.i.i774 = icmp eq i32 %41, 34
  br i1 %cmp3.i.i774, label %if.then7.i.i776, label %if.else9.i.i778

if.then7.i.i776:                                  ; preds = %if.else.i.i775
  invoke void @_ZSt20__throw_out_of_rangePKc(ptr noundef nonnull @.str.3) #29
          to label %invoke.cont8.i.i777 unwind label %lpad.i.i771

invoke.cont8.i.i777:                              ; preds = %if.then7.i.i776
  unreachable

if.else9.i.i778:                                  ; preds = %if.else.i.i775
  %sub.ptr.lhs.cast.i.i779 = ptrtoint ptr %38 to i64
  %sub.ptr.rhs.cast.i.i780 = ptrtoint ptr %36 to i64
  %sub.ptr.sub.i.i781 = sub i64 %sub.ptr.lhs.cast.i.i779, %sub.ptr.rhs.cast.i.i780
  store i64 %sub.ptr.sub.i.i781, ptr %pos56, align 8, !tbaa !18
  %cmp.i25.i.i782 = icmp eq i32 %41, 0
  br i1 %cmp.i25.i.i782, label %if.then.i26.i.i783, label %invoke.cont65

if.then.i26.i.i783:                               ; preds = %if.else9.i.i778
  store i32 %37, ptr %call.i.i.i, align 4, !tbaa !24
  br label %invoke.cont65

invoke.cont65:                                    ; preds = %if.then.i26.i.i783, %if.else9.i.i778
  call void @llvm.lifetime.end.p0(i64 8, ptr nonnull %__endptr.i.i764) #24
  store i64 %call.i.i766, ptr %ref.tmp59, align 8, !tbaa !18
  %42 = load i64, ptr %ref.tmp58, align 8, !tbaa !18, !noalias !43
  %cmp.i.i786 = icmp eq i64 %42, %call.i.i766
  br i1 %cmp.i.i786, label %if.then.i.i787, label %if.end.i.i788

if.then.i.i787:                                   ; preds = %invoke.cont65
  invoke void @_ZN7testing16AssertionSuccessEv(ptr nonnull sret(%"class.testing::AssertionResult") align 8 %gtest_ar57)
          to label %invoke.cont67 unwind label %lpad64

if.end.i.i788:                                    ; preds = %invoke.cont65
  invoke void @_ZN7testing8internal18CmpHelperEQFailureImmEENS_15AssertionResultEPKcS4_RKT_RKT0_(ptr nonnull sret(%"class.testing::AssertionResult") align 8 %gtest_ar57, ptr noundef nonnull @.str.16, ptr noundef nonnull @.str.17, ptr noundef nonnull align 8 dereferenceable(8) %ref.tmp58, ptr noundef nonnull align 8 dereferenceable(8) %ref.tmp59)
          to label %invoke.cont67 unwind label %lpad64

invoke.cont67:                                    ; preds = %if.then.i.i787, %if.end.i.i788
  %43 = load ptr, ptr %ref.tmp60, align 8, !tbaa !26
  %cmp.i.i.i792 = icmp eq ptr %43, %36
  br i1 %cmp.i.i.i792, label %_ZNSt7__cxx1112basic_stringIcSt11char_traitsIcESaIcEED2Ev.exit794, label %if.then.i.i793

if.then.i.i793:                                   ; preds = %invoke.cont67
  call void @_ZdlPv(ptr noundef %43) #26
  br label %_ZNSt7__cxx1112basic_stringIcSt11char_traitsIcESaIcEED2Ev.exit794

_ZNSt7__cxx1112basic_stringIcSt11char_traitsIcESaIcEED2Ev.exit794: ; preds = %invoke.cont67, %if.then.i.i793
  call void @llvm.lifetime.end.p0(i64 32, ptr nonnull %ref.tmp60) #24
  call void @llvm.lifetime.end.p0(i64 8, ptr nonnull %ref.tmp59) #24
  call void @llvm.lifetime.end.p0(i64 8, ptr nonnull %ref.tmp58) #24
  %44 = load i8, ptr %gtest_ar57, align 8, !tbaa !27, !range !36, !noundef !37
  %tobool.i795.not = icmp eq i8 %44, 0
  br i1 %tobool.i795.not, label %if.else78, label %if.end93

ehcleanup55:                                      ; preds = %ehcleanup51, %ehcleanup30
  %.pn614.pn.pn = phi { ptr, i32 } [ %.pn614.pn, %ehcleanup51 ], [ %.pn610.pn.pn, %ehcleanup30 ]
  call void @llvm.lifetime.end.p0(i64 8, ptr nonnull %pos) #24
  br label %eh.resume

lpad64:                                           ; preds = %if.end.i.i788, %if.then.i.i787
  %45 = landingpad { ptr, i32 }
          cleanup
  br label %lpad64.body

lpad64.body:                                      ; preds = %_ZZN9__gnu_cxx6__stoaImmcJiEEET0_PFT_PKT1_PPS3_DpT2_EPKcS5_PmS9_EN11_Save_errnoD2Ev.exit.i.i773, %lpad64
  %eh.lpad-body784 = phi { ptr, i32 } [ %45, %lpad64 ], [ %39, %_ZZN9__gnu_cxx6__stoaImmcJiEEET0_PFT_PKT1_PPS3_DpT2_EPKcS5_PmS9_EN11_Save_errnoD2Ev.exit.i.i773 ]
  %46 = load ptr, ptr %ref.tmp60, align 8, !tbaa !26
  %cmp.i.i.i796 = icmp eq ptr %46, %36
  br i1 %cmp.i.i.i796, label %ehcleanup69, label %if.then.i.i797

if.then.i.i797:                                   ; preds = %lpad64.body
  call void @_ZdlPv(ptr noundef %46) #26
  br label %ehcleanup69

ehcleanup69:                                      ; preds = %if.then.i.i797, %lpad64.body
  call void @llvm.lifetime.end.p0(i64 32, ptr nonnull %ref.tmp60) #24
  call void @llvm.lifetime.end.p0(i64 8, ptr nonnull %ref.tmp59) #24
  call void @llvm.lifetime.end.p0(i64 8, ptr nonnull %ref.tmp58) #24
  br label %ehcleanup95

if.else78:                                        ; preds = %_ZNSt7__cxx1112basic_stringIcSt11char_traitsIcESaIcEED2Ev.exit794
  call void @llvm.lifetime.start.p0(i64 8, ptr nonnull %ref.tmp79) #24
  invoke void @_ZN7testing7MessageC1Ev(ptr noundef nonnull align 8 dereferenceable(8) %ref.tmp79)
          to label %invoke.cont81 unwind label %lpad80

invoke.cont81:                                    ; preds = %if.else78
  call void @llvm.lifetime.start.p0(i64 8, ptr nonnull %ref.tmp82) #24
  %message_.i.i799 = getelementptr inbounds %"class.testing::AssertionResult", ptr %gtest_ar57, i64 0, i32 1
  %47 = load ptr, ptr %message_.i.i799, align 8, !tbaa !25
  %cmp.not.i.i800 = icmp eq ptr %47, null
  br i1 %cmp.not.i.i800, label %invoke.cont84, label %cond.true.i.i801

cond.true.i.i801:                                 ; preds = %invoke.cont81
  %48 = load ptr, ptr %47, align 8, !tbaa !26
  br label %invoke.cont84

invoke.cont84:                                    ; preds = %cond.true.i.i801, %invoke.cont81
  %cond.i.i802 = phi ptr [ %48, %cond.true.i.i801 ], [ @.str.44, %invoke.cont81 ]
  invoke void @_ZN7testing8internal12AssertHelperC1ENS_14TestPartResult4TypeEPKciS5_(ptr noundef nonnull align 8 dereferenceable(8) %ref.tmp82, i32 noundef 1, ptr noundef nonnull @.str.4, i32 noundef 18, ptr noundef %cond.i.i802)
          to label %invoke.cont86 unwind label %lpad83

invoke.cont86:                                    ; preds = %invoke.cont84
  invoke void @_ZNK7testing8internal12AssertHelperaSERKNS_7MessageE(ptr noundef nonnull align 8 dereferenceable(8) %ref.tmp82, ptr noundef nonnull align 8 dereferenceable(8) %ref.tmp79)
          to label %invoke.cont88 unwind label %lpad87

invoke.cont88:                                    ; preds = %invoke.cont86
  call void @_ZN7testing8internal12AssertHelperD1Ev(ptr noundef nonnull align 8 dereferenceable(8) %ref.tmp82) #24
  call void @llvm.lifetime.end.p0(i64 8, ptr nonnull %ref.tmp82) #24
  %49 = load ptr, ptr %ref.tmp79, align 8, !tbaa !25
  %cmp.not.i.i804 = icmp eq ptr %49, null
  br i1 %cmp.not.i.i804, label %_ZN7testing7MessageD2Ev.exit808, label %_ZNKSt14default_deleteINSt7__cxx1118basic_stringstreamIcSt11char_traitsIcESaIcEEEEclEPS5_.exit.i.i807

_ZNKSt14default_deleteINSt7__cxx1118basic_stringstreamIcSt11char_traitsIcESaIcEEEEclEPS5_.exit.i.i807: ; preds = %invoke.cont88
  %vtable.i.i.i805 = load ptr, ptr %49, align 8, !tbaa !5
  %vfn.i.i.i806 = getelementptr inbounds ptr, ptr %vtable.i.i.i805, i64 1
  %50 = load ptr, ptr %vfn.i.i.i806, align 8
  call void %50(ptr noundef nonnull align 8 dereferenceable(128) %49) #24
  br label %_ZN7testing7MessageD2Ev.exit808

_ZN7testing7MessageD2Ev.exit808:                  ; preds = %invoke.cont88, %_ZNKSt14default_deleteINSt7__cxx1118basic_stringstreamIcSt11char_traitsIcESaIcEEEEclEPS5_.exit.i.i807
  call void @llvm.lifetime.end.p0(i64 8, ptr nonnull %ref.tmp79) #24
  br label %if.end93

lpad80:                                           ; preds = %if.else78
  %51 = landingpad { ptr, i32 }
          cleanup
  br label %ehcleanup92

lpad83:                                           ; preds = %invoke.cont84
  %52 = landingpad { ptr, i32 }
          cleanup
  br label %ehcleanup90

lpad87:                                           ; preds = %invoke.cont86
  %53 = landingpad { ptr, i32 }
          cleanup
  call void @_ZN7testing8internal12AssertHelperD1Ev(ptr noundef nonnull align 8 dereferenceable(8) %ref.tmp82) #24
  br label %ehcleanup90

ehcleanup90:                                      ; preds = %lpad87, %lpad83
  %.pn620 = phi { ptr, i32 } [ %53, %lpad87 ], [ %52, %lpad83 ]
  call void @llvm.lifetime.end.p0(i64 8, ptr nonnull %ref.tmp82) #24
  %54 = load ptr, ptr %ref.tmp79, align 8, !tbaa !25
  %cmp.not.i.i809 = icmp eq ptr %54, null
  br i1 %cmp.not.i.i809, label %ehcleanup92, label %_ZNKSt14default_deleteINSt7__cxx1118basic_stringstreamIcSt11char_traitsIcESaIcEEEEclEPS5_.exit.i.i812

_ZNKSt14default_deleteINSt7__cxx1118basic_stringstreamIcSt11char_traitsIcESaIcEEEEclEPS5_.exit.i.i812: ; preds = %ehcleanup90
  %vtable.i.i.i810 = load ptr, ptr %54, align 8, !tbaa !5
  %vfn.i.i.i811 = getelementptr inbounds ptr, ptr %vtable.i.i.i810, i64 1
  %55 = load ptr, ptr %vfn.i.i.i811, align 8
  call void %55(ptr noundef nonnull align 8 dereferenceable(128) %54) #24
  br label %ehcleanup92

ehcleanup92:                                      ; preds = %_ZNKSt14default_deleteINSt7__cxx1118basic_stringstreamIcSt11char_traitsIcESaIcEEEEclEPS5_.exit.i.i812, %ehcleanup90, %lpad80
  %.pn620.pn = phi { ptr, i32 } [ %51, %lpad80 ], [ %.pn620, %ehcleanup90 ], [ %.pn620, %_ZNKSt14default_deleteINSt7__cxx1118basic_stringstreamIcSt11char_traitsIcESaIcEEEEclEPS5_.exit.i.i812 ]
  call void @llvm.lifetime.end.p0(i64 8, ptr nonnull %ref.tmp79) #24
  call void @_ZN7testing15AssertionResultD2Ev(ptr noundef nonnull align 8 dereferenceable(16) %gtest_ar57) #24
  br label %ehcleanup95

if.end93:                                         ; preds = %_ZNSt7__cxx1112basic_stringIcSt11char_traitsIcESaIcEED2Ev.exit794, %_ZN7testing7MessageD2Ev.exit808
  %message_.i814 = getelementptr inbounds %"class.testing::AssertionResult", ptr %gtest_ar57, i64 0, i32 1
  %56 = load ptr, ptr %message_.i814, align 8, !tbaa !25
  %cmp.not.i.i815 = icmp eq ptr %56, null
  br i1 %cmp.not.i.i815, label %_ZN7testing15AssertionResultD2Ev.exit820, label %delete.notnull.i.i.i817

delete.notnull.i.i.i817:                          ; preds = %if.end93
  %57 = load ptr, ptr %56, align 8, !tbaa !26
  %58 = getelementptr inbounds %"class.std::__cxx11::basic_string", ptr %56, i64 0, i32 2
  %cmp.i.i.i.i.i.i816 = icmp eq ptr %57, %58
  br i1 %cmp.i.i.i.i.i.i816, label %_ZNKSt14default_deleteINSt7__cxx1112basic_stringIcSt11char_traitsIcESaIcEEEEclEPS5_.exit.i.i819, label %if.then.i.i.i.i.i818

if.then.i.i.i.i.i818:                             ; preds = %delete.notnull.i.i.i817
  call void @_ZdlPv(ptr noundef %57) #26
  br label %_ZNKSt14default_deleteINSt7__cxx1112basic_stringIcSt11char_traitsIcESaIcEEEEclEPS5_.exit.i.i819

_ZNKSt14default_deleteINSt7__cxx1112basic_stringIcSt11char_traitsIcESaIcEEEEclEPS5_.exit.i.i819: ; preds = %if.then.i.i.i.i.i818, %delete.notnull.i.i.i817
  call void @_ZdlPv(ptr noundef nonnull %56) #26
  br label %_ZN7testing15AssertionResultD2Ev.exit820

_ZN7testing15AssertionResultD2Ev.exit820:         ; preds = %if.end93, %_ZNKSt14default_deleteINSt7__cxx1112basic_stringIcSt11char_traitsIcESaIcEEEEclEPS5_.exit.i.i819
  call void @llvm.lifetime.end.p0(i64 16, ptr nonnull %gtest_ar57) #24
  call void @llvm.lifetime.start.p0(i64 16, ptr nonnull %gtest_ar96) #24
  call void @llvm.lifetime.start.p0(i64 8, ptr nonnull %ref.tmp97) #24
  store i64 1, ptr %ref.tmp97, align 8, !tbaa !18
  %59 = load i64, ptr %pos56, align 8, !tbaa !18, !noalias !48
  %cmp.i.i821 = icmp eq i64 %59, 1
  br i1 %cmp.i.i821, label %if.then.i.i822, label %if.end.i.i823

if.then.i.i822:                                   ; preds = %_ZN7testing15AssertionResultD2Ev.exit820
  call void @_ZN7testing16AssertionSuccessEv(ptr nonnull sret(%"class.testing::AssertionResult") align 8 %gtest_ar96)
  br label %_ZN7testing8internal8EqHelper7CompareImmLPv0EEENS_15AssertionResultEPKcS6_RKT_RKT0_.exit824

if.end.i.i823:                                    ; preds = %_ZN7testing15AssertionResultD2Ev.exit820
  call void @_ZN7testing8internal18CmpHelperEQFailureImmEENS_15AssertionResultEPKcS4_RKT_RKT0_(ptr nonnull sret(%"class.testing::AssertionResult") align 8 %gtest_ar96, ptr noundef nonnull @.str.14, ptr noundef nonnull @.str.15, ptr noundef nonnull align 8 dereferenceable(8) %ref.tmp97, ptr noundef nonnull align 8 dereferenceable(8) %pos56)
  br label %_ZN7testing8internal8EqHelper7CompareImmLPv0EEENS_15AssertionResultEPKcS6_RKT_RKT0_.exit824

_ZN7testing8internal8EqHelper7CompareImmLPv0EEENS_15AssertionResultEPKcS6_RKT_RKT0_.exit824: ; preds = %if.then.i.i822, %if.end.i.i823
  call void @llvm.lifetime.end.p0(i64 8, ptr nonnull %ref.tmp97) #24
  %60 = load i8, ptr %gtest_ar96, align 8, !tbaa !27, !range !36, !noundef !37
  %tobool.i825.not = icmp eq i8 %60, 0
  br i1 %tobool.i825.not, label %if.else102, label %if.end117

ehcleanup95:                                      ; preds = %ehcleanup92, %ehcleanup69
  %.pn620.pn.pn = phi { ptr, i32 } [ %.pn620.pn, %ehcleanup92 ], [ %eh.lpad-body784, %ehcleanup69 ]
  call void @llvm.lifetime.end.p0(i64 16, ptr nonnull %gtest_ar57) #24
  br label %ehcleanup120

if.else102:                                       ; preds = %_ZN7testing8internal8EqHelper7CompareImmLPv0EEENS_15AssertionResultEPKcS6_RKT_RKT0_.exit824
  call void @llvm.lifetime.start.p0(i64 8, ptr nonnull %ref.tmp103) #24
  invoke void @_ZN7testing7MessageC1Ev(ptr noundef nonnull align 8 dereferenceable(8) %ref.tmp103)
          to label %invoke.cont105 unwind label %lpad104

invoke.cont105:                                   ; preds = %if.else102
  call void @llvm.lifetime.start.p0(i64 8, ptr nonnull %ref.tmp106) #24
  %message_.i.i826 = getelementptr inbounds %"class.testing::AssertionResult", ptr %gtest_ar96, i64 0, i32 1
  %61 = load ptr, ptr %message_.i.i826, align 8, !tbaa !25
  %cmp.not.i.i827 = icmp eq ptr %61, null
  br i1 %cmp.not.i.i827, label %invoke.cont108, label %cond.true.i.i828

cond.true.i.i828:                                 ; preds = %invoke.cont105
  %62 = load ptr, ptr %61, align 8, !tbaa !26
  br label %invoke.cont108

invoke.cont108:                                   ; preds = %cond.true.i.i828, %invoke.cont105
  %cond.i.i829 = phi ptr [ %62, %cond.true.i.i828 ], [ @.str.44, %invoke.cont105 ]
  invoke void @_ZN7testing8internal12AssertHelperC1ENS_14TestPartResult4TypeEPKciS5_(ptr noundef nonnull align 8 dereferenceable(8) %ref.tmp106, i32 noundef 1, ptr noundef nonnull @.str.4, i32 noundef 19, ptr noundef %cond.i.i829)
          to label %invoke.cont110 unwind label %lpad107

invoke.cont110:                                   ; preds = %invoke.cont108
  invoke void @_ZNK7testing8internal12AssertHelperaSERKNS_7MessageE(ptr noundef nonnull align 8 dereferenceable(8) %ref.tmp106, ptr noundef nonnull align 8 dereferenceable(8) %ref.tmp103)
          to label %invoke.cont112 unwind label %lpad111

invoke.cont112:                                   ; preds = %invoke.cont110
  call void @_ZN7testing8internal12AssertHelperD1Ev(ptr noundef nonnull align 8 dereferenceable(8) %ref.tmp106) #24
  call void @llvm.lifetime.end.p0(i64 8, ptr nonnull %ref.tmp106) #24
  %63 = load ptr, ptr %ref.tmp103, align 8, !tbaa !25
  %cmp.not.i.i831 = icmp eq ptr %63, null
  br i1 %cmp.not.i.i831, label %_ZN7testing7MessageD2Ev.exit835, label %_ZNKSt14default_deleteINSt7__cxx1118basic_stringstreamIcSt11char_traitsIcESaIcEEEEclEPS5_.exit.i.i834

_ZNKSt14default_deleteINSt7__cxx1118basic_stringstreamIcSt11char_traitsIcESaIcEEEEclEPS5_.exit.i.i834: ; preds = %invoke.cont112
  %vtable.i.i.i832 = load ptr, ptr %63, align 8, !tbaa !5
  %vfn.i.i.i833 = getelementptr inbounds ptr, ptr %vtable.i.i.i832, i64 1
  %64 = load ptr, ptr %vfn.i.i.i833, align 8
  call void %64(ptr noundef nonnull align 8 dereferenceable(128) %63) #24
  br label %_ZN7testing7MessageD2Ev.exit835

_ZN7testing7MessageD2Ev.exit835:                  ; preds = %invoke.cont112, %_ZNKSt14default_deleteINSt7__cxx1118basic_stringstreamIcSt11char_traitsIcESaIcEEEEclEPS5_.exit.i.i834
  call void @llvm.lifetime.end.p0(i64 8, ptr nonnull %ref.tmp103) #24
  br label %if.end117

lpad104:                                          ; preds = %if.else102
  %65 = landingpad { ptr, i32 }
          cleanup
  br label %ehcleanup116

lpad107:                                          ; preds = %invoke.cont108
  %66 = landingpad { ptr, i32 }
          cleanup
  br label %ehcleanup114

lpad111:                                          ; preds = %invoke.cont110
  %67 = landingpad { ptr, i32 }
          cleanup
  call void @_ZN7testing8internal12AssertHelperD1Ev(ptr noundef nonnull align 8 dereferenceable(8) %ref.tmp106) #24
  br label %ehcleanup114

ehcleanup114:                                     ; preds = %lpad111, %lpad107
  %.pn624 = phi { ptr, i32 } [ %67, %lpad111 ], [ %66, %lpad107 ]
  call void @llvm.lifetime.end.p0(i64 8, ptr nonnull %ref.tmp106) #24
  %68 = load ptr, ptr %ref.tmp103, align 8, !tbaa !25
  %cmp.not.i.i836 = icmp eq ptr %68, null
  br i1 %cmp.not.i.i836, label %ehcleanup116, label %_ZNKSt14default_deleteINSt7__cxx1118basic_stringstreamIcSt11char_traitsIcESaIcEEEEclEPS5_.exit.i.i839

_ZNKSt14default_deleteINSt7__cxx1118basic_stringstreamIcSt11char_traitsIcESaIcEEEEclEPS5_.exit.i.i839: ; preds = %ehcleanup114
  %vtable.i.i.i837 = load ptr, ptr %68, align 8, !tbaa !5
  %vfn.i.i.i838 = getelementptr inbounds ptr, ptr %vtable.i.i.i837, i64 1
  %69 = load ptr, ptr %vfn.i.i.i838, align 8
  call void %69(ptr noundef nonnull align 8 dereferenceable(128) %68) #24
  br label %ehcleanup116

ehcleanup116:                                     ; preds = %_ZNKSt14default_deleteINSt7__cxx1118basic_stringstreamIcSt11char_traitsIcESaIcEEEEclEPS5_.exit.i.i839, %ehcleanup114, %lpad104
  %.pn624.pn = phi { ptr, i32 } [ %65, %lpad104 ], [ %.pn624, %ehcleanup114 ], [ %.pn624, %_ZNKSt14default_deleteINSt7__cxx1118basic_stringstreamIcSt11char_traitsIcESaIcEEEEclEPS5_.exit.i.i839 ]
  call void @llvm.lifetime.end.p0(i64 8, ptr nonnull %ref.tmp103) #24
  call void @_ZN7testing15AssertionResultD2Ev(ptr noundef nonnull align 8 dereferenceable(16) %gtest_ar96) #24
  call void @llvm.lifetime.end.p0(i64 16, ptr nonnull %gtest_ar96) #24
  br label %ehcleanup120

if.end117:                                        ; preds = %_ZN7testing8internal8EqHelper7CompareImmLPv0EEENS_15AssertionResultEPKcS6_RKT_RKT0_.exit824, %_ZN7testing7MessageD2Ev.exit835
  %message_.i841 = getelementptr inbounds %"class.testing::AssertionResult", ptr %gtest_ar96, i64 0, i32 1
  %70 = load ptr, ptr %message_.i841, align 8, !tbaa !25
  %cmp.not.i.i842 = icmp eq ptr %70, null
  br i1 %cmp.not.i.i842, label %_ZN7testing15AssertionResultD2Ev.exit847, label %delete.notnull.i.i.i844

delete.notnull.i.i.i844:                          ; preds = %if.end117
  %71 = load ptr, ptr %70, align 8, !tbaa !26
  %72 = getelementptr inbounds %"class.std::__cxx11::basic_string", ptr %70, i64 0, i32 2
  %cmp.i.i.i.i.i.i843 = icmp eq ptr %71, %72
  br i1 %cmp.i.i.i.i.i.i843, label %_ZNKSt14default_deleteINSt7__cxx1112basic_stringIcSt11char_traitsIcESaIcEEEEclEPS5_.exit.i.i846, label %if.then.i.i.i.i.i845

if.then.i.i.i.i.i845:                             ; preds = %delete.notnull.i.i.i844
  call void @_ZdlPv(ptr noundef %71) #26
  br label %_ZNKSt14default_deleteINSt7__cxx1112basic_stringIcSt11char_traitsIcESaIcEEEEclEPS5_.exit.i.i846

_ZNKSt14default_deleteINSt7__cxx1112basic_stringIcSt11char_traitsIcESaIcEEEEclEPS5_.exit.i.i846: ; preds = %if.then.i.i.i.i.i845, %delete.notnull.i.i.i844
  call void @_ZdlPv(ptr noundef nonnull %70) #26
  br label %_ZN7testing15AssertionResultD2Ev.exit847

_ZN7testing15AssertionResultD2Ev.exit847:         ; preds = %if.end117, %_ZNKSt14default_deleteINSt7__cxx1112basic_stringIcSt11char_traitsIcESaIcEEEEclEPS5_.exit.i.i846
  call void @llvm.lifetime.end.p0(i64 16, ptr nonnull %gtest_ar96) #24
  call void @llvm.lifetime.end.p0(i64 8, ptr nonnull %pos56) #24
  call void @llvm.lifetime.start.p0(i64 8, ptr nonnull %pos121) #24
  store i64 0, ptr %pos121, align 8, !tbaa !18
  call void @llvm.lifetime.start.p0(i64 16, ptr nonnull %gtest_ar122) #24
  call void @llvm.lifetime.start.p0(i64 8, ptr nonnull %ref.tmp123) #24
  store i64 135, ptr %ref.tmp123, align 8, !tbaa !18
  call void @llvm.lifetime.start.p0(i64 8, ptr nonnull %ref.tmp124) #24
  call void @llvm.lifetime.start.p0(i64 32, ptr nonnull %ref.tmp125) #24
  %73 = getelementptr inbounds %"class.std::__cxx11::basic_string", ptr %ref.tmp125, i64 0, i32 2
  store ptr %73, ptr %ref.tmp125, align 8, !tbaa !19
  call void @llvm.memcpy.p0.p0.i64(ptr noundef nonnull align 8 dereferenceable(3) %73, ptr noundef nonnull align 1 dereferenceable(3) @.str.21, i64 3, i1 false)
  %_M_string_length.i.i.i.i855 = getelementptr inbounds %"class.std::__cxx11::basic_string", ptr %ref.tmp125, i64 0, i32 1
  store i64 3, ptr %_M_string_length.i.i.i.i855, align 8, !tbaa !22
  %arrayidx.i.i.i856 = getelementptr inbounds i8, ptr %ref.tmp125, i64 19
  store i8 0, ptr %arrayidx.i.i.i856, align 1, !tbaa !21
  call void @llvm.lifetime.start.p0(i64 8, ptr nonnull %__endptr.i.i860) #24
  %74 = load i32, ptr %call.i.i.i, align 4, !tbaa !24
  store i32 0, ptr %call.i.i.i, align 4, !tbaa !24
  %call.i.i862 = call noundef i64 @strtoul(ptr noundef nonnull %73, ptr noundef nonnull %__endptr.i.i860, i32 noundef 10)
  %75 = load ptr, ptr %__endptr.i.i860, align 8, !tbaa !25
  %cmp.i.i863 = icmp eq ptr %75, %73
  br i1 %cmp.i.i863, label %if.then.i.i864, label %if.else.i.i871

if.then.i.i864:                                   ; preds = %_ZN7testing15AssertionResultD2Ev.exit847
  invoke void @_ZSt24__throw_invalid_argumentPKc(ptr noundef nonnull @.str.3) #29
          to label %invoke.cont1.i.i865 unwind label %lpad.i.i867

invoke.cont1.i.i865:                              ; preds = %if.then.i.i864
  unreachable

lpad.i.i867:                                      ; preds = %if.then7.i.i872, %if.then.i.i864
  %76 = landingpad { ptr, i32 }
          cleanup
  %77 = load i32, ptr %call.i.i.i, align 4, !tbaa !24
  %cmp.i.i.i866 = icmp eq i32 %77, 0
  br i1 %cmp.i.i.i866, label %if.then.i.i.i868, label %_ZZN9__gnu_cxx6__stoaImmcJiEEET0_PFT_PKT1_PPS3_DpT2_EPKcS5_PmS9_EN11_Save_errnoD2Ev.exit.i.i869

if.then.i.i.i868:                                 ; preds = %lpad.i.i867
  store i32 %74, ptr %call.i.i.i, align 4, !tbaa !24
  br label %_ZZN9__gnu_cxx6__stoaImmcJiEEET0_PFT_PKT1_PPS3_DpT2_EPKcS5_PmS9_EN11_Save_errnoD2Ev.exit.i.i869

_ZZN9__gnu_cxx6__stoaImmcJiEEET0_PFT_PKT1_PPS3_DpT2_EPKcS5_PmS9_EN11_Save_errnoD2Ev.exit.i.i869: ; preds = %if.then.i.i.i868, %lpad.i.i867
  call void @llvm.lifetime.end.p0(i64 8, ptr nonnull %__endptr.i.i860) #24
  br label %lpad129.body

if.else.i.i871:                                   ; preds = %_ZN7testing15AssertionResultD2Ev.exit847
  %78 = load i32, ptr %call.i.i.i, align 4, !tbaa !24
  %cmp3.i.i870 = icmp eq i32 %78, 34
  br i1 %cmp3.i.i870, label %if.then7.i.i872, label %if.else9.i.i874

if.then7.i.i872:                                  ; preds = %if.else.i.i871
  invoke void @_ZSt20__throw_out_of_rangePKc(ptr noundef nonnull @.str.3) #29
          to label %invoke.cont8.i.i873 unwind label %lpad.i.i867

invoke.cont8.i.i873:                              ; preds = %if.then7.i.i872
  unreachable

if.else9.i.i874:                                  ; preds = %if.else.i.i871
  %sub.ptr.lhs.cast.i.i875 = ptrtoint ptr %75 to i64
  %sub.ptr.rhs.cast.i.i876 = ptrtoint ptr %73 to i64
  %sub.ptr.sub.i.i877 = sub i64 %sub.ptr.lhs.cast.i.i875, %sub.ptr.rhs.cast.i.i876
  store i64 %sub.ptr.sub.i.i877, ptr %pos121, align 8, !tbaa !18
  %cmp.i25.i.i878 = icmp eq i32 %78, 0
  br i1 %cmp.i25.i.i878, label %if.then.i26.i.i879, label %invoke.cont130

if.then.i26.i.i879:                               ; preds = %if.else9.i.i874
  store i32 %74, ptr %call.i.i.i, align 4, !tbaa !24
  br label %invoke.cont130

invoke.cont130:                                   ; preds = %if.then.i26.i.i879, %if.else9.i.i874
  call void @llvm.lifetime.end.p0(i64 8, ptr nonnull %__endptr.i.i860) #24
  store i64 %call.i.i862, ptr %ref.tmp124, align 8, !tbaa !18
  %79 = load i64, ptr %ref.tmp123, align 8, !tbaa !18, !noalias !53
  %cmp.i.i882 = icmp eq i64 %79, %call.i.i862
  br i1 %cmp.i.i882, label %if.then.i.i883, label %if.end.i.i884

if.then.i.i883:                                   ; preds = %invoke.cont130
  invoke void @_ZN7testing16AssertionSuccessEv(ptr nonnull sret(%"class.testing::AssertionResult") align 8 %gtest_ar122)
          to label %invoke.cont132 unwind label %lpad129

if.end.i.i884:                                    ; preds = %invoke.cont130
  invoke void @_ZN7testing8internal18CmpHelperEQFailureImmEENS_15AssertionResultEPKcS4_RKT_RKT0_(ptr nonnull sret(%"class.testing::AssertionResult") align 8 %gtest_ar122, ptr noundef nonnull @.str.19, ptr noundef nonnull @.str.20, ptr noundef nonnull align 8 dereferenceable(8) %ref.tmp123, ptr noundef nonnull align 8 dereferenceable(8) %ref.tmp124)
          to label %invoke.cont132 unwind label %lpad129

invoke.cont132:                                   ; preds = %if.then.i.i883, %if.end.i.i884
  %80 = load ptr, ptr %ref.tmp125, align 8, !tbaa !26
  %cmp.i.i.i888 = icmp eq ptr %80, %73
  br i1 %cmp.i.i.i888, label %_ZNSt7__cxx1112basic_stringIcSt11char_traitsIcESaIcEED2Ev.exit890, label %if.then.i.i889

if.then.i.i889:                                   ; preds = %invoke.cont132
  call void @_ZdlPv(ptr noundef %80) #26
  br label %_ZNSt7__cxx1112basic_stringIcSt11char_traitsIcESaIcEED2Ev.exit890

_ZNSt7__cxx1112basic_stringIcSt11char_traitsIcESaIcEED2Ev.exit890: ; preds = %invoke.cont132, %if.then.i.i889
  call void @llvm.lifetime.end.p0(i64 32, ptr nonnull %ref.tmp125) #24
  call void @llvm.lifetime.end.p0(i64 8, ptr nonnull %ref.tmp124) #24
  call void @llvm.lifetime.end.p0(i64 8, ptr nonnull %ref.tmp123) #24
  %81 = load i8, ptr %gtest_ar122, align 8, !tbaa !27, !range !36, !noundef !37
  %tobool.i891.not = icmp eq i8 %81, 0
  br i1 %tobool.i891.not, label %if.else143, label %if.end158

ehcleanup120:                                     ; preds = %ehcleanup116, %ehcleanup95
  %.pn624.pn.pn = phi { ptr, i32 } [ %.pn624.pn, %ehcleanup116 ], [ %.pn620.pn.pn, %ehcleanup95 ]
  call void @llvm.lifetime.end.p0(i64 8, ptr nonnull %pos56) #24
  br label %eh.resume

lpad129:                                          ; preds = %if.end.i.i884, %if.then.i.i883
  %82 = landingpad { ptr, i32 }
          cleanup
  br label %lpad129.body

lpad129.body:                                     ; preds = %_ZZN9__gnu_cxx6__stoaImmcJiEEET0_PFT_PKT1_PPS3_DpT2_EPKcS5_PmS9_EN11_Save_errnoD2Ev.exit.i.i869, %lpad129
  %eh.lpad-body880 = phi { ptr, i32 } [ %82, %lpad129 ], [ %76, %_ZZN9__gnu_cxx6__stoaImmcJiEEET0_PFT_PKT1_PPS3_DpT2_EPKcS5_PmS9_EN11_Save_errnoD2Ev.exit.i.i869 ]
  %83 = load ptr, ptr %ref.tmp125, align 8, !tbaa !26
  %cmp.i.i.i892 = icmp eq ptr %83, %73
  br i1 %cmp.i.i.i892, label %ehcleanup134, label %if.then.i.i893

if.then.i.i893:                                   ; preds = %lpad129.body
  call void @_ZdlPv(ptr noundef %83) #26
  br label %ehcleanup134

ehcleanup134:                                     ; preds = %if.then.i.i893, %lpad129.body
  call void @llvm.lifetime.end.p0(i64 32, ptr nonnull %ref.tmp125) #24
  call void @llvm.lifetime.end.p0(i64 8, ptr nonnull %ref.tmp124) #24
  call void @llvm.lifetime.end.p0(i64 8, ptr nonnull %ref.tmp123) #24
  br label %ehcleanup160

if.else143:                                       ; preds = %_ZNSt7__cxx1112basic_stringIcSt11char_traitsIcESaIcEED2Ev.exit890
  call void @llvm.lifetime.start.p0(i64 8, ptr nonnull %ref.tmp144) #24
  invoke void @_ZN7testing7MessageC1Ev(ptr noundef nonnull align 8 dereferenceable(8) %ref.tmp144)
          to label %invoke.cont146 unwind label %lpad145

invoke.cont146:                                   ; preds = %if.else143
  call void @llvm.lifetime.start.p0(i64 8, ptr nonnull %ref.tmp147) #24
  %message_.i.i895 = getelementptr inbounds %"class.testing::AssertionResult", ptr %gtest_ar122, i64 0, i32 1
  %84 = load ptr, ptr %message_.i.i895, align 8, !tbaa !25
  %cmp.not.i.i896 = icmp eq ptr %84, null
  br i1 %cmp.not.i.i896, label %invoke.cont149, label %cond.true.i.i897

cond.true.i.i897:                                 ; preds = %invoke.cont146
  %85 = load ptr, ptr %84, align 8, !tbaa !26
  br label %invoke.cont149

invoke.cont149:                                   ; preds = %cond.true.i.i897, %invoke.cont146
  %cond.i.i898 = phi ptr [ %85, %cond.true.i.i897 ], [ @.str.44, %invoke.cont146 ]
  invoke void @_ZN7testing8internal12AssertHelperC1ENS_14TestPartResult4TypeEPKciS5_(ptr noundef nonnull align 8 dereferenceable(8) %ref.tmp147, i32 noundef 1, ptr noundef nonnull @.str.4, i32 noundef 23, ptr noundef %cond.i.i898)
          to label %invoke.cont151 unwind label %lpad148

invoke.cont151:                                   ; preds = %invoke.cont149
  invoke void @_ZNK7testing8internal12AssertHelperaSERKNS_7MessageE(ptr noundef nonnull align 8 dereferenceable(8) %ref.tmp147, ptr noundef nonnull align 8 dereferenceable(8) %ref.tmp144)
          to label %invoke.cont153 unwind label %lpad152

invoke.cont153:                                   ; preds = %invoke.cont151
  call void @_ZN7testing8internal12AssertHelperD1Ev(ptr noundef nonnull align 8 dereferenceable(8) %ref.tmp147) #24
  call void @llvm.lifetime.end.p0(i64 8, ptr nonnull %ref.tmp147) #24
  %86 = load ptr, ptr %ref.tmp144, align 8, !tbaa !25
  %cmp.not.i.i900 = icmp eq ptr %86, null
  br i1 %cmp.not.i.i900, label %_ZN7testing7MessageD2Ev.exit904, label %_ZNKSt14default_deleteINSt7__cxx1118basic_stringstreamIcSt11char_traitsIcESaIcEEEEclEPS5_.exit.i.i903

_ZNKSt14default_deleteINSt7__cxx1118basic_stringstreamIcSt11char_traitsIcESaIcEEEEclEPS5_.exit.i.i903: ; preds = %invoke.cont153
  %vtable.i.i.i901 = load ptr, ptr %86, align 8, !tbaa !5
  %vfn.i.i.i902 = getelementptr inbounds ptr, ptr %vtable.i.i.i901, i64 1
  %87 = load ptr, ptr %vfn.i.i.i902, align 8
  call void %87(ptr noundef nonnull align 8 dereferenceable(128) %86) #24
  br label %_ZN7testing7MessageD2Ev.exit904

_ZN7testing7MessageD2Ev.exit904:                  ; preds = %invoke.cont153, %_ZNKSt14default_deleteINSt7__cxx1118basic_stringstreamIcSt11char_traitsIcESaIcEEEEclEPS5_.exit.i.i903
  call void @llvm.lifetime.end.p0(i64 8, ptr nonnull %ref.tmp144) #24
  br label %if.end158

lpad145:                                          ; preds = %if.else143
  %88 = landingpad { ptr, i32 }
          cleanup
  br label %ehcleanup157

lpad148:                                          ; preds = %invoke.cont149
  %89 = landingpad { ptr, i32 }
          cleanup
  br label %ehcleanup155

lpad152:                                          ; preds = %invoke.cont151
  %90 = landingpad { ptr, i32 }
          cleanup
  call void @_ZN7testing8internal12AssertHelperD1Ev(ptr noundef nonnull align 8 dereferenceable(8) %ref.tmp147) #24
  br label %ehcleanup155

ehcleanup155:                                     ; preds = %lpad152, %lpad148
  %.pn630 = phi { ptr, i32 } [ %90, %lpad152 ], [ %89, %lpad148 ]
  call void @llvm.lifetime.end.p0(i64 8, ptr nonnull %ref.tmp147) #24
  %91 = load ptr, ptr %ref.tmp144, align 8, !tbaa !25
  %cmp.not.i.i905 = icmp eq ptr %91, null
  br i1 %cmp.not.i.i905, label %ehcleanup157, label %_ZNKSt14default_deleteINSt7__cxx1118basic_stringstreamIcSt11char_traitsIcESaIcEEEEclEPS5_.exit.i.i908

_ZNKSt14default_deleteINSt7__cxx1118basic_stringstreamIcSt11char_traitsIcESaIcEEEEclEPS5_.exit.i.i908: ; preds = %ehcleanup155
  %vtable.i.i.i906 = load ptr, ptr %91, align 8, !tbaa !5
  %vfn.i.i.i907 = getelementptr inbounds ptr, ptr %vtable.i.i.i906, i64 1
  %92 = load ptr, ptr %vfn.i.i.i907, align 8
  call void %92(ptr noundef nonnull align 8 dereferenceable(128) %91) #24
  br label %ehcleanup157

ehcleanup157:                                     ; preds = %_ZNKSt14default_deleteINSt7__cxx1118basic_stringstreamIcSt11char_traitsIcESaIcEEEEclEPS5_.exit.i.i908, %ehcleanup155, %lpad145
  %.pn630.pn = phi { ptr, i32 } [ %88, %lpad145 ], [ %.pn630, %ehcleanup155 ], [ %.pn630, %_ZNKSt14default_deleteINSt7__cxx1118basic_stringstreamIcSt11char_traitsIcESaIcEEEEclEPS5_.exit.i.i908 ]
  call void @llvm.lifetime.end.p0(i64 8, ptr nonnull %ref.tmp144) #24
  call void @_ZN7testing15AssertionResultD2Ev(ptr noundef nonnull align 8 dereferenceable(16) %gtest_ar122) #24
  br label %ehcleanup160

if.end158:                                        ; preds = %_ZNSt7__cxx1112basic_stringIcSt11char_traitsIcESaIcEED2Ev.exit890, %_ZN7testing7MessageD2Ev.exit904
  %message_.i910 = getelementptr inbounds %"class.testing::AssertionResult", ptr %gtest_ar122, i64 0, i32 1
  %93 = load ptr, ptr %message_.i910, align 8, !tbaa !25
  %cmp.not.i.i911 = icmp eq ptr %93, null
  br i1 %cmp.not.i.i911, label %_ZN7testing15AssertionResultD2Ev.exit916, label %delete.notnull.i.i.i913

delete.notnull.i.i.i913:                          ; preds = %if.end158
  %94 = load ptr, ptr %93, align 8, !tbaa !26
  %95 = getelementptr inbounds %"class.std::__cxx11::basic_string", ptr %93, i64 0, i32 2
  %cmp.i.i.i.i.i.i912 = icmp eq ptr %94, %95
  br i1 %cmp.i.i.i.i.i.i912, label %_ZNKSt14default_deleteINSt7__cxx1112basic_stringIcSt11char_traitsIcESaIcEEEEclEPS5_.exit.i.i915, label %if.then.i.i.i.i.i914

if.then.i.i.i.i.i914:                             ; preds = %delete.notnull.i.i.i913
  call void @_ZdlPv(ptr noundef %94) #26
  br label %_ZNKSt14default_deleteINSt7__cxx1112basic_stringIcSt11char_traitsIcESaIcEEEEclEPS5_.exit.i.i915

_ZNKSt14default_deleteINSt7__cxx1112basic_stringIcSt11char_traitsIcESaIcEEEEclEPS5_.exit.i.i915: ; preds = %if.then.i.i.i.i.i914, %delete.notnull.i.i.i913
  call void @_ZdlPv(ptr noundef nonnull %93) #26
  br label %_ZN7testing15AssertionResultD2Ev.exit916

_ZN7testing15AssertionResultD2Ev.exit916:         ; preds = %if.end158, %_ZNKSt14default_deleteINSt7__cxx1112basic_stringIcSt11char_traitsIcESaIcEEEEclEPS5_.exit.i.i915
  call void @llvm.lifetime.end.p0(i64 16, ptr nonnull %gtest_ar122) #24
  call void @llvm.lifetime.start.p0(i64 16, ptr nonnull %gtest_ar161) #24
  call void @llvm.lifetime.start.p0(i64 8, ptr nonnull %ref.tmp162) #24
  store i64 3, ptr %ref.tmp162, align 8, !tbaa !18
  %96 = load i64, ptr %pos121, align 8, !tbaa !18, !noalias !58
  %cmp.i.i917 = icmp eq i64 %96, 3
  br i1 %cmp.i.i917, label %if.then.i.i918, label %if.end.i.i919

if.then.i.i918:                                   ; preds = %_ZN7testing15AssertionResultD2Ev.exit916
  call void @_ZN7testing16AssertionSuccessEv(ptr nonnull sret(%"class.testing::AssertionResult") align 8 %gtest_ar161)
  br label %_ZN7testing8internal8EqHelper7CompareImmLPv0EEENS_15AssertionResultEPKcS6_RKT_RKT0_.exit920

if.end.i.i919:                                    ; preds = %_ZN7testing15AssertionResultD2Ev.exit916
  call void @_ZN7testing8internal18CmpHelperEQFailureImmEENS_15AssertionResultEPKcS4_RKT_RKT0_(ptr nonnull sret(%"class.testing::AssertionResult") align 8 %gtest_ar161, ptr noundef nonnull @.str.22, ptr noundef nonnull @.str.15, ptr noundef nonnull align 8 dereferenceable(8) %ref.tmp162, ptr noundef nonnull align 8 dereferenceable(8) %pos121)
  br label %_ZN7testing8internal8EqHelper7CompareImmLPv0EEENS_15AssertionResultEPKcS6_RKT_RKT0_.exit920

_ZN7testing8internal8EqHelper7CompareImmLPv0EEENS_15AssertionResultEPKcS6_RKT_RKT0_.exit920: ; preds = %if.then.i.i918, %if.end.i.i919
  call void @llvm.lifetime.end.p0(i64 8, ptr nonnull %ref.tmp162) #24
  %97 = load i8, ptr %gtest_ar161, align 8, !tbaa !27, !range !36, !noundef !37
  %tobool.i921.not = icmp eq i8 %97, 0
  br i1 %tobool.i921.not, label %if.else167, label %if.end182

ehcleanup160:                                     ; preds = %ehcleanup157, %ehcleanup134
  %.pn630.pn.pn = phi { ptr, i32 } [ %.pn630.pn, %ehcleanup157 ], [ %eh.lpad-body880, %ehcleanup134 ]
  call void @llvm.lifetime.end.p0(i64 16, ptr nonnull %gtest_ar122) #24
  br label %ehcleanup185

if.else167:                                       ; preds = %_ZN7testing8internal8EqHelper7CompareImmLPv0EEENS_15AssertionResultEPKcS6_RKT_RKT0_.exit920
  call void @llvm.lifetime.start.p0(i64 8, ptr nonnull %ref.tmp168) #24
  invoke void @_ZN7testing7MessageC1Ev(ptr noundef nonnull align 8 dereferenceable(8) %ref.tmp168)
          to label %invoke.cont170 unwind label %lpad169

invoke.cont170:                                   ; preds = %if.else167
  call void @llvm.lifetime.start.p0(i64 8, ptr nonnull %ref.tmp171) #24
  %message_.i.i922 = getelementptr inbounds %"class.testing::AssertionResult", ptr %gtest_ar161, i64 0, i32 1
  %98 = load ptr, ptr %message_.i.i922, align 8, !tbaa !25
  %cmp.not.i.i923 = icmp eq ptr %98, null
  br i1 %cmp.not.i.i923, label %invoke.cont173, label %cond.true.i.i924

cond.true.i.i924:                                 ; preds = %invoke.cont170
  %99 = load ptr, ptr %98, align 8, !tbaa !26
  br label %invoke.cont173

invoke.cont173:                                   ; preds = %cond.true.i.i924, %invoke.cont170
  %cond.i.i925 = phi ptr [ %99, %cond.true.i.i924 ], [ @.str.44, %invoke.cont170 ]
  invoke void @_ZN7testing8internal12AssertHelperC1ENS_14TestPartResult4TypeEPKciS5_(ptr noundef nonnull align 8 dereferenceable(8) %ref.tmp171, i32 noundef 1, ptr noundef nonnull @.str.4, i32 noundef 24, ptr noundef %cond.i.i925)
          to label %invoke.cont175 unwind label %lpad172

invoke.cont175:                                   ; preds = %invoke.cont173
  invoke void @_ZNK7testing8internal12AssertHelperaSERKNS_7MessageE(ptr noundef nonnull align 8 dereferenceable(8) %ref.tmp171, ptr noundef nonnull align 8 dereferenceable(8) %ref.tmp168)
          to label %invoke.cont177 unwind label %lpad176

invoke.cont177:                                   ; preds = %invoke.cont175
  call void @_ZN7testing8internal12AssertHelperD1Ev(ptr noundef nonnull align 8 dereferenceable(8) %ref.tmp171) #24
  call void @llvm.lifetime.end.p0(i64 8, ptr nonnull %ref.tmp171) #24
  %100 = load ptr, ptr %ref.tmp168, align 8, !tbaa !25
  %cmp.not.i.i927 = icmp eq ptr %100, null
  br i1 %cmp.not.i.i927, label %_ZN7testing7MessageD2Ev.exit931, label %_ZNKSt14default_deleteINSt7__cxx1118basic_stringstreamIcSt11char_traitsIcESaIcEEEEclEPS5_.exit.i.i930

_ZNKSt14default_deleteINSt7__cxx1118basic_stringstreamIcSt11char_traitsIcESaIcEEEEclEPS5_.exit.i.i930: ; preds = %invoke.cont177
  %vtable.i.i.i928 = load ptr, ptr %100, align 8, !tbaa !5
  %vfn.i.i.i929 = getelementptr inbounds ptr, ptr %vtable.i.i.i928, i64 1
  %101 = load ptr, ptr %vfn.i.i.i929, align 8
  call void %101(ptr noundef nonnull align 8 dereferenceable(128) %100) #24
  br label %_ZN7testing7MessageD2Ev.exit931

_ZN7testing7MessageD2Ev.exit931:                  ; preds = %invoke.cont177, %_ZNKSt14default_deleteINSt7__cxx1118basic_stringstreamIcSt11char_traitsIcESaIcEEEEclEPS5_.exit.i.i930
  call void @llvm.lifetime.end.p0(i64 8, ptr nonnull %ref.tmp168) #24
  br label %if.end182

lpad169:                                          ; preds = %if.else167
  %102 = landingpad { ptr, i32 }
          cleanup
  br label %ehcleanup181

lpad172:                                          ; preds = %invoke.cont173
  %103 = landingpad { ptr, i32 }
          cleanup
  br label %ehcleanup179

lpad176:                                          ; preds = %invoke.cont175
  %104 = landingpad { ptr, i32 }
          cleanup
  call void @_ZN7testing8internal12AssertHelperD1Ev(ptr noundef nonnull align 8 dereferenceable(8) %ref.tmp171) #24
  br label %ehcleanup179

ehcleanup179:                                     ; preds = %lpad176, %lpad172
  %.pn634 = phi { ptr, i32 } [ %104, %lpad176 ], [ %103, %lpad172 ]
  call void @llvm.lifetime.end.p0(i64 8, ptr nonnull %ref.tmp171) #24
  %105 = load ptr, ptr %ref.tmp168, align 8, !tbaa !25
  %cmp.not.i.i932 = icmp eq ptr %105, null
  br i1 %cmp.not.i.i932, label %ehcleanup181, label %_ZNKSt14default_deleteINSt7__cxx1118basic_stringstreamIcSt11char_traitsIcESaIcEEEEclEPS5_.exit.i.i935

_ZNKSt14default_deleteINSt7__cxx1118basic_stringstreamIcSt11char_traitsIcESaIcEEEEclEPS5_.exit.i.i935: ; preds = %ehcleanup179
  %vtable.i.i.i933 = load ptr, ptr %105, align 8, !tbaa !5
  %vfn.i.i.i934 = getelementptr inbounds ptr, ptr %vtable.i.i.i933, i64 1
  %106 = load ptr, ptr %vfn.i.i.i934, align 8
  call void %106(ptr noundef nonnull align 8 dereferenceable(128) %105) #24
  br label %ehcleanup181

ehcleanup181:                                     ; preds = %_ZNKSt14default_deleteINSt7__cxx1118basic_stringstreamIcSt11char_traitsIcESaIcEEEEclEPS5_.exit.i.i935, %ehcleanup179, %lpad169
  %.pn634.pn = phi { ptr, i32 } [ %102, %lpad169 ], [ %.pn634, %ehcleanup179 ], [ %.pn634, %_ZNKSt14default_deleteINSt7__cxx1118basic_stringstreamIcSt11char_traitsIcESaIcEEEEclEPS5_.exit.i.i935 ]
  call void @llvm.lifetime.end.p0(i64 8, ptr nonnull %ref.tmp168) #24
  call void @_ZN7testing15AssertionResultD2Ev(ptr noundef nonnull align 8 dereferenceable(16) %gtest_ar161) #24
  call void @llvm.lifetime.end.p0(i64 16, ptr nonnull %gtest_ar161) #24
  br label %ehcleanup185

if.end182:                                        ; preds = %_ZN7testing8internal8EqHelper7CompareImmLPv0EEENS_15AssertionResultEPKcS6_RKT_RKT0_.exit920, %_ZN7testing7MessageD2Ev.exit931
  %message_.i937 = getelementptr inbounds %"class.testing::AssertionResult", ptr %gtest_ar161, i64 0, i32 1
  %107 = load ptr, ptr %message_.i937, align 8, !tbaa !25
  %cmp.not.i.i938 = icmp eq ptr %107, null
  br i1 %cmp.not.i.i938, label %_ZN7testing15AssertionResultD2Ev.exit943, label %delete.notnull.i.i.i940

delete.notnull.i.i.i940:                          ; preds = %if.end182
  %108 = load ptr, ptr %107, align 8, !tbaa !26
  %109 = getelementptr inbounds %"class.std::__cxx11::basic_string", ptr %107, i64 0, i32 2
  %cmp.i.i.i.i.i.i939 = icmp eq ptr %108, %109
  br i1 %cmp.i.i.i.i.i.i939, label %_ZNKSt14default_deleteINSt7__cxx1112basic_stringIcSt11char_traitsIcESaIcEEEEclEPS5_.exit.i.i942, label %if.then.i.i.i.i.i941

if.then.i.i.i.i.i941:                             ; preds = %delete.notnull.i.i.i940
  call void @_ZdlPv(ptr noundef %108) #26
  br label %_ZNKSt14default_deleteINSt7__cxx1112basic_stringIcSt11char_traitsIcESaIcEEEEclEPS5_.exit.i.i942

_ZNKSt14default_deleteINSt7__cxx1112basic_stringIcSt11char_traitsIcESaIcEEEEclEPS5_.exit.i.i942: ; preds = %if.then.i.i.i.i.i941, %delete.notnull.i.i.i940
  call void @_ZdlPv(ptr noundef nonnull %107) #26
  br label %_ZN7testing15AssertionResultD2Ev.exit943

_ZN7testing15AssertionResultD2Ev.exit943:         ; preds = %if.end182, %_ZNKSt14default_deleteINSt7__cxx1112basic_stringIcSt11char_traitsIcESaIcEEEEclEPS5_.exit.i.i942
  call void @llvm.lifetime.end.p0(i64 16, ptr nonnull %gtest_ar161) #24
  call void @llvm.lifetime.end.p0(i64 8, ptr nonnull %pos121) #24
  call void @llvm.lifetime.start.p0(i64 8, ptr nonnull %pos186) #24
  store i64 0, ptr %pos186, align 8, !tbaa !18
  call void @llvm.lifetime.start.p0(i64 16, ptr nonnull %gtest_ar187) #24
  call void @llvm.lifetime.start.p0(i64 8, ptr nonnull %ref.tmp188) #24
  store i64 10, ptr %ref.tmp188, align 8, !tbaa !18
  call void @llvm.lifetime.start.p0(i64 8, ptr nonnull %ref.tmp189) #24
  call void @llvm.lifetime.start.p0(i64 32, ptr nonnull %ref.tmp190) #24
  %110 = getelementptr inbounds %"class.std::__cxx11::basic_string", ptr %ref.tmp190, i64 0, i32 2
  store ptr %110, ptr %ref.tmp190, align 8, !tbaa !19
  store i32 808529969, ptr %110, align 8
  %_M_string_length.i.i.i.i951 = getelementptr inbounds %"class.std::__cxx11::basic_string", ptr %ref.tmp190, i64 0, i32 1
  store i64 4, ptr %_M_string_length.i.i.i.i951, align 8, !tbaa !22
  %arrayidx.i.i.i952 = getelementptr inbounds i8, ptr %ref.tmp190, i64 20
  store i8 0, ptr %arrayidx.i.i.i952, align 4, !tbaa !21
  call void @llvm.lifetime.start.p0(i64 8, ptr nonnull %__endptr.i.i956) #24
  %111 = load i32, ptr %call.i.i.i, align 4, !tbaa !24
  store i32 0, ptr %call.i.i.i, align 4, !tbaa !24
  %call.i.i958 = call noundef i64 @strtoul(ptr noundef nonnull %110, ptr noundef nonnull %__endptr.i.i956, i32 noundef 2)
  %112 = load ptr, ptr %__endptr.i.i956, align 8, !tbaa !25
  %cmp.i.i959 = icmp eq ptr %112, %110
  br i1 %cmp.i.i959, label %if.then.i.i960, label %if.else.i.i967

if.then.i.i960:                                   ; preds = %_ZN7testing15AssertionResultD2Ev.exit943
  invoke void @_ZSt24__throw_invalid_argumentPKc(ptr noundef nonnull @.str.3) #29
          to label %invoke.cont1.i.i961 unwind label %lpad.i.i963

invoke.cont1.i.i961:                              ; preds = %if.then.i.i960
  unreachable

lpad.i.i963:                                      ; preds = %if.then7.i.i968, %if.then.i.i960
  %113 = landingpad { ptr, i32 }
          cleanup
  %114 = load i32, ptr %call.i.i.i, align 4, !tbaa !24
  %cmp.i.i.i962 = icmp eq i32 %114, 0
  br i1 %cmp.i.i.i962, label %if.then.i.i.i964, label %_ZZN9__gnu_cxx6__stoaImmcJiEEET0_PFT_PKT1_PPS3_DpT2_EPKcS5_PmS9_EN11_Save_errnoD2Ev.exit.i.i965

if.then.i.i.i964:                                 ; preds = %lpad.i.i963
  store i32 %111, ptr %call.i.i.i, align 4, !tbaa !24
  br label %_ZZN9__gnu_cxx6__stoaImmcJiEEET0_PFT_PKT1_PPS3_DpT2_EPKcS5_PmS9_EN11_Save_errnoD2Ev.exit.i.i965

_ZZN9__gnu_cxx6__stoaImmcJiEEET0_PFT_PKT1_PPS3_DpT2_EPKcS5_PmS9_EN11_Save_errnoD2Ev.exit.i.i965: ; preds = %if.then.i.i.i964, %lpad.i.i963
  call void @llvm.lifetime.end.p0(i64 8, ptr nonnull %__endptr.i.i956) #24
  br label %lpad194.body

if.else.i.i967:                                   ; preds = %_ZN7testing15AssertionResultD2Ev.exit943
  %115 = load i32, ptr %call.i.i.i, align 4, !tbaa !24
  %cmp3.i.i966 = icmp eq i32 %115, 34
  br i1 %cmp3.i.i966, label %if.then7.i.i968, label %if.else9.i.i970

if.then7.i.i968:                                  ; preds = %if.else.i.i967
  invoke void @_ZSt20__throw_out_of_rangePKc(ptr noundef nonnull @.str.3) #29
          to label %invoke.cont8.i.i969 unwind label %lpad.i.i963

invoke.cont8.i.i969:                              ; preds = %if.then7.i.i968
  unreachable

if.else9.i.i970:                                  ; preds = %if.else.i.i967
  %sub.ptr.lhs.cast.i.i971 = ptrtoint ptr %112 to i64
  %sub.ptr.rhs.cast.i.i972 = ptrtoint ptr %110 to i64
  %sub.ptr.sub.i.i973 = sub i64 %sub.ptr.lhs.cast.i.i971, %sub.ptr.rhs.cast.i.i972
  store i64 %sub.ptr.sub.i.i973, ptr %pos186, align 8, !tbaa !18
  %cmp.i25.i.i974 = icmp eq i32 %115, 0
  br i1 %cmp.i25.i.i974, label %if.then.i26.i.i975, label %invoke.cont195

if.then.i26.i.i975:                               ; preds = %if.else9.i.i970
  store i32 %111, ptr %call.i.i.i, align 4, !tbaa !24
  br label %invoke.cont195

invoke.cont195:                                   ; preds = %if.then.i26.i.i975, %if.else9.i.i970
  call void @llvm.lifetime.end.p0(i64 8, ptr nonnull %__endptr.i.i956) #24
  store i64 %call.i.i958, ptr %ref.tmp189, align 8, !tbaa !18
  %116 = load i64, ptr %ref.tmp188, align 8, !tbaa !18, !noalias !63
  %cmp.i.i978 = icmp eq i64 %116, %call.i.i958
  br i1 %cmp.i.i978, label %if.then.i.i979, label %if.end.i.i980

if.then.i.i979:                                   ; preds = %invoke.cont195
  invoke void @_ZN7testing16AssertionSuccessEv(ptr nonnull sret(%"class.testing::AssertionResult") align 8 %gtest_ar187)
          to label %invoke.cont197 unwind label %lpad194

if.end.i.i980:                                    ; preds = %invoke.cont195
  invoke void @_ZN7testing8internal18CmpHelperEQFailureImmEENS_15AssertionResultEPKcS4_RKT_RKT0_(ptr nonnull sret(%"class.testing::AssertionResult") align 8 %gtest_ar187, ptr noundef nonnull @.str.23, ptr noundef nonnull @.str.24, ptr noundef nonnull align 8 dereferenceable(8) %ref.tmp188, ptr noundef nonnull align 8 dereferenceable(8) %ref.tmp189)
          to label %invoke.cont197 unwind label %lpad194

invoke.cont197:                                   ; preds = %if.then.i.i979, %if.end.i.i980
  %117 = load ptr, ptr %ref.tmp190, align 8, !tbaa !26
  %cmp.i.i.i984 = icmp eq ptr %117, %110
  br i1 %cmp.i.i.i984, label %_ZNSt7__cxx1112basic_stringIcSt11char_traitsIcESaIcEED2Ev.exit986, label %if.then.i.i985

if.then.i.i985:                                   ; preds = %invoke.cont197
  call void @_ZdlPv(ptr noundef %117) #26
  br label %_ZNSt7__cxx1112basic_stringIcSt11char_traitsIcESaIcEED2Ev.exit986

_ZNSt7__cxx1112basic_stringIcSt11char_traitsIcESaIcEED2Ev.exit986: ; preds = %invoke.cont197, %if.then.i.i985
  call void @llvm.lifetime.end.p0(i64 32, ptr nonnull %ref.tmp190) #24
  call void @llvm.lifetime.end.p0(i64 8, ptr nonnull %ref.tmp189) #24
  call void @llvm.lifetime.end.p0(i64 8, ptr nonnull %ref.tmp188) #24
  %118 = load i8, ptr %gtest_ar187, align 8, !tbaa !27, !range !36, !noundef !37
  %tobool.i987.not = icmp eq i8 %118, 0
  br i1 %tobool.i987.not, label %if.else208, label %if.end223

ehcleanup185:                                     ; preds = %ehcleanup181, %ehcleanup160
  %.pn634.pn.pn = phi { ptr, i32 } [ %.pn634.pn, %ehcleanup181 ], [ %.pn630.pn.pn, %ehcleanup160 ]
  call void @llvm.lifetime.end.p0(i64 8, ptr nonnull %pos121) #24
  br label %eh.resume

lpad194:                                          ; preds = %if.end.i.i980, %if.then.i.i979
  %119 = landingpad { ptr, i32 }
          cleanup
  br label %lpad194.body

lpad194.body:                                     ; preds = %_ZZN9__gnu_cxx6__stoaImmcJiEEET0_PFT_PKT1_PPS3_DpT2_EPKcS5_PmS9_EN11_Save_errnoD2Ev.exit.i.i965, %lpad194
  %eh.lpad-body976 = phi { ptr, i32 } [ %119, %lpad194 ], [ %113, %_ZZN9__gnu_cxx6__stoaImmcJiEEET0_PFT_PKT1_PPS3_DpT2_EPKcS5_PmS9_EN11_Save_errnoD2Ev.exit.i.i965 ]
  %120 = load ptr, ptr %ref.tmp190, align 8, !tbaa !26
  %cmp.i.i.i988 = icmp eq ptr %120, %110
  br i1 %cmp.i.i.i988, label %ehcleanup199, label %if.then.i.i989

if.then.i.i989:                                   ; preds = %lpad194.body
  call void @_ZdlPv(ptr noundef %120) #26
  br label %ehcleanup199

ehcleanup199:                                     ; preds = %if.then.i.i989, %lpad194.body
  call void @llvm.lifetime.end.p0(i64 32, ptr nonnull %ref.tmp190) #24
  call void @llvm.lifetime.end.p0(i64 8, ptr nonnull %ref.tmp189) #24
  call void @llvm.lifetime.end.p0(i64 8, ptr nonnull %ref.tmp188) #24
  br label %ehcleanup225

if.else208:                                       ; preds = %_ZNSt7__cxx1112basic_stringIcSt11char_traitsIcESaIcEED2Ev.exit986
  call void @llvm.lifetime.start.p0(i64 8, ptr nonnull %ref.tmp209) #24
  invoke void @_ZN7testing7MessageC1Ev(ptr noundef nonnull align 8 dereferenceable(8) %ref.tmp209)
          to label %invoke.cont211 unwind label %lpad210

invoke.cont211:                                   ; preds = %if.else208
  call void @llvm.lifetime.start.p0(i64 8, ptr nonnull %ref.tmp212) #24
  %message_.i.i991 = getelementptr inbounds %"class.testing::AssertionResult", ptr %gtest_ar187, i64 0, i32 1
  %121 = load ptr, ptr %message_.i.i991, align 8, !tbaa !25
  %cmp.not.i.i992 = icmp eq ptr %121, null
  br i1 %cmp.not.i.i992, label %invoke.cont214, label %cond.true.i.i993

cond.true.i.i993:                                 ; preds = %invoke.cont211
  %122 = load ptr, ptr %121, align 8, !tbaa !26
  br label %invoke.cont214

invoke.cont214:                                   ; preds = %cond.true.i.i993, %invoke.cont211
  %cond.i.i994 = phi ptr [ %122, %cond.true.i.i993 ], [ @.str.44, %invoke.cont211 ]
  invoke void @_ZN7testing8internal12AssertHelperC1ENS_14TestPartResult4TypeEPKciS5_(ptr noundef nonnull align 8 dereferenceable(8) %ref.tmp212, i32 noundef 1, ptr noundef nonnull @.str.4, i32 noundef 42, ptr noundef %cond.i.i994)
          to label %invoke.cont216 unwind label %lpad213

invoke.cont216:                                   ; preds = %invoke.cont214
  invoke void @_ZNK7testing8internal12AssertHelperaSERKNS_7MessageE(ptr noundef nonnull align 8 dereferenceable(8) %ref.tmp212, ptr noundef nonnull align 8 dereferenceable(8) %ref.tmp209)
          to label %invoke.cont218 unwind label %lpad217

invoke.cont218:                                   ; preds = %invoke.cont216
  call void @_ZN7testing8internal12AssertHelperD1Ev(ptr noundef nonnull align 8 dereferenceable(8) %ref.tmp212) #24
  call void @llvm.lifetime.end.p0(i64 8, ptr nonnull %ref.tmp212) #24
  %123 = load ptr, ptr %ref.tmp209, align 8, !tbaa !25
  %cmp.not.i.i996 = icmp eq ptr %123, null
  br i1 %cmp.not.i.i996, label %_ZN7testing7MessageD2Ev.exit1000, label %_ZNKSt14default_deleteINSt7__cxx1118basic_stringstreamIcSt11char_traitsIcESaIcEEEEclEPS5_.exit.i.i999

_ZNKSt14default_deleteINSt7__cxx1118basic_stringstreamIcSt11char_traitsIcESaIcEEEEclEPS5_.exit.i.i999: ; preds = %invoke.cont218
  %vtable.i.i.i997 = load ptr, ptr %123, align 8, !tbaa !5
  %vfn.i.i.i998 = getelementptr inbounds ptr, ptr %vtable.i.i.i997, i64 1
  %124 = load ptr, ptr %vfn.i.i.i998, align 8
  call void %124(ptr noundef nonnull align 8 dereferenceable(128) %123) #24
  br label %_ZN7testing7MessageD2Ev.exit1000

_ZN7testing7MessageD2Ev.exit1000:                 ; preds = %invoke.cont218, %_ZNKSt14default_deleteINSt7__cxx1118basic_stringstreamIcSt11char_traitsIcESaIcEEEEclEPS5_.exit.i.i999
  call void @llvm.lifetime.end.p0(i64 8, ptr nonnull %ref.tmp209) #24
  br label %if.end223

lpad210:                                          ; preds = %if.else208
  %125 = landingpad { ptr, i32 }
          cleanup
  br label %ehcleanup222

lpad213:                                          ; preds = %invoke.cont214
  %126 = landingpad { ptr, i32 }
          cleanup
  br label %ehcleanup220

lpad217:                                          ; preds = %invoke.cont216
  %127 = landingpad { ptr, i32 }
          cleanup
  call void @_ZN7testing8internal12AssertHelperD1Ev(ptr noundef nonnull align 8 dereferenceable(8) %ref.tmp212) #24
  br label %ehcleanup220

ehcleanup220:                                     ; preds = %lpad217, %lpad213
  %.pn640 = phi { ptr, i32 } [ %127, %lpad217 ], [ %126, %lpad213 ]
  call void @llvm.lifetime.end.p0(i64 8, ptr nonnull %ref.tmp212) #24
  %128 = load ptr, ptr %ref.tmp209, align 8, !tbaa !25
  %cmp.not.i.i1001 = icmp eq ptr %128, null
  br i1 %cmp.not.i.i1001, label %ehcleanup222, label %_ZNKSt14default_deleteINSt7__cxx1118basic_stringstreamIcSt11char_traitsIcESaIcEEEEclEPS5_.exit.i.i1004

_ZNKSt14default_deleteINSt7__cxx1118basic_stringstreamIcSt11char_traitsIcESaIcEEEEclEPS5_.exit.i.i1004: ; preds = %ehcleanup220
  %vtable.i.i.i1002 = load ptr, ptr %128, align 8, !tbaa !5
  %vfn.i.i.i1003 = getelementptr inbounds ptr, ptr %vtable.i.i.i1002, i64 1
  %129 = load ptr, ptr %vfn.i.i.i1003, align 8
  call void %129(ptr noundef nonnull align 8 dereferenceable(128) %128) #24
  br label %ehcleanup222

ehcleanup222:                                     ; preds = %_ZNKSt14default_deleteINSt7__cxx1118basic_stringstreamIcSt11char_traitsIcESaIcEEEEclEPS5_.exit.i.i1004, %ehcleanup220, %lpad210
  %.pn640.pn = phi { ptr, i32 } [ %125, %lpad210 ], [ %.pn640, %ehcleanup220 ], [ %.pn640, %_ZNKSt14default_deleteINSt7__cxx1118basic_stringstreamIcSt11char_traitsIcESaIcEEEEclEPS5_.exit.i.i1004 ]
  call void @llvm.lifetime.end.p0(i64 8, ptr nonnull %ref.tmp209) #24
  call void @_ZN7testing15AssertionResultD2Ev(ptr noundef nonnull align 8 dereferenceable(16) %gtest_ar187) #24
  br label %ehcleanup225

if.end223:                                        ; preds = %_ZNSt7__cxx1112basic_stringIcSt11char_traitsIcESaIcEED2Ev.exit986, %_ZN7testing7MessageD2Ev.exit1000
  %message_.i1006 = getelementptr inbounds %"class.testing::AssertionResult", ptr %gtest_ar187, i64 0, i32 1
  %130 = load ptr, ptr %message_.i1006, align 8, !tbaa !25
  %cmp.not.i.i1007 = icmp eq ptr %130, null
  br i1 %cmp.not.i.i1007, label %_ZN7testing15AssertionResultD2Ev.exit1012, label %delete.notnull.i.i.i1009

delete.notnull.i.i.i1009:                         ; preds = %if.end223
  %131 = load ptr, ptr %130, align 8, !tbaa !26
  %132 = getelementptr inbounds %"class.std::__cxx11::basic_string", ptr %130, i64 0, i32 2
  %cmp.i.i.i.i.i.i1008 = icmp eq ptr %131, %132
  br i1 %cmp.i.i.i.i.i.i1008, label %_ZNKSt14default_deleteINSt7__cxx1112basic_stringIcSt11char_traitsIcESaIcEEEEclEPS5_.exit.i.i1011, label %if.then.i.i.i.i.i1010

if.then.i.i.i.i.i1010:                            ; preds = %delete.notnull.i.i.i1009
  call void @_ZdlPv(ptr noundef %131) #26
  br label %_ZNKSt14default_deleteINSt7__cxx1112basic_stringIcSt11char_traitsIcESaIcEEEEclEPS5_.exit.i.i1011

_ZNKSt14default_deleteINSt7__cxx1112basic_stringIcSt11char_traitsIcESaIcEEEEclEPS5_.exit.i.i1011: ; preds = %if.then.i.i.i.i.i1010, %delete.notnull.i.i.i1009
  call void @_ZdlPv(ptr noundef nonnull %130) #26
  br label %_ZN7testing15AssertionResultD2Ev.exit1012

_ZN7testing15AssertionResultD2Ev.exit1012:        ; preds = %if.end223, %_ZNKSt14default_deleteINSt7__cxx1112basic_stringIcSt11char_traitsIcESaIcEEEEclEPS5_.exit.i.i1011
  call void @llvm.lifetime.end.p0(i64 16, ptr nonnull %gtest_ar187) #24
  call void @llvm.lifetime.start.p0(i64 16, ptr nonnull %gtest_ar226) #24
  call void @llvm.lifetime.start.p0(i64 8, ptr nonnull %ref.tmp227) #24
  store i64 4, ptr %ref.tmp227, align 8, !tbaa !18
  %133 = load i64, ptr %pos186, align 8, !tbaa !18, !noalias !68
  %cmp.i.i1013 = icmp eq i64 %133, 4
  br i1 %cmp.i.i1013, label %if.then.i.i1014, label %if.end.i.i1015

if.then.i.i1014:                                  ; preds = %_ZN7testing15AssertionResultD2Ev.exit1012
  call void @_ZN7testing16AssertionSuccessEv(ptr nonnull sret(%"class.testing::AssertionResult") align 8 %gtest_ar226)
  br label %_ZN7testing8internal8EqHelper7CompareImmLPv0EEENS_15AssertionResultEPKcS6_RKT_RKT0_.exit1016

if.end.i.i1015:                                   ; preds = %_ZN7testing15AssertionResultD2Ev.exit1012
  call void @_ZN7testing8internal18CmpHelperEQFailureImmEENS_15AssertionResultEPKcS4_RKT_RKT0_(ptr nonnull sret(%"class.testing::AssertionResult") align 8 %gtest_ar226, ptr noundef nonnull @.str.26, ptr noundef nonnull @.str.15, ptr noundef nonnull align 8 dereferenceable(8) %ref.tmp227, ptr noundef nonnull align 8 dereferenceable(8) %pos186)
  br label %_ZN7testing8internal8EqHelper7CompareImmLPv0EEENS_15AssertionResultEPKcS6_RKT_RKT0_.exit1016

_ZN7testing8internal8EqHelper7CompareImmLPv0EEENS_15AssertionResultEPKcS6_RKT_RKT0_.exit1016: ; preds = %if.then.i.i1014, %if.end.i.i1015
  call void @llvm.lifetime.end.p0(i64 8, ptr nonnull %ref.tmp227) #24
  %134 = load i8, ptr %gtest_ar226, align 8, !tbaa !27, !range !36, !noundef !37
  %tobool.i1017.not = icmp eq i8 %134, 0
  br i1 %tobool.i1017.not, label %if.else232, label %if.end247

ehcleanup225:                                     ; preds = %ehcleanup222, %ehcleanup199
  %.pn640.pn.pn = phi { ptr, i32 } [ %.pn640.pn, %ehcleanup222 ], [ %eh.lpad-body976, %ehcleanup199 ]
  call void @llvm.lifetime.end.p0(i64 16, ptr nonnull %gtest_ar187) #24
  br label %ehcleanup250

if.else232:                                       ; preds = %_ZN7testing8internal8EqHelper7CompareImmLPv0EEENS_15AssertionResultEPKcS6_RKT_RKT0_.exit1016
  call void @llvm.lifetime.start.p0(i64 8, ptr nonnull %ref.tmp233) #24
  invoke void @_ZN7testing7MessageC1Ev(ptr noundef nonnull align 8 dereferenceable(8) %ref.tmp233)
          to label %invoke.cont235 unwind label %lpad234

invoke.cont235:                                   ; preds = %if.else232
  call void @llvm.lifetime.start.p0(i64 8, ptr nonnull %ref.tmp236) #24
  %message_.i.i1018 = getelementptr inbounds %"class.testing::AssertionResult", ptr %gtest_ar226, i64 0, i32 1
  %135 = load ptr, ptr %message_.i.i1018, align 8, !tbaa !25
  %cmp.not.i.i1019 = icmp eq ptr %135, null
  br i1 %cmp.not.i.i1019, label %invoke.cont238, label %cond.true.i.i1020

cond.true.i.i1020:                                ; preds = %invoke.cont235
  %136 = load ptr, ptr %135, align 8, !tbaa !26
  br label %invoke.cont238

invoke.cont238:                                   ; preds = %cond.true.i.i1020, %invoke.cont235
  %cond.i.i1021 = phi ptr [ %136, %cond.true.i.i1020 ], [ @.str.44, %invoke.cont235 ]
  invoke void @_ZN7testing8internal12AssertHelperC1ENS_14TestPartResult4TypeEPKciS5_(ptr noundef nonnull align 8 dereferenceable(8) %ref.tmp236, i32 noundef 1, ptr noundef nonnull @.str.4, i32 noundef 43, ptr noundef %cond.i.i1021)
          to label %invoke.cont240 unwind label %lpad237

invoke.cont240:                                   ; preds = %invoke.cont238
  invoke void @_ZNK7testing8internal12AssertHelperaSERKNS_7MessageE(ptr noundef nonnull align 8 dereferenceable(8) %ref.tmp236, ptr noundef nonnull align 8 dereferenceable(8) %ref.tmp233)
          to label %invoke.cont242 unwind label %lpad241

invoke.cont242:                                   ; preds = %invoke.cont240
  call void @_ZN7testing8internal12AssertHelperD1Ev(ptr noundef nonnull align 8 dereferenceable(8) %ref.tmp236) #24
  call void @llvm.lifetime.end.p0(i64 8, ptr nonnull %ref.tmp236) #24
  %137 = load ptr, ptr %ref.tmp233, align 8, !tbaa !25
  %cmp.not.i.i1023 = icmp eq ptr %137, null
  br i1 %cmp.not.i.i1023, label %_ZN7testing7MessageD2Ev.exit1027, label %_ZNKSt14default_deleteINSt7__cxx1118basic_stringstreamIcSt11char_traitsIcESaIcEEEEclEPS5_.exit.i.i1026

_ZNKSt14default_deleteINSt7__cxx1118basic_stringstreamIcSt11char_traitsIcESaIcEEEEclEPS5_.exit.i.i1026: ; preds = %invoke.cont242
  %vtable.i.i.i1024 = load ptr, ptr %137, align 8, !tbaa !5
  %vfn.i.i.i1025 = getelementptr inbounds ptr, ptr %vtable.i.i.i1024, i64 1
  %138 = load ptr, ptr %vfn.i.i.i1025, align 8
  call void %138(ptr noundef nonnull align 8 dereferenceable(128) %137) #24
  br label %_ZN7testing7MessageD2Ev.exit1027

_ZN7testing7MessageD2Ev.exit1027:                 ; preds = %invoke.cont242, %_ZNKSt14default_deleteINSt7__cxx1118basic_stringstreamIcSt11char_traitsIcESaIcEEEEclEPS5_.exit.i.i1026
  call void @llvm.lifetime.end.p0(i64 8, ptr nonnull %ref.tmp233) #24
  br label %if.end247

lpad234:                                          ; preds = %if.else232
  %139 = landingpad { ptr, i32 }
          cleanup
  br label %ehcleanup246

lpad237:                                          ; preds = %invoke.cont238
  %140 = landingpad { ptr, i32 }
          cleanup
  br label %ehcleanup244

lpad241:                                          ; preds = %invoke.cont240
  %141 = landingpad { ptr, i32 }
          cleanup
  call void @_ZN7testing8internal12AssertHelperD1Ev(ptr noundef nonnull align 8 dereferenceable(8) %ref.tmp236) #24
  br label %ehcleanup244

ehcleanup244:                                     ; preds = %lpad241, %lpad237
  %.pn644 = phi { ptr, i32 } [ %141, %lpad241 ], [ %140, %lpad237 ]
  call void @llvm.lifetime.end.p0(i64 8, ptr nonnull %ref.tmp236) #24
  %142 = load ptr, ptr %ref.tmp233, align 8, !tbaa !25
  %cmp.not.i.i1028 = icmp eq ptr %142, null
  br i1 %cmp.not.i.i1028, label %ehcleanup246, label %_ZNKSt14default_deleteINSt7__cxx1118basic_stringstreamIcSt11char_traitsIcESaIcEEEEclEPS5_.exit.i.i1031

_ZNKSt14default_deleteINSt7__cxx1118basic_stringstreamIcSt11char_traitsIcESaIcEEEEclEPS5_.exit.i.i1031: ; preds = %ehcleanup244
  %vtable.i.i.i1029 = load ptr, ptr %142, align 8, !tbaa !5
  %vfn.i.i.i1030 = getelementptr inbounds ptr, ptr %vtable.i.i.i1029, i64 1
  %143 = load ptr, ptr %vfn.i.i.i1030, align 8
  call void %143(ptr noundef nonnull align 8 dereferenceable(128) %142) #24
  br label %ehcleanup246

ehcleanup246:                                     ; preds = %_ZNKSt14default_deleteINSt7__cxx1118basic_stringstreamIcSt11char_traitsIcESaIcEEEEclEPS5_.exit.i.i1031, %ehcleanup244, %lpad234
  %.pn644.pn = phi { ptr, i32 } [ %139, %lpad234 ], [ %.pn644, %ehcleanup244 ], [ %.pn644, %_ZNKSt14default_deleteINSt7__cxx1118basic_stringstreamIcSt11char_traitsIcESaIcEEEEclEPS5_.exit.i.i1031 ]
  call void @llvm.lifetime.end.p0(i64 8, ptr nonnull %ref.tmp233) #24
  call void @_ZN7testing15AssertionResultD2Ev(ptr noundef nonnull align 8 dereferenceable(16) %gtest_ar226) #24
  call void @llvm.lifetime.end.p0(i64 16, ptr nonnull %gtest_ar226) #24
  br label %ehcleanup250

if.end247:                                        ; preds = %_ZN7testing8internal8EqHelper7CompareImmLPv0EEENS_15AssertionResultEPKcS6_RKT_RKT0_.exit1016, %_ZN7testing7MessageD2Ev.exit1027
  %message_.i1033 = getelementptr inbounds %"class.testing::AssertionResult", ptr %gtest_ar226, i64 0, i32 1
  %144 = load ptr, ptr %message_.i1033, align 8, !tbaa !25
  %cmp.not.i.i1034 = icmp eq ptr %144, null
  br i1 %cmp.not.i.i1034, label %_ZN7testing15AssertionResultD2Ev.exit1039, label %delete.notnull.i.i.i1036

delete.notnull.i.i.i1036:                         ; preds = %if.end247
  %145 = load ptr, ptr %144, align 8, !tbaa !26
  %146 = getelementptr inbounds %"class.std::__cxx11::basic_string", ptr %144, i64 0, i32 2
  %cmp.i.i.i.i.i.i1035 = icmp eq ptr %145, %146
  br i1 %cmp.i.i.i.i.i.i1035, label %_ZNKSt14default_deleteINSt7__cxx1112basic_stringIcSt11char_traitsIcESaIcEEEEclEPS5_.exit.i.i1038, label %if.then.i.i.i.i.i1037

if.then.i.i.i.i.i1037:                            ; preds = %delete.notnull.i.i.i1036
  call void @_ZdlPv(ptr noundef %145) #26
  br label %_ZNKSt14default_deleteINSt7__cxx1112basic_stringIcSt11char_traitsIcESaIcEEEEclEPS5_.exit.i.i1038

_ZNKSt14default_deleteINSt7__cxx1112basic_stringIcSt11char_traitsIcESaIcEEEEclEPS5_.exit.i.i1038: ; preds = %if.then.i.i.i.i.i1037, %delete.notnull.i.i.i1036
  call void @_ZdlPv(ptr noundef nonnull %144) #26
  br label %_ZN7testing15AssertionResultD2Ev.exit1039

_ZN7testing15AssertionResultD2Ev.exit1039:        ; preds = %if.end247, %_ZNKSt14default_deleteINSt7__cxx1112basic_stringIcSt11char_traitsIcESaIcEEEEclEPS5_.exit.i.i1038
  call void @llvm.lifetime.end.p0(i64 16, ptr nonnull %gtest_ar226) #24
  call void @llvm.lifetime.end.p0(i64 8, ptr nonnull %pos186) #24
  call void @llvm.lifetime.start.p0(i64 8, ptr nonnull %pos251) #24
  store i64 0, ptr %pos251, align 8, !tbaa !18
  call void @llvm.lifetime.start.p0(i64 16, ptr nonnull %gtest_ar252) #24
  call void @llvm.lifetime.start.p0(i64 8, ptr nonnull %ref.tmp253) #24
  store i64 520, ptr %ref.tmp253, align 8, !tbaa !18
  call void @llvm.lifetime.start.p0(i64 8, ptr nonnull %ref.tmp254) #24
  call void @llvm.lifetime.start.p0(i64 32, ptr nonnull %ref.tmp255) #24
  %147 = getelementptr inbounds %"class.std::__cxx11::basic_string", ptr %ref.tmp255, i64 0, i32 2
  store ptr %147, ptr %ref.tmp255, align 8, !tbaa !19
  store i32 808529969, ptr %147, align 8
  %_M_string_length.i.i.i.i1047 = getelementptr inbounds %"class.std::__cxx11::basic_string", ptr %ref.tmp255, i64 0, i32 1
  store i64 4, ptr %_M_string_length.i.i.i.i1047, align 8, !tbaa !22
  %arrayidx.i.i.i1048 = getelementptr inbounds i8, ptr %ref.tmp255, i64 20
  store i8 0, ptr %arrayidx.i.i.i1048, align 4, !tbaa !21
  call void @llvm.lifetime.start.p0(i64 8, ptr nonnull %__endptr.i.i1052) #24
  %148 = load i32, ptr %call.i.i.i, align 4, !tbaa !24
  store i32 0, ptr %call.i.i.i, align 4, !tbaa !24
  %call.i.i1054 = call noundef i64 @strtoul(ptr noundef nonnull %147, ptr noundef nonnull %__endptr.i.i1052, i32 noundef 8)
  %149 = load ptr, ptr %__endptr.i.i1052, align 8, !tbaa !25
  %cmp.i.i1055 = icmp eq ptr %149, %147
  br i1 %cmp.i.i1055, label %if.then.i.i1056, label %if.else.i.i1063

if.then.i.i1056:                                  ; preds = %_ZN7testing15AssertionResultD2Ev.exit1039
  invoke void @_ZSt24__throw_invalid_argumentPKc(ptr noundef nonnull @.str.3) #29
          to label %invoke.cont1.i.i1057 unwind label %lpad.i.i1059

invoke.cont1.i.i1057:                             ; preds = %if.then.i.i1056
  unreachable

lpad.i.i1059:                                     ; preds = %if.then7.i.i1064, %if.then.i.i1056
  %150 = landingpad { ptr, i32 }
          cleanup
  %151 = load i32, ptr %call.i.i.i, align 4, !tbaa !24
  %cmp.i.i.i1058 = icmp eq i32 %151, 0
  br i1 %cmp.i.i.i1058, label %if.then.i.i.i1060, label %_ZZN9__gnu_cxx6__stoaImmcJiEEET0_PFT_PKT1_PPS3_DpT2_EPKcS5_PmS9_EN11_Save_errnoD2Ev.exit.i.i1061

if.then.i.i.i1060:                                ; preds = %lpad.i.i1059
  store i32 %148, ptr %call.i.i.i, align 4, !tbaa !24
  br label %_ZZN9__gnu_cxx6__stoaImmcJiEEET0_PFT_PKT1_PPS3_DpT2_EPKcS5_PmS9_EN11_Save_errnoD2Ev.exit.i.i1061

_ZZN9__gnu_cxx6__stoaImmcJiEEET0_PFT_PKT1_PPS3_DpT2_EPKcS5_PmS9_EN11_Save_errnoD2Ev.exit.i.i1061: ; preds = %if.then.i.i.i1060, %lpad.i.i1059
  call void @llvm.lifetime.end.p0(i64 8, ptr nonnull %__endptr.i.i1052) #24
  br label %lpad259.body

if.else.i.i1063:                                  ; preds = %_ZN7testing15AssertionResultD2Ev.exit1039
  %152 = load i32, ptr %call.i.i.i, align 4, !tbaa !24
  %cmp3.i.i1062 = icmp eq i32 %152, 34
  br i1 %cmp3.i.i1062, label %if.then7.i.i1064, label %if.else9.i.i1066

if.then7.i.i1064:                                 ; preds = %if.else.i.i1063
  invoke void @_ZSt20__throw_out_of_rangePKc(ptr noundef nonnull @.str.3) #29
          to label %invoke.cont8.i.i1065 unwind label %lpad.i.i1059

invoke.cont8.i.i1065:                             ; preds = %if.then7.i.i1064
  unreachable

if.else9.i.i1066:                                 ; preds = %if.else.i.i1063
  %sub.ptr.lhs.cast.i.i1067 = ptrtoint ptr %149 to i64
  %sub.ptr.rhs.cast.i.i1068 = ptrtoint ptr %147 to i64
  %sub.ptr.sub.i.i1069 = sub i64 %sub.ptr.lhs.cast.i.i1067, %sub.ptr.rhs.cast.i.i1068
  store i64 %sub.ptr.sub.i.i1069, ptr %pos251, align 8, !tbaa !18
  %cmp.i25.i.i1070 = icmp eq i32 %152, 0
  br i1 %cmp.i25.i.i1070, label %if.then.i26.i.i1071, label %invoke.cont260

if.then.i26.i.i1071:                              ; preds = %if.else9.i.i1066
  store i32 %148, ptr %call.i.i.i, align 4, !tbaa !24
  br label %invoke.cont260

invoke.cont260:                                   ; preds = %if.then.i26.i.i1071, %if.else9.i.i1066
  call void @llvm.lifetime.end.p0(i64 8, ptr nonnull %__endptr.i.i1052) #24
  store i64 %call.i.i1054, ptr %ref.tmp254, align 8, !tbaa !18
  %153 = load i64, ptr %ref.tmp253, align 8, !tbaa !18, !noalias !73
  %cmp.i.i1074 = icmp eq i64 %153, %call.i.i1054
  br i1 %cmp.i.i1074, label %if.then.i.i1075, label %if.end.i.i1076

if.then.i.i1075:                                  ; preds = %invoke.cont260
  invoke void @_ZN7testing16AssertionSuccessEv(ptr nonnull sret(%"class.testing::AssertionResult") align 8 %gtest_ar252)
          to label %invoke.cont262 unwind label %lpad259

if.end.i.i1076:                                   ; preds = %invoke.cont260
  invoke void @_ZN7testing8internal18CmpHelperEQFailureImmEENS_15AssertionResultEPKcS4_RKT_RKT0_(ptr nonnull sret(%"class.testing::AssertionResult") align 8 %gtest_ar252, ptr noundef nonnull @.str.27, ptr noundef nonnull @.str.28, ptr noundef nonnull align 8 dereferenceable(8) %ref.tmp253, ptr noundef nonnull align 8 dereferenceable(8) %ref.tmp254)
          to label %invoke.cont262 unwind label %lpad259

invoke.cont262:                                   ; preds = %if.then.i.i1075, %if.end.i.i1076
  %154 = load ptr, ptr %ref.tmp255, align 8, !tbaa !26
  %cmp.i.i.i1080 = icmp eq ptr %154, %147
  br i1 %cmp.i.i.i1080, label %_ZNSt7__cxx1112basic_stringIcSt11char_traitsIcESaIcEED2Ev.exit1082, label %if.then.i.i1081

if.then.i.i1081:                                  ; preds = %invoke.cont262
  call void @_ZdlPv(ptr noundef %154) #26
  br label %_ZNSt7__cxx1112basic_stringIcSt11char_traitsIcESaIcEED2Ev.exit1082

_ZNSt7__cxx1112basic_stringIcSt11char_traitsIcESaIcEED2Ev.exit1082: ; preds = %invoke.cont262, %if.then.i.i1081
  call void @llvm.lifetime.end.p0(i64 32, ptr nonnull %ref.tmp255) #24
  call void @llvm.lifetime.end.p0(i64 8, ptr nonnull %ref.tmp254) #24
  call void @llvm.lifetime.end.p0(i64 8, ptr nonnull %ref.tmp253) #24
  %155 = load i8, ptr %gtest_ar252, align 8, !tbaa !27, !range !36, !noundef !37
  %tobool.i1083.not = icmp eq i8 %155, 0
  br i1 %tobool.i1083.not, label %if.else273, label %if.end288

ehcleanup250:                                     ; preds = %ehcleanup246, %ehcleanup225
  %.pn644.pn.pn = phi { ptr, i32 } [ %.pn644.pn, %ehcleanup246 ], [ %.pn640.pn.pn, %ehcleanup225 ]
  call void @llvm.lifetime.end.p0(i64 8, ptr nonnull %pos186) #24
  br label %eh.resume

lpad259:                                          ; preds = %if.end.i.i1076, %if.then.i.i1075
  %156 = landingpad { ptr, i32 }
          cleanup
  br label %lpad259.body

lpad259.body:                                     ; preds = %_ZZN9__gnu_cxx6__stoaImmcJiEEET0_PFT_PKT1_PPS3_DpT2_EPKcS5_PmS9_EN11_Save_errnoD2Ev.exit.i.i1061, %lpad259
  %eh.lpad-body1072 = phi { ptr, i32 } [ %156, %lpad259 ], [ %150, %_ZZN9__gnu_cxx6__stoaImmcJiEEET0_PFT_PKT1_PPS3_DpT2_EPKcS5_PmS9_EN11_Save_errnoD2Ev.exit.i.i1061 ]
  %157 = load ptr, ptr %ref.tmp255, align 8, !tbaa !26
  %cmp.i.i.i1084 = icmp eq ptr %157, %147
  br i1 %cmp.i.i.i1084, label %ehcleanup264, label %if.then.i.i1085

if.then.i.i1085:                                  ; preds = %lpad259.body
  call void @_ZdlPv(ptr noundef %157) #26
  br label %ehcleanup264

ehcleanup264:                                     ; preds = %if.then.i.i1085, %lpad259.body
  call void @llvm.lifetime.end.p0(i64 32, ptr nonnull %ref.tmp255) #24
  call void @llvm.lifetime.end.p0(i64 8, ptr nonnull %ref.tmp254) #24
  call void @llvm.lifetime.end.p0(i64 8, ptr nonnull %ref.tmp253) #24
  br label %ehcleanup290

if.else273:                                       ; preds = %_ZNSt7__cxx1112basic_stringIcSt11char_traitsIcESaIcEED2Ev.exit1082
  call void @llvm.lifetime.start.p0(i64 8, ptr nonnull %ref.tmp274) #24
  invoke void @_ZN7testing7MessageC1Ev(ptr noundef nonnull align 8 dereferenceable(8) %ref.tmp274)
          to label %invoke.cont276 unwind label %lpad275

invoke.cont276:                                   ; preds = %if.else273
  call void @llvm.lifetime.start.p0(i64 8, ptr nonnull %ref.tmp277) #24
  %message_.i.i1087 = getelementptr inbounds %"class.testing::AssertionResult", ptr %gtest_ar252, i64 0, i32 1
  %158 = load ptr, ptr %message_.i.i1087, align 8, !tbaa !25
  %cmp.not.i.i1088 = icmp eq ptr %158, null
  br i1 %cmp.not.i.i1088, label %invoke.cont279, label %cond.true.i.i1089

cond.true.i.i1089:                                ; preds = %invoke.cont276
  %159 = load ptr, ptr %158, align 8, !tbaa !26
  br label %invoke.cont279

invoke.cont279:                                   ; preds = %cond.true.i.i1089, %invoke.cont276
  %cond.i.i1090 = phi ptr [ %159, %cond.true.i.i1089 ], [ @.str.44, %invoke.cont276 ]
  invoke void @_ZN7testing8internal12AssertHelperC1ENS_14TestPartResult4TypeEPKciS5_(ptr noundef nonnull align 8 dereferenceable(8) %ref.tmp277, i32 noundef 1, ptr noundef nonnull @.str.4, i32 noundef 47, ptr noundef %cond.i.i1090)
          to label %invoke.cont281 unwind label %lpad278

invoke.cont281:                                   ; preds = %invoke.cont279
  invoke void @_ZNK7testing8internal12AssertHelperaSERKNS_7MessageE(ptr noundef nonnull align 8 dereferenceable(8) %ref.tmp277, ptr noundef nonnull align 8 dereferenceable(8) %ref.tmp274)
          to label %invoke.cont283 unwind label %lpad282

invoke.cont283:                                   ; preds = %invoke.cont281
  call void @_ZN7testing8internal12AssertHelperD1Ev(ptr noundef nonnull align 8 dereferenceable(8) %ref.tmp277) #24
  call void @llvm.lifetime.end.p0(i64 8, ptr nonnull %ref.tmp277) #24
  %160 = load ptr, ptr %ref.tmp274, align 8, !tbaa !25
  %cmp.not.i.i1092 = icmp eq ptr %160, null
  br i1 %cmp.not.i.i1092, label %_ZN7testing7MessageD2Ev.exit1096, label %_ZNKSt14default_deleteINSt7__cxx1118basic_stringstreamIcSt11char_traitsIcESaIcEEEEclEPS5_.exit.i.i1095

_ZNKSt14default_deleteINSt7__cxx1118basic_stringstreamIcSt11char_traitsIcESaIcEEEEclEPS5_.exit.i.i1095: ; preds = %invoke.cont283
  %vtable.i.i.i1093 = load ptr, ptr %160, align 8, !tbaa !5
  %vfn.i.i.i1094 = getelementptr inbounds ptr, ptr %vtable.i.i.i1093, i64 1
  %161 = load ptr, ptr %vfn.i.i.i1094, align 8
  call void %161(ptr noundef nonnull align 8 dereferenceable(128) %160) #24
  br label %_ZN7testing7MessageD2Ev.exit1096

_ZN7testing7MessageD2Ev.exit1096:                 ; preds = %invoke.cont283, %_ZNKSt14default_deleteINSt7__cxx1118basic_stringstreamIcSt11char_traitsIcESaIcEEEEclEPS5_.exit.i.i1095
  call void @llvm.lifetime.end.p0(i64 8, ptr nonnull %ref.tmp274) #24
  br label %if.end288

lpad275:                                          ; preds = %if.else273
  %162 = landingpad { ptr, i32 }
          cleanup
  br label %ehcleanup287

lpad278:                                          ; preds = %invoke.cont279
  %163 = landingpad { ptr, i32 }
          cleanup
  br label %ehcleanup285

lpad282:                                          ; preds = %invoke.cont281
  %164 = landingpad { ptr, i32 }
          cleanup
  call void @_ZN7testing8internal12AssertHelperD1Ev(ptr noundef nonnull align 8 dereferenceable(8) %ref.tmp277) #24
  br label %ehcleanup285

ehcleanup285:                                     ; preds = %lpad282, %lpad278
  %.pn650 = phi { ptr, i32 } [ %164, %lpad282 ], [ %163, %lpad278 ]
  call void @llvm.lifetime.end.p0(i64 8, ptr nonnull %ref.tmp277) #24
  %165 = load ptr, ptr %ref.tmp274, align 8, !tbaa !25
  %cmp.not.i.i1097 = icmp eq ptr %165, null
  br i1 %cmp.not.i.i1097, label %ehcleanup287, label %_ZNKSt14default_deleteINSt7__cxx1118basic_stringstreamIcSt11char_traitsIcESaIcEEEEclEPS5_.exit.i.i1100

_ZNKSt14default_deleteINSt7__cxx1118basic_stringstreamIcSt11char_traitsIcESaIcEEEEclEPS5_.exit.i.i1100: ; preds = %ehcleanup285
  %vtable.i.i.i1098 = load ptr, ptr %165, align 8, !tbaa !5
  %vfn.i.i.i1099 = getelementptr inbounds ptr, ptr %vtable.i.i.i1098, i64 1
  %166 = load ptr, ptr %vfn.i.i.i1099, align 8
  call void %166(ptr noundef nonnull align 8 dereferenceable(128) %165) #24
  br label %ehcleanup287

ehcleanup287:                                     ; preds = %_ZNKSt14default_deleteINSt7__cxx1118basic_stringstreamIcSt11char_traitsIcESaIcEEEEclEPS5_.exit.i.i1100, %ehcleanup285, %lpad275
  %.pn650.pn = phi { ptr, i32 } [ %162, %lpad275 ], [ %.pn650, %ehcleanup285 ], [ %.pn650, %_ZNKSt14default_deleteINSt7__cxx1118basic_stringstreamIcSt11char_traitsIcESaIcEEEEclEPS5_.exit.i.i1100 ]
  call void @llvm.lifetime.end.p0(i64 8, ptr nonnull %ref.tmp274) #24
  call void @_ZN7testing15AssertionResultD2Ev(ptr noundef nonnull align 8 dereferenceable(16) %gtest_ar252) #24
  br label %ehcleanup290

if.end288:                                        ; preds = %_ZNSt7__cxx1112basic_stringIcSt11char_traitsIcESaIcEED2Ev.exit1082, %_ZN7testing7MessageD2Ev.exit1096
  %message_.i1102 = getelementptr inbounds %"class.testing::AssertionResult", ptr %gtest_ar252, i64 0, i32 1
  %167 = load ptr, ptr %message_.i1102, align 8, !tbaa !25
  %cmp.not.i.i1103 = icmp eq ptr %167, null
  br i1 %cmp.not.i.i1103, label %_ZN7testing15AssertionResultD2Ev.exit1108, label %delete.notnull.i.i.i1105

delete.notnull.i.i.i1105:                         ; preds = %if.end288
  %168 = load ptr, ptr %167, align 8, !tbaa !26
  %169 = getelementptr inbounds %"class.std::__cxx11::basic_string", ptr %167, i64 0, i32 2
  %cmp.i.i.i.i.i.i1104 = icmp eq ptr %168, %169
  br i1 %cmp.i.i.i.i.i.i1104, label %_ZNKSt14default_deleteINSt7__cxx1112basic_stringIcSt11char_traitsIcESaIcEEEEclEPS5_.exit.i.i1107, label %if.then.i.i.i.i.i1106

if.then.i.i.i.i.i1106:                            ; preds = %delete.notnull.i.i.i1105
  call void @_ZdlPv(ptr noundef %168) #26
  br label %_ZNKSt14default_deleteINSt7__cxx1112basic_stringIcSt11char_traitsIcESaIcEEEEclEPS5_.exit.i.i1107

_ZNKSt14default_deleteINSt7__cxx1112basic_stringIcSt11char_traitsIcESaIcEEEEclEPS5_.exit.i.i1107: ; preds = %if.then.i.i.i.i.i1106, %delete.notnull.i.i.i1105
  call void @_ZdlPv(ptr noundef nonnull %167) #26
  br label %_ZN7testing15AssertionResultD2Ev.exit1108

_ZN7testing15AssertionResultD2Ev.exit1108:        ; preds = %if.end288, %_ZNKSt14default_deleteINSt7__cxx1112basic_stringIcSt11char_traitsIcESaIcEEEEclEPS5_.exit.i.i1107
  call void @llvm.lifetime.end.p0(i64 16, ptr nonnull %gtest_ar252) #24
  call void @llvm.lifetime.start.p0(i64 16, ptr nonnull %gtest_ar291) #24
  call void @llvm.lifetime.start.p0(i64 8, ptr nonnull %ref.tmp292) #24
  store i64 4, ptr %ref.tmp292, align 8, !tbaa !18
  %170 = load i64, ptr %pos251, align 8, !tbaa !18, !noalias !78
  %cmp.i.i1109 = icmp eq i64 %170, 4
  br i1 %cmp.i.i1109, label %if.then.i.i1110, label %if.end.i.i1111

if.then.i.i1110:                                  ; preds = %_ZN7testing15AssertionResultD2Ev.exit1108
  call void @_ZN7testing16AssertionSuccessEv(ptr nonnull sret(%"class.testing::AssertionResult") align 8 %gtest_ar291)
  br label %_ZN7testing8internal8EqHelper7CompareImmLPv0EEENS_15AssertionResultEPKcS6_RKT_RKT0_.exit1112

if.end.i.i1111:                                   ; preds = %_ZN7testing15AssertionResultD2Ev.exit1108
  call void @_ZN7testing8internal18CmpHelperEQFailureImmEENS_15AssertionResultEPKcS4_RKT_RKT0_(ptr nonnull sret(%"class.testing::AssertionResult") align 8 %gtest_ar291, ptr noundef nonnull @.str.26, ptr noundef nonnull @.str.15, ptr noundef nonnull align 8 dereferenceable(8) %ref.tmp292, ptr noundef nonnull align 8 dereferenceable(8) %pos251)
  br label %_ZN7testing8internal8EqHelper7CompareImmLPv0EEENS_15AssertionResultEPKcS6_RKT_RKT0_.exit1112

_ZN7testing8internal8EqHelper7CompareImmLPv0EEENS_15AssertionResultEPKcS6_RKT_RKT0_.exit1112: ; preds = %if.then.i.i1110, %if.end.i.i1111
  call void @llvm.lifetime.end.p0(i64 8, ptr nonnull %ref.tmp292) #24
  %171 = load i8, ptr %gtest_ar291, align 8, !tbaa !27, !range !36, !noundef !37
  %tobool.i1113.not = icmp eq i8 %171, 0
  br i1 %tobool.i1113.not, label %if.else297, label %if.end312

ehcleanup290:                                     ; preds = %ehcleanup287, %ehcleanup264
  %.pn650.pn.pn = phi { ptr, i32 } [ %.pn650.pn, %ehcleanup287 ], [ %eh.lpad-body1072, %ehcleanup264 ]
  call void @llvm.lifetime.end.p0(i64 16, ptr nonnull %gtest_ar252) #24
  br label %ehcleanup315

if.else297:                                       ; preds = %_ZN7testing8internal8EqHelper7CompareImmLPv0EEENS_15AssertionResultEPKcS6_RKT_RKT0_.exit1112
  call void @llvm.lifetime.start.p0(i64 8, ptr nonnull %ref.tmp298) #24
  invoke void @_ZN7testing7MessageC1Ev(ptr noundef nonnull align 8 dereferenceable(8) %ref.tmp298)
          to label %invoke.cont300 unwind label %lpad299

invoke.cont300:                                   ; preds = %if.else297
  call void @llvm.lifetime.start.p0(i64 8, ptr nonnull %ref.tmp301) #24
  %message_.i.i1114 = getelementptr inbounds %"class.testing::AssertionResult", ptr %gtest_ar291, i64 0, i32 1
  %172 = load ptr, ptr %message_.i.i1114, align 8, !tbaa !25
  %cmp.not.i.i1115 = icmp eq ptr %172, null
  br i1 %cmp.not.i.i1115, label %invoke.cont303, label %cond.true.i.i1116

cond.true.i.i1116:                                ; preds = %invoke.cont300
  %173 = load ptr, ptr %172, align 8, !tbaa !26
  br label %invoke.cont303

invoke.cont303:                                   ; preds = %cond.true.i.i1116, %invoke.cont300
  %cond.i.i1117 = phi ptr [ %173, %cond.true.i.i1116 ], [ @.str.44, %invoke.cont300 ]
  invoke void @_ZN7testing8internal12AssertHelperC1ENS_14TestPartResult4TypeEPKciS5_(ptr noundef nonnull align 8 dereferenceable(8) %ref.tmp301, i32 noundef 1, ptr noundef nonnull @.str.4, i32 noundef 48, ptr noundef %cond.i.i1117)
          to label %invoke.cont305 unwind label %lpad302

invoke.cont305:                                   ; preds = %invoke.cont303
  invoke void @_ZNK7testing8internal12AssertHelperaSERKNS_7MessageE(ptr noundef nonnull align 8 dereferenceable(8) %ref.tmp301, ptr noundef nonnull align 8 dereferenceable(8) %ref.tmp298)
          to label %invoke.cont307 unwind label %lpad306

invoke.cont307:                                   ; preds = %invoke.cont305
  call void @_ZN7testing8internal12AssertHelperD1Ev(ptr noundef nonnull align 8 dereferenceable(8) %ref.tmp301) #24
  call void @llvm.lifetime.end.p0(i64 8, ptr nonnull %ref.tmp301) #24
  %174 = load ptr, ptr %ref.tmp298, align 8, !tbaa !25
  %cmp.not.i.i1119 = icmp eq ptr %174, null
  br i1 %cmp.not.i.i1119, label %_ZN7testing7MessageD2Ev.exit1123, label %_ZNKSt14default_deleteINSt7__cxx1118basic_stringstreamIcSt11char_traitsIcESaIcEEEEclEPS5_.exit.i.i1122

_ZNKSt14default_deleteINSt7__cxx1118basic_stringstreamIcSt11char_traitsIcESaIcEEEEclEPS5_.exit.i.i1122: ; preds = %invoke.cont307
  %vtable.i.i.i1120 = load ptr, ptr %174, align 8, !tbaa !5
  %vfn.i.i.i1121 = getelementptr inbounds ptr, ptr %vtable.i.i.i1120, i64 1
  %175 = load ptr, ptr %vfn.i.i.i1121, align 8
  call void %175(ptr noundef nonnull align 8 dereferenceable(128) %174) #24
  br label %_ZN7testing7MessageD2Ev.exit1123

_ZN7testing7MessageD2Ev.exit1123:                 ; preds = %invoke.cont307, %_ZNKSt14default_deleteINSt7__cxx1118basic_stringstreamIcSt11char_traitsIcESaIcEEEEclEPS5_.exit.i.i1122
  call void @llvm.lifetime.end.p0(i64 8, ptr nonnull %ref.tmp298) #24
  br label %if.end312

lpad299:                                          ; preds = %if.else297
  %176 = landingpad { ptr, i32 }
          cleanup
  br label %ehcleanup311

lpad302:                                          ; preds = %invoke.cont303
  %177 = landingpad { ptr, i32 }
          cleanup
  br label %ehcleanup309

lpad306:                                          ; preds = %invoke.cont305
  %178 = landingpad { ptr, i32 }
          cleanup
  call void @_ZN7testing8internal12AssertHelperD1Ev(ptr noundef nonnull align 8 dereferenceable(8) %ref.tmp301) #24
  br label %ehcleanup309

ehcleanup309:                                     ; preds = %lpad306, %lpad302
  %.pn654 = phi { ptr, i32 } [ %178, %lpad306 ], [ %177, %lpad302 ]
  call void @llvm.lifetime.end.p0(i64 8, ptr nonnull %ref.tmp301) #24
  %179 = load ptr, ptr %ref.tmp298, align 8, !tbaa !25
  %cmp.not.i.i1124 = icmp eq ptr %179, null
  br i1 %cmp.not.i.i1124, label %ehcleanup311, label %_ZNKSt14default_deleteINSt7__cxx1118basic_stringstreamIcSt11char_traitsIcESaIcEEEEclEPS5_.exit.i.i1127

_ZNKSt14default_deleteINSt7__cxx1118basic_stringstreamIcSt11char_traitsIcESaIcEEEEclEPS5_.exit.i.i1127: ; preds = %ehcleanup309
  %vtable.i.i.i1125 = load ptr, ptr %179, align 8, !tbaa !5
  %vfn.i.i.i1126 = getelementptr inbounds ptr, ptr %vtable.i.i.i1125, i64 1
  %180 = load ptr, ptr %vfn.i.i.i1126, align 8
  call void %180(ptr noundef nonnull align 8 dereferenceable(128) %179) #24
  br label %ehcleanup311

ehcleanup311:                                     ; preds = %_ZNKSt14default_deleteINSt7__cxx1118basic_stringstreamIcSt11char_traitsIcESaIcEEEEclEPS5_.exit.i.i1127, %ehcleanup309, %lpad299
  %.pn654.pn = phi { ptr, i32 } [ %176, %lpad299 ], [ %.pn654, %ehcleanup309 ], [ %.pn654, %_ZNKSt14default_deleteINSt7__cxx1118basic_stringstreamIcSt11char_traitsIcESaIcEEEEclEPS5_.exit.i.i1127 ]
  call void @llvm.lifetime.end.p0(i64 8, ptr nonnull %ref.tmp298) #24
  call void @_ZN7testing15AssertionResultD2Ev(ptr noundef nonnull align 8 dereferenceable(16) %gtest_ar291) #24
  call void @llvm.lifetime.end.p0(i64 16, ptr nonnull %gtest_ar291) #24
  br label %ehcleanup315

if.end312:                                        ; preds = %_ZN7testing8internal8EqHelper7CompareImmLPv0EEENS_15AssertionResultEPKcS6_RKT_RKT0_.exit1112, %_ZN7testing7MessageD2Ev.exit1123
  %message_.i1129 = getelementptr inbounds %"class.testing::AssertionResult", ptr %gtest_ar291, i64 0, i32 1
  %181 = load ptr, ptr %message_.i1129, align 8, !tbaa !25
  %cmp.not.i.i1130 = icmp eq ptr %181, null
  br i1 %cmp.not.i.i1130, label %_ZN7testing15AssertionResultD2Ev.exit1135, label %delete.notnull.i.i.i1132

delete.notnull.i.i.i1132:                         ; preds = %if.end312
  %182 = load ptr, ptr %181, align 8, !tbaa !26
  %183 = getelementptr inbounds %"class.std::__cxx11::basic_string", ptr %181, i64 0, i32 2
  %cmp.i.i.i.i.i.i1131 = icmp eq ptr %182, %183
  br i1 %cmp.i.i.i.i.i.i1131, label %_ZNKSt14default_deleteINSt7__cxx1112basic_stringIcSt11char_traitsIcESaIcEEEEclEPS5_.exit.i.i1134, label %if.then.i.i.i.i.i1133

if.then.i.i.i.i.i1133:                            ; preds = %delete.notnull.i.i.i1132
  call void @_ZdlPv(ptr noundef %182) #26
  br label %_ZNKSt14default_deleteINSt7__cxx1112basic_stringIcSt11char_traitsIcESaIcEEEEclEPS5_.exit.i.i1134

_ZNKSt14default_deleteINSt7__cxx1112basic_stringIcSt11char_traitsIcESaIcEEEEclEPS5_.exit.i.i1134: ; preds = %if.then.i.i.i.i.i1133, %delete.notnull.i.i.i1132
  call void @_ZdlPv(ptr noundef nonnull %181) #26
  br label %_ZN7testing15AssertionResultD2Ev.exit1135

_ZN7testing15AssertionResultD2Ev.exit1135:        ; preds = %if.end312, %_ZNKSt14default_deleteINSt7__cxx1112basic_stringIcSt11char_traitsIcESaIcEEEEclEPS5_.exit.i.i1134
  call void @llvm.lifetime.end.p0(i64 16, ptr nonnull %gtest_ar291) #24
  call void @llvm.lifetime.end.p0(i64 8, ptr nonnull %pos251) #24
  call void @llvm.lifetime.start.p0(i64 8, ptr nonnull %pos316) #24
  store i64 0, ptr %pos316, align 8, !tbaa !18
  call void @llvm.lifetime.start.p0(i64 16, ptr nonnull %gtest_ar317) #24
  call void @llvm.lifetime.start.p0(i64 8, ptr nonnull %ref.tmp318) #24
  store i64 1010, ptr %ref.tmp318, align 8, !tbaa !18
  call void @llvm.lifetime.start.p0(i64 8, ptr nonnull %ref.tmp319) #24
  call void @llvm.lifetime.start.p0(i64 32, ptr nonnull %ref.tmp320) #24
  %184 = getelementptr inbounds %"class.std::__cxx11::basic_string", ptr %ref.tmp320, i64 0, i32 2
  store ptr %184, ptr %ref.tmp320, align 8, !tbaa !19
  store i32 808529969, ptr %184, align 8
  %_M_string_length.i.i.i.i1143 = getelementptr inbounds %"class.std::__cxx11::basic_string", ptr %ref.tmp320, i64 0, i32 1
  store i64 4, ptr %_M_string_length.i.i.i.i1143, align 8, !tbaa !22
  %arrayidx.i.i.i1144 = getelementptr inbounds i8, ptr %ref.tmp320, i64 20
  store i8 0, ptr %arrayidx.i.i.i1144, align 4, !tbaa !21
  call void @llvm.lifetime.start.p0(i64 8, ptr nonnull %__endptr.i.i1148) #24
  %185 = load i32, ptr %call.i.i.i, align 4, !tbaa !24
  store i32 0, ptr %call.i.i.i, align 4, !tbaa !24
  %call.i.i1150 = call noundef i64 @strtoul(ptr noundef nonnull %184, ptr noundef nonnull %__endptr.i.i1148, i32 noundef 10)
  %186 = load ptr, ptr %__endptr.i.i1148, align 8, !tbaa !25
  %cmp.i.i1151 = icmp eq ptr %186, %184
  br i1 %cmp.i.i1151, label %if.then.i.i1152, label %if.else.i.i1159

if.then.i.i1152:                                  ; preds = %_ZN7testing15AssertionResultD2Ev.exit1135
  invoke void @_ZSt24__throw_invalid_argumentPKc(ptr noundef nonnull @.str.3) #29
          to label %invoke.cont1.i.i1153 unwind label %lpad.i.i1155

invoke.cont1.i.i1153:                             ; preds = %if.then.i.i1152
  unreachable

lpad.i.i1155:                                     ; preds = %if.then7.i.i1160, %if.then.i.i1152
  %187 = landingpad { ptr, i32 }
          cleanup
  %188 = load i32, ptr %call.i.i.i, align 4, !tbaa !24
  %cmp.i.i.i1154 = icmp eq i32 %188, 0
  br i1 %cmp.i.i.i1154, label %if.then.i.i.i1156, label %_ZZN9__gnu_cxx6__stoaImmcJiEEET0_PFT_PKT1_PPS3_DpT2_EPKcS5_PmS9_EN11_Save_errnoD2Ev.exit.i.i1157

if.then.i.i.i1156:                                ; preds = %lpad.i.i1155
  store i32 %185, ptr %call.i.i.i, align 4, !tbaa !24
  br label %_ZZN9__gnu_cxx6__stoaImmcJiEEET0_PFT_PKT1_PPS3_DpT2_EPKcS5_PmS9_EN11_Save_errnoD2Ev.exit.i.i1157

_ZZN9__gnu_cxx6__stoaImmcJiEEET0_PFT_PKT1_PPS3_DpT2_EPKcS5_PmS9_EN11_Save_errnoD2Ev.exit.i.i1157: ; preds = %if.then.i.i.i1156, %lpad.i.i1155
  call void @llvm.lifetime.end.p0(i64 8, ptr nonnull %__endptr.i.i1148) #24
  br label %lpad324.body

if.else.i.i1159:                                  ; preds = %_ZN7testing15AssertionResultD2Ev.exit1135
  %189 = load i32, ptr %call.i.i.i, align 4, !tbaa !24
  %cmp3.i.i1158 = icmp eq i32 %189, 34
  br i1 %cmp3.i.i1158, label %if.then7.i.i1160, label %if.else9.i.i1162

if.then7.i.i1160:                                 ; preds = %if.else.i.i1159
  invoke void @_ZSt20__throw_out_of_rangePKc(ptr noundef nonnull @.str.3) #29
          to label %invoke.cont8.i.i1161 unwind label %lpad.i.i1155

invoke.cont8.i.i1161:                             ; preds = %if.then7.i.i1160
  unreachable

if.else9.i.i1162:                                 ; preds = %if.else.i.i1159
  %sub.ptr.lhs.cast.i.i1163 = ptrtoint ptr %186 to i64
  %sub.ptr.rhs.cast.i.i1164 = ptrtoint ptr %184 to i64
  %sub.ptr.sub.i.i1165 = sub i64 %sub.ptr.lhs.cast.i.i1163, %sub.ptr.rhs.cast.i.i1164
  store i64 %sub.ptr.sub.i.i1165, ptr %pos316, align 8, !tbaa !18
  %cmp.i25.i.i1166 = icmp eq i32 %189, 0
  br i1 %cmp.i25.i.i1166, label %if.then.i26.i.i1167, label %invoke.cont325

if.then.i26.i.i1167:                              ; preds = %if.else9.i.i1162
  store i32 %185, ptr %call.i.i.i, align 4, !tbaa !24
  br label %invoke.cont325

invoke.cont325:                                   ; preds = %if.then.i26.i.i1167, %if.else9.i.i1162
  call void @llvm.lifetime.end.p0(i64 8, ptr nonnull %__endptr.i.i1148) #24
  store i64 %call.i.i1150, ptr %ref.tmp319, align 8, !tbaa !18
  %190 = load i64, ptr %ref.tmp318, align 8, !tbaa !18, !noalias !83
  %cmp.i.i1170 = icmp eq i64 %190, %call.i.i1150
  br i1 %cmp.i.i1170, label %if.then.i.i1171, label %if.end.i.i1172

if.then.i.i1171:                                  ; preds = %invoke.cont325
  invoke void @_ZN7testing16AssertionSuccessEv(ptr nonnull sret(%"class.testing::AssertionResult") align 8 %gtest_ar317)
          to label %invoke.cont327 unwind label %lpad324

if.end.i.i1172:                                   ; preds = %invoke.cont325
  invoke void @_ZN7testing8internal18CmpHelperEQFailureImmEENS_15AssertionResultEPKcS4_RKT_RKT0_(ptr nonnull sret(%"class.testing::AssertionResult") align 8 %gtest_ar317, ptr noundef nonnull @.str.29, ptr noundef nonnull @.str.30, ptr noundef nonnull align 8 dereferenceable(8) %ref.tmp318, ptr noundef nonnull align 8 dereferenceable(8) %ref.tmp319)
          to label %invoke.cont327 unwind label %lpad324

invoke.cont327:                                   ; preds = %if.then.i.i1171, %if.end.i.i1172
  %191 = load ptr, ptr %ref.tmp320, align 8, !tbaa !26
  %cmp.i.i.i1176 = icmp eq ptr %191, %184
  br i1 %cmp.i.i.i1176, label %_ZNSt7__cxx1112basic_stringIcSt11char_traitsIcESaIcEED2Ev.exit1178, label %if.then.i.i1177

if.then.i.i1177:                                  ; preds = %invoke.cont327
  call void @_ZdlPv(ptr noundef %191) #26
  br label %_ZNSt7__cxx1112basic_stringIcSt11char_traitsIcESaIcEED2Ev.exit1178

_ZNSt7__cxx1112basic_stringIcSt11char_traitsIcESaIcEED2Ev.exit1178: ; preds = %invoke.cont327, %if.then.i.i1177
  call void @llvm.lifetime.end.p0(i64 32, ptr nonnull %ref.tmp320) #24
  call void @llvm.lifetime.end.p0(i64 8, ptr nonnull %ref.tmp319) #24
  call void @llvm.lifetime.end.p0(i64 8, ptr nonnull %ref.tmp318) #24
  %192 = load i8, ptr %gtest_ar317, align 8, !tbaa !27, !range !36, !noundef !37
  %tobool.i1179.not = icmp eq i8 %192, 0
  br i1 %tobool.i1179.not, label %if.else338, label %if.end353

ehcleanup315:                                     ; preds = %ehcleanup311, %ehcleanup290
  %.pn654.pn.pn = phi { ptr, i32 } [ %.pn654.pn, %ehcleanup311 ], [ %.pn650.pn.pn, %ehcleanup290 ]
  call void @llvm.lifetime.end.p0(i64 8, ptr nonnull %pos251) #24
  br label %eh.resume

lpad324:                                          ; preds = %if.end.i.i1172, %if.then.i.i1171
  %193 = landingpad { ptr, i32 }
          cleanup
  br label %lpad324.body

lpad324.body:                                     ; preds = %_ZZN9__gnu_cxx6__stoaImmcJiEEET0_PFT_PKT1_PPS3_DpT2_EPKcS5_PmS9_EN11_Save_errnoD2Ev.exit.i.i1157, %lpad324
  %eh.lpad-body1168 = phi { ptr, i32 } [ %193, %lpad324 ], [ %187, %_ZZN9__gnu_cxx6__stoaImmcJiEEET0_PFT_PKT1_PPS3_DpT2_EPKcS5_PmS9_EN11_Save_errnoD2Ev.exit.i.i1157 ]
  %194 = load ptr, ptr %ref.tmp320, align 8, !tbaa !26
  %cmp.i.i.i1180 = icmp eq ptr %194, %184
  br i1 %cmp.i.i.i1180, label %ehcleanup329, label %if.then.i.i1181

if.then.i.i1181:                                  ; preds = %lpad324.body
  call void @_ZdlPv(ptr noundef %194) #26
  br label %ehcleanup329

ehcleanup329:                                     ; preds = %if.then.i.i1181, %lpad324.body
  call void @llvm.lifetime.end.p0(i64 32, ptr nonnull %ref.tmp320) #24
  call void @llvm.lifetime.end.p0(i64 8, ptr nonnull %ref.tmp319) #24
  call void @llvm.lifetime.end.p0(i64 8, ptr nonnull %ref.tmp318) #24
  br label %ehcleanup355

if.else338:                                       ; preds = %_ZNSt7__cxx1112basic_stringIcSt11char_traitsIcESaIcEED2Ev.exit1178
  call void @llvm.lifetime.start.p0(i64 8, ptr nonnull %ref.tmp339) #24
  invoke void @_ZN7testing7MessageC1Ev(ptr noundef nonnull align 8 dereferenceable(8) %ref.tmp339)
          to label %invoke.cont341 unwind label %lpad340

invoke.cont341:                                   ; preds = %if.else338
  call void @llvm.lifetime.start.p0(i64 8, ptr nonnull %ref.tmp342) #24
  %message_.i.i1183 = getelementptr inbounds %"class.testing::AssertionResult", ptr %gtest_ar317, i64 0, i32 1
  %195 = load ptr, ptr %message_.i.i1183, align 8, !tbaa !25
  %cmp.not.i.i1184 = icmp eq ptr %195, null
  br i1 %cmp.not.i.i1184, label %invoke.cont344, label %cond.true.i.i1185

cond.true.i.i1185:                                ; preds = %invoke.cont341
  %196 = load ptr, ptr %195, align 8, !tbaa !26
  br label %invoke.cont344

invoke.cont344:                                   ; preds = %cond.true.i.i1185, %invoke.cont341
  %cond.i.i1186 = phi ptr [ %196, %cond.true.i.i1185 ], [ @.str.44, %invoke.cont341 ]
  invoke void @_ZN7testing8internal12AssertHelperC1ENS_14TestPartResult4TypeEPKciS5_(ptr noundef nonnull align 8 dereferenceable(8) %ref.tmp342, i32 noundef 1, ptr noundef nonnull @.str.4, i32 noundef 52, ptr noundef %cond.i.i1186)
          to label %invoke.cont346 unwind label %lpad343

invoke.cont346:                                   ; preds = %invoke.cont344
  invoke void @_ZNK7testing8internal12AssertHelperaSERKNS_7MessageE(ptr noundef nonnull align 8 dereferenceable(8) %ref.tmp342, ptr noundef nonnull align 8 dereferenceable(8) %ref.tmp339)
          to label %invoke.cont348 unwind label %lpad347

invoke.cont348:                                   ; preds = %invoke.cont346
  call void @_ZN7testing8internal12AssertHelperD1Ev(ptr noundef nonnull align 8 dereferenceable(8) %ref.tmp342) #24
  call void @llvm.lifetime.end.p0(i64 8, ptr nonnull %ref.tmp342) #24
  %197 = load ptr, ptr %ref.tmp339, align 8, !tbaa !25
  %cmp.not.i.i1188 = icmp eq ptr %197, null
  br i1 %cmp.not.i.i1188, label %_ZN7testing7MessageD2Ev.exit1192, label %_ZNKSt14default_deleteINSt7__cxx1118basic_stringstreamIcSt11char_traitsIcESaIcEEEEclEPS5_.exit.i.i1191

_ZNKSt14default_deleteINSt7__cxx1118basic_stringstreamIcSt11char_traitsIcESaIcEEEEclEPS5_.exit.i.i1191: ; preds = %invoke.cont348
  %vtable.i.i.i1189 = load ptr, ptr %197, align 8, !tbaa !5
  %vfn.i.i.i1190 = getelementptr inbounds ptr, ptr %vtable.i.i.i1189, i64 1
  %198 = load ptr, ptr %vfn.i.i.i1190, align 8
  call void %198(ptr noundef nonnull align 8 dereferenceable(128) %197) #24
  br label %_ZN7testing7MessageD2Ev.exit1192

_ZN7testing7MessageD2Ev.exit1192:                 ; preds = %invoke.cont348, %_ZNKSt14default_deleteINSt7__cxx1118basic_stringstreamIcSt11char_traitsIcESaIcEEEEclEPS5_.exit.i.i1191
  call void @llvm.lifetime.end.p0(i64 8, ptr nonnull %ref.tmp339) #24
  br label %if.end353

lpad340:                                          ; preds = %if.else338
  %199 = landingpad { ptr, i32 }
          cleanup
  br label %ehcleanup352

lpad343:                                          ; preds = %invoke.cont344
  %200 = landingpad { ptr, i32 }
          cleanup
  br label %ehcleanup350

lpad347:                                          ; preds = %invoke.cont346
  %201 = landingpad { ptr, i32 }
          cleanup
  call void @_ZN7testing8internal12AssertHelperD1Ev(ptr noundef nonnull align 8 dereferenceable(8) %ref.tmp342) #24
  br label %ehcleanup350

ehcleanup350:                                     ; preds = %lpad347, %lpad343
  %.pn660 = phi { ptr, i32 } [ %201, %lpad347 ], [ %200, %lpad343 ]
  call void @llvm.lifetime.end.p0(i64 8, ptr nonnull %ref.tmp342) #24
  %202 = load ptr, ptr %ref.tmp339, align 8, !tbaa !25
  %cmp.not.i.i1193 = icmp eq ptr %202, null
  br i1 %cmp.not.i.i1193, label %ehcleanup352, label %_ZNKSt14default_deleteINSt7__cxx1118basic_stringstreamIcSt11char_traitsIcESaIcEEEEclEPS5_.exit.i.i1196

_ZNKSt14default_deleteINSt7__cxx1118basic_stringstreamIcSt11char_traitsIcESaIcEEEEclEPS5_.exit.i.i1196: ; preds = %ehcleanup350
  %vtable.i.i.i1194 = load ptr, ptr %202, align 8, !tbaa !5
  %vfn.i.i.i1195 = getelementptr inbounds ptr, ptr %vtable.i.i.i1194, i64 1
  %203 = load ptr, ptr %vfn.i.i.i1195, align 8
  call void %203(ptr noundef nonnull align 8 dereferenceable(128) %202) #24
  br label %ehcleanup352

ehcleanup352:                                     ; preds = %_ZNKSt14default_deleteINSt7__cxx1118basic_stringstreamIcSt11char_traitsIcESaIcEEEEclEPS5_.exit.i.i1196, %ehcleanup350, %lpad340
  %.pn660.pn = phi { ptr, i32 } [ %199, %lpad340 ], [ %.pn660, %ehcleanup350 ], [ %.pn660, %_ZNKSt14default_deleteINSt7__cxx1118basic_stringstreamIcSt11char_traitsIcESaIcEEEEclEPS5_.exit.i.i1196 ]
  call void @llvm.lifetime.end.p0(i64 8, ptr nonnull %ref.tmp339) #24
  call void @_ZN7testing15AssertionResultD2Ev(ptr noundef nonnull align 8 dereferenceable(16) %gtest_ar317) #24
  br label %ehcleanup355

if.end353:                                        ; preds = %_ZNSt7__cxx1112basic_stringIcSt11char_traitsIcESaIcEED2Ev.exit1178, %_ZN7testing7MessageD2Ev.exit1192
  %message_.i1198 = getelementptr inbounds %"class.testing::AssertionResult", ptr %gtest_ar317, i64 0, i32 1
  %204 = load ptr, ptr %message_.i1198, align 8, !tbaa !25
  %cmp.not.i.i1199 = icmp eq ptr %204, null
  br i1 %cmp.not.i.i1199, label %_ZN7testing15AssertionResultD2Ev.exit1204, label %delete.notnull.i.i.i1201

delete.notnull.i.i.i1201:                         ; preds = %if.end353
  %205 = load ptr, ptr %204, align 8, !tbaa !26
  %206 = getelementptr inbounds %"class.std::__cxx11::basic_string", ptr %204, i64 0, i32 2
  %cmp.i.i.i.i.i.i1200 = icmp eq ptr %205, %206
  br i1 %cmp.i.i.i.i.i.i1200, label %_ZNKSt14default_deleteINSt7__cxx1112basic_stringIcSt11char_traitsIcESaIcEEEEclEPS5_.exit.i.i1203, label %if.then.i.i.i.i.i1202

if.then.i.i.i.i.i1202:                            ; preds = %delete.notnull.i.i.i1201
  call void @_ZdlPv(ptr noundef %205) #26
  br label %_ZNKSt14default_deleteINSt7__cxx1112basic_stringIcSt11char_traitsIcESaIcEEEEclEPS5_.exit.i.i1203

_ZNKSt14default_deleteINSt7__cxx1112basic_stringIcSt11char_traitsIcESaIcEEEEclEPS5_.exit.i.i1203: ; preds = %if.then.i.i.i.i.i1202, %delete.notnull.i.i.i1201
  call void @_ZdlPv(ptr noundef nonnull %204) #26
  br label %_ZN7testing15AssertionResultD2Ev.exit1204

_ZN7testing15AssertionResultD2Ev.exit1204:        ; preds = %if.end353, %_ZNKSt14default_deleteINSt7__cxx1112basic_stringIcSt11char_traitsIcESaIcEEEEclEPS5_.exit.i.i1203
  call void @llvm.lifetime.end.p0(i64 16, ptr nonnull %gtest_ar317) #24
  call void @llvm.lifetime.start.p0(i64 16, ptr nonnull %gtest_ar356) #24
  call void @llvm.lifetime.start.p0(i64 8, ptr nonnull %ref.tmp357) #24
  store i64 4, ptr %ref.tmp357, align 8, !tbaa !18
  %207 = load i64, ptr %pos316, align 8, !tbaa !18, !noalias !88
  %cmp.i.i1205 = icmp eq i64 %207, 4
  br i1 %cmp.i.i1205, label %if.then.i.i1206, label %if.end.i.i1207

if.then.i.i1206:                                  ; preds = %_ZN7testing15AssertionResultD2Ev.exit1204
  call void @_ZN7testing16AssertionSuccessEv(ptr nonnull sret(%"class.testing::AssertionResult") align 8 %gtest_ar356)
  br label %_ZN7testing8internal8EqHelper7CompareImmLPv0EEENS_15AssertionResultEPKcS6_RKT_RKT0_.exit1208

if.end.i.i1207:                                   ; preds = %_ZN7testing15AssertionResultD2Ev.exit1204
  call void @_ZN7testing8internal18CmpHelperEQFailureImmEENS_15AssertionResultEPKcS4_RKT_RKT0_(ptr nonnull sret(%"class.testing::AssertionResult") align 8 %gtest_ar356, ptr noundef nonnull @.str.26, ptr noundef nonnull @.str.15, ptr noundef nonnull align 8 dereferenceable(8) %ref.tmp357, ptr noundef nonnull align 8 dereferenceable(8) %pos316)
  br label %_ZN7testing8internal8EqHelper7CompareImmLPv0EEENS_15AssertionResultEPKcS6_RKT_RKT0_.exit1208

_ZN7testing8internal8EqHelper7CompareImmLPv0EEENS_15AssertionResultEPKcS6_RKT_RKT0_.exit1208: ; preds = %if.then.i.i1206, %if.end.i.i1207
  call void @llvm.lifetime.end.p0(i64 8, ptr nonnull %ref.tmp357) #24
  %208 = load i8, ptr %gtest_ar356, align 8, !tbaa !27, !range !36, !noundef !37
  %tobool.i1209.not = icmp eq i8 %208, 0
  br i1 %tobool.i1209.not, label %if.else362, label %if.end377

ehcleanup355:                                     ; preds = %ehcleanup352, %ehcleanup329
  %.pn660.pn.pn = phi { ptr, i32 } [ %.pn660.pn, %ehcleanup352 ], [ %eh.lpad-body1168, %ehcleanup329 ]
  call void @llvm.lifetime.end.p0(i64 16, ptr nonnull %gtest_ar317) #24
  br label %ehcleanup380

if.else362:                                       ; preds = %_ZN7testing8internal8EqHelper7CompareImmLPv0EEENS_15AssertionResultEPKcS6_RKT_RKT0_.exit1208
  call void @llvm.lifetime.start.p0(i64 8, ptr nonnull %ref.tmp363) #24
  invoke void @_ZN7testing7MessageC1Ev(ptr noundef nonnull align 8 dereferenceable(8) %ref.tmp363)
          to label %invoke.cont365 unwind label %lpad364

invoke.cont365:                                   ; preds = %if.else362
  call void @llvm.lifetime.start.p0(i64 8, ptr nonnull %ref.tmp366) #24
  %message_.i.i1210 = getelementptr inbounds %"class.testing::AssertionResult", ptr %gtest_ar356, i64 0, i32 1
  %209 = load ptr, ptr %message_.i.i1210, align 8, !tbaa !25
  %cmp.not.i.i1211 = icmp eq ptr %209, null
  br i1 %cmp.not.i.i1211, label %invoke.cont368, label %cond.true.i.i1212

cond.true.i.i1212:                                ; preds = %invoke.cont365
  %210 = load ptr, ptr %209, align 8, !tbaa !26
  br label %invoke.cont368

invoke.cont368:                                   ; preds = %cond.true.i.i1212, %invoke.cont365
  %cond.i.i1213 = phi ptr [ %210, %cond.true.i.i1212 ], [ @.str.44, %invoke.cont365 ]
  invoke void @_ZN7testing8internal12AssertHelperC1ENS_14TestPartResult4TypeEPKciS5_(ptr noundef nonnull align 8 dereferenceable(8) %ref.tmp366, i32 noundef 1, ptr noundef nonnull @.str.4, i32 noundef 53, ptr noundef %cond.i.i1213)
          to label %invoke.cont370 unwind label %lpad367

invoke.cont370:                                   ; preds = %invoke.cont368
  invoke void @_ZNK7testing8internal12AssertHelperaSERKNS_7MessageE(ptr noundef nonnull align 8 dereferenceable(8) %ref.tmp366, ptr noundef nonnull align 8 dereferenceable(8) %ref.tmp363)
          to label %invoke.cont372 unwind label %lpad371

invoke.cont372:                                   ; preds = %invoke.cont370
  call void @_ZN7testing8internal12AssertHelperD1Ev(ptr noundef nonnull align 8 dereferenceable(8) %ref.tmp366) #24
  call void @llvm.lifetime.end.p0(i64 8, ptr nonnull %ref.tmp366) #24
  %211 = load ptr, ptr %ref.tmp363, align 8, !tbaa !25
  %cmp.not.i.i1215 = icmp eq ptr %211, null
  br i1 %cmp.not.i.i1215, label %_ZN7testing7MessageD2Ev.exit1219, label %_ZNKSt14default_deleteINSt7__cxx1118basic_stringstreamIcSt11char_traitsIcESaIcEEEEclEPS5_.exit.i.i1218

_ZNKSt14default_deleteINSt7__cxx1118basic_stringstreamIcSt11char_traitsIcESaIcEEEEclEPS5_.exit.i.i1218: ; preds = %invoke.cont372
  %vtable.i.i.i1216 = load ptr, ptr %211, align 8, !tbaa !5
  %vfn.i.i.i1217 = getelementptr inbounds ptr, ptr %vtable.i.i.i1216, i64 1
  %212 = load ptr, ptr %vfn.i.i.i1217, align 8
  call void %212(ptr noundef nonnull align 8 dereferenceable(128) %211) #24
  br label %_ZN7testing7MessageD2Ev.exit1219

_ZN7testing7MessageD2Ev.exit1219:                 ; preds = %invoke.cont372, %_ZNKSt14default_deleteINSt7__cxx1118basic_stringstreamIcSt11char_traitsIcESaIcEEEEclEPS5_.exit.i.i1218
  call void @llvm.lifetime.end.p0(i64 8, ptr nonnull %ref.tmp363) #24
  br label %if.end377

lpad364:                                          ; preds = %if.else362
  %213 = landingpad { ptr, i32 }
          cleanup
  br label %ehcleanup376

lpad367:                                          ; preds = %invoke.cont368
  %214 = landingpad { ptr, i32 }
          cleanup
  br label %ehcleanup374

lpad371:                                          ; preds = %invoke.cont370
  %215 = landingpad { ptr, i32 }
          cleanup
  call void @_ZN7testing8internal12AssertHelperD1Ev(ptr noundef nonnull align 8 dereferenceable(8) %ref.tmp366) #24
  br label %ehcleanup374

ehcleanup374:                                     ; preds = %lpad371, %lpad367
  %.pn664 = phi { ptr, i32 } [ %215, %lpad371 ], [ %214, %lpad367 ]
  call void @llvm.lifetime.end.p0(i64 8, ptr nonnull %ref.tmp366) #24
  %216 = load ptr, ptr %ref.tmp363, align 8, !tbaa !25
  %cmp.not.i.i1220 = icmp eq ptr %216, null
  br i1 %cmp.not.i.i1220, label %ehcleanup376, label %_ZNKSt14default_deleteINSt7__cxx1118basic_stringstreamIcSt11char_traitsIcESaIcEEEEclEPS5_.exit.i.i1223

_ZNKSt14default_deleteINSt7__cxx1118basic_stringstreamIcSt11char_traitsIcESaIcEEEEclEPS5_.exit.i.i1223: ; preds = %ehcleanup374
  %vtable.i.i.i1221 = load ptr, ptr %216, align 8, !tbaa !5
  %vfn.i.i.i1222 = getelementptr inbounds ptr, ptr %vtable.i.i.i1221, i64 1
  %217 = load ptr, ptr %vfn.i.i.i1222, align 8
  call void %217(ptr noundef nonnull align 8 dereferenceable(128) %216) #24
  br label %ehcleanup376

ehcleanup376:                                     ; preds = %_ZNKSt14default_deleteINSt7__cxx1118basic_stringstreamIcSt11char_traitsIcESaIcEEEEclEPS5_.exit.i.i1223, %ehcleanup374, %lpad364
  %.pn664.pn = phi { ptr, i32 } [ %213, %lpad364 ], [ %.pn664, %ehcleanup374 ], [ %.pn664, %_ZNKSt14default_deleteINSt7__cxx1118basic_stringstreamIcSt11char_traitsIcESaIcEEEEclEPS5_.exit.i.i1223 ]
  call void @llvm.lifetime.end.p0(i64 8, ptr nonnull %ref.tmp363) #24
  call void @_ZN7testing15AssertionResultD2Ev(ptr noundef nonnull align 8 dereferenceable(16) %gtest_ar356) #24
  call void @llvm.lifetime.end.p0(i64 16, ptr nonnull %gtest_ar356) #24
  br label %ehcleanup380

if.end377:                                        ; preds = %_ZN7testing8internal8EqHelper7CompareImmLPv0EEENS_15AssertionResultEPKcS6_RKT_RKT0_.exit1208, %_ZN7testing7MessageD2Ev.exit1219
  %message_.i1225 = getelementptr inbounds %"class.testing::AssertionResult", ptr %gtest_ar356, i64 0, i32 1
  %218 = load ptr, ptr %message_.i1225, align 8, !tbaa !25
  %cmp.not.i.i1226 = icmp eq ptr %218, null
  br i1 %cmp.not.i.i1226, label %_ZN7testing15AssertionResultD2Ev.exit1231, label %delete.notnull.i.i.i1228

delete.notnull.i.i.i1228:                         ; preds = %if.end377
  %219 = load ptr, ptr %218, align 8, !tbaa !26
  %220 = getelementptr inbounds %"class.std::__cxx11::basic_string", ptr %218, i64 0, i32 2
  %cmp.i.i.i.i.i.i1227 = icmp eq ptr %219, %220
  br i1 %cmp.i.i.i.i.i.i1227, label %_ZNKSt14default_deleteINSt7__cxx1112basic_stringIcSt11char_traitsIcESaIcEEEEclEPS5_.exit.i.i1230, label %if.then.i.i.i.i.i1229

if.then.i.i.i.i.i1229:                            ; preds = %delete.notnull.i.i.i1228
  call void @_ZdlPv(ptr noundef %219) #26
  br label %_ZNKSt14default_deleteINSt7__cxx1112basic_stringIcSt11char_traitsIcESaIcEEEEclEPS5_.exit.i.i1230

_ZNKSt14default_deleteINSt7__cxx1112basic_stringIcSt11char_traitsIcESaIcEEEEclEPS5_.exit.i.i1230: ; preds = %if.then.i.i.i.i.i1229, %delete.notnull.i.i.i1228
  call void @_ZdlPv(ptr noundef nonnull %218) #26
  br label %_ZN7testing15AssertionResultD2Ev.exit1231

_ZN7testing15AssertionResultD2Ev.exit1231:        ; preds = %if.end377, %_ZNKSt14default_deleteINSt7__cxx1112basic_stringIcSt11char_traitsIcESaIcEEEEclEPS5_.exit.i.i1230
  call void @llvm.lifetime.end.p0(i64 16, ptr nonnull %gtest_ar356) #24
  call void @llvm.lifetime.end.p0(i64 8, ptr nonnull %pos316) #24
  call void @llvm.lifetime.start.p0(i64 8, ptr nonnull %pos381) #24
  store i64 0, ptr %pos381, align 8, !tbaa !18
  call void @llvm.lifetime.start.p0(i64 16, ptr nonnull %gtest_ar382) #24
  call void @llvm.lifetime.start.p0(i64 8, ptr nonnull %ref.tmp383) #24
  store i64 4112, ptr %ref.tmp383, align 8, !tbaa !18
  call void @llvm.lifetime.start.p0(i64 8, ptr nonnull %ref.tmp384) #24
  call void @llvm.lifetime.start.p0(i64 32, ptr nonnull %ref.tmp385) #24
  %221 = getelementptr inbounds %"class.std::__cxx11::basic_string", ptr %ref.tmp385, i64 0, i32 2
  store ptr %221, ptr %ref.tmp385, align 8, !tbaa !19
  store i32 808529969, ptr %221, align 8
  %_M_string_length.i.i.i.i1239 = getelementptr inbounds %"class.std::__cxx11::basic_string", ptr %ref.tmp385, i64 0, i32 1
  store i64 4, ptr %_M_string_length.i.i.i.i1239, align 8, !tbaa !22
  %arrayidx.i.i.i1240 = getelementptr inbounds i8, ptr %ref.tmp385, i64 20
  store i8 0, ptr %arrayidx.i.i.i1240, align 4, !tbaa !21
  call void @llvm.lifetime.start.p0(i64 8, ptr nonnull %__endptr.i.i1244) #24
  %222 = load i32, ptr %call.i.i.i, align 4, !tbaa !24
  store i32 0, ptr %call.i.i.i, align 4, !tbaa !24
  %call.i.i1246 = call noundef i64 @strtoul(ptr noundef nonnull %221, ptr noundef nonnull %__endptr.i.i1244, i32 noundef 16)
  %223 = load ptr, ptr %__endptr.i.i1244, align 8, !tbaa !25
  %cmp.i.i1247 = icmp eq ptr %223, %221
  br i1 %cmp.i.i1247, label %if.then.i.i1248, label %if.else.i.i1255

if.then.i.i1248:                                  ; preds = %_ZN7testing15AssertionResultD2Ev.exit1231
  invoke void @_ZSt24__throw_invalid_argumentPKc(ptr noundef nonnull @.str.3) #29
          to label %invoke.cont1.i.i1249 unwind label %lpad.i.i1251

invoke.cont1.i.i1249:                             ; preds = %if.then.i.i1248
  unreachable

lpad.i.i1251:                                     ; preds = %if.then7.i.i1256, %if.then.i.i1248
  %224 = landingpad { ptr, i32 }
          cleanup
  %225 = load i32, ptr %call.i.i.i, align 4, !tbaa !24
  %cmp.i.i.i1250 = icmp eq i32 %225, 0
  br i1 %cmp.i.i.i1250, label %if.then.i.i.i1252, label %_ZZN9__gnu_cxx6__stoaImmcJiEEET0_PFT_PKT1_PPS3_DpT2_EPKcS5_PmS9_EN11_Save_errnoD2Ev.exit.i.i1253

if.then.i.i.i1252:                                ; preds = %lpad.i.i1251
  store i32 %222, ptr %call.i.i.i, align 4, !tbaa !24
  br label %_ZZN9__gnu_cxx6__stoaImmcJiEEET0_PFT_PKT1_PPS3_DpT2_EPKcS5_PmS9_EN11_Save_errnoD2Ev.exit.i.i1253

_ZZN9__gnu_cxx6__stoaImmcJiEEET0_PFT_PKT1_PPS3_DpT2_EPKcS5_PmS9_EN11_Save_errnoD2Ev.exit.i.i1253: ; preds = %if.then.i.i.i1252, %lpad.i.i1251
  call void @llvm.lifetime.end.p0(i64 8, ptr nonnull %__endptr.i.i1244) #24
  br label %lpad389.body

if.else.i.i1255:                                  ; preds = %_ZN7testing15AssertionResultD2Ev.exit1231
  %226 = load i32, ptr %call.i.i.i, align 4, !tbaa !24
  %cmp3.i.i1254 = icmp eq i32 %226, 34
  br i1 %cmp3.i.i1254, label %if.then7.i.i1256, label %if.else9.i.i1258

if.then7.i.i1256:                                 ; preds = %if.else.i.i1255
  invoke void @_ZSt20__throw_out_of_rangePKc(ptr noundef nonnull @.str.3) #29
          to label %invoke.cont8.i.i1257 unwind label %lpad.i.i1251

invoke.cont8.i.i1257:                             ; preds = %if.then7.i.i1256
  unreachable

if.else9.i.i1258:                                 ; preds = %if.else.i.i1255
  %sub.ptr.lhs.cast.i.i1259 = ptrtoint ptr %223 to i64
  %sub.ptr.rhs.cast.i.i1260 = ptrtoint ptr %221 to i64
  %sub.ptr.sub.i.i1261 = sub i64 %sub.ptr.lhs.cast.i.i1259, %sub.ptr.rhs.cast.i.i1260
  store i64 %sub.ptr.sub.i.i1261, ptr %pos381, align 8, !tbaa !18
  %cmp.i25.i.i1262 = icmp eq i32 %226, 0
  br i1 %cmp.i25.i.i1262, label %if.then.i26.i.i1263, label %invoke.cont390

if.then.i26.i.i1263:                              ; preds = %if.else9.i.i1258
  store i32 %222, ptr %call.i.i.i, align 4, !tbaa !24
  br label %invoke.cont390

invoke.cont390:                                   ; preds = %if.then.i26.i.i1263, %if.else9.i.i1258
  call void @llvm.lifetime.end.p0(i64 8, ptr nonnull %__endptr.i.i1244) #24
  store i64 %call.i.i1246, ptr %ref.tmp384, align 8, !tbaa !18
  %227 = load i64, ptr %ref.tmp383, align 8, !tbaa !18, !noalias !93
  %cmp.i.i1266 = icmp eq i64 %227, %call.i.i1246
  br i1 %cmp.i.i1266, label %if.then.i.i1267, label %if.end.i.i1268

if.then.i.i1267:                                  ; preds = %invoke.cont390
  invoke void @_ZN7testing16AssertionSuccessEv(ptr nonnull sret(%"class.testing::AssertionResult") align 8 %gtest_ar382)
          to label %invoke.cont392 unwind label %lpad389

if.end.i.i1268:                                   ; preds = %invoke.cont390
  invoke void @_ZN7testing8internal18CmpHelperEQFailureImmEENS_15AssertionResultEPKcS4_RKT_RKT0_(ptr nonnull sret(%"class.testing::AssertionResult") align 8 %gtest_ar382, ptr noundef nonnull @.str.31, ptr noundef nonnull @.str.32, ptr noundef nonnull align 8 dereferenceable(8) %ref.tmp383, ptr noundef nonnull align 8 dereferenceable(8) %ref.tmp384)
          to label %invoke.cont392 unwind label %lpad389

invoke.cont392:                                   ; preds = %if.then.i.i1267, %if.end.i.i1268
  %228 = load ptr, ptr %ref.tmp385, align 8, !tbaa !26
  %cmp.i.i.i1272 = icmp eq ptr %228, %221
  br i1 %cmp.i.i.i1272, label %_ZNSt7__cxx1112basic_stringIcSt11char_traitsIcESaIcEED2Ev.exit1274, label %if.then.i.i1273

if.then.i.i1273:                                  ; preds = %invoke.cont392
  call void @_ZdlPv(ptr noundef %228) #26
  br label %_ZNSt7__cxx1112basic_stringIcSt11char_traitsIcESaIcEED2Ev.exit1274

_ZNSt7__cxx1112basic_stringIcSt11char_traitsIcESaIcEED2Ev.exit1274: ; preds = %invoke.cont392, %if.then.i.i1273
  call void @llvm.lifetime.end.p0(i64 32, ptr nonnull %ref.tmp385) #24
  call void @llvm.lifetime.end.p0(i64 8, ptr nonnull %ref.tmp384) #24
  call void @llvm.lifetime.end.p0(i64 8, ptr nonnull %ref.tmp383) #24
  %229 = load i8, ptr %gtest_ar382, align 8, !tbaa !27, !range !36, !noundef !37
  %tobool.i1275.not = icmp eq i8 %229, 0
  br i1 %tobool.i1275.not, label %if.else403, label %if.end418

ehcleanup380:                                     ; preds = %ehcleanup376, %ehcleanup355
  %.pn664.pn.pn = phi { ptr, i32 } [ %.pn664.pn, %ehcleanup376 ], [ %.pn660.pn.pn, %ehcleanup355 ]
  call void @llvm.lifetime.end.p0(i64 8, ptr nonnull %pos316) #24
  br label %eh.resume

lpad389:                                          ; preds = %if.end.i.i1268, %if.then.i.i1267
  %230 = landingpad { ptr, i32 }
          cleanup
  br label %lpad389.body

lpad389.body:                                     ; preds = %_ZZN9__gnu_cxx6__stoaImmcJiEEET0_PFT_PKT1_PPS3_DpT2_EPKcS5_PmS9_EN11_Save_errnoD2Ev.exit.i.i1253, %lpad389
  %eh.lpad-body1264 = phi { ptr, i32 } [ %230, %lpad389 ], [ %224, %_ZZN9__gnu_cxx6__stoaImmcJiEEET0_PFT_PKT1_PPS3_DpT2_EPKcS5_PmS9_EN11_Save_errnoD2Ev.exit.i.i1253 ]
  %231 = load ptr, ptr %ref.tmp385, align 8, !tbaa !26
  %cmp.i.i.i1276 = icmp eq ptr %231, %221
  br i1 %cmp.i.i.i1276, label %ehcleanup394, label %if.then.i.i1277

if.then.i.i1277:                                  ; preds = %lpad389.body
  call void @_ZdlPv(ptr noundef %231) #26
  br label %ehcleanup394

ehcleanup394:                                     ; preds = %if.then.i.i1277, %lpad389.body
  call void @llvm.lifetime.end.p0(i64 32, ptr nonnull %ref.tmp385) #24
  call void @llvm.lifetime.end.p0(i64 8, ptr nonnull %ref.tmp384) #24
  call void @llvm.lifetime.end.p0(i64 8, ptr nonnull %ref.tmp383) #24
  br label %ehcleanup420

if.else403:                                       ; preds = %_ZNSt7__cxx1112basic_stringIcSt11char_traitsIcESaIcEED2Ev.exit1274
  call void @llvm.lifetime.start.p0(i64 8, ptr nonnull %ref.tmp404) #24
  invoke void @_ZN7testing7MessageC1Ev(ptr noundef nonnull align 8 dereferenceable(8) %ref.tmp404)
          to label %invoke.cont406 unwind label %lpad405

invoke.cont406:                                   ; preds = %if.else403
  call void @llvm.lifetime.start.p0(i64 8, ptr nonnull %ref.tmp407) #24
  %message_.i.i1279 = getelementptr inbounds %"class.testing::AssertionResult", ptr %gtest_ar382, i64 0, i32 1
  %232 = load ptr, ptr %message_.i.i1279, align 8, !tbaa !25
  %cmp.not.i.i1280 = icmp eq ptr %232, null
  br i1 %cmp.not.i.i1280, label %invoke.cont409, label %cond.true.i.i1281

cond.true.i.i1281:                                ; preds = %invoke.cont406
  %233 = load ptr, ptr %232, align 8, !tbaa !26
  br label %invoke.cont409

invoke.cont409:                                   ; preds = %cond.true.i.i1281, %invoke.cont406
  %cond.i.i1282 = phi ptr [ %233, %cond.true.i.i1281 ], [ @.str.44, %invoke.cont406 ]
  invoke void @_ZN7testing8internal12AssertHelperC1ENS_14TestPartResult4TypeEPKciS5_(ptr noundef nonnull align 8 dereferenceable(8) %ref.tmp407, i32 noundef 1, ptr noundef nonnull @.str.4, i32 noundef 57, ptr noundef %cond.i.i1282)
          to label %invoke.cont411 unwind label %lpad408

invoke.cont411:                                   ; preds = %invoke.cont409
  invoke void @_ZNK7testing8internal12AssertHelperaSERKNS_7MessageE(ptr noundef nonnull align 8 dereferenceable(8) %ref.tmp407, ptr noundef nonnull align 8 dereferenceable(8) %ref.tmp404)
          to label %invoke.cont413 unwind label %lpad412

invoke.cont413:                                   ; preds = %invoke.cont411
  call void @_ZN7testing8internal12AssertHelperD1Ev(ptr noundef nonnull align 8 dereferenceable(8) %ref.tmp407) #24
  call void @llvm.lifetime.end.p0(i64 8, ptr nonnull %ref.tmp407) #24
  %234 = load ptr, ptr %ref.tmp404, align 8, !tbaa !25
  %cmp.not.i.i1284 = icmp eq ptr %234, null
  br i1 %cmp.not.i.i1284, label %_ZN7testing7MessageD2Ev.exit1288, label %_ZNKSt14default_deleteINSt7__cxx1118basic_stringstreamIcSt11char_traitsIcESaIcEEEEclEPS5_.exit.i.i1287

_ZNKSt14default_deleteINSt7__cxx1118basic_stringstreamIcSt11char_traitsIcESaIcEEEEclEPS5_.exit.i.i1287: ; preds = %invoke.cont413
  %vtable.i.i.i1285 = load ptr, ptr %234, align 8, !tbaa !5
  %vfn.i.i.i1286 = getelementptr inbounds ptr, ptr %vtable.i.i.i1285, i64 1
  %235 = load ptr, ptr %vfn.i.i.i1286, align 8
  call void %235(ptr noundef nonnull align 8 dereferenceable(128) %234) #24
  br label %_ZN7testing7MessageD2Ev.exit1288

_ZN7testing7MessageD2Ev.exit1288:                 ; preds = %invoke.cont413, %_ZNKSt14default_deleteINSt7__cxx1118basic_stringstreamIcSt11char_traitsIcESaIcEEEEclEPS5_.exit.i.i1287
  call void @llvm.lifetime.end.p0(i64 8, ptr nonnull %ref.tmp404) #24
  br label %if.end418

lpad405:                                          ; preds = %if.else403
  %236 = landingpad { ptr, i32 }
          cleanup
  br label %ehcleanup417

lpad408:                                          ; preds = %invoke.cont409
  %237 = landingpad { ptr, i32 }
          cleanup
  br label %ehcleanup415

lpad412:                                          ; preds = %invoke.cont411
  %238 = landingpad { ptr, i32 }
          cleanup
  call void @_ZN7testing8internal12AssertHelperD1Ev(ptr noundef nonnull align 8 dereferenceable(8) %ref.tmp407) #24
  br label %ehcleanup415

ehcleanup415:                                     ; preds = %lpad412, %lpad408
  %.pn670 = phi { ptr, i32 } [ %238, %lpad412 ], [ %237, %lpad408 ]
  call void @llvm.lifetime.end.p0(i64 8, ptr nonnull %ref.tmp407) #24
  %239 = load ptr, ptr %ref.tmp404, align 8, !tbaa !25
  %cmp.not.i.i1289 = icmp eq ptr %239, null
  br i1 %cmp.not.i.i1289, label %ehcleanup417, label %_ZNKSt14default_deleteINSt7__cxx1118basic_stringstreamIcSt11char_traitsIcESaIcEEEEclEPS5_.exit.i.i1292

_ZNKSt14default_deleteINSt7__cxx1118basic_stringstreamIcSt11char_traitsIcESaIcEEEEclEPS5_.exit.i.i1292: ; preds = %ehcleanup415
  %vtable.i.i.i1290 = load ptr, ptr %239, align 8, !tbaa !5
  %vfn.i.i.i1291 = getelementptr inbounds ptr, ptr %vtable.i.i.i1290, i64 1
  %240 = load ptr, ptr %vfn.i.i.i1291, align 8
  call void %240(ptr noundef nonnull align 8 dereferenceable(128) %239) #24
  br label %ehcleanup417

ehcleanup417:                                     ; preds = %_ZNKSt14default_deleteINSt7__cxx1118basic_stringstreamIcSt11char_traitsIcESaIcEEEEclEPS5_.exit.i.i1292, %ehcleanup415, %lpad405
  %.pn670.pn = phi { ptr, i32 } [ %236, %lpad405 ], [ %.pn670, %ehcleanup415 ], [ %.pn670, %_ZNKSt14default_deleteINSt7__cxx1118basic_stringstreamIcSt11char_traitsIcESaIcEEEEclEPS5_.exit.i.i1292 ]
  call void @llvm.lifetime.end.p0(i64 8, ptr nonnull %ref.tmp404) #24
  call void @_ZN7testing15AssertionResultD2Ev(ptr noundef nonnull align 8 dereferenceable(16) %gtest_ar382) #24
  br label %ehcleanup420

if.end418:                                        ; preds = %_ZNSt7__cxx1112basic_stringIcSt11char_traitsIcESaIcEED2Ev.exit1274, %_ZN7testing7MessageD2Ev.exit1288
  %message_.i1294 = getelementptr inbounds %"class.testing::AssertionResult", ptr %gtest_ar382, i64 0, i32 1
  %241 = load ptr, ptr %message_.i1294, align 8, !tbaa !25
  %cmp.not.i.i1295 = icmp eq ptr %241, null
  br i1 %cmp.not.i.i1295, label %_ZN7testing15AssertionResultD2Ev.exit1300, label %delete.notnull.i.i.i1297

delete.notnull.i.i.i1297:                         ; preds = %if.end418
  %242 = load ptr, ptr %241, align 8, !tbaa !26
  %243 = getelementptr inbounds %"class.std::__cxx11::basic_string", ptr %241, i64 0, i32 2
  %cmp.i.i.i.i.i.i1296 = icmp eq ptr %242, %243
  br i1 %cmp.i.i.i.i.i.i1296, label %_ZNKSt14default_deleteINSt7__cxx1112basic_stringIcSt11char_traitsIcESaIcEEEEclEPS5_.exit.i.i1299, label %if.then.i.i.i.i.i1298

if.then.i.i.i.i.i1298:                            ; preds = %delete.notnull.i.i.i1297
  call void @_ZdlPv(ptr noundef %242) #26
  br label %_ZNKSt14default_deleteINSt7__cxx1112basic_stringIcSt11char_traitsIcESaIcEEEEclEPS5_.exit.i.i1299

_ZNKSt14default_deleteINSt7__cxx1112basic_stringIcSt11char_traitsIcESaIcEEEEclEPS5_.exit.i.i1299: ; preds = %if.then.i.i.i.i.i1298, %delete.notnull.i.i.i1297
  call void @_ZdlPv(ptr noundef nonnull %241) #26
  br label %_ZN7testing15AssertionResultD2Ev.exit1300

_ZN7testing15AssertionResultD2Ev.exit1300:        ; preds = %if.end418, %_ZNKSt14default_deleteINSt7__cxx1112basic_stringIcSt11char_traitsIcESaIcEEEEclEPS5_.exit.i.i1299
  call void @llvm.lifetime.end.p0(i64 16, ptr nonnull %gtest_ar382) #24
  call void @llvm.lifetime.start.p0(i64 16, ptr nonnull %gtest_ar421) #24
  call void @llvm.lifetime.start.p0(i64 8, ptr nonnull %ref.tmp422) #24
  store i64 4, ptr %ref.tmp422, align 8, !tbaa !18
  %244 = load i64, ptr %pos381, align 8, !tbaa !18, !noalias !98
  %cmp.i.i1301 = icmp eq i64 %244, 4
  br i1 %cmp.i.i1301, label %if.then.i.i1302, label %if.end.i.i1303

if.then.i.i1302:                                  ; preds = %_ZN7testing15AssertionResultD2Ev.exit1300
  call void @_ZN7testing16AssertionSuccessEv(ptr nonnull sret(%"class.testing::AssertionResult") align 8 %gtest_ar421)
  br label %_ZN7testing8internal8EqHelper7CompareImmLPv0EEENS_15AssertionResultEPKcS6_RKT_RKT0_.exit1304

if.end.i.i1303:                                   ; preds = %_ZN7testing15AssertionResultD2Ev.exit1300
  call void @_ZN7testing8internal18CmpHelperEQFailureImmEENS_15AssertionResultEPKcS4_RKT_RKT0_(ptr nonnull sret(%"class.testing::AssertionResult") align 8 %gtest_ar421, ptr noundef nonnull @.str.26, ptr noundef nonnull @.str.15, ptr noundef nonnull align 8 dereferenceable(8) %ref.tmp422, ptr noundef nonnull align 8 dereferenceable(8) %pos381)
  br label %_ZN7testing8internal8EqHelper7CompareImmLPv0EEENS_15AssertionResultEPKcS6_RKT_RKT0_.exit1304

_ZN7testing8internal8EqHelper7CompareImmLPv0EEENS_15AssertionResultEPKcS6_RKT_RKT0_.exit1304: ; preds = %if.then.i.i1302, %if.end.i.i1303
  call void @llvm.lifetime.end.p0(i64 8, ptr nonnull %ref.tmp422) #24
  %245 = load i8, ptr %gtest_ar421, align 8, !tbaa !27, !range !36, !noundef !37
  %tobool.i1305.not = icmp eq i8 %245, 0
  br i1 %tobool.i1305.not, label %if.else427, label %if.end442

ehcleanup420:                                     ; preds = %ehcleanup417, %ehcleanup394
  %.pn670.pn.pn = phi { ptr, i32 } [ %.pn670.pn, %ehcleanup417 ], [ %eh.lpad-body1264, %ehcleanup394 ]
  call void @llvm.lifetime.end.p0(i64 16, ptr nonnull %gtest_ar382) #24
  br label %ehcleanup445

if.else427:                                       ; preds = %_ZN7testing8internal8EqHelper7CompareImmLPv0EEENS_15AssertionResultEPKcS6_RKT_RKT0_.exit1304
  call void @llvm.lifetime.start.p0(i64 8, ptr nonnull %ref.tmp428) #24
  invoke void @_ZN7testing7MessageC1Ev(ptr noundef nonnull align 8 dereferenceable(8) %ref.tmp428)
          to label %invoke.cont430 unwind label %lpad429

invoke.cont430:                                   ; preds = %if.else427
  call void @llvm.lifetime.start.p0(i64 8, ptr nonnull %ref.tmp431) #24
  %message_.i.i1306 = getelementptr inbounds %"class.testing::AssertionResult", ptr %gtest_ar421, i64 0, i32 1
  %246 = load ptr, ptr %message_.i.i1306, align 8, !tbaa !25
  %cmp.not.i.i1307 = icmp eq ptr %246, null
  br i1 %cmp.not.i.i1307, label %invoke.cont433, label %cond.true.i.i1308

cond.true.i.i1308:                                ; preds = %invoke.cont430
  %247 = load ptr, ptr %246, align 8, !tbaa !26
  br label %invoke.cont433

invoke.cont433:                                   ; preds = %cond.true.i.i1308, %invoke.cont430
  %cond.i.i1309 = phi ptr [ %247, %cond.true.i.i1308 ], [ @.str.44, %invoke.cont430 ]
  invoke void @_ZN7testing8internal12AssertHelperC1ENS_14TestPartResult4TypeEPKciS5_(ptr noundef nonnull align 8 dereferenceable(8) %ref.tmp431, i32 noundef 1, ptr noundef nonnull @.str.4, i32 noundef 58, ptr noundef %cond.i.i1309)
          to label %invoke.cont435 unwind label %lpad432

invoke.cont435:                                   ; preds = %invoke.cont433
  invoke void @_ZNK7testing8internal12AssertHelperaSERKNS_7MessageE(ptr noundef nonnull align 8 dereferenceable(8) %ref.tmp431, ptr noundef nonnull align 8 dereferenceable(8) %ref.tmp428)
          to label %invoke.cont437 unwind label %lpad436

invoke.cont437:                                   ; preds = %invoke.cont435
  call void @_ZN7testing8internal12AssertHelperD1Ev(ptr noundef nonnull align 8 dereferenceable(8) %ref.tmp431) #24
  call void @llvm.lifetime.end.p0(i64 8, ptr nonnull %ref.tmp431) #24
  %248 = load ptr, ptr %ref.tmp428, align 8, !tbaa !25
  %cmp.not.i.i1311 = icmp eq ptr %248, null
  br i1 %cmp.not.i.i1311, label %_ZN7testing7MessageD2Ev.exit1315, label %_ZNKSt14default_deleteINSt7__cxx1118basic_stringstreamIcSt11char_traitsIcESaIcEEEEclEPS5_.exit.i.i1314

_ZNKSt14default_deleteINSt7__cxx1118basic_stringstreamIcSt11char_traitsIcESaIcEEEEclEPS5_.exit.i.i1314: ; preds = %invoke.cont437
  %vtable.i.i.i1312 = load ptr, ptr %248, align 8, !tbaa !5
  %vfn.i.i.i1313 = getelementptr inbounds ptr, ptr %vtable.i.i.i1312, i64 1
  %249 = load ptr, ptr %vfn.i.i.i1313, align 8
  call void %249(ptr noundef nonnull align 8 dereferenceable(128) %248) #24
  br label %_ZN7testing7MessageD2Ev.exit1315

_ZN7testing7MessageD2Ev.exit1315:                 ; preds = %invoke.cont437, %_ZNKSt14default_deleteINSt7__cxx1118basic_stringstreamIcSt11char_traitsIcESaIcEEEEclEPS5_.exit.i.i1314
  call void @llvm.lifetime.end.p0(i64 8, ptr nonnull %ref.tmp428) #24
  br label %if.end442

lpad429:                                          ; preds = %if.else427
  %250 = landingpad { ptr, i32 }
          cleanup
  br label %ehcleanup441

lpad432:                                          ; preds = %invoke.cont433
  %251 = landingpad { ptr, i32 }
          cleanup
  br label %ehcleanup439

lpad436:                                          ; preds = %invoke.cont435
  %252 = landingpad { ptr, i32 }
          cleanup
  call void @_ZN7testing8internal12AssertHelperD1Ev(ptr noundef nonnull align 8 dereferenceable(8) %ref.tmp431) #24
  br label %ehcleanup439

ehcleanup439:                                     ; preds = %lpad436, %lpad432
  %.pn674 = phi { ptr, i32 } [ %252, %lpad436 ], [ %251, %lpad432 ]
  call void @llvm.lifetime.end.p0(i64 8, ptr nonnull %ref.tmp431) #24
  %253 = load ptr, ptr %ref.tmp428, align 8, !tbaa !25
  %cmp.not.i.i1316 = icmp eq ptr %253, null
  br i1 %cmp.not.i.i1316, label %ehcleanup441, label %_ZNKSt14default_deleteINSt7__cxx1118basic_stringstreamIcSt11char_traitsIcESaIcEEEEclEPS5_.exit.i.i1319

_ZNKSt14default_deleteINSt7__cxx1118basic_stringstreamIcSt11char_traitsIcESaIcEEEEclEPS5_.exit.i.i1319: ; preds = %ehcleanup439
  %vtable.i.i.i1317 = load ptr, ptr %253, align 8, !tbaa !5
  %vfn.i.i.i1318 = getelementptr inbounds ptr, ptr %vtable.i.i.i1317, i64 1
  %254 = load ptr, ptr %vfn.i.i.i1318, align 8
  call void %254(ptr noundef nonnull align 8 dereferenceable(128) %253) #24
  br label %ehcleanup441

ehcleanup441:                                     ; preds = %_ZNKSt14default_deleteINSt7__cxx1118basic_stringstreamIcSt11char_traitsIcESaIcEEEEclEPS5_.exit.i.i1319, %ehcleanup439, %lpad429
  %.pn674.pn = phi { ptr, i32 } [ %250, %lpad429 ], [ %.pn674, %ehcleanup439 ], [ %.pn674, %_ZNKSt14default_deleteINSt7__cxx1118basic_stringstreamIcSt11char_traitsIcESaIcEEEEclEPS5_.exit.i.i1319 ]
  call void @llvm.lifetime.end.p0(i64 8, ptr nonnull %ref.tmp428) #24
  call void @_ZN7testing15AssertionResultD2Ev(ptr noundef nonnull align 8 dereferenceable(16) %gtest_ar421) #24
  call void @llvm.lifetime.end.p0(i64 16, ptr nonnull %gtest_ar421) #24
  br label %ehcleanup445

if.end442:                                        ; preds = %_ZN7testing8internal8EqHelper7CompareImmLPv0EEENS_15AssertionResultEPKcS6_RKT_RKT0_.exit1304, %_ZN7testing7MessageD2Ev.exit1315
  %message_.i1321 = getelementptr inbounds %"class.testing::AssertionResult", ptr %gtest_ar421, i64 0, i32 1
  %255 = load ptr, ptr %message_.i1321, align 8, !tbaa !25
  %cmp.not.i.i1322 = icmp eq ptr %255, null
  br i1 %cmp.not.i.i1322, label %_ZN7testing15AssertionResultD2Ev.exit1327, label %delete.notnull.i.i.i1324

delete.notnull.i.i.i1324:                         ; preds = %if.end442
  %256 = load ptr, ptr %255, align 8, !tbaa !26
  %257 = getelementptr inbounds %"class.std::__cxx11::basic_string", ptr %255, i64 0, i32 2
  %cmp.i.i.i.i.i.i1323 = icmp eq ptr %256, %257
  br i1 %cmp.i.i.i.i.i.i1323, label %_ZNKSt14default_deleteINSt7__cxx1112basic_stringIcSt11char_traitsIcESaIcEEEEclEPS5_.exit.i.i1326, label %if.then.i.i.i.i.i1325

if.then.i.i.i.i.i1325:                            ; preds = %delete.notnull.i.i.i1324
  call void @_ZdlPv(ptr noundef %256) #26
  br label %_ZNKSt14default_deleteINSt7__cxx1112basic_stringIcSt11char_traitsIcESaIcEEEEclEPS5_.exit.i.i1326

_ZNKSt14default_deleteINSt7__cxx1112basic_stringIcSt11char_traitsIcESaIcEEEEclEPS5_.exit.i.i1326: ; preds = %if.then.i.i.i.i.i1325, %delete.notnull.i.i.i1324
  call void @_ZdlPv(ptr noundef nonnull %255) #26
  br label %_ZN7testing15AssertionResultD2Ev.exit1327

_ZN7testing15AssertionResultD2Ev.exit1327:        ; preds = %if.end442, %_ZNKSt14default_deleteINSt7__cxx1112basic_stringIcSt11char_traitsIcESaIcEEEEclEPS5_.exit.i.i1326
  call void @llvm.lifetime.end.p0(i64 16, ptr nonnull %gtest_ar421) #24
  call void @llvm.lifetime.end.p0(i64 8, ptr nonnull %pos381) #24
  call void @llvm.lifetime.start.p0(i64 8, ptr nonnull %pos446) #24
  store i64 0, ptr %pos446, align 8, !tbaa !18
  call void @llvm.lifetime.start.p0(i64 16, ptr nonnull %gtest_ar447) #24
  call void @llvm.lifetime.start.p0(i64 8, ptr nonnull %ref.tmp448) #24
  store i64 48879, ptr %ref.tmp448, align 8, !tbaa !18
  call void @llvm.lifetime.start.p0(i64 8, ptr nonnull %ref.tmp449) #24
  call void @llvm.lifetime.start.p0(i64 32, ptr nonnull %ref.tmp450) #24
  %258 = getelementptr inbounds %"class.std::__cxx11::basic_string", ptr %ref.tmp450, i64 0, i32 2
  store ptr %258, ptr %ref.tmp450, align 8, !tbaa !19
  store i32 1178944834, ptr %258, align 8
  %_M_string_length.i.i.i.i1335 = getelementptr inbounds %"class.std::__cxx11::basic_string", ptr %ref.tmp450, i64 0, i32 1
  store i64 4, ptr %_M_string_length.i.i.i.i1335, align 8, !tbaa !22
  %arrayidx.i.i.i1336 = getelementptr inbounds i8, ptr %ref.tmp450, i64 20
  store i8 0, ptr %arrayidx.i.i.i1336, align 4, !tbaa !21
  call void @llvm.lifetime.start.p0(i64 8, ptr nonnull %__endptr.i.i1340) #24
  %259 = load i32, ptr %call.i.i.i, align 4, !tbaa !24
  store i32 0, ptr %call.i.i.i, align 4, !tbaa !24
  %call.i.i1342 = call noundef i64 @strtoul(ptr noundef nonnull %258, ptr noundef nonnull %__endptr.i.i1340, i32 noundef 16)
  %260 = load ptr, ptr %__endptr.i.i1340, align 8, !tbaa !25
  %cmp.i.i1343 = icmp eq ptr %260, %258
  br i1 %cmp.i.i1343, label %if.then.i.i1344, label %if.else.i.i1351

if.then.i.i1344:                                  ; preds = %_ZN7testing15AssertionResultD2Ev.exit1327
  invoke void @_ZSt24__throw_invalid_argumentPKc(ptr noundef nonnull @.str.3) #29
          to label %invoke.cont1.i.i1345 unwind label %lpad.i.i1347

invoke.cont1.i.i1345:                             ; preds = %if.then.i.i1344
  unreachable

lpad.i.i1347:                                     ; preds = %if.then7.i.i1352, %if.then.i.i1344
  %261 = landingpad { ptr, i32 }
          cleanup
  %262 = load i32, ptr %call.i.i.i, align 4, !tbaa !24
  %cmp.i.i.i1346 = icmp eq i32 %262, 0
  br i1 %cmp.i.i.i1346, label %if.then.i.i.i1348, label %_ZZN9__gnu_cxx6__stoaImmcJiEEET0_PFT_PKT1_PPS3_DpT2_EPKcS5_PmS9_EN11_Save_errnoD2Ev.exit.i.i1349

if.then.i.i.i1348:                                ; preds = %lpad.i.i1347
  store i32 %259, ptr %call.i.i.i, align 4, !tbaa !24
  br label %_ZZN9__gnu_cxx6__stoaImmcJiEEET0_PFT_PKT1_PPS3_DpT2_EPKcS5_PmS9_EN11_Save_errnoD2Ev.exit.i.i1349

_ZZN9__gnu_cxx6__stoaImmcJiEEET0_PFT_PKT1_PPS3_DpT2_EPKcS5_PmS9_EN11_Save_errnoD2Ev.exit.i.i1349: ; preds = %if.then.i.i.i1348, %lpad.i.i1347
  call void @llvm.lifetime.end.p0(i64 8, ptr nonnull %__endptr.i.i1340) #24
  br label %lpad454.body

if.else.i.i1351:                                  ; preds = %_ZN7testing15AssertionResultD2Ev.exit1327
  %263 = load i32, ptr %call.i.i.i, align 4, !tbaa !24
  %cmp3.i.i1350 = icmp eq i32 %263, 34
  br i1 %cmp3.i.i1350, label %if.then7.i.i1352, label %if.else9.i.i1354

if.then7.i.i1352:                                 ; preds = %if.else.i.i1351
  invoke void @_ZSt20__throw_out_of_rangePKc(ptr noundef nonnull @.str.3) #29
          to label %invoke.cont8.i.i1353 unwind label %lpad.i.i1347

invoke.cont8.i.i1353:                             ; preds = %if.then7.i.i1352
  unreachable

if.else9.i.i1354:                                 ; preds = %if.else.i.i1351
  %sub.ptr.lhs.cast.i.i1355 = ptrtoint ptr %260 to i64
  %sub.ptr.rhs.cast.i.i1356 = ptrtoint ptr %258 to i64
  %sub.ptr.sub.i.i1357 = sub i64 %sub.ptr.lhs.cast.i.i1355, %sub.ptr.rhs.cast.i.i1356
  store i64 %sub.ptr.sub.i.i1357, ptr %pos446, align 8, !tbaa !18
  %cmp.i25.i.i1358 = icmp eq i32 %263, 0
  br i1 %cmp.i25.i.i1358, label %if.then.i26.i.i1359, label %invoke.cont455

if.then.i26.i.i1359:                              ; preds = %if.else9.i.i1354
  store i32 %259, ptr %call.i.i.i, align 4, !tbaa !24
  br label %invoke.cont455

invoke.cont455:                                   ; preds = %if.then.i26.i.i1359, %if.else9.i.i1354
  call void @llvm.lifetime.end.p0(i64 8, ptr nonnull %__endptr.i.i1340) #24
  store i64 %call.i.i1342, ptr %ref.tmp449, align 8, !tbaa !18
  %264 = load i64, ptr %ref.tmp448, align 8, !tbaa !18, !noalias !103
  %cmp.i.i1362 = icmp eq i64 %264, %call.i.i1342
  br i1 %cmp.i.i1362, label %if.then.i.i1363, label %if.end.i.i1364

if.then.i.i1363:                                  ; preds = %invoke.cont455
  invoke void @_ZN7testing16AssertionSuccessEv(ptr nonnull sret(%"class.testing::AssertionResult") align 8 %gtest_ar447)
          to label %invoke.cont457 unwind label %lpad454

if.end.i.i1364:                                   ; preds = %invoke.cont455
  invoke void @_ZN7testing8internal18CmpHelperEQFailureImmEENS_15AssertionResultEPKcS4_RKT_RKT0_(ptr nonnull sret(%"class.testing::AssertionResult") align 8 %gtest_ar447, ptr noundef nonnull @.str.33, ptr noundef nonnull @.str.34, ptr noundef nonnull align 8 dereferenceable(8) %ref.tmp448, ptr noundef nonnull align 8 dereferenceable(8) %ref.tmp449)
          to label %invoke.cont457 unwind label %lpad454

invoke.cont457:                                   ; preds = %if.then.i.i1363, %if.end.i.i1364
  %265 = load ptr, ptr %ref.tmp450, align 8, !tbaa !26
  %cmp.i.i.i1368 = icmp eq ptr %265, %258
  br i1 %cmp.i.i.i1368, label %_ZNSt7__cxx1112basic_stringIcSt11char_traitsIcESaIcEED2Ev.exit1370, label %if.then.i.i1369

if.then.i.i1369:                                  ; preds = %invoke.cont457
  call void @_ZdlPv(ptr noundef %265) #26
  br label %_ZNSt7__cxx1112basic_stringIcSt11char_traitsIcESaIcEED2Ev.exit1370

_ZNSt7__cxx1112basic_stringIcSt11char_traitsIcESaIcEED2Ev.exit1370: ; preds = %invoke.cont457, %if.then.i.i1369
  call void @llvm.lifetime.end.p0(i64 32, ptr nonnull %ref.tmp450) #24
  call void @llvm.lifetime.end.p0(i64 8, ptr nonnull %ref.tmp449) #24
  call void @llvm.lifetime.end.p0(i64 8, ptr nonnull %ref.tmp448) #24
  %266 = load i8, ptr %gtest_ar447, align 8, !tbaa !27, !range !36, !noundef !37
  %tobool.i1371.not = icmp eq i8 %266, 0
  br i1 %tobool.i1371.not, label %if.else468, label %if.end483

ehcleanup445:                                     ; preds = %ehcleanup441, %ehcleanup420
  %.pn674.pn.pn = phi { ptr, i32 } [ %.pn674.pn, %ehcleanup441 ], [ %.pn670.pn.pn, %ehcleanup420 ]
  call void @llvm.lifetime.end.p0(i64 8, ptr nonnull %pos381) #24
  br label %eh.resume

lpad454:                                          ; preds = %if.end.i.i1364, %if.then.i.i1363
  %267 = landingpad { ptr, i32 }
          cleanup
  br label %lpad454.body

lpad454.body:                                     ; preds = %_ZZN9__gnu_cxx6__stoaImmcJiEEET0_PFT_PKT1_PPS3_DpT2_EPKcS5_PmS9_EN11_Save_errnoD2Ev.exit.i.i1349, %lpad454
  %eh.lpad-body1360 = phi { ptr, i32 } [ %267, %lpad454 ], [ %261, %_ZZN9__gnu_cxx6__stoaImmcJiEEET0_PFT_PKT1_PPS3_DpT2_EPKcS5_PmS9_EN11_Save_errnoD2Ev.exit.i.i1349 ]
  %268 = load ptr, ptr %ref.tmp450, align 8, !tbaa !26
  %cmp.i.i.i1372 = icmp eq ptr %268, %258
  br i1 %cmp.i.i.i1372, label %ehcleanup459, label %if.then.i.i1373

if.then.i.i1373:                                  ; preds = %lpad454.body
  call void @_ZdlPv(ptr noundef %268) #26
  br label %ehcleanup459

ehcleanup459:                                     ; preds = %if.then.i.i1373, %lpad454.body
  call void @llvm.lifetime.end.p0(i64 32, ptr nonnull %ref.tmp450) #24
  call void @llvm.lifetime.end.p0(i64 8, ptr nonnull %ref.tmp449) #24
  call void @llvm.lifetime.end.p0(i64 8, ptr nonnull %ref.tmp448) #24
  br label %ehcleanup485

if.else468:                                       ; preds = %_ZNSt7__cxx1112basic_stringIcSt11char_traitsIcESaIcEED2Ev.exit1370
  call void @llvm.lifetime.start.p0(i64 8, ptr nonnull %ref.tmp469) #24
  invoke void @_ZN7testing7MessageC1Ev(ptr noundef nonnull align 8 dereferenceable(8) %ref.tmp469)
          to label %invoke.cont471 unwind label %lpad470

invoke.cont471:                                   ; preds = %if.else468
  call void @llvm.lifetime.start.p0(i64 8, ptr nonnull %ref.tmp472) #24
  %message_.i.i1375 = getelementptr inbounds %"class.testing::AssertionResult", ptr %gtest_ar447, i64 0, i32 1
  %269 = load ptr, ptr %message_.i.i1375, align 8, !tbaa !25
  %cmp.not.i.i1376 = icmp eq ptr %269, null
  br i1 %cmp.not.i.i1376, label %invoke.cont474, label %cond.true.i.i1377

cond.true.i.i1377:                                ; preds = %invoke.cont471
  %270 = load ptr, ptr %269, align 8, !tbaa !26
  br label %invoke.cont474

invoke.cont474:                                   ; preds = %cond.true.i.i1377, %invoke.cont471
  %cond.i.i1378 = phi ptr [ %270, %cond.true.i.i1377 ], [ @.str.44, %invoke.cont471 ]
  invoke void @_ZN7testing8internal12AssertHelperC1ENS_14TestPartResult4TypeEPKciS5_(ptr noundef nonnull align 8 dereferenceable(8) %ref.tmp472, i32 noundef 1, ptr noundef nonnull @.str.4, i32 noundef 62, ptr noundef %cond.i.i1378)
          to label %invoke.cont476 unwind label %lpad473

invoke.cont476:                                   ; preds = %invoke.cont474
  invoke void @_ZNK7testing8internal12AssertHelperaSERKNS_7MessageE(ptr noundef nonnull align 8 dereferenceable(8) %ref.tmp472, ptr noundef nonnull align 8 dereferenceable(8) %ref.tmp469)
          to label %invoke.cont478 unwind label %lpad477

invoke.cont478:                                   ; preds = %invoke.cont476
  call void @_ZN7testing8internal12AssertHelperD1Ev(ptr noundef nonnull align 8 dereferenceable(8) %ref.tmp472) #24
  call void @llvm.lifetime.end.p0(i64 8, ptr nonnull %ref.tmp472) #24
  %271 = load ptr, ptr %ref.tmp469, align 8, !tbaa !25
  %cmp.not.i.i1380 = icmp eq ptr %271, null
  br i1 %cmp.not.i.i1380, label %_ZN7testing7MessageD2Ev.exit1384, label %_ZNKSt14default_deleteINSt7__cxx1118basic_stringstreamIcSt11char_traitsIcESaIcEEEEclEPS5_.exit.i.i1383

_ZNKSt14default_deleteINSt7__cxx1118basic_stringstreamIcSt11char_traitsIcESaIcEEEEclEPS5_.exit.i.i1383: ; preds = %invoke.cont478
  %vtable.i.i.i1381 = load ptr, ptr %271, align 8, !tbaa !5
  %vfn.i.i.i1382 = getelementptr inbounds ptr, ptr %vtable.i.i.i1381, i64 1
  %272 = load ptr, ptr %vfn.i.i.i1382, align 8
  call void %272(ptr noundef nonnull align 8 dereferenceable(128) %271) #24
  br label %_ZN7testing7MessageD2Ev.exit1384

_ZN7testing7MessageD2Ev.exit1384:                 ; preds = %invoke.cont478, %_ZNKSt14default_deleteINSt7__cxx1118basic_stringstreamIcSt11char_traitsIcESaIcEEEEclEPS5_.exit.i.i1383
  call void @llvm.lifetime.end.p0(i64 8, ptr nonnull %ref.tmp469) #24
  br label %if.end483

lpad470:                                          ; preds = %if.else468
  %273 = landingpad { ptr, i32 }
          cleanup
  br label %ehcleanup482

lpad473:                                          ; preds = %invoke.cont474
  %274 = landingpad { ptr, i32 }
          cleanup
  br label %ehcleanup480

lpad477:                                          ; preds = %invoke.cont476
  %275 = landingpad { ptr, i32 }
          cleanup
  call void @_ZN7testing8internal12AssertHelperD1Ev(ptr noundef nonnull align 8 dereferenceable(8) %ref.tmp472) #24
  br label %ehcleanup480

ehcleanup480:                                     ; preds = %lpad477, %lpad473
  %.pn680 = phi { ptr, i32 } [ %275, %lpad477 ], [ %274, %lpad473 ]
  call void @llvm.lifetime.end.p0(i64 8, ptr nonnull %ref.tmp472) #24
  %276 = load ptr, ptr %ref.tmp469, align 8, !tbaa !25
  %cmp.not.i.i1385 = icmp eq ptr %276, null
  br i1 %cmp.not.i.i1385, label %ehcleanup482, label %_ZNKSt14default_deleteINSt7__cxx1118basic_stringstreamIcSt11char_traitsIcESaIcEEEEclEPS5_.exit.i.i1388

_ZNKSt14default_deleteINSt7__cxx1118basic_stringstreamIcSt11char_traitsIcESaIcEEEEclEPS5_.exit.i.i1388: ; preds = %ehcleanup480
  %vtable.i.i.i1386 = load ptr, ptr %276, align 8, !tbaa !5
  %vfn.i.i.i1387 = getelementptr inbounds ptr, ptr %vtable.i.i.i1386, i64 1
  %277 = load ptr, ptr %vfn.i.i.i1387, align 8
  call void %277(ptr noundef nonnull align 8 dereferenceable(128) %276) #24
  br label %ehcleanup482

ehcleanup482:                                     ; preds = %_ZNKSt14default_deleteINSt7__cxx1118basic_stringstreamIcSt11char_traitsIcESaIcEEEEclEPS5_.exit.i.i1388, %ehcleanup480, %lpad470
  %.pn680.pn = phi { ptr, i32 } [ %273, %lpad470 ], [ %.pn680, %ehcleanup480 ], [ %.pn680, %_ZNKSt14default_deleteINSt7__cxx1118basic_stringstreamIcSt11char_traitsIcESaIcEEEEclEPS5_.exit.i.i1388 ]
  call void @llvm.lifetime.end.p0(i64 8, ptr nonnull %ref.tmp469) #24
  call void @_ZN7testing15AssertionResultD2Ev(ptr noundef nonnull align 8 dereferenceable(16) %gtest_ar447) #24
  br label %ehcleanup485

if.end483:                                        ; preds = %_ZNSt7__cxx1112basic_stringIcSt11char_traitsIcESaIcEED2Ev.exit1370, %_ZN7testing7MessageD2Ev.exit1384
  %message_.i1390 = getelementptr inbounds %"class.testing::AssertionResult", ptr %gtest_ar447, i64 0, i32 1
  %278 = load ptr, ptr %message_.i1390, align 8, !tbaa !25
  %cmp.not.i.i1391 = icmp eq ptr %278, null
  br i1 %cmp.not.i.i1391, label %_ZN7testing15AssertionResultD2Ev.exit1396, label %delete.notnull.i.i.i1393

delete.notnull.i.i.i1393:                         ; preds = %if.end483
  %279 = load ptr, ptr %278, align 8, !tbaa !26
  %280 = getelementptr inbounds %"class.std::__cxx11::basic_string", ptr %278, i64 0, i32 2
  %cmp.i.i.i.i.i.i1392 = icmp eq ptr %279, %280
  br i1 %cmp.i.i.i.i.i.i1392, label %_ZNKSt14default_deleteINSt7__cxx1112basic_stringIcSt11char_traitsIcESaIcEEEEclEPS5_.exit.i.i1395, label %if.then.i.i.i.i.i1394

if.then.i.i.i.i.i1394:                            ; preds = %delete.notnull.i.i.i1393
  call void @_ZdlPv(ptr noundef %279) #26
  br label %_ZNKSt14default_deleteINSt7__cxx1112basic_stringIcSt11char_traitsIcESaIcEEEEclEPS5_.exit.i.i1395

_ZNKSt14default_deleteINSt7__cxx1112basic_stringIcSt11char_traitsIcESaIcEEEEclEPS5_.exit.i.i1395: ; preds = %if.then.i.i.i.i.i1394, %delete.notnull.i.i.i1393
  call void @_ZdlPv(ptr noundef nonnull %278) #26
  br label %_ZN7testing15AssertionResultD2Ev.exit1396

_ZN7testing15AssertionResultD2Ev.exit1396:        ; preds = %if.end483, %_ZNKSt14default_deleteINSt7__cxx1112basic_stringIcSt11char_traitsIcESaIcEEEEclEPS5_.exit.i.i1395
  call void @llvm.lifetime.end.p0(i64 16, ptr nonnull %gtest_ar447) #24
  call void @llvm.lifetime.start.p0(i64 16, ptr nonnull %gtest_ar486) #24
  call void @llvm.lifetime.start.p0(i64 8, ptr nonnull %ref.tmp487) #24
  store i64 4, ptr %ref.tmp487, align 8, !tbaa !18
  %281 = load i64, ptr %pos446, align 8, !tbaa !18, !noalias !108
  %cmp.i.i1397 = icmp eq i64 %281, 4
  br i1 %cmp.i.i1397, label %if.then.i.i1398, label %if.end.i.i1399

if.then.i.i1398:                                  ; preds = %_ZN7testing15AssertionResultD2Ev.exit1396
  call void @_ZN7testing16AssertionSuccessEv(ptr nonnull sret(%"class.testing::AssertionResult") align 8 %gtest_ar486)
  br label %_ZN7testing8internal8EqHelper7CompareImmLPv0EEENS_15AssertionResultEPKcS6_RKT_RKT0_.exit1400

if.end.i.i1399:                                   ; preds = %_ZN7testing15AssertionResultD2Ev.exit1396
  call void @_ZN7testing8internal18CmpHelperEQFailureImmEENS_15AssertionResultEPKcS4_RKT_RKT0_(ptr nonnull sret(%"class.testing::AssertionResult") align 8 %gtest_ar486, ptr noundef nonnull @.str.26, ptr noundef nonnull @.str.15, ptr noundef nonnull align 8 dereferenceable(8) %ref.tmp487, ptr noundef nonnull align 8 dereferenceable(8) %pos446)
  br label %_ZN7testing8internal8EqHelper7CompareImmLPv0EEENS_15AssertionResultEPKcS6_RKT_RKT0_.exit1400

_ZN7testing8internal8EqHelper7CompareImmLPv0EEENS_15AssertionResultEPKcS6_RKT_RKT0_.exit1400: ; preds = %if.then.i.i1398, %if.end.i.i1399
  call void @llvm.lifetime.end.p0(i64 8, ptr nonnull %ref.tmp487) #24
  %282 = load i8, ptr %gtest_ar486, align 8, !tbaa !27, !range !36, !noundef !37
  %tobool.i1401.not = icmp eq i8 %282, 0
  br i1 %tobool.i1401.not, label %if.else492, label %if.end507

ehcleanup485:                                     ; preds = %ehcleanup482, %ehcleanup459
  %.pn680.pn.pn = phi { ptr, i32 } [ %.pn680.pn, %ehcleanup482 ], [ %eh.lpad-body1360, %ehcleanup459 ]
  call void @llvm.lifetime.end.p0(i64 16, ptr nonnull %gtest_ar447) #24
  br label %ehcleanup510

if.else492:                                       ; preds = %_ZN7testing8internal8EqHelper7CompareImmLPv0EEENS_15AssertionResultEPKcS6_RKT_RKT0_.exit1400
  call void @llvm.lifetime.start.p0(i64 8, ptr nonnull %ref.tmp493) #24
  invoke void @_ZN7testing7MessageC1Ev(ptr noundef nonnull align 8 dereferenceable(8) %ref.tmp493)
          to label %invoke.cont495 unwind label %lpad494

invoke.cont495:                                   ; preds = %if.else492
  call void @llvm.lifetime.start.p0(i64 8, ptr nonnull %ref.tmp496) #24
  %message_.i.i1402 = getelementptr inbounds %"class.testing::AssertionResult", ptr %gtest_ar486, i64 0, i32 1
  %283 = load ptr, ptr %message_.i.i1402, align 8, !tbaa !25
  %cmp.not.i.i1403 = icmp eq ptr %283, null
  br i1 %cmp.not.i.i1403, label %invoke.cont498, label %cond.true.i.i1404

cond.true.i.i1404:                                ; preds = %invoke.cont495
  %284 = load ptr, ptr %283, align 8, !tbaa !26
  br label %invoke.cont498

invoke.cont498:                                   ; preds = %cond.true.i.i1404, %invoke.cont495
  %cond.i.i1405 = phi ptr [ %284, %cond.true.i.i1404 ], [ @.str.44, %invoke.cont495 ]
  invoke void @_ZN7testing8internal12AssertHelperC1ENS_14TestPartResult4TypeEPKciS5_(ptr noundef nonnull align 8 dereferenceable(8) %ref.tmp496, i32 noundef 1, ptr noundef nonnull @.str.4, i32 noundef 63, ptr noundef %cond.i.i1405)
          to label %invoke.cont500 unwind label %lpad497

invoke.cont500:                                   ; preds = %invoke.cont498
  invoke void @_ZNK7testing8internal12AssertHelperaSERKNS_7MessageE(ptr noundef nonnull align 8 dereferenceable(8) %ref.tmp496, ptr noundef nonnull align 8 dereferenceable(8) %ref.tmp493)
          to label %invoke.cont502 unwind label %lpad501

invoke.cont502:                                   ; preds = %invoke.cont500
  call void @_ZN7testing8internal12AssertHelperD1Ev(ptr noundef nonnull align 8 dereferenceable(8) %ref.tmp496) #24
  call void @llvm.lifetime.end.p0(i64 8, ptr nonnull %ref.tmp496) #24
  %285 = load ptr, ptr %ref.tmp493, align 8, !tbaa !25
  %cmp.not.i.i1407 = icmp eq ptr %285, null
  br i1 %cmp.not.i.i1407, label %_ZN7testing7MessageD2Ev.exit1411, label %_ZNKSt14default_deleteINSt7__cxx1118basic_stringstreamIcSt11char_traitsIcESaIcEEEEclEPS5_.exit.i.i1410

_ZNKSt14default_deleteINSt7__cxx1118basic_stringstreamIcSt11char_traitsIcESaIcEEEEclEPS5_.exit.i.i1410: ; preds = %invoke.cont502
  %vtable.i.i.i1408 = load ptr, ptr %285, align 8, !tbaa !5
  %vfn.i.i.i1409 = getelementptr inbounds ptr, ptr %vtable.i.i.i1408, i64 1
  %286 = load ptr, ptr %vfn.i.i.i1409, align 8
  call void %286(ptr noundef nonnull align 8 dereferenceable(128) %285) #24
  br label %_ZN7testing7MessageD2Ev.exit1411

_ZN7testing7MessageD2Ev.exit1411:                 ; preds = %invoke.cont502, %_ZNKSt14default_deleteINSt7__cxx1118basic_stringstreamIcSt11char_traitsIcESaIcEEEEclEPS5_.exit.i.i1410
  call void @llvm.lifetime.end.p0(i64 8, ptr nonnull %ref.tmp493) #24
  br label %if.end507

lpad494:                                          ; preds = %if.else492
  %287 = landingpad { ptr, i32 }
          cleanup
  br label %ehcleanup506

lpad497:                                          ; preds = %invoke.cont498
  %288 = landingpad { ptr, i32 }
          cleanup
  br label %ehcleanup504

lpad501:                                          ; preds = %invoke.cont500
  %289 = landingpad { ptr, i32 }
          cleanup
  call void @_ZN7testing8internal12AssertHelperD1Ev(ptr noundef nonnull align 8 dereferenceable(8) %ref.tmp496) #24
  br label %ehcleanup504

ehcleanup504:                                     ; preds = %lpad501, %lpad497
  %.pn684 = phi { ptr, i32 } [ %289, %lpad501 ], [ %288, %lpad497 ]
  call void @llvm.lifetime.end.p0(i64 8, ptr nonnull %ref.tmp496) #24
  %290 = load ptr, ptr %ref.tmp493, align 8, !tbaa !25
  %cmp.not.i.i1412 = icmp eq ptr %290, null
  br i1 %cmp.not.i.i1412, label %ehcleanup506, label %_ZNKSt14default_deleteINSt7__cxx1118basic_stringstreamIcSt11char_traitsIcESaIcEEEEclEPS5_.exit.i.i1415

_ZNKSt14default_deleteINSt7__cxx1118basic_stringstreamIcSt11char_traitsIcESaIcEEEEclEPS5_.exit.i.i1415: ; preds = %ehcleanup504
  %vtable.i.i.i1413 = load ptr, ptr %290, align 8, !tbaa !5
  %vfn.i.i.i1414 = getelementptr inbounds ptr, ptr %vtable.i.i.i1413, i64 1
  %291 = load ptr, ptr %vfn.i.i.i1414, align 8
  call void %291(ptr noundef nonnull align 8 dereferenceable(128) %290) #24
  br label %ehcleanup506

ehcleanup506:                                     ; preds = %_ZNKSt14default_deleteINSt7__cxx1118basic_stringstreamIcSt11char_traitsIcESaIcEEEEclEPS5_.exit.i.i1415, %ehcleanup504, %lpad494
  %.pn684.pn = phi { ptr, i32 } [ %287, %lpad494 ], [ %.pn684, %ehcleanup504 ], [ %.pn684, %_ZNKSt14default_deleteINSt7__cxx1118basic_stringstreamIcSt11char_traitsIcESaIcEEEEclEPS5_.exit.i.i1415 ]
  call void @llvm.lifetime.end.p0(i64 8, ptr nonnull %ref.tmp493) #24
  call void @_ZN7testing15AssertionResultD2Ev(ptr noundef nonnull align 8 dereferenceable(16) %gtest_ar486) #24
  call void @llvm.lifetime.end.p0(i64 16, ptr nonnull %gtest_ar486) #24
  br label %ehcleanup510

if.end507:                                        ; preds = %_ZN7testing8internal8EqHelper7CompareImmLPv0EEENS_15AssertionResultEPKcS6_RKT_RKT0_.exit1400, %_ZN7testing7MessageD2Ev.exit1411
  %message_.i1417 = getelementptr inbounds %"class.testing::AssertionResult", ptr %gtest_ar486, i64 0, i32 1
  %292 = load ptr, ptr %message_.i1417, align 8, !tbaa !25
  %cmp.not.i.i1418 = icmp eq ptr %292, null
  br i1 %cmp.not.i.i1418, label %if.then514, label %delete.notnull.i.i.i1420

delete.notnull.i.i.i1420:                         ; preds = %if.end507
  %293 = load ptr, ptr %292, align 8, !tbaa !26
  %294 = getelementptr inbounds %"class.std::__cxx11::basic_string", ptr %292, i64 0, i32 2
  %cmp.i.i.i.i.i.i1419 = icmp eq ptr %293, %294
  br i1 %cmp.i.i.i.i.i.i1419, label %_ZNKSt14default_deleteINSt7__cxx1112basic_stringIcSt11char_traitsIcESaIcEEEEclEPS5_.exit.i.i1422, label %if.then.i.i.i.i.i1421

if.then.i.i.i.i.i1421:                            ; preds = %delete.notnull.i.i.i1420
  call void @_ZdlPv(ptr noundef %293) #26
  br label %_ZNKSt14default_deleteINSt7__cxx1112basic_stringIcSt11char_traitsIcESaIcEEEEclEPS5_.exit.i.i1422

_ZNKSt14default_deleteINSt7__cxx1112basic_stringIcSt11char_traitsIcESaIcEEEEclEPS5_.exit.i.i1422: ; preds = %if.then.i.i.i.i.i1421, %delete.notnull.i.i.i1420
  call void @_ZdlPv(ptr noundef nonnull %292) #26
  br label %if.then514

if.then514:                                       ; preds = %_ZNKSt14default_deleteINSt7__cxx1112basic_stringIcSt11char_traitsIcESaIcEEEEclEPS5_.exit.i.i1422, %if.end507
  call void @llvm.lifetime.end.p0(i64 16, ptr nonnull %gtest_ar486) #24
  call void @llvm.lifetime.end.p0(i64 8, ptr nonnull %pos446) #24
  call void @llvm.lifetime.start.p0(i64 32, ptr nonnull %gtest_msg) #24
  %295 = getelementptr inbounds i8, ptr %gtest_msg, i64 16
  call void @llvm.memset.p0.i64(ptr noundef nonnull align 8 dereferenceable(32) %295, i8 0, i64 16, i1 false)
  %296 = getelementptr inbounds %"class.std::__cxx11::basic_string", ptr %gtest_msg, i64 0, i32 2
  store ptr %296, ptr %gtest_msg, align 8, !tbaa !19
  %_M_string_length.i.i.i.i1424 = getelementptr inbounds %"class.std::__cxx11::basic_string", ptr %gtest_msg, i64 0, i32 1
  store i64 0, ptr %_M_string_length.i.i.i.i1424, align 8, !tbaa !22
  %call517 = invoke noundef zeroext i1 @_ZN7testing8internal10AlwaysTrueEv()
          to label %invoke.cont516 unwind label %lpad515

invoke.cont516:                                   ; preds = %if.then514
  br i1 %call517, label %if.then518, label %if.then576.critedge

if.then518:                                       ; preds = %invoke.cont516
  call void @llvm.lifetime.start.p0(i64 32, ptr nonnull %ref.tmp519) #24
  %297 = getelementptr inbounds %"class.std::__cxx11::basic_string", ptr %ref.tmp519, i64 0, i32 2
  store ptr %297, ptr %ref.tmp519, align 8, !tbaa !19
  call void @llvm.memcpy.p0.p0.i64(ptr noundef nonnull align 8 dereferenceable(14) %297, ptr noundef nonnull align 1 dereferenceable(14) @.str.36, i64 14, i1 false)
  %_M_string_length.i.i.i.i1432 = getelementptr inbounds %"class.std::__cxx11::basic_string", ptr %ref.tmp519, i64 0, i32 1
  store i64 14, ptr %_M_string_length.i.i.i.i1432, align 8, !tbaa !22
  %arrayidx.i.i.i1433 = getelementptr inbounds %"class.std::__cxx11::basic_string", ptr %ref.tmp519, i64 0, i32 2, i32 1, i64 6
  store i8 0, ptr %arrayidx.i.i.i1433, align 2, !tbaa !21
  call void @llvm.lifetime.start.p0(i64 8, ptr nonnull %__endptr.i.i1437) #24
  %298 = load i32, ptr %call.i.i.i, align 4, !tbaa !24
  store i32 0, ptr %call.i.i.i, align 4, !tbaa !24
  %call.i.i1439 = call noundef i64 @strtoul(ptr noundef nonnull %297, ptr noundef nonnull %__endptr.i.i1437, i32 noundef 10)
  %299 = load ptr, ptr %__endptr.i.i1437, align 8, !tbaa !25
  %cmp.i.i1440 = icmp eq ptr %299, %297
  br i1 %cmp.i.i1440, label %if.then.i.i1441, label %if.else.i.i1448

if.then.i.i1441:                                  ; preds = %if.then518
  invoke void @_ZSt24__throw_invalid_argumentPKc(ptr noundef nonnull @.str.3) #29
          to label %invoke.cont1.i.i1442 unwind label %lpad.i.i1444

invoke.cont1.i.i1442:                             ; preds = %if.then.i.i1441
  unreachable

lpad.i.i1444:                                     ; preds = %if.then7.i.i1449, %if.then.i.i1441
  %300 = landingpad { ptr, i32 }
          catch ptr @_ZTISt16invalid_argument
          catch ptr @_ZTISt9exception
          catch ptr null
  %301 = load i32, ptr %call.i.i.i, align 4, !tbaa !24
  %cmp.i.i.i1443 = icmp eq i32 %301, 0
  br i1 %cmp.i.i.i1443, label %if.then.i.i.i1445, label %_ZZN9__gnu_cxx6__stoaImmcJiEEET0_PFT_PKT1_PPS3_DpT2_EPKcS5_PmS9_EN11_Save_errnoD2Ev.exit.i.i1446

if.then.i.i.i1445:                                ; preds = %lpad.i.i1444
  store i32 %298, ptr %call.i.i.i, align 4, !tbaa !24
  br label %_ZZN9__gnu_cxx6__stoaImmcJiEEET0_PFT_PKT1_PPS3_DpT2_EPKcS5_PmS9_EN11_Save_errnoD2Ev.exit.i.i1446

_ZZN9__gnu_cxx6__stoaImmcJiEEET0_PFT_PKT1_PPS3_DpT2_EPKcS5_PmS9_EN11_Save_errnoD2Ev.exit.i.i1446: ; preds = %if.then.i.i.i1445, %lpad.i.i1444
  call void @llvm.lifetime.end.p0(i64 8, ptr nonnull %__endptr.i.i1437) #24
  %302 = load ptr, ptr %ref.tmp519, align 8, !tbaa !26
  %cmp.i.i.i1459 = icmp eq ptr %302, %297
  br i1 %cmp.i.i.i1459, label %ehcleanup527, label %if.then.i.i1460

if.else.i.i1448:                                  ; preds = %if.then518
  %303 = load i32, ptr %call.i.i.i, align 4, !tbaa !24
  switch i32 %303, label %invoke.cont524 [
    i32 34, label %if.then7.i.i1449
    i32 0, label %if.then.i26.i.i1453
  ]

if.then7.i.i1449:                                 ; preds = %if.else.i.i1448
  invoke void @_ZSt20__throw_out_of_rangePKc(ptr noundef nonnull @.str.3) #29
          to label %invoke.cont8.i.i1450 unwind label %lpad.i.i1444

invoke.cont8.i.i1450:                             ; preds = %if.then7.i.i1449
  unreachable

if.then.i26.i.i1453:                              ; preds = %if.else.i.i1448
  store i32 %298, ptr %call.i.i.i, align 4, !tbaa !24
  br label %invoke.cont524

invoke.cont524:                                   ; preds = %if.else.i.i1448, %if.then.i26.i.i1453
  call void @llvm.lifetime.end.p0(i64 8, ptr nonnull %__endptr.i.i1437) #24
  %304 = load ptr, ptr %ref.tmp519, align 8, !tbaa !26
  %cmp.i.i.i1456 = icmp eq ptr %304, %297
  br i1 %cmp.i.i.i1456, label %_ZNSt7__cxx1112basic_stringIcSt11char_traitsIcESaIcEED2Ev.exit1458, label %if.then.i.i1457

if.then.i.i1457:                                  ; preds = %invoke.cont524
  call void @_ZdlPv(ptr noundef %304) #26
  br label %_ZNSt7__cxx1112basic_stringIcSt11char_traitsIcESaIcEED2Ev.exit1458

_ZNSt7__cxx1112basic_stringIcSt11char_traitsIcESaIcEED2Ev.exit1458: ; preds = %invoke.cont524, %if.then.i.i1457
  call void @llvm.lifetime.end.p0(i64 32, ptr nonnull %ref.tmp519) #24
  br label %if.then576.critedge

ehcleanup510:                                     ; preds = %ehcleanup506, %ehcleanup485
  %.pn684.pn.pn = phi { ptr, i32 } [ %.pn684.pn, %ehcleanup506 ], [ %.pn680.pn.pn, %ehcleanup485 ]
  call void @llvm.lifetime.end.p0(i64 8, ptr nonnull %pos446) #24
  br label %eh.resume

lpad515:                                          ; preds = %if.then514
  %305 = landingpad { ptr, i32 }
          catch ptr @_ZTISt16invalid_argument
          catch ptr @_ZTISt9exception
          catch ptr null
  br label %catch.dispatch

if.then.i.i1460:                                  ; preds = %_ZZN9__gnu_cxx6__stoaImmcJiEEET0_PFT_PKT1_PPS3_DpT2_EPKcS5_PmS9_EN11_Save_errnoD2Ev.exit.i.i1446
  call void @_ZdlPv(ptr noundef %302) #26
  br label %ehcleanup527

ehcleanup527:                                     ; preds = %if.then.i.i1460, %_ZZN9__gnu_cxx6__stoaImmcJiEEET0_PFT_PKT1_PPS3_DpT2_EPKcS5_PmS9_EN11_Save_errnoD2Ev.exit.i.i1446
  call void @llvm.lifetime.end.p0(i64 32, ptr nonnull %ref.tmp519) #24
  br label %catch.dispatch

catch.dispatch:                                   ; preds = %ehcleanup527, %lpad515
  %.pn701.pn = phi { ptr, i32 } [ %300, %ehcleanup527 ], [ %305, %lpad515 ]
  %exn.slot.57 = extractvalue { ptr, i32 } %.pn701.pn, 0
  %ehselector.slot.57 = extractvalue { ptr, i32 } %.pn701.pn, 1
  %306 = call i32 @llvm.eh.typeid.for(ptr nonnull @_ZTISt16invalid_argument) #24
  %matches = icmp eq i32 %ehselector.slot.57, %306
  br i1 %matches, label %catch571, label %catch.fallthrough

catch571:                                         ; preds = %catch.dispatch
  %307 = call ptr @__cxa_begin_catch(ptr %exn.slot.57) #24
  invoke void @__cxa_end_catch()
          to label %cleanup598 unwind label %lpad573

if.then576.critedge:                              ; preds = %invoke.cont516, %_ZNSt7__cxx1112basic_stringIcSt11char_traitsIcESaIcEED2Ev.exit1458
  %308 = load i64, ptr %_M_string_length.i.i.i.i1424, align 8, !tbaa !22
  %call3.i.i1463 = invoke noundef nonnull align 8 dereferenceable(32) ptr @_ZNSt7__cxx1112basic_stringIcSt11char_traitsIcESaIcEE10_M_replaceEmmPKcm(ptr noundef nonnull align 8 dereferenceable(32) %gtest_msg, i64 noundef 0, i64 noundef %308, ptr noundef nonnull @.str.41, i64 noundef 124)
          to label %gtest_label_testthrow_66 unwind label %lpad536

catch.fallthrough:                                ; preds = %catch.dispatch
  %309 = call i32 @llvm.eh.typeid.for(ptr nonnull @_ZTISt9exception) #24
  %matches532 = icmp eq i32 %ehselector.slot.57, %309
  %310 = call ptr @__cxa_begin_catch(ptr %exn.slot.57) #24
  br i1 %matches532, label %catch540, label %catch

catch540:                                         ; preds = %catch.fallthrough
  %call545 = invoke noundef nonnull align 8 dereferenceable(32) ptr @_ZNSt7__cxx1112basic_stringIcSt11char_traitsIcESaIcEEaSEPKc(ptr noundef nonnull align 8 dereferenceable(32) %gtest_msg, ptr noundef nonnull @.str.38)
          to label %invoke.cont544 unwind label %lpad543

invoke.cont544:                                   ; preds = %catch540
  call void @llvm.lifetime.start.p0(i64 32, ptr nonnull %ref.tmp546) #24
  %vtable = load ptr, ptr %310, align 8, !tbaa !5
  %311 = getelementptr inbounds ptr, ptr %vtable, i64 -1
  %312 = load ptr, ptr %311, align 8
  invoke void @_ZN7testing8internal11GetTypeNameB5cxx11ERKSt9type_info(ptr nonnull sret(%"class.std::__cxx11::basic_string") align 8 %ref.tmp546, ptr noundef nonnull align 8 dereferenceable(16) %312)
          to label %invoke.cont548 unwind label %lpad547

invoke.cont548:                                   ; preds = %invoke.cont544
  %call552 = invoke noundef nonnull align 8 dereferenceable(32) ptr @_ZNSt7__cxx1112basic_stringIcSt11char_traitsIcESaIcEEpLERKS4_(ptr noundef nonnull align 8 dereferenceable(32) %gtest_msg, ptr noundef nonnull align 8 dereferenceable(32) %ref.tmp546)
          to label %invoke.cont551 unwind label %lpad550

invoke.cont551:                                   ; preds = %invoke.cont548
  %313 = load ptr, ptr %ref.tmp546, align 8, !tbaa !26
  %314 = getelementptr inbounds %"class.std::__cxx11::basic_string", ptr %ref.tmp546, i64 0, i32 2
  %cmp.i.i.i1464 = icmp eq ptr %313, %314
  br i1 %cmp.i.i.i1464, label %_ZNSt7__cxx1112basic_stringIcSt11char_traitsIcESaIcEED2Ev.exit1466, label %if.then.i.i1465

if.then.i.i1465:                                  ; preds = %invoke.cont551
  call void @_ZdlPv(ptr noundef %313) #26
  br label %_ZNSt7__cxx1112basic_stringIcSt11char_traitsIcESaIcEED2Ev.exit1466

_ZNSt7__cxx1112basic_stringIcSt11char_traitsIcESaIcEED2Ev.exit1466: ; preds = %invoke.cont551, %if.then.i.i1465
  call void @llvm.lifetime.end.p0(i64 32, ptr nonnull %ref.tmp546) #24
  %call557 = invoke noundef nonnull align 8 dereferenceable(32) ptr @_ZNSt7__cxx1112basic_stringIcSt11char_traitsIcESaIcEEpLEPKc(ptr noundef nonnull align 8 dereferenceable(32) %gtest_msg, ptr noundef nonnull @.str.39)
          to label %invoke.cont556 unwind label %lpad543

invoke.cont556:                                   ; preds = %_ZNSt7__cxx1112basic_stringIcSt11char_traitsIcESaIcEED2Ev.exit1466
  %vtable558 = load ptr, ptr %310, align 8, !tbaa !5
  %vfn = getelementptr inbounds ptr, ptr %vtable558, i64 2
  %315 = load ptr, ptr %vfn, align 8
  %call559 = call noundef ptr %315(ptr noundef nonnull align 8 dereferenceable(8) %310) #24
  %call562 = invoke noundef nonnull align 8 dereferenceable(32) ptr @_ZNSt7__cxx1112basic_stringIcSt11char_traitsIcESaIcEEpLEPKc(ptr noundef nonnull align 8 dereferenceable(32) %gtest_msg, ptr noundef %call559)
          to label %invoke.cont561 unwind label %lpad543

invoke.cont561:                                   ; preds = %invoke.cont556
  %call565 = invoke noundef nonnull align 8 dereferenceable(32) ptr @_ZNSt7__cxx1112basic_stringIcSt11char_traitsIcESaIcEEpLEPKc(ptr noundef nonnull align 8 dereferenceable(32) %gtest_msg, ptr noundef nonnull @.str.40)
          to label %invoke.cont564 unwind label %lpad543

invoke.cont564:                                   ; preds = %invoke.cont561
  invoke void @__cxa_end_catch()
          to label %gtest_label_testthrow_66 unwind label %lpad566

catch:                                            ; preds = %catch.fallthrough
  %call535 = invoke noundef nonnull align 8 dereferenceable(32) ptr @_ZNSt7__cxx1112basic_stringIcSt11char_traitsIcESaIcEEaSEPKc(ptr noundef nonnull align 8 dereferenceable(32) %gtest_msg, ptr noundef nonnull @.str.37)
          to label %invoke.cont534 unwind label %lpad533

invoke.cont534:                                   ; preds = %catch
  invoke void @__cxa_end_catch()
          to label %gtest_label_testthrow_66 unwind label %lpad536

lpad533:                                          ; preds = %catch
  %316 = landingpad { ptr, i32 }
          cleanup
  invoke void @__cxa_end_catch()
          to label %ehcleanup599 unwind label %terminate.lpad

lpad536:                                          ; preds = %if.then576.critedge, %invoke.cont534
  %317 = landingpad { ptr, i32 }
          cleanup
  br label %ehcleanup599

lpad543:                                          ; preds = %invoke.cont561, %invoke.cont556, %_ZNSt7__cxx1112basic_stringIcSt11char_traitsIcESaIcEED2Ev.exit1466, %catch540
  %318 = landingpad { ptr, i32 }
          cleanup
  br label %ehcleanup568

lpad547:                                          ; preds = %invoke.cont544
  %319 = landingpad { ptr, i32 }
          cleanup
  br label %ehcleanup554

lpad550:                                          ; preds = %invoke.cont548
  %320 = landingpad { ptr, i32 }
          cleanup
  %321 = load ptr, ptr %ref.tmp546, align 8, !tbaa !26
  %322 = getelementptr inbounds %"class.std::__cxx11::basic_string", ptr %ref.tmp546, i64 0, i32 2
  %cmp.i.i.i1467 = icmp eq ptr %321, %322
  br i1 %cmp.i.i.i1467, label %ehcleanup554, label %if.then.i.i1468

if.then.i.i1468:                                  ; preds = %lpad550
  call void @_ZdlPv(ptr noundef %321) #26
  br label %ehcleanup554

ehcleanup554:                                     ; preds = %if.then.i.i1468, %lpad550, %lpad547
  %.pn691 = phi { ptr, i32 } [ %319, %lpad547 ], [ %320, %lpad550 ], [ %320, %if.then.i.i1468 ]
  call void @llvm.lifetime.end.p0(i64 32, ptr nonnull %ref.tmp546) #24
  br label %ehcleanup568

lpad566:                                          ; preds = %invoke.cont564
  %323 = landingpad { ptr, i32 }
          cleanup
  br label %ehcleanup599

ehcleanup568:                                     ; preds = %ehcleanup554, %lpad543
  %.pn692 = phi { ptr, i32 } [ %318, %lpad543 ], [ %.pn691, %ehcleanup554 ]
  invoke void @__cxa_end_catch()
          to label %ehcleanup599 unwind label %terminate.lpad

lpad573:                                          ; preds = %catch571
  %324 = landingpad { ptr, i32 }
          cleanup
  br label %ehcleanup599

gtest_label_testthrow_66:                         ; preds = %invoke.cont534, %invoke.cont564, %if.then576.critedge
  call void @llvm.lifetime.start.p0(i64 8, ptr nonnull %ref.tmp583) #24
  invoke void @_ZN7testing7MessageC1Ev(ptr noundef nonnull align 8 dereferenceable(8) %ref.tmp583)
          to label %invoke.cont585 unwind label %lpad584

invoke.cont585:                                   ; preds = %gtest_label_testthrow_66
  call void @llvm.lifetime.start.p0(i64 8, ptr nonnull %ref.tmp586) #24
  %325 = load ptr, ptr %gtest_msg, align 8, !tbaa !26
  invoke void @_ZN7testing8internal12AssertHelperC1ENS_14TestPartResult4TypeEPKciS5_(ptr noundef nonnull align 8 dereferenceable(8) %ref.tmp586, i32 noundef 2, ptr noundef nonnull @.str.4, i32 noundef 66, ptr noundef %325)
          to label %invoke.cont590 unwind label %lpad589

invoke.cont590:                                   ; preds = %invoke.cont585
  invoke void @_ZNK7testing8internal12AssertHelperaSERKNS_7MessageE(ptr noundef nonnull align 8 dereferenceable(8) %ref.tmp586, ptr noundef nonnull align 8 dereferenceable(8) %ref.tmp583)
          to label %invoke.cont592 unwind label %lpad591

invoke.cont592:                                   ; preds = %invoke.cont590
  call void @_ZN7testing8internal12AssertHelperD1Ev(ptr noundef nonnull align 8 dereferenceable(8) %ref.tmp586) #24
  call void @llvm.lifetime.end.p0(i64 8, ptr nonnull %ref.tmp586) #24
  %326 = load ptr, ptr %ref.tmp583, align 8, !tbaa !25
  %cmp.not.i.i1470 = icmp eq ptr %326, null
  br i1 %cmp.not.i.i1470, label %_ZN7testing7MessageD2Ev.exit1474, label %_ZNKSt14default_deleteINSt7__cxx1118basic_stringstreamIcSt11char_traitsIcESaIcEEEEclEPS5_.exit.i.i1473

_ZNKSt14default_deleteINSt7__cxx1118basic_stringstreamIcSt11char_traitsIcESaIcEEEEclEPS5_.exit.i.i1473: ; preds = %invoke.cont592
  %vtable.i.i.i1471 = load ptr, ptr %326, align 8, !tbaa !5
  %vfn.i.i.i1472 = getelementptr inbounds ptr, ptr %vtable.i.i.i1471, i64 1
  %327 = load ptr, ptr %vfn.i.i.i1472, align 8
  call void %327(ptr noundef nonnull align 8 dereferenceable(128) %326) #24
  br label %_ZN7testing7MessageD2Ev.exit1474

_ZN7testing7MessageD2Ev.exit1474:                 ; preds = %invoke.cont592, %_ZNKSt14default_deleteINSt7__cxx1118basic_stringstreamIcSt11char_traitsIcESaIcEEEEclEPS5_.exit.i.i1473
  call void @llvm.lifetime.end.p0(i64 8, ptr nonnull %ref.tmp583) #24
  br label %cleanup598

lpad584:                                          ; preds = %gtest_label_testthrow_66
  %328 = landingpad { ptr, i32 }
          cleanup
  br label %ehcleanup596

lpad589:                                          ; preds = %invoke.cont585
  %329 = landingpad { ptr, i32 }
          cleanup
  br label %ehcleanup594

lpad591:                                          ; preds = %invoke.cont590
  %330 = landingpad { ptr, i32 }
          cleanup
  call void @_ZN7testing8internal12AssertHelperD1Ev(ptr noundef nonnull align 8 dereferenceable(8) %ref.tmp586) #24
  br label %ehcleanup594

ehcleanup594:                                     ; preds = %lpad591, %lpad589
  %.pn688 = phi { ptr, i32 } [ %330, %lpad591 ], [ %329, %lpad589 ]
  call void @llvm.lifetime.end.p0(i64 8, ptr nonnull %ref.tmp586) #24
  %331 = load ptr, ptr %ref.tmp583, align 8, !tbaa !25
  %cmp.not.i.i1475 = icmp eq ptr %331, null
  br i1 %cmp.not.i.i1475, label %ehcleanup596, label %_ZNKSt14default_deleteINSt7__cxx1118basic_stringstreamIcSt11char_traitsIcESaIcEEEEclEPS5_.exit.i.i1478

_ZNKSt14default_deleteINSt7__cxx1118basic_stringstreamIcSt11char_traitsIcESaIcEEEEclEPS5_.exit.i.i1478: ; preds = %ehcleanup594
  %vtable.i.i.i1476 = load ptr, ptr %331, align 8, !tbaa !5
  %vfn.i.i.i1477 = getelementptr inbounds ptr, ptr %vtable.i.i.i1476, i64 1
  %332 = load ptr, ptr %vfn.i.i.i1477, align 8
  call void %332(ptr noundef nonnull align 8 dereferenceable(128) %331) #24
  br label %ehcleanup596

ehcleanup596:                                     ; preds = %_ZNKSt14default_deleteINSt7__cxx1118basic_stringstreamIcSt11char_traitsIcESaIcEEEEclEPS5_.exit.i.i1478, %ehcleanup594, %lpad584
  %.pn688.pn = phi { ptr, i32 } [ %328, %lpad584 ], [ %.pn688, %ehcleanup594 ], [ %.pn688, %_ZNKSt14default_deleteINSt7__cxx1118basic_stringstreamIcSt11char_traitsIcESaIcEEEEclEPS5_.exit.i.i1478 ]
  call void @llvm.lifetime.end.p0(i64 8, ptr nonnull %ref.tmp583) #24
  br label %ehcleanup599

cleanup598:                                       ; preds = %catch571, %_ZN7testing7MessageD2Ev.exit1474
  %333 = load ptr, ptr %gtest_msg, align 8, !tbaa !26
  %cmp.i.i.i.i = icmp eq ptr %333, %296
  br i1 %cmp.i.i.i.i, label %_ZN7testing8internal14TrueWithStringD2Ev.exit, label %if.then.i.i.i1480

if.then.i.i.i1480:                                ; preds = %cleanup598
  call void @_ZdlPv(ptr noundef %333) #26
  br label %_ZN7testing8internal14TrueWithStringD2Ev.exit

_ZN7testing8internal14TrueWithStringD2Ev.exit:    ; preds = %cleanup598, %if.then.i.i.i1480
  call void @llvm.lifetime.end.p0(i64 32, ptr nonnull %gtest_msg) #24
  ret void

ehcleanup599:                                     ; preds = %lpad536, %lpad573, %lpad533, %ehcleanup568, %lpad566, %ehcleanup596
  %.pn688.pn.pn = phi { ptr, i32 } [ %.pn688.pn, %ehcleanup596 ], [ %317, %lpad536 ], [ %324, %lpad573 ], [ %316, %lpad533 ], [ %323, %lpad566 ], [ %.pn692, %ehcleanup568 ]
  %334 = load ptr, ptr %gtest_msg, align 8, !tbaa !26
  %cmp.i.i.i.i1481 = icmp eq ptr %334, %296
  br i1 %cmp.i.i.i.i1481, label %_ZN7testing8internal14TrueWithStringD2Ev.exit1483, label %if.then.i.i.i1482

if.then.i.i.i1482:                                ; preds = %ehcleanup599
  call void @_ZdlPv(ptr noundef %334) #26
  br label %_ZN7testing8internal14TrueWithStringD2Ev.exit1483

_ZN7testing8internal14TrueWithStringD2Ev.exit1483: ; preds = %ehcleanup599, %if.then.i.i.i1482
  call void @llvm.lifetime.end.p0(i64 32, ptr nonnull %gtest_msg) #24
  br label %eh.resume

eh.resume:                                        ; preds = %_ZN7testing8internal14TrueWithStringD2Ev.exit1483, %ehcleanup510, %ehcleanup445, %ehcleanup380, %ehcleanup315, %ehcleanup250, %ehcleanup185, %ehcleanup120, %ehcleanup55
  %.pn688.pn.pn.pn = phi { ptr, i32 } [ %.pn688.pn.pn, %_ZN7testing8internal14TrueWithStringD2Ev.exit1483 ], [ %.pn684.pn.pn, %ehcleanup510 ], [ %.pn674.pn.pn, %ehcleanup445 ], [ %.pn664.pn.pn, %ehcleanup380 ], [ %.pn654.pn.pn, %ehcleanup315 ], [ %.pn644.pn.pn, %ehcleanup250 ], [ %.pn634.pn.pn, %ehcleanup185 ], [ %.pn624.pn.pn, %ehcleanup120 ], [ %.pn614.pn.pn, %ehcleanup55 ]
  resume { ptr, i32 } %.pn688.pn.pn.pn

terminate.lpad:                                   ; preds = %ehcleanup568, %lpad533
  %335 = landingpad { ptr, i32 }
          catch ptr null
  %336 = extractvalue { ptr, i32 } %335, 0
  call void @__clang_call_terminate(ptr %336) #25
  unreachable
}

; Function Attrs: mustprogress nounwind uwtable
define linkonce_odr hidden noundef ptr @_ZN7testing4Test5SetupEv(ptr noundef nonnull align 8 dereferenceable(16) %this) unnamed_addr #12 comdat align 2 {
entry:
  ret ptr null
}

declare void @_ZN7testing7MessageC1Ev(ptr noundef nonnull align 8 dereferenceable(8)) unnamed_addr #0

declare void @_ZN7testing8internal12AssertHelperC1ENS_14TestPartResult4TypeEPKciS5_(ptr noundef nonnull align 8 dereferenceable(8), i32 noundef, ptr noundef, i32 noundef, ptr noundef) unnamed_addr #0

declare void @_ZNK7testing8internal12AssertHelperaSERKNS_7MessageE(ptr noundef nonnull align 8 dereferenceable(8), ptr noundef nonnull align 8 dereferenceable(8)) local_unnamed_addr #0

; Function Attrs: nounwind
declare void @_ZN7testing8internal12AssertHelperD1Ev(ptr noundef nonnull align 8 dereferenceable(8)) unnamed_addr #1

; Function Attrs: inlinehint nounwind uwtable
define linkonce_odr hidden void @_ZN7testing15AssertionResultD2Ev(ptr noundef nonnull align 8 dereferenceable(16) %this) unnamed_addr #10 comdat align 2 personality ptr @__gxx_personality_v0 {
entry:
  %message_ = getelementptr inbounds %"class.testing::AssertionResult", ptr %this, i64 0, i32 1
  %0 = load ptr, ptr %message_, align 8, !tbaa !25
  %cmp.not.i = icmp eq ptr %0, null
  br i1 %cmp.not.i, label %_ZNSt10unique_ptrINSt7__cxx1112basic_stringIcSt11char_traitsIcESaIcEEESt14default_deleteIS5_EED2Ev.exit, label %delete.notnull.i.i

delete.notnull.i.i:                               ; preds = %entry
  %1 = load ptr, ptr %0, align 8, !tbaa !26
  %2 = getelementptr inbounds %"class.std::__cxx11::basic_string", ptr %0, i64 0, i32 2
  %cmp.i.i.i.i.i = icmp eq ptr %1, %2
  br i1 %cmp.i.i.i.i.i, label %_ZNKSt14default_deleteINSt7__cxx1112basic_stringIcSt11char_traitsIcESaIcEEEEclEPS5_.exit.i, label %if.then.i.i.i.i

if.then.i.i.i.i:                                  ; preds = %delete.notnull.i.i
  tail call void @_ZdlPv(ptr noundef %1) #26
  br label %_ZNKSt14default_deleteINSt7__cxx1112basic_stringIcSt11char_traitsIcESaIcEEEEclEPS5_.exit.i

_ZNKSt14default_deleteINSt7__cxx1112basic_stringIcSt11char_traitsIcESaIcEEEEclEPS5_.exit.i: ; preds = %if.then.i.i.i.i, %delete.notnull.i.i
  tail call void @_ZdlPv(ptr noundef nonnull %0) #26
  br label %_ZNSt10unique_ptrINSt7__cxx1112basic_stringIcSt11char_traitsIcESaIcEEESt14default_deleteIS5_EED2Ev.exit

_ZNSt10unique_ptrINSt7__cxx1112basic_stringIcSt11char_traitsIcESaIcEEESt14default_deleteIS5_EED2Ev.exit: ; preds = %entry, %_ZNKSt14default_deleteINSt7__cxx1112basic_stringIcSt11char_traitsIcESaIcEEEEclEPS5_.exit.i
  store ptr null, ptr %message_, align 8, !tbaa !25
  ret void
}

; Function Attrs: mustprogress nocallback nofree nounwind willreturn memory(argmem: write)
declare void @llvm.memset.p0.i64(ptr nocapture writeonly, i8, i64, i1 immarg) #13

declare noundef zeroext i1 @_ZN7testing8internal10AlwaysTrueEv() local_unnamed_addr #0

; Function Attrs: nofree nosync nounwind memory(none)
declare i32 @llvm.eh.typeid.for(ptr) #14

; Function Attrs: mustprogress uwtable
declare noundef nonnull align 8 dereferenceable(32) ptr @_ZNSt7__cxx1112basic_stringIcSt11char_traitsIcESaIcEEaSEPKc(ptr noundef nonnull align 8 dereferenceable(32), ptr noundef) local_unnamed_addr #4 align 2

declare void @__cxa_end_catch() local_unnamed_addr

; Function Attrs: inlinehint uwtable
define linkonce_odr hidden void @_ZN7testing8internal11GetTypeNameB5cxx11ERKSt9type_info(ptr noalias sret(%"class.std::__cxx11::basic_string") align 8 %agg.result, ptr noundef nonnull align 8 dereferenceable(16) %type) local_unnamed_addr #15 comdat personality ptr @__gxx_personality_v0 {
entry:
  %__dnew.i.i17 = alloca i64, align 8
  %__dnew.i.i = alloca i64, align 8
  %status = alloca i32, align 4
  %name_str = alloca %"class.std::__cxx11::basic_string", align 8
  %agg.tmp = alloca %"class.std::__cxx11::basic_string", align 8
  %__name.i = getelementptr inbounds %"class.std::type_info", ptr %type, i64 0, i32 1
  %0 = load ptr, ptr %__name.i, align 8, !tbaa !113
  %1 = load i8, ptr %0, align 1, !tbaa !21
  %cmp.i = icmp eq i8 %1, 42
  %cond.idx.i = zext i1 %cmp.i to i64
  %cond.i = getelementptr i8, ptr %0, i64 %cond.idx.i
