; ModuleID = '/usr/local/google/home/aeubanks/repos/test-suite/MultiSource/Benchmarks/7zip/CPP/7zip/UI/Console/Main.cpp'
source_filename = "/usr/local/google/home/aeubanks/repos/test-suite/MultiSource/Benchmarks/7zip/CPP/7zip/UI/Console/Main.cpp"
target datalayout = "e-m:e-p270:32:32-p271:32:32-p272:64:64-i64:64-f80:128-n8:16:32:64-S128"
target triple = "x86_64-unknown-linux-gnu"

%struct.GUID = type { i32, i16, i16, [8 x i8] }
%class.CStdOutStream = type { i8, ptr }
%class.CObjectVector = type { %class.CRecordVector }
%class.CRecordVector = type { %class.CBaseRecordVector }
%class.CBaseRecordVector = type { ptr, i32, i32, ptr, i64 }
%struct.CArchiveCommandLineOptions = type { i8, i8, i8, i8, i8, i8, i8, i8, i8, i8, %"class.NWildcard::CCensor", %struct.CArchiveCommand, %class.CStringBase, i8, %class.CStringBase, i8, i8, i8, %class.CStringBase, i32, %class.CObjectVector, %class.CObjectVector, %class.CObjectVector.1, %struct.CUpdateOptions, %class.CStringBase, i8, i32, i32, i32, %class.CStringBase }
%"class.NWildcard::CCensor" = type { %class.CObjectVector.0 }
%class.CObjectVector.0 = type { %class.CRecordVector }
%struct.CArchiveCommand = type { i32 }
%class.CObjectVector.1 = type { %class.CRecordVector }
%struct.CUpdateOptions = type { %struct.CCompressionMethodMode, %class.CObjectVector.2, i8, %struct.CArchivePath, i8, %class.CStringBase, i8, i8, %class.CStringBase, i8, i8, i8, %class.CStringBase, %class.CStringBase, %class.CRecordVector.3 }
%struct.CCompressionMethodMode = type { i32, %class.CObjectVector.1 }
%class.CObjectVector.2 = type { %class.CRecordVector }
%struct.CArchivePath = type { %class.CStringBase, %class.CStringBase, %class.CStringBase, %class.CStringBase, %class.CStringBase, i8, %class.CStringBase, %class.CStringBase }
%class.CRecordVector.3 = type { %class.CBaseRecordVector }
%class.CStringBase = type { ptr, i32, i32 }
%class.CArchiveCommandLineParser = type { %"class.NCommandLineParser::CParser" }
%"class.NCommandLineParser::CParser" = type { i32, ptr, %class.CObjectVector }
%class.CRecordVector.5 = type { %class.CBaseRecordVector }
%class.COpenCallbackConsole = type { %struct.IOpenCallbackUI, ptr, i8, i8, %class.CStringBase }
%struct.IOpenCallbackUI = type { ptr }
%struct.CExtractOptions = type { i8, i8, i8, i8, i8, i32, i32, %class.CStringBase, %class.CObjectVector.1 }
%struct.CDecompressStat = type { i64, i64, i64, i64, i64, i32 }
%class.CUpdateCallbackConsole = type { %struct.IUpdateCallbackUI2, %class.CPercentPrinter, i8, i8, i8, ptr, i8, i8, i8, %class.CStringBase, i8, %class.CObjectVector, %class.CRecordVector.5, %class.CObjectVector, %class.CRecordVector.5 }
%struct.IUpdateCallbackUI2 = type { %struct.IUpdateCallbackUI }
%struct.IUpdateCallbackUI = type { ptr }
%class.CPercentPrinter = type { i64, i64, i64, i64, i32, ptr }
%struct.CUpdateErrorInfo = type { %struct.CErrorInfo }
%struct.CErrorInfo = type { i32, %class.CStringBase, %class.CStringBase, %class.CStringBase }
%class.CCodecs = type { %struct.IUnknown, %class.CMyUnknownImp, %class.CObjectVector.4 }
%struct.IUnknown = type { ptr }
%class.CMyUnknownImp = type { i32 }
%class.CObjectVector.4 = type { %class.CRecordVector }
%struct.CArcInfoEx = type <{ i8, [7 x i8], ptr, ptr, %class.CStringBase, %class.CObjectVector.6, %class.CBuffer, i8, [7 x i8] }>
%class.CObjectVector.6 = type { %class.CRecordVector }
%class.CBuffer = type { ptr, i64, ptr }
%struct.CArcExtInfo = type { %class.CStringBase, %class.CStringBase }
%class.CExtractCallbackConsole = type { %struct.IExtractCallbackUI, %struct.ICryptoGetTextPassword, %class.CMyUnknownImp, i8, %class.CStringBase, i64, i64, i64, i64, ptr }
%struct.IExtractCallbackUI = type { %struct.IFolderArchiveExtractCallback }
%struct.IFolderArchiveExtractCallback = type { %struct.IProgress }
%struct.IProgress = type { %struct.IUnknown }
%struct.ICryptoGetTextPassword = type { %struct.IUnknown }
%"struct.NWildcard::CPair" = type { %class.CStringBase, %"class.NWildcard::CCensorNode" }
%"class.NWildcard::CCensorNode" = type { ptr, %class.CStringBase, %class.CObjectVector.8, %class.CObjectVector.9, %class.CObjectVector.9 }
%class.CObjectVector.8 = type { %class.CRecordVector }
%class.CObjectVector.9 = type { %class.CRecordVector }
%struct.CUpdateArchiveCommand = type <{ %class.CStringBase, %struct.CArchivePath, %"struct.NUpdateArchive::CActionSet", [4 x i8] }>
%"struct.NUpdateArchive::CActionSet" = type { [7 x i32] }
%struct.CProperty = type { %class.CStringBase, %class.CStringBase }

$_ZN13CObjectVectorI11CStringBaseIwEE6DeleteEii = comdat any

$_ZN26CArchiveCommandLineOptionsC2Ev = comdat any

$_ZN11CStringBaseIwEpLERKS0_ = comdat any

$_ZN11CStringBaseIwEpLEPKw = comdat any

$_ZN11CStringBaseIwEaSERKS0_ = comdat any

$_ZN13CObjectVectorI9CPropertyEaSERKS1_ = comdat any

$_ZN15CExtractOptionsD2Ev = comdat any

$_ZN11CStringBaseIwEaSEPKw = comdat any

$_ZNK12CArchivePath12GetFinalPathEv = comdat any

$_ZN8NWindows6NError16MyFormatMessageWEj = comdat any

$_ZN10CErrorInfoD2Ev = comdat any

$_ZN22CUpdateCallbackConsoleD2Ev = comdat any

$_ZN26CArchiveCommandLineOptionsD2Ev = comdat any

$_ZN13CObjectVectorI11CStringBaseIwEED2Ev = comdat any

$_ZN14CUpdateOptionsC2Ev = comdat any

$_ZN14CUpdateOptionsD2Ev = comdat any

$_ZN13CObjectVectorI9CPropertyED2Ev = comdat any

$_ZN9NWildcard7CCensorD2Ev = comdat any

$_ZN13CObjectVectorIN9NWildcard5CPairEED2Ev = comdat any

$_ZN13CObjectVectorIN9NWildcard5CPairEED0Ev = comdat any

$_ZN13CObjectVectorIN9NWildcard5CPairEE6DeleteEii = comdat any

$__clang_call_terminate = comdat any

$_ZN9NWildcard11CCensorNodeD2Ev = comdat any

$_ZN13CObjectVectorIN9NWildcard5CItemEED2Ev = comdat any

$_ZN13CObjectVectorIN9NWildcard11CCensorNodeEED2Ev = comdat any

$_ZN13CObjectVectorIN9NWildcard5CItemEED0Ev = comdat any

$_ZN13CObjectVectorIN9NWildcard5CItemEE6DeleteEii = comdat any

$_ZN13CObjectVectorIN9NWildcard11CCensorNodeEED0Ev = comdat any

$_ZN13CObjectVectorIN9NWildcard11CCensorNodeEE6DeleteEii = comdat any

$_ZN13CObjectVectorI9CPropertyED0Ev = comdat any

$_ZN13CObjectVectorI9CPropertyE6DeleteEii = comdat any

$_ZN12CArchivePathC2Ev = comdat any

$_ZN12CArchivePathD2Ev = comdat any

$_ZN13CObjectVectorI21CUpdateArchiveCommandED2Ev = comdat any

$_ZN22CCompressionMethodModeD2Ev = comdat any

$_ZN13CObjectVectorI21CUpdateArchiveCommandED0Ev = comdat any

$_ZN13CObjectVectorI21CUpdateArchiveCommandE6DeleteEii = comdat any

$_ZN21CUpdateArchiveCommandD2Ev = comdat any

$_ZN13CRecordVectorIyED0Ev = comdat any

$_ZN7CCodecs14QueryInterfaceERK4GUIDPPv = comdat any

$_ZN7CCodecs6AddRefEv = comdat any

$_ZN7CCodecs7ReleaseEv = comdat any

$_ZN7CCodecsD2Ev = comdat any

$_ZN7CCodecsD0Ev = comdat any

$_ZN13CObjectVectorI10CArcInfoExED2Ev = comdat any

$_ZN13CObjectVectorI10CArcInfoExED0Ev = comdat any

$_ZN13CObjectVectorI10CArcInfoExE6DeleteEii = comdat any

$_ZN7CBufferIhED2Ev = comdat any

$_ZN13CObjectVectorI11CArcExtInfoED2Ev = comdat any

$_ZN7CBufferIhED0Ev = comdat any

$_ZN13CObjectVectorI11CArcExtInfoED0Ev = comdat any

$_ZN13CObjectVectorI11CArcExtInfoE6DeleteEii = comdat any

$_ZN13CObjectVectorI11CStringBaseIwEED0Ev = comdat any

$_ZN13CRecordVectorIiED0Ev = comdat any

$_ZN13CObjectVectorI9CPropertyE3AddERKS0_ = comdat any

$_ZTS16CSystemException = comdat any

$_ZTI16CSystemException = comdat any

$_ZTV13CObjectVectorIN9NWildcard5CPairEE = comdat any

$_ZTS13CObjectVectorIN9NWildcard5CPairEE = comdat any

$_ZTS13CRecordVectorIPvE = comdat any

$_ZTI13CRecordVectorIPvE = comdat any

$_ZTI13CObjectVectorIN9NWildcard5CPairEE = comdat any

$_ZTV13CObjectVectorIN9NWildcard5CItemEE = comdat any

$_ZTS13CObjectVectorIN9NWildcard5CItemEE = comdat any

$_ZTI13CObjectVectorIN9NWildcard5CItemEE = comdat any

$_ZTV13CObjectVectorIN9NWildcard11CCensorNodeEE = comdat any

$_ZTS13CObjectVectorIN9NWildcard11CCensorNodeEE = comdat any

$_ZTI13CObjectVectorIN9NWildcard11CCensorNodeEE = comdat any

$_ZTV13CObjectVectorI9CPropertyE = comdat any

$_ZTS13CObjectVectorI9CPropertyE = comdat any

$_ZTI13CObjectVectorI9CPropertyE = comdat any

$_ZTV13CObjectVectorI21CUpdateArchiveCommandE = comdat any

$_ZTS13CObjectVectorI21CUpdateArchiveCommandE = comdat any

$_ZTI13CObjectVectorI21CUpdateArchiveCommandE = comdat any

$_ZTV13CRecordVectorIyE = comdat any

$_ZTS13CRecordVectorIyE = comdat any

$_ZTI13CRecordVectorIyE = comdat any

$_ZTV7CCodecs = comdat any

$_ZTS7CCodecs = comdat any

$_ZTS8IUnknown = comdat any

$_ZTI8IUnknown = comdat any

$_ZTS13CMyUnknownImp = comdat any

$_ZTI13CMyUnknownImp = comdat any

$_ZTI7CCodecs = comdat any

$_ZTV13CObjectVectorI10CArcInfoExE = comdat any

$_ZTS13CObjectVectorI10CArcInfoExE = comdat any

$_ZTI13CObjectVectorI10CArcInfoExE = comdat any

$_ZTV7CBufferIhE = comdat any

$_ZTS7CBufferIhE = comdat any

$_ZTI7CBufferIhE = comdat any

$_ZTV13CObjectVectorI11CArcExtInfoE = comdat any

$_ZTS13CObjectVectorI11CArcExtInfoE = comdat any

$_ZTI13CObjectVectorI11CArcExtInfoE = comdat any

$_ZTSN9NExitCode5EEnumE = comdat any

$_ZTIN9NExitCode5EEnumE = comdat any

$_ZTV13CObjectVectorI11CStringBaseIwEE = comdat any

$_ZTS13CObjectVectorI11CStringBaseIwEE = comdat any

$_ZTI13CObjectVectorI11CStringBaseIwEE = comdat any

$_ZTV13CRecordVectorIiE = comdat any

$_ZTS13CRecordVectorIiE = comdat any

$_ZTI13CRecordVectorIiE = comdat any

@IID_IUnknown = dso_local local_unnamed_addr constant %struct.GUID { i32 0, i16 0, i16 0, [8 x i8] c"\C0\00\00\00\00\00\00F" }, align 4
@IID_IProgress = dso_local local_unnamed_addr constant %struct.GUID { i32 588713833, i16 16577, i16 10122, [8 x i8] c"\00\00\00\00\00\05\00\00" }, align 4
@IID_ISequentialInStream = dso_local local_unnamed_addr constant %struct.GUID { i32 588713833, i16 16577, i16 10122, [8 x i8] c"\00\00\00\03\00\01\00\00" }, align 4
@IID_ISequentialOutStream = dso_local local_unnamed_addr constant %struct.GUID { i32 588713833, i16 16577, i16 10122, [8 x i8] c"\00\00\00\03\00\02\00\00" }, align 4
@IID_IInStream = dso_local local_unnamed_addr constant %struct.GUID { i32 588713833, i16 16577, i16 10122, [8 x i8] c"\00\00\00\03\00\03\00\00" }, align 4
@IID_IOutStream = dso_local local_unnamed_addr constant %struct.GUID { i32 588713833, i16 16577, i16 10122, [8 x i8] c"\00\00\00\03\00\04\00\00" }, align 4
@IID_IStreamGetSize = dso_local local_unnamed_addr constant %struct.GUID { i32 588713833, i16 16577, i16 10122, [8 x i8] c"\00\00\00\03\00\06\00\00" }, align 4
@IID_IOutStreamFlush = dso_local local_unnamed_addr constant %struct.GUID { i32 588713833, i16 16577, i16 10122, [8 x i8] c"\00\00\00\03\00\07\00\00" }, align 4
@IID_IArchiveOpenCallback = dso_local local_unnamed_addr constant %struct.GUID { i32 588713833, i16 16577, i16 10122, [8 x i8] c"\00\00\00\06\00\10\00\00" }, align 4
@IID_IArchiveExtractCallback = dso_local local_unnamed_addr constant %struct.GUID { i32 588713833, i16 16577, i16 10122, [8 x i8] c"\00\00\00\06\00 \00\00" }, align 4
@IID_IArchiveOpenVolumeCallback = dso_local local_unnamed_addr constant %struct.GUID { i32 588713833, i16 16577, i16 10122, [8 x i8] c"\00\00\00\06\000\00\00" }, align 4
@IID_IInArchiveGetStream = dso_local local_unnamed_addr constant %struct.GUID { i32 588713833, i16 16577, i16 10122, [8 x i8] c"\00\00\00\06\00@\00\00" }, align 4
@IID_IArchiveOpenSetSubArchiveName = dso_local local_unnamed_addr constant %struct.GUID { i32 588713833, i16 16577, i16 10122, [8 x i8] c"\00\00\00\06\00P\00\00" }, align 4
@IID_IInArchive = dso_local local_unnamed_addr constant %struct.GUID { i32 588713833, i16 16577, i16 10122, [8 x i8] c"\00\00\00\06\00`\00\00" }, align 4
@IID_IArchiveOpenSeq = dso_local local_unnamed_addr constant %struct.GUID { i32 588713833, i16 16577, i16 10122, [8 x i8] c"\00\00\00\06\00a\00\00" }, align 4
@IID_IArchiveUpdateCallback = dso_local local_unnamed_addr constant %struct.GUID { i32 588713833, i16 16577, i16 10122, [8 x i8] c"\00\00\00\06\00\80\00\00" }, align 4
@IID_IArchiveUpdateCallback2 = dso_local local_unnamed_addr constant %struct.GUID { i32 588713833, i16 16577, i16 10122, [8 x i8] c"\00\00\00\06\00\82\00\00" }, align 4
@IID_IOutArchive = dso_local local_unnamed_addr constant %struct.GUID { i32 588713833, i16 16577, i16 10122, [8 x i8] c"\00\00\00\06\00\A0\00\00" }, align 4
@IID_ISetProperties = dso_local local_unnamed_addr constant %struct.GUID { i32 588713833, i16 16577, i16 10122, [8 x i8] c"\00\00\00\06\00\03\00\00" }, align 4
@IID_ICryptoGetTextPassword = dso_local local_unnamed_addr constant %struct.GUID { i32 588713833, i16 16577, i16 10122, [8 x i8] c"\00\00\00\05\00\10\00\00" }, align 4
@IID_ICryptoGetTextPassword2 = dso_local local_unnamed_addr constant %struct.GUID { i32 588713833, i16 16577, i16 10122, [8 x i8] c"\00\00\00\05\00\11\00\00" }, align 4
@IID_ICompressProgressInfo = dso_local local_unnamed_addr constant %struct.GUID { i32 588713833, i16 16577, i16 10122, [8 x i8] c"\00\00\00\04\00\04\00\00" }, align 4
@IID_ICompressCoder = dso_local local_unnamed_addr constant %struct.GUID { i32 588713833, i16 16577, i16 10122, [8 x i8] c"\00\00\00\04\00\05\00\00" }, align 4
@IID_ICompressCoder2 = dso_local local_unnamed_addr constant %struct.GUID { i32 588713833, i16 16577, i16 10122, [8 x i8] c"\00\00\00\04\00\18\00\00" }, align 4
@IID_ICompressSetCoderProperties = dso_local local_unnamed_addr constant %struct.GUID { i32 588713833, i16 16577, i16 10122, [8 x i8] c"\00\00\00\04\00 \00\00" }, align 4
@IID_ICompressSetDecoderProperties2 = dso_local local_unnamed_addr constant %struct.GUID { i32 588713833, i16 16577, i16 10122, [8 x i8] c"\00\00\00\04\00\22\00\00" }, align 4
@IID_ICompressWriteCoderProperties = dso_local local_unnamed_addr constant %struct.GUID { i32 588713833, i16 16577, i16 10122, [8 x i8] c"\00\00\00\04\00#\00\00" }, align 4
@IID_ICompressGetInStreamProcessedSize = dso_local local_unnamed_addr constant %struct.GUID { i32 588713833, i16 16577, i16 10122, [8 x i8] c"\00\00\00\04\00$\00\00" }, align 4
@IID_ICompressSetCoderMt = dso_local local_unnamed_addr constant %struct.GUID { i32 588713833, i16 16577, i16 10122, [8 x i8] c"\00\00\00\04\00%\00\00" }, align 4
@IID_ICompressGetSubStreamSize = dso_local local_unnamed_addr constant %struct.GUID { i32 588713833, i16 16577, i16 10122, [8 x i8] c"\00\00\00\04\000\00\00" }, align 4
@IID_ICompressSetInStream = dso_local local_unnamed_addr constant %struct.GUID { i32 588713833, i16 16577, i16 10122, [8 x i8] c"\00\00\00\04\001\00\00" }, align 4
@IID_ICompressSetOutStream = dso_local local_unnamed_addr constant %struct.GUID { i32 588713833, i16 16577, i16 10122, [8 x i8] c"\00\00\00\04\002\00\00" }, align 4
@IID_ICompressSetInStreamSize = dso_local local_unnamed_addr constant %struct.GUID { i32 588713833, i16 16577, i16 10122, [8 x i8] c"\00\00\00\04\003\00\00" }, align 4
@IID_ICompressSetOutStreamSize = dso_local local_unnamed_addr constant %struct.GUID { i32 588713833, i16 16577, i16 10122, [8 x i8] c"\00\00\00\04\004\00\00" }, align 4
@IID_ICompressSetBufSize = dso_local local_unnamed_addr constant %struct.GUID { i32 588713833, i16 16577, i16 10122, [8 x i8] c"\00\00\00\04\005\00\00" }, align 4
@IID_ICompressFilter = dso_local local_unnamed_addr constant %struct.GUID { i32 588713833, i16 16577, i16 10122, [8 x i8] c"\00\00\00\04\00@\00\00" }, align 4
@IID_ICompressCodecsInfo = dso_local local_unnamed_addr constant %struct.GUID { i32 588713833, i16 16577, i16 10122, [8 x i8] c"\00\00\00\04\00`\00\00" }, align 4
@IID_ISetCompressCodecsInfo = dso_local local_unnamed_addr constant %struct.GUID { i32 588713833, i16 16577, i16 10122, [8 x i8] c"\00\00\00\04\00a\00\00" }, align 4
@IID_ICryptoProperties = dso_local local_unnamed_addr constant %struct.GUID { i32 588713833, i16 16577, i16 10122, [8 x i8] c"\00\00\00\04\00\80\00\00" }, align 4
@IID_ICryptoResetInitVector = dso_local local_unnamed_addr constant %struct.GUID { i32 588713833, i16 16577, i16 10122, [8 x i8] c"\00\00\00\04\00\8C\00\00" }, align 4
@IID_ICryptoSetPassword = dso_local local_unnamed_addr constant %struct.GUID { i32 588713833, i16 16577, i16 10122, [8 x i8] c"\00\00\00\04\00\90\00\00" }, align 4
@IID_ICryptoSetCRC = dso_local local_unnamed_addr constant %struct.GUID { i32 588713833, i16 16577, i16 10122, [8 x i8] c"\00\00\00\04\00\A0\00\00" }, align 4
@IID_IFolderArchiveExtractCallback = dso_local local_unnamed_addr constant %struct.GUID { i32 588713833, i16 16577, i16 10122, [8 x i8] c"\00\00\00\01\00\07\00\00" }, align 4
@g_StdOut = external global %class.CStdOutStream, align 8
@g_StdErr = external global %class.CStdOutStream, align 8
@g_StdStream = external local_unnamed_addr global ptr, align 8
@_ZTVN10__cxxabiv117__class_type_infoE = external global ptr
@_ZTS16CSystemException = linkonce_odr dso_local constant [19 x i8] c"16CSystemException\00", comdat, align 1
@_ZTI16CSystemException = linkonce_odr dso_local constant { ptr, ptr } { ptr getelementptr inbounds (ptr, ptr @_ZTVN10__cxxabiv117__class_type_infoE, i64 2), ptr @_ZTS16CSystemException }, comdat, align 8
@_ZTIPKc = external constant ptr
@.str = private unnamed_addr constant [9 x i8] c"Formats:\00", align 1
@.str.1 = private unnamed_addr constant [3 x i8] c"  \00", align 1
@.str.3 = private unnamed_addr constant [8 x i8] c"Codecs:\00", align 1
@.str.4 = private unnamed_addr constant [4 x i32] [i32 67, i32 82, i32 67, i32 0], align 4
@.str.5 = private unnamed_addr constant [12 x i8] c"\0ACRC Error\0A\00", align 1
@.str.6 = private unnamed_addr constant [17 x i8] c"\0ADecoding Error\0A\00", align 1
@.str.7 = private unnamed_addr constant [8 x i8] c"Error: \00", align 1
@.str.8 = private unnamed_addr constant [11 x i8] c"Archives: \00", align 1
@.str.9 = private unnamed_addr constant [17 x i8] c"Archive Errors: \00", align 1
@.str.10 = private unnamed_addr constant [19 x i8] c"Sub items Errors: \00", align 1
@.str.11 = private unnamed_addr constant [10 x i8] c"Folders: \00", align 1
@.str.12 = private unnamed_addr constant [8 x i8] c"Files: \00", align 1
@.str.13 = private unnamed_addr constant [13 x i8] c"Size:       \00", align 1
@.str.14 = private unnamed_addr constant [13 x i8] c"Compressed: \00", align 1
@.str.15 = private unnamed_addr constant [6 x i8] c"CRC: \00", align 1
@.str.16 = private unnamed_addr constant [9 x i8] c"Errors: \00", align 1
@.str.17 = private unnamed_addr constant [20 x i8] c"WARNINGS for files:\00", align 1
@.str.18 = private unnamed_addr constant [4 x i8] c" : \00", align 1
@.str.19 = private unnamed_addr constant [17 x i8] c"----------------\00", align 1
@.str.20 = private unnamed_addr constant [22 x i8] c"WARNING: Cannot find \00", align 1
@.str.21 = private unnamed_addr constant [6 x i8] c" file\00", align 1
@.str.22 = private unnamed_addr constant [2 x i8] c"s\00", align 1
@.str.23 = private unnamed_addr constant [2 x i32] [i32 10, i32 0], align 4
@.str.24 = private unnamed_addr constant [9 x i32] [i32 10, i32 69, i32 114, i32 114, i32 111, i32 114, i32 58, i32 10, i32 0], align 4
@.str.25 = private unnamed_addr constant [22 x i8] c"WARNING: Cannot open \00", align 1
@.str.26 = private unnamed_addr constant [10 x i8] c" (locale=\00", align 1
@.str.27 = private unnamed_addr constant [8 x i8] c",Utf16=\00", align 1
@global_use_utf16_conversion = external local_unnamed_addr global i32, align 4
@.str.28 = private unnamed_addr constant [3 x i8] c"on\00", align 1
@.str.29 = private unnamed_addr constant [4 x i8] c"off\00", align 1
@.str.30 = private unnamed_addr constant [12 x i8] c",HugeFiles=\00", align 1
@.str.31 = private unnamed_addr constant [4 x i8] c"on,\00", align 1
@.str.32 = private unnamed_addr constant [8 x i8] c" CPUs)\0A\00", align 1
@.str.33 = private unnamed_addr constant [7 x i8] c" CPU)\0A\00", align 1
@.str.34 = private unnamed_addr constant [89 x i8] c"\0A7-Zip (A) [64] 9.20  Copyright (c) 1999-2010 Igor Pavlov  2010-11-18\0Ap7zip Version 9.20\00", align 1
@.str.35 = private unnamed_addr constant [1257 x i8] c"\0AUsage: 7za <command> [<switches>...] <archive_name> [<file_names>...]\0A       [<@listfiles...>]\0A\0A<Commands>\0A  a: Add files to archive\0A  b: Benchmark\0A  d: Delete files from archive\0A  e: Extract files from archive (without using directory names)\0A  l: List contents of archive\0A  t: Test integrity of archive\0A  u: Update files to archive\0A  x: eXtract files with full paths\0A<Switches>\0A  -ai[r[-|0]]{@listfile|!wildcard}: Include archives\0A  -ax[r[-|0]]{@listfile|!wildcard}: eXclude archives\0A  -bd: Disable percentage indicator\0A  -i[r[-|0]]{@listfile|!wildcard}: Include filenames\0A  -m{Parameters}: set compression Method\0A  -o{Directory}: set Output directory\0A  -p{Password}: set Password\0A  -r[-|0]: Recurse subdirectories\0A  -scs{UTF-8 | WIN | DOS}: set charset for list files\0A  -sfx[{name}]: Create SFX archive\0A  -si[{name}]: read data from stdin\0A  -slt: show technical information for l (List) command\0A  -so: write data to stdout\0A  -ssc[-]: set sensitive case mode\0A  -t{Type}: Set type of archive\0A  -u[-][p#][q#][r#][x#][y#][z#][!newArchiveName]: Update options\0A  -v{Size}[b|k|m|g]: Create volumes\0A  -w[{path}]: assign Work directory. Empty path means a temporary directory\0A  -x[r[-|0]]]{@listfile|!wildcard}: eXclude filenames\0A  -y: assume Yes on all queries\0A\00", align 1
@_ZTV13CObjectVectorIN9NWildcard5CPairEE = linkonce_odr dso_local unnamed_addr constant { [5 x ptr] } { [5 x ptr] [ptr null, ptr @_ZTI13CObjectVectorIN9NWildcard5CPairEE, ptr @_ZN13CObjectVectorIN9NWildcard5CPairEED2Ev, ptr @_ZN13CObjectVectorIN9NWildcard5CPairEED0Ev, ptr @_ZN13CObjectVectorIN9NWildcard5CPairEE6DeleteEii] }, comdat, align 8
@_ZTVN10__cxxabiv120__si_class_type_infoE = external global ptr
@_ZTS13CObjectVectorIN9NWildcard5CPairEE = linkonce_odr dso_local constant [36 x i8] c"13CObjectVectorIN9NWildcard5CPairEE\00", comdat, align 1
@_ZTS13CRecordVectorIPvE = linkonce_odr dso_local constant [20 x i8] c"13CRecordVectorIPvE\00", comdat, align 1
@_ZTI17CBaseRecordVector = external constant ptr
@_ZTI13CRecordVectorIPvE = linkonce_odr dso_local constant { ptr, ptr, ptr } { ptr getelementptr inbounds (ptr, ptr @_ZTVN10__cxxabiv120__si_class_type_infoE, i64 2), ptr @_ZTS13CRecordVectorIPvE, ptr @_ZTI17CBaseRecordVector }, comdat, align 8
@_ZTI13CObjectVectorIN9NWildcard5CPairEE = linkonce_odr dso_local constant { ptr, ptr, ptr } { ptr getelementptr inbounds (ptr, ptr @_ZTVN10__cxxabiv120__si_class_type_infoE, i64 2), ptr @_ZTS13CObjectVectorIN9NWildcard5CPairEE, ptr @_ZTI13CRecordVectorIPvE }, comdat, align 8
@_ZTV13CObjectVectorIN9NWildcard5CItemEE = linkonce_odr dso_local unnamed_addr constant { [5 x ptr] } { [5 x ptr] [ptr null, ptr @_ZTI13CObjectVectorIN9NWildcard5CItemEE, ptr @_ZN13CObjectVectorIN9NWildcard5CItemEED2Ev, ptr @_ZN13CObjectVectorIN9NWildcard5CItemEED0Ev, ptr @_ZN13CObjectVectorIN9NWildcard5CItemEE6DeleteEii] }, comdat, align 8
@_ZTS13CObjectVectorIN9NWildcard5CItemEE = linkonce_odr dso_local constant [36 x i8] c"13CObjectVectorIN9NWildcard5CItemEE\00", comdat, align 1
@_ZTI13CObjectVectorIN9NWildcard5CItemEE = linkonce_odr dso_local constant { ptr, ptr, ptr } { ptr getelementptr inbounds (ptr, ptr @_ZTVN10__cxxabiv120__si_class_type_infoE, i64 2), ptr @_ZTS13CObjectVectorIN9NWildcard5CItemEE, ptr @_ZTI13CRecordVectorIPvE }, comdat, align 8
@_ZTV13CObjectVectorIN9NWildcard11CCensorNodeEE = linkonce_odr dso_local unnamed_addr constant { [5 x ptr] } { [5 x ptr] [ptr null, ptr @_ZTI13CObjectVectorIN9NWildcard11CCensorNodeEE, ptr @_ZN13CObjectVectorIN9NWildcard11CCensorNodeEED2Ev, ptr @_ZN13CObjectVectorIN9NWildcard11CCensorNodeEED0Ev, ptr @_ZN13CObjectVectorIN9NWildcard11CCensorNodeEE6DeleteEii] }, comdat, align 8
@_ZTS13CObjectVectorIN9NWildcard11CCensorNodeEE = linkonce_odr dso_local constant [43 x i8] c"13CObjectVectorIN9NWildcard11CCensorNodeEE\00", comdat, align 1
@_ZTI13CObjectVectorIN9NWildcard11CCensorNodeEE = linkonce_odr dso_local constant { ptr, ptr, ptr } { ptr getelementptr inbounds (ptr, ptr @_ZTVN10__cxxabiv120__si_class_type_infoE, i64 2), ptr @_ZTS13CObjectVectorIN9NWildcard11CCensorNodeEE, ptr @_ZTI13CRecordVectorIPvE }, comdat, align 8
@_ZTV13CObjectVectorI9CPropertyE = linkonce_odr dso_local unnamed_addr constant { [5 x ptr] } { [5 x ptr] [ptr null, ptr @_ZTI13CObjectVectorI9CPropertyE, ptr @_ZN13CObjectVectorI9CPropertyED2Ev, ptr @_ZN13CObjectVectorI9CPropertyED0Ev, ptr @_ZN13CObjectVectorI9CPropertyE6DeleteEii] }, comdat, align 8
@_ZTS13CObjectVectorI9CPropertyE = linkonce_odr dso_local constant [28 x i8] c"13CObjectVectorI9CPropertyE\00", comdat, align 1
@_ZTI13CObjectVectorI9CPropertyE = linkonce_odr dso_local constant { ptr, ptr, ptr } { ptr getelementptr inbounds (ptr, ptr @_ZTVN10__cxxabiv120__si_class_type_infoE, i64 2), ptr @_ZTS13CObjectVectorI9CPropertyE, ptr @_ZTI13CRecordVectorIPvE }, comdat, align 8
@_ZTV13CObjectVectorI21CUpdateArchiveCommandE = linkonce_odr dso_local unnamed_addr constant { [5 x ptr] } { [5 x ptr] [ptr null, ptr @_ZTI13CObjectVectorI21CUpdateArchiveCommandE, ptr @_ZN13CObjectVectorI21CUpdateArchiveCommandED2Ev, ptr @_ZN13CObjectVectorI21CUpdateArchiveCommandED0Ev, ptr @_ZN13CObjectVectorI21CUpdateArchiveCommandE6DeleteEii] }, comdat, align 8
@_ZTS13CObjectVectorI21CUpdateArchiveCommandE = linkonce_odr dso_local constant [41 x i8] c"13CObjectVectorI21CUpdateArchiveCommandE\00", comdat, align 1
@_ZTI13CObjectVectorI21CUpdateArchiveCommandE = linkonce_odr dso_local constant { ptr, ptr, ptr } { ptr getelementptr inbounds (ptr, ptr @_ZTVN10__cxxabiv120__si_class_type_infoE, i64 2), ptr @_ZTS13CObjectVectorI21CUpdateArchiveCommandE, ptr @_ZTI13CRecordVectorIPvE }, comdat, align 8
@_ZTV13CRecordVectorIyE = linkonce_odr dso_local unnamed_addr constant { [5 x ptr] } { [5 x ptr] [ptr null, ptr @_ZTI13CRecordVectorIyE, ptr @_ZN17CBaseRecordVectorD2Ev, ptr @_ZN13CRecordVectorIyED0Ev, ptr @_ZN17CBaseRecordVector6DeleteEii] }, comdat, align 8
@_ZTS13CRecordVectorIyE = linkonce_odr dso_local constant [19 x i8] c"13CRecordVectorIyE\00", comdat, align 1
@_ZTI13CRecordVectorIyE = linkonce_odr dso_local constant { ptr, ptr, ptr } { ptr getelementptr inbounds (ptr, ptr @_ZTVN10__cxxabiv120__si_class_type_infoE, i64 2), ptr @_ZTS13CRecordVectorIyE, ptr @_ZTI17CBaseRecordVector }, comdat, align 8
@_ZTV7CCodecs = linkonce_odr dso_local unnamed_addr constant { [7 x ptr] } { [7 x ptr] [ptr null, ptr @_ZTI7CCodecs, ptr @_ZN7CCodecs14QueryInterfaceERK4GUIDPPv, ptr @_ZN7CCodecs6AddRefEv, ptr @_ZN7CCodecs7ReleaseEv, ptr @_ZN7CCodecsD2Ev, ptr @_ZN7CCodecsD0Ev] }, comdat, align 8
@_ZTVN10__cxxabiv121__vmi_class_type_infoE = external global ptr
@_ZTS7CCodecs = linkonce_odr dso_local constant [9 x i8] c"7CCodecs\00", comdat, align 1
@_ZTS8IUnknown = linkonce_odr dso_local constant [10 x i8] c"8IUnknown\00", comdat, align 1
@_ZTI8IUnknown = linkonce_odr dso_local constant { ptr, ptr } { ptr getelementptr inbounds (ptr, ptr @_ZTVN10__cxxabiv117__class_type_infoE, i64 2), ptr @_ZTS8IUnknown }, comdat, align 8
@_ZTS13CMyUnknownImp = linkonce_odr dso_local constant [16 x i8] c"13CMyUnknownImp\00", comdat, align 1
@_ZTI13CMyUnknownImp = linkonce_odr dso_local constant { ptr, ptr } { ptr getelementptr inbounds (ptr, ptr @_ZTVN10__cxxabiv117__class_type_infoE, i64 2), ptr @_ZTS13CMyUnknownImp }, comdat, align 8
@_ZTI7CCodecs = linkonce_odr dso_local constant { ptr, ptr, i32, i32, ptr, i64, ptr, i64 } { ptr getelementptr inbounds (ptr, ptr @_ZTVN10__cxxabiv121__vmi_class_type_infoE, i64 2), ptr @_ZTS7CCodecs, i32 0, i32 2, ptr @_ZTI8IUnknown, i64 2, ptr @_ZTI13CMyUnknownImp, i64 2050 }, comdat, align 8
@_ZTV13CObjectVectorI10CArcInfoExE = linkonce_odr dso_local unnamed_addr constant { [5 x ptr] } { [5 x ptr] [ptr null, ptr @_ZTI13CObjectVectorI10CArcInfoExE, ptr @_ZN13CObjectVectorI10CArcInfoExED2Ev, ptr @_ZN13CObjectVectorI10CArcInfoExED0Ev, ptr @_ZN13CObjectVectorI10CArcInfoExE6DeleteEii] }, comdat, align 8
@_ZTS13CObjectVectorI10CArcInfoExE = linkonce_odr dso_local constant [30 x i8] c"13CObjectVectorI10CArcInfoExE\00", comdat, align 1
@_ZTI13CObjectVectorI10CArcInfoExE = linkonce_odr dso_local constant { ptr, ptr, ptr } { ptr getelementptr inbounds (ptr, ptr @_ZTVN10__cxxabiv120__si_class_type_infoE, i64 2), ptr @_ZTS13CObjectVectorI10CArcInfoExE, ptr @_ZTI13CRecordVectorIPvE }, comdat, align 8
@_ZTV7CBufferIhE = linkonce_odr dso_local unnamed_addr constant { [4 x ptr] } { [4 x ptr] [ptr null, ptr @_ZTI7CBufferIhE, ptr @_ZN7CBufferIhED2Ev, ptr @_ZN7CBufferIhED0Ev] }, comdat, align 8
@_ZTS7CBufferIhE = linkonce_odr dso_local constant [12 x i8] c"7CBufferIhE\00", comdat, align 1
@_ZTI7CBufferIhE = linkonce_odr dso_local constant { ptr, ptr } { ptr getelementptr inbounds (ptr, ptr @_ZTVN10__cxxabiv117__class_type_infoE, i64 2), ptr @_ZTS7CBufferIhE }, comdat, align 8
@_ZTV13CObjectVectorI11CArcExtInfoE = linkonce_odr dso_local unnamed_addr constant { [5 x ptr] } { [5 x ptr] [ptr null, ptr @_ZTI13CObjectVectorI11CArcExtInfoE, ptr @_ZN13CObjectVectorI11CArcExtInfoED2Ev, ptr @_ZN13CObjectVectorI11CArcExtInfoED0Ev, ptr @_ZN13CObjectVectorI11CArcExtInfoE6DeleteEii] }, comdat, align 8
@_ZTS13CObjectVectorI11CArcExtInfoE = linkonce_odr dso_local constant [31 x i8] c"13CObjectVectorI11CArcExtInfoE\00", comdat, align 1
@_ZTI13CObjectVectorI11CArcExtInfoE = linkonce_odr dso_local constant { ptr, ptr, ptr } { ptr getelementptr inbounds (ptr, ptr @_ZTVN10__cxxabiv120__si_class_type_infoE, i64 2), ptr @_ZTS13CObjectVectorI11CArcExtInfoE, ptr @_ZTI13CRecordVectorIPvE }, comdat, align 8
@.str.36 = private unnamed_addr constant [53 x i8] c"7-Zip cannot find the code that works with archives.\00", align 1
@.str.37 = private unnamed_addr constant [25 x i8] c"Unsupported archive type\00", align 1
@_ZTV23CExtractCallbackConsole = external unnamed_addr constant { [19 x ptr], [8 x ptr] }, align 8
@_ZTV20COpenCallbackConsole = external unnamed_addr constant { [9 x ptr] }, align 8
@.str.38 = private unnamed_addr constant [10 x i32] [i32 55, i32 122, i32 67, i32 111, i32 110, i32 46, i32 115, i32 102, i32 120, i32 0], align 4
@_ZTV22CUpdateCallbackConsole = external unnamed_addr constant { [20 x ptr] }, align 8
@.str.39 = private unnamed_addr constant [17 x i8] c"Everything is Ok\00", align 1
@_ZTVN10__cxxabiv116__enum_type_infoE = external global ptr
@_ZTSN9NExitCode5EEnumE = linkonce_odr dso_local constant [19 x i8] c"N9NExitCode5EEnumE\00", comdat, align 1
@_ZTIN9NExitCode5EEnumE = linkonce_odr dso_local constant { ptr, ptr } { ptr getelementptr inbounds (ptr, ptr @_ZTVN10__cxxabiv116__enum_type_infoE, i64 2), ptr @_ZTSN9NExitCode5EEnumE }, comdat, align 8
@.str.40 = private unnamed_addr constant [23 x i8] c"Incorrect command line\00", align 1
@_ZTV13CObjectVectorI11CStringBaseIwEE = linkonce_odr dso_local unnamed_addr constant { [5 x ptr] } { [5 x ptr] [ptr null, ptr @_ZTI13CObjectVectorI11CStringBaseIwEE, ptr @_ZN13CObjectVectorI11CStringBaseIwEED2Ev, ptr @_ZN13CObjectVectorI11CStringBaseIwEED0Ev, ptr @_ZN13CObjectVectorI11CStringBaseIwEE6DeleteEii] }, comdat, align 8
@_ZTS13CObjectVectorI11CStringBaseIwEE = linkonce_odr dso_local constant [34 x i8] c"13CObjectVectorI11CStringBaseIwEE\00", comdat, align 1
@_ZTI13CObjectVectorI11CStringBaseIwEE = linkonce_odr dso_local constant { ptr, ptr, ptr } { ptr getelementptr inbounds (ptr, ptr @_ZTVN10__cxxabiv120__si_class_type_infoE, i64 2), ptr @_ZTS13CObjectVectorI11CStringBaseIwEE, ptr @_ZTI13CRecordVectorIPvE }, comdat, align 8
@_ZTV13CRecordVectorIiE = linkonce_odr dso_local unnamed_addr constant { [5 x ptr] } { [5 x ptr] [ptr null, ptr @_ZTI13CRecordVectorIiE, ptr @_ZN17CBaseRecordVectorD2Ev, ptr @_ZN13CRecordVectorIiED0Ev, ptr @_ZN17CBaseRecordVector6DeleteEii] }, comdat, align 8
@_ZTS13CRecordVectorIiE = linkonce_odr dso_local constant [19 x i8] c"13CRecordVectorIiE\00", comdat, align 1
@_ZTI13CRecordVectorIiE = linkonce_odr dso_local constant { ptr, ptr, ptr } { ptr getelementptr inbounds (ptr, ptr @_ZTVN10__cxxabiv120__si_class_type_infoE, i64 2), ptr @_ZTS13CRecordVectorIiE, ptr @_ZTI17CBaseRecordVector }, comdat, align 8

; Function Attrs: uwtable
define dso_local noundef i32 @_Z5Main2iPPKc(i32 noundef %numArgs, ptr noundef %args) local_unnamed_addr #0 personality ptr @__gxx_personality_v0 {
entry:
  %commandStrings = alloca %class.CObjectVector, align 8
  %options = alloca %struct.CArchiveCommandLineOptions, align 8
  %parser = alloca %class.CArchiveCommandLineParser, align 8
  %formatIndices = alloca %class.CRecordVector.5, align 8
  %openCallback = alloca %class.COpenCallbackConsole, align 8
  %eo = alloca %struct.CExtractOptions, align 8
  %errorMessage = alloca %class.CStringBase, align 8
  %stat = alloca %struct.CDecompressStat, align 8
  %s423 = alloca [16 x i8], align 16
  %numErrors = alloca i64, align 8
  %openCallback516 = alloca %class.COpenCallbackConsole, align 8
  %callback = alloca %class.CUpdateCallbackConsole, align 8
  %errorInfo = alloca %struct.CUpdateErrorInfo, align 8
  %ref.tmp = alloca %class.CStringBase, align 8
  %ref.tmp638 = alloca %class.CStringBase, align 8
  %message = alloca %class.CStringBase, align 8
  %ref.tmp710 = alloca %class.CStringBase, align 8
  %ref.tmp779 = alloca %class.CStringBase, align 8
  call void @llvm.lifetime.start.p0(i64 32, ptr nonnull %commandStrings) #16
  %_capacity.i.i.i = getelementptr inbounds %class.CBaseRecordVector, ptr %commandStrings, i64 0, i32 1
  %_itemSize.i.i.i = getelementptr inbounds %class.CBaseRecordVector, ptr %commandStrings, i64 0, i32 4
  call void @llvm.memset.p0.i64(ptr noundef nonnull align 8 dereferenceable(16) %_capacity.i.i.i, i8 0, i64 16, i1 false)
  store i64 8, ptr %_itemSize.i.i.i, align 8, !tbaa !5
  store ptr getelementptr inbounds ({ [5 x ptr] }, ptr @_ZTV13CObjectVectorI11CStringBaseIwEE, i64 0, inrange i32 0, i64 2), ptr %commandStrings, align 8, !tbaa !12
  invoke void @_Z18mySplitCommandLineiPPKcR13CObjectVectorI11CStringBaseIwEE(i32 noundef %numArgs, ptr noundef %args, ptr noundef nonnull align 8 dereferenceable(32) %commandStrings)
          to label %invoke.cont unwind label %lpad

invoke.cont:                                      ; preds = %entry
  %_size.i = getelementptr inbounds %class.CBaseRecordVector, ptr %commandStrings, i64 0, i32 2
  %0 = load i32, ptr %_size.i, align 4, !tbaa !14
  %cmp = icmp eq i32 %0, 1
  br i1 %cmp, label %if.then, label %if.end

if.then:                                          ; preds = %invoke.cont
  invoke fastcc void @_ZL20ShowCopyrightAndHelpR13CStdOutStreamb(ptr noundef nonnull align 8 dereferenceable(16) @g_StdOut, i1 noundef zeroext true)
          to label %cleanup868 unwind label %lpad

lpad:                                             ; preds = %for.cond.cleanup.i, %if.then, %entry
  %1 = landingpad { ptr, i32 }
          cleanup
  br label %ehcleanup869

if.end:                                           ; preds = %invoke.cont
  %spec.select.i = call i32 @llvm.smin.i32(i32 %0, i32 1)
  %cmp8.i = icmp sgt i32 %0, 0
  br i1 %cmp8.i, label %for.body.lr.ph.i, label %for.cond.cleanup.i

for.body.lr.ph.i:                                 ; preds = %if.end
  %_items.i = getelementptr inbounds %class.CBaseRecordVector, ptr %commandStrings, i64 0, i32 3
  %2 = load ptr, ptr %_items.i, align 8, !tbaa !15
  %3 = load ptr, ptr %2, align 8, !tbaa !16
  %isnull.i = icmp eq ptr %3, null
  br i1 %isnull.i, label %for.cond.cleanup.i, label %delete.notnull.i

for.cond.cleanup.i:                               ; preds = %for.body.lr.ph.i, %_ZN11CStringBaseIwED2Ev.exit.i, %if.end
  invoke void @_ZN17CBaseRecordVector6DeleteEii(ptr noundef nonnull align 8 dereferenceable(32) %commandStrings, i32 noundef 0, i32 noundef %spec.select.i)
          to label %invoke.cont3 unwind label %lpad

delete.notnull.i:                                 ; preds = %for.body.lr.ph.i
  %4 = load ptr, ptr %3, align 8, !tbaa !17
  %isnull.i.i = icmp eq ptr %4, null
  br i1 %isnull.i.i, label %_ZN11CStringBaseIwED2Ev.exit.i, label %delete.notnull.i.i

delete.notnull.i.i:                               ; preds = %delete.notnull.i
  call void @_ZdaPv(ptr noundef nonnull %4) #17
  br label %_ZN11CStringBaseIwED2Ev.exit.i

_ZN11CStringBaseIwED2Ev.exit.i:                   ; preds = %delete.notnull.i.i, %delete.notnull.i
  call void @_ZdlPv(ptr noundef nonnull %3) #17
  br label %for.cond.cleanup.i

invoke.cont3:                                     ; preds = %for.cond.cleanup.i
  call void @llvm.lifetime.start.p0(i64 592, ptr nonnull %options) #16
  invoke void @_ZN26CArchiveCommandLineOptionsC2Ev(ptr noundef nonnull align 8 dereferenceable(592) %options)
          to label %invoke.cont5 unwind label %lpad4

invoke.cont5:                                     ; preds = %invoke.cont3
  call void @llvm.lifetime.start.p0(i64 48, ptr nonnull %parser) #16
  invoke void @_ZN25CArchiveCommandLineParserC1Ev(ptr noundef nonnull align 8 dereferenceable(48) %parser)
          to label %invoke.cont7 unwind label %lpad6

invoke.cont7:                                     ; preds = %invoke.cont5
  invoke void @_ZN25CArchiveCommandLineParser6Parse1ERK13CObjectVectorI11CStringBaseIwEER26CArchiveCommandLineOptions(ptr noundef nonnull align 8 dereferenceable(48) %parser, ptr noundef nonnull align 8 dereferenceable(32) %commandStrings, ptr noundef nonnull align 8 dereferenceable(592) %options)
          to label %invoke.cont9 unwind label %lpad8

invoke.cont9:                                     ; preds = %invoke.cont7
  %5 = load i8, ptr %options, align 8, !tbaa !19, !range !35, !noundef !36
  %tobool.not = icmp eq i8 %5, 0
  br i1 %tobool.not, label %if.end12, label %if.then10

if.then10:                                        ; preds = %invoke.cont9
  invoke fastcc void @_ZL20ShowCopyrightAndHelpR13CStdOutStreamb(ptr noundef nonnull align 8 dereferenceable(16) @g_StdOut, i1 noundef zeroext true)
          to label %cleanup860 unwind label %lpad8

lpad4:                                            ; preds = %invoke.cont3
  %6 = landingpad { ptr, i32 }
          cleanup
  br label %ehcleanup867

lpad6:                                            ; preds = %invoke.cont5
  %7 = landingpad { ptr, i32 }
          cleanup
  br label %ehcleanup863

lpad8:                                            ; preds = %if.then14, %if.then10, %invoke.cont7
  %8 = landingpad { ptr, i32 }
          cleanup
  br label %ehcleanup861

if.end12:                                         ; preds = %invoke.cont9
  %LargePages = getelementptr inbounds %struct.CArchiveCommandLineOptions, ptr %options, i64 0, i32 1
  %9 = load i8, ptr %LargePages, align 1, !tbaa !37, !range !35, !noundef !36
  %tobool13.not = icmp eq i8 %9, 0
  br i1 %tobool13.not, label %if.end16, label %if.then14

if.then14:                                        ; preds = %if.end12
  invoke void @SetLargePageSize()
          to label %if.end16 unwind label %lpad8

if.end16:                                         ; preds = %if.then14, %if.end12
  %StdOutMode = getelementptr inbounds %struct.CArchiveCommandLineOptions, ptr %options, i64 0, i32 6
  %10 = load i8, ptr %StdOutMode, align 2, !tbaa !38, !range !35, !noundef !36
  %tobool17.not = icmp eq i8 %10, 0
  %g_StdErr.g_StdOut = select i1 %tobool17.not, ptr @g_StdOut, ptr @g_StdErr
  store ptr %g_StdErr.g_StdOut, ptr @g_StdStream, align 8, !tbaa !16
  %EnableHeaders = getelementptr inbounds %struct.CArchiveCommandLineOptions, ptr %options, i64 0, i32 7
  %11 = load i8, ptr %EnableHeaders, align 1, !tbaa !39, !range !35, !noundef !36
  %tobool18.not = icmp eq i8 %11, 0
  br i1 %tobool18.not, label %if.end22, label %if.then19

if.then19:                                        ; preds = %if.end16
  invoke fastcc void @_ZL20ShowCopyrightAndHelpR13CStdOutStreamb(ptr noundef nonnull align 8 dereferenceable(16) %g_StdErr.g_StdOut, i1 noundef zeroext false)
          to label %if.end22 unwind label %lpad20

lpad20:                                           ; preds = %if.end22, %if.then19
  %12 = landingpad { ptr, i32 }
          cleanup
  br label %ehcleanup861

if.end22:                                         ; preds = %if.then19, %if.end16
  invoke void @_ZN25CArchiveCommandLineParser6Parse2ER26CArchiveCommandLineOptions(ptr noundef nonnull align 8 dereferenceable(48) %parser, ptr noundef nonnull align 8 dereferenceable(592) %options)
          to label %invoke.cont23 unwind label %lpad20

invoke.cont23:                                    ; preds = %if.end22
  %call26 = invoke noalias noundef nonnull dereferenceable(48) ptr @_Znwm(i64 noundef 48) #18
          to label %invoke.cont25 unwind label %lpad24

invoke.cont25:                                    ; preds = %invoke.cont23
  %13 = getelementptr inbounds i8, ptr %call26, i64 8
  store ptr getelementptr inbounds ({ [7 x ptr] }, ptr @_ZTV7CCodecs, i64 0, inrange i32 0, i64 2), ptr %call26, align 8, !tbaa !12
  %Formats.i = getelementptr inbounds %class.CCodecs, ptr %call26, i64 0, i32 2
  %_capacity.i.i.i.i = getelementptr inbounds %class.CCodecs, ptr %call26, i64 0, i32 2, i32 0, i32 0, i32 1
  %_itemSize.i.i.i.i = getelementptr inbounds %class.CCodecs, ptr %call26, i64 0, i32 2, i32 0, i32 0, i32 4
  call void @llvm.memset.p0.i64(ptr noundef nonnull align 8 dereferenceable(16) %_capacity.i.i.i.i, i8 0, i64 16, i1 false)
  store i64 8, ptr %_itemSize.i.i.i.i, align 8, !tbaa !5
  store ptr getelementptr inbounds ({ [5 x ptr] }, ptr @_ZTV13CObjectVectorI10CArcInfoExE, i64 0, inrange i32 0, i64 2), ptr %Formats.i, align 8, !tbaa !12
  store i32 1, ptr %13, align 8, !tbaa !40
  %call33 = invoke noundef i32 @_ZN7CCodecs4LoadEv(ptr noundef nonnull align 8 dereferenceable(48) %call26)
          to label %invoke.cont32 unwind label %lpad31

invoke.cont32:                                    ; preds = %invoke.cont25
  %cmp34.not = icmp eq i32 %call33, 0
  br i1 %cmp34.not, label %if.end38, label %if.then35

if.then35:                                        ; preds = %invoke.cont32
  %exception = call ptr @__cxa_allocate_exception(i64 4) #16
  store i32 %call33, ptr %exception, align 4, !tbaa !42
  invoke void @__cxa_throw(ptr nonnull %exception, ptr nonnull @_ZTI16CSystemException, ptr null) #19
          to label %unreachable unwind label %lpad31

lpad24:                                           ; preds = %invoke.cont23
  %14 = landingpad { ptr, i32 }
          cleanup
  br label %ehcleanup861

lpad31:                                           ; preds = %if.then35, %invoke.cont25
  %15 = landingpad { ptr, i32 }
          cleanup
  br label %if.then.i1404

if.end38:                                         ; preds = %invoke.cont32
  %Command = getelementptr inbounds %struct.CArchiveCommandLineOptions, ptr %options, i64 0, i32 11
  %call41 = invoke noundef zeroext i1 @_ZNK15CArchiveCommand18IsFromExtractGroupEv(ptr noundef nonnull align 4 dereferenceable(4) %Command)
          to label %invoke.cont40 unwind label %lpad39

invoke.cont40:                                    ; preds = %if.end38
  %_size.i1017 = getelementptr inbounds %class.CCodecs, ptr %call26, i64 0, i32 2, i32 0, i32 0, i32 2
  %16 = load i32, ptr %_size.i1017, align 4, !tbaa !14
  %cmp44 = icmp eq i32 %16, 0
  br i1 %cmp44, label %land.lhs.true, label %if.end54

land.lhs.true:                                    ; preds = %invoke.cont40
  %17 = load i32, ptr %Command, align 8
  %cmp47 = icmp eq i32 %17, 6
  %or.cond = select i1 %call41, i1 true, i1 %cmp47
  br i1 %or.cond, label %if.then52, label %lor.lhs.false48

lor.lhs.false48:                                  ; preds = %land.lhs.true
  %call51 = invoke noundef zeroext i1 @_ZNK15CArchiveCommand17IsFromUpdateGroupEv(ptr noundef nonnull align 4 dereferenceable(4) %Command)
          to label %invoke.cont50 unwind label %lpad39

invoke.cont50:                                    ; preds = %lor.lhs.false48
  br i1 %call51, label %if.then52, label %if.end54

if.then52:                                        ; preds = %invoke.cont50, %land.lhs.true
  %exception53 = call ptr @__cxa_allocate_exception(i64 8) #16
  store ptr @.str.36, ptr %exception53, align 16, !tbaa !16
  invoke void @__cxa_throw(ptr nonnull %exception53, ptr nonnull @_ZTIPKc, ptr null) #19
          to label %unreachable unwind label %lpad39

lpad39:                                           ; preds = %if.then52, %lor.lhs.false48, %if.end38
  %18 = landingpad { ptr, i32 }
          cleanup
  br label %if.then.i1404

if.end54:                                         ; preds = %invoke.cont50, %invoke.cont40
  call void @llvm.lifetime.start.p0(i64 32, ptr nonnull %formatIndices) #16
  %_capacity.i.i = getelementptr inbounds %class.CBaseRecordVector, ptr %formatIndices, i64 0, i32 1
  %_itemSize.i.i = getelementptr inbounds %class.CBaseRecordVector, ptr %formatIndices, i64 0, i32 4
  call void @llvm.memset.p0.i64(ptr noundef nonnull align 8 dereferenceable(16) %_capacity.i.i, i8 0, i64 16, i1 false)
  store i64 4, ptr %_itemSize.i.i, align 8, !tbaa !5
  store ptr getelementptr inbounds ({ [5 x ptr] }, ptr @_ZTV13CRecordVectorIiE, i64 0, inrange i32 0, i64 2), ptr %formatIndices, align 8, !tbaa !12
  %ArcType = getelementptr inbounds %struct.CArchiveCommandLineOptions, ptr %options, i64 0, i32 24
  %call59 = invoke noundef zeroext i1 @_ZNK7CCodecs24FindFormatForArchiveTypeERK11CStringBaseIwER13CRecordVectorIiE(ptr noundef nonnull align 8 dereferenceable(48) %call26, ptr noundef nonnull align 8 dereferenceable(16) %ArcType, ptr noundef nonnull align 8 dereferenceable(32) %formatIndices)
          to label %invoke.cont58 unwind label %lpad57

invoke.cont58:                                    ; preds = %if.end54
  br i1 %call59, label %if.end62, label %if.then60

if.then60:                                        ; preds = %invoke.cont58
  %exception61 = call ptr @__cxa_allocate_exception(i64 8) #16
  store ptr @.str.37, ptr %exception61, align 16, !tbaa !16
  invoke void @__cxa_throw(ptr nonnull %exception61, ptr nonnull @_ZTIPKc, ptr null) #19
          to label %unreachable unwind label %lpad57

lpad57:                                           ; preds = %if.then188, %if.else838, %if.else501, %invoke.cont69, %invoke.cont67, %if.then66, %if.then60, %if.end54
  %19 = landingpad { ptr, i32 }
          cleanup
  br label %ehcleanup845

if.end62:                                         ; preds = %invoke.cont58
  %20 = load i32, ptr %Command, align 8
  switch i32 %20, label %if.else238 [
    i32 8, label %if.then66
    i32 7, label %if.then188
  ]

if.then66:                                        ; preds = %if.end62
  %call68 = invoke noundef nonnull align 8 dereferenceable(16) ptr @_ZN13CStdOutStreamlsEPFRS_S0_E(ptr noundef nonnull align 8 dereferenceable(16) %g_StdErr.g_StdOut, ptr noundef nonnull @_Z4endlR13CStdOutStream)
          to label %invoke.cont67 unwind label %lpad57

invoke.cont67:                                    ; preds = %if.then66
  %call70 = invoke noundef nonnull align 8 dereferenceable(16) ptr @_ZN13CStdOutStreamlsEPKc(ptr noundef nonnull align 8 dereferenceable(16) %call68, ptr noundef nonnull @.str)
          to label %invoke.cont69 unwind label %lpad57

invoke.cont69:                                    ; preds = %invoke.cont67
  %call72 = invoke noundef nonnull align 8 dereferenceable(16) ptr @_ZN13CStdOutStreamlsEPFRS_S0_E(ptr noundef nonnull align 8 dereferenceable(16) %call70, ptr noundef nonnull @_Z4endlR13CStdOutStream)
          to label %for.cond.preheader unwind label %lpad57

for.cond.preheader:                               ; preds = %invoke.cont69
  %21 = load i32, ptr %_size.i1017, align 4, !tbaa !14
  %cmp771508 = icmp sgt i32 %21, 0
  br i1 %cmp771508, label %for.body.lr.ph, label %for.end176

for.body.lr.ph:                                   ; preds = %for.cond.preheader
  %_items.i.i = getelementptr inbounds %class.CCodecs, ptr %call26, i64 0, i32 2, i32 0, i32 0, i32 3
  br label %for.body

for.body:                                         ; preds = %for.body.lr.ph, %_ZN11CStringBaseIwED2Ev.exit
  %indvars.iv1528 = phi i64 [ 0, %for.body.lr.ph ], [ %indvars.iv.next1529, %_ZN11CStringBaseIwED2Ev.exit ]
  %22 = load ptr, ptr %_items.i.i, align 8, !tbaa !15
  %arrayidx.i.i = getelementptr inbounds ptr, ptr %22, i64 %indvars.iv1528
  %23 = load ptr, ptr %arrayidx.i.i, align 8, !tbaa !16
  %call83 = invoke noundef nonnull align 8 dereferenceable(16) ptr @_ZN13CStdOutStreamlsEPKc(ptr noundef nonnull align 8 dereferenceable(16) %g_StdErr.g_StdOut, ptr noundef nonnull @.str.1)
          to label %invoke.cont82 unwind label %lpad79.loopexit.split-lp

invoke.cont82:                                    ; preds = %for.body
  %call85 = invoke noundef nonnull align 8 dereferenceable(16) ptr @_ZN13CStdOutStreamlsEc(ptr noundef nonnull align 8 dereferenceable(16) %g_StdErr.g_StdOut, i8 noundef signext 32)
          to label %invoke.cont84 unwind label %lpad79.loopexit.split-lp

invoke.cont84:                                    ; preds = %invoke.cont82
  %24 = load i8, ptr %23, align 8, !tbaa !44, !range !35, !noundef !36
  %tobool86.not = icmp eq i8 %24, 0
  %cond = select i1 %tobool86.not, i8 32, i8 67
  %call88 = invoke noundef nonnull align 8 dereferenceable(16) ptr @_ZN13CStdOutStreamlsEc(ptr noundef nonnull align 8 dereferenceable(16) %g_StdErr.g_StdOut, i8 noundef signext %cond)
          to label %invoke.cont87 unwind label %lpad79.loopexit.split-lp

invoke.cont87:                                    ; preds = %invoke.cont84
  %KeepName = getelementptr inbounds %struct.CArcInfoEx, ptr %23, i64 0, i32 7
  %25 = load i8, ptr %KeepName, align 8, !tbaa !48, !range !35, !noundef !36
  %tobool89.not = icmp eq i8 %25, 0
  %cond90 = select i1 %tobool89.not, i8 32, i8 75
  %call92 = invoke noundef nonnull align 8 dereferenceable(16) ptr @_ZN13CStdOutStreamlsEc(ptr noundef nonnull align 8 dereferenceable(16) %g_StdErr.g_StdOut, i8 noundef signext %cond90)
          to label %invoke.cont91 unwind label %lpad79.loopexit.split-lp

invoke.cont91:                                    ; preds = %invoke.cont87
  %call94 = invoke noundef nonnull align 8 dereferenceable(16) ptr @_ZN13CStdOutStreamlsEPKc(ptr noundef nonnull align 8 dereferenceable(16) %g_StdErr.g_StdOut, ptr noundef nonnull @.str.1)
          to label %invoke.cont93 unwind label %lpad79.loopexit.split-lp

invoke.cont93:                                    ; preds = %invoke.cont91
  %Name = getelementptr inbounds %struct.CArcInfoEx, ptr %23, i64 0, i32 4
  %Name.val = load ptr, ptr %Name, align 8, !tbaa !17
  %26 = getelementptr %struct.CArcInfoEx, ptr %23, i64 0, i32 4, i32 1
  %Name.val1015 = load i32, ptr %26, align 8, !tbaa !49
  %call2.i1021 = invoke noundef nonnull align 8 dereferenceable(16) ptr @_ZN13CStdOutStreamlsEPKw(ptr noundef nonnull align 8 dereferenceable(16) %g_StdErr.g_StdOut, ptr noundef %Name.val)
          to label %call2.i.noexc unwind label %lpad79.loopexit.split-lp

call2.i.noexc:                                    ; preds = %invoke.cont93
  %cmp1.i = icmp slt i32 %Name.val1015, 6
  br i1 %cmp1.i, label %for.body.i1020, label %invoke.cont95

for.body.i1020:                                   ; preds = %call2.i.noexc, %call3.i.noexc
  %i.02.i = phi i32 [ %inc.i, %call3.i.noexc ], [ %Name.val1015, %call2.i.noexc ]
  %call3.i1022 = invoke noundef nonnull align 8 dereferenceable(16) ptr @_ZN13CStdOutStreamlsEc(ptr noundef nonnull align 8 dereferenceable(16) %g_StdErr.g_StdOut, i8 noundef signext 32)
          to label %call3.i.noexc unwind label %lpad79.loopexit

call3.i.noexc:                                    ; preds = %for.body.i1020
  %inc.i = add i32 %i.02.i, 1
  %exitcond.not.i = icmp eq i32 %inc.i, 6
  br i1 %exitcond.not.i, label %invoke.cont95, label %for.body.i1020, !llvm.loop !50

invoke.cont95:                                    ; preds = %call3.i.noexc, %call2.i.noexc
  %call97 = invoke noundef nonnull align 8 dereferenceable(16) ptr @_ZN13CStdOutStreamlsEPKc(ptr noundef nonnull align 8 dereferenceable(16) %g_StdErr.g_StdOut, ptr noundef nonnull @.str.1)
          to label %invoke.cont96 unwind label %lpad79.loopexit.split-lp

invoke.cont96:                                    ; preds = %invoke.cont95
  %call.i.i1023 = invoke noalias noundef nonnull dereferenceable(16) ptr @_Znam(i64 noundef 16) #18
          to label %_ZN11CStringBaseIwEC2Ev.exit unwind label %lpad98

_ZN11CStringBaseIwEC2Ev.exit:                     ; preds = %invoke.cont96
  store i32 0, ptr %call.i.i1023, align 4, !tbaa !52
  %_size.i1024 = getelementptr inbounds %struct.CArcInfoEx, ptr %23, i64 0, i32 5, i32 0, i32 0, i32 2
  %27 = load i32, ptr %_size.i1024, align 4, !tbaa !14
  %cmp1041500 = icmp sgt i32 %27, 0
  br i1 %cmp1041500, label %for.body105.lr.ph, label %for.cond.cleanup

for.body105.lr.ph:                                ; preds = %_ZN11CStringBaseIwEC2Ev.exit
  %_items.i.i1036 = getelementptr inbounds %struct.CArcInfoEx, ptr %23, i64 0, i32 5, i32 0, i32 0, i32 3
  br label %for.body105

for.cond.cleanup:                                 ; preds = %_ZN11CStringBaseIwEpLEw.exit1230, %_ZN11CStringBaseIwEC2Ev.exit
  %s.sroa.23.1.lcssa = phi i32 [ 0, %_ZN11CStringBaseIwEC2Ev.exit ], [ %inc.i1224, %_ZN11CStringBaseIwEpLEw.exit1230 ]
  %s.sroa.0.1.lcssa = phi ptr [ %call.i.i1023, %_ZN11CStringBaseIwEC2Ev.exit ], [ %s.sroa.0.8, %_ZN11CStringBaseIwEpLEw.exit1230 ]
  %call2.i1032 = invoke noundef nonnull align 8 dereferenceable(16) ptr @_ZN13CStdOutStreamlsEPKw(ptr noundef nonnull align 8 dereferenceable(16) %g_StdErr.g_StdOut, ptr noundef nonnull %s.sroa.0.1.lcssa)
          to label %call2.i.noexc1031 unwind label %lpad125.loopexit.split-lp

call2.i.noexc1031:                                ; preds = %for.cond.cleanup
  %cmp1.i1025 = icmp slt i32 %s.sroa.23.1.lcssa, 14
  br i1 %cmp1.i1025, label %for.body.i1030, label %invoke.cont126

for.body.i1030:                                   ; preds = %call2.i.noexc1031, %call3.i.noexc1033
  %i.02.i1027 = phi i32 [ %inc.i1028, %call3.i.noexc1033 ], [ %s.sroa.23.1.lcssa, %call2.i.noexc1031 ]
  %call3.i1034 = invoke noundef nonnull align 8 dereferenceable(16) ptr @_ZN13CStdOutStreamlsEc(ptr noundef nonnull align 8 dereferenceable(16) %g_StdErr.g_StdOut, i8 noundef signext 32)
          to label %call3.i.noexc1033 unwind label %lpad125.loopexit

call3.i.noexc1033:                                ; preds = %for.body.i1030
  %inc.i1028 = add i32 %i.02.i1027, 1
  %exitcond.not.i1029 = icmp eq i32 %inc.i1028, 14
  br i1 %exitcond.not.i1029, label %invoke.cont126, label %for.body.i1030, !llvm.loop !50

lpad74:                                           ; preds = %invoke.cont179, %invoke.cont177, %for.end176
  %28 = landingpad { ptr, i32 }
          cleanup
  br label %ehcleanup845

lpad79.loopexit:                                  ; preds = %for.body.i1020
  %lpad.loopexit1491 = landingpad { ptr, i32 }
          cleanup
  br label %ehcleanup845

lpad79.loopexit.split-lp:                         ; preds = %for.body, %invoke.cont82, %invoke.cont84, %invoke.cont87, %invoke.cont91, %invoke.cont95, %invoke.cont93
  %lpad.loopexit.split-lp1492 = landingpad { ptr, i32 }
          cleanup
  br label %ehcleanup845

lpad98:                                           ; preds = %invoke.cont96
  %29 = landingpad { ptr, i32 }
          cleanup
  br label %ehcleanup845

for.body105:                                      ; preds = %for.body105.lr.ph, %_ZN11CStringBaseIwEpLEw.exit1230
  %indvars.iv = phi i64 [ 0, %for.body105.lr.ph ], [ %indvars.iv.next, %_ZN11CStringBaseIwEpLEw.exit1230 ]
  %s.sroa.0.11503 = phi ptr [ %call.i.i1023, %for.body105.lr.ph ], [ %s.sroa.0.8, %_ZN11CStringBaseIwEpLEw.exit1230 ]
  %s.sroa.39.11502 = phi i32 [ 4, %for.body105.lr.ph ], [ %s.sroa.39.7, %_ZN11CStringBaseIwEpLEw.exit1230 ]
  %s.sroa.23.11501 = phi i32 [ 0, %for.body105.lr.ph ], [ %inc.i1224, %_ZN11CStringBaseIwEpLEw.exit1230 ]
  %s.sroa.0.115031679 = ptrtoint ptr %s.sroa.0.11503 to i64
  %30 = load ptr, ptr %_items.i.i1036, align 8, !tbaa !15
  %arrayidx.i.i1038 = getelementptr inbounds ptr, ptr %30, i64 %indvars.iv
  %31 = load ptr, ptr %arrayidx.i.i1038, align 8, !tbaa !16
  %_length.i = getelementptr inbounds %class.CStringBase, ptr %31, i64 0, i32 1
  %32 = load i32, ptr %_length.i, align 8, !tbaa !49
  %33 = xor i32 %s.sroa.23.11501, -1
  %sub2.i.i = add i32 %s.sroa.39.11502, %33
  %cmp.not.i.i = icmp sgt i32 %32, %sub2.i.i
  br i1 %cmp.not.i.i, label %if.end.i.i, label %_ZN11CStringBaseIwE10GrowLengthEi.exit.i

if.end.i.i:                                       ; preds = %for.body105
  %cmp4.i.i = icmp sgt i32 %s.sroa.39.11502, 64
  %div24.i.i = lshr i32 %s.sroa.39.11502, 1
  %cmp8.i.i = icmp sgt i32 %s.sroa.39.11502, 8
  %..i.i = select i1 %cmp8.i.i, i32 16, i32 4
  %delta.0.i.i = select i1 %cmp4.i.i, i32 %div24.i.i, i32 %..i.i
  %add.i.i = add nsw i32 %delta.0.i.i, %sub2.i.i
  %cmp13.i.i = icmp slt i32 %add.i.i, %32
  %sub15.i.i = sub nsw i32 %32, %sub2.i.i
  %delta.1.i.i = select i1 %cmp13.i.i, i32 %sub15.i.i, i32 %delta.0.i.i
  %add18.i.i = add nsw i32 %delta.1.i.i, %s.sroa.39.11502
  %add.i.i.i = add nsw i32 %add18.i.i, 1
  %cmp.i.i.i = icmp eq i32 %add.i.i.i, %s.sroa.39.11502
  br i1 %cmp.i.i.i, label %_ZN11CStringBaseIwE10GrowLengthEi.exit.i, label %if.end.i.i.i

if.end.i.i.i:                                     ; preds = %if.end.i.i
  %conv.i.i.i = zext i32 %add.i.i.i to i64
  %34 = icmp slt i32 %add18.i.i, -1
  %35 = shl nuw nsw i64 %conv.i.i.i, 2
  %36 = select i1 %34, i64 -1, i64 %35
  %call.i.i.i1040 = invoke noalias noundef nonnull ptr @_Znam(i64 noundef %36) #18
          to label %call.i.i.i.noexc unwind label %lpad107

call.i.i.i.noexc:                                 ; preds = %if.end.i.i.i
  %call.i.i.i10401678 = ptrtoint ptr %call.i.i.i1040 to i64
  %cmp3.i.i.i = icmp sgt i32 %s.sroa.39.11502, 0
  br i1 %cmp3.i.i.i, label %for.cond.preheader.i.i.i, label %if.end9.i.i.i

for.cond.preheader.i.i.i:                         ; preds = %call.i.i.i.noexc
  %cmp522.i.i.i = icmp sgt i32 %s.sroa.23.11501, 0
  br i1 %cmp522.i.i.i, label %for.body.lr.ph.i.i.i, label %delete.notnull.i.i.i

for.body.lr.ph.i.i.i:                             ; preds = %for.cond.preheader.i.i.i
  %wide.trip.count.i.i.i = zext i32 %s.sroa.23.11501 to i64
  %min.iters.check1683 = icmp ult i32 %s.sroa.23.11501, 8
  %37 = sub i64 %call.i.i.i10401678, %s.sroa.0.115031679
  %diff.check1680 = icmp ult i64 %37, 32
  %or.cond1694 = or i1 %min.iters.check1683, %diff.check1680
  br i1 %or.cond1694, label %for.body.i.i.i.preheader, label %vector.ph1684

vector.ph1684:                                    ; preds = %for.body.lr.ph.i.i.i
  %n.vec1686 = and i64 %wide.trip.count.i.i.i, 4294967288
  br label %vector.body1689

vector.body1689:                                  ; preds = %vector.body1689, %vector.ph1684
  %index1690 = phi i64 [ 0, %vector.ph1684 ], [ %index.next1693, %vector.body1689 ]
  %38 = getelementptr inbounds i32, ptr %s.sroa.0.11503, i64 %index1690
  %wide.load1691 = load <4 x i32>, ptr %38, align 4, !tbaa !52
  %39 = getelementptr inbounds i32, ptr %38, i64 4
  %wide.load1692 = load <4 x i32>, ptr %39, align 4, !tbaa !52
  %40 = getelementptr inbounds i32, ptr %call.i.i.i1040, i64 %index1690
  store <4 x i32> %wide.load1691, ptr %40, align 4, !tbaa !52
  %41 = getelementptr inbounds i32, ptr %40, i64 4
  store <4 x i32> %wide.load1692, ptr %41, align 4, !tbaa !52
  %index.next1693 = add nuw i64 %index1690, 8
  %42 = icmp eq i64 %index.next1693, %n.vec1686
  br i1 %42, label %middle.block1681, label %vector.body1689, !llvm.loop !54

middle.block1681:                                 ; preds = %vector.body1689
  %cmp.n1688 = icmp eq i64 %n.vec1686, %wide.trip.count.i.i.i
  br i1 %cmp.n1688, label %delete.notnull.i.i.i, label %for.body.i.i.i.preheader

for.body.i.i.i.preheader:                         ; preds = %for.body.lr.ph.i.i.i, %middle.block1681
  %indvars.iv.i.i.i.ph = phi i64 [ 0, %for.body.lr.ph.i.i.i ], [ %n.vec1686, %middle.block1681 ]
  %43 = xor i64 %indvars.iv.i.i.i.ph, -1
  %44 = add nsw i64 %43, %wide.trip.count.i.i.i
  %xtraiter = and i64 %wide.trip.count.i.i.i, 3
  %lcmp.mod.not = icmp eq i64 %xtraiter, 0
  br i1 %lcmp.mod.not, label %for.body.i.i.i.prol.loopexit, label %for.body.i.i.i.prol

for.body.i.i.i.prol:                              ; preds = %for.body.i.i.i.preheader, %for.body.i.i.i.prol
  %indvars.iv.i.i.i.prol = phi i64 [ %indvars.iv.next.i.i.i.prol, %for.body.i.i.i.prol ], [ %indvars.iv.i.i.i.ph, %for.body.i.i.i.preheader ]
  %prol.iter = phi i64 [ %prol.iter.next, %for.body.i.i.i.prol ], [ 0, %for.body.i.i.i.preheader ]
  %arrayidx.i.i.i.prol = getelementptr inbounds i32, ptr %s.sroa.0.11503, i64 %indvars.iv.i.i.i.prol
  %45 = load i32, ptr %arrayidx.i.i.i.prol, align 4, !tbaa !52
  %arrayidx7.i.i.i.prol = getelementptr inbounds i32, ptr %call.i.i.i1040, i64 %indvars.iv.i.i.i.prol
  store i32 %45, ptr %arrayidx7.i.i.i.prol, align 4, !tbaa !52
  %indvars.iv.next.i.i.i.prol = add nuw nsw i64 %indvars.iv.i.i.i.prol, 1
  %prol.iter.next = add i64 %prol.iter, 1
  %prol.iter.cmp.not = icmp eq i64 %prol.iter.next, %xtraiter
  br i1 %prol.iter.cmp.not, label %for.body.i.i.i.prol.loopexit, label %for.body.i.i.i.prol, !llvm.loop !57

for.body.i.i.i.prol.loopexit:                     ; preds = %for.body.i.i.i.prol, %for.body.i.i.i.preheader
  %indvars.iv.i.i.i.unr = phi i64 [ %indvars.iv.i.i.i.ph, %for.body.i.i.i.preheader ], [ %indvars.iv.next.i.i.i.prol, %for.body.i.i.i.prol ]
  %46 = icmp ult i64 %44, 3
  br i1 %46, label %delete.notnull.i.i.i, label %for.body.i.i.i

for.body.i.i.i:                                   ; preds = %for.body.i.i.i.prol.loopexit, %for.body.i.i.i
  %indvars.iv.i.i.i = phi i64 [ %indvars.iv.next.i.i.i.3, %for.body.i.i.i ], [ %indvars.iv.i.i.i.unr, %for.body.i.i.i.prol.loopexit ]
  %arrayidx.i.i.i = getelementptr inbounds i32, ptr %s.sroa.0.11503, i64 %indvars.iv.i.i.i
  %47 = load i32, ptr %arrayidx.i.i.i, align 4, !tbaa !52
  %arrayidx7.i.i.i = getelementptr inbounds i32, ptr %call.i.i.i1040, i64 %indvars.iv.i.i.i
  store i32 %47, ptr %arrayidx7.i.i.i, align 4, !tbaa !52
  %indvars.iv.next.i.i.i = add nuw nsw i64 %indvars.iv.i.i.i, 1
  %arrayidx.i.i.i.1 = getelementptr inbounds i32, ptr %s.sroa.0.11503, i64 %indvars.iv.next.i.i.i
  %48 = load i32, ptr %arrayidx.i.i.i.1, align 4, !tbaa !52
  %arrayidx7.i.i.i.1 = getelementptr inbounds i32, ptr %call.i.i.i1040, i64 %indvars.iv.next.i.i.i
  store i32 %48, ptr %arrayidx7.i.i.i.1, align 4, !tbaa !52
  %indvars.iv.next.i.i.i.1 = add nuw nsw i64 %indvars.iv.i.i.i, 2
  %arrayidx.i.i.i.2 = getelementptr inbounds i32, ptr %s.sroa.0.11503, i64 %indvars.iv.next.i.i.i.1
  %49 = load i32, ptr %arrayidx.i.i.i.2, align 4, !tbaa !52
  %arrayidx7.i.i.i.2 = getelementptr inbounds i32, ptr %call.i.i.i1040, i64 %indvars.iv.next.i.i.i.1
  store i32 %49, ptr %arrayidx7.i.i.i.2, align 4, !tbaa !52
  %indvars.iv.next.i.i.i.2 = add nuw nsw i64 %indvars.iv.i.i.i, 3
  %arrayidx.i.i.i.3 = getelementptr inbounds i32, ptr %s.sroa.0.11503, i64 %indvars.iv.next.i.i.i.2
  %50 = load i32, ptr %arrayidx.i.i.i.3, align 4, !tbaa !52
  %arrayidx7.i.i.i.3 = getelementptr inbounds i32, ptr %call.i.i.i1040, i64 %indvars.iv.next.i.i.i.2
  store i32 %50, ptr %arrayidx7.i.i.i.3, align 4, !tbaa !52
  %indvars.iv.next.i.i.i.3 = add nuw nsw i64 %indvars.iv.i.i.i, 4
  %exitcond.not.i.i.i.3 = icmp eq i64 %indvars.iv.next.i.i.i.3, %wide.trip.count.i.i.i
  br i1 %exitcond.not.i.i.i.3, label %delete.notnull.i.i.i, label %for.body.i.i.i, !llvm.loop !59

delete.notnull.i.i.i:                             ; preds = %for.body.i.i.i.prol.loopexit, %for.body.i.i.i, %middle.block1681, %for.cond.preheader.i.i.i
  call void @_ZdaPv(ptr noundef nonnull %s.sroa.0.11503) #17
  br label %if.end9.i.i.i

if.end9.i.i.i:                                    ; preds = %delete.notnull.i.i.i, %call.i.i.i.noexc
  %idxprom13.i.i.i = sext i32 %s.sroa.23.11501 to i64
  %arrayidx14.i.i.i = getelementptr inbounds i32, ptr %call.i.i.i1040, i64 %idxprom13.i.i.i
  store i32 0, ptr %arrayidx14.i.i.i, align 4, !tbaa !52
  br label %_ZN11CStringBaseIwE10GrowLengthEi.exit.i

_ZN11CStringBaseIwE10GrowLengthEi.exit.i:         ; preds = %if.end9.i.i.i, %if.end.i.i, %for.body105
  %s.sroa.39.2 = phi i32 [ %s.sroa.39.11502, %if.end.i.i ], [ %add.i.i.i, %if.end9.i.i.i ], [ %s.sroa.39.11502, %for.body105 ]
  %s.sroa.0.2 = phi ptr [ %s.sroa.0.11503, %if.end.i.i ], [ %call.i.i.i1040, %if.end9.i.i.i ], [ %s.sroa.0.11503, %for.body105 ]
  %s.sroa.0.21662 = ptrtoint ptr %s.sroa.0.2 to i64
  %idx.ext.i = sext i32 %s.sroa.23.11501 to i64
  %add.ptr.i = getelementptr inbounds i32, ptr %s.sroa.0.2, i64 %idx.ext.i
  %51 = load ptr, ptr %31, align 8, !tbaa !17
  br label %while.cond.i.i

while.cond.i.i:                                   ; preds = %while.cond.i.i, %_ZN11CStringBaseIwE10GrowLengthEi.exit.i
  %src.addr.0.i.i = phi ptr [ %51, %_ZN11CStringBaseIwE10GrowLengthEi.exit.i ], [ %incdec.ptr.i.i, %while.cond.i.i ]
  %dest.addr.0.i.i = phi ptr [ %add.ptr.i, %_ZN11CStringBaseIwE10GrowLengthEi.exit.i ], [ %incdec.ptr1.i.i, %while.cond.i.i ]
  %incdec.ptr.i.i = getelementptr inbounds i32, ptr %src.addr.0.i.i, i64 1
  %52 = load i32, ptr %src.addr.0.i.i, align 4, !tbaa !52
  %incdec.ptr1.i.i = getelementptr inbounds i32, ptr %dest.addr.0.i.i, i64 1
  store i32 %52, ptr %dest.addr.0.i.i, align 4, !tbaa !52
  %cmp.not.i8.i = icmp eq i32 %52, 0
  br i1 %cmp.not.i8.i, label %_ZN11CStringBaseIwEpLERKS0_.exit, label %while.cond.i.i, !llvm.loop !60

_ZN11CStringBaseIwEpLERKS0_.exit:                 ; preds = %while.cond.i.i
  %53 = load i32, ptr %_length.i, align 8, !tbaa !49
  %add.i = add nsw i32 %53, %s.sroa.23.11501
  %AddExt = getelementptr inbounds %struct.CArcExtInfo, ptr %31, i64 0, i32 1
  %_length.i1041 = getelementptr inbounds %struct.CArcExtInfo, ptr %31, i64 0, i32 1, i32 1
  %54 = load i32, ptr %_length.i1041, align 8, !tbaa !49
  %cmp.i1042 = icmp eq i32 %54, 0
  br i1 %cmp.i1042, label %if.end122, label %for.cond.i.i.preheader

for.cond.i.i.preheader:                           ; preds = %_ZN11CStringBaseIwEpLERKS0_.exit
  %55 = xor i32 %add.i, -1
  %sub2.i.i1047 = add i32 %s.sroa.39.2, %55
  %cmp.not.i6.i = icmp slt i32 %sub2.i.i1047, 2
  br i1 %cmp.not.i6.i, label %if.end.i.i1060, label %_ZN11CStringBaseIwE10GrowLengthEi.exit.i1083

if.end.i.i1060:                                   ; preds = %for.cond.i.i.preheader
  %cmp4.i.i1048 = icmp sgt i32 %s.sroa.39.2, 64
  %div24.i.i1049 = lshr i32 %s.sroa.39.2, 1
  %cmp8.i.i1050 = icmp sgt i32 %s.sroa.39.2, 8
  %..i.i1051 = select i1 %cmp8.i.i1050, i32 16, i32 4
  %delta.0.i.i1052 = select i1 %cmp4.i.i1048, i32 %div24.i.i1049, i32 %..i.i1051
  %add.i.i1053 = add nsw i32 %sub2.i.i1047, %delta.0.i.i1052
  %cmp13.i.i1054 = icmp slt i32 %add.i.i1053, 2
  %sub15.i.i1055 = sub nsw i32 2, %sub2.i.i1047
  %delta.1.i.i1056 = select i1 %cmp13.i.i1054, i32 %sub15.i.i1055, i32 %delta.0.i.i1052
  %add18.i.i1057 = add nsw i32 %delta.1.i.i1056, %s.sroa.39.2
  %add.i.i.i1058 = add nsw i32 %add18.i.i1057, 1
  %cmp.i.i.i1059 = icmp eq i32 %add.i.i.i1058, %s.sroa.39.2
  br i1 %cmp.i.i.i1059, label %_ZN11CStringBaseIwE10GrowLengthEi.exit.i1083, label %if.end.i.i.i1063

if.end.i.i.i1063:                                 ; preds = %if.end.i.i1060
  %conv.i.i.i1061 = zext i32 %add.i.i.i1058 to i64
  %56 = icmp slt i32 %add18.i.i1057, -1
  %57 = shl nuw nsw i64 %conv.i.i.i1061, 2
  %58 = select i1 %56, i64 -1, i64 %57
  %call.i.i.i1091 = invoke noalias noundef nonnull ptr @_Znam(i64 noundef %58) #18
          to label %call.i.i.i.noexc1090 unwind label %lpad107

call.i.i.i.noexc1090:                             ; preds = %if.end.i.i.i1063
  %call.i.i.i10911661 = ptrtoint ptr %call.i.i.i1091 to i64
  %cmp3.i.i.i1062 = icmp sgt i32 %s.sroa.39.2, 0
  br i1 %cmp3.i.i.i1062, label %for.cond.preheader.i.i.i1065, label %if.end9.i.i.i1080

for.cond.preheader.i.i.i1065:                     ; preds = %call.i.i.i.noexc1090
  %cmp522.i.i.i1064 = icmp sgt i32 %add.i, 0
  br i1 %cmp522.i.i.i1064, label %for.body.lr.ph.i.i.i1067, label %for.cond.cleanup.i.i.i1069

for.body.lr.ph.i.i.i1067:                         ; preds = %for.cond.preheader.i.i.i1065
  %wide.trip.count.i.i.i1066 = zext i32 %add.i to i64
  %min.iters.check1666 = icmp ult i32 %add.i, 8
  %59 = sub i64 %call.i.i.i10911661, %s.sroa.0.21662
  %diff.check1663 = icmp ult i64 %59, 32
  %or.cond1695 = or i1 %min.iters.check1666, %diff.check1663
  br i1 %or.cond1695, label %for.body.i.i.i1075.preheader, label %vector.ph1667

vector.ph1667:                                    ; preds = %for.body.lr.ph.i.i.i1067
  %n.vec1669 = and i64 %wide.trip.count.i.i.i1066, 4294967288
  br label %vector.body1672

vector.body1672:                                  ; preds = %vector.body1672, %vector.ph1667
  %index1673 = phi i64 [ 0, %vector.ph1667 ], [ %index.next1676, %vector.body1672 ]
  %60 = getelementptr inbounds i32, ptr %s.sroa.0.2, i64 %index1673
  %wide.load1674 = load <4 x i32>, ptr %60, align 4, !tbaa !52
  %61 = getelementptr inbounds i32, ptr %60, i64 4
  %wide.load1675 = load <4 x i32>, ptr %61, align 4, !tbaa !52
  %62 = getelementptr inbounds i32, ptr %call.i.i.i1091, i64 %index1673
  store <4 x i32> %wide.load1674, ptr %62, align 4, !tbaa !52
  %63 = getelementptr inbounds i32, ptr %62, i64 4
  store <4 x i32> %wide.load1675, ptr %63, align 4, !tbaa !52
  %index.next1676 = add nuw i64 %index1673, 8
  %64 = icmp eq i64 %index.next1676, %n.vec1669
  br i1 %64, label %middle.block1664, label %vector.body1672, !llvm.loop !61

middle.block1664:                                 ; preds = %vector.body1672
  %cmp.n1671 = icmp eq i64 %n.vec1669, %wide.trip.count.i.i.i1066
  br i1 %cmp.n1671, label %delete.notnull.i.i.i1077, label %for.body.i.i.i1075.preheader

for.body.i.i.i1075.preheader:                     ; preds = %for.body.lr.ph.i.i.i1067, %middle.block1664
  %indvars.iv.i.i.i1070.ph = phi i64 [ 0, %for.body.lr.ph.i.i.i1067 ], [ %n.vec1669, %middle.block1664 ]
  %65 = xor i64 %indvars.iv.i.i.i1070.ph, -1
  %66 = add nsw i64 %65, %wide.trip.count.i.i.i1066
  %xtraiter1703 = and i64 %wide.trip.count.i.i.i1066, 3
  %lcmp.mod1704.not = icmp eq i64 %xtraiter1703, 0
  br i1 %lcmp.mod1704.not, label %for.body.i.i.i1075.prol.loopexit, label %for.body.i.i.i1075.prol

for.body.i.i.i1075.prol:                          ; preds = %for.body.i.i.i1075.preheader, %for.body.i.i.i1075.prol
  %indvars.iv.i.i.i1070.prol = phi i64 [ %indvars.iv.next.i.i.i1073.prol, %for.body.i.i.i1075.prol ], [ %indvars.iv.i.i.i1070.ph, %for.body.i.i.i1075.preheader ]
  %prol.iter1705 = phi i64 [ %prol.iter1705.next, %for.body.i.i.i1075.prol ], [ 0, %for.body.i.i.i1075.preheader ]
  %arrayidx.i.i.i1071.prol = getelementptr inbounds i32, ptr %s.sroa.0.2, i64 %indvars.iv.i.i.i1070.prol
  %67 = load i32, ptr %arrayidx.i.i.i1071.prol, align 4, !tbaa !52
  %arrayidx7.i.i.i1072.prol = getelementptr inbounds i32, ptr %call.i.i.i1091, i64 %indvars.iv.i.i.i1070.prol
  store i32 %67, ptr %arrayidx7.i.i.i1072.prol, align 4, !tbaa !52
  %indvars.iv.next.i.i.i1073.prol = add nuw nsw i64 %indvars.iv.i.i.i1070.prol, 1
  %prol.iter1705.next = add i64 %prol.iter1705, 1
  %prol.iter1705.cmp.not = icmp eq i64 %prol.iter1705.next, %xtraiter1703
  br i1 %prol.iter1705.cmp.not, label %for.body.i.i.i1075.prol.loopexit, label %for.body.i.i.i1075.prol, !llvm.loop !62

for.body.i.i.i1075.prol.loopexit:                 ; preds = %for.body.i.i.i1075.prol, %for.body.i.i.i1075.preheader
  %indvars.iv.i.i.i1070.unr = phi i64 [ %indvars.iv.i.i.i1070.ph, %for.body.i.i.i1075.preheader ], [ %indvars.iv.next.i.i.i1073.prol, %for.body.i.i.i1075.prol ]
  %68 = icmp ult i64 %66, 3
  br i1 %68, label %delete.notnull.i.i.i1077, label %for.body.i.i.i1075

for.cond.cleanup.i.i.i1069:                       ; preds = %for.cond.preheader.i.i.i1065
  %isnull.i.i.i1068 = icmp eq ptr %s.sroa.0.2, null
  br i1 %isnull.i.i.i1068, label %if.end9.i.i.i1080, label %delete.notnull.i.i.i1077

for.body.i.i.i1075:                               ; preds = %for.body.i.i.i1075.prol.loopexit, %for.body.i.i.i1075
  %indvars.iv.i.i.i1070 = phi i64 [ %indvars.iv.next.i.i.i1073.3, %for.body.i.i.i1075 ], [ %indvars.iv.i.i.i1070.unr, %for.body.i.i.i1075.prol.loopexit ]
  %arrayidx.i.i.i1071 = getelementptr inbounds i32, ptr %s.sroa.0.2, i64 %indvars.iv.i.i.i1070
  %69 = load i32, ptr %arrayidx.i.i.i1071, align 4, !tbaa !52
  %arrayidx7.i.i.i1072 = getelementptr inbounds i32, ptr %call.i.i.i1091, i64 %indvars.iv.i.i.i1070
  store i32 %69, ptr %arrayidx7.i.i.i1072, align 4, !tbaa !52
  %indvars.iv.next.i.i.i1073 = add nuw nsw i64 %indvars.iv.i.i.i1070, 1
  %arrayidx.i.i.i1071.1 = getelementptr inbounds i32, ptr %s.sroa.0.2, i64 %indvars.iv.next.i.i.i1073
  %70 = load i32, ptr %arrayidx.i.i.i1071.1, align 4, !tbaa !52
  %arrayidx7.i.i.i1072.1 = getelementptr inbounds i32, ptr %call.i.i.i1091, i64 %indvars.iv.next.i.i.i1073
  store i32 %70, ptr %arrayidx7.i.i.i1072.1, align 4, !tbaa !52
  %indvars.iv.next.i.i.i1073.1 = add nuw nsw i64 %indvars.iv.i.i.i1070, 2
  %arrayidx.i.i.i1071.2 = getelementptr inbounds i32, ptr %s.sroa.0.2, i64 %indvars.iv.next.i.i.i1073.1
  %71 = load i32, ptr %arrayidx.i.i.i1071.2, align 4, !tbaa !52
  %arrayidx7.i.i.i1072.2 = getelementptr inbounds i32, ptr %call.i.i.i1091, i64 %indvars.iv.next.i.i.i1073.1
  store i32 %71, ptr %arrayidx7.i.i.i1072.2, align 4, !tbaa !52
  %indvars.iv.next.i.i.i1073.2 = add nuw nsw i64 %indvars.iv.i.i.i1070, 3
  %arrayidx.i.i.i1071.3 = getelementptr inbounds i32, ptr %s.sroa.0.2, i64 %indvars.iv.next.i.i.i1073.2
  %72 = load i32, ptr %arrayidx.i.i.i1071.3, align 4, !tbaa !52
  %arrayidx7.i.i.i1072.3 = getelementptr inbounds i32, ptr %call.i.i.i1091, i64 %indvars.iv.next.i.i.i1073.2
  store i32 %72, ptr %arrayidx7.i.i.i1072.3, align 4, !tbaa !52
  %indvars.iv.next.i.i.i1073.3 = add nuw nsw i64 %indvars.iv.i.i.i1070, 4
  %exitcond.not.i.i.i1074.3 = icmp eq i64 %indvars.iv.next.i.i.i1073.3, %wide.trip.count.i.i.i1066
  br i1 %exitcond.not.i.i.i1074.3, label %delete.notnull.i.i.i1077, label %for.body.i.i.i1075, !llvm.loop !63

delete.notnull.i.i.i1077:                         ; preds = %for.body.i.i.i1075.prol.loopexit, %for.body.i.i.i1075, %middle.block1664, %for.cond.cleanup.i.i.i1069
  call void @_ZdaPv(ptr noundef nonnull %s.sroa.0.2) #17
  br label %if.end9.i.i.i1080

if.end9.i.i.i1080:                                ; preds = %delete.notnull.i.i.i1077, %for.cond.cleanup.i.i.i1069, %call.i.i.i.noexc1090
  %idxprom13.i.i.i1078 = sext i32 %add.i to i64
  %arrayidx14.i.i.i1079 = getelementptr inbounds i32, ptr %call.i.i.i1091, i64 %idxprom13.i.i.i1078
  store i32 0, ptr %arrayidx14.i.i.i1079, align 4, !tbaa !52
  %.pre = load i32, ptr %_length.i1041, align 8, !tbaa !49
  br label %_ZN11CStringBaseIwE10GrowLengthEi.exit.i1083

_ZN11CStringBaseIwE10GrowLengthEi.exit.i1083:     ; preds = %if.end9.i.i.i1080, %if.end.i.i1060, %for.cond.i.i.preheader
  %73 = phi i32 [ %54, %if.end.i.i1060 ], [ %.pre, %if.end9.i.i.i1080 ], [ %54, %for.cond.i.i.preheader ]
  %s.sroa.39.3 = phi i32 [ %s.sroa.39.2, %if.end.i.i1060 ], [ %add.i.i.i1058, %if.end9.i.i.i1080 ], [ %s.sroa.39.2, %for.cond.i.i.preheader ]
  %s.sroa.0.3 = phi ptr [ %s.sroa.0.2, %if.end.i.i1060 ], [ %call.i.i.i1091, %if.end9.i.i.i1080 ], [ %s.sroa.0.2, %for.cond.i.i.preheader ]
  %s.sroa.0.31645 = ptrtoint ptr %s.sroa.0.3 to i64
  %idx.ext.i1081 = sext i32 %add.i to i64
  %add.ptr.i1082 = getelementptr i32, ptr %s.sroa.0.3, i64 %idx.ext.i1081
  %incdec.ptr1.i.i1087 = getelementptr inbounds i32, ptr %add.ptr.i1082, i64 1
  store i32 32, ptr %add.ptr.i1082, align 4, !tbaa !52
  %incdec.ptr1.i.i1087.1 = getelementptr inbounds i32, ptr %add.ptr.i1082, i64 2
  store i32 40, ptr %incdec.ptr1.i.i1087, align 4, !tbaa !52
  store i32 0, ptr %incdec.ptr1.i.i1087.1, align 4, !tbaa !52
  %add.i1089 = add nsw i32 %add.i, 2
  %reass.sub = sub i32 %s.sroa.39.3, %add.i
  %sub2.i.i1095 = add i32 %reass.sub, -3
  %cmp.not.i.i1096 = icmp sgt i32 %73, %sub2.i.i1095
  br i1 %cmp.not.i.i1096, label %if.end.i.i1109, label %_ZN11CStringBaseIwE10GrowLengthEi.exit.i1132

if.end.i.i1109:                                   ; preds = %_ZN11CStringBaseIwE10GrowLengthEi.exit.i1083
  %cmp4.i.i1097 = icmp sgt i32 %s.sroa.39.3, 64
  %div24.i.i1098 = lshr i32 %s.sroa.39.3, 1
  %cmp8.i.i1099 = icmp sgt i32 %s.sroa.39.3, 8
  %..i.i1100 = select i1 %cmp8.i.i1099, i32 16, i32 4
  %delta.0.i.i1101 = select i1 %cmp4.i.i1097, i32 %div24.i.i1098, i32 %..i.i1100
  %add.i.i1102 = add nsw i32 %delta.0.i.i1101, %sub2.i.i1095
  %cmp13.i.i1103 = icmp slt i32 %add.i.i1102, %73
  %sub15.i.i1104 = sub nsw i32 %73, %sub2.i.i1095
  %delta.1.i.i1105 = select i1 %cmp13.i.i1103, i32 %sub15.i.i1104, i32 %delta.0.i.i1101
  %add18.i.i1106 = add nsw i32 %delta.1.i.i1105, %s.sroa.39.3
  %add.i.i.i1107 = add nsw i32 %add18.i.i1106, 1
  %cmp.i.i.i1108 = icmp eq i32 %add.i.i.i1107, %s.sroa.39.3
  br i1 %cmp.i.i.i1108, label %_ZN11CStringBaseIwE10GrowLengthEi.exit.i1132, label %if.end.i.i.i1112

if.end.i.i.i1112:                                 ; preds = %if.end.i.i1109
  %conv.i.i.i1110 = zext i32 %add.i.i.i1107 to i64
  %74 = icmp slt i32 %add18.i.i1106, -1
  %75 = shl nuw nsw i64 %conv.i.i.i1110, 2
  %76 = select i1 %74, i64 -1, i64 %75
  %call.i.i.i1141 = invoke noalias noundef nonnull ptr @_Znam(i64 noundef %76) #18
          to label %call.i.i.i.noexc1140 unwind label %lpad107

call.i.i.i.noexc1140:                             ; preds = %if.end.i.i.i1112
  %call.i.i.i11411644 = ptrtoint ptr %call.i.i.i1141 to i64
  %cmp3.i.i.i1111 = icmp sgt i32 %s.sroa.39.3, 0
  br i1 %cmp3.i.i.i1111, label %for.cond.preheader.i.i.i1114, label %if.end9.i.i.i1129

for.cond.preheader.i.i.i1114:                     ; preds = %call.i.i.i.noexc1140
  %cmp522.i.i.i1113 = icmp sgt i32 %add.i, -2
  br i1 %cmp522.i.i.i1113, label %for.body.lr.ph.i.i.i1116, label %delete.notnull.i.i.i1126

for.body.lr.ph.i.i.i1116:                         ; preds = %for.cond.preheader.i.i.i1114
  %wide.trip.count.i.i.i1115 = zext i32 %add.i1089 to i64
  %min.iters.check1649 = icmp ult i32 %add.i1089, 8
  %77 = sub i64 %call.i.i.i11411644, %s.sroa.0.31645
  %diff.check1646 = icmp ult i64 %77, 32
  %or.cond1696 = or i1 %min.iters.check1649, %diff.check1646
  br i1 %or.cond1696, label %for.body.i.i.i1124.preheader, label %vector.ph1650

vector.ph1650:                                    ; preds = %for.body.lr.ph.i.i.i1116
  %n.vec1652 = and i64 %wide.trip.count.i.i.i1115, 4294967288
  br label %vector.body1655

vector.body1655:                                  ; preds = %vector.body1655, %vector.ph1650
  %index1656 = phi i64 [ 0, %vector.ph1650 ], [ %index.next1659, %vector.body1655 ]
  %78 = getelementptr inbounds i32, ptr %s.sroa.0.3, i64 %index1656
  %wide.load1657 = load <4 x i32>, ptr %78, align 4, !tbaa !52
  %79 = getelementptr inbounds i32, ptr %78, i64 4
  %wide.load1658 = load <4 x i32>, ptr %79, align 4, !tbaa !52
  %80 = getelementptr inbounds i32, ptr %call.i.i.i1141, i64 %index1656
  store <4 x i32> %wide.load1657, ptr %80, align 4, !tbaa !52
  %81 = getelementptr inbounds i32, ptr %80, i64 4
  store <4 x i32> %wide.load1658, ptr %81, align 4, !tbaa !52
  %index.next1659 = add nuw i64 %index1656, 8
  %82 = icmp eq i64 %index.next1659, %n.vec1652
  br i1 %82, label %middle.block1647, label %vector.body1655, !llvm.loop !64

middle.block1647:                                 ; preds = %vector.body1655
  %cmp.n1654 = icmp eq i64 %n.vec1652, %wide.trip.count.i.i.i1115
  br i1 %cmp.n1654, label %delete.notnull.i.i.i1126, label %for.body.i.i.i1124.preheader

for.body.i.i.i1124.preheader:                     ; preds = %for.body.lr.ph.i.i.i1116, %middle.block1647
  %indvars.iv.i.i.i1119.ph = phi i64 [ 0, %for.body.lr.ph.i.i.i1116 ], [ %n.vec1652, %middle.block1647 ]
  %83 = xor i64 %indvars.iv.i.i.i1119.ph, -1
  %84 = add nsw i64 %83, %wide.trip.count.i.i.i1115
  %xtraiter1706 = and i64 %wide.trip.count.i.i.i1115, 3
  %lcmp.mod1707.not = icmp eq i64 %xtraiter1706, 0
  br i1 %lcmp.mod1707.not, label %for.body.i.i.i1124.prol.loopexit, label %for.body.i.i.i1124.prol

for.body.i.i.i1124.prol:                          ; preds = %for.body.i.i.i1124.preheader, %for.body.i.i.i1124.prol
  %indvars.iv.i.i.i1119.prol = phi i64 [ %indvars.iv.next.i.i.i1122.prol, %for.body.i.i.i1124.prol ], [ %indvars.iv.i.i.i1119.ph, %for.body.i.i.i1124.preheader ]
  %prol.iter1708 = phi i64 [ %prol.iter1708.next, %for.body.i.i.i1124.prol ], [ 0, %for.body.i.i.i1124.preheader ]
  %arrayidx.i.i.i1120.prol = getelementptr inbounds i32, ptr %s.sroa.0.3, i64 %indvars.iv.i.i.i1119.prol
  %85 = load i32, ptr %arrayidx.i.i.i1120.prol, align 4, !tbaa !52
  %arrayidx7.i.i.i1121.prol = getelementptr inbounds i32, ptr %call.i.i.i1141, i64 %indvars.iv.i.i.i1119.prol
  store i32 %85, ptr %arrayidx7.i.i.i1121.prol, align 4, !tbaa !52
  %indvars.iv.next.i.i.i1122.prol = add nuw nsw i64 %indvars.iv.i.i.i1119.prol, 1
  %prol.iter1708.next = add i64 %prol.iter1708, 1
  %prol.iter1708.cmp.not = icmp eq i64 %prol.iter1708.next, %xtraiter1706
  br i1 %prol.iter1708.cmp.not, label %for.body.i.i.i1124.prol.loopexit, label %for.body.i.i.i1124.prol, !llvm.loop !65

for.body.i.i.i1124.prol.loopexit:                 ; preds = %for.body.i.i.i1124.prol, %for.body.i.i.i1124.preheader
  %indvars.iv.i.i.i1119.unr = phi i64 [ %indvars.iv.i.i.i1119.ph, %for.body.i.i.i1124.preheader ], [ %indvars.iv.next.i.i.i1122.prol, %for.body.i.i.i1124.prol ]
  %86 = icmp ult i64 %84, 3
  br i1 %86, label %delete.notnull.i.i.i1126, label %for.body.i.i.i1124

for.body.i.i.i1124:                               ; preds = %for.body.i.i.i1124.prol.loopexit, %for.body.i.i.i1124
  %indvars.iv.i.i.i1119 = phi i64 [ %indvars.iv.next.i.i.i1122.3, %for.body.i.i.i1124 ], [ %indvars.iv.i.i.i1119.unr, %for.body.i.i.i1124.prol.loopexit ]
  %arrayidx.i.i.i1120 = getelementptr inbounds i32, ptr %s.sroa.0.3, i64 %indvars.iv.i.i.i1119
  %87 = load i32, ptr %arrayidx.i.i.i1120, align 4, !tbaa !52
  %arrayidx7.i.i.i1121 = getelementptr inbounds i32, ptr %call.i.i.i1141, i64 %indvars.iv.i.i.i1119
  store i32 %87, ptr %arrayidx7.i.i.i1121, align 4, !tbaa !52
  %indvars.iv.next.i.i.i1122 = add nuw nsw i64 %indvars.iv.i.i.i1119, 1
  %arrayidx.i.i.i1120.1 = getelementptr inbounds i32, ptr %s.sroa.0.3, i64 %indvars.iv.next.i.i.i1122
  %88 = load i32, ptr %arrayidx.i.i.i1120.1, align 4, !tbaa !52
  %arrayidx7.i.i.i1121.1 = getelementptr inbounds i32, ptr %call.i.i.i1141, i64 %indvars.iv.next.i.i.i1122
  store i32 %88, ptr %arrayidx7.i.i.i1121.1, align 4, !tbaa !52
  %indvars.iv.next.i.i.i1122.1 = add nuw nsw i64 %indvars.iv.i.i.i1119, 2
  %arrayidx.i.i.i1120.2 = getelementptr inbounds i32, ptr %s.sroa.0.3, i64 %indvars.iv.next.i.i.i1122.1
  %89 = load i32, ptr %arrayidx.i.i.i1120.2, align 4, !tbaa !52
  %arrayidx7.i.i.i1121.2 = getelementptr inbounds i32, ptr %call.i.i.i1141, i64 %indvars.iv.next.i.i.i1122.1
  store i32 %89, ptr %arrayidx7.i.i.i1121.2, align 4, !tbaa !52
  %indvars.iv.next.i.i.i1122.2 = add nuw nsw i64 %indvars.iv.i.i.i1119, 3
  %arrayidx.i.i.i1120.3 = getelementptr inbounds i32, ptr %s.sroa.0.3, i64 %indvars.iv.next.i.i.i1122.2
  %90 = load i32, ptr %arrayidx.i.i.i1120.3, align 4, !tbaa !52
  %arrayidx7.i.i.i1121.3 = getelementptr inbounds i32, ptr %call.i.i.i1141, i64 %indvars.iv.next.i.i.i1122.2
  store i32 %90, ptr %arrayidx7.i.i.i1121.3, align 4, !tbaa !52
  %indvars.iv.next.i.i.i1122.3 = add nuw nsw i64 %indvars.iv.i.i.i1119, 4
  %exitcond.not.i.i.i1123.3 = icmp eq i64 %indvars.iv.next.i.i.i1122.3, %wide.trip.count.i.i.i1115
  br i1 %exitcond.not.i.i.i1123.3, label %delete.notnull.i.i.i1126, label %for.body.i.i.i1124, !llvm.loop !66

delete.notnull.i.i.i1126:                         ; preds = %for.body.i.i.i1124.prol.loopexit, %for.body.i.i.i1124, %middle.block1647, %for.cond.preheader.i.i.i1114
  call void @_ZdaPv(ptr noundef nonnull %s.sroa.0.3) #17
  br label %if.end9.i.i.i1129

if.end9.i.i.i1129:                                ; preds = %delete.notnull.i.i.i1126, %call.i.i.i.noexc1140
  %idxprom13.i.i.i1127 = sext i32 %add.i1089 to i64
  %arrayidx14.i.i.i1128 = getelementptr inbounds i32, ptr %call.i.i.i1141, i64 %idxprom13.i.i.i1127
  store i32 0, ptr %arrayidx14.i.i.i1128, align 4, !tbaa !52
  br label %_ZN11CStringBaseIwE10GrowLengthEi.exit.i1132

_ZN11CStringBaseIwE10GrowLengthEi.exit.i1132:     ; preds = %if.end9.i.i.i1129, %if.end.i.i1109, %_ZN11CStringBaseIwE10GrowLengthEi.exit.i1083
  %s.sroa.39.4 = phi i32 [ %s.sroa.39.3, %if.end.i.i1109 ], [ %add.i.i.i1107, %if.end9.i.i.i1129 ], [ %s.sroa.39.3, %_ZN11CStringBaseIwE10GrowLengthEi.exit.i1083 ]
  %s.sroa.0.4 = phi ptr [ %s.sroa.0.3, %if.end.i.i1109 ], [ %call.i.i.i1141, %if.end9.i.i.i1129 ], [ %s.sroa.0.3, %_ZN11CStringBaseIwE10GrowLengthEi.exit.i1083 ]
  %s.sroa.0.41628 = ptrtoint ptr %s.sroa.0.4 to i64
  %idx.ext.i1130 = sext i32 %add.i1089 to i64
  %add.ptr.i1131 = getelementptr inbounds i32, ptr %s.sroa.0.4, i64 %idx.ext.i1130
  %91 = load ptr, ptr %AddExt, align 8, !tbaa !17
  br label %while.cond.i.i1138

while.cond.i.i1138:                               ; preds = %while.cond.i.i1138, %_ZN11CStringBaseIwE10GrowLengthEi.exit.i1132
  %src.addr.0.i.i1133 = phi ptr [ %91, %_ZN11CStringBaseIwE10GrowLengthEi.exit.i1132 ], [ %incdec.ptr.i.i1135, %while.cond.i.i1138 ]
  %dest.addr.0.i.i1134 = phi ptr [ %add.ptr.i1131, %_ZN11CStringBaseIwE10GrowLengthEi.exit.i1132 ], [ %incdec.ptr1.i.i1136, %while.cond.i.i1138 ]
  %incdec.ptr.i.i1135 = getelementptr inbounds i32, ptr %src.addr.0.i.i1133, i64 1
  %92 = load i32, ptr %src.addr.0.i.i1133, align 4, !tbaa !52
  %incdec.ptr1.i.i1136 = getelementptr inbounds i32, ptr %dest.addr.0.i.i1134, i64 1
  store i32 %92, ptr %dest.addr.0.i.i1134, align 4, !tbaa !52
  %cmp.not.i8.i1137 = icmp eq i32 %92, 0
  br i1 %cmp.not.i8.i1137, label %_ZN11CStringBaseIwEpLERKS0_.exit1142, label %while.cond.i.i1138, !llvm.loop !60

_ZN11CStringBaseIwEpLERKS0_.exit1142:             ; preds = %while.cond.i.i1138
  %93 = load i32, ptr %_length.i1041, align 8, !tbaa !49
  %add.i1139 = add nsw i32 %93, %add.i1089
  %94 = xor i32 %add.i1139, -1
  %sub2.i.i1145 = add i32 %s.sroa.39.4, %94
  %cmp.not.i.i1146 = icmp slt i32 %sub2.i.i1145, 1
  br i1 %cmp.not.i.i1146, label %if.end.i.i1159, label %_ZN11CStringBaseIwEpLEw.exit

if.end.i.i1159:                                   ; preds = %_ZN11CStringBaseIwEpLERKS0_.exit1142
  %cmp4.i.i1147 = icmp sgt i32 %s.sroa.39.4, 64
  %div24.i.i1148 = lshr i32 %s.sroa.39.4, 1
  %cmp8.i.i1149 = icmp sgt i32 %s.sroa.39.4, 8
  %..i.i1150 = select i1 %cmp8.i.i1149, i32 16, i32 4
  %delta.0.i.i1151 = select i1 %cmp4.i.i1147, i32 %div24.i.i1148, i32 %..i.i1150
  %add.i.i1152 = add nsw i32 %sub2.i.i1145, %delta.0.i.i1151
  %cmp13.i.i1153 = icmp slt i32 %add.i.i1152, 1
  %sub15.i.i1154 = sub nsw i32 1, %sub2.i.i1145
  %delta.1.i.i1155 = select i1 %cmp13.i.i1153, i32 %sub15.i.i1154, i32 %delta.0.i.i1151
  %add18.i.i1156 = add nsw i32 %delta.1.i.i1155, %s.sroa.39.4
  %add.i.i.i1157 = add nsw i32 %add18.i.i1156, 1
  %cmp.i.i.i1158 = icmp eq i32 %add.i.i.i1157, %s.sroa.39.4
  br i1 %cmp.i.i.i1158, label %_ZN11CStringBaseIwEpLEw.exit, label %if.end.i.i.i1162

if.end.i.i.i1162:                                 ; preds = %if.end.i.i1159
  %conv.i.i.i1160 = zext i32 %add.i.i.i1157 to i64
  %95 = icmp slt i32 %add18.i.i1156, -1
  %96 = shl nuw nsw i64 %conv.i.i.i1160, 2
  %97 = select i1 %95, i64 -1, i64 %96
  %call.i.i.i1184 = invoke noalias noundef nonnull ptr @_Znam(i64 noundef %97) #18
          to label %call.i.i.i.noexc1183 unwind label %lpad107

call.i.i.i.noexc1183:                             ; preds = %if.end.i.i.i1162
  %call.i.i.i11841627 = ptrtoint ptr %call.i.i.i1184 to i64
  %cmp3.i.i.i1161 = icmp sgt i32 %s.sroa.39.4, 0
  br i1 %cmp3.i.i.i1161, label %for.cond.preheader.i.i.i1164, label %if.end9.i.i.i1179

for.cond.preheader.i.i.i1164:                     ; preds = %call.i.i.i.noexc1183
  %cmp522.i.i.i1163 = icmp sgt i32 %add.i1139, 0
  br i1 %cmp522.i.i.i1163, label %for.body.lr.ph.i.i.i1166, label %for.cond.cleanup.i.i.i1168

for.body.lr.ph.i.i.i1166:                         ; preds = %for.cond.preheader.i.i.i1164
  %wide.trip.count.i.i.i1165 = zext i32 %add.i1139 to i64
  %min.iters.check1632 = icmp ult i32 %add.i1139, 8
  %98 = sub i64 %call.i.i.i11841627, %s.sroa.0.41628
  %diff.check1629 = icmp ult i64 %98, 32
  %or.cond1697 = or i1 %min.iters.check1632, %diff.check1629
  br i1 %or.cond1697, label %for.body.i.i.i1174.preheader, label %vector.ph1633

vector.ph1633:                                    ; preds = %for.body.lr.ph.i.i.i1166
  %n.vec1635 = and i64 %wide.trip.count.i.i.i1165, 4294967288
  br label %vector.body1638

vector.body1638:                                  ; preds = %vector.body1638, %vector.ph1633
  %index1639 = phi i64 [ 0, %vector.ph1633 ], [ %index.next1642, %vector.body1638 ]
  %99 = getelementptr inbounds i32, ptr %s.sroa.0.4, i64 %index1639
  %wide.load1640 = load <4 x i32>, ptr %99, align 4, !tbaa !52
  %100 = getelementptr inbounds i32, ptr %99, i64 4
  %wide.load1641 = load <4 x i32>, ptr %100, align 4, !tbaa !52
  %101 = getelementptr inbounds i32, ptr %call.i.i.i1184, i64 %index1639
  store <4 x i32> %wide.load1640, ptr %101, align 4, !tbaa !52
  %102 = getelementptr inbounds i32, ptr %101, i64 4
  store <4 x i32> %wide.load1641, ptr %102, align 4, !tbaa !52
  %index.next1642 = add nuw i64 %index1639, 8
  %103 = icmp eq i64 %index.next1642, %n.vec1635
  br i1 %103, label %middle.block1630, label %vector.body1638, !llvm.loop !67

middle.block1630:                                 ; preds = %vector.body1638
  %cmp.n1637 = icmp eq i64 %n.vec1635, %wide.trip.count.i.i.i1165
  br i1 %cmp.n1637, label %delete.notnull.i.i.i1176, label %for.body.i.i.i1174.preheader

for.body.i.i.i1174.preheader:                     ; preds = %for.body.lr.ph.i.i.i1166, %middle.block1630
  %indvars.iv.i.i.i1169.ph = phi i64 [ 0, %for.body.lr.ph.i.i.i1166 ], [ %n.vec1635, %middle.block1630 ]
  %104 = xor i64 %indvars.iv.i.i.i1169.ph, -1
  %105 = add nsw i64 %104, %wide.trip.count.i.i.i1165
  %xtraiter1709 = and i64 %wide.trip.count.i.i.i1165, 3
  %lcmp.mod1710.not = icmp eq i64 %xtraiter1709, 0
  br i1 %lcmp.mod1710.not, label %for.body.i.i.i1174.prol.loopexit, label %for.body.i.i.i1174.prol

for.body.i.i.i1174.prol:                          ; preds = %for.body.i.i.i1174.preheader, %for.body.i.i.i1174.prol
  %indvars.iv.i.i.i1169.prol = phi i64 [ %indvars.iv.next.i.i.i1172.prol, %for.body.i.i.i1174.prol ], [ %indvars.iv.i.i.i1169.ph, %for.body.i.i.i1174.preheader ]
  %prol.iter1711 = phi i64 [ %prol.iter1711.next, %for.body.i.i.i1174.prol ], [ 0, %for.body.i.i.i1174.preheader ]
  %arrayidx.i.i.i1170.prol = getelementptr inbounds i32, ptr %s.sroa.0.4, i64 %indvars.iv.i.i.i1169.prol
  %106 = load i32, ptr %arrayidx.i.i.i1170.prol, align 4, !tbaa !52
  %arrayidx7.i.i.i1171.prol = getelementptr inbounds i32, ptr %call.i.i.i1184, i64 %indvars.iv.i.i.i1169.prol
  store i32 %106, ptr %arrayidx7.i.i.i1171.prol, align 4, !tbaa !52
  %indvars.iv.next.i.i.i1172.prol = add nuw nsw i64 %indvars.iv.i.i.i1169.prol, 1
  %prol.iter1711.next = add i64 %prol.iter1711, 1
  %prol.iter1711.cmp.not = icmp eq i64 %prol.iter1711.next, %xtraiter1709
  br i1 %prol.iter1711.cmp.not, label %for.body.i.i.i1174.prol.loopexit, label %for.body.i.i.i1174.prol, !llvm.loop !68

for.body.i.i.i1174.prol.loopexit:                 ; preds = %for.body.i.i.i1174.prol, %for.body.i.i.i1174.preheader
  %indvars.iv.i.i.i1169.unr = phi i64 [ %indvars.iv.i.i.i1169.ph, %for.body.i.i.i1174.preheader ], [ %indvars.iv.next.i.i.i1172.prol, %for.body.i.i.i1174.prol ]
  %107 = icmp ult i64 %105, 3
  br i1 %107, label %delete.notnull.i.i.i1176, label %for.body.i.i.i1174

for.cond.cleanup.i.i.i1168:                       ; preds = %for.cond.preheader.i.i.i1164
  %isnull.i.i.i1167 = icmp eq ptr %s.sroa.0.4, null
  br i1 %isnull.i.i.i1167, label %if.end9.i.i.i1179, label %delete.notnull.i.i.i1176

for.body.i.i.i1174:                               ; preds = %for.body.i.i.i1174.prol.loopexit, %for.body.i.i.i1174
  %indvars.iv.i.i.i1169 = phi i64 [ %indvars.iv.next.i.i.i1172.3, %for.body.i.i.i1174 ], [ %indvars.iv.i.i.i1169.unr, %for.body.i.i.i1174.prol.loopexit ]
  %arrayidx.i.i.i1170 = getelementptr inbounds i32, ptr %s.sroa.0.4, i64 %indvars.iv.i.i.i1169
  %108 = load i32, ptr %arrayidx.i.i.i1170, align 4, !tbaa !52
  %arrayidx7.i.i.i1171 = getelementptr inbounds i32, ptr %call.i.i.i1184, i64 %indvars.iv.i.i.i1169
  store i32 %108, ptr %arrayidx7.i.i.i1171, align 4, !tbaa !52
  %indvars.iv.next.i.i.i1172 = add nuw nsw i64 %indvars.iv.i.i.i1169, 1
  %arrayidx.i.i.i1170.1 = getelementptr inbounds i32, ptr %s.sroa.0.4, i64 %indvars.iv.next.i.i.i1172
  %109 = load i32, ptr %arrayidx.i.i.i1170.1, align 4, !tbaa !52
  %arrayidx7.i.i.i1171.1 = getelementptr inbounds i32, ptr %call.i.i.i1184, i64 %indvars.iv.next.i.i.i1172
  store i32 %109, ptr %arrayidx7.i.i.i1171.1, align 4, !tbaa !52
  %indvars.iv.next.i.i.i1172.1 = add nuw nsw i64 %indvars.iv.i.i.i1169, 2
  %arrayidx.i.i.i1170.2 = getelementptr inbounds i32, ptr %s.sroa.0.4, i64 %indvars.iv.next.i.i.i1172.1
  %110 = load i32, ptr %arrayidx.i.i.i1170.2, align 4, !tbaa !52
  %arrayidx7.i.i.i1171.2 = getelementptr inbounds i32, ptr %call.i.i.i1184, i64 %indvars.iv.next.i.i.i1172.1
  store i32 %110, ptr %arrayidx7.i.i.i1171.2, align 4, !tbaa !52
  %indvars.iv.next.i.i.i1172.2 = add nuw nsw i64 %indvars.iv.i.i.i1169, 3
  %arrayidx.i.i.i1170.3 = getelementptr inbounds i32, ptr %s.sroa.0.4, i64 %indvars.iv.next.i.i.i1172.2
  %111 = load i32, ptr %arrayidx.i.i.i1170.3, align 4, !tbaa !52
  %arrayidx7.i.i.i1171.3 = getelementptr inbounds i32, ptr %call.i.i.i1184, i64 %indvars.iv.next.i.i.i1172.2
  store i32 %111, ptr %arrayidx7.i.i.i1171.3, align 4, !tbaa !52
  %indvars.iv.next.i.i.i1172.3 = add nuw nsw i64 %indvars.iv.i.i.i1169, 4
  %exitcond.not.i.i.i1173.3 = icmp eq i64 %indvars.iv.next.i.i.i1172.3, %wide.trip.count.i.i.i1165
  br i1 %exitcond.not.i.i.i1173.3, label %delete.notnull.i.i.i1176, label %for.body.i.i.i1174, !llvm.loop !69

delete.notnull.i.i.i1176:                         ; preds = %for.body.i.i.i1174.prol.loopexit, %for.body.i.i.i1174, %middle.block1630, %for.cond.cleanup.i.i.i1168
  call void @_ZdaPv(ptr noundef nonnull %s.sroa.0.4) #17
  br label %if.end9.i.i.i1179

if.end9.i.i.i1179:                                ; preds = %delete.notnull.i.i.i1176, %for.cond.cleanup.i.i.i1168, %call.i.i.i.noexc1183
  %idxprom13.i.i.i1177 = sext i32 %add.i1139 to i64
  %arrayidx14.i.i.i1178 = getelementptr inbounds i32, ptr %call.i.i.i1184, i64 %idxprom13.i.i.i1177
  store i32 0, ptr %arrayidx14.i.i.i1178, align 4, !tbaa !52
  br label %_ZN11CStringBaseIwEpLEw.exit

_ZN11CStringBaseIwEpLEw.exit:                     ; preds = %_ZN11CStringBaseIwEpLERKS0_.exit1142, %if.end.i.i1159, %if.end9.i.i.i1179
  %s.sroa.39.5 = phi i32 [ %s.sroa.39.4, %if.end.i.i1159 ], [ %add.i.i.i1157, %if.end9.i.i.i1179 ], [ %s.sroa.39.4, %_ZN11CStringBaseIwEpLERKS0_.exit1142 ]
  %s.sroa.0.5 = phi ptr [ %s.sroa.0.4, %if.end.i.i1159 ], [ %call.i.i.i1184, %if.end9.i.i.i1179 ], [ %s.sroa.0.4, %_ZN11CStringBaseIwEpLERKS0_.exit1142 ]
  %idxprom.i = sext i32 %add.i1139 to i64
  %arrayidx.i1180 = getelementptr inbounds i32, ptr %s.sroa.0.5, i64 %idxprom.i
  store i32 41, ptr %arrayidx.i1180, align 4, !tbaa !52
  %inc.i1181 = add nsw i32 %add.i1139, 1
  %idxprom4.i = sext i32 %inc.i1181 to i64
  %arrayidx5.i = getelementptr inbounds i32, ptr %s.sroa.0.5, i64 %idxprom4.i
  store i32 0, ptr %arrayidx5.i, align 4, !tbaa !52
  br label %if.end122

lpad107:                                          ; preds = %if.end.i.i.i1204, %if.end.i.i.i1162, %if.end.i.i.i1112, %if.end.i.i.i1063, %if.end.i.i.i
  %s.sroa.0.6 = phi ptr [ %s.sroa.0.7, %if.end.i.i.i1204 ], [ %s.sroa.0.4, %if.end.i.i.i1162 ], [ %s.sroa.0.3, %if.end.i.i.i1112 ], [ %s.sroa.0.2, %if.end.i.i.i1063 ], [ %s.sroa.0.11503, %if.end.i.i.i ]
  %112 = landingpad { ptr, i32 }
          cleanup
  br label %ehcleanup171

if.end122:                                        ; preds = %_ZN11CStringBaseIwEpLEw.exit, %_ZN11CStringBaseIwEpLERKS0_.exit
  %s.sroa.23.2 = phi i32 [ %add.i, %_ZN11CStringBaseIwEpLERKS0_.exit ], [ %inc.i1181, %_ZN11CStringBaseIwEpLEw.exit ]
  %s.sroa.39.6 = phi i32 [ %s.sroa.39.2, %_ZN11CStringBaseIwEpLERKS0_.exit ], [ %s.sroa.39.5, %_ZN11CStringBaseIwEpLEw.exit ]
  %s.sroa.0.7 = phi ptr [ %s.sroa.0.2, %_ZN11CStringBaseIwEpLERKS0_.exit ], [ %s.sroa.0.5, %_ZN11CStringBaseIwEpLEw.exit ]
  %s.sroa.0.71624 = ptrtoint ptr %s.sroa.0.7 to i64
  %113 = xor i32 %s.sroa.23.2, -1
  %sub2.i.i1187 = add i32 %s.sroa.39.6, %113
  %cmp.not.i.i1188 = icmp slt i32 %sub2.i.i1187, 1
  br i1 %cmp.not.i.i1188, label %if.end.i.i1201, label %_ZN11CStringBaseIwEpLEw.exit1230

if.end.i.i1201:                                   ; preds = %if.end122
  %cmp4.i.i1189 = icmp sgt i32 %s.sroa.39.6, 64
  %div24.i.i1190 = lshr i32 %s.sroa.39.6, 1
  %cmp8.i.i1191 = icmp sgt i32 %s.sroa.39.6, 8
  %..i.i1192 = select i1 %cmp8.i.i1191, i32 16, i32 4
  %delta.0.i.i1193 = select i1 %cmp4.i.i1189, i32 %div24.i.i1190, i32 %..i.i1192
  %add.i.i1194 = add nsw i32 %delta.0.i.i1193, %sub2.i.i1187
  %cmp13.i.i1195 = icmp slt i32 %add.i.i1194, 1
  %sub15.i.i1196 = sub nsw i32 1, %sub2.i.i1187
  %delta.1.i.i1197 = select i1 %cmp13.i.i1195, i32 %sub15.i.i1196, i32 %delta.0.i.i1193
  %add18.i.i1198 = add nsw i32 %delta.1.i.i1197, %s.sroa.39.6
  %add.i.i.i1199 = add nsw i32 %add18.i.i1198, 1
  %cmp.i.i.i1200 = icmp eq i32 %add.i.i.i1199, %s.sroa.39.6
  br i1 %cmp.i.i.i1200, label %_ZN11CStringBaseIwEpLEw.exit1230, label %if.end.i.i.i1204

if.end.i.i.i1204:                                 ; preds = %if.end.i.i1201
  %conv.i.i.i1202 = zext i32 %add.i.i.i1199 to i64
  %114 = icmp slt i32 %add18.i.i1198, -1
  %115 = shl nuw nsw i64 %conv.i.i.i1202, 2
  %116 = select i1 %114, i64 -1, i64 %115
  %call.i.i.i1229 = invoke noalias noundef nonnull ptr @_Znam(i64 noundef %116) #18
          to label %call.i.i.i.noexc1228 unwind label %lpad107

call.i.i.i.noexc1228:                             ; preds = %if.end.i.i.i1204
  %call.i.i.i12291623 = ptrtoint ptr %call.i.i.i1229 to i64
  %cmp3.i.i.i1203 = icmp sgt i32 %s.sroa.39.6, 0
  br i1 %cmp3.i.i.i1203, label %for.cond.preheader.i.i.i1206, label %if.end9.i.i.i1221

for.cond.preheader.i.i.i1206:                     ; preds = %call.i.i.i.noexc1228
  %cmp522.i.i.i1205 = icmp sgt i32 %s.sroa.23.2, 0
  br i1 %cmp522.i.i.i1205, label %for.body.lr.ph.i.i.i1208, label %for.cond.cleanup.i.i.i1210

for.body.lr.ph.i.i.i1208:                         ; preds = %for.cond.preheader.i.i.i1206
  %wide.trip.count.i.i.i1207 = zext i32 %s.sroa.23.2 to i64
  %min.iters.check = icmp ult i32 %s.sroa.23.2, 8
  %117 = sub i64 %call.i.i.i12291623, %s.sroa.0.71624
  %diff.check = icmp ult i64 %117, 32
  %or.cond1698 = or i1 %min.iters.check, %diff.check
  br i1 %or.cond1698, label %for.body.i.i.i1216.preheader, label %vector.ph

vector.ph:                                        ; preds = %for.body.lr.ph.i.i.i1208
  %n.vec = and i64 %wide.trip.count.i.i.i1207, 4294967288
  br label %vector.body

vector.body:                                      ; preds = %vector.body, %vector.ph
  %index = phi i64 [ 0, %vector.ph ], [ %index.next, %vector.body ]
  %118 = getelementptr inbounds i32, ptr %s.sroa.0.7, i64 %index
  %wide.load = load <4 x i32>, ptr %118, align 4, !tbaa !52
  %119 = getelementptr inbounds i32, ptr %118, i64 4
  %wide.load1625 = load <4 x i32>, ptr %119, align 4, !tbaa !52
  %120 = getelementptr inbounds i32, ptr %call.i.i.i1229, i64 %index
  store <4 x i32> %wide.load, ptr %120, align 4, !tbaa !52
  %121 = getelementptr inbounds i32, ptr %120, i64 4
  store <4 x i32> %wide.load1625, ptr %121, align 4, !tbaa !52
  %index.next = add nuw i64 %index, 8
  %122 = icmp eq i64 %index.next, %n.vec
  br i1 %122, label %middle.block, label %vector.body, !llvm.loop !70

middle.block:                                     ; preds = %vector.body
  %cmp.n = icmp eq i64 %n.vec, %wide.trip.count.i.i.i1207
  br i1 %cmp.n, label %delete.notnull.i.i.i1218, label %for.body.i.i.i1216.preheader

for.body.i.i.i1216.preheader:                     ; preds = %for.body.lr.ph.i.i.i1208, %middle.block
  %indvars.iv.i.i.i1211.ph = phi i64 [ 0, %for.body.lr.ph.i.i.i1208 ], [ %n.vec, %middle.block ]
  %123 = xor i64 %indvars.iv.i.i.i1211.ph, -1
  %124 = add nsw i64 %123, %wide.trip.count.i.i.i1207
  %xtraiter1712 = and i64 %wide.trip.count.i.i.i1207, 3
  %lcmp.mod1713.not = icmp eq i64 %xtraiter1712, 0
  br i1 %lcmp.mod1713.not, label %for.body.i.i.i1216.prol.loopexit, label %for.body.i.i.i1216.prol

for.body.i.i.i1216.prol:                          ; preds = %for.body.i.i.i1216.preheader, %for.body.i.i.i1216.prol
  %indvars.iv.i.i.i1211.prol = phi i64 [ %indvars.iv.next.i.i.i1214.prol, %for.body.i.i.i1216.prol ], [ %indvars.iv.i.i.i1211.ph, %for.body.i.i.i1216.preheader ]
  %prol.iter1714 = phi i64 [ %prol.iter1714.next, %for.body.i.i.i1216.prol ], [ 0, %for.body.i.i.i1216.preheader ]
  %arrayidx.i.i.i1212.prol = getelementptr inbounds i32, ptr %s.sroa.0.7, i64 %indvars.iv.i.i.i1211.prol
  %125 = load i32, ptr %arrayidx.i.i.i1212.prol, align 4, !tbaa !52
  %arrayidx7.i.i.i1213.prol = getelementptr inbounds i32, ptr %call.i.i.i1229, i64 %indvars.iv.i.i.i1211.prol
  store i32 %125, ptr %arrayidx7.i.i.i1213.prol, align 4, !tbaa !52
  %indvars.iv.next.i.i.i1214.prol = add nuw nsw i64 %indvars.iv.i.i.i1211.prol, 1
  %prol.iter1714.next = add i64 %prol.iter1714, 1
  %prol.iter1714.cmp.not = icmp eq i64 %prol.iter1714.next, %xtraiter1712
  br i1 %prol.iter1714.cmp.not, label %for.body.i.i.i1216.prol.loopexit, label %for.body.i.i.i1216.prol, !llvm.loop !71

for.body.i.i.i1216.prol.loopexit:                 ; preds = %for.body.i.i.i1216.prol, %for.body.i.i.i1216.preheader
  %indvars.iv.i.i.i1211.unr = phi i64 [ %indvars.iv.i.i.i1211.ph, %for.body.i.i.i1216.preheader ], [ %indvars.iv.next.i.i.i1214.prol, %for.body.i.i.i1216.prol ]
  %126 = icmp ult i64 %124, 3
  br i1 %126, label %delete.notnull.i.i.i1218, label %for.body.i.i.i1216

for.cond.cleanup.i.i.i1210:                       ; preds = %for.cond.preheader.i.i.i1206
  %isnull.i.i.i1209 = icmp eq ptr %s.sroa.0.7, null
  br i1 %isnull.i.i.i1209, label %if.end9.i.i.i1221, label %delete.notnull.i.i.i1218

for.body.i.i.i1216:                               ; preds = %for.body.i.i.i1216.prol.loopexit, %for.body.i.i.i1216
  %indvars.iv.i.i.i1211 = phi i64 [ %indvars.iv.next.i.i.i1214.3, %for.body.i.i.i1216 ], [ %indvars.iv.i.i.i1211.unr, %for.body.i.i.i1216.prol.loopexit ]
  %arrayidx.i.i.i1212 = getelementptr inbounds i32, ptr %s.sroa.0.7, i64 %indvars.iv.i.i.i1211
  %127 = load i32, ptr %arrayidx.i.i.i1212, align 4, !tbaa !52
  %arrayidx7.i.i.i1213 = getelementptr inbounds i32, ptr %call.i.i.i1229, i64 %indvars.iv.i.i.i1211
  store i32 %127, ptr %arrayidx7.i.i.i1213, align 4, !tbaa !52
  %indvars.iv.next.i.i.i1214 = add nuw nsw i64 %indvars.iv.i.i.i1211, 1
  %arrayidx.i.i.i1212.1 = getelementptr inbounds i32, ptr %s.sroa.0.7, i64 %indvars.iv.next.i.i.i1214
  %128 = load i32, ptr %arrayidx.i.i.i1212.1, align 4, !tbaa !52
  %arrayidx7.i.i.i1213.1 = getelementptr inbounds i32, ptr %call.i.i.i1229, i64 %indvars.iv.next.i.i.i1214
  store i32 %128, ptr %arrayidx7.i.i.i1213.1, align 4, !tbaa !52
  %indvars.iv.next.i.i.i1214.1 = add nuw nsw i64 %indvars.iv.i.i.i1211, 2
  %arrayidx.i.i.i1212.2 = getelementptr inbounds i32, ptr %s.sroa.0.7, i64 %indvars.iv.next.i.i.i1214.1
  %129 = load i32, ptr %arrayidx.i.i.i1212.2, align 4, !tbaa !52
  %arrayidx7.i.i.i1213.2 = getelementptr inbounds i32, ptr %call.i.i.i1229, i64 %indvars.iv.next.i.i.i1214.1
  store i32 %129, ptr %arrayidx7.i.i.i1213.2, align 4, !tbaa !52
  %indvars.iv.next.i.i.i1214.2 = add nuw nsw i64 %indvars.iv.i.i.i1211, 3
  %arrayidx.i.i.i1212.3 = getelementptr inbounds i32, ptr %s.sroa.0.7, i64 %indvars.iv.next.i.i.i1214.2
  %130 = load i32, ptr %arrayidx.i.i.i1212.3, align 4, !tbaa !52
  %arrayidx7.i.i.i1213.3 = getelementptr inbounds i32, ptr %call.i.i.i1229, i64 %indvars.iv.next.i.i.i1214.2
  store i32 %130, ptr %arrayidx7.i.i.i1213.3, align 4, !tbaa !52
  %indvars.iv.next.i.i.i1214.3 = add nuw nsw i64 %indvars.iv.i.i.i1211, 4
  %exitcond.not.i.i.i1215.3 = icmp eq i64 %indvars.iv.next.i.i.i1214.3, %wide.trip.count.i.i.i1207
  br i1 %exitcond.not.i.i.i1215.3, label %delete.notnull.i.i.i1218, label %for.body.i.i.i1216, !llvm.loop !72

delete.notnull.i.i.i1218:                         ; preds = %for.body.i.i.i1216.prol.loopexit, %for.body.i.i.i1216, %middle.block, %for.cond.cleanup.i.i.i1210
  call void @_ZdaPv(ptr noundef nonnull %s.sroa.0.7) #17
  br label %if.end9.i.i.i1221

if.end9.i.i.i1221:                                ; preds = %delete.notnull.i.i.i1218, %for.cond.cleanup.i.i.i1210, %call.i.i.i.noexc1228
  %idxprom13.i.i.i1219 = sext i32 %s.sroa.23.2 to i64
  %arrayidx14.i.i.i1220 = getelementptr inbounds i32, ptr %call.i.i.i1229, i64 %idxprom13.i.i.i1219
  store i32 0, ptr %arrayidx14.i.i.i1220, align 4, !tbaa !52
  br label %_ZN11CStringBaseIwEpLEw.exit1230

_ZN11CStringBaseIwEpLEw.exit1230:                 ; preds = %if.end122, %if.end.i.i1201, %if.end9.i.i.i1221
  %s.sroa.39.7 = phi i32 [ %s.sroa.39.6, %if.end.i.i1201 ], [ %add.i.i.i1199, %if.end9.i.i.i1221 ], [ %s.sroa.39.6, %if.end122 ]
  %s.sroa.0.8 = phi ptr [ %s.sroa.0.7, %if.end.i.i1201 ], [ %call.i.i.i1229, %if.end9.i.i.i1221 ], [ %s.sroa.0.7, %if.end122 ]
  %idxprom.i1222 = sext i32 %s.sroa.23.2 to i64
  %arrayidx.i1223 = getelementptr inbounds i32, ptr %s.sroa.0.8, i64 %idxprom.i1222
  store i32 32, ptr %arrayidx.i1223, align 4, !tbaa !52
  %inc.i1224 = add nsw i32 %s.sroa.23.2, 1
  %idxprom4.i1225 = sext i32 %inc.i1224 to i64
  %arrayidx5.i1226 = getelementptr inbounds i32, ptr %s.sroa.0.8, i64 %idxprom4.i1225
  store i32 0, ptr %arrayidx5.i1226, align 4, !tbaa !52
  %indvars.iv.next = add nuw nsw i64 %indvars.iv, 1
  %131 = load i32, ptr %_size.i1024, align 4, !tbaa !14
  %132 = sext i32 %131 to i64
  %cmp104 = icmp slt i64 %indvars.iv.next, %132
  br i1 %cmp104, label %for.body105, label %for.cond.cleanup, !llvm.loop !73

invoke.cont126:                                   ; preds = %call3.i.noexc1033, %call2.i.noexc1031
  %call128 = invoke noundef nonnull align 8 dereferenceable(16) ptr @_ZN13CStdOutStreamlsEPKc(ptr noundef nonnull align 8 dereferenceable(16) %g_StdErr.g_StdOut, ptr noundef nonnull @.str.1)
          to label %for.cond129.preheader unwind label %lpad125.loopexit.split-lp

for.cond129.preheader:                            ; preds = %invoke.cont126
  %_capacity.i1231 = getelementptr inbounds %struct.CArcInfoEx, ptr %23, i64 0, i32 6, i32 1
  %133 = load i64, ptr %_capacity.i1231, align 8, !tbaa !74
  %cmp1331506.not = icmp eq i64 %133, 0
  br i1 %cmp1331506.not, label %for.cond.cleanup134, label %for.body135.lr.ph

for.body135.lr.ph:                                ; preds = %for.cond129.preheader
  %_items.i1232 = getelementptr inbounds %struct.CArcInfoEx, ptr %23, i64 0, i32 6, i32 2
  br label %for.body135

for.cond.cleanup134:                              ; preds = %invoke.cont160, %for.cond129.preheader
  %call169 = invoke noundef nonnull align 8 dereferenceable(16) ptr @_ZN13CStdOutStreamlsEPFRS_S0_E(ptr noundef nonnull align 8 dereferenceable(16) %g_StdErr.g_StdOut, ptr noundef nonnull @_Z4endlR13CStdOutStream)
          to label %invoke.cont168 unwind label %lpad167

lpad125.loopexit:                                 ; preds = %for.body.i1030
  %lpad.loopexit = landingpad { ptr, i32 }
          cleanup
  br label %ehcleanup171

lpad125.loopexit.split-lp:                        ; preds = %invoke.cont126, %for.cond.cleanup
  %lpad.loopexit.split-lp = landingpad { ptr, i32 }
          cleanup
  br label %ehcleanup171

for.body135:                                      ; preds = %for.body135.lr.ph, %invoke.cont160
  %j.01507 = phi i64 [ 0, %for.body135.lr.ph ], [ %inc164, %invoke.cont160 ]
  %134 = load ptr, ptr %_items.i1232, align 8, !tbaa !75
  %arrayidx = getelementptr inbounds i8, ptr %134, i64 %j.01507
  %135 = load i8, ptr %arrayidx, align 1, !tbaa !76
  %or.cond877 = icmp sgt i8 %135, 32
  br i1 %or.cond877, label %invoke.cont150.invoke, label %if.else

lpad136:                                          ; preds = %invoke.cont150.invoke, %if.end159, %if.else
  %136 = landingpad { ptr, i32 }
          cleanup
  br label %ehcleanup171

if.else:                                          ; preds = %for.body135
  %shr = lshr i8 %135, 4
  %cmp.i1233 = icmp ult i8 %135, -96
  %cond.v.i = select i1 %cmp.i1233, i8 48, i8 55
  %cond.i = add nuw nsw i8 %cond.v.i, %shr
  %call151 = invoke noundef nonnull align 8 dereferenceable(16) ptr @_ZN13CStdOutStreamlsEc(ptr noundef nonnull align 8 dereferenceable(16) %g_StdErr.g_StdOut, i8 noundef signext %cond.i)
          to label %invoke.cont150 unwind label %lpad136

invoke.cont150:                                   ; preds = %if.else
  %137 = and i8 %135, 15
  %cmp.i1234 = icmp ult i8 %137, 10
  %cond.v.i1235 = select i1 %cmp.i1234, i8 48, i8 55
  %cond.i1236 = add nuw nsw i8 %cond.v.i1235, %137
  br label %invoke.cont150.invoke

invoke.cont150.invoke:                            ; preds = %for.body135, %invoke.cont150
  %138 = phi i8 [ %cond.i1236, %invoke.cont150 ], [ %135, %for.body135 ]
  %139 = invoke noundef nonnull align 8 dereferenceable(16) ptr @_ZN13CStdOutStreamlsEc(ptr noundef nonnull align 8 dereferenceable(16) %g_StdErr.g_StdOut, i8 noundef signext %138)
          to label %if.end159 unwind label %lpad136

if.end159:                                        ; preds = %invoke.cont150.invoke
  %call161 = invoke noundef nonnull align 8 dereferenceable(16) ptr @_ZN13CStdOutStreamlsEc(ptr noundef nonnull align 8 dereferenceable(16) %g_StdErr.g_StdOut, i8 noundef signext 32)
          to label %invoke.cont160 unwind label %lpad136

invoke.cont160:                                   ; preds = %if.end159
  %inc164 = add nuw i64 %j.01507, 1
  %140 = load i64, ptr %_capacity.i1231, align 8, !tbaa !74
  %cmp133 = icmp ult i64 %inc164, %140
  br i1 %cmp133, label %for.body135, label %for.cond.cleanup134, !llvm.loop !77

invoke.cont168:                                   ; preds = %for.cond.cleanup134
  %isnull.i1237 = icmp eq ptr %s.sroa.0.1.lcssa, null
  br i1 %isnull.i1237, label %_ZN11CStringBaseIwED2Ev.exit, label %delete.notnull.i1238

delete.notnull.i1238:                             ; preds = %invoke.cont168
  call void @_ZdaPv(ptr noundef nonnull %s.sroa.0.1.lcssa) #17
  br label %_ZN11CStringBaseIwED2Ev.exit

_ZN11CStringBaseIwED2Ev.exit:                     ; preds = %invoke.cont168, %delete.notnull.i1238
  %indvars.iv.next1529 = add nuw nsw i64 %indvars.iv1528, 1
  %141 = load i32, ptr %_size.i1017, align 4, !tbaa !14
  %142 = sext i32 %141 to i64
  %cmp77 = icmp slt i64 %indvars.iv.next1529, %142
  br i1 %cmp77, label %for.body, label %for.end176, !llvm.loop !78

lpad167:                                          ; preds = %for.cond.cleanup134
  %143 = landingpad { ptr, i32 }
          cleanup
  br label %ehcleanup171

ehcleanup171:                                     ; preds = %lpad125.loopexit, %lpad125.loopexit.split-lp, %lpad136, %lpad167, %lpad107
  %s.sroa.0.9 = phi ptr [ %s.sroa.0.6, %lpad107 ], [ %s.sroa.0.1.lcssa, %lpad167 ], [ %s.sroa.0.1.lcssa, %lpad136 ], [ %s.sroa.0.1.lcssa, %lpad125.loopexit ], [ %s.sroa.0.1.lcssa, %lpad125.loopexit.split-lp ]
  %.pn1477 = phi { ptr, i32 } [ %112, %lpad107 ], [ %143, %lpad167 ], [ %136, %lpad136 ], [ %lpad.loopexit, %lpad125.loopexit ], [ %lpad.loopexit.split-lp, %lpad125.loopexit.split-lp ]
  %isnull.i1239 = icmp eq ptr %s.sroa.0.9, null
  br i1 %isnull.i1239, label %ehcleanup845, label %delete.notnull.i1240

delete.notnull.i1240:                             ; preds = %ehcleanup171
  call void @_ZdaPv(ptr noundef nonnull %s.sroa.0.9) #17
  br label %ehcleanup845

for.end176:                                       ; preds = %_ZN11CStringBaseIwED2Ev.exit, %for.cond.preheader
  %call178 = invoke noundef nonnull align 8 dereferenceable(16) ptr @_ZN13CStdOutStreamlsEPFRS_S0_E(ptr noundef nonnull align 8 dereferenceable(16) %g_StdErr.g_StdOut, ptr noundef nonnull @_Z4endlR13CStdOutStream)
          to label %invoke.cont177 unwind label %lpad74

invoke.cont177:                                   ; preds = %for.end176
  %call180 = invoke noundef nonnull align 8 dereferenceable(16) ptr @_ZN13CStdOutStreamlsEPKc(ptr noundef nonnull align 8 dereferenceable(16) %call178, ptr noundef nonnull @.str.3)
          to label %invoke.cont179 unwind label %lpad74

invoke.cont179:                                   ; preds = %invoke.cont177
  %call182 = invoke noundef nonnull align 8 dereferenceable(16) ptr @_ZN13CStdOutStreamlsEPFRS_S0_E(ptr noundef nonnull align 8 dereferenceable(16) %call180, ptr noundef nonnull @_Z4endlR13CStdOutStream)
          to label %cleanup844 unwind label %lpad74

if.then188:                                       ; preds = %if.end62
  %Method = getelementptr inbounds %struct.CArchiveCommandLineOptions, ptr %options, i64 0, i32 29
  %144 = load ptr, ptr %Method, align 8, !tbaa !17
  %call.i1242 = invoke noundef i32 @_Z21MyStringCompareNoCasePKwS0_(ptr noundef %144, ptr noundef nonnull @.str.4)
          to label %invoke.cont189 unwind label %lpad57

invoke.cont189:                                   ; preds = %if.then188
  %cmp191 = icmp eq i32 %call.i1242, 0
  %.val1474 = load ptr, ptr getelementptr inbounds (%class.CStdOutStream, ptr @g_StdOut, i64 0, i32 1), align 8
  %.val1475 = load ptr, ptr getelementptr inbounds (%class.CStdOutStream, ptr @g_StdErr, i64 0, i32 1), align 8
  %145 = select i1 %tobool17.not, ptr %.val1474, ptr %.val1475
  %NumIterations = getelementptr inbounds %struct.CArchiveCommandLineOptions, ptr %options, i64 0, i32 26
  %146 = load i32, ptr %NumIterations, align 4, !tbaa !79
  %NumThreads = getelementptr inbounds %struct.CArchiveCommandLineOptions, ptr %options, i64 0, i32 27
  %147 = load i32, ptr %NumThreads, align 8, !tbaa !80
  %DictionarySize = getelementptr inbounds %struct.CArchiveCommandLineOptions, ptr %options, i64 0, i32 28
  %148 = load i32, ptr %DictionarySize, align 4, !tbaa !81
  br i1 %cmp191, label %if.then192, label %if.else211

if.then192:                                       ; preds = %invoke.cont189
  %call197 = invoke noundef i32 @_Z11CrcBenchConP8_IO_FILEjjj(ptr noundef %145, i32 noundef %146, i32 noundef %147, i32 noundef %148)
          to label %invoke.cont196 unwind label %lpad193

invoke.cont196:                                   ; preds = %if.then192
  switch i32 %call197, label %if.end204 [
    i32 0, label %if.end843
    i32 1, label %if.then201
  ]

if.then201:                                       ; preds = %invoke.cont196
  %call203 = invoke noundef nonnull align 8 dereferenceable(16) ptr @_ZN13CStdOutStreamlsEPKc(ptr noundef nonnull align 8 dereferenceable(16) %g_StdErr.g_StdOut, ptr noundef nonnull @.str.5)
          to label %cleanup844 unwind label %lpad193

lpad193:                                          ; preds = %if.end204, %if.then201, %if.then192
  %149 = landingpad { ptr, i32 }
          cleanup
  br label %ehcleanup845

if.end204:                                        ; preds = %invoke.cont196
  %exception205 = call ptr @__cxa_allocate_exception(i64 4) #16
  store i32 %call197, ptr %exception205, align 4, !tbaa !42
  invoke void @__cxa_throw(ptr nonnull %exception205, ptr nonnull @_ZTI16CSystemException, ptr null) #19
          to label %unreachable unwind label %lpad193

if.else211:                                       ; preds = %invoke.cont189
  %call220 = invoke noundef i32 @_Z12LzmaBenchConP8_IO_FILEjjj(ptr noundef %145, i32 noundef %146, i32 noundef %147, i32 noundef %148)
          to label %invoke.cont219 unwind label %lpad213

invoke.cont219:                                   ; preds = %if.else211
  switch i32 %call220, label %if.end227 [
    i32 0, label %if.end843
    i32 1, label %if.then224
  ]

if.then224:                                       ; preds = %invoke.cont219
  %call226 = invoke noundef nonnull align 8 dereferenceable(16) ptr @_ZN13CStdOutStreamlsEPKc(ptr noundef nonnull align 8 dereferenceable(16) %g_StdErr.g_StdOut, ptr noundef nonnull @.str.6)
          to label %cleanup844 unwind label %lpad213

lpad213:                                          ; preds = %if.end227, %if.then224, %if.else211
  %150 = landingpad { ptr, i32 }
          cleanup
  br label %ehcleanup845

if.end227:                                        ; preds = %invoke.cont219
  %exception228 = call ptr @__cxa_allocate_exception(i64 4) #16
  store i32 %call220, ptr %exception228, align 4, !tbaa !42
  invoke void @__cxa_throw(ptr nonnull %exception228, ptr nonnull @_ZTI16CSystemException, ptr null) #19
          to label %unreachable unwind label %lpad213

if.else238:                                       ; preds = %if.end62
  %cmp243 = icmp eq i32 %20, 6
  %or.cond878 = or i1 %call41, %cmp243
  br i1 %or.cond878, label %if.then244, label %if.else501

if.then244:                                       ; preds = %if.else238
  br i1 %call41, label %if.then246, label %if.else459

if.then246:                                       ; preds = %if.then244
  %call249 = invoke noalias noundef nonnull dereferenceable(80) ptr @_Znwm(i64 noundef 80) #18
          to label %invoke.cont248 unwind label %lpad247

invoke.cont248:                                   ; preds = %if.then246
  %151 = getelementptr inbounds i8, ptr %call249, i64 8
  %152 = getelementptr inbounds i8, ptr %call249, i64 16
  store i32 0, ptr %152, align 8, !tbaa !40
  store ptr getelementptr inbounds ({ [19 x ptr], [8 x ptr] }, ptr @_ZTV23CExtractCallbackConsole, i64 0, inrange i32 0, i64 2), ptr %call249, align 8, !tbaa !12
  store ptr getelementptr inbounds ({ [19 x ptr], [8 x ptr] }, ptr @_ZTV23CExtractCallbackConsole, i64 0, inrange i32 1, i64 2), ptr %151, align 8, !tbaa !12
  %Password.i = getelementptr inbounds %class.CExtractCallbackConsole, ptr %call249, i64 0, i32 4
  call void @llvm.memset.p0.i64(ptr noundef nonnull align 8 dereferenceable(16) %Password.i, i8 0, i64 16, i1 false)
  %call.i.i3.i1245 = invoke noalias noundef nonnull dereferenceable(16) ptr @_Znam(i64 noundef 16) #18
          to label %_ZN23CExtractCallbackConsoleC2Ev.exit unwind label %lpad250

_ZN23CExtractCallbackConsoleC2Ev.exit:            ; preds = %invoke.cont248
  %_capacity.i.i1244 = getelementptr inbounds %class.CExtractCallbackConsole, ptr %call249, i64 0, i32 4, i32 2
  store ptr %call.i.i3.i1245, ptr %Password.i, align 8, !tbaa !17
  store i32 0, ptr %call.i.i3.i1245, align 4, !tbaa !52
  store i32 4, ptr %_capacity.i.i1244, align 4, !tbaa !82
  %153 = load ptr, ptr getelementptr inbounds ({ [19 x ptr], [8 x ptr] }, ptr @_ZTV23CExtractCallbackConsole, i64 0, inrange i32 0, i64 3), align 8
  %call.i1248 = invoke noundef i32 %153(ptr noundef nonnull align 8 dereferenceable(8) %call249)
          to label %invoke.cont254 unwind label %lpad253

invoke.cont254:                                   ; preds = %_ZN23CExtractCallbackConsoleC2Ev.exit
  %OutStream = getelementptr inbounds %class.CExtractCallbackConsole, ptr %call249, i64 0, i32 9
  store ptr %g_StdErr.g_StdOut, ptr %OutStream, align 8, !tbaa !83
  %PasswordEnabled = getelementptr inbounds %struct.CArchiveCommandLineOptions, ptr %options, i64 0, i32 13
  %154 = load i8, ptr %PasswordEnabled, align 8, !tbaa !91, !range !35, !noundef !36
  %PasswordIsDefined = getelementptr inbounds %class.CExtractCallbackConsole, ptr %call249, i64 0, i32 3
  store i8 %154, ptr %PasswordIsDefined, align 4, !tbaa !92
  %Password = getelementptr inbounds %struct.CArchiveCommandLineOptions, ptr %options, i64 0, i32 14
  %call260 = invoke noundef nonnull align 8 dereferenceable(16) ptr @_ZN11CStringBaseIwEaSERKS0_(ptr noundef nonnull align 8 dereferenceable(16) %Password.i, ptr noundef nonnull align 8 dereferenceable(16) %Password)
          to label %invoke.cont259 unwind label %lpad258

invoke.cont259:                                   ; preds = %invoke.cont254
  %NumArchives.i = getelementptr inbounds %class.CExtractCallbackConsole, ptr %call249, i64 0, i32 5
  call void @llvm.memset.p0.i64(ptr noundef nonnull align 8 dereferenceable(32) %NumArchives.i, i8 0, i64 32, i1 false)
  call void @llvm.lifetime.start.p0(i64 40, ptr nonnull %openCallback) #16
  store ptr getelementptr inbounds ({ [9 x ptr] }, ptr @_ZTV20COpenCallbackConsole, i64 0, inrange i32 0, i64 2), ptr %openCallback, align 8, !tbaa !12
  %PasswordWasAsked.i = getelementptr inbounds %class.COpenCallbackConsole, ptr %openCallback, i64 0, i32 3
  store i8 0, ptr %PasswordWasAsked.i, align 1, !tbaa !93
  %Password.i1249 = getelementptr inbounds %class.COpenCallbackConsole, ptr %openCallback, i64 0, i32 4
  %155 = getelementptr inbounds %class.COpenCallbackConsole, ptr %openCallback, i64 0, i32 4, i32 1
  store i64 17179869184, ptr %155, align 8
  %call.i.i.i1252 = invoke noalias noundef nonnull dereferenceable(16) ptr @_Znam(i64 noundef 16) #18
          to label %_ZN20COpenCallbackConsoleC2Ev.exit unwind label %lpad262

_ZN20COpenCallbackConsoleC2Ev.exit:               ; preds = %invoke.cont259
  %PasswordIsDefined.i = getelementptr inbounds %class.COpenCallbackConsole, ptr %openCallback, i64 0, i32 2
  store ptr %call.i.i.i1252, ptr %Password.i1249, align 8, !tbaa !17
  store i32 0, ptr %call.i.i.i1252, align 4, !tbaa !52
  %OutStream264 = getelementptr inbounds %class.COpenCallbackConsole, ptr %openCallback, i64 0, i32 1
  store ptr %g_StdErr.g_StdOut, ptr %OutStream264, align 8, !tbaa !96
  %156 = load i8, ptr %PasswordEnabled, align 8, !tbaa !91, !range !35, !noundef !36
  store i8 %156, ptr %PasswordIsDefined.i, align 8, !tbaa !97
  %call273 = invoke noundef nonnull align 8 dereferenceable(16) ptr @_ZN11CStringBaseIwEaSERKS0_(ptr noundef nonnull align 8 dereferenceable(16) %Password.i1249, ptr noundef nonnull align 8 dereferenceable(16) %Password)
          to label %invoke.cont272 unwind label %lpad271

invoke.cont272:                                   ; preds = %_ZN20COpenCallbackConsoleC2Ev.exit
  call void @llvm.lifetime.start.p0(i64 64, ptr nonnull %eo) #16
  %PathMode.i = getelementptr inbounds %struct.CExtractOptions, ptr %eo, i64 0, i32 5
  call void @llvm.memset.p0.i64(ptr noundef nonnull align 8 dereferenceable(5) %eo, i8 0, i64 5, i1 false)
  call void @llvm.memset.p0.i64(ptr noundef nonnull align 8 dereferenceable(24) %PathMode.i, i8 0, i64 24, i1 false)
  %call.i.i.i1257 = invoke noalias noundef nonnull dereferenceable(16) ptr @_Znam(i64 noundef 16) #18
          to label %_ZN15CExtractOptionsC2Ev.exit unwind label %lpad274

_ZN15CExtractOptionsC2Ev.exit:                    ; preds = %invoke.cont272
  %_capacity.i.i1253 = getelementptr inbounds %struct.CExtractOptions, ptr %eo, i64 0, i32 7, i32 2
  %OutputDir.i = getelementptr inbounds %struct.CExtractOptions, ptr %eo, i64 0, i32 7
  store ptr %call.i.i.i1257, ptr %OutputDir.i, align 8, !tbaa !17
  store i32 0, ptr %call.i.i.i1257, align 4, !tbaa !52
  store i32 4, ptr %_capacity.i.i1253, align 4, !tbaa !82
  %Properties.i = getelementptr inbounds %struct.CExtractOptions, ptr %eo, i64 0, i32 8
  %_capacity.i.i.i.i1254 = getelementptr inbounds %struct.CExtractOptions, ptr %eo, i64 0, i32 8, i32 0, i32 0, i32 1
  %_itemSize.i.i.i.i1255 = getelementptr inbounds %struct.CExtractOptions, ptr %eo, i64 0, i32 8, i32 0, i32 0, i32 4
  call void @llvm.memset.p0.i64(ptr noundef nonnull align 8 dereferenceable(16) %_capacity.i.i.i.i1254, i8 0, i64 16, i1 false)
  store i64 8, ptr %_itemSize.i.i.i.i1255, align 8, !tbaa !5
  store ptr getelementptr inbounds ({ [5 x ptr] }, ptr @_ZTV13CObjectVectorI9CPropertyE, i64 0, inrange i32 0, i64 2), ptr %Properties.i, align 8, !tbaa !12
  %StdInMode = getelementptr inbounds %struct.CArchiveCommandLineOptions, ptr %options, i64 0, i32 5
  %157 = load i8, ptr %StdInMode, align 1, !tbaa !98, !range !35, !noundef !36
  store i8 %157, ptr %eo, align 8, !tbaa !99
  %158 = load i8, ptr %StdOutMode, align 2, !tbaa !38, !range !35, !noundef !36
  %StdOutMode281 = getelementptr inbounds %struct.CExtractOptions, ptr %eo, i64 0, i32 1
  store i8 %158, ptr %StdOutMode281, align 1, !tbaa !102
  %call286 = invoke noundef i32 @_ZNK15CArchiveCommand11GetPathModeEv(ptr noundef nonnull align 4 dereferenceable(4) %Command)
          to label %invoke.cont285 unwind label %lpad284

invoke.cont285:                                   ; preds = %_ZN15CExtractOptionsC2Ev.exit
  store i32 %call286, ptr %PathMode.i, align 8, !tbaa !103
  %159 = load i32, ptr %Command, align 8, !tbaa !104
  %cmp.i1258 = icmp eq i32 %159, 3
  %TestMode = getelementptr inbounds %struct.CExtractOptions, ptr %eo, i64 0, i32 3
  %frombool290 = zext i1 %cmp.i1258 to i8
  store i8 %frombool290, ptr %TestMode, align 1, !tbaa !105
  %OverwriteMode = getelementptr inbounds %struct.CArchiveCommandLineOptions, ptr %options, i64 0, i32 19
  %160 = load i32, ptr %OverwriteMode, align 8, !tbaa !106
  %OverwriteMode291 = getelementptr inbounds %struct.CExtractOptions, ptr %eo, i64 0, i32 6
  store i32 %160, ptr %OverwriteMode291, align 4, !tbaa !107
  %OutputDir = getelementptr inbounds %struct.CArchiveCommandLineOptions, ptr %options, i64 0, i32 18
  %call294 = invoke noundef nonnull align 8 dereferenceable(16) ptr @_ZN11CStringBaseIwEaSERKS0_(ptr noundef nonnull align 8 dereferenceable(16) %OutputDir.i, ptr noundef nonnull align 8 dereferenceable(16) %OutputDir)
          to label %invoke.cont293 unwind label %lpad284

invoke.cont293:                                   ; preds = %invoke.cont285
  %YesToAll = getelementptr inbounds %struct.CArchiveCommandLineOptions, ptr %options, i64 0, i32 8
  %161 = load i8, ptr %YesToAll, align 8, !tbaa !108, !range !35, !noundef !36
  %YesToAll296 = getelementptr inbounds %struct.CExtractOptions, ptr %eo, i64 0, i32 2
  store i8 %161, ptr %YesToAll296, align 2, !tbaa !109
  %CalcCrc = getelementptr inbounds %struct.CArchiveCommandLineOptions, ptr %options, i64 0, i32 16
  %162 = load i8, ptr %CalcCrc, align 1, !tbaa !110, !range !35, !noundef !36
  %CalcCrc299 = getelementptr inbounds %struct.CExtractOptions, ptr %eo, i64 0, i32 4
  store i8 %162, ptr %CalcCrc299, align 4, !tbaa !111
  %ExtractProperties = getelementptr inbounds %struct.CArchiveCommandLineOptions, ptr %options, i64 0, i32 22
  %call302 = invoke noundef nonnull align 8 dereferenceable(32) ptr @_ZN13CObjectVectorI9CPropertyEaSERKS1_(ptr noundef nonnull align 8 dereferenceable(32) %Properties.i, ptr noundef nonnull align 8 dereferenceable(32) %ExtractProperties)
          to label %invoke.cont301 unwind label %lpad284

invoke.cont301:                                   ; preds = %invoke.cont293
  call void @llvm.lifetime.start.p0(i64 16, ptr nonnull %errorMessage) #16
  %163 = getelementptr inbounds i8, ptr %errorMessage, i64 8
  store i64 17179869184, ptr %163, align 8
  %call.i.i1260 = invoke noalias noundef nonnull dereferenceable(16) ptr @_Znam(i64 noundef 16) #18
          to label %_ZN11CStringBaseIwEC2Ev.exit1261 unwind label %lpad303

_ZN11CStringBaseIwEC2Ev.exit1261:                 ; preds = %invoke.cont301
  store ptr %call.i.i1260, ptr %errorMessage, align 8, !tbaa !17
  store i32 0, ptr %call.i.i1260, align 4, !tbaa !52
  call void @llvm.lifetime.start.p0(i64 48, ptr nonnull %stat) #16
  %_items.i.i.i = getelementptr inbounds %struct.CArchiveCommandLineOptions, ptr %options, i64 0, i32 10, i32 0, i32 0, i32 0, i32 3
  %164 = load ptr, ptr %_items.i.i.i, align 8, !tbaa !15
  %165 = load ptr, ptr %164, align 8, !tbaa !16
  %ArchivePathsFullSorted = getelementptr inbounds %struct.CArchiveCommandLineOptions, ptr %options, i64 0, i32 21
  %ArchivePathsSorted = getelementptr inbounds %struct.CArchiveCommandLineOptions, ptr %options, i64 0, i32 20
  %Head = getelementptr inbounds %"struct.NWildcard::CPair", ptr %165, i64 0, i32 1
  %call310 = invoke noundef i32 @_Z18DecompressArchivesP7CCodecsRK13CRecordVectorIiER13CObjectVectorI11CStringBaseIwEES9_RKN9NWildcard11CCensorNodeERK15CExtractOptionsP15IOpenCallbackUIP18IExtractCallbackUIRS7_R15CDecompressStat(ptr noundef nonnull %call26, ptr noundef nonnull align 8 dereferenceable(32) %formatIndices, ptr noundef nonnull align 8 dereferenceable(32) %ArchivePathsSorted, ptr noundef nonnull align 8 dereferenceable(32) %ArchivePathsFullSorted, ptr noundef nonnull align 8 dereferenceable(120) %Head, ptr noundef nonnull align 8 dereferenceable(64) %eo, ptr noundef nonnull %openCallback, ptr noundef nonnull %call249, ptr noundef nonnull align 8 dereferenceable(16) %errorMessage, ptr noundef nonnull align 8 dereferenceable(48) %stat)
          to label %invoke.cont309 unwind label %lpad306

invoke.cont309:                                   ; preds = %_ZN11CStringBaseIwEC2Ev.exit1261
  %166 = load i32, ptr %163, align 8, !tbaa !49
  %cmp.i1263 = icmp eq i32 %166, 0
  br i1 %cmp.i1263, label %if.end325, label %if.then313

if.then313:                                       ; preds = %invoke.cont309
  %call315 = invoke noundef nonnull align 8 dereferenceable(16) ptr @_ZN13CStdOutStreamlsEPFRS_S0_E(ptr noundef nonnull align 8 dereferenceable(16) %g_StdErr.g_StdOut, ptr noundef nonnull @_Z4endlR13CStdOutStream)
          to label %invoke.cont314 unwind label %lpad306

invoke.cont314:                                   ; preds = %if.then313
  %call317 = invoke noundef nonnull align 8 dereferenceable(16) ptr @_ZN13CStdOutStreamlsEPKc(ptr noundef nonnull align 8 dereferenceable(16) %call315, ptr noundef nonnull @.str.7)
          to label %invoke.cont316 unwind label %lpad306

invoke.cont316:                                   ; preds = %invoke.cont314
  %167 = load ptr, ptr %errorMessage, align 8, !tbaa !17
  %call321 = invoke noundef nonnull align 8 dereferenceable(16) ptr @_ZN13CStdOutStreamlsEPKw(ptr noundef nonnull align 8 dereferenceable(16) %call317, ptr noundef %167)
          to label %invoke.cont320 unwind label %lpad306

invoke.cont320:                                   ; preds = %invoke.cont316
  %cmp322 = icmp eq i32 %call310, 0
  %spec.store.select = select i1 %cmp322, i32 -2147467259, i32 %call310
  br label %if.end325

lpad247:                                          ; preds = %if.then246
  %168 = landingpad { ptr, i32 }
          cleanup
  br label %ehcleanup845

lpad250:                                          ; preds = %invoke.cont248
  %169 = landingpad { ptr, i32 }
          cleanup
  call void @_ZdlPv(ptr noundef nonnull %call249) #17
  br label %ehcleanup845

lpad253:                                          ; preds = %_ZN23CExtractCallbackConsoleC2Ev.exit
  %170 = landingpad { ptr, i32 }
          cleanup
  br label %ehcleanup845

lpad258:                                          ; preds = %invoke.cont254
  %171 = landingpad { ptr, i32 }
          cleanup
  br label %if.then.i1285

lpad262:                                          ; preds = %invoke.cont259
  %172 = landingpad { ptr, i32 }
          cleanup
  br label %ehcleanup450

lpad271:                                          ; preds = %_ZN20COpenCallbackConsoleC2Ev.exit
  %173 = landingpad { ptr, i32 }
          cleanup
  br label %ehcleanup448

lpad274:                                          ; preds = %invoke.cont272
  %174 = landingpad { ptr, i32 }
          cleanup
  br label %ehcleanup446

lpad284:                                          ; preds = %invoke.cont293, %invoke.cont285, %_ZN15CExtractOptionsC2Ev.exit
  %175 = landingpad { ptr, i32 }
          cleanup
  br label %ehcleanup444

lpad303:                                          ; preds = %invoke.cont301
  %176 = landingpad { ptr, i32 }
          cleanup
  br label %ehcleanup442

lpad306:                                          ; preds = %if.then379.invoke, %invoke.cont416, %invoke.cont414, %invoke.cont412, %invoke.cont410, %invoke.cont408, %if.end407, %invoke.cont403, %invoke.cont400, %if.then399, %invoke.cont390, %invoke.cont387, %if.then386, %invoke.cont364, %invoke.cont361, %if.then360, %invoke.cont353, %invoke.cont350, %if.then349, %if.then344, %invoke.cont333, %invoke.cont330, %if.then329, %if.end325, %invoke.cont316, %invoke.cont314, %if.then313, %_ZN11CStringBaseIwEC2Ev.exit1261
  %177 = landingpad { ptr, i32 }
          cleanup
  br label %ehcleanup436

if.end325:                                        ; preds = %invoke.cont320, %invoke.cont309
  %result305.0 = phi i32 [ %call310, %invoke.cont309 ], [ %spec.store.select, %invoke.cont320 ]
  %call327 = invoke noundef nonnull align 8 dereferenceable(16) ptr @_ZN13CStdOutStreamlsEPFRS_S0_E(ptr noundef nonnull align 8 dereferenceable(16) %g_StdErr.g_StdOut, ptr noundef nonnull @_Z4endlR13CStdOutStream)
          to label %invoke.cont326 unwind label %lpad306

invoke.cont326:                                   ; preds = %if.end325
  %178 = load i64, ptr %NumArchives.i, align 8, !tbaa !112
  %cmp328 = icmp ugt i64 %178, 1
  br i1 %cmp328, label %if.then329, label %if.end337

if.then329:                                       ; preds = %invoke.cont326
  %call331 = invoke noundef nonnull align 8 dereferenceable(16) ptr @_ZN13CStdOutStreamlsEPKc(ptr noundef nonnull align 8 dereferenceable(16) %g_StdErr.g_StdOut, ptr noundef nonnull @.str.8)
          to label %invoke.cont330 unwind label %lpad306

invoke.cont330:                                   ; preds = %if.then329
  %179 = load i64, ptr %NumArchives.i, align 8, !tbaa !112
  %call334 = invoke noundef nonnull align 8 dereferenceable(16) ptr @_ZN13CStdOutStreamlsEy(ptr noundef nonnull align 8 dereferenceable(16) %call331, i64 noundef %179)
          to label %invoke.cont333 unwind label %lpad306

invoke.cont333:                                   ; preds = %invoke.cont330
  %call336 = invoke noundef nonnull align 8 dereferenceable(16) ptr @_ZN13CStdOutStreamlsEPFRS_S0_E(ptr noundef nonnull align 8 dereferenceable(16) %call334, ptr noundef nonnull @_Z4endlR13CStdOutStream)
          to label %if.end337 unwind label %lpad306

if.end337:                                        ; preds = %invoke.cont333, %invoke.cont326
  %NumArchiveErrors = getelementptr inbounds %class.CExtractCallbackConsole, ptr %call249, i64 0, i32 6
  %180 = load i64, ptr %NumArchiveErrors, align 8, !tbaa !113
  %cmp338.not = icmp eq i64 %180, 0
  br i1 %cmp338.not, label %lor.lhs.false339, label %if.then341

lor.lhs.false339:                                 ; preds = %if.end337
  %NumFileErrors = getelementptr inbounds %class.CExtractCallbackConsole, ptr %call249, i64 0, i32 7
  %181 = load i64, ptr %NumFileErrors, align 8, !tbaa !114
  %cmp340.not = icmp eq i64 %181, 0
  br i1 %cmp340.not, label %if.end377, label %if.then341

if.then341:                                       ; preds = %lor.lhs.false339, %if.end337
  %182 = load i64, ptr %NumArchives.i, align 8, !tbaa !112
  %cmp343 = icmp ugt i64 %182, 1
  br i1 %cmp343, label %if.then344, label %if.end369

if.then344:                                       ; preds = %if.then341
  %call346 = invoke noundef nonnull align 8 dereferenceable(16) ptr @_ZN13CStdOutStreamlsEPFRS_S0_E(ptr noundef nonnull align 8 dereferenceable(16) %g_StdErr.g_StdOut, ptr noundef nonnull @_Z4endlR13CStdOutStream)
          to label %invoke.cont345 unwind label %lpad306

invoke.cont345:                                   ; preds = %if.then344
  %183 = load i64, ptr %NumArchiveErrors, align 8, !tbaa !113
  %cmp348.not = icmp eq i64 %183, 0
  br i1 %cmp348.not, label %if.end357, label %if.then349

if.then349:                                       ; preds = %invoke.cont345
  %call351 = invoke noundef nonnull align 8 dereferenceable(16) ptr @_ZN13CStdOutStreamlsEPKc(ptr noundef nonnull align 8 dereferenceable(16) %g_StdErr.g_StdOut, ptr noundef nonnull @.str.9)
          to label %invoke.cont350 unwind label %lpad306

invoke.cont350:                                   ; preds = %if.then349
  %184 = load i64, ptr %NumArchiveErrors, align 8, !tbaa !113
  %call354 = invoke noundef nonnull align 8 dereferenceable(16) ptr @_ZN13CStdOutStreamlsEy(ptr noundef nonnull align 8 dereferenceable(16) %call351, i64 noundef %184)
          to label %invoke.cont353 unwind label %lpad306

invoke.cont353:                                   ; preds = %invoke.cont350
  %call356 = invoke noundef nonnull align 8 dereferenceable(16) ptr @_ZN13CStdOutStreamlsEPFRS_S0_E(ptr noundef nonnull align 8 dereferenceable(16) %call354, ptr noundef nonnull @_Z4endlR13CStdOutStream)
          to label %if.end357 unwind label %lpad306

if.end357:                                        ; preds = %invoke.cont353, %invoke.cont345
  %NumFileErrors358 = getelementptr inbounds %class.CExtractCallbackConsole, ptr %call249, i64 0, i32 7
  %185 = load i64, ptr %NumFileErrors358, align 8, !tbaa !114
  %cmp359.not = icmp eq i64 %185, 0
  br i1 %cmp359.not, label %if.end369, label %if.then360

if.then360:                                       ; preds = %if.end357
  %call362 = invoke noundef nonnull align 8 dereferenceable(16) ptr @_ZN13CStdOutStreamlsEPKc(ptr noundef nonnull align 8 dereferenceable(16) %g_StdErr.g_StdOut, ptr noundef nonnull @.str.10)
          to label %invoke.cont361 unwind label %lpad306

invoke.cont361:                                   ; preds = %if.then360
  %186 = load i64, ptr %NumFileErrors358, align 8, !tbaa !114
  %call365 = invoke noundef nonnull align 8 dereferenceable(16) ptr @_ZN13CStdOutStreamlsEy(ptr noundef nonnull align 8 dereferenceable(16) %call362, i64 noundef %186)
          to label %invoke.cont364 unwind label %lpad306

invoke.cont364:                                   ; preds = %invoke.cont361
  %call367 = invoke noundef nonnull align 8 dereferenceable(16) ptr @_ZN13CStdOutStreamlsEPFRS_S0_E(ptr noundef nonnull align 8 dereferenceable(16) %call365, ptr noundef nonnull @_Z4endlR13CStdOutStream)
          to label %if.end369 unwind label %lpad306

if.end369:                                        ; preds = %if.end357, %invoke.cont364, %if.then341
  %cmp370.not = icmp eq i32 %result305.0, 0
  br i1 %cmp370.not, label %cleanup435, label %if.then379.invoke

if.end377:                                        ; preds = %lor.lhs.false339
  %cmp378.not = icmp eq i32 %result305.0, 0
  br i1 %cmp378.not, label %if.end384, label %if.then379.invoke

if.then379.invoke:                                ; preds = %if.end377, %if.end369
  %exception372 = call ptr @__cxa_allocate_exception(i64 4) #16
  store i32 %result305.0, ptr %exception372, align 4, !tbaa !42
  invoke void @__cxa_throw(ptr nonnull %exception372, ptr nonnull @_ZTI16CSystemException, ptr null) #19
          to label %if.then379.cont unwind label %lpad306

if.then379.cont:                                  ; preds = %if.then379.invoke
  unreachable

if.end384:                                        ; preds = %if.end377
  %NumFolders = getelementptr inbounds %struct.CDecompressStat, ptr %stat, i64 0, i32 3
  %187 = load i64, ptr %NumFolders, align 8
  %cmp385.not = icmp eq i64 %187, 0
  br i1 %cmp385.not, label %if.end394, label %if.then386

if.then386:                                       ; preds = %if.end384
  %call388 = invoke noundef nonnull align 8 dereferenceable(16) ptr @_ZN13CStdOutStreamlsEPKc(ptr noundef nonnull align 8 dereferenceable(16) %g_StdErr.g_StdOut, ptr noundef nonnull @.str.11)
          to label %invoke.cont387 unwind label %lpad306

invoke.cont387:                                   ; preds = %if.then386
  %188 = load i64, ptr %NumFolders, align 8, !tbaa !115
  %call391 = invoke noundef nonnull align 8 dereferenceable(16) ptr @_ZN13CStdOutStreamlsEy(ptr noundef nonnull align 8 dereferenceable(16) %call388, i64 noundef %188)
          to label %invoke.cont390 unwind label %lpad306

invoke.cont390:                                   ; preds = %invoke.cont387
  %call393 = invoke noundef nonnull align 8 dereferenceable(16) ptr @_ZN13CStdOutStreamlsEPFRS_S0_E(ptr noundef nonnull align 8 dereferenceable(16) %call391, ptr noundef nonnull @_Z4endlR13CStdOutStream)
          to label %invoke.cont390.if.end394_crit_edge unwind label %lpad306

invoke.cont390.if.end394_crit_edge:               ; preds = %invoke.cont390
  %.pre1544 = load i64, ptr %NumFolders, align 8
  br label %if.end394

if.end394:                                        ; preds = %invoke.cont390.if.end394_crit_edge, %if.end384
  %189 = phi i64 [ %.pre1544, %invoke.cont390.if.end394_crit_edge ], [ 0, %if.end384 ]
  %NumFiles = getelementptr inbounds %struct.CDecompressStat, ptr %stat, i64 0, i32 4
  %190 = load i64, ptr %NumFiles, align 8, !tbaa !117
  %cmp395 = icmp ne i64 %190, 1
  %cmp398 = icmp ne i64 %189, 0
  %or.cond879 = select i1 %cmp395, i1 true, i1 %cmp398
  br i1 %or.cond879, label %if.then399, label %if.end407

if.then399:                                       ; preds = %if.end394
  %call401 = invoke noundef nonnull align 8 dereferenceable(16) ptr @_ZN13CStdOutStreamlsEPKc(ptr noundef nonnull align 8 dereferenceable(16) %g_StdErr.g_StdOut, ptr noundef nonnull @.str.12)
          to label %invoke.cont400 unwind label %lpad306

invoke.cont400:                                   ; preds = %if.then399
  %191 = load i64, ptr %NumFiles, align 8, !tbaa !117
  %call404 = invoke noundef nonnull align 8 dereferenceable(16) ptr @_ZN13CStdOutStreamlsEy(ptr noundef nonnull align 8 dereferenceable(16) %call401, i64 noundef %191)
          to label %invoke.cont403 unwind label %lpad306

invoke.cont403:                                   ; preds = %invoke.cont400
  %call406 = invoke noundef nonnull align 8 dereferenceable(16) ptr @_ZN13CStdOutStreamlsEPFRS_S0_E(ptr noundef nonnull align 8 dereferenceable(16) %call404, ptr noundef nonnull @_Z4endlR13CStdOutStream)
          to label %if.end407 unwind label %lpad306

if.end407:                                        ; preds = %invoke.cont403, %if.end394
  %call409 = invoke noundef nonnull align 8 dereferenceable(16) ptr @_ZN13CStdOutStreamlsEPKc(ptr noundef nonnull align 8 dereferenceable(16) %g_StdErr.g_StdOut, ptr noundef nonnull @.str.13)
          to label %invoke.cont408 unwind label %lpad306

invoke.cont408:                                   ; preds = %if.end407
  %UnpackSize = getelementptr inbounds %struct.CDecompressStat, ptr %stat, i64 0, i32 1
  %192 = load i64, ptr %UnpackSize, align 8, !tbaa !118
  %call411 = invoke noundef nonnull align 8 dereferenceable(16) ptr @_ZN13CStdOutStreamlsEy(ptr noundef nonnull align 8 dereferenceable(16) %call409, i64 noundef %192)
          to label %invoke.cont410 unwind label %lpad306

invoke.cont410:                                   ; preds = %invoke.cont408
  %call413 = invoke noundef nonnull align 8 dereferenceable(16) ptr @_ZN13CStdOutStreamlsEPFRS_S0_E(ptr noundef nonnull align 8 dereferenceable(16) %call411, ptr noundef nonnull @_Z4endlR13CStdOutStream)
          to label %invoke.cont412 unwind label %lpad306

invoke.cont412:                                   ; preds = %invoke.cont410
  %call415 = invoke noundef nonnull align 8 dereferenceable(16) ptr @_ZN13CStdOutStreamlsEPKc(ptr noundef nonnull align 8 dereferenceable(16) %call413, ptr noundef nonnull @.str.14)
          to label %invoke.cont414 unwind label %lpad306

invoke.cont414:                                   ; preds = %invoke.cont412
  %PackSize = getelementptr inbounds %struct.CDecompressStat, ptr %stat, i64 0, i32 2
  %193 = load i64, ptr %PackSize, align 8, !tbaa !119
  %call417 = invoke noundef nonnull align 8 dereferenceable(16) ptr @_ZN13CStdOutStreamlsEy(ptr noundef nonnull align 8 dereferenceable(16) %call415, i64 noundef %193)
          to label %invoke.cont416 unwind label %lpad306

invoke.cont416:                                   ; preds = %invoke.cont414
  %call419 = invoke noundef nonnull align 8 dereferenceable(16) ptr @_ZN13CStdOutStreamlsEPFRS_S0_E(ptr noundef nonnull align 8 dereferenceable(16) %call417, ptr noundef nonnull @_Z4endlR13CStdOutStream)
          to label %invoke.cont418 unwind label %lpad306

invoke.cont418:                                   ; preds = %invoke.cont416
  %194 = load i8, ptr %CalcCrc, align 1, !tbaa !110, !range !35, !noundef !36
  %tobool421.not = icmp eq i8 %194, 0
  br i1 %tobool421.not, label %cleanup435, label %if.then422

if.then422:                                       ; preds = %invoke.cont418
  call void @llvm.lifetime.start.p0(i64 16, ptr nonnull %s423) #16
  %CrcSum = getelementptr inbounds %struct.CDecompressStat, ptr %stat, i64 0, i32 5
  %195 = load i32, ptr %CrcSum, align 8, !tbaa !120
  invoke void @_Z27ConvertUInt32ToHexWithZerosjPc(i32 noundef %195, ptr noundef nonnull %s423)
          to label %invoke.cont425 unwind label %lpad424

invoke.cont425:                                   ; preds = %if.then422
  %call427 = invoke noundef nonnull align 8 dereferenceable(16) ptr @_ZN13CStdOutStreamlsEPKc(ptr noundef nonnull align 8 dereferenceable(16) %g_StdErr.g_StdOut, ptr noundef nonnull @.str.15)
          to label %invoke.cont426 unwind label %lpad424

invoke.cont426:                                   ; preds = %invoke.cont425
  %call430 = invoke noundef nonnull align 8 dereferenceable(16) ptr @_ZN13CStdOutStreamlsEPKc(ptr noundef nonnull align 8 dereferenceable(16) %call427, ptr noundef nonnull %s423)
          to label %invoke.cont429 unwind label %lpad424

invoke.cont429:                                   ; preds = %invoke.cont426
  %call432 = invoke noundef nonnull align 8 dereferenceable(16) ptr @_ZN13CStdOutStreamlsEPFRS_S0_E(ptr noundef nonnull align 8 dereferenceable(16) %call430, ptr noundef nonnull @_Z4endlR13CStdOutStream)
          to label %invoke.cont431 unwind label %lpad424

invoke.cont431:                                   ; preds = %invoke.cont429
  call void @llvm.lifetime.end.p0(i64 16, ptr nonnull %s423) #16
  br label %cleanup435

lpad424:                                          ; preds = %invoke.cont429, %invoke.cont426, %invoke.cont425, %if.then422
  %196 = landingpad { ptr, i32 }
          cleanup
  call void @llvm.lifetime.end.p0(i64 16, ptr nonnull %s423) #16
  br label %ehcleanup436

cleanup435:                                       ; preds = %invoke.cont418, %invoke.cont431, %if.end369
  %cond874 = phi i1 [ false, %if.end369 ], [ true, %invoke.cont431 ], [ true, %invoke.cont418 ]
  call void @llvm.lifetime.end.p0(i64 48, ptr nonnull %stat) #16
  %197 = load ptr, ptr %errorMessage, align 8, !tbaa !17
  %isnull.i1264 = icmp eq ptr %197, null
  br i1 %isnull.i1264, label %_ZN11CStringBaseIwED2Ev.exit1266, label %delete.notnull.i1265

delete.notnull.i1265:                             ; preds = %cleanup435
  call void @_ZdaPv(ptr noundef nonnull %197) #17
  br label %_ZN11CStringBaseIwED2Ev.exit1266

_ZN11CStringBaseIwED2Ev.exit1266:                 ; preds = %cleanup435, %delete.notnull.i1265
  call void @llvm.lifetime.end.p0(i64 16, ptr nonnull %errorMessage) #16
  call void @_ZN15CExtractOptionsD2Ev(ptr noundef nonnull align 8 dereferenceable(64) %eo) #16
  call void @llvm.lifetime.end.p0(i64 64, ptr nonnull %eo) #16
  store ptr getelementptr inbounds ({ [9 x ptr] }, ptr @_ZTV20COpenCallbackConsole, i64 0, inrange i32 0, i64 2), ptr %openCallback, align 8, !tbaa !12
  %198 = load ptr, ptr %Password.i1249, align 8, !tbaa !17
  %isnull.i.i1268 = icmp eq ptr %198, null
  br i1 %isnull.i.i1268, label %_ZN20COpenCallbackConsoleD2Ev.exit, label %delete.notnull.i.i1269

delete.notnull.i.i1269:                           ; preds = %_ZN11CStringBaseIwED2Ev.exit1266
  call void @_ZdaPv(ptr noundef nonnull %198) #17
  br label %_ZN20COpenCallbackConsoleD2Ev.exit

_ZN20COpenCallbackConsoleD2Ev.exit:               ; preds = %_ZN11CStringBaseIwED2Ev.exit1266, %delete.notnull.i.i1269
  call void @llvm.lifetime.end.p0(i64 40, ptr nonnull %openCallback) #16
  %vtable.i1271 = load ptr, ptr %call249, align 8, !tbaa !12
  %vfn.i1272 = getelementptr inbounds ptr, ptr %vtable.i1271, i64 2
  %199 = load ptr, ptr %vfn.i1272, align 8
  %call.i = invoke noundef i32 %199(ptr noundef nonnull align 8 dereferenceable(8) %call249)
          to label %_ZN9CMyComPtrI29IFolderArchiveExtractCallbackED2Ev.exit unwind label %terminate.lpad.i

terminate.lpad.i:                                 ; preds = %_ZN20COpenCallbackConsoleD2Ev.exit
  %200 = landingpad { ptr, i32 }
          catch ptr null
  %201 = extractvalue { ptr, i32 } %200, 0
  call void @__clang_call_terminate(ptr %201) #20
  unreachable

_ZN9CMyComPtrI29IFolderArchiveExtractCallbackED2Ev.exit: ; preds = %_ZN20COpenCallbackConsoleD2Ev.exit
  br i1 %cond874, label %if.end843, label %cleanup844

ehcleanup436:                                     ; preds = %lpad424, %lpad306
  %.pn1463 = phi { ptr, i32 } [ %177, %lpad306 ], [ %196, %lpad424 ]
  call void @llvm.lifetime.end.p0(i64 48, ptr nonnull %stat) #16
  %202 = load ptr, ptr %errorMessage, align 8, !tbaa !17
  %isnull.i1273 = icmp eq ptr %202, null
  br i1 %isnull.i1273, label %ehcleanup442, label %delete.notnull.i1274

delete.notnull.i1274:                             ; preds = %ehcleanup436
  call void @_ZdaPv(ptr noundef nonnull %202) #17
  br label %ehcleanup442

ehcleanup442:                                     ; preds = %delete.notnull.i1274, %ehcleanup436, %lpad303
  %.pn1463.pn = phi { ptr, i32 } [ %176, %lpad303 ], [ %.pn1463, %ehcleanup436 ], [ %.pn1463, %delete.notnull.i1274 ]
  call void @llvm.lifetime.end.p0(i64 16, ptr nonnull %errorMessage) #16
  br label %ehcleanup444

ehcleanup444:                                     ; preds = %ehcleanup442, %lpad284
  %.pn1463.pn.pn = phi { ptr, i32 } [ %.pn1463.pn, %ehcleanup442 ], [ %175, %lpad284 ]
  call void @_ZN15CExtractOptionsD2Ev(ptr noundef nonnull align 8 dereferenceable(64) %eo) #16
  br label %ehcleanup446

ehcleanup446:                                     ; preds = %ehcleanup444, %lpad274
  %.pn1463.pn.pn.pn = phi { ptr, i32 } [ %.pn1463.pn.pn, %ehcleanup444 ], [ %174, %lpad274 ]
  call void @llvm.lifetime.end.p0(i64 64, ptr nonnull %eo) #16
  br label %ehcleanup448

ehcleanup448:                                     ; preds = %ehcleanup446, %lpad271
  %.pn1463.pn.pn.pn.pn = phi { ptr, i32 } [ %.pn1463.pn.pn.pn, %ehcleanup446 ], [ %173, %lpad271 ]
  store ptr getelementptr inbounds ({ [9 x ptr] }, ptr @_ZTV20COpenCallbackConsole, i64 0, inrange i32 0, i64 2), ptr %openCallback, align 8, !tbaa !12
  %203 = load ptr, ptr %Password.i1249, align 8, !tbaa !17
  %isnull.i.i1277 = icmp eq ptr %203, null
  br i1 %isnull.i.i1277, label %ehcleanup450, label %delete.notnull.i.i1278

delete.notnull.i.i1278:                           ; preds = %ehcleanup448
  call void @_ZdaPv(ptr noundef nonnull %203) #17
  br label %ehcleanup450

ehcleanup450:                                     ; preds = %delete.notnull.i.i1278, %ehcleanup448, %lpad262
  %.pn1463.pn.pn.pn.pn.pn = phi { ptr, i32 } [ %172, %lpad262 ], [ %.pn1463.pn.pn.pn.pn, %ehcleanup448 ], [ %.pn1463.pn.pn.pn.pn, %delete.notnull.i.i1278 ]
  call void @llvm.lifetime.end.p0(i64 40, ptr nonnull %openCallback) #16
  br label %if.then.i1285

if.then.i1285:                                    ; preds = %lpad258, %ehcleanup450
  %.pn1463.pn.pn.pn.pn.pn.pn = phi { ptr, i32 } [ %.pn1463.pn.pn.pn.pn.pn, %ehcleanup450 ], [ %171, %lpad258 ]
  %vtable.i1282 = load ptr, ptr %call249, align 8, !tbaa !12
  %vfn.i1283 = getelementptr inbounds ptr, ptr %vtable.i1282, i64 2
  %204 = load ptr, ptr %vfn.i1283, align 8
  %call.i1284 = invoke noundef i32 %204(ptr noundef nonnull align 8 dereferenceable(8) %call249)
          to label %ehcleanup845 unwind label %terminate.lpad.i1286

terminate.lpad.i1286:                             ; preds = %if.then.i1285
  %205 = landingpad { ptr, i32 }
          catch ptr null
  %206 = extractvalue { ptr, i32 } %205, 0
  call void @__clang_call_terminate(ptr %206) #20
  unreachable

if.else459:                                       ; preds = %if.then244
  call void @llvm.lifetime.start.p0(i64 8, ptr nonnull %numErrors) #16
  store i64 0, ptr %numErrors, align 8, !tbaa !121
  %_items.i.i.i1288 = getelementptr inbounds %struct.CArchiveCommandLineOptions, ptr %options, i64 0, i32 10, i32 0, i32 0, i32 0, i32 3
  %207 = load ptr, ptr %_items.i.i.i1288, align 8, !tbaa !15
  %208 = load ptr, ptr %207, align 8, !tbaa !16
  %ArchivePathsFullSorted464 = getelementptr inbounds %struct.CArchiveCommandLineOptions, ptr %options, i64 0, i32 21
  %ArchivePathsSorted463 = getelementptr inbounds %struct.CArchiveCommandLineOptions, ptr %options, i64 0, i32 20
  %StdInMode461 = getelementptr inbounds %struct.CArchiveCommandLineOptions, ptr %options, i64 0, i32 5
  %209 = load i8, ptr %StdInMode461, align 1, !tbaa !98, !range !35, !noundef !36
  %tobool462 = icmp ne i8 %209, 0
  %Head470 = getelementptr inbounds %"struct.NWildcard::CPair", ptr %208, i64 0, i32 1
  %210 = load i8, ptr %EnableHeaders, align 1, !tbaa !39, !range !35, !noundef !36
  %tobool472 = icmp ne i8 %210, 0
  %TechMode = getelementptr inbounds %struct.CArchiveCommandLineOptions, ptr %options, i64 0, i32 15
  %211 = load i8, ptr %TechMode, align 8, !tbaa !122, !range !35, !noundef !36
  %tobool473 = icmp ne i8 %211, 0
  %PasswordEnabled474 = getelementptr inbounds %struct.CArchiveCommandLineOptions, ptr %options, i64 0, i32 13
  %Password475 = getelementptr inbounds %struct.CArchiveCommandLineOptions, ptr %options, i64 0, i32 14
  %call477 = invoke noundef i32 @_Z12ListArchivesP7CCodecsRK13CRecordVectorIiEbR13CObjectVectorI11CStringBaseIwEES9_RKN9NWildcard11CCensorNodeEbbRbRS7_Ry(ptr noundef nonnull %call26, ptr noundef nonnull align 8 dereferenceable(32) %formatIndices, i1 noundef zeroext %tobool462, ptr noundef nonnull align 8 dereferenceable(32) %ArchivePathsSorted463, ptr noundef nonnull align 8 dereferenceable(32) %ArchivePathsFullSorted464, ptr noundef nonnull align 8 dereferenceable(120) %Head470, i1 noundef zeroext %tobool472, i1 noundef zeroext %tobool473, ptr noundef nonnull align 1 dereferenceable(1) %PasswordEnabled474, ptr noundef nonnull align 8 dereferenceable(16) %Password475, ptr noundef nonnull align 8 dereferenceable(8) %numErrors)
          to label %invoke.cont476 unwind label %lpad467

invoke.cont476:                                   ; preds = %if.else459
  %212 = load i64, ptr %numErrors, align 8, !tbaa !121
  %cmp478.not = icmp eq i64 %212, 0
  br i1 %cmp478.not, label %if.end486, label %if.then479

if.then479:                                       ; preds = %invoke.cont476
  %call481 = invoke noundef nonnull align 8 dereferenceable(16) ptr @_ZN13CStdOutStreamlsEPFRS_S0_E(ptr noundef nonnull align 8 dereferenceable(16) @g_StdOut, ptr noundef nonnull @_Z4endlR13CStdOutStream)
          to label %invoke.cont480 unwind label %lpad467

invoke.cont480:                                   ; preds = %if.then479
  %call483 = invoke noundef nonnull align 8 dereferenceable(16) ptr @_ZN13CStdOutStreamlsEPKc(ptr noundef nonnull align 8 dereferenceable(16) %call481, ptr noundef nonnull @.str.16)
          to label %invoke.cont482 unwind label %lpad467

invoke.cont482:                                   ; preds = %invoke.cont480
  %213 = load i64, ptr %numErrors, align 8, !tbaa !121
  %call485 = invoke noundef nonnull align 8 dereferenceable(16) ptr @_ZN13CStdOutStreamlsEy(ptr noundef nonnull align 8 dereferenceable(16) %call483, i64 noundef %213)
          to label %cleanup494 unwind label %lpad467

lpad467:                                          ; preds = %if.then488, %invoke.cont482, %invoke.cont480, %if.then479, %if.else459
  %214 = landingpad { ptr, i32 }
          cleanup
  call void @llvm.lifetime.end.p0(i64 8, ptr nonnull %numErrors) #16
  br label %ehcleanup845

if.end486:                                        ; preds = %invoke.cont476
  %cmp487.not = icmp eq i32 %call477, 0
  br i1 %cmp487.not, label %cleanup494.thread, label %if.then488

cleanup494.thread:                                ; preds = %if.end486
  call void @llvm.lifetime.end.p0(i64 8, ptr nonnull %numErrors) #16
  br label %if.end843

if.then488:                                       ; preds = %if.end486
  %exception489 = call ptr @__cxa_allocate_exception(i64 4) #16
  store i32 %call477, ptr %exception489, align 4, !tbaa !42
  invoke void @__cxa_throw(ptr nonnull %exception489, ptr nonnull @_ZTI16CSystemException, ptr null) #19
          to label %unreachable unwind label %lpad467

cleanup494:                                       ; preds = %invoke.cont482
  call void @llvm.lifetime.end.p0(i64 8, ptr nonnull %numErrors) #16
  br label %cleanup844

if.else501:                                       ; preds = %if.else238
  %call504 = invoke noundef zeroext i1 @_ZNK15CArchiveCommand17IsFromUpdateGroupEv(ptr noundef nonnull align 4 dereferenceable(4) %Command)
          to label %invoke.cont503 unwind label %lpad57

invoke.cont503:                                   ; preds = %if.else501
  br i1 %call504, label %if.then505, label %if.else838

if.then505:                                       ; preds = %invoke.cont503
  %UpdateOptions = getelementptr inbounds %struct.CArchiveCommandLineOptions, ptr %options, i64 0, i32 23
  %SfxMode = getelementptr inbounds %struct.CArchiveCommandLineOptions, ptr %options, i64 0, i32 23, i32 4
  %215 = load i8, ptr %SfxMode, align 8, !tbaa !123, !range !35, !noundef !36
  %tobool506.not = icmp ne i8 %215, 0
  %_length.i1289 = getelementptr inbounds %struct.CArchiveCommandLineOptions, ptr %options, i64 0, i32 23, i32 5, i32 1
  %216 = load i32, ptr %_length.i1289, align 8
  %cmp.i1290 = icmp eq i32 %216, 0
  %or.cond1490 = select i1 %tobool506.not, i1 %cmp.i1290, i1 false
  br i1 %or.cond1490, label %if.then511, label %if.end515

if.then511:                                       ; preds = %if.then505
  %SfxModule = getelementptr inbounds %struct.CArchiveCommandLineOptions, ptr %options, i64 0, i32 23, i32 5
  %call514 = invoke noundef nonnull align 8 dereferenceable(16) ptr @_ZN11CStringBaseIwEaSEPKw(ptr noundef nonnull align 8 dereferenceable(16) %SfxModule, ptr noundef nonnull @.str.38)
          to label %if.end515 unwind label %lpad508

lpad508:                                          ; preds = %if.then511
  %217 = landingpad { ptr, i32 }
          cleanup
  br label %ehcleanup845

if.end515:                                        ; preds = %if.then511, %if.then505
  call void @llvm.lifetime.start.p0(i64 40, ptr nonnull %openCallback516) #16
  store ptr getelementptr inbounds ({ [9 x ptr] }, ptr @_ZTV20COpenCallbackConsole, i64 0, inrange i32 0, i64 2), ptr %openCallback516, align 8, !tbaa !12
  %PasswordWasAsked.i1292 = getelementptr inbounds %class.COpenCallbackConsole, ptr %openCallback516, i64 0, i32 3
  store i8 0, ptr %PasswordWasAsked.i1292, align 1, !tbaa !93
  %Password.i1293 = getelementptr inbounds %class.COpenCallbackConsole, ptr %openCallback516, i64 0, i32 4
  %218 = getelementptr inbounds %class.COpenCallbackConsole, ptr %openCallback516, i64 0, i32 4, i32 1
  store i64 17179869184, ptr %218, align 8
  %call.i.i.i1296 = invoke noalias noundef nonnull dereferenceable(16) ptr @_Znam(i64 noundef 16) #18
          to label %_ZN20COpenCallbackConsoleC2Ev.exit1297 unwind label %lpad517

_ZN20COpenCallbackConsoleC2Ev.exit1297:           ; preds = %if.end515
  %PasswordIsDefined.i1291 = getelementptr inbounds %class.COpenCallbackConsole, ptr %openCallback516, i64 0, i32 2
  %_capacity.i.i1294 = getelementptr inbounds %class.COpenCallbackConsole, ptr %openCallback516, i64 0, i32 4, i32 2
  store ptr %call.i.i.i1296, ptr %Password.i1293, align 8, !tbaa !17
  %OutStream519 = getelementptr inbounds %class.COpenCallbackConsole, ptr %openCallback516, i64 0, i32 1
  store ptr %g_StdErr.g_StdOut, ptr %OutStream519, align 8, !tbaa !96
  %PasswordEnabled520 = getelementptr inbounds %struct.CArchiveCommandLineOptions, ptr %options, i64 0, i32 13
  %219 = load i8, ptr %PasswordEnabled520, align 8, !tbaa !91, !range !35, !noundef !36
  %tobool521.not = icmp ne i8 %219, 0
  %_length.i1298 = getelementptr inbounds %struct.CArchiveCommandLineOptions, ptr %options, i64 0, i32 14, i32 1
  %220 = load i32, ptr %_length.i1298, align 8
  %cmp.i1299 = icmp ne i32 %220, 0
  %221 = and i1 %tobool521.not, %cmp.i1299
  %frombool526 = zext i1 %221 to i8
  store i8 %frombool526, ptr %PasswordIsDefined.i1291, align 8, !tbaa !97
  %Password530 = getelementptr inbounds %struct.CArchiveCommandLineOptions, ptr %options, i64 0, i32 14
  store i32 0, ptr %call.i.i.i1296, align 4, !tbaa !52
  %add.i.i1552 = add nsw i32 %220, 1
  %cmp.i.i = icmp eq i32 %add.i.i1552, 4
  br i1 %cmp.i.i, label %_ZN11CStringBaseIwE11SetCapacityEi.exit.i, label %if.end.i.i1555

if.end.i.i1555:                                   ; preds = %_ZN20COpenCallbackConsoleC2Ev.exit1297
  %conv.i.i = zext i32 %add.i.i1552 to i64
  %222 = icmp slt i32 %220, -1
  %223 = shl nuw nsw i64 %conv.i.i, 2
  %224 = select i1 %222, i64 -1, i64 %223
  %call.i.i15541563 = invoke noalias noundef nonnull ptr @_Znam(i64 noundef %224) #18
          to label %if.end9.i.i unwind label %ehcleanup831.thread

if.end9.i.i:                                      ; preds = %if.end.i.i1555
  call void @_ZdaPv(ptr noundef nonnull %call.i.i.i1296) #17
  %.pre.i = load i32, ptr %218, align 8, !tbaa !49
  %225 = sext i32 %.pre.i to i64
  store ptr %call.i.i15541563, ptr %Password.i1293, align 8, !tbaa !17
  %arrayidx14.i.i = getelementptr inbounds i32, ptr %call.i.i15541563, i64 %225
  store i32 0, ptr %arrayidx14.i.i, align 4, !tbaa !52
  store i32 %add.i.i1552, ptr %_capacity.i.i1294, align 4, !tbaa !82
  br label %_ZN11CStringBaseIwE11SetCapacityEi.exit.i

_ZN11CStringBaseIwE11SetCapacityEi.exit.i:        ; preds = %if.end9.i.i, %_ZN20COpenCallbackConsoleC2Ev.exit1297
  %226 = phi ptr [ %call.i.i.i1296, %_ZN20COpenCallbackConsoleC2Ev.exit1297 ], [ %call.i.i15541563, %if.end9.i.i ]
  %227 = load ptr, ptr %Password530, align 8, !tbaa !17
  br label %while.cond.i.i1562

while.cond.i.i1562:                               ; preds = %while.cond.i.i1562, %_ZN11CStringBaseIwE11SetCapacityEi.exit.i
  %src.addr.0.i.i1557 = phi ptr [ %227, %_ZN11CStringBaseIwE11SetCapacityEi.exit.i ], [ %incdec.ptr.i.i1559, %while.cond.i.i1562 ]
  %dest.addr.0.i.i1558 = phi ptr [ %226, %_ZN11CStringBaseIwE11SetCapacityEi.exit.i ], [ %incdec.ptr1.i.i1560, %while.cond.i.i1562 ]
  %incdec.ptr.i.i1559 = getelementptr inbounds i32, ptr %src.addr.0.i.i1557, i64 1
  %228 = load i32, ptr %src.addr.0.i.i1557, align 4, !tbaa !52
  %incdec.ptr1.i.i1560 = getelementptr inbounds i32, ptr %dest.addr.0.i.i1558, i64 1
  store i32 %228, ptr %dest.addr.0.i.i1558, align 4, !tbaa !52
  %cmp.not.i.i1561 = icmp eq i32 %228, 0
  br i1 %cmp.not.i.i1561, label %_ZN11CStringBaseIwEaSERKS0_.exit, label %while.cond.i.i1562, !llvm.loop !60

_ZN11CStringBaseIwEaSERKS0_.exit:                 ; preds = %while.cond.i.i1562
  %229 = load i32, ptr %_length.i1298, align 8
  store i32 %229, ptr %218, align 8, !tbaa !49
  call void @llvm.lifetime.start.p0(i64 232, ptr nonnull %callback) #16
  store ptr getelementptr inbounds ({ [20 x ptr] }, ptr @_ZTV22CUpdateCallbackConsole, i64 0, inrange i32 0, i64 2), ptr %callback, align 8, !tbaa !12
  %m_PercentPrinter.i = getelementptr inbounds %class.CUpdateCallbackConsole, ptr %callback, i64 0, i32 1
  store i64 65536, ptr %m_PercentPrinter.i, align 8, !tbaa !124
  %m_PrevValue.i.i = getelementptr inbounds %class.CUpdateCallbackConsole, ptr %callback, i64 0, i32 1, i32 1
  %m_Total.i.i = getelementptr inbounds %class.CUpdateCallbackConsole, ptr %callback, i64 0, i32 1, i32 3
  call void @llvm.memset.p0.i64(ptr noundef nonnull align 8 dereferenceable(16) %m_PrevValue.i.i, i8 0, i64 16, i1 false)
  store i64 1, ptr %m_Total.i.i, align 8, !tbaa !126
  %m_NumExtraChars.i.i = getelementptr inbounds %class.CUpdateCallbackConsole, ptr %callback, i64 0, i32 1, i32 4
  store i32 0, ptr %m_NumExtraChars.i.i, align 8, !tbaa !127
  %m_WarningsMode.i = getelementptr inbounds %class.CUpdateCallbackConsole, ptr %callback, i64 0, i32 4
  store i8 0, ptr %m_WarningsMode.i, align 2, !tbaa !128
  %StdOutMode.i = getelementptr inbounds %class.CUpdateCallbackConsole, ptr %callback, i64 0, i32 7
  store i8 0, ptr %StdOutMode.i, align 1, !tbaa !133
  %230 = getelementptr inbounds %class.CUpdateCallbackConsole, ptr %callback, i64 0, i32 9, i32 1
  store i64 17179869184, ptr %230, align 8
  %call.i.i.i1308 = invoke noalias noundef nonnull dereferenceable(16) ptr @_Znam(i64 noundef 16) #18
          to label %_ZN22CUpdateCallbackConsoleC2Ev.exit unwind label %ehcleanup831.thread1611

_ZN22CUpdateCallbackConsoleC2Ev.exit:             ; preds = %_ZN11CStringBaseIwEaSERKS0_.exit
  %Password.i1301 = getelementptr inbounds %class.CUpdateCallbackConsole, ptr %callback, i64 0, i32 9
  %PasswordIsDefined.i1300 = getelementptr inbounds %class.CUpdateCallbackConsole, ptr %callback, i64 0, i32 8
  %EnablePercents.i = getelementptr inbounds %class.CUpdateCallbackConsole, ptr %callback, i64 0, i32 6
  %_capacity.i.i1302 = getelementptr inbounds %class.CUpdateCallbackConsole, ptr %callback, i64 0, i32 9, i32 2
  store ptr %call.i.i.i1308, ptr %Password.i1301, align 8, !tbaa !17
  %AskPassword.i = getelementptr inbounds %class.CUpdateCallbackConsole, ptr %callback, i64 0, i32 10
  %FailedFiles.i = getelementptr inbounds %class.CUpdateCallbackConsole, ptr %callback, i64 0, i32 11
  %_capacity.i.i.i.i1303 = getelementptr inbounds %class.CUpdateCallbackConsole, ptr %callback, i64 0, i32 11, i32 0, i32 0, i32 1
  %_itemSize.i.i.i.i1304 = getelementptr inbounds %class.CUpdateCallbackConsole, ptr %callback, i64 0, i32 11, i32 0, i32 0, i32 4
  call void @llvm.memset.p0.i64(ptr noundef nonnull align 8 dereferenceable(16) %_capacity.i.i.i.i1303, i8 0, i64 16, i1 false)
  store i64 8, ptr %_itemSize.i.i.i.i1304, align 8, !tbaa !5
  store ptr getelementptr inbounds ({ [5 x ptr] }, ptr @_ZTV13CObjectVectorI11CStringBaseIwEE, i64 0, inrange i32 0, i64 2), ptr %FailedFiles.i, align 8, !tbaa !12
  %FailedCodes.i = getelementptr inbounds %class.CUpdateCallbackConsole, ptr %callback, i64 0, i32 12
  %_capacity.i.i.i1305 = getelementptr inbounds %class.CUpdateCallbackConsole, ptr %callback, i64 0, i32 12, i32 0, i32 1
  %_itemSize.i.i.i1306 = getelementptr inbounds %class.CUpdateCallbackConsole, ptr %callback, i64 0, i32 12, i32 0, i32 4
  call void @llvm.memset.p0.i64(ptr noundef nonnull align 8 dereferenceable(16) %_capacity.i.i.i1305, i8 0, i64 16, i1 false)
  store i64 4, ptr %_itemSize.i.i.i1306, align 8, !tbaa !5
  store ptr getelementptr inbounds ({ [5 x ptr] }, ptr @_ZTV13CRecordVectorIiE, i64 0, inrange i32 0, i64 2), ptr %FailedCodes.i, align 8, !tbaa !12
  %CantFindFiles.i = getelementptr inbounds %class.CUpdateCallbackConsole, ptr %callback, i64 0, i32 13
  %_capacity.i.i.i11.i = getelementptr inbounds %class.CUpdateCallbackConsole, ptr %callback, i64 0, i32 13, i32 0, i32 0, i32 1
  %_itemSize.i.i.i12.i = getelementptr inbounds %class.CUpdateCallbackConsole, ptr %callback, i64 0, i32 13, i32 0, i32 0, i32 4
  call void @llvm.memset.p0.i64(ptr noundef nonnull align 8 dereferenceable(16) %_capacity.i.i.i11.i, i8 0, i64 16, i1 false)
  store i64 8, ptr %_itemSize.i.i.i12.i, align 8, !tbaa !5
  store ptr getelementptr inbounds ({ [5 x ptr] }, ptr @_ZTV13CObjectVectorI11CStringBaseIwEE, i64 0, inrange i32 0, i64 2), ptr %CantFindFiles.i, align 8, !tbaa !12
  %CantFindCodes.i = getelementptr inbounds %class.CUpdateCallbackConsole, ptr %callback, i64 0, i32 14
  %_capacity.i.i13.i = getelementptr inbounds %class.CUpdateCallbackConsole, ptr %callback, i64 0, i32 14, i32 0, i32 1
  %_itemSize.i.i14.i = getelementptr inbounds %class.CUpdateCallbackConsole, ptr %callback, i64 0, i32 14, i32 0, i32 4
  call void @llvm.memset.p0.i64(ptr noundef nonnull align 8 dereferenceable(16) %_capacity.i.i13.i, i8 0, i64 16, i1 false)
  store i64 4, ptr %_itemSize.i.i14.i, align 8, !tbaa !5
  store ptr getelementptr inbounds ({ [5 x ptr] }, ptr @_ZTV13CRecordVectorIiE, i64 0, inrange i32 0, i64 2), ptr %CantFindCodes.i, align 8, !tbaa !12
  %EnablePercents = getelementptr inbounds %struct.CArchiveCommandLineOptions, ptr %options, i64 0, i32 25
  %231 = load i8, ptr %EnablePercents, align 8, !tbaa !134, !range !35, !noundef !36
  store i8 %231, ptr %EnablePercents.i, align 8, !tbaa !135
  store i8 %frombool526, ptr %PasswordIsDefined.i1300, align 2, !tbaa !136
  %232 = load i8, ptr %PasswordEnabled520, align 8, !tbaa !91, !range !35, !noundef !36
  %tobool543.not = icmp ne i8 %232, 0
  %cmp.i1310 = icmp eq i32 %229, 0
  %233 = select i1 %tobool543.not, i1 %cmp.i1310, i1 false
  %frombool550 = zext i1 %233 to i8
  store i8 %frombool550, ptr %AskPassword.i, align 8, !tbaa !137
  store i32 0, ptr %call.i.i.i1308, align 4, !tbaa !52
  %add.i.i1566 = add nsw i32 %229, 1
  %cmp.i.i1568 = icmp eq i32 %add.i.i1566, 4
  br i1 %cmp.i.i1568, label %while.cond.i.i1584.preheader, label %if.end.i.i1572

if.end.i.i1572:                                   ; preds = %_ZN22CUpdateCallbackConsoleC2Ev.exit
  %conv.i.i1569 = zext i32 %add.i.i1566 to i64
  %234 = icmp slt i32 %229, -1
  %235 = shl nuw nsw i64 %conv.i.i1569, 2
  %236 = select i1 %234, i64 -1, i64 %235
  %call.i.i15701585 = invoke noalias noundef nonnull ptr @_Znam(i64 noundef %236) #18
          to label %if.end9.i.i1577 unwind label %lpad546

if.end9.i.i1577:                                  ; preds = %if.end.i.i1572
  call void @_ZdaPv(ptr noundef nonnull %call.i.i.i1308) #17
  %.pre1604.pre = load ptr, ptr %Password530, align 8, !tbaa !17
  %.pre.i1573 = load i32, ptr %230, align 8, !tbaa !49
  %237 = sext i32 %.pre.i1573 to i64
  store ptr %call.i.i15701585, ptr %Password.i1301, align 8, !tbaa !17
  %arrayidx14.i.i1576 = getelementptr inbounds i32, ptr %call.i.i15701585, i64 %237
  store i32 0, ptr %arrayidx14.i.i1576, align 4, !tbaa !52
  store i32 %add.i.i1566, ptr %_capacity.i.i1302, align 4, !tbaa !82
  br label %while.cond.i.i1584.preheader

while.cond.i.i1584.preheader:                     ; preds = %if.end9.i.i1577, %_ZN22CUpdateCallbackConsoleC2Ev.exit
  %src.addr.0.i.i1579.ph = phi ptr [ %.pre1604.pre, %if.end9.i.i1577 ], [ %227, %_ZN22CUpdateCallbackConsoleC2Ev.exit ]
  %dest.addr.0.i.i1580.ph = phi ptr [ %call.i.i15701585, %if.end9.i.i1577 ], [ %call.i.i.i1308, %_ZN22CUpdateCallbackConsoleC2Ev.exit ]
  br label %while.cond.i.i1584

while.cond.i.i1584:                               ; preds = %while.cond.i.i1584.preheader, %while.cond.i.i1584
  %src.addr.0.i.i1579 = phi ptr [ %incdec.ptr.i.i1581, %while.cond.i.i1584 ], [ %src.addr.0.i.i1579.ph, %while.cond.i.i1584.preheader ]
  %dest.addr.0.i.i1580 = phi ptr [ %incdec.ptr1.i.i1582, %while.cond.i.i1584 ], [ %dest.addr.0.i.i1580.ph, %while.cond.i.i1584.preheader ]
  %incdec.ptr.i.i1581 = getelementptr inbounds i32, ptr %src.addr.0.i.i1579, i64 1
  %238 = load i32, ptr %src.addr.0.i.i1579, align 4, !tbaa !52
  %incdec.ptr1.i.i1582 = getelementptr inbounds i32, ptr %dest.addr.0.i.i1580, i64 1
  store i32 %238, ptr %dest.addr.0.i.i1580, align 4, !tbaa !52
  %cmp.not.i.i1583 = icmp eq i32 %238, 0
  br i1 %cmp.not.i.i1583, label %_ZN11CStringBaseIwEaSERKS0_.exit1586, label %while.cond.i.i1584, !llvm.loop !60

_ZN11CStringBaseIwEaSERKS0_.exit1586:             ; preds = %while.cond.i.i1584
  %239 = load i32, ptr %_length.i1298, align 8, !tbaa !49
  store i32 %239, ptr %230, align 8, !tbaa !49
  %StdOutMode555 = getelementptr inbounds %struct.CArchiveCommandLineOptions, ptr %options, i64 0, i32 23, i32 9
  %240 = load i8, ptr %StdOutMode555, align 8, !tbaa !138, !range !35, !noundef !36
  store i8 %240, ptr %StdOutMode.i, align 1, !tbaa !133
  %m_NeedBeClosed.i = getelementptr inbounds %class.CUpdateCallbackConsole, ptr %callback, i64 0, i32 2
  store i8 0, ptr %m_NeedBeClosed.i, align 8, !tbaa !139
  %m_NeedNewLine.i = getelementptr inbounds %class.CUpdateCallbackConsole, ptr %callback, i64 0, i32 3
  store i8 0, ptr %m_NeedNewLine.i, align 1, !tbaa !140
  invoke void @_ZN17CBaseRecordVector5ClearEv(ptr noundef nonnull align 8 dereferenceable(32) %FailedFiles.i)
          to label %.noexc unwind label %lpad546

.noexc:                                           ; preds = %_ZN11CStringBaseIwEaSERKS0_.exit1586
  invoke void @_ZN17CBaseRecordVector5ClearEv(ptr noundef nonnull align 8 dereferenceable(32) %FailedCodes.i)
          to label %_ZN22CUpdateCallbackConsole4InitEP13CStdOutStream.exit unwind label %lpad546

_ZN22CUpdateCallbackConsole4InitEP13CStdOutStream.exit: ; preds = %.noexc
  %OutStream.i = getelementptr inbounds %class.CUpdateCallbackConsole, ptr %callback, i64 0, i32 5
  store ptr %g_StdErr.g_StdOut, ptr %OutStream.i, align 8, !tbaa !141
  %OutStream2.i = getelementptr inbounds %class.CUpdateCallbackConsole, ptr %callback, i64 0, i32 1, i32 5
  store ptr %g_StdErr.g_StdOut, ptr %OutStream2.i, align 8, !tbaa !142
  call void @llvm.lifetime.start.p0(i64 56, ptr nonnull %errorInfo) #16
  store i32 0, ptr %errorInfo, align 8, !tbaa !143
  %FileName.i.i = getelementptr inbounds %struct.CErrorInfo, ptr %errorInfo, i64 0, i32 1
  %241 = getelementptr inbounds %struct.CErrorInfo, ptr %errorInfo, i64 0, i32 1, i32 1
  store i64 0, ptr %241, align 8
  %call.i.i.i.i1592 = invoke noalias noundef nonnull dereferenceable(16) ptr @_Znam(i64 noundef 16) #18
          to label %call.i.i.i.i.noexc1591 unwind label %lpad560

call.i.i.i.i.noexc1591:                           ; preds = %_ZN22CUpdateCallbackConsole4InitEP13CStdOutStream.exit
  %_capacity.i.i.i1590 = getelementptr inbounds %struct.CErrorInfo, ptr %errorInfo, i64 0, i32 1, i32 2
  store ptr %call.i.i.i.i1592, ptr %FileName.i.i, align 8, !tbaa !17
  store i32 0, ptr %call.i.i.i.i1592, align 4, !tbaa !52
  store i32 4, ptr %_capacity.i.i.i1590, align 4, !tbaa !82
  %FileName2.i.i = getelementptr inbounds %struct.CErrorInfo, ptr %errorInfo, i64 0, i32 2
  call void @llvm.memset.p0.i64(ptr noundef nonnull align 8 dereferenceable(16) %FileName2.i.i, i8 0, i64 16, i1 false)
  %call.i.i67.i.i = invoke noalias noundef nonnull dereferenceable(16) ptr @_Znam(i64 noundef 16) #18
          to label %_ZN11CStringBaseIwEC2Ev.exit.i.i unwind label %ehcleanup.thread.i.i

_ZN11CStringBaseIwEC2Ev.exit.i.i:                 ; preds = %call.i.i.i.i.noexc1591
  %_capacity.i5.i.i = getelementptr inbounds %struct.CErrorInfo, ptr %errorInfo, i64 0, i32 2, i32 2
  store ptr %call.i.i67.i.i, ptr %FileName2.i.i, align 8, !tbaa !17
  store i32 0, ptr %call.i.i67.i.i, align 4, !tbaa !52
  store i32 4, ptr %_capacity.i5.i.i, align 4, !tbaa !82
  %Message.i.i = getelementptr inbounds %struct.CErrorInfo, ptr %errorInfo, i64 0, i32 3
  call void @llvm.memset.p0.i64(ptr noundef nonnull align 8 dereferenceable(16) %Message.i.i, i8 0, i64 16, i1 false)
  %call.i.i910.i.i = invoke noalias noundef nonnull dereferenceable(16) ptr @_Znam(i64 noundef 16) #18
          to label %_ZN16CUpdateErrorInfoC2Ev.exit unwind label %ehcleanup.i.i

ehcleanup.thread.i.i:                             ; preds = %call.i.i.i.i.noexc1591
  %242 = landingpad { ptr, i32 }
          cleanup
  br label %delete.notnull.i13.i.i

ehcleanup.i.i:                                    ; preds = %_ZN11CStringBaseIwEC2Ev.exit.i.i
  %243 = landingpad { ptr, i32 }
          cleanup
  call void @_ZdaPv(ptr noundef nonnull %call.i.i67.i.i) #17
  %.pre.i.i = load ptr, ptr %FileName.i.i, align 8, !tbaa !17
  %isnull.i12.i.i = icmp eq ptr %.pre.i.i, null
  br i1 %isnull.i12.i.i, label %ehcleanup825, label %delete.notnull.i13.i.i

delete.notnull.i13.i.i:                           ; preds = %ehcleanup.i.i, %ehcleanup.thread.i.i
  %.pn18.i.i = phi { ptr, i32 } [ %242, %ehcleanup.thread.i.i ], [ %243, %ehcleanup.i.i ]
  %244 = phi ptr [ %call.i.i.i.i1592, %ehcleanup.thread.i.i ], [ %.pre.i.i, %ehcleanup.i.i ]
  call void @_ZdaPv(ptr noundef nonnull %244) #17
  br label %ehcleanup825

_ZN16CUpdateErrorInfoC2Ev.exit:                   ; preds = %_ZN11CStringBaseIwEC2Ev.exit.i.i
  %_capacity.i8.i.i = getelementptr inbounds %struct.CErrorInfo, ptr %errorInfo, i64 0, i32 3, i32 2
  store ptr %call.i.i910.i.i, ptr %Message.i.i, align 8, !tbaa !17
  store i32 0, ptr %call.i.i910.i.i, align 4, !tbaa !52
  store i32 4, ptr %_capacity.i8.i.i, align 4, !tbaa !82
  %ArchiveName = getelementptr inbounds %struct.CArchiveCommandLineOptions, ptr %options, i64 0, i32 12
  %call564 = invoke noundef zeroext i1 @_ZN14CUpdateOptions4InitEPK7CCodecsRK13CRecordVectorIiERK11CStringBaseIwE(ptr noundef nonnull align 8 dereferenceable(320) %UpdateOptions, ptr noundef nonnull %call26, ptr noundef nonnull align 8 dereferenceable(32) %formatIndices, ptr noundef nonnull align 8 dereferenceable(16) %ArchiveName)
          to label %invoke.cont563 unwind label %lpad562

invoke.cont563:                                   ; preds = %_ZN16CUpdateErrorInfoC2Ev.exit
  br i1 %call564, label %if.end567, label %if.then565

if.then565:                                       ; preds = %invoke.cont563
  %exception566 = call ptr @__cxa_allocate_exception(i64 8) #16
  store ptr @.str.37, ptr %exception566, align 16, !tbaa !16
  invoke void @__cxa_throw(ptr nonnull %exception566, ptr nonnull @_ZTIPKc, ptr null) #19
          to label %unreachable unwind label %lpad562

lpad517:                                          ; preds = %if.end515
  %245 = landingpad { ptr, i32 }
          cleanup
  br label %ehcleanup835

ehcleanup831.thread:                              ; preds = %if.end.i.i1555
  %246 = landingpad { ptr, i32 }
          cleanup
  store ptr getelementptr inbounds ({ [9 x ptr] }, ptr @_ZTV20COpenCallbackConsole, i64 0, inrange i32 0, i64 2), ptr %openCallback516, align 8, !tbaa !12
  br label %delete.notnull.i.i1391

ehcleanup831.thread1611:                          ; preds = %_ZN11CStringBaseIwEaSERKS0_.exit
  %247 = landingpad { ptr, i32 }
          cleanup
  call void @llvm.lifetime.end.p0(i64 232, ptr nonnull %callback) #16
  store ptr getelementptr inbounds ({ [9 x ptr] }, ptr @_ZTV20COpenCallbackConsole, i64 0, inrange i32 0, i64 2), ptr %openCallback516, align 8, !tbaa !12
  br label %delete.notnull.i.i1391

lpad546:                                          ; preds = %.noexc, %_ZN11CStringBaseIwEaSERKS0_.exit1586, %if.end.i.i1572
  %248 = landingpad { ptr, i32 }
          cleanup
  br label %ehcleanup831

lpad560:                                          ; preds = %_ZN22CUpdateCallbackConsole4InitEP13CStdOutStream.exit
  %249 = landingpad { ptr, i32 }
          cleanup
  br label %ehcleanup825

lpad562:                                          ; preds = %if.then565, %_ZN16CUpdateErrorInfoC2Ev.exit
  %250 = landingpad { ptr, i32 }
          cleanup
  br label %ehcleanup823

if.end567:                                        ; preds = %invoke.cont563
  %WildcardCensor569 = getelementptr inbounds %struct.CArchiveCommandLineOptions, ptr %options, i64 0, i32 10
  %call572 = invoke noundef i32 @_Z13UpdateArchiveP7CCodecsRKN9NWildcard7CCensorER14CUpdateOptionsR16CUpdateErrorInfoP15IOpenCallbackUIP18IUpdateCallbackUI2(ptr noundef nonnull %call26, ptr noundef nonnull align 8 dereferenceable(32) %WildcardCensor569, ptr noundef nonnull align 8 dereferenceable(320) %UpdateOptions, ptr noundef nonnull align 8 dereferenceable(56) %errorInfo, ptr noundef nonnull %openCallback516, ptr noundef nonnull %callback)
          to label %invoke.cont571 unwind label %lpad570

invoke.cont571:                                   ; preds = %if.end567
  %251 = load i8, ptr %SfxMode, align 8, !tbaa !123, !range !35, !noundef !36
  %tobool574.not = icmp eq i8 %251, 0
  br i1 %tobool574.not, label %if.end604, label %for.cond577.preheader

for.cond577.preheader:                            ; preds = %invoke.cont571
  %_size.i1311 = getelementptr inbounds %struct.CArchiveCommandLineOptions, ptr %options, i64 0, i32 23, i32 1, i32 0, i32 0, i32 2
  %252 = load i32, ptr %_size.i1311, align 4, !tbaa !14
  %cmp5811510 = icmp sgt i32 %252, 0
  br i1 %cmp5811510, label %for.body583.lr.ph, label %if.end604

for.body583.lr.ph:                                ; preds = %for.cond577.preheader
  %_items.i.i1312 = getelementptr inbounds %struct.CArchiveCommandLineOptions, ptr %options, i64 0, i32 23, i32 1, i32 0, i32 0, i32 3
  %253 = load i8, ptr %StdOutMode555, align 8, !tbaa !138, !range !35, !noundef !36
  %254 = icmp eq i8 %253, 0
  br i1 %254, label %for.body583, label %if.end604

lpad570:                                          ; preds = %if.end567
  %255 = landingpad { ptr, i32 }
          cleanup
  br label %ehcleanup823

for.body583thread-pre-split:                      ; preds = %if.end597
  %.pr = load i8, ptr %StdOutMode555, align 8, !tbaa !138
  br label %for.body583

for.body583:                                      ; preds = %for.body583.lr.ph, %for.body583thread-pre-split
  %256 = phi i8 [ %.pr, %for.body583thread-pre-split ], [ 0, %for.body583.lr.ph ]
  %257 = phi i32 [ %264, %for.body583thread-pre-split ], [ %252, %for.body583.lr.ph ]
  %indvars.iv1531 = phi i64 [ %indvars.iv.next1532, %for.body583thread-pre-split ], [ 0, %for.body583.lr.ph ]
  %tobool589.not = icmp eq i8 %256, 0
  br i1 %tobool589.not, label %if.then590, label %if.end597

if.then590:                                       ; preds = %for.body583
  %258 = load ptr, ptr %_items.i.i1312, align 8, !tbaa !15
  %arrayidx.i.i1314 = getelementptr inbounds ptr, ptr %258, i64 %indvars.iv1531
  %259 = load ptr, ptr %arrayidx.i.i1314, align 8, !tbaa !16
  call void @llvm.lifetime.start.p0(i64 16, ptr nonnull %ref.tmp) #16
  %ArchivePath = getelementptr inbounds %struct.CUpdateArchiveCommand, ptr %259, i64 0, i32 1
  invoke void @_ZNK12CArchivePath12GetFinalPathEv(ptr nonnull sret(%class.CStringBase) align 8 %ref.tmp, ptr noundef nonnull align 8 dereferenceable(120) %ArchivePath)
          to label %invoke.cont592 unwind label %lpad591

invoke.cont592:                                   ; preds = %if.then590
  invoke void @_Z12myAddExeFlagRK11CStringBaseIwE(ptr noundef nonnull align 8 dereferenceable(16) %ref.tmp)
          to label %invoke.cont594 unwind label %lpad593

invoke.cont594:                                   ; preds = %invoke.cont592
  %260 = load ptr, ptr %ref.tmp, align 8, !tbaa !17
  %isnull.i1315 = icmp eq ptr %260, null
  br i1 %isnull.i1315, label %_ZN11CStringBaseIwED2Ev.exit1317, label %delete.notnull.i1316

delete.notnull.i1316:                             ; preds = %invoke.cont594
  call void @_ZdaPv(ptr noundef nonnull %260) #17
  br label %_ZN11CStringBaseIwED2Ev.exit1317

_ZN11CStringBaseIwED2Ev.exit1317:                 ; preds = %invoke.cont594, %delete.notnull.i1316
  call void @llvm.lifetime.end.p0(i64 16, ptr nonnull %ref.tmp) #16
  %.pre1543 = load i32, ptr %_size.i1311, align 4, !tbaa !14
  br label %if.end597

lpad591:                                          ; preds = %if.then590
  %261 = landingpad { ptr, i32 }
          cleanup
  br label %ehcleanup596

lpad593:                                          ; preds = %invoke.cont592
  %262 = landingpad { ptr, i32 }
          cleanup
  %263 = load ptr, ptr %ref.tmp, align 8, !tbaa !17
  %isnull.i1318 = icmp eq ptr %263, null
  br i1 %isnull.i1318, label %ehcleanup596, label %delete.notnull.i1319

delete.notnull.i1319:                             ; preds = %lpad593
  call void @_ZdaPv(ptr noundef nonnull %263) #17
  br label %ehcleanup596

ehcleanup596:                                     ; preds = %delete.notnull.i1319, %lpad593, %lpad591
  %.pn1453 = phi { ptr, i32 } [ %261, %lpad591 ], [ %262, %lpad593 ], [ %262, %delete.notnull.i1319 ]
  call void @llvm.lifetime.end.p0(i64 16, ptr nonnull %ref.tmp) #16
  br label %ehcleanup823

if.end597:                                        ; preds = %_ZN11CStringBaseIwED2Ev.exit1317, %for.body583
  %264 = phi i32 [ %.pre1543, %_ZN11CStringBaseIwED2Ev.exit1317 ], [ %257, %for.body583 ]
  %indvars.iv.next1532 = add nuw nsw i64 %indvars.iv1531, 1
  %265 = sext i32 %264 to i64
  %cmp581 = icmp slt i64 %indvars.iv.next1532, %265
  br i1 %cmp581, label %for.body583thread-pre-split, label %if.end604, !llvm.loop !145

if.end604:                                        ; preds = %if.end597, %for.body583.lr.ph, %for.cond577.preheader, %invoke.cont571
  %_size.i1321 = getelementptr inbounds %class.CUpdateCallbackConsole, ptr %callback, i64 0, i32 13, i32 0, i32 0, i32 2
  %266 = load i32, ptr %_size.i1321, align 4, !tbaa !14
  %cmp608 = icmp sgt i32 %266, 0
  br i1 %cmp608, label %if.then609, label %if.end675

if.then609:                                       ; preds = %if.end604
  %call611 = invoke noundef nonnull align 8 dereferenceable(16) ptr @_ZN13CStdOutStreamlsEPFRS_S0_E(ptr noundef nonnull align 8 dereferenceable(16) %g_StdErr.g_StdOut, ptr noundef nonnull @_Z4endlR13CStdOutStream)
          to label %invoke.cont610 unwind label %lpad605

invoke.cont610:                                   ; preds = %if.then609
  %call613 = invoke noundef nonnull align 8 dereferenceable(16) ptr @_ZN13CStdOutStreamlsEPKc(ptr noundef nonnull align 8 dereferenceable(16) %g_StdErr.g_StdOut, ptr noundef nonnull @.str.17)
          to label %invoke.cont612 unwind label %lpad605

invoke.cont612:                                   ; preds = %invoke.cont610
  %call615 = invoke noundef nonnull align 8 dereferenceable(16) ptr @_ZN13CStdOutStreamlsEPFRS_S0_E(ptr noundef nonnull align 8 dereferenceable(16) %call613, ptr noundef nonnull @_Z4endlR13CStdOutStream)
          to label %invoke.cont614 unwind label %lpad605

invoke.cont614:                                   ; preds = %invoke.cont612
  %call617 = invoke noundef nonnull align 8 dereferenceable(16) ptr @_ZN13CStdOutStreamlsEPFRS_S0_E(ptr noundef nonnull align 8 dereferenceable(16) %call615, ptr noundef nonnull @_Z4endlR13CStdOutStream)
          to label %invoke.cont616 unwind label %lpad605

invoke.cont616:                                   ; preds = %invoke.cont614
  %267 = load i32, ptr %_size.i1321, align 4, !tbaa !14
  %cmp6251512 = icmp sgt i32 %267, 0
  br i1 %cmp6251512, label %for.body627.lr.ph, label %for.cond.cleanup626

for.body627.lr.ph:                                ; preds = %invoke.cont616
  %_items.i.i1323 = getelementptr inbounds %class.CUpdateCallbackConsole, ptr %callback, i64 0, i32 13, i32 0, i32 0, i32 3
  %_items.i1326 = getelementptr inbounds %class.CUpdateCallbackConsole, ptr %callback, i64 0, i32 14, i32 0, i32 3
  %wide.trip.count = zext i32 %267 to i64
  %268 = getelementptr inbounds i8, ptr %ref.tmp638, i64 8
  br label %for.body627

for.cond.cleanup626:                              ; preds = %_ZN11CStringBaseIwED2Ev.exit1335, %invoke.cont616
  %call658 = invoke noundef nonnull align 8 dereferenceable(16) ptr @_ZN13CStdOutStreamlsEPKc(ptr noundef nonnull align 8 dereferenceable(16) %g_StdErr.g_StdOut, ptr noundef nonnull @.str.19)
          to label %invoke.cont657 unwind label %lpad620

lpad605:                                          ; preds = %invoke.cont614, %invoke.cont612, %invoke.cont610, %if.then609
  %269 = landingpad { ptr, i32 }
          cleanup
  br label %ehcleanup823

lpad620:                                          ; preds = %if.end671, %if.then668, %invoke.cont663, %invoke.cont661, %invoke.cont659, %invoke.cont657, %for.cond.cleanup626
  %270 = landingpad { ptr, i32 }
          cleanup
  br label %ehcleanup823

for.body627:                                      ; preds = %for.body627.lr.ph, %_ZN11CStringBaseIwED2Ev.exit1335
  %indvars.iv1534 = phi i64 [ 0, %for.body627.lr.ph ], [ %indvars.iv.next1535, %_ZN11CStringBaseIwED2Ev.exit1335 ]
  %271 = load ptr, ptr %_items.i.i1323, align 8, !tbaa !15
  %arrayidx.i.i1325 = getelementptr inbounds ptr, ptr %271, i64 %indvars.iv1534
  %272 = load ptr, ptr %arrayidx.i.i1325, align 8, !tbaa !16
  %273 = load ptr, ptr %272, align 8, !tbaa !17
  %call635 = invoke noundef nonnull align 8 dereferenceable(16) ptr @_ZN13CStdOutStreamlsEPKw(ptr noundef nonnull align 8 dereferenceable(16) %g_StdErr.g_StdOut, ptr noundef %273)
          to label %invoke.cont634 unwind label %lpad629

invoke.cont634:                                   ; preds = %for.body627
  %call637 = invoke noundef nonnull align 8 dereferenceable(16) ptr @_ZN13CStdOutStreamlsEPKc(ptr noundef nonnull align 8 dereferenceable(16) %call635, ptr noundef nonnull @.str.18)
          to label %invoke.cont636 unwind label %lpad629

invoke.cont636:                                   ; preds = %invoke.cont634
  call void @llvm.lifetime.start.p0(i64 16, ptr nonnull %ref.tmp638) #16
  %274 = load ptr, ptr %_items.i1326, align 8, !tbaa !15
  %arrayidx.i1328 = getelementptr inbounds i32, ptr %274, i64 %indvars.iv1534
  %275 = load i32, ptr %arrayidx.i1328, align 4, !tbaa !147
  call void @llvm.experimental.noalias.scope.decl(metadata !148)
  call void @llvm.experimental.noalias.scope.decl(metadata !151)
  store i64 17179869184, ptr %268, align 8
  %call.i.i.i.i1332 = invoke noalias noundef nonnull dereferenceable(16) ptr @_Znam(i64 noundef 16) #18
          to label %call.i.i.i.i.noexc unwind label %lpad639

call.i.i.i.i.noexc:                               ; preds = %invoke.cont636
  store ptr %call.i.i.i.i1332, ptr %ref.tmp638, align 8, !tbaa !17, !alias.scope !154
  store i32 0, ptr %call.i.i.i.i1332, align 4, !tbaa !52, !noalias !154
  %call.i.i = invoke noundef zeroext i1 @_ZN8NWindows6NError15MyFormatMessageEjR11CStringBaseIwE(i32 noundef %275, ptr noundef nonnull align 8 dereferenceable(16) %ref.tmp638)
          to label %invoke.cont642 unwind label %lpad.i.i

lpad.i.i:                                         ; preds = %call.i.i.i.i.noexc
  %276 = landingpad { ptr, i32 }
          cleanup
  %277 = load ptr, ptr %ref.tmp638, align 8, !tbaa !17, !alias.scope !154
  %isnull.i.i.i1330 = icmp eq ptr %277, null
  br i1 %isnull.i.i.i1330, label %ehcleanup651, label %delete.notnull.i.i.i1331

delete.notnull.i.i.i1331:                         ; preds = %lpad.i.i
  call void @_ZdaPv(ptr noundef nonnull %277) #17
  br label %ehcleanup651

invoke.cont642:                                   ; preds = %call.i.i.i.i.noexc
  %278 = load ptr, ptr %ref.tmp638, align 8, !tbaa !17
  %call647 = invoke noundef nonnull align 8 dereferenceable(16) ptr @_ZN13CStdOutStreamlsEPKw(ptr noundef nonnull align 8 dereferenceable(16) %g_StdErr.g_StdOut, ptr noundef %278)
          to label %invoke.cont646 unwind label %lpad643

invoke.cont646:                                   ; preds = %invoke.cont642
  %call649 = invoke noundef nonnull align 8 dereferenceable(16) ptr @_ZN13CStdOutStreamlsEPFRS_S0_E(ptr noundef nonnull align 8 dereferenceable(16) %call647, ptr noundef nonnull @_Z4endlR13CStdOutStream)
          to label %invoke.cont648 unwind label %lpad643

invoke.cont648:                                   ; preds = %invoke.cont646
  %279 = load ptr, ptr %ref.tmp638, align 8, !tbaa !17
  %isnull.i1333 = icmp eq ptr %279, null
  br i1 %isnull.i1333, label %_ZN11CStringBaseIwED2Ev.exit1335, label %delete.notnull.i1334

delete.notnull.i1334:                             ; preds = %invoke.cont648
  call void @_ZdaPv(ptr noundef nonnull %279) #17
  br label %_ZN11CStringBaseIwED2Ev.exit1335

_ZN11CStringBaseIwED2Ev.exit1335:                 ; preds = %invoke.cont648, %delete.notnull.i1334
  call void @llvm.lifetime.end.p0(i64 16, ptr nonnull %ref.tmp638) #16
  %indvars.iv.next1535 = add nuw nsw i64 %indvars.iv1534, 1
  %exitcond1537.not = icmp eq i64 %indvars.iv.next1535, %wide.trip.count
  br i1 %exitcond1537.not, label %for.cond.cleanup626, label %for.body627, !llvm.loop !155

lpad629:                                          ; preds = %invoke.cont634, %for.body627
  %280 = landingpad { ptr, i32 }
          cleanup
  br label %ehcleanup823

lpad639:                                          ; preds = %invoke.cont636
  %281 = landingpad { ptr, i32 }
          cleanup
  br label %ehcleanup651

lpad643:                                          ; preds = %invoke.cont646, %invoke.cont642
  %282 = landingpad { ptr, i32 }
          cleanup
  %283 = load ptr, ptr %ref.tmp638, align 8, !tbaa !17
  %isnull.i1336 = icmp eq ptr %283, null
  br i1 %isnull.i1336, label %ehcleanup651, label %delete.notnull.i1337

delete.notnull.i1337:                             ; preds = %lpad643
  call void @_ZdaPv(ptr noundef nonnull %283) #17
  br label %ehcleanup651

ehcleanup651:                                     ; preds = %delete.notnull.i1337, %lpad643, %lpad639, %delete.notnull.i.i.i1331, %lpad.i.i
  %.pn1448 = phi { ptr, i32 } [ %281, %lpad639 ], [ %276, %delete.notnull.i.i.i1331 ], [ %276, %lpad.i.i ], [ %282, %lpad643 ], [ %282, %delete.notnull.i1337 ]
  call void @llvm.lifetime.end.p0(i64 16, ptr nonnull %ref.tmp638) #16
  br label %ehcleanup823

invoke.cont657:                                   ; preds = %for.cond.cleanup626
  %call660 = invoke noundef nonnull align 8 dereferenceable(16) ptr @_ZN13CStdOutStreamlsEPFRS_S0_E(ptr noundef nonnull align 8 dereferenceable(16) %call658, ptr noundef nonnull @_Z4endlR13CStdOutStream)
          to label %invoke.cont659 unwind label %lpad620

invoke.cont659:                                   ; preds = %invoke.cont657
  %call662 = invoke noundef nonnull align 8 dereferenceable(16) ptr @_ZN13CStdOutStreamlsEPKc(ptr noundef nonnull align 8 dereferenceable(16) %g_StdErr.g_StdOut, ptr noundef nonnull @.str.20)
          to label %invoke.cont661 unwind label %lpad620

invoke.cont661:                                   ; preds = %invoke.cont659
  %call664 = invoke noundef nonnull align 8 dereferenceable(16) ptr @_ZN13CStdOutStreamlsEi(ptr noundef nonnull align 8 dereferenceable(16) %call662, i32 noundef %267)
          to label %invoke.cont663 unwind label %lpad620

invoke.cont663:                                   ; preds = %invoke.cont661
  %call666 = invoke noundef nonnull align 8 dereferenceable(16) ptr @_ZN13CStdOutStreamlsEPKc(ptr noundef nonnull align 8 dereferenceable(16) %call664, ptr noundef nonnull @.str.21)
          to label %invoke.cont665 unwind label %lpad620

invoke.cont665:                                   ; preds = %invoke.cont663
  %cmp667 = icmp sgt i32 %267, 1
  br i1 %cmp667, label %if.then668, label %if.end671

if.then668:                                       ; preds = %invoke.cont665
  %call670 = invoke noundef nonnull align 8 dereferenceable(16) ptr @_ZN13CStdOutStreamlsEPKc(ptr noundef nonnull align 8 dereferenceable(16) %g_StdErr.g_StdOut, ptr noundef nonnull @.str.22)
          to label %if.end671 unwind label %lpad620

if.end671:                                        ; preds = %if.then668, %invoke.cont665
  %call673 = invoke noundef nonnull align 8 dereferenceable(16) ptr @_ZN13CStdOutStreamlsEPFRS_S0_E(ptr noundef nonnull align 8 dereferenceable(16) %g_StdErr.g_StdOut, ptr noundef nonnull @_Z4endlR13CStdOutStream)
          to label %if.end675 unwind label %lpad620

if.end675:                                        ; preds = %if.end671, %if.end604
  %exitCode.0 = phi i32 [ 0, %if.end604 ], [ 1, %if.end671 ]
  %cmp676.not = icmp eq i32 %call572, 0
  br i1 %cmp676.not, label %if.end738, label %if.then677

if.then677:                                       ; preds = %if.end675
  call void @llvm.lifetime.start.p0(i64 16, ptr nonnull %message) #16
  %284 = getelementptr inbounds i8, ptr %message, i64 8
  store i64 17179869184, ptr %284, align 8
  %call.i.i13401341 = invoke noalias noundef nonnull dereferenceable(16) ptr @_Znam(i64 noundef 16) #18
          to label %_ZN11CStringBaseIwEC2Ev.exit1342 unwind label %lpad678

_ZN11CStringBaseIwEC2Ev.exit1342:                 ; preds = %if.then677
  store ptr %call.i.i13401341, ptr %message, align 8, !tbaa !17
  store i32 0, ptr %call.i.i13401341, align 4, !tbaa !52
  %_length.i1343 = getelementptr inbounds %struct.CErrorInfo, ptr %errorInfo, i64 0, i32 3, i32 1
  %285 = load i32, ptr %_length.i1343, align 8, !tbaa !49
  %cmp.i1344 = icmp eq i32 %285, 0
  br i1 %cmp.i1344, label %if.end689, label %if.then683

if.then683:                                       ; preds = %_ZN11CStringBaseIwEC2Ev.exit1342
  %call686 = invoke noundef nonnull align 8 dereferenceable(16) ptr @_ZN11CStringBaseIwEpLERKS0_(ptr noundef nonnull align 8 dereferenceable(16) %message, ptr noundef nonnull align 8 dereferenceable(16) %Message.i.i)
          to label %invoke.cont685 unwind label %lpad680

invoke.cont685:                                   ; preds = %if.then683
  %call688 = invoke noundef nonnull align 8 dereferenceable(16) ptr @_ZN11CStringBaseIwEpLEPKw(ptr noundef nonnull align 8 dereferenceable(16) %message, ptr noundef nonnull @.str.23)
          to label %if.end689 unwind label %lpad680

lpad678:                                          ; preds = %if.then677
  %286 = landingpad { ptr, i32 }
          cleanup
  br label %ehcleanup737

lpad680:                                          ; preds = %if.end731, %invoke.cont725, %if.then724, %_ZN11CStringBaseIwED2Ev.exit1351, %invoke.cont703, %if.then701, %invoke.cont694, %if.then692, %invoke.cont685, %if.then683
  %287 = landingpad { ptr, i32 }
          cleanup
  br label %ehcleanup736

if.end689:                                        ; preds = %invoke.cont685, %_ZN11CStringBaseIwEC2Ev.exit1342
  %_length.i1345 = getelementptr inbounds %struct.CErrorInfo, ptr %errorInfo, i64 0, i32 1, i32 1
  %288 = load i32, ptr %_length.i1345, align 8, !tbaa !49
  %cmp.i1346 = icmp eq i32 %288, 0
  br i1 %cmp.i1346, label %if.end698, label %if.then692

if.then692:                                       ; preds = %if.end689
  %call695 = invoke noundef nonnull align 8 dereferenceable(16) ptr @_ZN11CStringBaseIwEpLERKS0_(ptr noundef nonnull align 8 dereferenceable(16) %message, ptr noundef nonnull align 8 dereferenceable(16) %FileName.i.i)
          to label %invoke.cont694 unwind label %lpad680

invoke.cont694:                                   ; preds = %if.then692
  %call697 = invoke noundef nonnull align 8 dereferenceable(16) ptr @_ZN11CStringBaseIwEpLEPKw(ptr noundef nonnull align 8 dereferenceable(16) %message, ptr noundef nonnull @.str.23)
          to label %if.end698 unwind label %lpad680

if.end698:                                        ; preds = %invoke.cont694, %if.end689
  %_length.i1347 = getelementptr inbounds %struct.CErrorInfo, ptr %errorInfo, i64 0, i32 2, i32 1
  %289 = load i32, ptr %_length.i1347, align 8, !tbaa !49
  %cmp.i1348 = icmp eq i32 %289, 0
  br i1 %cmp.i1348, label %if.end707, label %if.then701

if.then701:                                       ; preds = %if.end698
  %call704 = invoke noundef nonnull align 8 dereferenceable(16) ptr @_ZN11CStringBaseIwEpLERKS0_(ptr noundef nonnull align 8 dereferenceable(16) %message, ptr noundef nonnull align 8 dereferenceable(16) %FileName2.i.i)
          to label %invoke.cont703 unwind label %lpad680

invoke.cont703:                                   ; preds = %if.then701
  %call706 = invoke noundef nonnull align 8 dereferenceable(16) ptr @_ZN11CStringBaseIwEpLEPKw(ptr noundef nonnull align 8 dereferenceable(16) %message, ptr noundef nonnull @.str.23)
          to label %if.end707 unwind label %lpad680

if.end707:                                        ; preds = %invoke.cont703, %if.end698
  %290 = load i32, ptr %errorInfo, align 8, !tbaa !143
  %cmp708.not = icmp eq i32 %290, 0
  br i1 %cmp708.not, label %if.end721, label %if.then709

if.then709:                                       ; preds = %if.end707
  call void @llvm.lifetime.start.p0(i64 16, ptr nonnull %ref.tmp710) #16
  invoke void @_ZN8NWindows6NError16MyFormatMessageWEj(ptr nonnull sret(%class.CStringBase) align 8 %ref.tmp710, i32 noundef %290)
          to label %invoke.cont713 unwind label %lpad712

invoke.cont713:                                   ; preds = %if.then709
  %call716 = invoke noundef nonnull align 8 dereferenceable(16) ptr @_ZN11CStringBaseIwEpLERKS0_(ptr noundef nonnull align 8 dereferenceable(16) %message, ptr noundef nonnull align 8 dereferenceable(16) %ref.tmp710)
          to label %invoke.cont715 unwind label %lpad714

invoke.cont715:                                   ; preds = %invoke.cont713
  %291 = load ptr, ptr %ref.tmp710, align 8, !tbaa !17
  %isnull.i1349 = icmp eq ptr %291, null
  br i1 %isnull.i1349, label %_ZN11CStringBaseIwED2Ev.exit1351, label %delete.notnull.i1350

delete.notnull.i1350:                             ; preds = %invoke.cont715
  call void @_ZdaPv(ptr noundef nonnull %291) #17
  br label %_ZN11CStringBaseIwED2Ev.exit1351

_ZN11CStringBaseIwED2Ev.exit1351:                 ; preds = %invoke.cont715, %delete.notnull.i1350
  call void @llvm.lifetime.end.p0(i64 16, ptr nonnull %ref.tmp710) #16
  %call720 = invoke noundef nonnull align 8 dereferenceable(16) ptr @_ZN11CStringBaseIwEpLEPKw(ptr noundef nonnull align 8 dereferenceable(16) %message, ptr noundef nonnull @.str.23)
          to label %if.end721 unwind label %lpad680

lpad712:                                          ; preds = %if.then709
  %292 = landingpad { ptr, i32 }
          cleanup
  br label %ehcleanup718

lpad714:                                          ; preds = %invoke.cont713
  %293 = landingpad { ptr, i32 }
          cleanup
  %294 = load ptr, ptr %ref.tmp710, align 8, !tbaa !17
  %isnull.i1352 = icmp eq ptr %294, null
  br i1 %isnull.i1352, label %ehcleanup718, label %delete.notnull.i1353

delete.notnull.i1353:                             ; preds = %lpad714
  call void @_ZdaPv(ptr noundef nonnull %294) #17
  br label %ehcleanup718

ehcleanup718:                                     ; preds = %delete.notnull.i1353, %lpad714, %lpad712
  %.pn1443 = phi { ptr, i32 } [ %292, %lpad712 ], [ %293, %lpad714 ], [ %293, %delete.notnull.i1353 ]
  call void @llvm.lifetime.end.p0(i64 16, ptr nonnull %ref.tmp710) #16
  br label %ehcleanup736

if.end721:                                        ; preds = %_ZN11CStringBaseIwED2Ev.exit1351, %if.end707
  %295 = load i32, ptr %284, align 8, !tbaa !49
  %cmp.i1356 = icmp eq i32 %295, 0
  br i1 %cmp.i1356, label %if.end731, label %if.then724

if.then724:                                       ; preds = %if.end721
  %call726 = invoke noundef nonnull align 8 dereferenceable(16) ptr @_ZN13CStdOutStreamlsEPKw(ptr noundef nonnull align 8 dereferenceable(16) %g_StdErr.g_StdOut, ptr noundef nonnull @.str.24)
          to label %invoke.cont725 unwind label %lpad680

invoke.cont725:                                   ; preds = %if.then724
  %296 = load ptr, ptr %message, align 8, !tbaa !17
  %call730 = invoke noundef nonnull align 8 dereferenceable(16) ptr @_ZN13CStdOutStreamlsEPKw(ptr noundef nonnull align 8 dereferenceable(16) %call726, ptr noundef %296)
          to label %if.end731 unwind label %lpad680

if.end731:                                        ; preds = %invoke.cont725, %if.end721
  %exception732 = call ptr @__cxa_allocate_exception(i64 4) #16
  store i32 %call572, ptr %exception732, align 4, !tbaa !42
  invoke void @__cxa_throw(ptr nonnull %exception732, ptr nonnull @_ZTI16CSystemException, ptr null) #19
          to label %unreachable unwind label %lpad680

ehcleanup736:                                     ; preds = %ehcleanup718, %lpad680
  %.pn1444 = phi { ptr, i32 } [ %287, %lpad680 ], [ %.pn1443, %ehcleanup718 ]
  %297 = load ptr, ptr %message, align 8, !tbaa !17
  %isnull.i1357 = icmp eq ptr %297, null
  br i1 %isnull.i1357, label %ehcleanup737, label %delete.notnull.i1358

delete.notnull.i1358:                             ; preds = %ehcleanup736
  call void @_ZdaPv(ptr noundef nonnull %297) #17
  br label %ehcleanup737

ehcleanup737:                                     ; preds = %delete.notnull.i1358, %ehcleanup736, %lpad678
  %.pn1444.pn = phi { ptr, i32 } [ %286, %lpad678 ], [ %.pn1444, %ehcleanup736 ], [ %.pn1444, %delete.notnull.i1358 ]
  call void @llvm.lifetime.end.p0(i64 16, ptr nonnull %message) #16
  br label %ehcleanup823

if.end738:                                        ; preds = %if.end675
  %_size.i1360 = getelementptr inbounds %class.CUpdateCallbackConsole, ptr %callback, i64 0, i32 11, i32 0, i32 0, i32 2
  %298 = load i32, ptr %_size.i1360, align 4, !tbaa !14
  %cmp743 = icmp eq i32 %298, 0
  br i1 %cmp743, label %if.then744, label %if.else755

if.then744:                                       ; preds = %if.end738
  %299 = load i32, ptr %_size.i1321, align 4, !tbaa !14
  %cmp748 = icmp eq i32 %299, 0
  br i1 %cmp748, label %if.then749, label %if.end815

if.then749:                                       ; preds = %if.then744
  %call751 = invoke noundef nonnull align 8 dereferenceable(16) ptr @_ZN13CStdOutStreamlsEPKc(ptr noundef nonnull align 8 dereferenceable(16) %g_StdErr.g_StdOut, ptr noundef nonnull @.str.39)
          to label %invoke.cont750 unwind label %lpad740

invoke.cont750:                                   ; preds = %if.then749
  %call753 = invoke noundef nonnull align 8 dereferenceable(16) ptr @_ZN13CStdOutStreamlsEPFRS_S0_E(ptr noundef nonnull align 8 dereferenceable(16) %call751, ptr noundef nonnull @_Z4endlR13CStdOutStream)
          to label %if.end815 unwind label %lpad740

lpad740:                                          ; preds = %if.end812, %if.then809, %invoke.cont804, %invoke.cont802, %invoke.cont800, %invoke.cont798, %for.cond.cleanup767, %invoke.cont760, %invoke.cont758, %invoke.cont756, %if.else755, %invoke.cont750, %if.then749
  %300 = landingpad { ptr, i32 }
          cleanup
  br label %ehcleanup823

if.else755:                                       ; preds = %if.end738
  %call757 = invoke noundef nonnull align 8 dereferenceable(16) ptr @_ZN13CStdOutStreamlsEPFRS_S0_E(ptr noundef nonnull align 8 dereferenceable(16) %g_StdErr.g_StdOut, ptr noundef nonnull @_Z4endlR13CStdOutStream)
          to label %invoke.cont756 unwind label %lpad740

invoke.cont756:                                   ; preds = %if.else755
  %call759 = invoke noundef nonnull align 8 dereferenceable(16) ptr @_ZN13CStdOutStreamlsEPKc(ptr noundef nonnull align 8 dereferenceable(16) %g_StdErr.g_StdOut, ptr noundef nonnull @.str.17)
          to label %invoke.cont758 unwind label %lpad740

invoke.cont758:                                   ; preds = %invoke.cont756
  %call761 = invoke noundef nonnull align 8 dereferenceable(16) ptr @_ZN13CStdOutStreamlsEPFRS_S0_E(ptr noundef nonnull align 8 dereferenceable(16) %call759, ptr noundef nonnull @_Z4endlR13CStdOutStream)
          to label %invoke.cont760 unwind label %lpad740

invoke.cont760:                                   ; preds = %invoke.cont758
  %call763 = invoke noundef nonnull align 8 dereferenceable(16) ptr @_ZN13CStdOutStreamlsEPFRS_S0_E(ptr noundef nonnull align 8 dereferenceable(16) %call761, ptr noundef nonnull @_Z4endlR13CStdOutStream)
          to label %for.cond765.preheader unwind label %lpad740

for.cond765.preheader:                            ; preds = %invoke.cont760
  %cmp7661514 = icmp sgt i32 %298, 0
  br i1 %cmp7661514, label %for.body768.lr.ph, label %for.cond.cleanup767

for.body768.lr.ph:                                ; preds = %for.cond765.preheader
  %_items.i.i1362 = getelementptr inbounds %class.CUpdateCallbackConsole, ptr %callback, i64 0, i32 11, i32 0, i32 0, i32 3
  %_items.i1365 = getelementptr inbounds %class.CUpdateCallbackConsole, ptr %callback, i64 0, i32 12, i32 0, i32 3
  %wide.trip.count1541 = zext i32 %298 to i64
  %301 = getelementptr inbounds i8, ptr %ref.tmp779, i64 8
  br label %for.body768

for.cond.cleanup767:                              ; preds = %_ZN11CStringBaseIwED2Ev.exit1380, %for.cond765.preheader
  %call799 = invoke noundef nonnull align 8 dereferenceable(16) ptr @_ZN13CStdOutStreamlsEPKc(ptr noundef nonnull align 8 dereferenceable(16) %g_StdErr.g_StdOut, ptr noundef nonnull @.str.19)
          to label %invoke.cont798 unwind label %lpad740

for.body768:                                      ; preds = %for.body768.lr.ph, %_ZN11CStringBaseIwED2Ev.exit1380
  %indvars.iv1538 = phi i64 [ 0, %for.body768.lr.ph ], [ %indvars.iv.next1539, %_ZN11CStringBaseIwED2Ev.exit1380 ]
  %302 = load ptr, ptr %_items.i.i1362, align 8, !tbaa !15
  %arrayidx.i.i1364 = getelementptr inbounds ptr, ptr %302, i64 %indvars.iv1538
  %303 = load ptr, ptr %arrayidx.i.i1364, align 8, !tbaa !16
  %304 = load ptr, ptr %303, align 8, !tbaa !17
  %call776 = invoke noundef nonnull align 8 dereferenceable(16) ptr @_ZN13CStdOutStreamlsEPKw(ptr noundef nonnull align 8 dereferenceable(16) %g_StdErr.g_StdOut, ptr noundef %304)
          to label %invoke.cont775 unwind label %lpad770

invoke.cont775:                                   ; preds = %for.body768
  %call778 = invoke noundef nonnull align 8 dereferenceable(16) ptr @_ZN13CStdOutStreamlsEPKc(ptr noundef nonnull align 8 dereferenceable(16) %call776, ptr noundef nonnull @.str.18)
          to label %invoke.cont777 unwind label %lpad770

invoke.cont777:                                   ; preds = %invoke.cont775
  call void @llvm.lifetime.start.p0(i64 16, ptr nonnull %ref.tmp779) #16
  %305 = load ptr, ptr %_items.i1365, align 8, !tbaa !15
  %arrayidx.i1367 = getelementptr inbounds i32, ptr %305, i64 %indvars.iv1538
  %306 = load i32, ptr %arrayidx.i1367, align 4, !tbaa !147
  call void @llvm.experimental.noalias.scope.decl(metadata !156)
  call void @llvm.experimental.noalias.scope.decl(metadata !159)
  store i64 17179869184, ptr %301, align 8
  %call.i.i.i.i1375 = invoke noalias noundef nonnull dereferenceable(16) ptr @_Znam(i64 noundef 16) #18
          to label %call.i.i.i.i.noexc1374 unwind label %lpad780

call.i.i.i.i.noexc1374:                           ; preds = %invoke.cont777
  store ptr %call.i.i.i.i1375, ptr %ref.tmp779, align 8, !tbaa !17, !alias.scope !162
  store i32 0, ptr %call.i.i.i.i1375, align 4, !tbaa !52, !noalias !162
  %call.i.i1369 = invoke noundef zeroext i1 @_ZN8NWindows6NError15MyFormatMessageEjR11CStringBaseIwE(i32 noundef %306, ptr noundef nonnull align 8 dereferenceable(16) %ref.tmp779)
          to label %invoke.cont783 unwind label %lpad.i.i1371

lpad.i.i1371:                                     ; preds = %call.i.i.i.i.noexc1374
  %307 = landingpad { ptr, i32 }
          cleanup
  %308 = load ptr, ptr %ref.tmp779, align 8, !tbaa !17, !alias.scope !162
  %isnull.i.i.i1370 = icmp eq ptr %308, null
  br i1 %isnull.i.i.i1370, label %ehcleanup792, label %delete.notnull.i.i.i1372

delete.notnull.i.i.i1372:                         ; preds = %lpad.i.i1371
  call void @_ZdaPv(ptr noundef nonnull %308) #17
  br label %ehcleanup792

invoke.cont783:                                   ; preds = %call.i.i.i.i.noexc1374
  %309 = load ptr, ptr %ref.tmp779, align 8, !tbaa !17
  %call788 = invoke noundef nonnull align 8 dereferenceable(16) ptr @_ZN13CStdOutStreamlsEPKw(ptr noundef nonnull align 8 dereferenceable(16) %g_StdErr.g_StdOut, ptr noundef %309)
          to label %invoke.cont787 unwind label %lpad784

invoke.cont787:                                   ; preds = %invoke.cont783
  %call790 = invoke noundef nonnull align 8 dereferenceable(16) ptr @_ZN13CStdOutStreamlsEPFRS_S0_E(ptr noundef nonnull align 8 dereferenceable(16) %call788, ptr noundef nonnull @_Z4endlR13CStdOutStream)
          to label %invoke.cont789 unwind label %lpad784

invoke.cont789:                                   ; preds = %invoke.cont787
  %310 = load ptr, ptr %ref.tmp779, align 8, !tbaa !17
  %isnull.i1378 = icmp eq ptr %310, null
  br i1 %isnull.i1378, label %_ZN11CStringBaseIwED2Ev.exit1380, label %delete.notnull.i1379

delete.notnull.i1379:                             ; preds = %invoke.cont789
  call void @_ZdaPv(ptr noundef nonnull %310) #17
  br label %_ZN11CStringBaseIwED2Ev.exit1380

_ZN11CStringBaseIwED2Ev.exit1380:                 ; preds = %invoke.cont789, %delete.notnull.i1379
  call void @llvm.lifetime.end.p0(i64 16, ptr nonnull %ref.tmp779) #16
  %indvars.iv.next1539 = add nuw nsw i64 %indvars.iv1538, 1
  %exitcond1542.not = icmp eq i64 %indvars.iv.next1539, %wide.trip.count1541
  br i1 %exitcond1542.not, label %for.cond.cleanup767, label %for.body768, !llvm.loop !163

lpad770:                                          ; preds = %invoke.cont775, %for.body768
  %311 = landingpad { ptr, i32 }
          cleanup
  br label %ehcleanup823

lpad780:                                          ; preds = %invoke.cont777
  %312 = landingpad { ptr, i32 }
          cleanup
  br label %ehcleanup792

lpad784:                                          ; preds = %invoke.cont787, %invoke.cont783
  %313 = landingpad { ptr, i32 }
          cleanup
  %314 = load ptr, ptr %ref.tmp779, align 8, !tbaa !17
  %isnull.i1381 = icmp eq ptr %314, null
  br i1 %isnull.i1381, label %ehcleanup792, label %delete.notnull.i1382

delete.notnull.i1382:                             ; preds = %lpad784
  call void @_ZdaPv(ptr noundef nonnull %314) #17
  br label %ehcleanup792

ehcleanup792:                                     ; preds = %delete.notnull.i1382, %lpad784, %lpad780, %delete.notnull.i.i.i1372, %lpad.i.i1371
  %.pn = phi { ptr, i32 } [ %312, %lpad780 ], [ %307, %delete.notnull.i.i.i1372 ], [ %307, %lpad.i.i1371 ], [ %313, %lpad784 ], [ %313, %delete.notnull.i1382 ]
  call void @llvm.lifetime.end.p0(i64 16, ptr nonnull %ref.tmp779) #16
  br label %ehcleanup823

invoke.cont798:                                   ; preds = %for.cond.cleanup767
  %call801 = invoke noundef nonnull align 8 dereferenceable(16) ptr @_ZN13CStdOutStreamlsEPFRS_S0_E(ptr noundef nonnull align 8 dereferenceable(16) %call799, ptr noundef nonnull @_Z4endlR13CStdOutStream)
          to label %invoke.cont800 unwind label %lpad740

invoke.cont800:                                   ; preds = %invoke.cont798
  %call803 = invoke noundef nonnull align 8 dereferenceable(16) ptr @_ZN13CStdOutStreamlsEPKc(ptr noundef nonnull align 8 dereferenceable(16) %g_StdErr.g_StdOut, ptr noundef nonnull @.str.25)
          to label %invoke.cont802 unwind label %lpad740

invoke.cont802:                                   ; preds = %invoke.cont800
  %call805 = invoke noundef nonnull align 8 dereferenceable(16) ptr @_ZN13CStdOutStreamlsEi(ptr noundef nonnull align 8 dereferenceable(16) %call803, i32 noundef %298)
          to label %invoke.cont804 unwind label %lpad740

invoke.cont804:                                   ; preds = %invoke.cont802
  %call807 = invoke noundef nonnull align 8 dereferenceable(16) ptr @_ZN13CStdOutStreamlsEPKc(ptr noundef nonnull align 8 dereferenceable(16) %call805, ptr noundef nonnull @.str.21)
          to label %invoke.cont806 unwind label %lpad740

invoke.cont806:                                   ; preds = %invoke.cont804
  %cmp808 = icmp sgt i32 %298, 1
  br i1 %cmp808, label %if.then809, label %if.end812

if.then809:                                       ; preds = %invoke.cont806
  %call811 = invoke noundef nonnull align 8 dereferenceable(16) ptr @_ZN13CStdOutStreamlsEPKc(ptr noundef nonnull align 8 dereferenceable(16) %g_StdErr.g_StdOut, ptr noundef nonnull @.str.22)
          to label %if.end812 unwind label %lpad740

if.end812:                                        ; preds = %if.then809, %invoke.cont806
  %call814 = invoke noundef nonnull align 8 dereferenceable(16) ptr @_ZN13CStdOutStreamlsEPFRS_S0_E(ptr noundef nonnull align 8 dereferenceable(16) %g_StdErr.g_StdOut, ptr noundef nonnull @_Z4endlR13CStdOutStream)
          to label %if.end815 unwind label %lpad740

if.end815:                                        ; preds = %if.end812, %if.then744, %invoke.cont750
  %exitCode.1 = phi i32 [ %exitCode.0, %invoke.cont750 ], [ %exitCode.0, %if.then744 ], [ 1, %if.end812 ]
  %315 = load ptr, ptr %Message.i.i, align 8, !tbaa !17
  %isnull.i.i1593 = icmp eq ptr %315, null
  br i1 %isnull.i.i1593, label %_ZN11CStringBaseIwED2Ev.exit.i1595, label %delete.notnull.i.i1594

delete.notnull.i.i1594:                           ; preds = %if.end815
  call void @_ZdaPv(ptr noundef nonnull %315) #17
  br label %_ZN11CStringBaseIwED2Ev.exit.i1595

_ZN11CStringBaseIwED2Ev.exit.i1595:               ; preds = %delete.notnull.i.i1594, %if.end815
  %316 = load ptr, ptr %FileName2.i.i, align 8, !tbaa !17
  %isnull.i2.i = icmp eq ptr %316, null
  br i1 %isnull.i2.i, label %_ZN11CStringBaseIwED2Ev.exit4.i, label %delete.notnull.i3.i

delete.notnull.i3.i:                              ; preds = %_ZN11CStringBaseIwED2Ev.exit.i1595
  call void @_ZdaPv(ptr noundef nonnull %316) #17
  br label %_ZN11CStringBaseIwED2Ev.exit4.i

_ZN11CStringBaseIwED2Ev.exit4.i:                  ; preds = %delete.notnull.i3.i, %_ZN11CStringBaseIwED2Ev.exit.i1595
  %317 = load ptr, ptr %FileName.i.i, align 8, !tbaa !17
  %isnull.i5.i = icmp eq ptr %317, null
  br i1 %isnull.i5.i, label %_ZN10CErrorInfoD2Ev.exit, label %delete.notnull.i6.i

delete.notnull.i6.i:                              ; preds = %_ZN11CStringBaseIwED2Ev.exit4.i
  call void @_ZdaPv(ptr noundef nonnull %317) #17
  br label %_ZN10CErrorInfoD2Ev.exit

_ZN10CErrorInfoD2Ev.exit:                         ; preds = %_ZN11CStringBaseIwED2Ev.exit4.i, %delete.notnull.i6.i
  call void @llvm.lifetime.end.p0(i64 56, ptr nonnull %errorInfo) #16
  call void @_ZN22CUpdateCallbackConsoleD2Ev(ptr noundef nonnull align 8 dereferenceable(232) %callback) #16
  call void @llvm.lifetime.end.p0(i64 232, ptr nonnull %callback) #16
  store ptr getelementptr inbounds ({ [9 x ptr] }, ptr @_ZTV20COpenCallbackConsole, i64 0, inrange i32 0, i64 2), ptr %openCallback516, align 8, !tbaa !12
  %318 = load ptr, ptr %Password.i1293, align 8, !tbaa !17
  %isnull.i.i1385 = icmp eq ptr %318, null
  br i1 %isnull.i.i1385, label %_ZN20COpenCallbackConsoleD2Ev.exit1388, label %delete.notnull.i.i1386

delete.notnull.i.i1386:                           ; preds = %_ZN10CErrorInfoD2Ev.exit
  call void @_ZdaPv(ptr noundef nonnull %318) #17
  br label %_ZN20COpenCallbackConsoleD2Ev.exit1388

_ZN20COpenCallbackConsoleD2Ev.exit1388:           ; preds = %_ZN10CErrorInfoD2Ev.exit, %delete.notnull.i.i1386
  call void @llvm.lifetime.end.p0(i64 40, ptr nonnull %openCallback516) #16
  br label %cleanup844

ehcleanup823:                                     ; preds = %lpad570, %ehcleanup596, %lpad740, %ehcleanup792, %lpad770, %lpad620, %ehcleanup651, %lpad629, %ehcleanup737, %lpad605, %lpad562
  %.pn1453.pn.pn = phi { ptr, i32 } [ %250, %lpad562 ], [ %.pn1453, %ehcleanup596 ], [ %255, %lpad570 ], [ %.pn1444.pn, %ehcleanup737 ], [ %269, %lpad605 ], [ %270, %lpad620 ], [ %.pn1448, %ehcleanup651 ], [ %280, %lpad629 ], [ %300, %lpad740 ], [ %.pn, %ehcleanup792 ], [ %311, %lpad770 ]
  call void @_ZN10CErrorInfoD2Ev(ptr noundef nonnull align 8 dereferenceable(56) %errorInfo) #16
  br label %ehcleanup825

ehcleanup825:                                     ; preds = %lpad560, %delete.notnull.i13.i.i, %ehcleanup.i.i, %ehcleanup823
  %.pn1453.pn.pn.pn = phi { ptr, i32 } [ %.pn1453.pn.pn, %ehcleanup823 ], [ %249, %lpad560 ], [ %243, %ehcleanup.i.i ], [ %.pn18.i.i, %delete.notnull.i13.i.i ]
  call void @llvm.lifetime.end.p0(i64 56, ptr nonnull %errorInfo) #16
  br label %ehcleanup831

ehcleanup831:                                     ; preds = %lpad546, %ehcleanup825
  %.pn1453.pn.pn.pn.pn = phi { ptr, i32 } [ %.pn1453.pn.pn.pn, %ehcleanup825 ], [ %248, %lpad546 ]
  call void @_ZN22CUpdateCallbackConsoleD2Ev(ptr noundef nonnull align 8 dereferenceable(232) %callback) #16
  %.pre1605.pre = load ptr, ptr %Password.i1293, align 8, !tbaa !17
  call void @llvm.lifetime.end.p0(i64 232, ptr nonnull %callback) #16
  store ptr getelementptr inbounds ({ [9 x ptr] }, ptr @_ZTV20COpenCallbackConsole, i64 0, inrange i32 0, i64 2), ptr %openCallback516, align 8, !tbaa !12
  %isnull.i.i1390 = icmp eq ptr %.pre1605.pre, null
  br i1 %isnull.i.i1390, label %ehcleanup835, label %delete.notnull.i.i1391

delete.notnull.i.i1391:                           ; preds = %ehcleanup831.thread1611, %ehcleanup831.thread, %ehcleanup831
  %.pn1453.pn.pn.pn.pn.pn.pn1610 = phi { ptr, i32 } [ %246, %ehcleanup831.thread ], [ %.pn1453.pn.pn.pn.pn, %ehcleanup831 ], [ %247, %ehcleanup831.thread1611 ]
  %319 = phi ptr [ %call.i.i.i1296, %ehcleanup831.thread ], [ %.pre1605.pre, %ehcleanup831 ], [ %226, %ehcleanup831.thread1611 ]
  call void @_ZdaPv(ptr noundef nonnull %319) #17
  br label %ehcleanup835

ehcleanup835:                                     ; preds = %delete.notnull.i.i1391, %ehcleanup831, %lpad517
  %.pn1453.pn.pn.pn.pn.pn.pn.pn = phi { ptr, i32 } [ %245, %lpad517 ], [ %.pn1453.pn.pn.pn.pn, %ehcleanup831 ], [ %.pn1453.pn.pn.pn.pn.pn.pn1610, %delete.notnull.i.i1391 ]
  call void @llvm.lifetime.end.p0(i64 40, ptr nonnull %openCallback516) #16
  br label %ehcleanup845

if.else838:                                       ; preds = %invoke.cont503
  invoke fastcc void @_ZL16PrintHelpAndExitR13CStdOutStream(ptr noundef nonnull align 8 dereferenceable(16) %g_StdErr.g_StdOut)
          to label %if.end843.unreachable unwind label %lpad57

if.end843.unreachable:                            ; preds = %if.else838
  unreachable

if.end843:                                        ; preds = %invoke.cont219, %invoke.cont196, %cleanup494.thread, %_ZN9CMyComPtrI29IFolderArchiveExtractCallbackED2Ev.exit
  br label %cleanup844

cleanup844:                                       ; preds = %cleanup494, %if.then224, %if.then201, %invoke.cont179, %_ZN9CMyComPtrI29IFolderArchiveExtractCallbackED2Ev.exit, %if.end843, %_ZN20COpenCallbackConsoleD2Ev.exit1388
  %retval.4 = phi i32 [ 0, %if.end843 ], [ 2, %_ZN9CMyComPtrI29IFolderArchiveExtractCallbackED2Ev.exit ], [ 2, %cleanup494 ], [ %exitCode.1, %_ZN20COpenCallbackConsoleD2Ev.exit1388 ], [ 0, %invoke.cont179 ], [ 2, %if.then201 ], [ 2, %if.then224 ]
  call void @_ZN17CBaseRecordVectorD2Ev(ptr noundef nonnull align 8 dereferenceable(32) %formatIndices) #16
  call void @llvm.lifetime.end.p0(i64 32, ptr nonnull %formatIndices) #16
  %vtable.i1395 = load ptr, ptr %call26, align 8, !tbaa !12
  %vfn.i1396 = getelementptr inbounds ptr, ptr %vtable.i1395, i64 2
  %320 = load ptr, ptr %vfn.i1396, align 8
  %call.i1397 = invoke noundef i32 %320(ptr noundef nonnull align 8 dereferenceable(8) %call26)
          to label %cleanup860 unwind label %terminate.lpad.i1399

terminate.lpad.i1399:                             ; preds = %cleanup844
  %321 = landingpad { ptr, i32 }
          catch ptr null
  %322 = extractvalue { ptr, i32 } %321, 0
  call void @__clang_call_terminate(ptr %322) #20
  unreachable

ehcleanup845:                                     ; preds = %lpad79.loopexit, %lpad79.loopexit.split-lp, %lpad508, %ehcleanup835, %lpad247, %lpad250, %if.then.i1285, %lpad253, %lpad74, %lpad98, %ehcleanup171, %delete.notnull.i1240, %lpad467, %lpad213, %lpad193, %lpad57
  %.pn1477.pn.pn.pn.pn = phi { ptr, i32 } [ %19, %lpad57 ], [ %149, %lpad193 ], [ %150, %lpad213 ], [ %214, %lpad467 ], [ %28, %lpad74 ], [ %29, %lpad98 ], [ %.pn1477, %ehcleanup171 ], [ %.pn1477, %delete.notnull.i1240 ], [ %169, %lpad250 ], [ %168, %lpad247 ], [ %170, %lpad253 ], [ %.pn1463.pn.pn.pn.pn.pn.pn, %if.then.i1285 ], [ %.pn1453.pn.pn.pn.pn.pn.pn.pn, %ehcleanup835 ], [ %217, %lpad508 ], [ %lpad.loopexit1491, %lpad79.loopexit ], [ %lpad.loopexit.split-lp1492, %lpad79.loopexit.split-lp ]
  call void @_ZN17CBaseRecordVectorD2Ev(ptr noundef nonnull align 8 dereferenceable(32) %formatIndices) #16
  call void @llvm.lifetime.end.p0(i64 32, ptr nonnull %formatIndices) #16
  br label %if.then.i1404

if.then.i1404:                                    ; preds = %lpad31, %ehcleanup845, %lpad39
  %.pn1479 = phi { ptr, i32 } [ %15, %lpad31 ], [ %18, %lpad39 ], [ %.pn1477.pn.pn.pn.pn, %ehcleanup845 ]
  %vtable.i1401 = load ptr, ptr %call26, align 8, !tbaa !12
  %vfn.i1402 = getelementptr inbounds ptr, ptr %vtable.i1401, i64 2
  %323 = load ptr, ptr %vfn.i1402, align 8
  %call.i1403 = invoke noundef i32 %323(ptr noundef nonnull align 8 dereferenceable(8) %call26)
          to label %ehcleanup861 unwind label %terminate.lpad.i1405

terminate.lpad.i1405:                             ; preds = %if.then.i1404
  %324 = landingpad { ptr, i32 }
          catch ptr null
  %325 = extractvalue { ptr, i32 } %324, 0
  call void @__clang_call_terminate(ptr %325) #20
  unreachable

cleanup860:                                       ; preds = %cleanup844, %if.then10
  %retval.5 = phi i32 [ 0, %if.then10 ], [ %retval.4, %cleanup844 ]
  call void @_ZN18NCommandLineParser7CParserD1Ev(ptr noundef nonnull align 8 dereferenceable(48) %parser) #16
  call void @llvm.lifetime.end.p0(i64 48, ptr nonnull %parser) #16
  call void @_ZN26CArchiveCommandLineOptionsD2Ev(ptr noundef nonnull align 8 dereferenceable(592) %options) #16
  call void @llvm.lifetime.end.p0(i64 592, ptr nonnull %options) #16
  br label %cleanup868

ehcleanup861:                                     ; preds = %if.then.i1404, %lpad20, %lpad24, %lpad8
  %.pn1516 = phi { ptr, i32 } [ %8, %lpad8 ], [ %12, %lpad20 ], [ %14, %lpad24 ], [ %.pn1479, %if.then.i1404 ]
  call void @_ZN18NCommandLineParser7CParserD1Ev(ptr noundef nonnull align 8 dereferenceable(48) %parser) #16
  br label %ehcleanup863

ehcleanup863:                                     ; preds = %ehcleanup861, %lpad6
  %.pn1516.pn = phi { ptr, i32 } [ %.pn1516, %ehcleanup861 ], [ %7, %lpad6 ]
  call void @llvm.lifetime.end.p0(i64 48, ptr nonnull %parser) #16
  call void @_ZN26CArchiveCommandLineOptionsD2Ev(ptr noundef nonnull align 8 dereferenceable(592) %options) #16
  br label %ehcleanup867

ehcleanup867:                                     ; preds = %ehcleanup863, %lpad4
  %.pn1516.pn.pn = phi { ptr, i32 } [ %.pn1516.pn, %ehcleanup863 ], [ %6, %lpad4 ]
  call void @llvm.lifetime.end.p0(i64 592, ptr nonnull %options) #16
  br label %ehcleanup869

cleanup868:                                       ; preds = %if.then, %cleanup860
  %retval.6 = phi i32 [ %retval.5, %cleanup860 ], [ 0, %if.then ]
  store ptr getelementptr inbounds ({ [5 x ptr] }, ptr @_ZTV13CObjectVectorI11CStringBaseIwEE, i64 0, inrange i32 0, i64 2), ptr %commandStrings, align 8, !tbaa !12
  invoke void @_ZN17CBaseRecordVector5ClearEv(ptr noundef nonnull align 8 dereferenceable(32) %commandStrings)
          to label %_ZN13CObjectVectorI11CStringBaseIwEED2Ev.exit unwind label %terminate.lpad.i1407

terminate.lpad.i1407:                             ; preds = %cleanup868
  %326 = landingpad { ptr, i32 }
          catch ptr null
  %327 = extractvalue { ptr, i32 } %326, 0
  call void @__clang_call_terminate(ptr %327) #20
  unreachable

_ZN13CObjectVectorI11CStringBaseIwEED2Ev.exit:    ; preds = %cleanup868
  call void @_ZN17CBaseRecordVectorD2Ev(ptr noundef nonnull align 8 dereferenceable(32) %commandStrings) #16
  call void @llvm.lifetime.end.p0(i64 32, ptr nonnull %commandStrings) #16
  ret i32 %retval.6

ehcleanup869:                                     ; preds = %ehcleanup867, %lpad
  %.pn1517 = phi { ptr, i32 } [ %1, %lpad ], [ %.pn1516.pn.pn, %ehcleanup867 ]
  call void @_ZN13CObjectVectorI11CStringBaseIwEED2Ev(ptr noundef nonnull align 8 dereferenceable(32) %commandStrings) #16
  call void @llvm.lifetime.end.p0(i64 32, ptr nonnull %commandStrings) #16
  resume { ptr, i32 } %.pn1517

unreachable:                                      ; preds = %if.end731, %if.then565, %if.then488, %if.end227, %if.end204, %if.then60, %if.then52, %if.then35
  unreachable
}

; Function Attrs: mustprogress nocallback nofree nosync nounwind willreturn memory(argmem: readwrite)
declare void @llvm.lifetime.start.p0(i64 immarg, ptr nocapture) #1

declare void @_Z18mySplitCommandLineiPPKcR13CObjectVectorI11CStringBaseIwEE(i32 noundef, ptr noundef, ptr noundef nonnull align 8 dereferenceable(32)) local_unnamed_addr #2

declare i32 @__gxx_personality_v0(...)

; Function Attrs: mustprogress uwtable
define internal fastcc void @_ZL20ShowCopyrightAndHelpR13CStdOutStreamb(ptr noundef nonnull align 8 dereferenceable(16) %s, i1 noundef zeroext %needHelp) unnamed_addr #3 {
entry:
  %call = tail call noundef nonnull align 8 dereferenceable(16) ptr @_ZN13CStdOutStreamlsEPKc(ptr noundef nonnull align 8 dereferenceable(16) %s, ptr noundef nonnull @.str.34)
  %call1 = tail call noundef nonnull align 8 dereferenceable(16) ptr @_ZN13CStdOutStreamlsEPKc(ptr noundef nonnull align 8 dereferenceable(16) %call, ptr noundef nonnull @.str.26)
  %call2 = tail call noundef ptr @_Z12my_getlocalev()
  %call3 = tail call noundef nonnull align 8 dereferenceable(16) ptr @_ZN13CStdOutStreamlsEPKc(ptr noundef nonnull align 8 dereferenceable(16) %call1, ptr noundef %call2)
  %call4 = tail call noundef nonnull align 8 dereferenceable(16) ptr @_ZN13CStdOutStreamlsEPKc(ptr noundef nonnull align 8 dereferenceable(16) %call3, ptr noundef nonnull @.str.27)
  %0 = load i32, ptr @global_use_utf16_conversion, align 4, !tbaa !147
  %tobool.not = icmp eq i32 %0, 0
  %.str.29..str.28 = select i1 %tobool.not, ptr @.str.29, ptr @.str.28
  %call6 = tail call noundef nonnull align 8 dereferenceable(16) ptr @_ZN13CStdOutStreamlsEPKc(ptr noundef nonnull align 8 dereferenceable(16) %s, ptr noundef nonnull %.str.29..str.28)
  %call7 = tail call noundef nonnull align 8 dereferenceable(16) ptr @_ZN13CStdOutStreamlsEPKc(ptr noundef nonnull align 8 dereferenceable(16) %s, ptr noundef nonnull @.str.30)
  %call8 = tail call noundef nonnull align 8 dereferenceable(16) ptr @_ZN13CStdOutStreamlsEPKc(ptr noundef nonnull align 8 dereferenceable(16) %s, ptr noundef nonnull @.str.31)
  %call9 = tail call noundef i32 @_ZN8NWindows7NSystem21GetNumberOfProcessorsEv()
  %cmp = icmp sgt i32 %call9, 1
  %.str.33.sink = select i1 %cmp, ptr @.str.32, ptr @.str.33
  %call14 = tail call noundef nonnull align 8 dereferenceable(16) ptr @_ZN13CStdOutStreamlsEi(ptr noundef nonnull align 8 dereferenceable(16) %s, i32 noundef %call9)
  %call15 = tail call noundef nonnull align 8 dereferenceable(16) ptr @_ZN13CStdOutStreamlsEPKc(ptr noundef nonnull align 8 dereferenceable(16) %call14, ptr noundef nonnull %.str.33.sink)
  br i1 %needHelp, label %if.then18, label %if.end20

if.then18:                                        ; preds = %entry
  %call19 = tail call noundef nonnull align 8 dereferenceable(16) ptr @_ZN13CStdOutStreamlsEPKc(ptr noundef nonnull align 8 dereferenceable(16) %s, ptr noundef nonnull @.str.35)
  br label %if.end20

if.end20:                                         ; preds = %if.then18, %entry
  ret void
}

; Function Attrs: uwtable
define linkonce_odr dso_local void @_ZN13CObjectVectorI11CStringBaseIwEE6DeleteEii(ptr noundef nonnull align 8 dereferenceable(32) %this, i32 noundef %index, i32 noundef %num) unnamed_addr #0 comdat align 2 {
entry:
  %add.i = add nsw i32 %num, %index
  %_size.i = getelementptr inbounds %class.CBaseRecordVector, ptr %this, i64 0, i32 2
  %0 = load i32, ptr %_size.i, align 4, !tbaa !14
  %cmp.i = icmp sgt i32 %add.i, %0
  %sub.i = sub nsw i32 %0, %index
  %spec.select = select i1 %cmp.i, i32 %sub.i, i32 %num
  %cmp8 = icmp sgt i32 %spec.select, 0
  br i1 %cmp8, label %for.body.lr.ph, label %for.cond.cleanup

for.body.lr.ph:                                   ; preds = %entry
  %_items = getelementptr inbounds %class.CBaseRecordVector, ptr %this, i64 0, i32 3
  %1 = sext i32 %index to i64
  %2 = zext i32 %spec.select to i64
  br label %for.body

for.cond.cleanup:                                 ; preds = %for.inc, %entry
  tail call void @_ZN17CBaseRecordVector6DeleteEii(ptr noundef nonnull align 8 dereferenceable(32) %this, i32 noundef %index, i32 noundef %spec.select)
  ret void

for.body:                                         ; preds = %for.body.lr.ph, %for.inc
  %indvars.iv = phi i64 [ 0, %for.body.lr.ph ], [ %indvars.iv.next, %for.inc ]
  %3 = load ptr, ptr %_items, align 8, !tbaa !15
  %4 = add nsw i64 %indvars.iv, %1
  %arrayidx = getelementptr inbounds ptr, ptr %3, i64 %4
  %5 = load ptr, ptr %arrayidx, align 8, !tbaa !16
  %isnull = icmp eq ptr %5, null
  br i1 %isnull, label %for.inc, label %delete.notnull

delete.notnull:                                   ; preds = %for.body
  %6 = load ptr, ptr %5, align 8, !tbaa !17
  %isnull.i = icmp eq ptr %6, null
  br i1 %isnull.i, label %_ZN11CStringBaseIwED2Ev.exit, label %delete.notnull.i

delete.notnull.i:                                 ; preds = %delete.notnull
  tail call void @_ZdaPv(ptr noundef nonnull %6) #17
  br label %_ZN11CStringBaseIwED2Ev.exit

_ZN11CStringBaseIwED2Ev.exit:                     ; preds = %delete.notnull, %delete.notnull.i
  tail call void @_ZdlPv(ptr noundef nonnull %5) #17
  br label %for.inc

for.inc:                                          ; preds = %for.body, %_ZN11CStringBaseIwED2Ev.exit
  %indvars.iv.next = add nuw nsw i64 %indvars.iv, 1
  %cmp = icmp ult i64 %indvars.iv.next, %2
  br i1 %cmp, label %for.body, label %for.cond.cleanup, !llvm.loop !164
}

; Function Attrs: uwtable
define linkonce_odr dso_local void @_ZN26CArchiveCommandLineOptionsC2Ev(ptr noundef nonnull align 8 dereferenceable(592) %this) unnamed_addr #0 comdat align 2 personality ptr @__gxx_personality_v0 {
entry:
  %StdInMode = getelementptr inbounds %struct.CArchiveCommandLineOptions, ptr %this, i64 0, i32 5
  store i8 0, ptr %StdInMode, align 1, !tbaa !98
  %StdOutMode = getelementptr inbounds %struct.CArchiveCommandLineOptions, ptr %this, i64 0, i32 6
  store i8 0, ptr %StdOutMode, align 2, !tbaa !38
  %WildcardCensor = getelementptr inbounds %struct.CArchiveCommandLineOptions, ptr %this, i64 0, i32 10
  %_capacity.i.i.i.i = getelementptr inbounds %struct.CArchiveCommandLineOptions, ptr %this, i64 0, i32 10, i32 0, i32 0, i32 0, i32 1
  %_itemSize.i.i.i.i = getelementptr inbounds %struct.CArchiveCommandLineOptions, ptr %this, i64 0, i32 10, i32 0, i32 0, i32 0, i32 4
  tail call void @llvm.memset.p0.i64(ptr noundef nonnull align 8 dereferenceable(16) %_capacity.i.i.i.i, i8 0, i64 16, i1 false)
  store i64 8, ptr %_itemSize.i.i.i.i, align 8, !tbaa !5
  store ptr getelementptr inbounds ({ [5 x ptr] }, ptr @_ZTV13CObjectVectorIN9NWildcard5CPairEE, i64 0, inrange i32 0, i64 2), ptr %WildcardCensor, align 8, !tbaa !12
  %ArchiveName = getelementptr inbounds %struct.CArchiveCommandLineOptions, ptr %this, i64 0, i32 12
  tail call void @llvm.memset.p0.i64(ptr noundef nonnull align 8 dereferenceable(16) %ArchiveName, i8 0, i64 16, i1 false)
  %call.i.i26 = invoke noalias noundef nonnull dereferenceable(16) ptr @_Znam(i64 noundef 16) #18
          to label %_ZN11CStringBaseIwEC2Ev.exit unwind label %lpad

_ZN11CStringBaseIwEC2Ev.exit:                     ; preds = %entry
  %_capacity.i = getelementptr inbounds %struct.CArchiveCommandLineOptions, ptr %this, i64 0, i32 12, i32 2
  store ptr %call.i.i26, ptr %ArchiveName, align 8, !tbaa !17
  store i32 0, ptr %call.i.i26, align 4, !tbaa !52
  store i32 4, ptr %_capacity.i, align 4, !tbaa !82
  %Password = getelementptr inbounds %struct.CArchiveCommandLineOptions, ptr %this, i64 0, i32 14
  tail call void @llvm.memset.p0.i64(ptr noundef nonnull align 8 dereferenceable(16) %Password, i8 0, i64 16, i1 false)
  %call.i.i28 = invoke noalias noundef nonnull dereferenceable(16) ptr @_Znam(i64 noundef 16) #18
          to label %_ZN11CStringBaseIwEC2Ev.exit29 unwind label %lpad2

_ZN11CStringBaseIwEC2Ev.exit29:                   ; preds = %_ZN11CStringBaseIwEC2Ev.exit
  %_capacity.i27 = getelementptr inbounds %struct.CArchiveCommandLineOptions, ptr %this, i64 0, i32 14, i32 2
  store ptr %call.i.i28, ptr %Password, align 8, !tbaa !17
  store i32 0, ptr %call.i.i28, align 4, !tbaa !52
  store i32 4, ptr %_capacity.i27, align 4, !tbaa !82
  %OutputDir = getelementptr inbounds %struct.CArchiveCommandLineOptions, ptr %this, i64 0, i32 18
  tail call void @llvm.memset.p0.i64(ptr noundef nonnull align 8 dereferenceable(16) %OutputDir, i8 0, i64 16, i1 false)
  %call.i.i31 = invoke noalias noundef nonnull dereferenceable(16) ptr @_Znam(i64 noundef 16) #18
          to label %_ZN11CStringBaseIwEC2Ev.exit32 unwind label %lpad4

_ZN11CStringBaseIwEC2Ev.exit32:                   ; preds = %_ZN11CStringBaseIwEC2Ev.exit29
  %_capacity.i30 = getelementptr inbounds %struct.CArchiveCommandLineOptions, ptr %this, i64 0, i32 18, i32 2
  store ptr %call.i.i31, ptr %OutputDir, align 8, !tbaa !17
  store i32 0, ptr %call.i.i31, align 4, !tbaa !52
  store i32 4, ptr %_capacity.i30, align 4, !tbaa !82
  %ArchivePathsSorted = getelementptr inbounds %struct.CArchiveCommandLineOptions, ptr %this, i64 0, i32 20
  %_capacity.i.i.i = getelementptr inbounds %struct.CArchiveCommandLineOptions, ptr %this, i64 0, i32 20, i32 0, i32 0, i32 1
  %_itemSize.i.i.i = getelementptr inbounds %struct.CArchiveCommandLineOptions, ptr %this, i64 0, i32 20, i32 0, i32 0, i32 4
  tail call void @llvm.memset.p0.i64(ptr noundef nonnull align 8 dereferenceable(16) %_capacity.i.i.i, i8 0, i64 16, i1 false)
  store i64 8, ptr %_itemSize.i.i.i, align 8, !tbaa !5
  store ptr getelementptr inbounds ({ [5 x ptr] }, ptr @_ZTV13CObjectVectorI11CStringBaseIwEE, i64 0, inrange i32 0, i64 2), ptr %ArchivePathsSorted, align 8, !tbaa !12
  %ArchivePathsFullSorted = getelementptr inbounds %struct.CArchiveCommandLineOptions, ptr %this, i64 0, i32 21
  %_capacity.i.i.i33 = getelementptr inbounds %struct.CArchiveCommandLineOptions, ptr %this, i64 0, i32 21, i32 0, i32 0, i32 1
  %_itemSize.i.i.i34 = getelementptr inbounds %struct.CArchiveCommandLineOptions, ptr %this, i64 0, i32 21, i32 0, i32 0, i32 4
  tail call void @llvm.memset.p0.i64(ptr noundef nonnull align 8 dereferenceable(16) %_capacity.i.i.i33, i8 0, i64 16, i1 false)
  store i64 8, ptr %_itemSize.i.i.i34, align 8, !tbaa !5
  store ptr getelementptr inbounds ({ [5 x ptr] }, ptr @_ZTV13CObjectVectorI11CStringBaseIwEE, i64 0, inrange i32 0, i64 2), ptr %ArchivePathsFullSorted, align 8, !tbaa !12
  %ExtractProperties = getelementptr inbounds %struct.CArchiveCommandLineOptions, ptr %this, i64 0, i32 22
  %_capacity.i.i.i35 = getelementptr inbounds %struct.CArchiveCommandLineOptions, ptr %this, i64 0, i32 22, i32 0, i32 0, i32 1
  %_itemSize.i.i.i36 = getelementptr inbounds %struct.CArchiveCommandLineOptions, ptr %this, i64 0, i32 22, i32 0, i32 0, i32 4
  tail call void @llvm.memset.p0.i64(ptr noundef nonnull align 8 dereferenceable(16) %_capacity.i.i.i35, i8 0, i64 16, i1 false)
  store i64 8, ptr %_itemSize.i.i.i36, align 8, !tbaa !5
  store ptr getelementptr inbounds ({ [5 x ptr] }, ptr @_ZTV13CObjectVectorI9CPropertyE, i64 0, inrange i32 0, i64 2), ptr %ExtractProperties, align 8, !tbaa !12
  %UpdateOptions = getelementptr inbounds %struct.CArchiveCommandLineOptions, ptr %this, i64 0, i32 23
  invoke void @_ZN14CUpdateOptionsC2Ev(ptr noundef nonnull align 8 dereferenceable(320) %UpdateOptions)
          to label %invoke.cont13 unwind label %lpad12

invoke.cont13:                                    ; preds = %_ZN11CStringBaseIwEC2Ev.exit32
  %ArcType = getelementptr inbounds %struct.CArchiveCommandLineOptions, ptr %this, i64 0, i32 24
  tail call void @llvm.memset.p0.i64(ptr noundef nonnull align 8 dereferenceable(16) %ArcType, i8 0, i64 16, i1 false)
  %call.i.i38 = invoke noalias noundef nonnull dereferenceable(16) ptr @_Znam(i64 noundef 16) #18
          to label %_ZN11CStringBaseIwEC2Ev.exit39 unwind label %lpad14

_ZN11CStringBaseIwEC2Ev.exit39:                   ; preds = %invoke.cont13
  %_capacity.i37 = getelementptr inbounds %struct.CArchiveCommandLineOptions, ptr %this, i64 0, i32 24, i32 2
  store ptr %call.i.i38, ptr %ArcType, align 8, !tbaa !17
  store i32 0, ptr %call.i.i38, align 4, !tbaa !52
  store i32 4, ptr %_capacity.i37, align 4, !tbaa !82
  %Method = getelementptr inbounds %struct.CArchiveCommandLineOptions, ptr %this, i64 0, i32 29
  tail call void @llvm.memset.p0.i64(ptr noundef nonnull align 8 dereferenceable(16) %Method, i8 0, i64 16, i1 false)
  %call.i.i41 = invoke noalias noundef nonnull dereferenceable(16) ptr @_Znam(i64 noundef 16) #18
          to label %_ZN11CStringBaseIwEC2Ev.exit42 unwind label %lpad16

_ZN11CStringBaseIwEC2Ev.exit42:                   ; preds = %_ZN11CStringBaseIwEC2Ev.exit39
  %_capacity.i40 = getelementptr inbounds %struct.CArchiveCommandLineOptions, ptr %this, i64 0, i32 29, i32 2
  store ptr %call.i.i41, ptr %Method, align 8, !tbaa !17
  store i32 0, ptr %call.i.i41, align 4, !tbaa !52
  store i32 4, ptr %_capacity.i40, align 4, !tbaa !82
  ret void

lpad:                                             ; preds = %entry
  %0 = landingpad { ptr, i32 }
          cleanup
  br label %ehcleanup24

lpad2:                                            ; preds = %_ZN11CStringBaseIwEC2Ev.exit
  %1 = landingpad { ptr, i32 }
          cleanup
  br label %ehcleanup23

lpad4:                                            ; preds = %_ZN11CStringBaseIwEC2Ev.exit29
  %2 = landingpad { ptr, i32 }
          cleanup
  br label %ehcleanup22

lpad12:                                           ; preds = %_ZN11CStringBaseIwEC2Ev.exit32
  %3 = landingpad { ptr, i32 }
          cleanup
  br label %ehcleanup18

lpad14:                                           ; preds = %invoke.cont13
  %4 = landingpad { ptr, i32 }
          cleanup
  br label %ehcleanup

lpad16:                                           ; preds = %_ZN11CStringBaseIwEC2Ev.exit39
  %5 = landingpad { ptr, i32 }
          cleanup
  tail call void @_ZdaPv(ptr noundef nonnull %call.i.i38) #17
  br label %ehcleanup

ehcleanup:                                        ; preds = %lpad16, %lpad14
  %.pn = phi { ptr, i32 } [ %5, %lpad16 ], [ %4, %lpad14 ]
  tail call void @_ZN14CUpdateOptionsD2Ev(ptr noundef nonnull align 8 dereferenceable(320) %UpdateOptions) #16
  br label %ehcleanup18

ehcleanup18:                                      ; preds = %ehcleanup, %lpad12
  %.pn.pn = phi { ptr, i32 } [ %.pn, %ehcleanup ], [ %3, %lpad12 ]
  tail call void @_ZN13CObjectVectorI9CPropertyED2Ev(ptr noundef nonnull align 8 dereferenceable(32) %ExtractProperties) #16
  tail call void @_ZN13CObjectVectorI11CStringBaseIwEED2Ev(ptr noundef nonnull align 8 dereferenceable(32) %ArchivePathsFullSorted) #16
  tail call void @_ZN13CObjectVectorI11CStringBaseIwEED2Ev(ptr noundef nonnull align 8 dereferenceable(32) %ArchivePathsSorted) #16
  %6 = load ptr, ptr %OutputDir, align 8, !tbaa !17
  %isnull.i43 = icmp eq ptr %6, null
  br i1 %isnull.i43, label %ehcleanup22, label %delete.notnull.i44

delete.notnull.i44:                               ; preds = %ehcleanup18
  tail call void @_ZdaPv(ptr noundef nonnull %6) #17
  br label %ehcleanup22

ehcleanup22:                                      ; preds = %delete.notnull.i44, %ehcleanup18, %lpad4
  %.pn.pn.pn = phi { ptr, i32 } [ %2, %lpad4 ], [ %.pn.pn, %ehcleanup18 ], [ %.pn.pn, %delete.notnull.i44 ]
  %7 = load ptr, ptr %Password, align 8, !tbaa !17
  %isnull.i46 = icmp eq ptr %7, null
  br i1 %isnull.i46, label %ehcleanup23, label %delete.notnull.i47

delete.notnull.i47:                               ; preds = %ehcleanup22
  tail call void @_ZdaPv(ptr noundef nonnull %7) #17
  br label %ehcleanup23

ehcleanup23:                                      ; preds = %delete.notnull.i47, %ehcleanup22, %lpad2
  %.pn.pn.pn.pn = phi { ptr, i32 } [ %1, %lpad2 ], [ %.pn.pn.pn, %ehcleanup22 ], [ %.pn.pn.pn, %delete.notnull.i47 ]
  %8 = load ptr, ptr %ArchiveName, align 8, !tbaa !17
  %isnull.i49 = icmp eq ptr %8, null
  br i1 %isnull.i49, label %ehcleanup24, label %delete.notnull.i50

delete.notnull.i50:                               ; preds = %ehcleanup23
  tail call void @_ZdaPv(ptr noundef nonnull %8) #17
  br label %ehcleanup24

ehcleanup24:                                      ; preds = %delete.notnull.i50, %ehcleanup23, %lpad
  %.pn.pn.pn.pn.pn = phi { ptr, i32 } [ %0, %lpad ], [ %.pn.pn.pn.pn, %ehcleanup23 ], [ %.pn.pn.pn.pn, %delete.notnull.i50 ]
  tail call void @_ZN9NWildcard7CCensorD2Ev(ptr noundef nonnull align 8 dereferenceable(32) %WildcardCensor) #16
  resume { ptr, i32 } %.pn.pn.pn.pn.pn
}

declare void @_ZN25CArchiveCommandLineParserC1Ev(ptr noundef nonnull align 8 dereferenceable(48)) unnamed_addr #2

declare void @_ZN25CArchiveCommandLineParser6Parse1ERK13CObjectVectorI11CStringBaseIwEER26CArchiveCommandLineOptions(ptr noundef nonnull align 8 dereferenceable(48), ptr noundef nonnull align 8 dereferenceable(32), ptr noundef nonnull align 8 dereferenceable(592)) local_unnamed_addr #2

declare void @SetLargePageSize() local_unnamed_addr #2

declare void @_ZN25CArchiveCommandLineParser6Parse2ER26CArchiveCommandLineOptions(ptr noundef nonnull align 8 dereferenceable(48), ptr noundef nonnull align 8 dereferenceable(592)) local_unnamed_addr #2

; Function Attrs: nobuiltin allocsize(0)
declare noundef nonnull ptr @_Znwm(i64 noundef) local_unnamed_addr #4

; Function Attrs: nobuiltin nounwind
declare void @_ZdlPv(ptr noundef) local_unnamed_addr #5

declare noundef i32 @_ZN7CCodecs4LoadEv(ptr noundef nonnull align 8 dereferenceable(48)) local_unnamed_addr #2

declare ptr @__cxa_allocate_exception(i64) local_unnamed_addr

declare void @__cxa_throw(ptr, ptr, ptr) local_unnamed_addr

declare noundef zeroext i1 @_ZNK15CArchiveCommand18IsFromExtractGroupEv(ptr noundef nonnull align 4 dereferenceable(4)) local_unnamed_addr #2

declare noundef zeroext i1 @_ZNK15CArchiveCommand17IsFromUpdateGroupEv(ptr noundef nonnull align 4 dereferenceable(4)) local_unnamed_addr #2

declare noundef zeroext i1 @_ZNK7CCodecs24FindFormatForArchiveTypeERK11CStringBaseIwER13CRecordVectorIiE(ptr noundef nonnull align 8 dereferenceable(48), ptr noundef nonnull align 8 dereferenceable(16), ptr noundef nonnull align 8 dereferenceable(32)) local_unnamed_addr #2

declare noundef nonnull align 8 dereferenceable(16) ptr @_ZN13CStdOutStreamlsEPFRS_S0_E(ptr noundef nonnull align 8 dereferenceable(16), ptr noundef) local_unnamed_addr #2

declare noundef nonnull align 8 dereferenceable(16) ptr @_Z4endlR13CStdOutStream(ptr noundef nonnull align 8 dereferenceable(16)) #2

declare noundef nonnull align 8 dereferenceable(16) ptr @_ZN13CStdOutStreamlsEPKc(ptr noundef nonnull align 8 dereferenceable(16), ptr noundef) local_unnamed_addr #2

declare noundef nonnull align 8 dereferenceable(16) ptr @_ZN13CStdOutStreamlsEc(ptr noundef nonnull align 8 dereferenceable(16), i8 noundef signext) local_unnamed_addr #2

; Function Attrs: mustprogress uwtable
define linkonce_odr dso_local noundef nonnull align 8 dereferenceable(16) ptr @_ZN11CStringBaseIwEpLERKS0_(ptr noundef nonnull align 8 dereferenceable(16) %this, ptr noundef nonnull align 8 dereferenceable(16) %s) local_unnamed_addr #3 comdat align 2 {
entry:
  %_length = getelementptr inbounds %class.CStringBase, ptr %s, i64 0, i32 1
  %0 = load i32, ptr %_length, align 8, !tbaa !49
  %_capacity.i = getelementptr inbounds %class.CStringBase, ptr %this, i64 0, i32 2
  %1 = load i32, ptr %_capacity.i, align 4, !tbaa !82
  %_length.i = getelementptr inbounds %class.CStringBase, ptr %this, i64 0, i32 1
  %2 = load i32, ptr %_length.i, align 8, !tbaa !49
  %3 = xor i32 %2, -1
  %sub2.i = add i32 %1, %3
  %cmp.not.i = icmp sgt i32 %0, %sub2.i
  br i1 %cmp.not.i, label %if.end.i, label %_ZN11CStringBaseIwE10GrowLengthEi.exit

if.end.i:                                         ; preds = %entry
  %cmp4.i = icmp sgt i32 %1, 64
  %div24.i = lshr i32 %1, 1
  %cmp8.i = icmp sgt i32 %1, 8
  %..i = select i1 %cmp8.i, i32 16, i32 4
  %delta.0.i = select i1 %cmp4.i, i32 %div24.i, i32 %..i
  %add.i = add nsw i32 %delta.0.i, %sub2.i
  %cmp13.i = icmp slt i32 %add.i, %0
  %sub15.i = sub nsw i32 %0, %sub2.i
  %delta.1.i = select i1 %cmp13.i, i32 %sub15.i, i32 %delta.0.i
  %add18.i = add nsw i32 %delta.1.i, %1
  %add.i.i = add nsw i32 %add18.i, 1
  %cmp.i.i = icmp eq i32 %add.i.i, %1
  br i1 %cmp.i.i, label %_ZN11CStringBaseIwE10GrowLengthEi.exit, label %if.end.i.i

if.end.i.i:                                       ; preds = %if.end.i
  %conv.i.i = zext i32 %add.i.i to i64
  %4 = icmp slt i32 %add18.i, -1
  %5 = shl nuw nsw i64 %conv.i.i, 2
  %6 = select i1 %4, i64 -1, i64 %5
  %call.i.i = tail call noalias noundef nonnull ptr @_Znam(i64 noundef %6) #18
  %call.i.i9 = ptrtoint ptr %call.i.i to i64
  %cmp3.i.i = icmp sgt i32 %1, 0
  br i1 %cmp3.i.i, label %for.cond.preheader.i.i, label %if.end9.i.i

for.cond.preheader.i.i:                           ; preds = %if.end.i.i
  %cmp522.i.i = icmp sgt i32 %2, 0
  %7 = load ptr, ptr %this, align 8, !tbaa !17
  br i1 %cmp522.i.i, label %for.body.lr.ph.i.i, label %for.cond.cleanup.i.i

for.body.lr.ph.i.i:                               ; preds = %for.cond.preheader.i.i
  %8 = ptrtoint ptr %7 to i64
  %wide.trip.count.i.i = zext i32 %2 to i64
  %min.iters.check = icmp ult i32 %2, 8
  %9 = sub i64 %call.i.i9, %8
  %diff.check = icmp ult i64 %9, 32
  %or.cond = select i1 %min.iters.check, i1 true, i1 %diff.check
  br i1 %or.cond, label %for.body.i.i.preheader, label %vector.ph

vector.ph:                                        ; preds = %for.body.lr.ph.i.i
  %n.vec = and i64 %wide.trip.count.i.i, 4294967288
  br label %vector.body

vector.body:                                      ; preds = %vector.body, %vector.ph
  %index = phi i64 [ 0, %vector.ph ], [ %index.next, %vector.body ]
  %10 = getelementptr inbounds i32, ptr %7, i64 %index
  %wide.load = load <4 x i32>, ptr %10, align 4, !tbaa !52
  %11 = getelementptr inbounds i32, ptr %10, i64 4
  %wide.load10 = load <4 x i32>, ptr %11, align 4, !tbaa !52
  %12 = getelementptr inbounds i32, ptr %call.i.i, i64 %index
  store <4 x i32> %wide.load, ptr %12, align 4, !tbaa !52
  %13 = getelementptr inbounds i32, ptr %12, i64 4
  store <4 x i32> %wide.load10, ptr %13, align 4, !tbaa !52
  %index.next = add nuw i64 %index, 8
  %14 = icmp eq i64 %index.next, %n.vec
  br i1 %14, label %middle.block, label %vector.body, !llvm.loop !165

middle.block:                                     ; preds = %vector.body
  %cmp.n = icmp eq i64 %n.vec, %wide.trip.count.i.i
  br i1 %cmp.n, label %delete.notnull.i.i, label %for.body.i.i.preheader

for.body.i.i.preheader:                           ; preds = %for.body.lr.ph.i.i, %middle.block
  %indvars.iv.i.i.ph = phi i64 [ 0, %for.body.lr.ph.i.i ], [ %n.vec, %middle.block ]
  %15 = xor i64 %indvars.iv.i.i.ph, -1
  %16 = add nsw i64 %15, %wide.trip.count.i.i
  %xtraiter = and i64 %wide.trip.count.i.i, 3
  %lcmp.mod.not = icmp eq i64 %xtraiter, 0
  br i1 %lcmp.mod.not, label %for.body.i.i.prol.loopexit, label %for.body.i.i.prol

for.body.i.i.prol:                                ; preds = %for.body.i.i.preheader, %for.body.i.i.prol
  %indvars.iv.i.i.prol = phi i64 [ %indvars.iv.next.i.i.prol, %for.body.i.i.prol ], [ %indvars.iv.i.i.ph, %for.body.i.i.preheader ]
  %prol.iter = phi i64 [ %prol.iter.next, %for.body.i.i.prol ], [ 0, %for.body.i.i.preheader ]
  %arrayidx.i.i.prol = getelementptr inbounds i32, ptr %7, i64 %indvars.iv.i.i.prol
  %17 = load i32, ptr %arrayidx.i.i.prol, align 4, !tbaa !52
  %arrayidx7.i.i.prol = getelementptr inbounds i32, ptr %call.i.i, i64 %indvars.iv.i.i.prol
  store i32 %17, ptr %arrayidx7.i.i.prol, align 4, !tbaa !52
