; ModuleID = '/usr/local/google/home/aeubanks/repos/test-suite/MultiSource/UnitTests/C++11/frame_layout/frame_layout.cpp'
source_filename = "/usr/local/google/home/aeubanks/repos/test-suite/MultiSource/UnitTests/C++11/frame_layout/frame_layout.cpp"
target datalayout = "e-m:e-p270:32:32-p271:32:32-p272:64:64-i64:64-f80:128-n8:16:32:64-S128"
target triple = "x86_64-unknown-linux-gnu"

%"class.std::ios_base::Init" = type { i8 }
%"class.std::vector" = type { %"struct.std::_Vector_base" }
%"struct.std::_Vector_base" = type { %"struct.std::_Vector_base<const char *, std::allocator<const char *>>::_Vector_impl" }
%"struct.std::_Vector_base<const char *, std::allocator<const char *>>::_Vector_impl" = type { %"struct.std::_Vector_base<const char *, std::allocator<const char *>>::_Vector_impl_data" }
%"struct.std::_Vector_base<const char *, std::allocator<const char *>>::_Vector_impl_data" = type { ptr, ptr, ptr }
%"class.std::basic_ostream" = type { ptr, %"class.std::basic_ios" }
%"class.std::basic_ios" = type { %"class.std::ios_base", ptr, i8, i8, ptr, ptr, ptr, ptr }
%"class.std::ios_base" = type { ptr, i64, i64, i32, i32, i32, ptr, %"struct.std::ios_base::_Words", [8 x %"struct.std::ios_base::_Words"], i32, ptr, %"class.std::locale" }
%"struct.std::ios_base::_Words" = type { ptr, i64 }
%"class.std::locale" = type { ptr }
%union.trace_element = type { ptr }
%"class.std::ctype" = type <{ %"class.std::locale::facet.base", [4 x i8], ptr, i8, [7 x i8], ptr, ptr, ptr, i8, [256 x i8], [256 x i8], i8, [6 x i8] }>
%"class.std::locale::facet.base" = type <{ ptr, i32 }>
%"class.std::__cxx11::basic_string" = type { %"struct.std::__cxx11::basic_string<char>::_Alloc_hider", i64, %union.anon }
%"struct.std::__cxx11::basic_string<char>::_Alloc_hider" = type { ptr }
%union.anon = type { i64, [8 x i8] }

$_ZNSt6vectorIPKcSaIS1_EED2Ev = comdat any

$_Z19check_frame_variantILb1ELb0ELb0ELb0ELb0EEbiRVi = comdat any

$_Z19check_frame_variantILb0ELb0ELb0ELb0ELb0EEbiRVi = comdat any

$_Z19check_frame_variantILb1ELb1ELb0ELb0ELb0EEbiRVi = comdat any

$_Z19check_frame_variantILb0ELb1ELb0ELb0ELb0EEbiRVi = comdat any

$_Z19check_frame_variantILb1ELb0ELb1ELb0ELb0EEbiRVi = comdat any

$_Z19check_frame_variantILb0ELb0ELb1ELb0ELb0EEbiRVi = comdat any

$_Z19check_frame_variantILb1ELb1ELb1ELb0ELb0EEbiRVi = comdat any

$_Z19check_frame_variantILb0ELb1ELb1ELb0ELb0EEbiRVi = comdat any

$_Z19check_frame_variantILb1ELb0ELb0ELb1ELb0EEbiRVi = comdat any

$_Z19check_frame_variantILb0ELb0ELb0ELb1ELb0EEbiRVi = comdat any

$_Z19check_frame_variantILb1ELb1ELb0ELb1ELb0EEbiRVi = comdat any

$_Z19check_frame_variantILb0ELb1ELb0ELb1ELb0EEbiRVi = comdat any

$_Z19check_frame_variantILb1ELb0ELb1ELb1ELb0EEbiRVi = comdat any

$_Z19check_frame_variantILb0ELb0ELb1ELb1ELb0EEbiRVi = comdat any

$_Z19check_frame_variantILb1ELb1ELb1ELb1ELb0EEbiRVi = comdat any

$_Z19check_frame_variantILb0ELb1ELb1ELb1ELb0EEbiRVi = comdat any

$_Z19check_frame_variantILb1ELb0ELb0ELb0ELb1EEbiRVi = comdat any

$_Z19check_frame_variantILb0ELb0ELb0ELb0ELb1EEbiRVi = comdat any

$_Z19check_frame_variantILb1ELb1ELb0ELb0ELb1EEbiRVi = comdat any

$_Z19check_frame_variantILb0ELb1ELb0ELb0ELb1EEbiRVi = comdat any

$_Z19check_frame_variantILb1ELb0ELb1ELb0ELb1EEbiRVi = comdat any

$_Z19check_frame_variantILb0ELb0ELb1ELb0ELb1EEbiRVi = comdat any

$_Z19check_frame_variantILb1ELb1ELb1ELb0ELb1EEbiRVi = comdat any

$_Z19check_frame_variantILb0ELb1ELb1ELb0ELb1EEbiRVi = comdat any

$_Z19check_frame_variantILb1ELb0ELb0ELb1ELb1EEbiRVi = comdat any

$_Z19check_frame_variantILb0ELb0ELb0ELb1ELb1EEbiRVi = comdat any

$_Z19check_frame_variantILb1ELb1ELb0ELb1ELb1EEbiRVi = comdat any

$_Z19check_frame_variantILb0ELb1ELb0ELb1ELb1EEbiRVi = comdat any

$_Z19check_frame_variantILb1ELb0ELb1ELb1ELb1EEbiRVi = comdat any

$_Z19check_frame_variantILb0ELb0ELb1ELb1ELb1EEbiRVi = comdat any

$_Z19check_frame_variantILb1ELb1ELb1ELb1ELb1EEbiRVi = comdat any

$_Z19check_frame_variantILb0ELb1ELb1ELb1ELb1EEbiRVi = comdat any

$_Z10test_frameILj4096ELb0ELj2048ELb0ELb0EJEEvDpT4_jPKcP13trace_elementd = comdat any

$_Z10test_frameILj2ELb0ELj2048ELb0ELb0EJEEvDpT4_jPKcP13trace_elementd = comdat any

$_Z10test_frameILj4096ELb1ELj2048ELb0ELb0EJEEvDpT4_jPKcP13trace_elementd = comdat any

$_Z10test_frameILj2ELb1ELj2048ELb0ELb0EJEEvDpT4_jPKcP13trace_elementd = comdat any

$_Z10test_frameILj4096ELb0ELj2048ELb1ELb0EJEEvDpT4_jPKcP13trace_elementd = comdat any

$_Z10test_frameILj2ELb0ELj2048ELb1ELb0EJEEvDpT4_jPKcP13trace_elementd = comdat any

$_Z10test_frameILj4096ELb1ELj2048ELb1ELb0EJEEvDpT4_jPKcP13trace_elementd = comdat any

$_Z10test_frameILj2ELb1ELj2048ELb1ELb0EJEEvDpT4_jPKcP13trace_elementd = comdat any

$_Z10test_frameILj4096ELb0ELj2048ELb0ELb0EJiiiiiiiiiiiiiiiiiiiiddddddddddddddddddddEEvDpT4_jPKcP13trace_elementd = comdat any

$_Z10test_frameILj2ELb0ELj2048ELb0ELb0EJiiiiiiiiiiiiiiiiiiiiddddddddddddddddddddEEvDpT4_jPKcP13trace_elementd = comdat any

$_Z10test_frameILj4096ELb1ELj2048ELb0ELb0EJiiiiiiiiiiiiiiiiiiiiddddddddddddddddddddEEvDpT4_jPKcP13trace_elementd = comdat any

$_Z10test_frameILj2ELb1ELj2048ELb0ELb0EJiiiiiiiiiiiiiiiiiiiiddddddddddddddddddddEEvDpT4_jPKcP13trace_elementd = comdat any

$_Z10test_frameILj4096ELb0ELj2048ELb1ELb0EJiiiiiiiiiiiiiiiiiiiiddddddddddddddddddddEEvDpT4_jPKcP13trace_elementd = comdat any

$_Z10test_frameILj2ELb0ELj2048ELb1ELb0EJiiiiiiiiiiiiiiiiiiiiddddddddddddddddddddEEvDpT4_jPKcP13trace_elementd = comdat any

$_Z10test_frameILj4096ELb1ELj2048ELb1ELb0EJiiiiiiiiiiiiiiiiiiiiddddddddddddddddddddEEvDpT4_jPKcP13trace_elementd = comdat any

$_Z10test_frameILj2ELb1ELj2048ELb1ELb0EJiiiiiiiiiiiiiiiiiiiiddddddddddddddddddddEEvDpT4_jPKcP13trace_elementd = comdat any

$_Z10test_frameILj4096ELb0ELj2048ELb0ELb1EJEEvDpT4_jPKcP13trace_elementd = comdat any

$_Z10test_frameILj2ELb0ELj2048ELb0ELb1EJEEvDpT4_jPKcP13trace_elementd = comdat any

$_Z10test_frameILj4096ELb1ELj2048ELb0ELb1EJEEvDpT4_jPKcP13trace_elementd = comdat any

$_Z10test_frameILj2ELb1ELj2048ELb0ELb1EJEEvDpT4_jPKcP13trace_elementd = comdat any

$_Z10test_frameILj4096ELb0ELj2048ELb1ELb1EJEEvDpT4_jPKcP13trace_elementd = comdat any

$_Z10test_frameILj2ELb0ELj2048ELb1ELb1EJEEvDpT4_jPKcP13trace_elementd = comdat any

$_Z10test_frameILj4096ELb1ELj2048ELb1ELb1EJEEvDpT4_jPKcP13trace_elementd = comdat any

$_Z10test_frameILj2ELb1ELj2048ELb1ELb1EJEEvDpT4_jPKcP13trace_elementd = comdat any

$_Z10test_frameILj4096ELb0ELj2048ELb0ELb1EJiiiiiiiiiiiiiiiiiiiiddddddddddddddddddddEEvDpT4_jPKcP13trace_elementd = comdat any

$_Z10test_frameILj2ELb0ELj2048ELb0ELb1EJiiiiiiiiiiiiiiiiiiiiddddddddddddddddddddEEvDpT4_jPKcP13trace_elementd = comdat any

$_Z10test_frameILj4096ELb1ELj2048ELb0ELb1EJiiiiiiiiiiiiiiiiiiiiddddddddddddddddddddEEvDpT4_jPKcP13trace_elementd = comdat any

$_Z10test_frameILj2ELb1ELj2048ELb0ELb1EJiiiiiiiiiiiiiiiiiiiiddddddddddddddddddddEEvDpT4_jPKcP13trace_elementd = comdat any

$_Z10test_frameILj4096ELb0ELj2048ELb1ELb1EJiiiiiiiiiiiiiiiiiiiiddddddddddddddddddddEEvDpT4_jPKcP13trace_elementd = comdat any

$_Z10test_frameILj2ELb0ELj2048ELb1ELb1EJiiiiiiiiiiiiiiiiiiiiddddddddddddddddddddEEvDpT4_jPKcP13trace_elementd = comdat any

$_Z10test_frameILj4096ELb1ELj2048ELb1ELb1EJiiiiiiiiiiiiiiiiiiiiddddddddddddddddddddEEvDpT4_jPKcP13trace_elementd = comdat any

$_Z10test_frameILj2ELb1ELj2048ELb1ELb1EJiiiiiiiiiiiiiiiiiiiiddddddddddddddddddddEEvDpT4_jPKcP13trace_elementd = comdat any

@_ZStL8__ioinit = internal global %"class.std::ios_base::Init" zeroinitializer, align 1
@__dso_handle = external hidden global i8
@.str = private unnamed_addr constant [12 x i8] c"arg_passing\00", align 1
@.str.1 = private unnamed_addr constant [10 x i8] c"int_local\00", align 1
@.str.2 = private unnamed_addr constant [13 x i8] c"double_local\00", align 1
@.str.3 = private unnamed_addr constant [10 x i8] c"vla_start\00", align 1
@.str.4 = private unnamed_addr constant [8 x i8] c"vla_end\00", align 1
@.str.5 = private unnamed_addr constant [16 x i8] c"callee_save_int\00", align 1
@.str.6 = private unnamed_addr constant [19 x i8] c"callee_save_double\00", align 1
@.str.7 = private unnamed_addr constant [13 x i8] c"thrown_value\00", align 1
@_ZL21testDescriptionHeader = internal global %"class.std::vector" zeroinitializer, align 8
@.str.9 = private unnamed_addr constant [6 x i8] c"AVCAE\00", align 1
@.str.10 = private unnamed_addr constant [6 x i8] c"LLARX\00", align 1
@.str.11 = private unnamed_addr constant [6 x i8] c"IALGC\00", align 1
@.str.12 = private unnamed_addr constant [6 x i8] c"G|LSE\00", align 1
@.str.13 = private unnamed_addr constant [6 x i8] c"N|E P\00", align 1
@.str.14 = private unnamed_addr constant [6 x i8] c"E|EOT\00", align 1
@.str.15 = private unnamed_addr constant [6 x i8] c"D| NI\00", align 1
@.str.16 = private unnamed_addr constant [6 x i8] c" |S O\00", align 1
@.str.17 = private unnamed_addr constant [6 x i8] c"L|ASN\00", align 1
@.str.18 = private unnamed_addr constant [6 x i8] c"O|VT|\00", align 1
@.str.19 = private unnamed_addr constant [6 x i8] c"C|EA|\00", align 1
@.str.20 = private unnamed_addr constant [6 x i8] c"A||C|\00", align 1
@.str.21 = private unnamed_addr constant [6 x i8] c"L||K|\00", align 1
@.str.22 = private unnamed_addr constant [6 x i8] c"S||||\00", align 1
@.str.23 = private unnamed_addr constant [6 x i8] c"|||||\00", align 1
@.str.24 = private unnamed_addr constant [6 x i8] c"VVVVV\00", align 1
@constinit = private unnamed_addr constant [16 x ptr] [ptr @.str.9, ptr @.str.10, ptr @.str.11, ptr @.str.12, ptr @.str.13, ptr @.str.14, ptr @.str.15, ptr @.str.16, ptr @.str.17, ptr @.str.18, ptr @.str.19, ptr @.str.20, ptr @.str.21, ptr @.str.22, ptr @.str.23, ptr @.str.24], align 8
@.str.26 = private unnamed_addr constant [2 x i8] c"+\00", align 1
@.str.27 = private unnamed_addr constant [2 x i8] c"-\00", align 1
@_ZSt4cout = external global %"class.std::basic_ostream", align 8
@.str.28 = private unnamed_addr constant [3 x i8] c", \00", align 1
@.str.29 = private unnamed_addr constant [14 x i8] c", alignment: \00", align 1
@.str.30 = private unnamed_addr constant [4 x i8] c" OK\00", align 1
@.str.31 = private unnamed_addr constant [29 x i8] c" ALIGNMENT NOT AS EXPECTED: \00", align 1
@.str.32 = private unnamed_addr constant [27 x i8] c" CONTENT NOT AS EXPECTED: \00", align 1
@.str.33 = private unnamed_addr constant [13 x i8] c" instead of \00", align 1
@.str.36 = private unnamed_addr constant [21 x i8] c"basic_string::append\00", align 1
@.str.37 = private unnamed_addr constant [27 x i8] c"abcdefghijklmnopqrstuvwxyz\00", align 1
@_ZTIi = external constant ptr
@llvm.global_ctors = appending global [1 x { i32, ptr, ptr }] [{ i32, ptr, ptr } { i32 65535, ptr @_GLOBAL__sub_I_frame_layout.cpp, ptr null }]

declare void @_ZNSt8ios_base4InitC1Ev(ptr noundef nonnull align 1 dereferenceable(1)) unnamed_addr #0

; Function Attrs: nounwind
declare void @_ZNSt8ios_base4InitD1Ev(ptr noundef nonnull align 1 dereferenceable(1)) unnamed_addr #1

; Function Attrs: nofree nounwind
declare i32 @__cxa_atexit(ptr, ptr, ptr) local_unnamed_addr #2

; Function Attrs: noinline uwtable
define dso_local noundef zeroext i1 @_Z11check_tracePKcS0_PK13trace_elementdjbjjbbi(ptr noundef %variant, ptr nocapture noundef readonly %input, ptr nocapture noundef readonly %trace, double noundef %expected_d_value, i32 noundef %locals_alignment, i1 noundef zeroext %with_vla, i32 %vla_size, i32 noundef %vla_alignment, i1 noundef zeroext %force_callee_save, i1 noundef zeroext %throw_exception, i32 noundef %exception_value) local_unnamed_addr #3 {
entry:
  %incdec.ptr = getelementptr inbounds %union.trace_element, ptr %trace, i64 1
  %0 = load double, ptr %trace, align 8, !tbaa !5
  %call = tail call fastcc noundef zeroext i1 @_ZL35check_and_print_value_and_alignmentIdEbPKcS1_jPKvT_S4_(ptr noundef %variant, ptr noundef nonnull @.str, i32 noundef 0, ptr noundef null, double noundef %0, double noundef %expected_d_value)
  %incdec.ptr4 = getelementptr inbounds %union.trace_element, ptr %trace, i64 2
  %1 = load i32, ptr %incdec.ptr, align 8, !tbaa !5
  %incdec.ptr5 = getelementptr inbounds %union.trace_element, ptr %trace, i64 3
  %2 = load ptr, ptr %incdec.ptr4, align 8, !tbaa !5
  %incdec.ptr6 = getelementptr inbounds %union.trace_element, ptr %trace, i64 4
  %3 = load double, ptr %incdec.ptr5, align 8, !tbaa !5
  %incdec.ptr7 = getelementptr inbounds %union.trace_element, ptr %trace, i64 5
  %4 = load ptr, ptr %incdec.ptr6, align 8, !tbaa !5
  %incdec.ptr8 = getelementptr inbounds i8, ptr %input, i64 1
  %5 = load i8, ptr %input, align 1, !tbaa !5
  %conv = sext i8 %5 to i32
  %call9 = tail call fastcc noundef zeroext i1 @_ZL35check_and_print_value_and_alignmentIiEbPKcS1_jPKvT_S4_(ptr noundef %variant, ptr noundef nonnull @.str.1, i32 noundef %locals_alignment, ptr noundef %2, i32 noundef %1, i32 noundef %conv)
  %or306 = or i1 %call, %call9
  %incdec.ptr14 = getelementptr inbounds i8, ptr %input, i64 2
  %6 = load i8, ptr %incdec.ptr8, align 1, !tbaa !5
  %conv15 = sitofp i8 %6 to double
  %call16 = tail call fastcc noundef zeroext i1 @_ZL35check_and_print_value_and_alignmentIdEbPKcS1_jPKvT_S4_(ptr noundef %variant, ptr noundef nonnull @.str.2, i32 noundef %locals_alignment, ptr noundef %4, double noundef %3, double noundef %conv15)
  %or20307 = or i1 %or306, %call16
  br i1 %with_vla, label %if.then, label %if.end

if.then:                                          ; preds = %entry
  %incdec.ptr24 = getelementptr inbounds i8, ptr %input, i64 3
  %7 = load i8, ptr %incdec.ptr14, align 1, !tbaa !5
  %incdec.ptr25 = getelementptr inbounds i8, ptr %input, i64 4
  %8 = load i8, ptr %incdec.ptr24, align 1, !tbaa !5
  %incdec.ptr26 = getelementptr inbounds %union.trace_element, ptr %trace, i64 6
  %9 = load i32, ptr %incdec.ptr7, align 8, !tbaa !5
  %conv27 = trunc i32 %9 to i8
  %incdec.ptr28 = getelementptr inbounds %union.trace_element, ptr %trace, i64 7
  %10 = load ptr, ptr %incdec.ptr26, align 8, !tbaa !5
  %incdec.ptr29 = getelementptr inbounds %union.trace_element, ptr %trace, i64 8
  %11 = load i32, ptr %incdec.ptr28, align 8, !tbaa !5
  %conv30 = trunc i32 %11 to i8
  %incdec.ptr31 = getelementptr inbounds %union.trace_element, ptr %trace, i64 9
  %12 = load ptr, ptr %incdec.ptr29, align 8, !tbaa !5
  %call32 = tail call fastcc noundef zeroext i1 @_ZL35check_and_print_value_and_alignmentIcEbPKcS1_jPKvT_S4_(ptr noundef %variant, ptr noundef nonnull @.str.3, i32 noundef %vla_alignment, ptr noundef %10, i8 noundef signext %conv27, i8 noundef signext %7)
  %call39 = tail call fastcc noundef zeroext i1 @_ZL35check_and_print_value_and_alignmentIcEbPKcS1_jPKvT_S4_(ptr noundef %variant, ptr noundef nonnull @.str.4, i32 noundef 1, ptr noundef %12, i8 noundef signext %conv30, i8 noundef signext %8)
  %13 = or i1 %call32, %call39
  %or43312 = or i1 %or20307, %13
  br label %if.end

if.end:                                           ; preds = %if.then, %entry
  %problem_found.0.in = phi i1 [ %or43312, %if.then ], [ %or20307, %entry ]
  %trace.addr.0 = phi ptr [ %incdec.ptr31, %if.then ], [ %incdec.ptr7, %entry ]
  %input.addr.0 = phi ptr [ %incdec.ptr25, %if.then ], [ %incdec.ptr14, %entry ]
  br i1 %force_callee_save, label %if.then47, label %if.end74

if.then47:                                        ; preds = %if.end
  %incdec.ptr48 = getelementptr inbounds i8, ptr %input.addr.0, i64 1
  %14 = load i8, ptr %input.addr.0, align 1, !tbaa !5
  %conv49 = sext i8 %14 to i32
  %add.i = shl nsw i32 %conv49, 1
  %add9.i = shl nsw i32 %conv49, 2
  %add21.i = shl nsw i32 %conv49, 3
  %add48.i = shl nsw i32 %conv49, 4
  %add98.i = shl nsw i32 %conv49, 5
  %15 = load i8, ptr %incdec.ptr48, align 1, !tbaa !5
  %conv51 = sitofp i8 %15 to double
  %16 = sext i8 %14 to i16
  %div.i.i.lhs.trunc = mul nsw i16 %16, 39
  %17 = sext i8 %14 to i16
  %div.i.i.rhs.trunc = mul nsw i16 %17, 38
  %div.i.i313 = sdiv i16 %div.i.i.lhs.trunc, %div.i.i.rhs.trunc
  %18 = sext i8 %14 to i16
  %div2.i.i.rhs.trunc = mul nsw i16 %18, 37
  %div2.i.i314 = sdiv i16 %div.i.i313, %div2.i.i.rhs.trunc
  %19 = sext i8 %14 to i16
  %div3.i.i.rhs.trunc = mul nsw i16 %19, 36
  %div3.i.i315 = sdiv i16 %div2.i.i314, %div3.i.i.rhs.trunc
  %20 = sext i8 %14 to i16
  %div4.i.i.rhs.trunc = mul nsw i16 %20, 35
  %div4.i.i316 = sdiv i16 %div3.i.i315, %div4.i.i.rhs.trunc
  %21 = sext i8 %14 to i16
  %div5.i.i.rhs.trunc = mul nsw i16 %21, 34
  %div5.i.i317 = sdiv i16 %div4.i.i316, %div5.i.i.rhs.trunc
  %22 = sext i8 %14 to i16
  %div6.i.i.rhs.trunc = mul nsw i16 %22, 33
  %div6.i.i318 = sdiv i16 %div5.i.i317, %div6.i.i.rhs.trunc
  %div6.i.i.sext = sext i16 %div6.i.i318 to i32
  %div7.i.i = sdiv i32 %div6.i.i.sext, %add98.i
  %div8.i.i.lhs.trunc = trunc i32 %div7.i.i to i16
  %23 = sext i8 %14 to i16
  %div8.i.i.rhs.trunc = mul nsw i16 %23, 31
  %div8.i.i319 = sdiv i16 %div8.i.i.lhs.trunc, %div8.i.i.rhs.trunc
  %24 = sext i8 %14 to i16
  %div9.i.i.rhs.trunc = mul nsw i16 %24, 30
  %div9.i.i320 = sdiv i16 %div8.i.i319, %div9.i.i.rhs.trunc
  %25 = sext i8 %14 to i16
  %div10.i.i.rhs.trunc = mul nsw i16 %25, 29
  %div10.i.i321 = sdiv i16 %div9.i.i320, %div10.i.i.rhs.trunc
  %26 = sext i8 %14 to i16
  %div11.i.i.rhs.trunc = mul nsw i16 %26, 28
  %div11.i.i322 = sdiv i16 %div10.i.i321, %div11.i.i.rhs.trunc
  %27 = sext i8 %14 to i16
  %div12.i.i.rhs.trunc = mul nsw i16 %27, 27
  %div12.i.i323 = sdiv i16 %div11.i.i322, %div12.i.i.rhs.trunc
  %28 = sext i8 %14 to i16
  %div13.i.i.rhs.trunc = mul nsw i16 %28, 26
  %div13.i.i324 = sdiv i16 %div12.i.i323, %div13.i.i.rhs.trunc
  %29 = sext i8 %14 to i16
  %div14.i.i.rhs.trunc = mul nsw i16 %29, 25
  %div14.i.i325 = sdiv i16 %div13.i.i324, %div14.i.i.rhs.trunc
  %30 = sext i8 %14 to i16
  %div15.i.i.rhs.trunc = mul nsw i16 %30, 24
  %div15.i.i326 = sdiv i16 %div14.i.i325, %div15.i.i.rhs.trunc
  %31 = sext i8 %14 to i16
  %div16.i.i.rhs.trunc = mul nsw i16 %31, 23
  %div16.i.i327 = sdiv i16 %div15.i.i326, %div16.i.i.rhs.trunc
  %32 = sext i8 %14 to i16
  %div17.i.i.rhs.trunc = mul nsw i16 %32, 22
  %div17.i.i328 = sdiv i16 %div16.i.i327, %div17.i.i.rhs.trunc
  %33 = sext i8 %14 to i16
  %div18.i.i.rhs.trunc = mul nsw i16 %33, 21
  %div18.i.i329 = sdiv i16 %div17.i.i328, %div18.i.i.rhs.trunc
  %34 = sext i8 %14 to i16
  %div19.i.i.rhs.trunc = mul nsw i16 %34, 20
  %div19.i.i330 = sdiv i16 %div18.i.i329, %div19.i.i.rhs.trunc
  %35 = sext i8 %14 to i16
  %div20.i.i.rhs.trunc = mul nsw i16 %35, 19
  %div20.i.i331 = sdiv i16 %div19.i.i330, %div20.i.i.rhs.trunc
  %36 = sext i8 %14 to i16
  %div21.i.i.rhs.trunc = mul nsw i16 %36, 18
  %div21.i.i332 = sdiv i16 %div20.i.i331, %div21.i.i.rhs.trunc
  %37 = sext i8 %14 to i16
  %div22.i.i.rhs.trunc = mul nsw i16 %37, 17
  %div22.i.i333 = sdiv i16 %div21.i.i332, %div22.i.i.rhs.trunc
  %div22.i.i.sext = sext i16 %div22.i.i333 to i32
  %div23.i.i = sdiv i32 %div22.i.i.sext, %add48.i
  %div24.i.i.lhs.trunc = trunc i32 %div23.i.i to i16
  %38 = sext i8 %14 to i16
  %div24.i.i.rhs.trunc = mul nsw i16 %38, 15
  %div24.i.i334 = sdiv i16 %div24.i.i.lhs.trunc, %div24.i.i.rhs.trunc
  %39 = sext i8 %14 to i16
  %div25.i.i.rhs.trunc = mul nsw i16 %39, 14
  %div25.i.i335 = sdiv i16 %div24.i.i334, %div25.i.i.rhs.trunc
  %40 = sext i8 %14 to i16
  %div26.i.i.rhs.trunc = mul nsw i16 %40, 13
  %div26.i.i336 = sdiv i16 %div25.i.i335, %div26.i.i.rhs.trunc
  %41 = sext i8 %14 to i16
  %div27.i.i.rhs.trunc = mul nsw i16 %41, 12
  %div27.i.i337 = sdiv i16 %div26.i.i336, %div27.i.i.rhs.trunc
  %42 = sext i8 %14 to i16
  %div28.i.i.rhs.trunc = mul nsw i16 %42, 11
  %div28.i.i338 = sdiv i16 %div27.i.i337, %div28.i.i.rhs.trunc
  %43 = sext i8 %14 to i16
  %div29.i.i.rhs.trunc = mul nsw i16 %43, 10
  %div29.i.i339 = sdiv i16 %div28.i.i338, %div29.i.i.rhs.trunc
  %44 = sext i8 %14 to i16
  %div30.i.i.rhs.trunc = mul nsw i16 %44, 9
  %div30.i.i340 = sdiv i16 %div29.i.i339, %div30.i.i.rhs.trunc
  %div30.i.i.sext = sext i16 %div30.i.i340 to i32
  %div31.i.i = sdiv i32 %div30.i.i.sext, %add21.i
  %div32.i.i.lhs.trunc = trunc i32 %div31.i.i to i16
  %45 = sext i8 %14 to i16
  %div32.i.i.rhs.trunc = mul nsw i16 %45, 7
  %div32.i.i341 = sdiv i16 %div32.i.i.lhs.trunc, %div32.i.i.rhs.trunc
  %46 = sext i8 %14 to i16
  %div33.i.i.rhs.trunc = mul nsw i16 %46, 6
  %div33.i.i342 = sdiv i16 %div32.i.i341, %div33.i.i.rhs.trunc
  %47 = sext i8 %14 to i16
  %div34.i.i.rhs.trunc = mul nsw i16 %47, 5
  %div34.i.i343 = sdiv i16 %div33.i.i342, %div34.i.i.rhs.trunc
  %div34.i.i.sext = sext i16 %div34.i.i343 to i32
  %div35.i.i = sdiv i32 %div34.i.i.sext, %add9.i
  %div36.i.i.lhs.trunc = trunc i32 %div35.i.i to i16
  %48 = sext i8 %14 to i16
  %div36.i.i.rhs.trunc = mul nsw i16 %48, 3
  %div36.i.i344 = sdiv i16 %div36.i.i.lhs.trunc, %div36.i.i.rhs.trunc
  %div36.i.i.sext = sext i16 %div36.i.i344 to i32
  %div37.i.i = sdiv i32 %div36.i.i.sext, %add.i
  %div38.i.i.lhs.trunc = trunc i32 %div37.i.i to i16
  %div38.i.i.rhs.trunc = sext i8 %14 to i16
  %div38.i.i345 = sdiv i16 %div38.i.i.lhs.trunc, %div38.i.i.rhs.trunc
  %div38.i.i.sext = trunc i16 %div38.i.i345 to i8
  %div.i4.i = sdiv i32 %conv49, %add.i
  %div2.i6.i.lhs.trunc = trunc i32 %div.i4.i to i16
  %div2.i6.i346 = sdiv i16 %div2.i6.i.lhs.trunc, %div36.i.i.rhs.trunc
  %div2.i6.i.sext = sext i16 %div2.i6.i346 to i32
  %div3.i8.i = sdiv i32 %div2.i6.i.sext, %add9.i
  %div4.i10.i.lhs.trunc = trunc i32 %div3.i8.i to i16
  %div4.i10.i347 = sdiv i16 %div4.i10.i.lhs.trunc, %div34.i.i.rhs.trunc
  %div5.i12.i348 = sdiv i16 %div4.i10.i347, %div33.i.i.rhs.trunc
  %div6.i14.i349 = sdiv i16 %div5.i12.i348, %div32.i.i.rhs.trunc
  %div6.i14.i.sext = sext i16 %div6.i14.i349 to i32
  %div7.i16.i = sdiv i32 %div6.i14.i.sext, %add21.i
  %div8.i18.i.lhs.trunc = trunc i32 %div7.i16.i to i16
  %div8.i18.i350 = sdiv i16 %div8.i18.i.lhs.trunc, %div30.i.i.rhs.trunc
  %div9.i20.i351 = sdiv i16 %div8.i18.i350, %div29.i.i.rhs.trunc
  %div10.i22.i352 = sdiv i16 %div9.i20.i351, %div28.i.i.rhs.trunc
  %div11.i24.i353 = sdiv i16 %div10.i22.i352, %div27.i.i.rhs.trunc
  %div12.i26.i354 = sdiv i16 %div11.i24.i353, %div26.i.i.rhs.trunc
  %div13.i28.i355 = sdiv i16 %div12.i26.i354, %div25.i.i.rhs.trunc
  %div14.i30.i356 = sdiv i16 %div13.i28.i355, %div24.i.i.rhs.trunc
  %div14.i30.i.sext = sext i16 %div14.i30.i356 to i32
  %div15.i32.i = sdiv i32 %div14.i30.i.sext, %add48.i
  %div16.i34.i.lhs.trunc = trunc i32 %div15.i32.i to i16
  %div16.i34.i357 = sdiv i16 %div16.i34.i.lhs.trunc, %div22.i.i.rhs.trunc
  %div17.i36.i358 = sdiv i16 %div16.i34.i357, %div21.i.i.rhs.trunc
  %div18.i38.i359 = sdiv i16 %div17.i36.i358, %div20.i.i.rhs.trunc
  %div19.i40.i360 = sdiv i16 %div18.i38.i359, %div19.i.i.rhs.trunc
  %div20.i42.i361 = sdiv i16 %div19.i40.i360, %div18.i.i.rhs.trunc
  %div21.i44.i362 = sdiv i16 %div20.i42.i361, %div17.i.i.rhs.trunc
  %div22.i46.i363 = sdiv i16 %div21.i44.i362, %div16.i.i.rhs.trunc
  %div23.i48.i364 = sdiv i16 %div22.i46.i363, %div15.i.i.rhs.trunc
  %div24.i50.i365 = sdiv i16 %div23.i48.i364, %div14.i.i.rhs.trunc
  %div25.i52.i366 = sdiv i16 %div24.i50.i365, %div13.i.i.rhs.trunc
  %div26.i54.i367 = sdiv i16 %div25.i52.i366, %div12.i.i.rhs.trunc
  %div27.i56.i368 = sdiv i16 %div26.i54.i367, %div11.i.i.rhs.trunc
  %div28.i58.i369 = sdiv i16 %div27.i56.i368, %div10.i.i.rhs.trunc
  %div29.i60.i370 = sdiv i16 %div28.i58.i369, %div9.i.i.rhs.trunc
  %div30.i62.i371 = sdiv i16 %div29.i60.i370, %div8.i.i.rhs.trunc
  %div30.i62.i.sext = sext i16 %div30.i62.i371 to i32
  %div31.i64.i = sdiv i32 %div30.i62.i.sext, %add98.i
  %div32.i66.i.lhs.trunc = trunc i32 %div31.i64.i to i16
  %div32.i66.i372 = sdiv i16 %div32.i66.i.lhs.trunc, %div6.i.i.rhs.trunc
  %div33.i68.i373 = sdiv i16 %div32.i66.i372, %div5.i.i.rhs.trunc
  %div34.i70.i374 = sdiv i16 %div33.i68.i373, %div4.i.i.rhs.trunc
  %div35.i72.i375 = sdiv i16 %div34.i70.i374, %div3.i.i.rhs.trunc
  %div36.i74.i376 = sdiv i16 %div35.i72.i375, %div2.i.i.rhs.trunc
  %div37.i76.i377 = sdiv i16 %div36.i74.i376, %div.i.i.rhs.trunc
  %div38.i78.i378 = sdiv i16 %div37.i76.i377, %div.i.i.lhs.trunc
  %div39.i.i379 = sdiv i16 %div38.i78.i378, %div38.i.i.rhs.trunc
  %div39.i.i.sext = trunc i16 %div39.i.i379 to i8
  %mul.i = mul i8 %div39.i.i.sext, %div38.i.i.sext
  %add.i115 = fadd double %conv51, %conv51
  %add6.i117 = fadd double %add.i115, %conv51
  %add9.i119 = fadd double %add6.i117, %conv51
  %add12.i121 = fadd double %add9.i119, %conv51
  %add15.i123 = fadd double %add12.i121, %conv51
  %add18.i125 = fadd double %add15.i123, %conv51
  %div.i4.i266 = fdiv double %conv51, %add.i115
  %div2.i6.i267 = fdiv double %div.i4.i266, %add6.i117
  %div3.i8.i268 = fdiv double %div2.i6.i267, %add9.i119
  %div4.i10.i269 = fdiv double %div3.i8.i268, %add12.i121
  %div5.i12.i270 = fdiv double %div4.i10.i269, %add15.i123
  %add21.i127 = fadd double %add18.i125, %conv51
  %add24.i129 = fadd double %add21.i127, %conv51
  %add27.i131 = fadd double %add24.i129, %conv51
  %add30.i133 = fadd double %add27.i131, %conv51
  %add34.i135 = fadd double %add30.i133, %conv51
  %add38.i137 = fadd double %add34.i135, %conv51
  %add42.i139 = fadd double %add38.i137, %conv51
  %add45.i141 = fadd double %add42.i139, %conv51
  %add48.i143 = fadd double %add45.i141, %conv51
  %add52.i145 = fadd double %add48.i143, %conv51
  %add55.i147 = fadd double %add52.i145, %conv51
  %add58.i149 = fadd double %add55.i147, %conv51
  %add61.i151 = fadd double %add58.i149, %conv51
  %add64.i153 = fadd double %add61.i151, %conv51
  %add67.i155 = fadd double %add64.i153, %conv51
  %add70.i157 = fadd double %add67.i155, %conv51
  %add73.i159 = fadd double %add70.i157, %conv51
  %add77.i161 = fadd double %add73.i159, %conv51
  %add80.i163 = fadd double %add77.i161, %conv51
  %add83.i165 = fadd double %add80.i163, %conv51
  %add86.i167 = fadd double %add83.i165, %conv51
  %add89.i169 = fadd double %add86.i167, %conv51
  %add92.i171 = fadd double %add89.i169, %conv51
  %add95.i173 = fadd double %add92.i171, %conv51
  %add98.i175 = fadd double %add95.i173, %conv51
  %add101.i177 = fadd double %add98.i175, %conv51
  %add104.i179 = fadd double %add101.i177, %conv51
  %add107.i181 = fadd double %add104.i179, %conv51
  %add110.i183 = fadd double %add107.i181, %conv51
  %add113.i185 = fadd double %add110.i183, %conv51
  %add117.i187 = fadd double %add113.i185, %conv51
  %add120.i189 = fadd double %add117.i187, %conv51
  %div.i.i192 = fdiv double %add120.i189, %add117.i187
  %div2.i.i194 = fdiv double %div.i.i192, %add113.i185
  %div3.i.i196 = fdiv double %div2.i.i194, %add110.i183
  %div4.i.i198 = fdiv double %div3.i.i196, %add107.i181
  %49 = insertelement <2 x double> poison, double %div5.i12.i270, i64 0
  %50 = insertelement <2 x double> %49, double %div4.i.i198, i64 1
  %51 = insertelement <2 x double> poison, double %add18.i125, i64 0
  %52 = insertelement <2 x double> %51, double %add104.i179, i64 1
  %53 = fdiv <2 x double> %50, %52
  %54 = insertelement <2 x double> poison, double %add21.i127, i64 0
  %55 = insertelement <2 x double> %54, double %add101.i177, i64 1
  %56 = fdiv <2 x double> %53, %55
  %57 = insertelement <2 x double> poison, double %add24.i129, i64 0
  %58 = insertelement <2 x double> %57, double %add98.i175, i64 1
  %59 = fdiv <2 x double> %56, %58
  %60 = insertelement <2 x double> poison, double %add27.i131, i64 0
  %61 = insertelement <2 x double> %60, double %add95.i173, i64 1
  %62 = fdiv <2 x double> %59, %61
  %63 = insertelement <2 x double> poison, double %add30.i133, i64 0
  %64 = insertelement <2 x double> %63, double %add92.i171, i64 1
  %65 = fdiv <2 x double> %62, %64
  %66 = insertelement <2 x double> poison, double %add34.i135, i64 0
  %67 = insertelement <2 x double> %66, double %add89.i169, i64 1
  %68 = fdiv <2 x double> %65, %67
  %69 = insertelement <2 x double> poison, double %add38.i137, i64 0
  %70 = insertelement <2 x double> %69, double %add86.i167, i64 1
  %71 = fdiv <2 x double> %68, %70
  %72 = insertelement <2 x double> poison, double %add42.i139, i64 0
  %73 = insertelement <2 x double> %72, double %add83.i165, i64 1
  %74 = fdiv <2 x double> %71, %73
  %75 = insertelement <2 x double> poison, double %add45.i141, i64 0
  %76 = insertelement <2 x double> %75, double %add80.i163, i64 1
  %77 = fdiv <2 x double> %74, %76
  %78 = insertelement <2 x double> poison, double %add48.i143, i64 0
  %79 = insertelement <2 x double> %78, double %add77.i161, i64 1
  %80 = fdiv <2 x double> %77, %79
  %81 = insertelement <2 x double> poison, double %add52.i145, i64 0
  %82 = insertelement <2 x double> %81, double %add73.i159, i64 1
  %83 = fdiv <2 x double> %80, %82
  %84 = insertelement <2 x double> poison, double %add55.i147, i64 0
  %85 = insertelement <2 x double> %84, double %add70.i157, i64 1
  %86 = fdiv <2 x double> %83, %85
  %87 = insertelement <2 x double> poison, double %add58.i149, i64 0
  %88 = insertelement <2 x double> %87, double %add67.i155, i64 1
  %89 = fdiv <2 x double> %86, %88
  %90 = insertelement <2 x double> poison, double %add61.i151, i64 0
  %91 = insertelement <2 x double> %90, double %add64.i153, i64 1
  %92 = fdiv <2 x double> %89, %91
  %93 = shufflevector <2 x double> %91, <2 x double> poison, <2 x i32> <i32 1, i32 0>
  %94 = fdiv <2 x double> %92, %93
  %95 = shufflevector <2 x double> %88, <2 x double> poison, <2 x i32> <i32 1, i32 0>
  %96 = fdiv <2 x double> %94, %95
  %97 = shufflevector <2 x double> %85, <2 x double> poison, <2 x i32> <i32 1, i32 0>
  %98 = fdiv <2 x double> %96, %97
  %99 = insertelement <2 x double> poison, double %add73.i159, i64 0
  %100 = insertelement <2 x double> %99, double %add52.i145, i64 1
  %101 = fdiv <2 x double> %98, %100
  %102 = insertelement <2 x double> poison, double %add77.i161, i64 0
  %103 = insertelement <2 x double> %102, double %add48.i143, i64 1
  %104 = fdiv <2 x double> %101, %103
  %105 = insertelement <2 x double> poison, double %add80.i163, i64 0
  %106 = insertelement <2 x double> %105, double %add45.i141, i64 1
  %107 = fdiv <2 x double> %104, %106
  %108 = insertelement <2 x double> poison, double %add83.i165, i64 0
  %109 = insertelement <2 x double> %108, double %add42.i139, i64 1
  %110 = fdiv <2 x double> %107, %109
  %111 = insertelement <2 x double> poison, double %add86.i167, i64 0
  %112 = insertelement <2 x double> %111, double %add38.i137, i64 1
  %113 = fdiv <2 x double> %110, %112
  %114 = insertelement <2 x double> poison, double %add89.i169, i64 0
  %115 = insertelement <2 x double> %114, double %add34.i135, i64 1
  %116 = fdiv <2 x double> %113, %115
  %117 = insertelement <2 x double> poison, double %add92.i171, i64 0
  %118 = insertelement <2 x double> %117, double %add30.i133, i64 1
  %119 = fdiv <2 x double> %116, %118
  %120 = insertelement <2 x double> poison, double %add95.i173, i64 0
  %121 = insertelement <2 x double> %120, double %add27.i131, i64 1
  %122 = fdiv <2 x double> %119, %121
  %123 = insertelement <2 x double> poison, double %add98.i175, i64 0
  %124 = insertelement <2 x double> %123, double %add24.i129, i64 1
  %125 = fdiv <2 x double> %122, %124
  %126 = insertelement <2 x double> poison, double %add101.i177, i64 0
  %127 = insertelement <2 x double> %126, double %add21.i127, i64 1
  %128 = fdiv <2 x double> %125, %127
  %129 = insertelement <2 x double> poison, double %add104.i179, i64 0
  %130 = insertelement <2 x double> %129, double %add18.i125, i64 1
  %131 = fdiv <2 x double> %128, %130
  %132 = insertelement <2 x double> poison, double %add107.i181, i64 0
  %133 = insertelement <2 x double> %132, double %add15.i123, i64 1
  %134 = fdiv <2 x double> %131, %133
  %135 = insertelement <2 x double> poison, double %add110.i183, i64 0
  %136 = insertelement <2 x double> %135, double %add12.i121, i64 1
  %137 = fdiv <2 x double> %134, %136
  %138 = insertelement <2 x double> poison, double %add113.i185, i64 0
  %139 = insertelement <2 x double> %138, double %add9.i119, i64 1
  %140 = fdiv <2 x double> %137, %139
  %141 = insertelement <2 x double> poison, double %add117.i187, i64 0
  %142 = insertelement <2 x double> %141, double %add6.i117, i64 1
  %143 = fdiv <2 x double> %140, %142
  %144 = insertelement <2 x double> poison, double %add120.i189, i64 0
  %145 = insertelement <2 x double> %144, double %add.i115, i64 1
  %146 = fdiv <2 x double> %143, %145
  %147 = insertelement <2 x double> poison, double %conv51, i64 0
  %148 = shufflevector <2 x double> %147, <2 x double> poison, <2 x i32> zeroinitializer
  %149 = fdiv <2 x double> %146, %148
  %shift = shufflevector <2 x double> %149, <2 x double> poison, <2 x i32> <i32 1, i32 undef>
  %150 = fmul <2 x double> %149, %shift
  %mul.i305 = extractelement <2 x double> %150, i64 0
  %incdec.ptr54 = getelementptr inbounds %union.trace_element, ptr %trace.addr.0, i64 1
  %151 = load i32, ptr %trace.addr.0, align 8, !tbaa !5
  %conv55 = trunc i32 %151 to i8
  %call57 = tail call fastcc noundef zeroext i1 @_ZL35check_and_print_value_and_alignmentIcEbPKcS1_jPKvT_S4_(ptr noundef %variant, ptr noundef nonnull @.str.5, i32 noundef 1, ptr noundef null, i8 noundef signext %conv55, i8 noundef signext %mul.i)
  %152 = load double, ptr %incdec.ptr54, align 8, !tbaa !5
  %conv65 = fptosi double %152 to i8
  %conv66 = fptosi double %mul.i305 to i8
  %call67 = tail call fastcc noundef zeroext i1 @_ZL35check_and_print_value_and_alignmentIcEbPKcS1_jPKvT_S4_(ptr noundef %variant, ptr noundef nonnull @.str.6, i32 noundef 1, ptr noundef null, i8 noundef signext %conv65, i8 noundef signext %conv66)
  %153 = or i1 %call57, %call67
  %or71310 = or i1 %problem_found.0.in, %153
  br label %if.end74

if.end74:                                         ; preds = %if.then47, %if.end
  %problem_found.1 = phi i1 [ %or71310, %if.then47 ], [ %problem_found.0.in, %if.end ]
  %cond = select i1 %throw_exception, i32 42, i32 -1
  %call76 = tail call fastcc noundef zeroext i1 @_ZL35check_and_print_value_and_alignmentIiEbPKcS1_jPKvT_S4_(ptr noundef %variant, ptr noundef nonnull @.str.7, i32 noundef 1, ptr noundef null, i32 noundef %exception_value, i32 noundef %cond)
  %or80308 = or i1 %problem_found.1, %call76
  ret i1 %or80308
}

; Function Attrs: mustprogress nocallback nofree nosync nounwind willreturn memory(argmem: readwrite)
declare void @llvm.lifetime.start.p0(i64 immarg, ptr nocapture) #4

; Function Attrs: mustprogress uwtable
define internal fastcc noundef zeroext i1 @_ZL35check_and_print_value_and_alignmentIdEbPKcS1_jPKvT_S4_(ptr noundef %variant, ptr noundef %label, i32 noundef %expected_alignment, ptr noundef %p, double noundef %value, double noundef %expected_value) unnamed_addr #5 {
entry:
  %0 = ptrtoint ptr %p to i64
  %conv.i = zext i32 %expected_alignment to i64
  %sub.i = add nsw i64 %conv.i, -1
  %and.i = and i64 %sub.i, %0
  %cmp.i = icmp ne i64 %and.i, 0
  %cmp = fcmp une double %value, %expected_value
  %tobool.not.i = icmp eq ptr %variant, null
  br i1 %tobool.not.i, label %if.then.i, label %if.else.i

if.then.i:                                        ; preds = %entry
  %vtable.i = load ptr, ptr @_ZSt4cout, align 8, !tbaa !8
  %vbase.offset.ptr.i = getelementptr i8, ptr %vtable.i, i64 -24
  %vbase.offset.i = load i64, ptr %vbase.offset.ptr.i, align 8
  %add.ptr.i = getelementptr inbounds i8, ptr @_ZSt4cout, i64 %vbase.offset.i
  %_M_streambuf_state.i.i.i = getelementptr inbounds %"class.std::ios_base", ptr %add.ptr.i, i64 0, i32 5
  %1 = load i32, ptr %_M_streambuf_state.i.i.i, align 8, !tbaa !10
  %or.i.i.i = or i32 %1, 1
  tail call void @_ZNSt9basic_iosIcSt11char_traitsIcEE5clearESt12_Ios_Iostate(ptr noundef nonnull align 8 dereferenceable(264) %add.ptr.i, i32 noundef %or.i.i.i)
  br label %_ZStlsISt11char_traitsIcEERSt13basic_ostreamIcT_ES5_PKc.exit

if.else.i:                                        ; preds = %entry
  %call.i.i = tail call i64 @strlen(ptr noundef nonnull dereferenceable(1) %variant) #20
  %call1.i = tail call noundef nonnull align 8 dereferenceable(8) ptr @_ZSt16__ostream_insertIcSt11char_traitsIcEERSt13basic_ostreamIT_T0_ES6_PKS3_l(ptr noundef nonnull align 8 dereferenceable(8) @_ZSt4cout, ptr noundef nonnull %variant, i64 noundef %call.i.i)
  br label %_ZStlsISt11char_traitsIcEERSt13basic_ostreamIcT_ES5_PKc.exit

_ZStlsISt11char_traitsIcEERSt13basic_ostreamIcT_ES5_PKc.exit: ; preds = %if.then.i, %if.else.i
  %call1.i33 = tail call noundef nonnull align 8 dereferenceable(8) ptr @_ZSt16__ostream_insertIcSt11char_traitsIcEERSt13basic_ostreamIT_T0_ES6_PKS3_l(ptr noundef nonnull align 8 dereferenceable(8) @_ZSt4cout, ptr noundef nonnull @.str.28, i64 noundef 2)
  %tobool.not.i35 = icmp eq ptr %label, null
  br i1 %tobool.not.i35, label %if.then.i42, label %if.else.i45

if.then.i42:                                      ; preds = %_ZStlsISt11char_traitsIcEERSt13basic_ostreamIcT_ES5_PKc.exit
  %vtable.i36 = load ptr, ptr @_ZSt4cout, align 8, !tbaa !8
  %vbase.offset.ptr.i37 = getelementptr i8, ptr %vtable.i36, i64 -24
  %vbase.offset.i38 = load i64, ptr %vbase.offset.ptr.i37, align 8
  %add.ptr.i39 = getelementptr inbounds i8, ptr @_ZSt4cout, i64 %vbase.offset.i38
  %_M_streambuf_state.i.i.i40 = getelementptr inbounds %"class.std::ios_base", ptr %add.ptr.i39, i64 0, i32 5
  %2 = load i32, ptr %_M_streambuf_state.i.i.i40, align 8, !tbaa !10
  %or.i.i.i41 = or i32 %2, 1
  tail call void @_ZNSt9basic_iosIcSt11char_traitsIcEE5clearESt12_Ios_Iostate(ptr noundef nonnull align 8 dereferenceable(264) %add.ptr.i39, i32 noundef %or.i.i.i41)
  br label %_ZStlsISt11char_traitsIcEERSt13basic_ostreamIcT_ES5_PKc.exit46

if.else.i45:                                      ; preds = %_ZStlsISt11char_traitsIcEERSt13basic_ostreamIcT_ES5_PKc.exit
  %call.i.i43 = tail call i64 @strlen(ptr noundef nonnull dereferenceable(1) %label) #20
  %call1.i44 = tail call noundef nonnull align 8 dereferenceable(8) ptr @_ZSt16__ostream_insertIcSt11char_traitsIcEERSt13basic_ostreamIT_T0_ES6_PKS3_l(ptr noundef nonnull align 8 dereferenceable(8) @_ZSt4cout, ptr noundef nonnull %label, i64 noundef %call.i.i43)
  br label %_ZStlsISt11char_traitsIcEERSt13basic_ostreamIcT_ES5_PKc.exit46

_ZStlsISt11char_traitsIcEERSt13basic_ostreamIcT_ES5_PKc.exit46: ; preds = %if.then.i42, %if.else.i45
  %call1.i48 = tail call noundef nonnull align 8 dereferenceable(8) ptr @_ZSt16__ostream_insertIcSt11char_traitsIcEERSt13basic_ostreamIT_T0_ES6_PKS3_l(ptr noundef nonnull align 8 dereferenceable(8) @_ZSt4cout, ptr noundef nonnull @.str.29, i64 noundef 13)
  %call.i = tail call noundef nonnull align 8 dereferenceable(8) ptr @_ZNSo9_M_insertImEERSoT_(ptr noundef nonnull align 8 dereferenceable(8) @_ZSt4cout, i64 noundef %conv.i)
  %brmerge = or i1 %cmp.i, %cmp
  br i1 %brmerge, label %if.else, label %if.then

if.then:                                          ; preds = %_ZStlsISt11char_traitsIcEERSt13basic_ostreamIcT_ES5_PKc.exit46
  %call1.i52 = tail call noundef nonnull align 8 dereferenceable(8) ptr @_ZSt16__ostream_insertIcSt11char_traitsIcEERSt13basic_ostreamIT_T0_ES6_PKS3_l(ptr noundef nonnull align 8 dereferenceable(8) @_ZSt4cout, ptr noundef nonnull @.str.30, i64 noundef 3)
  br label %if.end20

if.else:                                          ; preds = %_ZStlsISt11char_traitsIcEERSt13basic_ostreamIcT_ES5_PKc.exit46
  br i1 %cmp.i, label %if.then10, label %if.end

if.then10:                                        ; preds = %if.else
  %call1.i55 = tail call noundef nonnull align 8 dereferenceable(8) ptr @_ZSt16__ostream_insertIcSt11char_traitsIcEERSt13basic_ostreamIT_T0_ES6_PKS3_l(ptr noundef nonnull align 8 dereferenceable(8) @_ZSt4cout, ptr noundef nonnull @.str.31, i64 noundef 28)
  %call.i57 = tail call noundef nonnull align 8 dereferenceable(8) ptr @_ZNSo9_M_insertIPKvEERSoT_(ptr noundef nonnull align 8 dereferenceable(8) @_ZSt4cout, ptr noundef %p)
  br label %if.end

if.end:                                           ; preds = %if.then10, %if.else
  br i1 %cmp, label %if.then14, label %if.end20

if.then14:                                        ; preds = %if.end
  %call1.i59 = tail call noundef nonnull align 8 dereferenceable(8) ptr @_ZSt16__ostream_insertIcSt11char_traitsIcEERSt13basic_ostreamIT_T0_ES6_PKS3_l(ptr noundef nonnull align 8 dereferenceable(8) @_ZSt4cout, ptr noundef nonnull @.str.32, i64 noundef 26)
  %call.i61 = tail call noundef nonnull align 8 dereferenceable(8) ptr @_ZNSo9_M_insertIdEERSoT_(ptr noundef nonnull align 8 dereferenceable(8) @_ZSt4cout, double noundef %value)
  %call1.i63 = tail call noundef nonnull align 8 dereferenceable(8) ptr @_ZSt16__ostream_insertIcSt11char_traitsIcEERSt13basic_ostreamIT_T0_ES6_PKS3_l(ptr noundef nonnull align 8 dereferenceable(8) %call.i61, ptr noundef nonnull @.str.33, i64 noundef 12)
  %call.i65 = tail call noundef nonnull align 8 dereferenceable(8) ptr @_ZNSo9_M_insertIdEERSoT_(ptr noundef nonnull align 8 dereferenceable(8) %call.i61, double noundef %expected_value)
  br label %if.end20

if.end20:                                         ; preds = %if.end, %if.then14, %if.then
  %vtable.i67 = load ptr, ptr @_ZSt4cout, align 8, !tbaa !8
  %vbase.offset.ptr.i68 = getelementptr i8, ptr %vtable.i67, i64 -24
  %vbase.offset.i69 = load i64, ptr %vbase.offset.ptr.i68, align 8
  %add.ptr.i70 = getelementptr inbounds i8, ptr @_ZSt4cout, i64 %vbase.offset.i69
  %_M_ctype.i.i = getelementptr inbounds %"class.std::basic_ios", ptr %add.ptr.i70, i64 0, i32 5
  %3 = load ptr, ptr %_M_ctype.i.i, align 8, !tbaa !19
  %tobool.not.i.i.i = icmp eq ptr %3, null
  br i1 %tobool.not.i.i.i, label %if.then.i.i.i, label %_ZSt13__check_facetISt5ctypeIcEERKT_PS3_.exit.i.i

if.then.i.i.i:                                    ; preds = %if.end20
  tail call void @_ZSt16__throw_bad_castv() #21
  unreachable

_ZSt13__check_facetISt5ctypeIcEERKT_PS3_.exit.i.i: ; preds = %if.end20
  %_M_widen_ok.i.i.i = getelementptr inbounds %"class.std::ctype", ptr %3, i64 0, i32 8
  %4 = load i8, ptr %_M_widen_ok.i.i.i, align 8, !tbaa !22
  %tobool.not.i3.i.i = icmp eq i8 %4, 0
  br i1 %tobool.not.i3.i.i, label %if.end.i.i.i, label %if.then.i4.i.i

if.then.i4.i.i:                                   ; preds = %_ZSt13__check_facetISt5ctypeIcEERKT_PS3_.exit.i.i
  %arrayidx.i.i.i = getelementptr inbounds %"class.std::ctype", ptr %3, i64 0, i32 9, i64 10
  %5 = load i8, ptr %arrayidx.i.i.i, align 1, !tbaa !5
  br label %_ZSt4endlIcSt11char_traitsIcEERSt13basic_ostreamIT_T0_ES6_.exit

if.end.i.i.i:                                     ; preds = %_ZSt13__check_facetISt5ctypeIcEERKT_PS3_.exit.i.i
  tail call void @_ZNKSt5ctypeIcE13_M_widen_initEv(ptr noundef nonnull align 8 dereferenceable(570) %3)
  %vtable.i.i.i = load ptr, ptr %3, align 8, !tbaa !8
  %vfn.i.i.i = getelementptr inbounds ptr, ptr %vtable.i.i.i, i64 6
  %6 = load ptr, ptr %vfn.i.i.i, align 8
  %call.i.i.i = tail call noundef signext i8 %6(ptr noundef nonnull align 8 dereferenceable(570) %3, i8 noundef signext 10)
  br label %_ZSt4endlIcSt11char_traitsIcEERSt13basic_ostreamIT_T0_ES6_.exit

_ZSt4endlIcSt11char_traitsIcEERSt13basic_ostreamIT_T0_ES6_.exit: ; preds = %if.then.i4.i.i, %if.end.i.i.i
  %retval.0.i.i.i = phi i8 [ %5, %if.then.i4.i.i ], [ %call.i.i.i, %if.end.i.i.i ]
  %call1.i71 = tail call noundef nonnull align 8 dereferenceable(8) ptr @_ZNSo3putEc(ptr noundef nonnull align 8 dereferenceable(8) @_ZSt4cout, i8 noundef signext %retval.0.i.i.i)
  %call.i.i72 = tail call noundef nonnull align 8 dereferenceable(8) ptr @_ZNSo5flushEv(ptr noundef nonnull align 8 dereferenceable(8) %call1.i71)
  ret i1 %brmerge
}

; Function Attrs: mustprogress uwtable
define internal fastcc noundef zeroext i1 @_ZL35check_and_print_value_and_alignmentIiEbPKcS1_jPKvT_S4_(ptr noundef %variant, ptr noundef %label, i32 noundef %expected_alignment, ptr noundef %p, i32 noundef %value, i32 noundef %expected_value) unnamed_addr #5 {
entry:
  %0 = ptrtoint ptr %p to i64
  %conv.i = zext i32 %expected_alignment to i64
  %sub.i = add nsw i64 %conv.i, -1
  %and.i = and i64 %sub.i, %0
  %cmp.i = icmp ne i64 %and.i, 0
  %cmp = icmp ne i32 %value, %expected_value
  %tobool.not.i = icmp eq ptr %variant, null
  br i1 %tobool.not.i, label %if.then.i, label %if.else.i

if.then.i:                                        ; preds = %entry
  %vtable.i = load ptr, ptr @_ZSt4cout, align 8, !tbaa !8
  %vbase.offset.ptr.i = getelementptr i8, ptr %vtable.i, i64 -24
  %vbase.offset.i = load i64, ptr %vbase.offset.ptr.i, align 8
  %add.ptr.i = getelementptr inbounds i8, ptr @_ZSt4cout, i64 %vbase.offset.i
  %_M_streambuf_state.i.i.i = getelementptr inbounds %"class.std::ios_base", ptr %add.ptr.i, i64 0, i32 5
  %1 = load i32, ptr %_M_streambuf_state.i.i.i, align 8, !tbaa !10
  %or.i.i.i = or i32 %1, 1
  tail call void @_ZNSt9basic_iosIcSt11char_traitsIcEE5clearESt12_Ios_Iostate(ptr noundef nonnull align 8 dereferenceable(264) %add.ptr.i, i32 noundef %or.i.i.i)
  br label %_ZStlsISt11char_traitsIcEERSt13basic_ostreamIcT_ES5_PKc.exit

if.else.i:                                        ; preds = %entry
  %call.i.i = tail call i64 @strlen(ptr noundef nonnull dereferenceable(1) %variant) #20
  %call1.i = tail call noundef nonnull align 8 dereferenceable(8) ptr @_ZSt16__ostream_insertIcSt11char_traitsIcEERSt13basic_ostreamIT_T0_ES6_PKS3_l(ptr noundef nonnull align 8 dereferenceable(8) @_ZSt4cout, ptr noundef nonnull %variant, i64 noundef %call.i.i)
  br label %_ZStlsISt11char_traitsIcEERSt13basic_ostreamIcT_ES5_PKc.exit

_ZStlsISt11char_traitsIcEERSt13basic_ostreamIcT_ES5_PKc.exit: ; preds = %if.then.i, %if.else.i
  %call1.i33 = tail call noundef nonnull align 8 dereferenceable(8) ptr @_ZSt16__ostream_insertIcSt11char_traitsIcEERSt13basic_ostreamIT_T0_ES6_PKS3_l(ptr noundef nonnull align 8 dereferenceable(8) @_ZSt4cout, ptr noundef nonnull @.str.28, i64 noundef 2)
  %tobool.not.i35 = icmp eq ptr %label, null
  br i1 %tobool.not.i35, label %if.then.i42, label %if.else.i45

if.then.i42:                                      ; preds = %_ZStlsISt11char_traitsIcEERSt13basic_ostreamIcT_ES5_PKc.exit
  %vtable.i36 = load ptr, ptr @_ZSt4cout, align 8, !tbaa !8
  %vbase.offset.ptr.i37 = getelementptr i8, ptr %vtable.i36, i64 -24
  %vbase.offset.i38 = load i64, ptr %vbase.offset.ptr.i37, align 8
  %add.ptr.i39 = getelementptr inbounds i8, ptr @_ZSt4cout, i64 %vbase.offset.i38
  %_M_streambuf_state.i.i.i40 = getelementptr inbounds %"class.std::ios_base", ptr %add.ptr.i39, i64 0, i32 5
  %2 = load i32, ptr %_M_streambuf_state.i.i.i40, align 8, !tbaa !10
  %or.i.i.i41 = or i32 %2, 1
  tail call void @_ZNSt9basic_iosIcSt11char_traitsIcEE5clearESt12_Ios_Iostate(ptr noundef nonnull align 8 dereferenceable(264) %add.ptr.i39, i32 noundef %or.i.i.i41)
  br label %_ZStlsISt11char_traitsIcEERSt13basic_ostreamIcT_ES5_PKc.exit46

if.else.i45:                                      ; preds = %_ZStlsISt11char_traitsIcEERSt13basic_ostreamIcT_ES5_PKc.exit
  %call.i.i43 = tail call i64 @strlen(ptr noundef nonnull dereferenceable(1) %label) #20
  %call1.i44 = tail call noundef nonnull align 8 dereferenceable(8) ptr @_ZSt16__ostream_insertIcSt11char_traitsIcEERSt13basic_ostreamIT_T0_ES6_PKS3_l(ptr noundef nonnull align 8 dereferenceable(8) @_ZSt4cout, ptr noundef nonnull %label, i64 noundef %call.i.i43)
  br label %_ZStlsISt11char_traitsIcEERSt13basic_ostreamIcT_ES5_PKc.exit46

_ZStlsISt11char_traitsIcEERSt13basic_ostreamIcT_ES5_PKc.exit46: ; preds = %if.then.i42, %if.else.i45
  %call1.i48 = tail call noundef nonnull align 8 dereferenceable(8) ptr @_ZSt16__ostream_insertIcSt11char_traitsIcEERSt13basic_ostreamIT_T0_ES6_PKS3_l(ptr noundef nonnull align 8 dereferenceable(8) @_ZSt4cout, ptr noundef nonnull @.str.29, i64 noundef 13)
  %call.i = tail call noundef nonnull align 8 dereferenceable(8) ptr @_ZNSo9_M_insertImEERSoT_(ptr noundef nonnull align 8 dereferenceable(8) @_ZSt4cout, i64 noundef %conv.i)
  %brmerge = or i1 %cmp.i, %cmp
  br i1 %brmerge, label %if.else, label %if.then

if.then:                                          ; preds = %_ZStlsISt11char_traitsIcEERSt13basic_ostreamIcT_ES5_PKc.exit46
  %call1.i52 = tail call noundef nonnull align 8 dereferenceable(8) ptr @_ZSt16__ostream_insertIcSt11char_traitsIcEERSt13basic_ostreamIT_T0_ES6_PKS3_l(ptr noundef nonnull align 8 dereferenceable(8) @_ZSt4cout, ptr noundef nonnull @.str.30, i64 noundef 3)
  br label %if.end20

if.else:                                          ; preds = %_ZStlsISt11char_traitsIcEERSt13basic_ostreamIcT_ES5_PKc.exit46
  br i1 %cmp.i, label %if.then10, label %if.end

if.then10:                                        ; preds = %if.else
  %call1.i55 = tail call noundef nonnull align 8 dereferenceable(8) ptr @_ZSt16__ostream_insertIcSt11char_traitsIcEERSt13basic_ostreamIT_T0_ES6_PKS3_l(ptr noundef nonnull align 8 dereferenceable(8) @_ZSt4cout, ptr noundef nonnull @.str.31, i64 noundef 28)
  %call.i57 = tail call noundef nonnull align 8 dereferenceable(8) ptr @_ZNSo9_M_insertIPKvEERSoT_(ptr noundef nonnull align 8 dereferenceable(8) @_ZSt4cout, ptr noundef %p)
  br label %if.end

if.end:                                           ; preds = %if.then10, %if.else
  br i1 %cmp, label %if.then14, label %if.end20

if.then14:                                        ; preds = %if.end
  %call1.i59 = tail call noundef nonnull align 8 dereferenceable(8) ptr @_ZSt16__ostream_insertIcSt11char_traitsIcEERSt13basic_ostreamIT_T0_ES6_PKS3_l(ptr noundef nonnull align 8 dereferenceable(8) @_ZSt4cout, ptr noundef nonnull @.str.32, i64 noundef 26)
  %call16 = tail call noundef nonnull align 8 dereferenceable(8) ptr @_ZNSolsEi(ptr noundef nonnull align 8 dereferenceable(8) @_ZSt4cout, i32 noundef %value)
  %call1.i62 = tail call noundef nonnull align 8 dereferenceable(8) ptr @_ZSt16__ostream_insertIcSt11char_traitsIcEERSt13basic_ostreamIT_T0_ES6_PKS3_l(ptr noundef nonnull align 8 dereferenceable(8) %call16, ptr noundef nonnull @.str.33, i64 noundef 12)
  %call18 = tail call noundef nonnull align 8 dereferenceable(8) ptr @_ZNSolsEi(ptr noundef nonnull align 8 dereferenceable(8) %call16, i32 noundef %expected_value)
  br label %if.end20

if.end20:                                         ; preds = %if.end, %if.then14, %if.then
  %vtable.i65 = load ptr, ptr @_ZSt4cout, align 8, !tbaa !8
  %vbase.offset.ptr.i66 = getelementptr i8, ptr %vtable.i65, i64 -24
  %vbase.offset.i67 = load i64, ptr %vbase.offset.ptr.i66, align 8
  %add.ptr.i68 = getelementptr inbounds i8, ptr @_ZSt4cout, i64 %vbase.offset.i67
  %_M_ctype.i.i = getelementptr inbounds %"class.std::basic_ios", ptr %add.ptr.i68, i64 0, i32 5
  %3 = load ptr, ptr %_M_ctype.i.i, align 8, !tbaa !19
  %tobool.not.i.i.i = icmp eq ptr %3, null
  br i1 %tobool.not.i.i.i, label %if.then.i.i.i, label %_ZSt13__check_facetISt5ctypeIcEERKT_PS3_.exit.i.i

if.then.i.i.i:                                    ; preds = %if.end20
  tail call void @_ZSt16__throw_bad_castv() #21
  unreachable

_ZSt13__check_facetISt5ctypeIcEERKT_PS3_.exit.i.i: ; preds = %if.end20
  %_M_widen_ok.i.i.i = getelementptr inbounds %"class.std::ctype", ptr %3, i64 0, i32 8
  %4 = load i8, ptr %_M_widen_ok.i.i.i, align 8, !tbaa !22
  %tobool.not.i3.i.i = icmp eq i8 %4, 0
  br i1 %tobool.not.i3.i.i, label %if.end.i.i.i, label %if.then.i4.i.i

if.then.i4.i.i:                                   ; preds = %_ZSt13__check_facetISt5ctypeIcEERKT_PS3_.exit.i.i
  %arrayidx.i.i.i = getelementptr inbounds %"class.std::ctype", ptr %3, i64 0, i32 9, i64 10
  %5 = load i8, ptr %arrayidx.i.i.i, align 1, !tbaa !5
  br label %_ZSt4endlIcSt11char_traitsIcEERSt13basic_ostreamIT_T0_ES6_.exit

if.end.i.i.i:                                     ; preds = %_ZSt13__check_facetISt5ctypeIcEERKT_PS3_.exit.i.i
  tail call void @_ZNKSt5ctypeIcE13_M_widen_initEv(ptr noundef nonnull align 8 dereferenceable(570) %3)
  %vtable.i.i.i = load ptr, ptr %3, align 8, !tbaa !8
  %vfn.i.i.i = getelementptr inbounds ptr, ptr %vtable.i.i.i, i64 6
  %6 = load ptr, ptr %vfn.i.i.i, align 8
  %call.i.i.i = tail call noundef signext i8 %6(ptr noundef nonnull align 8 dereferenceable(570) %3, i8 noundef signext 10)
  br label %_ZSt4endlIcSt11char_traitsIcEERSt13basic_ostreamIT_T0_ES6_.exit

_ZSt4endlIcSt11char_traitsIcEERSt13basic_ostreamIT_T0_ES6_.exit: ; preds = %if.then.i4.i.i, %if.end.i.i.i
  %retval.0.i.i.i = phi i8 [ %5, %if.then.i4.i.i ], [ %call.i.i.i, %if.end.i.i.i ]
  %call1.i69 = tail call noundef nonnull align 8 dereferenceable(8) ptr @_ZNSo3putEc(ptr noundef nonnull align 8 dereferenceable(8) @_ZSt4cout, i8 noundef signext %retval.0.i.i.i)
  %call.i.i70 = tail call noundef nonnull align 8 dereferenceable(8) ptr @_ZNSo5flushEv(ptr noundef nonnull align 8 dereferenceable(8) %call1.i69)
  ret i1 %brmerge
}

; Function Attrs: mustprogress uwtable
define internal fastcc noundef zeroext i1 @_ZL35check_and_print_value_and_alignmentIcEbPKcS1_jPKvT_S4_(ptr noundef %variant, ptr noundef %label, i32 noundef %expected_alignment, ptr noundef %p, i8 noundef signext %value, i8 noundef signext %expected_value) unnamed_addr #5 {
entry:
  %__c.addr.i72 = alloca i8, align 1
  %__c.addr.i = alloca i8, align 1
  %0 = ptrtoint ptr %p to i64
  %conv.i = zext i32 %expected_alignment to i64
  %sub.i = add nsw i64 %conv.i, -1
  %and.i = and i64 %sub.i, %0
  %cmp.i = icmp ne i64 %and.i, 0
  %cmp = icmp ne i8 %value, %expected_value
  %tobool.not.i = icmp eq ptr %variant, null
  br i1 %tobool.not.i, label %if.then.i, label %if.else.i

if.then.i:                                        ; preds = %entry
  %vtable.i = load ptr, ptr @_ZSt4cout, align 8, !tbaa !8
  %vbase.offset.ptr.i = getelementptr i8, ptr %vtable.i, i64 -24
  %vbase.offset.i = load i64, ptr %vbase.offset.ptr.i, align 8
  %add.ptr.i = getelementptr inbounds i8, ptr @_ZSt4cout, i64 %vbase.offset.i
  %_M_streambuf_state.i.i.i = getelementptr inbounds %"class.std::ios_base", ptr %add.ptr.i, i64 0, i32 5
  %1 = load i32, ptr %_M_streambuf_state.i.i.i, align 8, !tbaa !10
  %or.i.i.i = or i32 %1, 1
  tail call void @_ZNSt9basic_iosIcSt11char_traitsIcEE5clearESt12_Ios_Iostate(ptr noundef nonnull align 8 dereferenceable(264) %add.ptr.i, i32 noundef %or.i.i.i)
  br label %_ZStlsISt11char_traitsIcEERSt13basic_ostreamIcT_ES5_PKc.exit

if.else.i:                                        ; preds = %entry
  %call.i.i = tail call i64 @strlen(ptr noundef nonnull dereferenceable(1) %variant) #20
  %call1.i = tail call noundef nonnull align 8 dereferenceable(8) ptr @_ZSt16__ostream_insertIcSt11char_traitsIcEERSt13basic_ostreamIT_T0_ES6_PKS3_l(ptr noundef nonnull align 8 dereferenceable(8) @_ZSt4cout, ptr noundef nonnull %variant, i64 noundef %call.i.i)
  br label %_ZStlsISt11char_traitsIcEERSt13basic_ostreamIcT_ES5_PKc.exit

_ZStlsISt11char_traitsIcEERSt13basic_ostreamIcT_ES5_PKc.exit: ; preds = %if.then.i, %if.else.i
  %call1.i34 = tail call noundef nonnull align 8 dereferenceable(8) ptr @_ZSt16__ostream_insertIcSt11char_traitsIcEERSt13basic_ostreamIT_T0_ES6_PKS3_l(ptr noundef nonnull align 8 dereferenceable(8) @_ZSt4cout, ptr noundef nonnull @.str.28, i64 noundef 2)
  %tobool.not.i36 = icmp eq ptr %label, null
  br i1 %tobool.not.i36, label %if.then.i43, label %if.else.i46

if.then.i43:                                      ; preds = %_ZStlsISt11char_traitsIcEERSt13basic_ostreamIcT_ES5_PKc.exit
  %vtable.i37 = load ptr, ptr @_ZSt4cout, align 8, !tbaa !8
  %vbase.offset.ptr.i38 = getelementptr i8, ptr %vtable.i37, i64 -24
  %vbase.offset.i39 = load i64, ptr %vbase.offset.ptr.i38, align 8
  %add.ptr.i40 = getelementptr inbounds i8, ptr @_ZSt4cout, i64 %vbase.offset.i39
  %_M_streambuf_state.i.i.i41 = getelementptr inbounds %"class.std::ios_base", ptr %add.ptr.i40, i64 0, i32 5
  %2 = load i32, ptr %_M_streambuf_state.i.i.i41, align 8, !tbaa !10
  %or.i.i.i42 = or i32 %2, 1
  tail call void @_ZNSt9basic_iosIcSt11char_traitsIcEE5clearESt12_Ios_Iostate(ptr noundef nonnull align 8 dereferenceable(264) %add.ptr.i40, i32 noundef %or.i.i.i42)
  br label %_ZStlsISt11char_traitsIcEERSt13basic_ostreamIcT_ES5_PKc.exit47

if.else.i46:                                      ; preds = %_ZStlsISt11char_traitsIcEERSt13basic_ostreamIcT_ES5_PKc.exit
  %call.i.i44 = tail call i64 @strlen(ptr noundef nonnull dereferenceable(1) %label) #20
  %call1.i45 = tail call noundef nonnull align 8 dereferenceable(8) ptr @_ZSt16__ostream_insertIcSt11char_traitsIcEERSt13basic_ostreamIT_T0_ES6_PKS3_l(ptr noundef nonnull align 8 dereferenceable(8) @_ZSt4cout, ptr noundef nonnull %label, i64 noundef %call.i.i44)
  br label %_ZStlsISt11char_traitsIcEERSt13basic_ostreamIcT_ES5_PKc.exit47

_ZStlsISt11char_traitsIcEERSt13basic_ostreamIcT_ES5_PKc.exit47: ; preds = %if.then.i43, %if.else.i46
  %call1.i49 = tail call noundef nonnull align 8 dereferenceable(8) ptr @_ZSt16__ostream_insertIcSt11char_traitsIcEERSt13basic_ostreamIT_T0_ES6_PKS3_l(ptr noundef nonnull align 8 dereferenceable(8) @_ZSt4cout, ptr noundef nonnull @.str.29, i64 noundef 13)
  %call.i = tail call noundef nonnull align 8 dereferenceable(8) ptr @_ZNSo9_M_insertImEERSoT_(ptr noundef nonnull align 8 dereferenceable(8) @_ZSt4cout, i64 noundef %conv.i)
  %brmerge = or i1 %cmp.i, %cmp
  br i1 %brmerge, label %if.else, label %if.then

if.then:                                          ; preds = %_ZStlsISt11char_traitsIcEERSt13basic_ostreamIcT_ES5_PKc.exit47
  %call1.i53 = tail call noundef nonnull align 8 dereferenceable(8) ptr @_ZSt16__ostream_insertIcSt11char_traitsIcEERSt13basic_ostreamIT_T0_ES6_PKS3_l(ptr noundef nonnull align 8 dereferenceable(8) @_ZSt4cout, ptr noundef nonnull @.str.30, i64 noundef 3)
  br label %if.end21

if.else:                                          ; preds = %_ZStlsISt11char_traitsIcEERSt13basic_ostreamIcT_ES5_PKc.exit47
  br i1 %cmp.i, label %if.then11, label %if.end

if.then11:                                        ; preds = %if.else
  %call1.i56 = tail call noundef nonnull align 8 dereferenceable(8) ptr @_ZSt16__ostream_insertIcSt11char_traitsIcEERSt13basic_ostreamIT_T0_ES6_PKS3_l(ptr noundef nonnull align 8 dereferenceable(8) @_ZSt4cout, ptr noundef nonnull @.str.31, i64 noundef 28)
  %call.i58 = tail call noundef nonnull align 8 dereferenceable(8) ptr @_ZNSo9_M_insertIPKvEERSoT_(ptr noundef nonnull align 8 dereferenceable(8) @_ZSt4cout, ptr noundef %p)
  br label %if.end

if.end:                                           ; preds = %if.then11, %if.else
  br i1 %cmp, label %if.then15, label %if.end21

if.then15:                                        ; preds = %if.end
  %call1.i60 = tail call noundef nonnull align 8 dereferenceable(8) ptr @_ZSt16__ostream_insertIcSt11char_traitsIcEERSt13basic_ostreamIT_T0_ES6_PKS3_l(ptr noundef nonnull align 8 dereferenceable(8) @_ZSt4cout, ptr noundef nonnull @.str.32, i64 noundef 26)
  call void @llvm.lifetime.start.p0(i64 1, ptr nonnull %__c.addr.i)
  store i8 %value, ptr %__c.addr.i, align 1, !tbaa !5
  %vtable.i62 = load ptr, ptr @_ZSt4cout, align 8, !tbaa !8
  %vbase.offset.ptr.i63 = getelementptr i8, ptr %vtable.i62, i64 -24
  %vbase.offset.i64 = load i64, ptr %vbase.offset.ptr.i63, align 8
  %add.ptr.i65 = getelementptr inbounds i8, ptr @_ZSt4cout, i64 %vbase.offset.i64
  %_M_width.i.i = getelementptr inbounds %"class.std::ios_base", ptr %add.ptr.i65, i64 0, i32 2
  %3 = load i64, ptr %_M_width.i.i, align 8, !tbaa !25
  %cmp.not.i = icmp eq i64 %3, 0
  br i1 %cmp.not.i, label %if.end.i, label %if.then.i67

if.then.i67:                                      ; preds = %if.then15
  %call1.i66 = call noundef nonnull align 8 dereferenceable(8) ptr @_ZSt16__ostream_insertIcSt11char_traitsIcEERSt13basic_ostreamIT_T0_ES6_PKS3_l(ptr noundef nonnull align 8 dereferenceable(8) @_ZSt4cout, ptr noundef nonnull %__c.addr.i, i64 noundef 1)
  br label %_ZStlsISt11char_traitsIcEERSt13basic_ostreamIcT_ES5_c.exit

if.end.i:                                         ; preds = %if.then15
  %call2.i = tail call noundef nonnull align 8 dereferenceable(8) ptr @_ZNSo3putEc(ptr noundef nonnull align 8 dereferenceable(8) @_ZSt4cout, i8 noundef signext %value)
  br label %_ZStlsISt11char_traitsIcEERSt13basic_ostreamIcT_ES5_c.exit

_ZStlsISt11char_traitsIcEERSt13basic_ostreamIcT_ES5_c.exit: ; preds = %if.then.i67, %if.end.i
  %retval.0.i = phi ptr [ %call1.i66, %if.then.i67 ], [ @_ZSt4cout, %if.end.i ]
  call void @llvm.lifetime.end.p0(i64 1, ptr nonnull %__c.addr.i)
  %call1.i69 = call noundef nonnull align 8 dereferenceable(8) ptr @_ZSt16__ostream_insertIcSt11char_traitsIcEERSt13basic_ostreamIT_T0_ES6_PKS3_l(ptr noundef nonnull align 8 dereferenceable(8) %retval.0.i, ptr noundef nonnull @.str.33, i64 noundef 12)
  call void @llvm.lifetime.start.p0(i64 1, ptr nonnull %__c.addr.i72)
  store i8 %expected_value, ptr %__c.addr.i72, align 1, !tbaa !5
  %vtable.i73 = load ptr, ptr %retval.0.i, align 8, !tbaa !8
  %vbase.offset.ptr.i74 = getelementptr i8, ptr %vtable.i73, i64 -24
  %vbase.offset.i75 = load i64, ptr %vbase.offset.ptr.i74, align 8
  %add.ptr.i76 = getelementptr inbounds i8, ptr %retval.0.i, i64 %vbase.offset.i75
  %_M_width.i.i77 = getelementptr inbounds %"class.std::ios_base", ptr %add.ptr.i76, i64 0, i32 2
  %4 = load i64, ptr %_M_width.i.i77, align 8, !tbaa !25
  %cmp.not.i78 = icmp eq i64 %4, 0
  br i1 %cmp.not.i78, label %if.end.i82, label %if.then.i80

if.then.i80:                                      ; preds = %_ZStlsISt11char_traitsIcEERSt13basic_ostreamIcT_ES5_c.exit
  %call1.i79 = call noundef nonnull align 8 dereferenceable(8) ptr @_ZSt16__ostream_insertIcSt11char_traitsIcEERSt13basic_ostreamIT_T0_ES6_PKS3_l(ptr noundef nonnull align 8 dereferenceable(8) %retval.0.i, ptr noundef nonnull %__c.addr.i72, i64 noundef 1)
  br label %_ZStlsISt11char_traitsIcEERSt13basic_ostreamIcT_ES5_c.exit84

if.end.i82:                                       ; preds = %_ZStlsISt11char_traitsIcEERSt13basic_ostreamIcT_ES5_c.exit
  %call2.i81 = call noundef nonnull align 8 dereferenceable(8) ptr @_ZNSo3putEc(ptr noundef nonnull align 8 dereferenceable(8) %retval.0.i, i8 noundef signext %expected_value)
  br label %_ZStlsISt11char_traitsIcEERSt13basic_ostreamIcT_ES5_c.exit84

_ZStlsISt11char_traitsIcEERSt13basic_ostreamIcT_ES5_c.exit84: ; preds = %if.then.i80, %if.end.i82
  call void @llvm.lifetime.end.p0(i64 1, ptr nonnull %__c.addr.i72)
  br label %if.end21

if.end21:                                         ; preds = %if.end, %_ZStlsISt11char_traitsIcEERSt13basic_ostreamIcT_ES5_c.exit84, %if.then
  %vtable.i86 = load ptr, ptr @_ZSt4cout, align 8, !tbaa !8
  %vbase.offset.ptr.i87 = getelementptr i8, ptr %vtable.i86, i64 -24
  %vbase.offset.i88 = load i64, ptr %vbase.offset.ptr.i87, align 8
  %add.ptr.i89 = getelementptr inbounds i8, ptr @_ZSt4cout, i64 %vbase.offset.i88
  %_M_ctype.i.i = getelementptr inbounds %"class.std::basic_ios", ptr %add.ptr.i89, i64 0, i32 5
  %5 = load ptr, ptr %_M_ctype.i.i, align 8, !tbaa !19
  %tobool.not.i.i.i = icmp eq ptr %5, null
  br i1 %tobool.not.i.i.i, label %if.then.i.i.i, label %_ZSt13__check_facetISt5ctypeIcEERKT_PS3_.exit.i.i

if.then.i.i.i:                                    ; preds = %if.end21
  call void @_ZSt16__throw_bad_castv() #21
  unreachable

_ZSt13__check_facetISt5ctypeIcEERKT_PS3_.exit.i.i: ; preds = %if.end21
  %_M_widen_ok.i.i.i = getelementptr inbounds %"class.std::ctype", ptr %5, i64 0, i32 8
  %6 = load i8, ptr %_M_widen_ok.i.i.i, align 8, !tbaa !22
  %tobool.not.i3.i.i = icmp eq i8 %6, 0
  br i1 %tobool.not.i3.i.i, label %if.end.i.i.i, label %if.then.i4.i.i

if.then.i4.i.i:                                   ; preds = %_ZSt13__check_facetISt5ctypeIcEERKT_PS3_.exit.i.i
  %arrayidx.i.i.i = getelementptr inbounds %"class.std::ctype", ptr %5, i64 0, i32 9, i64 10
  %7 = load i8, ptr %arrayidx.i.i.i, align 1, !tbaa !5
  br label %_ZSt4endlIcSt11char_traitsIcEERSt13basic_ostreamIT_T0_ES6_.exit

if.end.i.i.i:                                     ; preds = %_ZSt13__check_facetISt5ctypeIcEERKT_PS3_.exit.i.i
  call void @_ZNKSt5ctypeIcE13_M_widen_initEv(ptr noundef nonnull align 8 dereferenceable(570) %5)
  %vtable.i.i.i = load ptr, ptr %5, align 8, !tbaa !8
  %vfn.i.i.i = getelementptr inbounds ptr, ptr %vtable.i.i.i, i64 6
  %8 = load ptr, ptr %vfn.i.i.i, align 8
  %call.i.i.i = call noundef signext i8 %8(ptr noundef nonnull align 8 dereferenceable(570) %5, i8 noundef signext 10)
  br label %_ZSt4endlIcSt11char_traitsIcEERSt13basic_ostreamIT_T0_ES6_.exit

_ZSt4endlIcSt11char_traitsIcEERSt13basic_ostreamIT_T0_ES6_.exit: ; preds = %if.then.i4.i.i, %if.end.i.i.i
  %retval.0.i.i.i = phi i8 [ %7, %if.then.i4.i.i ], [ %call.i.i.i, %if.end.i.i.i ]
  %call1.i90 = call noundef nonnull align 8 dereferenceable(8) ptr @_ZNSo3putEc(ptr noundef nonnull align 8 dereferenceable(8) @_ZSt4cout, i8 noundef signext %retval.0.i.i.i)
  %call.i.i91 = call noundef nonnull align 8 dereferenceable(8) ptr @_ZNSo5flushEv(ptr noundef nonnull align 8 dereferenceable(8) %call1.i90)
  ret i1 %brmerge
}

; Function Attrs: mustprogress nocallback nofree nosync nounwind willreturn memory(argmem: readwrite)
declare void @llvm.lifetime.end.p0(i64 immarg, ptr nocapture) #4

; Function Attrs: mustprogress nocallback nofree nounwind willreturn memory(argmem: readwrite)
declare void @llvm.memcpy.p0.p0.i64(ptr noalias nocapture writeonly, ptr noalias nocapture readonly, i64, i1 immarg) #6

declare i32 @__gxx_personality_v0(...)

; Function Attrs: nounwind uwtable
define linkonce_odr dso_local void @_ZNSt6vectorIPKcSaIS1_EED2Ev(ptr noundef nonnull align 8 dereferenceable(24) %this) unnamed_addr #7 comdat align 2 personality ptr @__gxx_personality_v0 {
entry:
  %0 = load ptr, ptr %this, align 8, !tbaa !26
  %tobool.not.i.i = icmp eq ptr %0, null
  br i1 %tobool.not.i.i, label %_ZNSt12_Vector_baseIPKcSaIS1_EED2Ev.exit, label %if.then.i.i

if.then.i.i:                                      ; preds = %entry
  tail call void @_ZdlPv(ptr noundef nonnull %0) #22
  br label %_ZNSt12_Vector_baseIPKcSaIS1_EED2Ev.exit

_ZNSt12_Vector_baseIPKcSaIS1_EED2Ev.exit:         ; preds = %entry, %if.then.i.i
  ret void
}

; Function Attrs: uwtable
define dso_local void @_Z24getTestDescriptionStringB5cxx11bbbbb(ptr noalias sret(%"class.std::__cxx11::basic_string") align 8 %agg.result, i1 noundef zeroext %overaligned_locals, i1 noundef zeroext %with_vla, i1 noundef zeroext %force_callee_save_and_spills, i1 noundef zeroext %ensure_args_go_on_stack, i1 noundef zeroext %throw_exception) local_unnamed_addr #8 personality ptr @__gxx_personality_v0 {
_ZNSt7__cxx1112basic_stringIcSt11char_traitsIcESaIcEE6appendEPKc.exit.i:
  %ref.tmp = alloca %"class.std::__cxx11::basic_string", align 8
  %ref.tmp5 = alloca %"class.std::__cxx11::basic_string", align 8
  %ref.tmp6 = alloca %"class.std::__cxx11::basic_string", align 8
  %ref.tmp7 = alloca %"class.std::__cxx11::basic_string", align 8
  %ref.tmp8 = alloca %"class.std::__cxx11::basic_string", align 8
  call void @llvm.lifetime.start.p0(i64 32, ptr nonnull %ref.tmp) #20
  call void @llvm.lifetime.start.p0(i64 32, ptr nonnull %ref.tmp5) #20
  call void @llvm.lifetime.start.p0(i64 32, ptr nonnull %ref.tmp6) #20
  call void @llvm.lifetime.start.p0(i64 32, ptr nonnull %ref.tmp7) #20
  call void @llvm.lifetime.start.p0(i64 32, ptr nonnull %ref.tmp8) #20
  %0 = getelementptr inbounds %"class.std::__cxx11::basic_string", ptr %ref.tmp8, i64 0, i32 2
  store ptr %0, ptr %ref.tmp8, align 8, !tbaa !28
  %_M_string_length.i.i.i.i = getelementptr inbounds %"class.std::__cxx11::basic_string", ptr %ref.tmp8, i64 0, i32 1
  store i64 0, ptr %_M_string_length.i.i.i.i, align 8, !tbaa !30
  store i8 0, ptr %0, align 8, !tbaa !5
  %.str.26..str.27 = select i1 %overaligned_locals, ptr @.str.26, ptr @.str.27
  %call2.i.i62 = invoke noundef nonnull align 8 dereferenceable(32) ptr @_ZNSt7__cxx1112basic_stringIcSt11char_traitsIcESaIcEE9_M_appendEPKcm(ptr noundef nonnull align 8 dereferenceable(32) %ref.tmp8, ptr noundef nonnull %.str.26..str.27, i64 noundef 1)
          to label %call2.i.i.noexc unwind label %lpad10

call2.i.i.noexc:                                  ; preds = %_ZNSt7__cxx1112basic_stringIcSt11char_traitsIcESaIcEE6appendEPKc.exit.i
  %1 = getelementptr inbounds %"class.std::__cxx11::basic_string", ptr %ref.tmp7, i64 0, i32 2
  store ptr %1, ptr %ref.tmp7, align 8, !tbaa !28, !alias.scope !32
  %2 = load ptr, ptr %call2.i.i62, align 8, !tbaa !35
  %3 = getelementptr inbounds %"class.std::__cxx11::basic_string", ptr %call2.i.i62, i64 0, i32 2
  %cmp.i.i1.i = icmp eq ptr %2, %3
  br i1 %cmp.i.i1.i, label %if.then.i.i61, label %if.else.i.i

if.then.i.i61:                                    ; preds = %call2.i.i.noexc
  %_M_string_length.i.i.i = getelementptr inbounds %"class.std::__cxx11::basic_string", ptr %call2.i.i62, i64 0, i32 1
  %4 = load i64, ptr %_M_string_length.i.i.i, align 8, !tbaa !30
  %add.i.i = add i64 %4, 1
  %cmp.i21.i.i = icmp eq i64 %add.i.i, 0
  br i1 %cmp.i21.i.i, label %_ZStplIcSt11char_traitsIcESaIcEENSt7__cxx1112basic_stringIT_T0_T1_EEOS8_PKS5_.exit, label %if.end.i.i.i

if.end.i.i.i:                                     ; preds = %if.then.i.i61
  call void @llvm.memcpy.p0.p0.i64(ptr nonnull align 8 %1, ptr nonnull align 8 %2, i64 %add.i.i, i1 false)
  br label %_ZStplIcSt11char_traitsIcESaIcEENSt7__cxx1112basic_stringIT_T0_T1_EEOS8_PKS5_.exit

if.else.i.i:                                      ; preds = %call2.i.i.noexc
  store ptr %2, ptr %ref.tmp7, align 8, !tbaa !35, !alias.scope !32
  %5 = load i64, ptr %3, align 8, !tbaa !5
  store i64 %5, ptr %1, align 8, !tbaa !5, !alias.scope !32
  br label %_ZStplIcSt11char_traitsIcESaIcEENSt7__cxx1112basic_stringIT_T0_T1_EEOS8_PKS5_.exit

_ZStplIcSt11char_traitsIcESaIcEENSt7__cxx1112basic_stringIT_T0_T1_EEOS8_PKS5_.exit: ; preds = %if.then.i.i61, %if.end.i.i.i, %if.else.i.i
  %_M_string_length.i22.i.i = getelementptr inbounds %"class.std::__cxx11::basic_string", ptr %call2.i.i62, i64 0, i32 1
  %6 = load i64, ptr %_M_string_length.i22.i.i, align 8, !tbaa !30
  %_M_string_length.i23.i.i = getelementptr inbounds %"class.std::__cxx11::basic_string", ptr %ref.tmp7, i64 0, i32 1
  store i64 %6, ptr %_M_string_length.i23.i.i, align 8, !tbaa !30, !alias.scope !32
  store ptr %3, ptr %call2.i.i62, align 8, !tbaa !35
  store i64 0, ptr %_M_string_length.i22.i.i, align 8, !tbaa !30
  store i8 0, ptr %3, align 8, !tbaa !5
  call void @llvm.experimental.noalias.scope.decl(metadata !36)
  %7 = load i64, ptr %_M_string_length.i23.i.i, align 8, !tbaa !30, !noalias !36
  %cmp.i.i.i66 = icmp eq i64 %7, 4611686018427387903
  br i1 %cmp.i.i.i66, label %if.then.i.i.i67, label %_ZNSt7__cxx1112basic_stringIcSt11char_traitsIcESaIcEE6appendEPKc.exit.i69

if.then.i.i.i67:                                  ; preds = %_ZStplIcSt11char_traitsIcESaIcEENSt7__cxx1112basic_stringIT_T0_T1_EEOS8_PKS5_.exit
  invoke void @_ZSt20__throw_length_errorPKc(ptr noundef nonnull @.str.36) #21
          to label %.noexc78 unwind label %lpad18

.noexc78:                                         ; preds = %if.then.i.i.i67
  unreachable

_ZNSt7__cxx1112basic_stringIcSt11char_traitsIcESaIcEE6appendEPKc.exit.i69: ; preds = %_ZStplIcSt11char_traitsIcESaIcEENSt7__cxx1112basic_stringIT_T0_T1_EEOS8_PKS5_.exit
  %.str.26..str.2755 = select i1 %with_vla, ptr @.str.26, ptr @.str.27
  %call2.i.i80 = invoke noundef nonnull align 8 dereferenceable(32) ptr @_ZNSt7__cxx1112basic_stringIcSt11char_traitsIcESaIcEE9_M_appendEPKcm(ptr noundef nonnull align 8 dereferenceable(32) %ref.tmp7, ptr noundef nonnull %.str.26..str.2755, i64 noundef 1)
          to label %call2.i.i.noexc79 unwind label %lpad18

call2.i.i.noexc79:                                ; preds = %_ZNSt7__cxx1112basic_stringIcSt11char_traitsIcESaIcEE6appendEPKc.exit.i69
  %8 = getelementptr inbounds %"class.std::__cxx11::basic_string", ptr %ref.tmp6, i64 0, i32 2
  store ptr %8, ptr %ref.tmp6, align 8, !tbaa !28, !alias.scope !36
  %9 = load ptr, ptr %call2.i.i80, align 8, !tbaa !35
  %10 = getelementptr inbounds %"class.std::__cxx11::basic_string", ptr %call2.i.i80, i64 0, i32 2
  %cmp.i.i1.i68 = icmp eq ptr %9, %10
  br i1 %cmp.i.i1.i68, label %if.then.i.i73, label %if.else.i.i75

if.then.i.i73:                                    ; preds = %call2.i.i.noexc79
  %_M_string_length.i.i.i70 = getelementptr inbounds %"class.std::__cxx11::basic_string", ptr %call2.i.i80, i64 0, i32 1
  %11 = load i64, ptr %_M_string_length.i.i.i70, align 8, !tbaa !30
  %add.i.i71 = add i64 %11, 1
  %cmp.i21.i.i72 = icmp eq i64 %add.i.i71, 0
  br i1 %cmp.i21.i.i72, label %_ZStplIcSt11char_traitsIcESaIcEENSt7__cxx1112basic_stringIT_T0_T1_EEOS8_PKS5_.exit81, label %if.end.i.i.i74

if.end.i.i.i74:                                   ; preds = %if.then.i.i73
  call void @llvm.memcpy.p0.p0.i64(ptr nonnull align 8 %8, ptr nonnull align 8 %9, i64 %add.i.i71, i1 false)
  br label %_ZStplIcSt11char_traitsIcESaIcEENSt7__cxx1112basic_stringIT_T0_T1_EEOS8_PKS5_.exit81

if.else.i.i75:                                    ; preds = %call2.i.i.noexc79
  store ptr %9, ptr %ref.tmp6, align 8, !tbaa !35, !alias.scope !36
  %12 = load i64, ptr %10, align 8, !tbaa !5
  store i64 %12, ptr %8, align 8, !tbaa !5, !alias.scope !36
  br label %_ZStplIcSt11char_traitsIcESaIcEENSt7__cxx1112basic_stringIT_T0_T1_EEOS8_PKS5_.exit81

_ZStplIcSt11char_traitsIcESaIcEENSt7__cxx1112basic_stringIT_T0_T1_EEOS8_PKS5_.exit81: ; preds = %if.then.i.i73, %if.end.i.i.i74, %if.else.i.i75
  %_M_string_length.i22.i.i76 = getelementptr inbounds %"class.std::__cxx11::basic_string", ptr %call2.i.i80, i64 0, i32 1
  %13 = load i64, ptr %_M_string_length.i22.i.i76, align 8, !tbaa !30
  %_M_string_length.i23.i.i77 = getelementptr inbounds %"class.std::__cxx11::basic_string", ptr %ref.tmp6, i64 0, i32 1
  store i64 %13, ptr %_M_string_length.i23.i.i77, align 8, !tbaa !30, !alias.scope !36
  store ptr %10, ptr %call2.i.i80, align 8, !tbaa !35
  store i64 0, ptr %_M_string_length.i22.i.i76, align 8, !tbaa !30
  store i8 0, ptr %10, align 8, !tbaa !5
  call void @llvm.experimental.noalias.scope.decl(metadata !39)
  %14 = load i64, ptr %_M_string_length.i23.i.i77, align 8, !tbaa !30, !noalias !39
  %cmp.i.i.i85 = icmp eq i64 %14, 4611686018427387903
  br i1 %cmp.i.i.i85, label %if.then.i.i.i86, label %_ZNSt7__cxx1112basic_stringIcSt11char_traitsIcESaIcEE6appendEPKc.exit.i88

if.then.i.i.i86:                                  ; preds = %_ZStplIcSt11char_traitsIcESaIcEENSt7__cxx1112basic_stringIT_T0_T1_EEOS8_PKS5_.exit81
  invoke void @_ZSt20__throw_length_errorPKc(ptr noundef nonnull @.str.36) #21
          to label %.noexc97 unwind label %lpad26

.noexc97:                                         ; preds = %if.then.i.i.i86
  unreachable

_ZNSt7__cxx1112basic_stringIcSt11char_traitsIcESaIcEE6appendEPKc.exit.i88: ; preds = %_ZStplIcSt11char_traitsIcESaIcEENSt7__cxx1112basic_stringIT_T0_T1_EEOS8_PKS5_.exit81
  %.str.26..str.2756 = select i1 %force_callee_save_and_spills, ptr @.str.26, ptr @.str.27
  %call2.i.i99 = invoke noundef nonnull align 8 dereferenceable(32) ptr @_ZNSt7__cxx1112basic_stringIcSt11char_traitsIcESaIcEE9_M_appendEPKcm(ptr noundef nonnull align 8 dereferenceable(32) %ref.tmp6, ptr noundef nonnull %.str.26..str.2756, i64 noundef 1)
          to label %call2.i.i.noexc98 unwind label %lpad26

call2.i.i.noexc98:                                ; preds = %_ZNSt7__cxx1112basic_stringIcSt11char_traitsIcESaIcEE6appendEPKc.exit.i88
  %15 = getelementptr inbounds %"class.std::__cxx11::basic_string", ptr %ref.tmp5, i64 0, i32 2
  store ptr %15, ptr %ref.tmp5, align 8, !tbaa !28, !alias.scope !39
  %16 = load ptr, ptr %call2.i.i99, align 8, !tbaa !35
  %17 = getelementptr inbounds %"class.std::__cxx11::basic_string", ptr %call2.i.i99, i64 0, i32 2
  %cmp.i.i1.i87 = icmp eq ptr %16, %17
  br i1 %cmp.i.i1.i87, label %if.then.i.i92, label %if.else.i.i94

if.then.i.i92:                                    ; preds = %call2.i.i.noexc98
  %_M_string_length.i.i.i89 = getelementptr inbounds %"class.std::__cxx11::basic_string", ptr %call2.i.i99, i64 0, i32 1
  %18 = load i64, ptr %_M_string_length.i.i.i89, align 8, !tbaa !30
  %add.i.i90 = add i64 %18, 1
  %cmp.i21.i.i91 = icmp eq i64 %add.i.i90, 0
  br i1 %cmp.i21.i.i91, label %_ZStplIcSt11char_traitsIcESaIcEENSt7__cxx1112basic_stringIT_T0_T1_EEOS8_PKS5_.exit100, label %if.end.i.i.i93

if.end.i.i.i93:                                   ; preds = %if.then.i.i92
  call void @llvm.memcpy.p0.p0.i64(ptr nonnull align 8 %15, ptr nonnull align 8 %16, i64 %add.i.i90, i1 false)
  br label %_ZStplIcSt11char_traitsIcESaIcEENSt7__cxx1112basic_stringIT_T0_T1_EEOS8_PKS5_.exit100

if.else.i.i94:                                    ; preds = %call2.i.i.noexc98
  store ptr %16, ptr %ref.tmp5, align 8, !tbaa !35, !alias.scope !39
  %19 = load i64, ptr %17, align 8, !tbaa !5
  store i64 %19, ptr %15, align 8, !tbaa !5, !alias.scope !39
  br label %_ZStplIcSt11char_traitsIcESaIcEENSt7__cxx1112basic_stringIT_T0_T1_EEOS8_PKS5_.exit100

_ZStplIcSt11char_traitsIcESaIcEENSt7__cxx1112basic_stringIT_T0_T1_EEOS8_PKS5_.exit100: ; preds = %if.then.i.i92, %if.end.i.i.i93, %if.else.i.i94
  %_M_string_length.i22.i.i95 = getelementptr inbounds %"class.std::__cxx11::basic_string", ptr %call2.i.i99, i64 0, i32 1
  %20 = load i64, ptr %_M_string_length.i22.i.i95, align 8, !tbaa !30
  %_M_string_length.i23.i.i96 = getelementptr inbounds %"class.std::__cxx11::basic_string", ptr %ref.tmp5, i64 0, i32 1
  store i64 %20, ptr %_M_string_length.i23.i.i96, align 8, !tbaa !30, !alias.scope !39
  store ptr %17, ptr %call2.i.i99, align 8, !tbaa !35
  store i64 0, ptr %_M_string_length.i22.i.i95, align 8, !tbaa !30
  store i8 0, ptr %17, align 8, !tbaa !5
  call void @llvm.experimental.noalias.scope.decl(metadata !42)
  %21 = load i64, ptr %_M_string_length.i23.i.i96, align 8, !tbaa !30, !noalias !42
  %cmp.i.i.i104 = icmp eq i64 %21, 4611686018427387903
  br i1 %cmp.i.i.i104, label %if.then.i.i.i105, label %_ZNSt7__cxx1112basic_stringIcSt11char_traitsIcESaIcEE6appendEPKc.exit.i107

if.then.i.i.i105:                                 ; preds = %_ZStplIcSt11char_traitsIcESaIcEENSt7__cxx1112basic_stringIT_T0_T1_EEOS8_PKS5_.exit100
  invoke void @_ZSt20__throw_length_errorPKc(ptr noundef nonnull @.str.36) #21
          to label %.noexc116 unwind label %lpad34

.noexc116:                                        ; preds = %if.then.i.i.i105
  unreachable

_ZNSt7__cxx1112basic_stringIcSt11char_traitsIcESaIcEE6appendEPKc.exit.i107: ; preds = %_ZStplIcSt11char_traitsIcESaIcEENSt7__cxx1112basic_stringIT_T0_T1_EEOS8_PKS5_.exit100
  %.str.26..str.2757 = select i1 %ensure_args_go_on_stack, ptr @.str.26, ptr @.str.27
  %call2.i.i118 = invoke noundef nonnull align 8 dereferenceable(32) ptr @_ZNSt7__cxx1112basic_stringIcSt11char_traitsIcESaIcEE9_M_appendEPKcm(ptr noundef nonnull align 8 dereferenceable(32) %ref.tmp5, ptr noundef nonnull %.str.26..str.2757, i64 noundef 1)
          to label %call2.i.i.noexc117 unwind label %lpad34

call2.i.i.noexc117:                               ; preds = %_ZNSt7__cxx1112basic_stringIcSt11char_traitsIcESaIcEE6appendEPKc.exit.i107
  %22 = getelementptr inbounds %"class.std::__cxx11::basic_string", ptr %ref.tmp, i64 0, i32 2
  store ptr %22, ptr %ref.tmp, align 8, !tbaa !28, !alias.scope !42
  %23 = load ptr, ptr %call2.i.i118, align 8, !tbaa !35
  %24 = getelementptr inbounds %"class.std::__cxx11::basic_string", ptr %call2.i.i118, i64 0, i32 2
  %cmp.i.i1.i106 = icmp eq ptr %23, %24
  br i1 %cmp.i.i1.i106, label %if.then.i.i111, label %if.else.i.i113

if.then.i.i111:                                   ; preds = %call2.i.i.noexc117
  %_M_string_length.i.i.i108 = getelementptr inbounds %"class.std::__cxx11::basic_string", ptr %call2.i.i118, i64 0, i32 1
  %25 = load i64, ptr %_M_string_length.i.i.i108, align 8, !tbaa !30
  %add.i.i109 = add i64 %25, 1
  %cmp.i21.i.i110 = icmp eq i64 %add.i.i109, 0
  br i1 %cmp.i21.i.i110, label %_ZStplIcSt11char_traitsIcESaIcEENSt7__cxx1112basic_stringIT_T0_T1_EEOS8_PKS5_.exit119, label %if.end.i.i.i112

if.end.i.i.i112:                                  ; preds = %if.then.i.i111
  call void @llvm.memcpy.p0.p0.i64(ptr nonnull align 8 %22, ptr nonnull align 8 %23, i64 %add.i.i109, i1 false)
  br label %_ZStplIcSt11char_traitsIcESaIcEENSt7__cxx1112basic_stringIT_T0_T1_EEOS8_PKS5_.exit119

if.else.i.i113:                                   ; preds = %call2.i.i.noexc117
  store ptr %23, ptr %ref.tmp, align 8, !tbaa !35, !alias.scope !42
  %26 = load i64, ptr %24, align 8, !tbaa !5
  store i64 %26, ptr %22, align 8, !tbaa !5, !alias.scope !42
  br label %_ZStplIcSt11char_traitsIcESaIcEENSt7__cxx1112basic_stringIT_T0_T1_EEOS8_PKS5_.exit119

_ZStplIcSt11char_traitsIcESaIcEENSt7__cxx1112basic_stringIT_T0_T1_EEOS8_PKS5_.exit119: ; preds = %if.then.i.i111, %if.end.i.i.i112, %if.else.i.i113
  %_M_string_length.i22.i.i114 = getelementptr inbounds %"class.std::__cxx11::basic_string", ptr %call2.i.i118, i64 0, i32 1
  %27 = load i64, ptr %_M_string_length.i22.i.i114, align 8, !tbaa !30
  %_M_string_length.i23.i.i115 = getelementptr inbounds %"class.std::__cxx11::basic_string", ptr %ref.tmp, i64 0, i32 1
  store i64 %27, ptr %_M_string_length.i23.i.i115, align 8, !tbaa !30, !alias.scope !42
  store ptr %24, ptr %call2.i.i118, align 8, !tbaa !35
  store i64 0, ptr %_M_string_length.i22.i.i114, align 8, !tbaa !30
  store i8 0, ptr %24, align 8, !tbaa !5
  call void @llvm.experimental.noalias.scope.decl(metadata !45)
  %28 = load i64, ptr %_M_string_length.i23.i.i115, align 8, !tbaa !30, !noalias !45
  %cmp.i.i.i123 = icmp eq i64 %28, 4611686018427387903
  br i1 %cmp.i.i.i123, label %if.then.i.i.i124, label %_ZNSt7__cxx1112basic_stringIcSt11char_traitsIcESaIcEE6appendEPKc.exit.i126

if.then.i.i.i124:                                 ; preds = %_ZStplIcSt11char_traitsIcESaIcEENSt7__cxx1112basic_stringIT_T0_T1_EEOS8_PKS5_.exit119
  invoke void @_ZSt20__throw_length_errorPKc(ptr noundef nonnull @.str.36) #21
          to label %.noexc135 unwind label %lpad42

.noexc135:                                        ; preds = %if.then.i.i.i124
  unreachable

_ZNSt7__cxx1112basic_stringIcSt11char_traitsIcESaIcEE6appendEPKc.exit.i126: ; preds = %_ZStplIcSt11char_traitsIcESaIcEENSt7__cxx1112basic_stringIT_T0_T1_EEOS8_PKS5_.exit119
  %.str.26..str.2758 = select i1 %throw_exception, ptr @.str.26, ptr @.str.27
  %call2.i.i137 = invoke noundef nonnull align 8 dereferenceable(32) ptr @_ZNSt7__cxx1112basic_stringIcSt11char_traitsIcESaIcEE9_M_appendEPKcm(ptr noundef nonnull align 8 dereferenceable(32) %ref.tmp, ptr noundef nonnull %.str.26..str.2758, i64 noundef 1)
          to label %call2.i.i.noexc136 unwind label %lpad42

call2.i.i.noexc136:                               ; preds = %_ZNSt7__cxx1112basic_stringIcSt11char_traitsIcESaIcEE6appendEPKc.exit.i126
  %29 = getelementptr inbounds %"class.std::__cxx11::basic_string", ptr %agg.result, i64 0, i32 2
  store ptr %29, ptr %agg.result, align 8, !tbaa !28, !alias.scope !45
  %30 = load ptr, ptr %call2.i.i137, align 8, !tbaa !35
  %31 = getelementptr inbounds %"class.std::__cxx11::basic_string", ptr %call2.i.i137, i64 0, i32 2
  %cmp.i.i1.i125 = icmp eq ptr %30, %31
  br i1 %cmp.i.i1.i125, label %if.then.i.i130, label %if.else.i.i132

if.then.i.i130:                                   ; preds = %call2.i.i.noexc136
  %_M_string_length.i.i.i127 = getelementptr inbounds %"class.std::__cxx11::basic_string", ptr %call2.i.i137, i64 0, i32 1
  %32 = load i64, ptr %_M_string_length.i.i.i127, align 8, !tbaa !30
  %add.i.i128 = add i64 %32, 1
  %cmp.i21.i.i129 = icmp eq i64 %add.i.i128, 0
  br i1 %cmp.i21.i.i129, label %_ZStplIcSt11char_traitsIcESaIcEENSt7__cxx1112basic_stringIT_T0_T1_EEOS8_PKS5_.exit138, label %if.end.i.i.i131

if.end.i.i.i131:                                  ; preds = %if.then.i.i130
  call void @llvm.memcpy.p0.p0.i64(ptr nonnull align 8 %29, ptr nonnull align 8 %30, i64 %add.i.i128, i1 false)
  br label %_ZStplIcSt11char_traitsIcESaIcEENSt7__cxx1112basic_stringIT_T0_T1_EEOS8_PKS5_.exit138

if.else.i.i132:                                   ; preds = %call2.i.i.noexc136
  store ptr %30, ptr %agg.result, align 8, !tbaa !35, !alias.scope !45
  %33 = load i64, ptr %31, align 8, !tbaa !5
  store i64 %33, ptr %29, align 8, !tbaa !5, !alias.scope !45
  br label %_ZStplIcSt11char_traitsIcESaIcEENSt7__cxx1112basic_stringIT_T0_T1_EEOS8_PKS5_.exit138

_ZStplIcSt11char_traitsIcESaIcEENSt7__cxx1112basic_stringIT_T0_T1_EEOS8_PKS5_.exit138: ; preds = %if.then.i.i130, %if.end.i.i.i131, %if.else.i.i132
  %_M_string_length.i22.i.i133 = getelementptr inbounds %"class.std::__cxx11::basic_string", ptr %call2.i.i137, i64 0, i32 1
  %34 = load i64, ptr %_M_string_length.i22.i.i133, align 8, !tbaa !30
  %_M_string_length.i23.i.i134 = getelementptr inbounds %"class.std::__cxx11::basic_string", ptr %agg.result, i64 0, i32 1
  store i64 %34, ptr %_M_string_length.i23.i.i134, align 8, !tbaa !30, !alias.scope !45
  store ptr %31, ptr %call2.i.i137, align 8, !tbaa !35
  store i64 0, ptr %_M_string_length.i22.i.i133, align 8, !tbaa !30
  store i8 0, ptr %31, align 8, !tbaa !5
  %35 = load ptr, ptr %ref.tmp, align 8, !tbaa !35
  %cmp.i.i.i139 = icmp eq ptr %35, %22
  br i1 %cmp.i.i.i139, label %_ZNSt7__cxx1112basic_stringIcSt11char_traitsIcESaIcEED2Ev.exit, label %if.then.i.i140

if.then.i.i140:                                   ; preds = %_ZStplIcSt11char_traitsIcESaIcEENSt7__cxx1112basic_stringIT_T0_T1_EEOS8_PKS5_.exit138
  call void @_ZdlPv(ptr noundef %35) #22
  br label %_ZNSt7__cxx1112basic_stringIcSt11char_traitsIcESaIcEED2Ev.exit

_ZNSt7__cxx1112basic_stringIcSt11char_traitsIcESaIcEED2Ev.exit: ; preds = %_ZStplIcSt11char_traitsIcESaIcEENSt7__cxx1112basic_stringIT_T0_T1_EEOS8_PKS5_.exit138, %if.then.i.i140
  %36 = load ptr, ptr %ref.tmp5, align 8, !tbaa !35
  %cmp.i.i.i141 = icmp eq ptr %36, %15
  br i1 %cmp.i.i.i141, label %_ZNSt7__cxx1112basic_stringIcSt11char_traitsIcESaIcEED2Ev.exit143, label %if.then.i.i142

if.then.i.i142:                                   ; preds = %_ZNSt7__cxx1112basic_stringIcSt11char_traitsIcESaIcEED2Ev.exit
  call void @_ZdlPv(ptr noundef %36) #22
  br label %_ZNSt7__cxx1112basic_stringIcSt11char_traitsIcESaIcEED2Ev.exit143

_ZNSt7__cxx1112basic_stringIcSt11char_traitsIcESaIcEED2Ev.exit143: ; preds = %_ZNSt7__cxx1112basic_stringIcSt11char_traitsIcESaIcEED2Ev.exit, %if.then.i.i142
  %37 = load ptr, ptr %ref.tmp6, align 8, !tbaa !35
  %cmp.i.i.i144 = icmp eq ptr %37, %8
  br i1 %cmp.i.i.i144, label %_ZNSt7__cxx1112basic_stringIcSt11char_traitsIcESaIcEED2Ev.exit146, label %if.then.i.i145

if.then.i.i145:                                   ; preds = %_ZNSt7__cxx1112basic_stringIcSt11char_traitsIcESaIcEED2Ev.exit143
  call void @_ZdlPv(ptr noundef %37) #22
  br label %_ZNSt7__cxx1112basic_stringIcSt11char_traitsIcESaIcEED2Ev.exit146

_ZNSt7__cxx1112basic_stringIcSt11char_traitsIcESaIcEED2Ev.exit146: ; preds = %_ZNSt7__cxx1112basic_stringIcSt11char_traitsIcESaIcEED2Ev.exit143, %if.then.i.i145
  %38 = load ptr, ptr %ref.tmp7, align 8, !tbaa !35
  %cmp.i.i.i147 = icmp eq ptr %38, %1
  br i1 %cmp.i.i.i147, label %_ZNSt7__cxx1112basic_stringIcSt11char_traitsIcESaIcEED2Ev.exit149, label %if.then.i.i148

if.then.i.i148:                                   ; preds = %_ZNSt7__cxx1112basic_stringIcSt11char_traitsIcESaIcEED2Ev.exit146
  call void @_ZdlPv(ptr noundef %38) #22
  br label %_ZNSt7__cxx1112basic_stringIcSt11char_traitsIcESaIcEED2Ev.exit149

_ZNSt7__cxx1112basic_stringIcSt11char_traitsIcESaIcEED2Ev.exit149: ; preds = %_ZNSt7__cxx1112basic_stringIcSt11char_traitsIcESaIcEED2Ev.exit146, %if.then.i.i148
  %39 = load ptr, ptr %ref.tmp8, align 8, !tbaa !35
  %cmp.i.i.i150 = icmp eq ptr %39, %0
  br i1 %cmp.i.i.i150, label %_ZNSt7__cxx1112basic_stringIcSt11char_traitsIcESaIcEED2Ev.exit152, label %if.then.i.i151

if.then.i.i151:                                   ; preds = %_ZNSt7__cxx1112basic_stringIcSt11char_traitsIcESaIcEED2Ev.exit149
  call void @_ZdlPv(ptr noundef %39) #22
  br label %_ZNSt7__cxx1112basic_stringIcSt11char_traitsIcESaIcEED2Ev.exit152

_ZNSt7__cxx1112basic_stringIcSt11char_traitsIcESaIcEED2Ev.exit152: ; preds = %_ZNSt7__cxx1112basic_stringIcSt11char_traitsIcESaIcEED2Ev.exit149, %if.then.i.i151
  call void @llvm.lifetime.end.p0(i64 32, ptr nonnull %ref.tmp8) #20
  call void @llvm.lifetime.end.p0(i64 32, ptr nonnull %ref.tmp7) #20
  call void @llvm.lifetime.end.p0(i64 32, ptr nonnull %ref.tmp6) #20
  call void @llvm.lifetime.end.p0(i64 32, ptr nonnull %ref.tmp5) #20
  call void @llvm.lifetime.end.p0(i64 32, ptr nonnull %ref.tmp) #20
  ret void

lpad10:                                           ; preds = %_ZNSt7__cxx1112basic_stringIcSt11char_traitsIcESaIcEE6appendEPKc.exit.i
  %40 = landingpad { ptr, i32 }
          cleanup
  br label %ehcleanup46

lpad18:                                           ; preds = %_ZNSt7__cxx1112basic_stringIcSt11char_traitsIcESaIcEE6appendEPKc.exit.i69, %if.then.i.i.i67
  %41 = landingpad { ptr, i32 }
          cleanup
  br label %ehcleanup45

lpad26:                                           ; preds = %_ZNSt7__cxx1112basic_stringIcSt11char_traitsIcESaIcEE6appendEPKc.exit.i88, %if.then.i.i.i86
  %42 = landingpad { ptr, i32 }
          cleanup
  br label %ehcleanup44

lpad34:                                           ; preds = %_ZNSt7__cxx1112basic_stringIcSt11char_traitsIcESaIcEE6appendEPKc.exit.i107, %if.then.i.i.i105
  %43 = landingpad { ptr, i32 }
          cleanup
  br label %ehcleanup

lpad42:                                           ; preds = %_ZNSt7__cxx1112basic_stringIcSt11char_traitsIcESaIcEE6appendEPKc.exit.i126, %if.then.i.i.i124
  %44 = landingpad { ptr, i32 }
          cleanup
  %45 = load ptr, ptr %ref.tmp, align 8, !tbaa !35
  %cmp.i.i.i153 = icmp eq ptr %45, %22
  br i1 %cmp.i.i.i153, label %ehcleanup, label %if.then.i.i154

if.then.i.i154:                                   ; preds = %lpad42
  call void @_ZdlPv(ptr noundef %45) #22
  br label %ehcleanup

ehcleanup:                                        ; preds = %if.then.i.i154, %lpad42, %lpad34
  %.pn = phi { ptr, i32 } [ %43, %lpad34 ], [ %44, %lpad42 ], [ %44, %if.then.i.i154 ]
  %46 = load ptr, ptr %ref.tmp5, align 8, !tbaa !35
  %cmp.i.i.i156 = icmp eq ptr %46, %15
  br i1 %cmp.i.i.i156, label %ehcleanup44, label %if.then.i.i157

if.then.i.i157:                                   ; preds = %ehcleanup
  call void @_ZdlPv(ptr noundef %46) #22
  br label %ehcleanup44

ehcleanup44:                                      ; preds = %if.then.i.i157, %ehcleanup, %lpad26
  %.pn.pn = phi { ptr, i32 } [ %42, %lpad26 ], [ %.pn, %ehcleanup ], [ %.pn, %if.then.i.i157 ]
  %47 = load ptr, ptr %ref.tmp6, align 8, !tbaa !35
  %cmp.i.i.i159 = icmp eq ptr %47, %8
  br i1 %cmp.i.i.i159, label %ehcleanup45, label %if.then.i.i160

if.then.i.i160:                                   ; preds = %ehcleanup44
  call void @_ZdlPv(ptr noundef %47) #22
  br label %ehcleanup45

ehcleanup45:                                      ; preds = %if.then.i.i160, %ehcleanup44, %lpad18
  %.pn.pn.pn = phi { ptr, i32 } [ %41, %lpad18 ], [ %.pn.pn, %ehcleanup44 ], [ %.pn.pn, %if.then.i.i160 ]
  %48 = load ptr, ptr %ref.tmp7, align 8, !tbaa !35
  %cmp.i.i.i162 = icmp eq ptr %48, %1
  br i1 %cmp.i.i.i162, label %ehcleanup46, label %if.then.i.i163

if.then.i.i163:                                   ; preds = %ehcleanup45
  call void @_ZdlPv(ptr noundef %48) #22
  br label %ehcleanup46

ehcleanup46:                                      ; preds = %if.then.i.i163, %ehcleanup45, %lpad10
  %.pn.pn.pn.pn = phi { ptr, i32 } [ %40, %lpad10 ], [ %.pn.pn.pn, %ehcleanup45 ], [ %.pn.pn.pn, %if.then.i.i163 ]
  %49 = load ptr, ptr %ref.tmp8, align 8, !tbaa !35
  %cmp.i.i.i165 = icmp eq ptr %49, %0
  br i1 %cmp.i.i.i165, label %ehcleanup47, label %if.then.i.i166

if.then.i.i166:                                   ; preds = %ehcleanup46
  call void @_ZdlPv(ptr noundef %49) #22
  br label %ehcleanup47

ehcleanup47:                                      ; preds = %if.then.i.i166, %ehcleanup46
  call void @llvm.lifetime.end.p0(i64 32, ptr nonnull %ref.tmp8) #20
  call void @llvm.lifetime.end.p0(i64 32, ptr nonnull %ref.tmp7) #20
  call void @llvm.lifetime.end.p0(i64 32, ptr nonnull %ref.tmp6) #20
  call void @llvm.lifetime.end.p0(i64 32, ptr nonnull %ref.tmp5) #20
  call void @llvm.lifetime.end.p0(i64 32, ptr nonnull %ref.tmp) #20
  resume { ptr, i32 } %.pn.pn.pn.pn
}

; Function Attrs: norecurse uwtable
define dso_local noundef i32 @main() local_unnamed_addr #9 {
entry:
  %dumping_ground = alloca i32, align 4
  call void @llvm.lifetime.start.p0(i64 4, ptr nonnull %dumping_ground) #20
  %0 = load ptr, ptr @_ZL21testDescriptionHeader, align 8, !tbaa !48
  %1 = load ptr, ptr getelementptr inbounds (%"class.std::vector", ptr @_ZL21testDescriptionHeader, i64 0, i32 0, i32 0, i32 0, i32 1), align 8, !tbaa !48
  %cmp.i.not300 = icmp eq ptr %0, %1
  br i1 %cmp.i.not300, label %for.cond.cleanup, label %for.body

for.cond.cleanup:                                 ; preds = %_ZSt4endlIcSt11char_traitsIcEERSt13basic_ostreamIT_T0_ES6_.exit, %entry
  %call8 = call noundef zeroext i1 @_Z19check_frame_variantILb1ELb0ELb0ELb0ELb0EEbiRVi(i32 noundef 42, ptr noundef nonnull align 4 dereferenceable(4) %dumping_ground)
  %call11 = call noundef zeroext i1 @_Z19check_frame_variantILb0ELb0ELb0ELb0ELb0EEbiRVi(i32 noundef 42, ptr noundef nonnull align 4 dereferenceable(4) %dumping_ground)
  %or15269 = or i1 %call8, %call11
  %call18 = call noundef zeroext i1 @_Z19check_frame_variantILb1ELb1ELb0ELb0ELb0EEbiRVi(i32 noundef 42, ptr noundef nonnull align 4 dereferenceable(4) %dumping_ground)
  %or22270 = or i1 %or15269, %call18
  %call25 = call noundef zeroext i1 @_Z19check_frame_variantILb0ELb1ELb0ELb0ELb0EEbiRVi(i32 noundef 42, ptr noundef nonnull align 4 dereferenceable(4) %dumping_ground)
  %or29271 = or i1 %or22270, %call25
  %call32 = call noundef zeroext i1 @_Z19check_frame_variantILb1ELb0ELb1ELb0ELb0EEbiRVi(i32 noundef 42, ptr noundef nonnull align 4 dereferenceable(4) %dumping_ground)
  %or36272 = or i1 %or29271, %call32
  %call39 = call noundef zeroext i1 @_Z19check_frame_variantILb0ELb0ELb1ELb0ELb0EEbiRVi(i32 noundef 42, ptr noundef nonnull align 4 dereferenceable(4) %dumping_ground)
  %or43273 = or i1 %or36272, %call39
  %call46 = call noundef zeroext i1 @_Z19check_frame_variantILb1ELb1ELb1ELb0ELb0EEbiRVi(i32 noundef 42, ptr noundef nonnull align 4 dereferenceable(4) %dumping_ground)
  %or50274 = or i1 %or43273, %call46
  %call53 = call noundef zeroext i1 @_Z19check_frame_variantILb0ELb1ELb1ELb0ELb0EEbiRVi(i32 noundef 42, ptr noundef nonnull align 4 dereferenceable(4) %dumping_ground)
  %or57275 = or i1 %or50274, %call53
  %call60 = call noundef zeroext i1 @_Z19check_frame_variantILb1ELb0ELb0ELb1ELb0EEbiRVi(i32 noundef 42, ptr noundef nonnull align 4 dereferenceable(4) %dumping_ground)
  %or64276 = or i1 %or57275, %call60
  %call67 = call noundef zeroext i1 @_Z19check_frame_variantILb0ELb0ELb0ELb1ELb0EEbiRVi(i32 noundef 42, ptr noundef nonnull align 4 dereferenceable(4) %dumping_ground)
  %or71277 = or i1 %or64276, %call67
  %call74 = call noundef zeroext i1 @_Z19check_frame_variantILb1ELb1ELb0ELb1ELb0EEbiRVi(i32 noundef 42, ptr noundef nonnull align 4 dereferenceable(4) %dumping_ground)
  %or78278 = or i1 %or71277, %call74
  %call81 = call noundef zeroext i1 @_Z19check_frame_variantILb0ELb1ELb0ELb1ELb0EEbiRVi(i32 noundef 42, ptr noundef nonnull align 4 dereferenceable(4) %dumping_ground)
  %or85279 = or i1 %or78278, %call81
  %call88 = call noundef zeroext i1 @_Z19check_frame_variantILb1ELb0ELb1ELb1ELb0EEbiRVi(i32 noundef 42, ptr noundef nonnull align 4 dereferenceable(4) %dumping_ground)
  %or92280 = or i1 %or85279, %call88
  %call95 = call noundef zeroext i1 @_Z19check_frame_variantILb0ELb0ELb1ELb1ELb0EEbiRVi(i32 noundef 42, ptr noundef nonnull align 4 dereferenceable(4) %dumping_ground)
  %or99281 = or i1 %or92280, %call95
  %call102 = call noundef zeroext i1 @_Z19check_frame_variantILb1ELb1ELb1ELb1ELb0EEbiRVi(i32 noundef 42, ptr noundef nonnull align 4 dereferenceable(4) %dumping_ground)
  %or106282 = or i1 %or99281, %call102
  %call109 = call noundef zeroext i1 @_Z19check_frame_variantILb0ELb1ELb1ELb1ELb0EEbiRVi(i32 noundef 42, ptr noundef nonnull align 4 dereferenceable(4) %dumping_ground)
  %or113283 = or i1 %or106282, %call109
  %call116 = call noundef zeroext i1 @_Z19check_frame_variantILb1ELb0ELb0ELb0ELb1EEbiRVi(i32 noundef 42, ptr noundef nonnull align 4 dereferenceable(4) %dumping_ground)
  %or120284 = or i1 %or113283, %call116
  %call123 = call noundef zeroext i1 @_Z19check_frame_variantILb0ELb0ELb0ELb0ELb1EEbiRVi(i32 noundef 42, ptr noundef nonnull align 4 dereferenceable(4) %dumping_ground)
  %or127285 = or i1 %or120284, %call123
  %call130 = call noundef zeroext i1 @_Z19check_frame_variantILb1ELb1ELb0ELb0ELb1EEbiRVi(i32 noundef 42, ptr noundef nonnull align 4 dereferenceable(4) %dumping_ground)
  %or134286 = or i1 %or127285, %call130
  %call137 = call noundef zeroext i1 @_Z19check_frame_variantILb0ELb1ELb0ELb0ELb1EEbiRVi(i32 noundef 42, ptr noundef nonnull align 4 dereferenceable(4) %dumping_ground)
  %or141287 = or i1 %or134286, %call137
  %call144 = call noundef zeroext i1 @_Z19check_frame_variantILb1ELb0ELb1ELb0ELb1EEbiRVi(i32 noundef 42, ptr noundef nonnull align 4 dereferenceable(4) %dumping_ground)
  %or148288 = or i1 %or141287, %call144
  %call151 = call noundef zeroext i1 @_Z19check_frame_variantILb0ELb0ELb1ELb0ELb1EEbiRVi(i32 noundef 42, ptr noundef nonnull align 4 dereferenceable(4) %dumping_ground)
  %or155289 = or i1 %or148288, %call151
  %call158 = call noundef zeroext i1 @_Z19check_frame_variantILb1ELb1ELb1ELb0ELb1EEbiRVi(i32 noundef 42, ptr noundef nonnull align 4 dereferenceable(4) %dumping_ground)
  %or162290 = or i1 %or155289, %call158
  %call165 = call noundef zeroext i1 @_Z19check_frame_variantILb0ELb1ELb1ELb0ELb1EEbiRVi(i32 noundef 42, ptr noundef nonnull align 4 dereferenceable(4) %dumping_ground)
  %or169291 = or i1 %or162290, %call165
  %call172 = call noundef zeroext i1 @_Z19check_frame_variantILb1ELb0ELb0ELb1ELb1EEbiRVi(i32 noundef 42, ptr noundef nonnull align 4 dereferenceable(4) %dumping_ground)
  %or176292 = or i1 %or169291, %call172
  %call179 = call noundef zeroext i1 @_Z19check_frame_variantILb0ELb0ELb0ELb1ELb1EEbiRVi(i32 noundef 42, ptr noundef nonnull align 4 dereferenceable(4) %dumping_ground)
  %or183293 = or i1 %or176292, %call179
  %call186 = call noundef zeroext i1 @_Z19check_frame_variantILb1ELb1ELb0ELb1ELb1EEbiRVi(i32 noundef 42, ptr noundef nonnull align 4 dereferenceable(4) %dumping_ground)
  %or190294 = or i1 %or183293, %call186
  %call193 = call noundef zeroext i1 @_Z19check_frame_variantILb0ELb1ELb0ELb1ELb1EEbiRVi(i32 noundef 42, ptr noundef nonnull align 4 dereferenceable(4) %dumping_ground)
  %or197295 = or i1 %or190294, %call193
  %call200 = call noundef zeroext i1 @_Z19check_frame_variantILb1ELb0ELb1ELb1ELb1EEbiRVi(i32 noundef 42, ptr noundef nonnull align 4 dereferenceable(4) %dumping_ground)
  %or204296 = or i1 %or197295, %call200
  %call207 = call noundef zeroext i1 @_Z19check_frame_variantILb0ELb0ELb1ELb1ELb1EEbiRVi(i32 noundef 42, ptr noundef nonnull align 4 dereferenceable(4) %dumping_ground)
  %or211297 = or i1 %or204296, %call207
  %call214 = call noundef zeroext i1 @_Z19check_frame_variantILb1ELb1ELb1ELb1ELb1EEbiRVi(i32 noundef 42, ptr noundef nonnull align 4 dereferenceable(4) %dumping_ground)
  %or218298 = or i1 %or211297, %call214
  %call221 = call noundef zeroext i1 @_Z19check_frame_variantILb0ELb1ELb1ELb1ELb1EEbiRVi(i32 noundef 42, ptr noundef nonnull align 4 dereferenceable(4) %dumping_ground)
  %or225299 = or i1 %or218298, %call221
  %cond = sext i1 %or225299 to i32
  call void @llvm.lifetime.end.p0(i64 4, ptr nonnull %dumping_ground) #20
  ret i32 %cond

for.body:                                         ; preds = %entry, %_ZSt4endlIcSt11char_traitsIcEERSt13basic_ostreamIT_T0_ES6_.exit
  %__begin1.sroa.0.0301 = phi ptr [ %incdec.ptr.i, %_ZSt4endlIcSt11char_traitsIcEERSt13basic_ostreamIT_T0_ES6_.exit ], [ %0, %entry ]
  %2 = load ptr, ptr %__begin1.sroa.0.0301, align 8, !tbaa !48
  %tobool.not.i = icmp eq ptr %2, null
  br i1 %tobool.not.i, label %if.then.i, label %if.else.i

if.then.i:                                        ; preds = %for.body
  %vtable.i = load ptr, ptr @_ZSt4cout, align 8, !tbaa !8
  %vbase.offset.ptr.i = getelementptr i8, ptr %vtable.i, i64 -24
  %vbase.offset.i = load i64, ptr %vbase.offset.ptr.i, align 8
  %add.ptr.i = getelementptr inbounds i8, ptr @_ZSt4cout, i64 %vbase.offset.i
  %_M_streambuf_state.i.i.i = getelementptr inbounds %"class.std::ios_base", ptr %add.ptr.i, i64 0, i32 5
  %3 = load i32, ptr %_M_streambuf_state.i.i.i, align 8, !tbaa !10
  %or.i.i.i = or i32 %3, 1
  tail call void @_ZNSt9basic_iosIcSt11char_traitsIcEE5clearESt12_Ios_Iostate(ptr noundef nonnull align 8 dereferenceable(264) %add.ptr.i, i32 noundef %or.i.i.i)
  br label %_ZStlsISt11char_traitsIcEERSt13basic_ostreamIcT_ES5_PKc.exit

if.else.i:                                        ; preds = %for.body
  %call.i.i = tail call i64 @strlen(ptr noundef nonnull dereferenceable(1) %2) #20
  %call1.i = tail call noundef nonnull align 8 dereferenceable(8) ptr @_ZSt16__ostream_insertIcSt11char_traitsIcEERSt13basic_ostreamIT_T0_ES6_PKS3_l(ptr noundef nonnull align 8 dereferenceable(8) @_ZSt4cout, ptr noundef nonnull %2, i64 noundef %call.i.i)
  br label %_ZStlsISt11char_traitsIcEERSt13basic_ostreamIcT_ES5_PKc.exit

_ZStlsISt11char_traitsIcEERSt13basic_ostreamIcT_ES5_PKc.exit: ; preds = %if.then.i, %if.else.i
  %vtable.i261 = load ptr, ptr @_ZSt4cout, align 8, !tbaa !8
  %vbase.offset.ptr.i262 = getelementptr i8, ptr %vtable.i261, i64 -24
  %vbase.offset.i263 = load i64, ptr %vbase.offset.ptr.i262, align 8
  %gep = getelementptr i8, ptr getelementptr inbounds (%"class.std::basic_ostream", ptr @_ZSt4cout, i64 0, i32 1, i32 4), i64 %vbase.offset.i263
  %4 = load ptr, ptr %gep, align 8, !tbaa !19
  %tobool.not.i.i.i = icmp eq ptr %4, null
  br i1 %tobool.not.i.i.i, label %if.then.i.i.i, label %_ZSt13__check_facetISt5ctypeIcEERKT_PS3_.exit.i.i

if.then.i.i.i:                                    ; preds = %_ZStlsISt11char_traitsIcEERSt13basic_ostreamIcT_ES5_PKc.exit
  tail call void @_ZSt16__throw_bad_castv() #21
  unreachable

_ZSt13__check_facetISt5ctypeIcEERKT_PS3_.exit.i.i: ; preds = %_ZStlsISt11char_traitsIcEERSt13basic_ostreamIcT_ES5_PKc.exit
  %_M_widen_ok.i.i.i = getelementptr inbounds %"class.std::ctype", ptr %4, i64 0, i32 8
  %5 = load i8, ptr %_M_widen_ok.i.i.i, align 8, !tbaa !22
  %tobool.not.i3.i.i = icmp eq i8 %5, 0
  br i1 %tobool.not.i3.i.i, label %if.end.i.i.i, label %if.then.i4.i.i

if.then.i4.i.i:                                   ; preds = %_ZSt13__check_facetISt5ctypeIcEERKT_PS3_.exit.i.i
  %arrayidx.i.i.i = getelementptr inbounds %"class.std::ctype", ptr %4, i64 0, i32 9, i64 10
  %6 = load i8, ptr %arrayidx.i.i.i, align 1, !tbaa !5
  br label %_ZSt4endlIcSt11char_traitsIcEERSt13basic_ostreamIT_T0_ES6_.exit

if.end.i.i.i:                                     ; preds = %_ZSt13__check_facetISt5ctypeIcEERKT_PS3_.exit.i.i
  tail call void @_ZNKSt5ctypeIcE13_M_widen_initEv(ptr noundef nonnull align 8 dereferenceable(570) %4)
  %vtable.i.i.i = load ptr, ptr %4, align 8, !tbaa !8
  %vfn.i.i.i = getelementptr inbounds ptr, ptr %vtable.i.i.i, i64 6
  %7 = load ptr, ptr %vfn.i.i.i, align 8
  %call.i.i.i = tail call noundef signext i8 %7(ptr noundef nonnull align 8 dereferenceable(570) %4, i8 noundef signext 10)
  br label %_ZSt4endlIcSt11char_traitsIcEERSt13basic_ostreamIT_T0_ES6_.exit

_ZSt4endlIcSt11char_traitsIcEERSt13basic_ostreamIT_T0_ES6_.exit: ; preds = %if.then.i4.i.i, %if.end.i.i.i
  %retval.0.i.i.i = phi i8 [ %6, %if.then.i4.i.i ], [ %call.i.i.i, %if.end.i.i.i ]
  %call1.i265 = tail call noundef nonnull align 8 dereferenceable(8) ptr @_ZNSo3putEc(ptr noundef nonnull align 8 dereferenceable(8) @_ZSt4cout, i8 noundef signext %retval.0.i.i.i)
  %call.i.i266 = tail call noundef nonnull align 8 dereferenceable(8) ptr @_ZNSo5flushEv(ptr noundef nonnull align 8 dereferenceable(8) %call1.i265)
  %incdec.ptr.i = getelementptr inbounds ptr, ptr %__begin1.sroa.0.0301, i64 1
  %cmp.i.not = icmp eq ptr %incdec.ptr.i, %1
  br i1 %cmp.i.not, label %for.cond.cleanup, label %for.body
}

; Function Attrs: noinline uwtable
define linkonce_odr dso_local noundef zeroext i1 @_Z19check_frame_variantILb1ELb0ELb0ELb0ELb0EEbiRVi(i32 noundef %seed, ptr noundef nonnull align 4 dereferenceable(4) %dumping_ground) local_unnamed_addr #3 comdat personality ptr @__gxx_personality_v0 {
entry:
  %trace = alloca [100 x %union.trace_element], align 16
  %test_description = alloca %"class.std::__cxx11::basic_string", align 8
  call void @llvm.lifetime.start.p0(i64 800, ptr nonnull %trace) #20
  call void @llvm.lifetime.start.p0(i64 32, ptr nonnull %test_description) #20
  call void @_Z24getTestDescriptionStringB5cxx11bbbbb(ptr nonnull sret(%"class.std::__cxx11::basic_string") align 8 %test_description, i1 noundef zeroext true, i1 noundef zeroext false, i1 noundef zeroext false, i1 noundef zeroext false, i1 noundef zeroext false)
  %conv = sitofp i32 %seed to double
  %add.i = fadd double %conv, %conv
  %add6.i = fadd double %add.i, %conv
  %add9.i = fadd double %add6.i, %conv
  %add12.i = fadd double %add9.i, %conv
  %add15.i = fadd double %add12.i, %conv
  %add18.i = fadd double %add15.i, %conv
  %add21.i = fadd double %add18.i, %conv
  %add24.i = fadd double %add21.i, %conv
  %add27.i = fadd double %add24.i, %conv
  %add30.i = fadd double %add27.i, %conv
  %add34.i = fadd double %add30.i, %conv
  %add38.i = fadd double %add34.i, %conv
  %add42.i = fadd double %add38.i, %conv
  %add45.i = fadd double %add42.i, %conv
  %add48.i = fadd double %add45.i, %conv
  %add52.i = fadd double %add48.i, %conv
  %add55.i = fadd double %add52.i, %conv
  %add58.i = fadd double %add55.i, %conv
  %add61.i = fadd double %add58.i, %conv
  %add64.i = fadd double %add61.i, %conv
  %add67.i = fadd double %add64.i, %conv
  %add70.i = fadd double %add67.i, %conv
  %add73.i = fadd double %add70.i, %conv
  %add77.i = fadd double %add73.i, %conv
  %add80.i = fadd double %add77.i, %conv
  %add83.i = fadd double %add80.i, %conv
  %add86.i = fadd double %add83.i, %conv
  %add89.i = fadd double %add86.i, %conv
  %add92.i = fadd double %add89.i, %conv
  %add95.i = fadd double %add92.i, %conv
  %add98.i = fadd double %add95.i, %conv
  %add101.i = fadd double %add98.i, %conv
  %add104.i = fadd double %add101.i, %conv
  %add107.i = fadd double %add104.i, %conv
  %add110.i = fadd double %add107.i, %conv
  %add113.i = fadd double %add110.i, %conv
  %add117.i = fadd double %add113.i, %conv
  %add120.i = fadd double %add117.i, %conv
  %add.i36 = shl nsw i32 %seed, 1
  %add6.i38 = mul nsw i32 %seed, 3
  %add9.i40 = shl nsw i32 %seed, 2
  %add12.i42 = mul nsw i32 %seed, 5
  %add15.i44 = mul nsw i32 %seed, 6
  %add18.i46 = mul nsw i32 %seed, 7
  %add21.i48 = shl nsw i32 %seed, 3
  %add24.i50 = mul nsw i32 %seed, 9
  %add27.i52 = mul nsw i32 %seed, 10
  %add30.i54 = mul nsw i32 %seed, 11
  %add34.i56 = mul nsw i32 %seed, 12
  %add38.i58 = mul nsw i32 %seed, 13
  %add42.i60 = mul nsw i32 %seed, 14
  %add45.i62 = mul nsw i32 %seed, 15
  %add48.i64 = shl nsw i32 %seed, 4
  %add52.i66 = mul nsw i32 %seed, 17
  %add55.i68 = mul nsw i32 %seed, 18
  %add58.i70 = mul nsw i32 %seed, 19
  %add61.i72 = mul nsw i32 %seed, 20
  %add64.i74 = mul nsw i32 %seed, 21
  %add67.i76 = mul nsw i32 %seed, 22
  %add70.i78 = mul nsw i32 %seed, 23
  %add73.i80 = mul nsw i32 %seed, 24
  %add77.i82 = mul nsw i32 %seed, 25
  %add80.i84 = mul nsw i32 %seed, 26
  %add83.i86 = mul nsw i32 %seed, 27
  %add86.i88 = mul nsw i32 %seed, 28
  %add89.i90 = mul nsw i32 %seed, 29
  %add92.i92 = mul nsw i32 %seed, 30
  %add95.i94 = mul nsw i32 %seed, 31
  %add98.i96 = shl nsw i32 %seed, 5
  %add101.i98 = mul nsw i32 %seed, 33
  %add104.i100 = mul nsw i32 %seed, 34
  %add107.i102 = mul nsw i32 %seed, 35
  %add110.i104 = mul nsw i32 %seed, 36
  %add113.i106 = mul nsw i32 %seed, 37
  %add117.i108 = mul nsw i32 %seed, 38
  %add120.i110 = mul nsw i32 %seed, 39
  %div.i = fdiv double %add120.i, %add117.i
  %div2.i = fdiv double %div.i, %add113.i
  %div3.i = fdiv double %div2.i, %add110.i
  %div4.i = fdiv double %div3.i, %add107.i
  %div5.i = fdiv double %div4.i, %add104.i
  %div6.i = fdiv double %div5.i, %add101.i
  %div7.i = fdiv double %div6.i, %add98.i
  %div8.i = fdiv double %div7.i, %add95.i
  %div9.i = fdiv double %div8.i, %add92.i
  %div10.i = fdiv double %div9.i, %add89.i
  %div11.i = fdiv double %div10.i, %add86.i
  %div12.i = fdiv double %div11.i, %add83.i
  %div13.i = fdiv double %div12.i, %add80.i
  %div14.i = fdiv double %div13.i, %add77.i
  %div15.i = fdiv double %div14.i, %add73.i
  %div16.i = fdiv double %div15.i, %add70.i
  %div17.i = fdiv double %div16.i, %add67.i
  %div18.i = fdiv double %div17.i, %add64.i
  %div19.i = fdiv double %div18.i, %add61.i
  %div20.i = fdiv double %div19.i, %add58.i
  %div21.i = fdiv double %div20.i, %add55.i
  %div22.i = fdiv double %div21.i, %add52.i
  %div23.i = fdiv double %div22.i, %add48.i
  %div24.i = fdiv double %div23.i, %add45.i
  %div25.i = fdiv double %div24.i, %add42.i
  %div26.i = fdiv double %div25.i, %add38.i
  %div27.i = fdiv double %div26.i, %add34.i
  %div28.i = fdiv double %div27.i, %add30.i
  %div29.i = fdiv double %div28.i, %add27.i
  %div30.i = fdiv double %div29.i, %add24.i
  %div31.i = fdiv double %div30.i, %add21.i
  %div32.i = fdiv double %div31.i, %add18.i
  %div33.i = fdiv double %div32.i, %add15.i
  %div34.i = fdiv double %div33.i, %add12.i
  %div35.i = fdiv double %div34.i, %add9.i
  %div36.i = fdiv double %div35.i, %add6.i
  %div37.i = fdiv double %div36.i, %add.i
  %div38.i = fdiv double %div37.i, %conv
  %div.i145 = sdiv i32 %add120.i110, %add117.i108
  %div2.i147 = sdiv i32 %div.i145, %add113.i106
  %div3.i149 = sdiv i32 %div2.i147, %add110.i104
  %div4.i151 = sdiv i32 %div3.i149, %add107.i102
  %div5.i153 = sdiv i32 %div4.i151, %add104.i100
  %div6.i155 = sdiv i32 %div5.i153, %add101.i98
  %div7.i157 = sdiv i32 %div6.i155, %add98.i96
  %div8.i159 = sdiv i32 %div7.i157, %add95.i94
  %div9.i161 = sdiv i32 %div8.i159, %add92.i92
  %div10.i163 = sdiv i32 %div9.i161, %add89.i90
  %div11.i165 = sdiv i32 %div10.i163, %add86.i88
  %div12.i167 = sdiv i32 %div11.i165, %add83.i86
  %div13.i169 = sdiv i32 %div12.i167, %add80.i84
  %div14.i171 = sdiv i32 %div13.i169, %add77.i82
  %div15.i173 = sdiv i32 %div14.i171, %add73.i80
  %div16.i175 = sdiv i32 %div15.i173, %add70.i78
  %div17.i177 = sdiv i32 %div16.i175, %add67.i76
  %div18.i179 = sdiv i32 %div17.i177, %add64.i74
  %div19.i181 = sdiv i32 %div18.i179, %add61.i72
  %div20.i183 = sdiv i32 %div19.i181, %add58.i70
  %div21.i185 = sdiv i32 %div20.i183, %add55.i68
  %div22.i187 = sdiv i32 %div21.i185, %add52.i66
  %div23.i189 = sdiv i32 %div22.i187, %add48.i64
  %div24.i191 = sdiv i32 %div23.i189, %add45.i62
  %div25.i193 = sdiv i32 %div24.i191, %add42.i60
  %div26.i195 = sdiv i32 %div25.i193, %add38.i58
  %div27.i197 = sdiv i32 %div26.i195, %add34.i56
  %div28.i199 = sdiv i32 %div27.i197, %add30.i54
  %div29.i201 = sdiv i32 %div28.i199, %add27.i52
  %div30.i203 = sdiv i32 %div29.i201, %add24.i50
  %div31.i205 = sdiv i32 %div30.i203, %add21.i48
  %div32.i207 = sdiv i32 %div31.i205, %add18.i46
  %div33.i209 = sdiv i32 %div32.i207, %add15.i44
  %div34.i211 = sdiv i32 %div33.i209, %add12.i42
  %div35.i213 = sdiv i32 %div34.i211, %add9.i40
  %div36.i215 = sdiv i32 %div35.i213, %add6.i38
  %div37.i217 = sdiv i32 %div36.i215, %add.i36
  %div38.i218 = sdiv i32 %div37.i217, %seed
  %conv4 = sitofp i32 %div38.i218 to double
  %add = fadd double %div38.i, %conv4
  call void @_Z10test_frameILj4096ELb0ELj2048ELb0ELb0EJEEvDpT4_jPKcP13trace_elementd(i32 noundef 100, ptr noundef nonnull @.str.37, ptr noundef nonnull %trace, double noundef %add)
  %0 = load double, ptr %trace, align 16, !tbaa !5
  %div.i220 = fdiv double %conv, %add.i
  %div2.i222 = fdiv double %div.i220, %add6.i
  %div3.i224 = fdiv double %div2.i222, %add9.i
  %div4.i226 = fdiv double %div3.i224, %add12.i
  %div5.i228 = fdiv double %div4.i226, %add15.i
  %div6.i230 = fdiv double %div5.i228, %add18.i
  %div7.i232 = fdiv double %div6.i230, %add21.i
  %div8.i234 = fdiv double %div7.i232, %add24.i
  %div9.i236 = fdiv double %div8.i234, %add27.i
  %div10.i238 = fdiv double %div9.i236, %add30.i
  %div11.i240 = fdiv double %div10.i238, %add34.i
  %div12.i242 = fdiv double %div11.i240, %add38.i
  %div13.i244 = fdiv double %div12.i242, %add42.i
  %div14.i246 = fdiv double %div13.i244, %add45.i
  %div15.i248 = fdiv double %div14.i246, %add48.i
  %div16.i250 = fdiv double %div15.i248, %add52.i
  %div17.i252 = fdiv double %div16.i250, %add55.i
  %div18.i254 = fdiv double %div17.i252, %add58.i
  %div19.i256 = fdiv double %div18.i254, %add61.i
  %div20.i258 = fdiv double %div19.i256, %add64.i
  %div21.i260 = fdiv double %div20.i258, %add67.i
  %div22.i262 = fdiv double %div21.i260, %add70.i
  %div23.i264 = fdiv double %div22.i262, %add73.i
  %div24.i266 = fdiv double %div23.i264, %add77.i
  %div25.i268 = fdiv double %div24.i266, %add80.i
  %div26.i270 = fdiv double %div25.i268, %add83.i
  %div27.i272 = fdiv double %div26.i270, %add86.i
  %div28.i274 = fdiv double %div27.i272, %add89.i
  %div29.i276 = fdiv double %div28.i274, %add92.i
  %div30.i278 = fdiv double %div29.i276, %add95.i
  %div31.i280 = fdiv double %div30.i278, %add98.i
  %div32.i282 = fdiv double %div31.i280, %add101.i
  %div33.i284 = fdiv double %div32.i282, %add104.i
  %div34.i286 = fdiv double %div33.i284, %add107.i
  %div35.i288 = fdiv double %div34.i286, %add110.i
  %div36.i290 = fdiv double %div35.i288, %add113.i
  %div37.i292 = fdiv double %div36.i290, %add117.i
  %div38.i294 = fdiv double %div37.i292, %add120.i
  %div39.i = fdiv double %div38.i294, %0
  %1 = bitcast double %0 to i64
  %2 = trunc i64 %1 to i32
  %div.i296 = sdiv i32 %seed, %add.i36
  %div2.i298 = sdiv i32 %div.i296, %add6.i38
  %div3.i300 = sdiv i32 %div2.i298, %add9.i40
  %div4.i302 = sdiv i32 %div3.i300, %add12.i42
  %div5.i304 = sdiv i32 %div4.i302, %add15.i44
  %div6.i306 = sdiv i32 %div5.i304, %add18.i46
  %div7.i308 = sdiv i32 %div6.i306, %add21.i48
  %div8.i310 = sdiv i32 %div7.i308, %add24.i50
  %div9.i312 = sdiv i32 %div8.i310, %add27.i52
  %div10.i314 = sdiv i32 %div9.i312, %add30.i54
  %div11.i316 = sdiv i32 %div10.i314, %add34.i56
  %div12.i318 = sdiv i32 %div11.i316, %add38.i58
  %div13.i320 = sdiv i32 %div12.i318, %add42.i60
  %div14.i322 = sdiv i32 %div13.i320, %add45.i62
  %div15.i324 = sdiv i32 %div14.i322, %add48.i64
  %div16.i326 = sdiv i32 %div15.i324, %add52.i66
  %div17.i328 = sdiv i32 %div16.i326, %add55.i68
  %div18.i330 = sdiv i32 %div17.i328, %add58.i70
  %div19.i332 = sdiv i32 %div18.i330, %add61.i72
  %div20.i334 = sdiv i32 %div19.i332, %add64.i74
  %div21.i336 = sdiv i32 %div20.i334, %add67.i76
  %div22.i338 = sdiv i32 %div21.i336, %add70.i78
  %div23.i340 = sdiv i32 %div22.i338, %add73.i80
  %div24.i342 = sdiv i32 %div23.i340, %add77.i82
  %div25.i344 = sdiv i32 %div24.i342, %add80.i84
  %div26.i346 = sdiv i32 %div25.i344, %add83.i86
  %div27.i348 = sdiv i32 %div26.i346, %add86.i88
  %div28.i350 = sdiv i32 %div27.i348, %add89.i90
  %div29.i352 = sdiv i32 %div28.i350, %add92.i92
  %div30.i354 = sdiv i32 %div29.i352, %add95.i94
  %div31.i356 = sdiv i32 %div30.i354, %add98.i96
  %div32.i358 = sdiv i32 %div31.i356, %add101.i98
  %div33.i360 = sdiv i32 %div32.i358, %add104.i100
  %div34.i362 = sdiv i32 %div33.i360, %add107.i102
  %div35.i364 = sdiv i32 %div34.i362, %add110.i104
  %div36.i366 = sdiv i32 %div35.i364, %add113.i106
  %div37.i368 = sdiv i32 %div36.i366, %add117.i108
  %div38.i370 = sdiv i32 %div37.i368, %add120.i110
  %div39.i371 = sdiv i32 %div38.i370, %2
  %conv10 = sitofp i32 %div39.i371 to double
  %add11 = fadd double %div39.i, %conv10
  %conv12 = fptosi double %add11 to i32
  %3 = load volatile i32, ptr %dumping_ground, align 4, !tbaa !49
  %add13 = add nsw i32 %3, %conv12
  store volatile i32 %add13, ptr %dumping_ground, align 4, !tbaa !49
  %4 = load ptr, ptr %test_description, align 8, !tbaa !35
  %call18 = invoke noundef zeroext i1 @_Z11check_tracePKcS0_PK13trace_elementdjbjjbbi(ptr noundef %4, ptr noundef nonnull @.str.37, ptr noundef nonnull %trace, double noundef %add, i32 noundef 4096, i1 noundef zeroext false, i32 poison, i32 noundef 2048, i1 noundef zeroext false, i1 noundef zeroext false, i32 noundef -1)
          to label %invoke.cont17 unwind label %lpad16

invoke.cont17:                                    ; preds = %entry
  %5 = load ptr, ptr %test_description, align 8, !tbaa !35
  %6 = getelementptr inbounds %"class.std::__cxx11::basic_string", ptr %test_description, i64 0, i32 2
  %cmp.i.i.i = icmp eq ptr %5, %6
  br i1 %cmp.i.i.i, label %_ZNSt7__cxx1112basic_stringIcSt11char_traitsIcESaIcEED2Ev.exit, label %if.then.i.i

if.then.i.i:                                      ; preds = %invoke.cont17
  call void @_ZdlPv(ptr noundef %5) #22
  br label %_ZNSt7__cxx1112basic_stringIcSt11char_traitsIcESaIcEED2Ev.exit

_ZNSt7__cxx1112basic_stringIcSt11char_traitsIcESaIcEED2Ev.exit: ; preds = %invoke.cont17, %if.then.i.i
  call void @llvm.lifetime.end.p0(i64 32, ptr nonnull %test_description) #20
  call void @llvm.lifetime.end.p0(i64 800, ptr nonnull %trace) #20
  ret i1 %call18

lpad16:                                           ; preds = %entry
  %7 = landingpad { ptr, i32 }
          cleanup
  %8 = load ptr, ptr %test_description, align 8, !tbaa !35
  %9 = getelementptr inbounds %"class.std::__cxx11::basic_string", ptr %test_description, i64 0, i32 2
  %cmp.i.i.i372 = icmp eq ptr %8, %9
  br i1 %cmp.i.i.i372, label %_ZNSt7__cxx1112basic_stringIcSt11char_traitsIcESaIcEED2Ev.exit374, label %if.then.i.i373

if.then.i.i373:                                   ; preds = %lpad16
  call void @_ZdlPv(ptr noundef %8) #22
  br label %_ZNSt7__cxx1112basic_stringIcSt11char_traitsIcESaIcEED2Ev.exit374

_ZNSt7__cxx1112basic_stringIcSt11char_traitsIcESaIcEED2Ev.exit374: ; preds = %lpad16, %if.then.i.i373
  call void @llvm.lifetime.end.p0(i64 32, ptr nonnull %test_description) #20
  call void @llvm.lifetime.end.p0(i64 800, ptr nonnull %trace) #20
  resume { ptr, i32 } %7
}

; Function Attrs: noinline uwtable
define linkonce_odr dso_local noundef zeroext i1 @_Z19check_frame_variantILb0ELb0ELb0ELb0ELb0EEbiRVi(i32 noundef %seed, ptr noundef nonnull align 4 dereferenceable(4) %dumping_ground) local_unnamed_addr #3 comdat personality ptr @__gxx_personality_v0 {
entry:
  %trace = alloca [100 x %union.trace_element], align 16
  %test_description = alloca %"class.std::__cxx11::basic_string", align 8
  call void @llvm.lifetime.start.p0(i64 800, ptr nonnull %trace) #20
  call void @llvm.lifetime.start.p0(i64 32, ptr nonnull %test_description) #20
  call void @_Z24getTestDescriptionStringB5cxx11bbbbb(ptr nonnull sret(%"class.std::__cxx11::basic_string") align 8 %test_description, i1 noundef zeroext false, i1 noundef zeroext false, i1 noundef zeroext false, i1 noundef zeroext false, i1 noundef zeroext false)
  %conv = sitofp i32 %seed to double
  %add.i = fadd double %conv, %conv
  %add6.i = fadd double %add.i, %conv
  %add9.i = fadd double %add6.i, %conv
  %add12.i = fadd double %add9.i, %conv
  %add15.i = fadd double %add12.i, %conv
  %add18.i = fadd double %add15.i, %conv
  %add21.i = fadd double %add18.i, %conv
  %add24.i = fadd double %add21.i, %conv
  %add27.i = fadd double %add24.i, %conv
  %add30.i = fadd double %add27.i, %conv
  %add34.i = fadd double %add30.i, %conv
  %add38.i = fadd double %add34.i, %conv
  %add42.i = fadd double %add38.i, %conv
  %add45.i = fadd double %add42.i, %conv
  %add48.i = fadd double %add45.i, %conv
  %add52.i = fadd double %add48.i, %conv
  %add55.i = fadd double %add52.i, %conv
  %add58.i = fadd double %add55.i, %conv
  %add61.i = fadd double %add58.i, %conv
  %add64.i = fadd double %add61.i, %conv
  %add67.i = fadd double %add64.i, %conv
  %add70.i = fadd double %add67.i, %conv
  %add73.i = fadd double %add70.i, %conv
  %add77.i = fadd double %add73.i, %conv
  %add80.i = fadd double %add77.i, %conv
  %add83.i = fadd double %add80.i, %conv
  %add86.i = fadd double %add83.i, %conv
  %add89.i = fadd double %add86.i, %conv
  %add92.i = fadd double %add89.i, %conv
  %add95.i = fadd double %add92.i, %conv
  %add98.i = fadd double %add95.i, %conv
  %add101.i = fadd double %add98.i, %conv
  %add104.i = fadd double %add101.i, %conv
  %add107.i = fadd double %add104.i, %conv
  %add110.i = fadd double %add107.i, %conv
  %add113.i = fadd double %add110.i, %conv
  %add117.i = fadd double %add113.i, %conv
  %add120.i = fadd double %add117.i, %conv
  %add.i36 = shl nsw i32 %seed, 1
  %add6.i38 = mul nsw i32 %seed, 3
  %add9.i40 = shl nsw i32 %seed, 2
  %add12.i42 = mul nsw i32 %seed, 5
  %add15.i44 = mul nsw i32 %seed, 6
  %add18.i46 = mul nsw i32 %seed, 7
  %add21.i48 = shl nsw i32 %seed, 3
  %add24.i50 = mul nsw i32 %seed, 9
  %add27.i52 = mul nsw i32 %seed, 10
  %add30.i54 = mul nsw i32 %seed, 11
  %add34.i56 = mul nsw i32 %seed, 12
  %add38.i58 = mul nsw i32 %seed, 13
  %add42.i60 = mul nsw i32 %seed, 14
  %add45.i62 = mul nsw i32 %seed, 15
  %add48.i64 = shl nsw i32 %seed, 4
  %add52.i66 = mul nsw i32 %seed, 17
  %add55.i68 = mul nsw i32 %seed, 18
  %add58.i70 = mul nsw i32 %seed, 19
  %add61.i72 = mul nsw i32 %seed, 20
  %add64.i74 = mul nsw i32 %seed, 21
  %add67.i76 = mul nsw i32 %seed, 22
  %add70.i78 = mul nsw i32 %seed, 23
  %add73.i80 = mul nsw i32 %seed, 24
  %add77.i82 = mul nsw i32 %seed, 25
  %add80.i84 = mul nsw i32 %seed, 26
  %add83.i86 = mul nsw i32 %seed, 27
  %add86.i88 = mul nsw i32 %seed, 28
  %add89.i90 = mul nsw i32 %seed, 29
  %add92.i92 = mul nsw i32 %seed, 30
  %add95.i94 = mul nsw i32 %seed, 31
  %add98.i96 = shl nsw i32 %seed, 5
  %add101.i98 = mul nsw i32 %seed, 33
  %add104.i100 = mul nsw i32 %seed, 34
  %add107.i102 = mul nsw i32 %seed, 35
  %add110.i104 = mul nsw i32 %seed, 36
  %add113.i106 = mul nsw i32 %seed, 37
  %add117.i108 = mul nsw i32 %seed, 38
  %add120.i110 = mul nsw i32 %seed, 39
  %div.i = fdiv double %add120.i, %add117.i
  %div2.i = fdiv double %div.i, %add113.i
  %div3.i = fdiv double %div2.i, %add110.i
  %div4.i = fdiv double %div3.i, %add107.i
  %div5.i = fdiv double %div4.i, %add104.i
  %div6.i = fdiv double %div5.i, %add101.i
  %div7.i = fdiv double %div6.i, %add98.i
  %div8.i = fdiv double %div7.i, %add95.i
  %div9.i = fdiv double %div8.i, %add92.i
  %div10.i = fdiv double %div9.i, %add89.i
  %div11.i = fdiv double %div10.i, %add86.i
  %div12.i = fdiv double %div11.i, %add83.i
  %div13.i = fdiv double %div12.i, %add80.i
  %div14.i = fdiv double %div13.i, %add77.i
  %div15.i = fdiv double %div14.i, %add73.i
  %div16.i = fdiv double %div15.i, %add70.i
  %div17.i = fdiv double %div16.i, %add67.i
  %div18.i = fdiv double %div17.i, %add64.i
  %div19.i = fdiv double %div18.i, %add61.i
  %div20.i = fdiv double %div19.i, %add58.i
  %div21.i = fdiv double %div20.i, %add55.i
  %div22.i = fdiv double %div21.i, %add52.i
  %div23.i = fdiv double %div22.i, %add48.i
  %div24.i = fdiv double %div23.i, %add45.i
  %div25.i = fdiv double %div24.i, %add42.i
  %div26.i = fdiv double %div25.i, %add38.i
  %div27.i = fdiv double %div26.i, %add34.i
  %div28.i = fdiv double %div27.i, %add30.i
  %div29.i = fdiv double %div28.i, %add27.i
  %div30.i = fdiv double %div29.i, %add24.i
  %div31.i = fdiv double %div30.i, %add21.i
  %div32.i = fdiv double %div31.i, %add18.i
  %div33.i = fdiv double %div32.i, %add15.i
  %div34.i = fdiv double %div33.i, %add12.i
  %div35.i = fdiv double %div34.i, %add9.i
  %div36.i = fdiv double %div35.i, %add6.i
  %div37.i = fdiv double %div36.i, %add.i
  %div38.i = fdiv double %div37.i, %conv
  %div.i145 = sdiv i32 %add120.i110, %add117.i108
  %div2.i147 = sdiv i32 %div.i145, %add113.i106
  %div3.i149 = sdiv i32 %div2.i147, %add110.i104
  %div4.i151 = sdiv i32 %div3.i149, %add107.i102
  %div5.i153 = sdiv i32 %div4.i151, %add104.i100
  %div6.i155 = sdiv i32 %div5.i153, %add101.i98
  %div7.i157 = sdiv i32 %div6.i155, %add98.i96
  %div8.i159 = sdiv i32 %div7.i157, %add95.i94
  %div9.i161 = sdiv i32 %div8.i159, %add92.i92
  %div10.i163 = sdiv i32 %div9.i161, %add89.i90
  %div11.i165 = sdiv i32 %div10.i163, %add86.i88
  %div12.i167 = sdiv i32 %div11.i165, %add83.i86
  %div13.i169 = sdiv i32 %div12.i167, %add80.i84
  %div14.i171 = sdiv i32 %div13.i169, %add77.i82
  %div15.i173 = sdiv i32 %div14.i171, %add73.i80
  %div16.i175 = sdiv i32 %div15.i173, %add70.i78
  %div17.i177 = sdiv i32 %div16.i175, %add67.i76
  %div18.i179 = sdiv i32 %div17.i177, %add64.i74
  %div19.i181 = sdiv i32 %div18.i179, %add61.i72
  %div20.i183 = sdiv i32 %div19.i181, %add58.i70
  %div21.i185 = sdiv i32 %div20.i183, %add55.i68
  %div22.i187 = sdiv i32 %div21.i185, %add52.i66
  %div23.i189 = sdiv i32 %div22.i187, %add48.i64
  %div24.i191 = sdiv i32 %div23.i189, %add45.i62
  %div25.i193 = sdiv i32 %div24.i191, %add42.i60
  %div26.i195 = sdiv i32 %div25.i193, %add38.i58
  %div27.i197 = sdiv i32 %div26.i195, %add34.i56
  %div28.i199 = sdiv i32 %div27.i197, %add30.i54
  %div29.i201 = sdiv i32 %div28.i199, %add27.i52
  %div30.i203 = sdiv i32 %div29.i201, %add24.i50
  %div31.i205 = sdiv i32 %div30.i203, %add21.i48
  %div32.i207 = sdiv i32 %div31.i205, %add18.i46
  %div33.i209 = sdiv i32 %div32.i207, %add15.i44
  %div34.i211 = sdiv i32 %div33.i209, %add12.i42
  %div35.i213 = sdiv i32 %div34.i211, %add9.i40
  %div36.i215 = sdiv i32 %div35.i213, %add6.i38
  %div37.i217 = sdiv i32 %div36.i215, %add.i36
  %div38.i218 = sdiv i32 %div37.i217, %seed
  %conv4 = sitofp i32 %div38.i218 to double
  %add = fadd double %div38.i, %conv4
  call void @_Z10test_frameILj2ELb0ELj2048ELb0ELb0EJEEvDpT4_jPKcP13trace_elementd(i32 noundef 100, ptr noundef nonnull @.str.37, ptr noundef nonnull %trace, double noundef %add)
  %0 = load double, ptr %trace, align 16, !tbaa !5
  %div.i220 = fdiv double %conv, %add.i
  %div2.i222 = fdiv double %div.i220, %add6.i
  %div3.i224 = fdiv double %div2.i222, %add9.i
  %div4.i226 = fdiv double %div3.i224, %add12.i
  %div5.i228 = fdiv double %div4.i226, %add15.i
  %div6.i230 = fdiv double %div5.i228, %add18.i
  %div7.i232 = fdiv double %div6.i230, %add21.i
  %div8.i234 = fdiv double %div7.i232, %add24.i
  %div9.i236 = fdiv double %div8.i234, %add27.i
  %div10.i238 = fdiv double %div9.i236, %add30.i
  %div11.i240 = fdiv double %div10.i238, %add34.i
  %div12.i242 = fdiv double %div11.i240, %add38.i
  %div13.i244 = fdiv double %div12.i242, %add42.i
  %div14.i246 = fdiv double %div13.i244, %add45.i
  %div15.i248 = fdiv double %div14.i246, %add48.i
  %div16.i250 = fdiv double %div15.i248, %add52.i
  %div17.i252 = fdiv double %div16.i250, %add55.i
  %div18.i254 = fdiv double %div17.i252, %add58.i
  %div19.i256 = fdiv double %div18.i254, %add61.i
  %div20.i258 = fdiv double %div19.i256, %add64.i
  %div21.i260 = fdiv double %div20.i258, %add67.i
  %div22.i262 = fdiv double %div21.i260, %add70.i
  %div23.i264 = fdiv double %div22.i262, %add73.i
  %div24.i266 = fdiv double %div23.i264, %add77.i
  %div25.i268 = fdiv double %div24.i266, %add80.i
  %div26.i270 = fdiv double %div25.i268, %add83.i
  %div27.i272 = fdiv double %div26.i270, %add86.i
  %div28.i274 = fdiv double %div27.i272, %add89.i
  %div29.i276 = fdiv double %div28.i274, %add92.i
  %div30.i278 = fdiv double %div29.i276, %add95.i
  %div31.i280 = fdiv double %div30.i278, %add98.i
  %div32.i282 = fdiv double %div31.i280, %add101.i
  %div33.i284 = fdiv double %div32.i282, %add104.i
  %div34.i286 = fdiv double %div33.i284, %add107.i
  %div35.i288 = fdiv double %div34.i286, %add110.i
  %div36.i290 = fdiv double %div35.i288, %add113.i
  %div37.i292 = fdiv double %div36.i290, %add117.i
  %div38.i294 = fdiv double %div37.i292, %add120.i
  %div39.i = fdiv double %div38.i294, %0
  %1 = bitcast double %0 to i64
  %2 = trunc i64 %1 to i32
  %div.i296 = sdiv i32 %seed, %add.i36
  %div2.i298 = sdiv i32 %div.i296, %add6.i38
  %div3.i300 = sdiv i32 %div2.i298, %add9.i40
  %div4.i302 = sdiv i32 %div3.i300, %add12.i42
  %div5.i304 = sdiv i32 %div4.i302, %add15.i44
  %div6.i306 = sdiv i32 %div5.i304, %add18.i46
  %div7.i308 = sdiv i32 %div6.i306, %add21.i48
  %div8.i310 = sdiv i32 %div7.i308, %add24.i50
  %div9.i312 = sdiv i32 %div8.i310, %add27.i52
  %div10.i314 = sdiv i32 %div9.i312, %add30.i54
  %div11.i316 = sdiv i32 %div10.i314, %add34.i56
  %div12.i318 = sdiv i32 %div11.i316, %add38.i58
  %div13.i320 = sdiv i32 %div12.i318, %add42.i60
  %div14.i322 = sdiv i32 %div13.i320, %add45.i62
  %div15.i324 = sdiv i32 %div14.i322, %add48.i64
  %div16.i326 = sdiv i32 %div15.i324, %add52.i66
  %div17.i328 = sdiv i32 %div16.i326, %add55.i68
  %div18.i330 = sdiv i32 %div17.i328, %add58.i70
  %div19.i332 = sdiv i32 %div18.i330, %add61.i72
  %div20.i334 = sdiv i32 %div19.i332, %add64.i74
  %div21.i336 = sdiv i32 %div20.i334, %add67.i76
  %div22.i338 = sdiv i32 %div21.i336, %add70.i78
  %div23.i340 = sdiv i32 %div22.i338, %add73.i80
  %div24.i342 = sdiv i32 %div23.i340, %add77.i82
  %div25.i344 = sdiv i32 %div24.i342, %add80.i84
  %div26.i346 = sdiv i32 %div25.i344, %add83.i86
  %div27.i348 = sdiv i32 %div26.i346, %add86.i88
  %div28.i350 = sdiv i32 %div27.i348, %add89.i90
  %div29.i352 = sdiv i32 %div28.i350, %add92.i92
  %div30.i354 = sdiv i32 %div29.i352, %add95.i94
  %div31.i356 = sdiv i32 %div30.i354, %add98.i96
  %div32.i358 = sdiv i32 %div31.i356, %add101.i98
  %div33.i360 = sdiv i32 %div32.i358, %add104.i100
  %div34.i362 = sdiv i32 %div33.i360, %add107.i102
  %div35.i364 = sdiv i32 %div34.i362, %add110.i104
  %div36.i366 = sdiv i32 %div35.i364, %add113.i106
  %div37.i368 = sdiv i32 %div36.i366, %add117.i108
  %div38.i370 = sdiv i32 %div37.i368, %add120.i110
  %div39.i371 = sdiv i32 %div38.i370, %2
  %conv10 = sitofp i32 %div39.i371 to double
  %add11 = fadd double %div39.i, %conv10
  %conv12 = fptosi double %add11 to i32
  %3 = load volatile i32, ptr %dumping_ground, align 4, !tbaa !49
  %add13 = add nsw i32 %3, %conv12
  store volatile i32 %add13, ptr %dumping_ground, align 4, !tbaa !49
  %4 = load ptr, ptr %test_description, align 8, !tbaa !35
  %call18 = invoke noundef zeroext i1 @_Z11check_tracePKcS0_PK13trace_elementdjbjjbbi(ptr noundef %4, ptr noundef nonnull @.str.37, ptr noundef nonnull %trace, double noundef %add, i32 noundef 2, i1 noundef zeroext false, i32 poison, i32 noundef 2048, i1 noundef zeroext false, i1 noundef zeroext false, i32 noundef -1)
          to label %invoke.cont17 unwind label %lpad16

invoke.cont17:                                    ; preds = %entry
  %5 = load ptr, ptr %test_description, align 8, !tbaa !35
  %6 = getelementptr inbounds %"class.std::__cxx11::basic_string", ptr %test_description, i64 0, i32 2
  %cmp.i.i.i = icmp eq ptr %5, %6
  br i1 %cmp.i.i.i, label %_ZNSt7__cxx1112basic_stringIcSt11char_traitsIcESaIcEED2Ev.exit, label %if.then.i.i

if.then.i.i:                                      ; preds = %invoke.cont17
  call void @_ZdlPv(ptr noundef %5) #22
  br label %_ZNSt7__cxx1112basic_stringIcSt11char_traitsIcESaIcEED2Ev.exit

_ZNSt7__cxx1112basic_stringIcSt11char_traitsIcESaIcEED2Ev.exit: ; preds = %invoke.cont17, %if.then.i.i
  call void @llvm.lifetime.end.p0(i64 32, ptr nonnull %test_description) #20
  call void @llvm.lifetime.end.p0(i64 800, ptr nonnull %trace) #20
  ret i1 %call18

lpad16:                                           ; preds = %entry
  %7 = landingpad { ptr, i32 }
          cleanup
  %8 = load ptr, ptr %test_description, align 8, !tbaa !35
  %9 = getelementptr inbounds %"class.std::__cxx11::basic_string", ptr %test_description, i64 0, i32 2
  %cmp.i.i.i372 = icmp eq ptr %8, %9
  br i1 %cmp.i.i.i372, label %_ZNSt7__cxx1112basic_stringIcSt11char_traitsIcESaIcEED2Ev.exit374, label %if.then.i.i373

if.then.i.i373:                                   ; preds = %lpad16
  call void @_ZdlPv(ptr noundef %8) #22
  br label %_ZNSt7__cxx1112basic_stringIcSt11char_traitsIcESaIcEED2Ev.exit374

_ZNSt7__cxx1112basic_stringIcSt11char_traitsIcESaIcEED2Ev.exit374: ; preds = %lpad16, %if.then.i.i373
  call void @llvm.lifetime.end.p0(i64 32, ptr nonnull %test_description) #20
  call void @llvm.lifetime.end.p0(i64 800, ptr nonnull %trace) #20
  resume { ptr, i32 } %7
}

; Function Attrs: noinline uwtable
define linkonce_odr dso_local noundef zeroext i1 @_Z19check_frame_variantILb1ELb1ELb0ELb0ELb0EEbiRVi(i32 noundef %seed, ptr noundef nonnull align 4 dereferenceable(4) %dumping_ground) local_unnamed_addr #3 comdat personality ptr @__gxx_personality_v0 {
entry:
  %trace = alloca [100 x %union.trace_element], align 16
  %test_description = alloca %"class.std::__cxx11::basic_string", align 8
  call void @llvm.lifetime.start.p0(i64 800, ptr nonnull %trace) #20
  call void @llvm.lifetime.start.p0(i64 32, ptr nonnull %test_description) #20
  call void @_Z24getTestDescriptionStringB5cxx11bbbbb(ptr nonnull sret(%"class.std::__cxx11::basic_string") align 8 %test_description, i1 noundef zeroext true, i1 noundef zeroext true, i1 noundef zeroext false, i1 noundef zeroext false, i1 noundef zeroext false)
  %conv = sitofp i32 %seed to double
  %add.i = fadd double %conv, %conv
  %add6.i = fadd double %add.i, %conv
  %add9.i = fadd double %add6.i, %conv
  %add12.i = fadd double %add9.i, %conv
  %add15.i = fadd double %add12.i, %conv
  %add18.i = fadd double %add15.i, %conv
  %add21.i = fadd double %add18.i, %conv
  %add24.i = fadd double %add21.i, %conv
  %add27.i = fadd double %add24.i, %conv
  %add30.i = fadd double %add27.i, %conv
  %add34.i = fadd double %add30.i, %conv
  %add38.i = fadd double %add34.i, %conv
  %add42.i = fadd double %add38.i, %conv
  %add45.i = fadd double %add42.i, %conv
  %add48.i = fadd double %add45.i, %conv
  %add52.i = fadd double %add48.i, %conv
  %add55.i = fadd double %add52.i, %conv
  %add58.i = fadd double %add55.i, %conv
  %add61.i = fadd double %add58.i, %conv
  %add64.i = fadd double %add61.i, %conv
  %add67.i = fadd double %add64.i, %conv
  %add70.i = fadd double %add67.i, %conv
  %add73.i = fadd double %add70.i, %conv
  %add77.i = fadd double %add73.i, %conv
  %add80.i = fadd double %add77.i, %conv
  %add83.i = fadd double %add80.i, %conv
  %add86.i = fadd double %add83.i, %conv
  %add89.i = fadd double %add86.i, %conv
  %add92.i = fadd double %add89.i, %conv
  %add95.i = fadd double %add92.i, %conv
  %add98.i = fadd double %add95.i, %conv
  %add101.i = fadd double %add98.i, %conv
  %add104.i = fadd double %add101.i, %conv
  %add107.i = fadd double %add104.i, %conv
  %add110.i = fadd double %add107.i, %conv
  %add113.i = fadd double %add110.i, %conv
  %add117.i = fadd double %add113.i, %conv
  %add120.i = fadd double %add117.i, %conv
  %add.i36 = shl nsw i32 %seed, 1
  %add6.i38 = mul nsw i32 %seed, 3
  %add9.i40 = shl nsw i32 %seed, 2
  %add12.i42 = mul nsw i32 %seed, 5
  %add15.i44 = mul nsw i32 %seed, 6
  %add18.i46 = mul nsw i32 %seed, 7
  %add21.i48 = shl nsw i32 %seed, 3
  %add24.i50 = mul nsw i32 %seed, 9
  %add27.i52 = mul nsw i32 %seed, 10
  %add30.i54 = mul nsw i32 %seed, 11
  %add34.i56 = mul nsw i32 %seed, 12
  %add38.i58 = mul nsw i32 %seed, 13
  %add42.i60 = mul nsw i32 %seed, 14
  %add45.i62 = mul nsw i32 %seed, 15
  %add48.i64 = shl nsw i32 %seed, 4
  %add52.i66 = mul nsw i32 %seed, 17
  %add55.i68 = mul nsw i32 %seed, 18
  %add58.i70 = mul nsw i32 %seed, 19
  %add61.i72 = mul nsw i32 %seed, 20
  %add64.i74 = mul nsw i32 %seed, 21
  %add67.i76 = mul nsw i32 %seed, 22
  %add70.i78 = mul nsw i32 %seed, 23
  %add73.i80 = mul nsw i32 %seed, 24
  %add77.i82 = mul nsw i32 %seed, 25
  %add80.i84 = mul nsw i32 %seed, 26
  %add83.i86 = mul nsw i32 %seed, 27
  %add86.i88 = mul nsw i32 %seed, 28
  %add89.i90 = mul nsw i32 %seed, 29
  %add92.i92 = mul nsw i32 %seed, 30
  %add95.i94 = mul nsw i32 %seed, 31
  %add98.i96 = shl nsw i32 %seed, 5
  %add101.i98 = mul nsw i32 %seed, 33
  %add104.i100 = mul nsw i32 %seed, 34
  %add107.i102 = mul nsw i32 %seed, 35
  %add110.i104 = mul nsw i32 %seed, 36
  %add113.i106 = mul nsw i32 %seed, 37
  %add117.i108 = mul nsw i32 %seed, 38
  %add120.i110 = mul nsw i32 %seed, 39
  %div.i = fdiv double %add120.i, %add117.i
  %div2.i = fdiv double %div.i, %add113.i
  %div3.i = fdiv double %div2.i, %add110.i
  %div4.i = fdiv double %div3.i, %add107.i
  %div5.i = fdiv double %div4.i, %add104.i
  %div6.i = fdiv double %div5.i, %add101.i
  %div7.i = fdiv double %div6.i, %add98.i
  %div8.i = fdiv double %div7.i, %add95.i
  %div9.i = fdiv double %div8.i, %add92.i
  %div10.i = fdiv double %div9.i, %add89.i
  %div11.i = fdiv double %div10.i, %add86.i
  %div12.i = fdiv double %div11.i, %add83.i
  %div13.i = fdiv double %div12.i, %add80.i
  %div14.i = fdiv double %div13.i, %add77.i
  %div15.i = fdiv double %div14.i, %add73.i
  %div16.i = fdiv double %div15.i, %add70.i
  %div17.i = fdiv double %div16.i, %add67.i
  %div18.i = fdiv double %div17.i, %add64.i
  %div19.i = fdiv double %div18.i, %add61.i
  %div20.i = fdiv double %div19.i, %add58.i
  %div21.i = fdiv double %div20.i, %add55.i
  %div22.i = fdiv double %div21.i, %add52.i
  %div23.i = fdiv double %div22.i, %add48.i
  %div24.i = fdiv double %div23.i, %add45.i
  %div25.i = fdiv double %div24.i, %add42.i
  %div26.i = fdiv double %div25.i, %add38.i
  %div27.i = fdiv double %div26.i, %add34.i
  %div28.i = fdiv double %div27.i, %add30.i
  %div29.i = fdiv double %div28.i, %add27.i
  %div30.i = fdiv double %div29.i, %add24.i
  %div31.i = fdiv double %div30.i, %add21.i
  %div32.i = fdiv double %div31.i, %add18.i
  %div33.i = fdiv double %div32.i, %add15.i
  %div34.i = fdiv double %div33.i, %add12.i
  %div35.i = fdiv double %div34.i, %add9.i
  %div36.i = fdiv double %div35.i, %add6.i
  %div37.i = fdiv double %div36.i, %add.i
  %div38.i = fdiv double %div37.i, %conv
  %div.i145 = sdiv i32 %add120.i110, %add117.i108
  %div2.i147 = sdiv i32 %div.i145, %add113.i106
  %div3.i149 = sdiv i32 %div2.i147, %add110.i104
  %div4.i151 = sdiv i32 %div3.i149, %add107.i102
  %div5.i153 = sdiv i32 %div4.i151, %add104.i100
  %div6.i155 = sdiv i32 %div5.i153, %add101.i98
  %div7.i157 = sdiv i32 %div6.i155, %add98.i96
  %div8.i159 = sdiv i32 %div7.i157, %add95.i94
  %div9.i161 = sdiv i32 %div8.i159, %add92.i92
  %div10.i163 = sdiv i32 %div9.i161, %add89.i90
  %div11.i165 = sdiv i32 %div10.i163, %add86.i88
  %div12.i167 = sdiv i32 %div11.i165, %add83.i86
  %div13.i169 = sdiv i32 %div12.i167, %add80.i84
  %div14.i171 = sdiv i32 %div13.i169, %add77.i82
  %div15.i173 = sdiv i32 %div14.i171, %add73.i80
  %div16.i175 = sdiv i32 %div15.i173, %add70.i78
  %div17.i177 = sdiv i32 %div16.i175, %add67.i76
  %div18.i179 = sdiv i32 %div17.i177, %add64.i74
  %div19.i181 = sdiv i32 %div18.i179, %add61.i72
  %div20.i183 = sdiv i32 %div19.i181, %add58.i70
  %div21.i185 = sdiv i32 %div20.i183, %add55.i68
  %div22.i187 = sdiv i32 %div21.i185, %add52.i66
  %div23.i189 = sdiv i32 %div22.i187, %add48.i64
  %div24.i191 = sdiv i32 %div23.i189, %add45.i62
  %div25.i193 = sdiv i32 %div24.i191, %add42.i60
  %div26.i195 = sdiv i32 %div25.i193, %add38.i58
  %div27.i197 = sdiv i32 %div26.i195, %add34.i56
  %div28.i199 = sdiv i32 %div27.i197, %add30.i54
  %div29.i201 = sdiv i32 %div28.i199, %add27.i52
  %div30.i203 = sdiv i32 %div29.i201, %add24.i50
  %div31.i205 = sdiv i32 %div30.i203, %add21.i48
  %div32.i207 = sdiv i32 %div31.i205, %add18.i46
  %div33.i209 = sdiv i32 %div32.i207, %add15.i44
  %div34.i211 = sdiv i32 %div33.i209, %add12.i42
  %div35.i213 = sdiv i32 %div34.i211, %add9.i40
  %div36.i215 = sdiv i32 %div35.i213, %add6.i38
  %div37.i217 = sdiv i32 %div36.i215, %add.i36
  %div38.i218 = sdiv i32 %div37.i217, %seed
  %conv4 = sitofp i32 %div38.i218 to double
  %add = fadd double %div38.i, %conv4
  call void @_Z10test_frameILj4096ELb1ELj2048ELb0ELb0EJEEvDpT4_jPKcP13trace_elementd(i32 noundef 100, ptr noundef nonnull @.str.37, ptr noundef nonnull %trace, double noundef %add)
  %0 = load double, ptr %trace, align 16, !tbaa !5
  %div.i220 = fdiv double %conv, %add.i
  %div2.i222 = fdiv double %div.i220, %add6.i
  %div3.i224 = fdiv double %div2.i222, %add9.i
  %div4.i226 = fdiv double %div3.i224, %add12.i
  %div5.i228 = fdiv double %div4.i226, %add15.i
  %div6.i230 = fdiv double %div5.i228, %add18.i
  %div7.i232 = fdiv double %div6.i230, %add21.i
  %div8.i234 = fdiv double %div7.i232, %add24.i
  %div9.i236 = fdiv double %div8.i234, %add27.i
  %div10.i238 = fdiv double %div9.i236, %add30.i
  %div11.i240 = fdiv double %div10.i238, %add34.i
  %div12.i242 = fdiv double %div11.i240, %add38.i
  %div13.i244 = fdiv double %div12.i242, %add42.i
  %div14.i246 = fdiv double %div13.i244, %add45.i
  %div15.i248 = fdiv double %div14.i246, %add48.i
  %div16.i250 = fdiv double %div15.i248, %add52.i
  %div17.i252 = fdiv double %div16.i250, %add55.i
  %div18.i254 = fdiv double %div17.i252, %add58.i
  %div19.i256 = fdiv double %div18.i254, %add61.i
  %div20.i258 = fdiv double %div19.i256, %add64.i
  %div21.i260 = fdiv double %div20.i258, %add67.i
  %div22.i262 = fdiv double %div21.i260, %add70.i
  %div23.i264 = fdiv double %div22.i262, %add73.i
  %div24.i266 = fdiv double %div23.i264, %add77.i
  %div25.i268 = fdiv double %div24.i266, %add80.i
  %div26.i270 = fdiv double %div25.i268, %add83.i
  %div27.i272 = fdiv double %div26.i270, %add86.i
  %div28.i274 = fdiv double %div27.i272, %add89.i
  %div29.i276 = fdiv double %div28.i274, %add92.i
  %div30.i278 = fdiv double %div29.i276, %add95.i
  %div31.i280 = fdiv double %div30.i278, %add98.i
  %div32.i282 = fdiv double %div31.i280, %add101.i
  %div33.i284 = fdiv double %div32.i282, %add104.i
  %div34.i286 = fdiv double %div33.i284, %add107.i
  %div35.i288 = fdiv double %div34.i286, %add110.i
  %div36.i290 = fdiv double %div35.i288, %add113.i
  %div37.i292 = fdiv double %div36.i290, %add117.i
  %div38.i294 = fdiv double %div37.i292, %add120.i
  %div39.i = fdiv double %div38.i294, %0
  %1 = bitcast double %0 to i64
  %2 = trunc i64 %1 to i32
  %div.i296 = sdiv i32 %seed, %add.i36
  %div2.i298 = sdiv i32 %div.i296, %add6.i38
  %div3.i300 = sdiv i32 %div2.i298, %add9.i40
  %div4.i302 = sdiv i32 %div3.i300, %add12.i42
  %div5.i304 = sdiv i32 %div4.i302, %add15.i44
  %div6.i306 = sdiv i32 %div5.i304, %add18.i46
  %div7.i308 = sdiv i32 %div6.i306, %add21.i48
  %div8.i310 = sdiv i32 %div7.i308, %add24.i50
  %div9.i312 = sdiv i32 %div8.i310, %add27.i52
  %div10.i314 = sdiv i32 %div9.i312, %add30.i54
  %div11.i316 = sdiv i32 %div10.i314, %add34.i56
  %div12.i318 = sdiv i32 %div11.i316, %add38.i58
  %div13.i320 = sdiv i32 %div12.i318, %add42.i60
  %div14.i322 = sdiv i32 %div13.i320, %add45.i62
  %div15.i324 = sdiv i32 %div14.i322, %add48.i64
  %div16.i326 = sdiv i32 %div15.i324, %add52.i66
  %div17.i328 = sdiv i32 %div16.i326, %add55.i68
  %div18.i330 = sdiv i32 %div17.i328, %add58.i70
  %div19.i332 = sdiv i32 %div18.i330, %add61.i72
  %div20.i334 = sdiv i32 %div19.i332, %add64.i74
  %div21.i336 = sdiv i32 %div20.i334, %add67.i76
  %div22.i338 = sdiv i32 %div21.i336, %add70.i78
  %div23.i340 = sdiv i32 %div22.i338, %add73.i80
  %div24.i342 = sdiv i32 %div23.i340, %add77.i82
  %div25.i344 = sdiv i32 %div24.i342, %add80.i84
  %div26.i346 = sdiv i32 %div25.i344, %add83.i86
  %div27.i348 = sdiv i32 %div26.i346, %add86.i88
  %div28.i350 = sdiv i32 %div27.i348, %add89.i90
  %div29.i352 = sdiv i32 %div28.i350, %add92.i92
  %div30.i354 = sdiv i32 %div29.i352, %add95.i94
  %div31.i356 = sdiv i32 %div30.i354, %add98.i96
  %div32.i358 = sdiv i32 %div31.i356, %add101.i98
  %div33.i360 = sdiv i32 %div32.i358, %add104.i100
  %div34.i362 = sdiv i32 %div33.i360, %add107.i102
  %div35.i364 = sdiv i32 %div34.i362, %add110.i104
  %div36.i366 = sdiv i32 %div35.i364, %add113.i106
  %div37.i368 = sdiv i32 %div36.i366, %add117.i108
  %div38.i370 = sdiv i32 %div37.i368, %add120.i110
  %div39.i371 = sdiv i32 %div38.i370, %2
  %conv10 = sitofp i32 %div39.i371 to double
  %add11 = fadd double %div39.i, %conv10
  %conv12 = fptosi double %add11 to i32
  %3 = load volatile i32, ptr %dumping_ground, align 4, !tbaa !49
  %add13 = add nsw i32 %3, %conv12
  store volatile i32 %add13, ptr %dumping_ground, align 4, !tbaa !49
  %4 = load ptr, ptr %test_description, align 8, !tbaa !35
  %call18 = invoke noundef zeroext i1 @_Z11check_tracePKcS0_PK13trace_elementdjbjjbbi(ptr noundef %4, ptr noundef nonnull @.str.37, ptr noundef nonnull %trace, double noundef %add, i32 noundef 4096, i1 noundef zeroext true, i32 poison, i32 noundef 2048, i1 noundef zeroext false, i1 noundef zeroext false, i32 noundef -1)
          to label %invoke.cont17 unwind label %lpad16

invoke.cont17:                                    ; preds = %entry
  %5 = load ptr, ptr %test_description, align 8, !tbaa !35
  %6 = getelementptr inbounds %"class.std::__cxx11::basic_string", ptr %test_description, i64 0, i32 2
  %cmp.i.i.i = icmp eq ptr %5, %6
  br i1 %cmp.i.i.i, label %_ZNSt7__cxx1112basic_stringIcSt11char_traitsIcESaIcEED2Ev.exit, label %if.then.i.i

if.then.i.i:                                      ; preds = %invoke.cont17
  call void @_ZdlPv(ptr noundef %5) #22
  br label %_ZNSt7__cxx1112basic_stringIcSt11char_traitsIcESaIcEED2Ev.exit

_ZNSt7__cxx1112basic_stringIcSt11char_traitsIcESaIcEED2Ev.exit: ; preds = %invoke.cont17, %if.then.i.i
  call void @llvm.lifetime.end.p0(i64 32, ptr nonnull %test_description) #20
  call void @llvm.lifetime.end.p0(i64 800, ptr nonnull %trace) #20
  ret i1 %call18

lpad16:                                           ; preds = %entry
  %7 = landingpad { ptr, i32 }
          cleanup
  %8 = load ptr, ptr %test_description, align 8, !tbaa !35
  %9 = getelementptr inbounds %"class.std::__cxx11::basic_string", ptr %test_description, i64 0, i32 2
  %cmp.i.i.i372 = icmp eq ptr %8, %9
  br i1 %cmp.i.i.i372, label %_ZNSt7__cxx1112basic_stringIcSt11char_traitsIcESaIcEED2Ev.exit374, label %if.then.i.i373

if.then.i.i373:                                   ; preds = %lpad16
  call void @_ZdlPv(ptr noundef %8) #22
  br label %_ZNSt7__cxx1112basic_stringIcSt11char_traitsIcESaIcEED2Ev.exit374

_ZNSt7__cxx1112basic_stringIcSt11char_traitsIcESaIcEED2Ev.exit374: ; preds = %lpad16, %if.then.i.i373
  call void @llvm.lifetime.end.p0(i64 32, ptr nonnull %test_description) #20
  call void @llvm.lifetime.end.p0(i64 800, ptr nonnull %trace) #20
  resume { ptr, i32 } %7
}

; Function Attrs: noinline uwtable
define linkonce_odr dso_local noundef zeroext i1 @_Z19check_frame_variantILb0ELb1ELb0ELb0ELb0EEbiRVi(i32 noundef %seed, ptr noundef nonnull align 4 dereferenceable(4) %dumping_ground) local_unnamed_addr #3 comdat personality ptr @__gxx_personality_v0 {
entry:
  %trace = alloca [100 x %union.trace_element], align 16
  %test_description = alloca %"class.std::__cxx11::basic_string", align 8
  call void @llvm.lifetime.start.p0(i64 800, ptr nonnull %trace) #20
  call void @llvm.lifetime.start.p0(i64 32, ptr nonnull %test_description) #20
  call void @_Z24getTestDescriptionStringB5cxx11bbbbb(ptr nonnull sret(%"class.std::__cxx11::basic_string") align 8 %test_description, i1 noundef zeroext false, i1 noundef zeroext true, i1 noundef zeroext false, i1 noundef zeroext false, i1 noundef zeroext false)
  %conv = sitofp i32 %seed to double
  %add.i = fadd double %conv, %conv
  %add6.i = fadd double %add.i, %conv
  %add9.i = fadd double %add6.i, %conv
  %add12.i = fadd double %add9.i, %conv
  %add15.i = fadd double %add12.i, %conv
  %add18.i = fadd double %add15.i, %conv
  %add21.i = fadd double %add18.i, %conv
  %add24.i = fadd double %add21.i, %conv
  %add27.i = fadd double %add24.i, %conv
  %add30.i = fadd double %add27.i, %conv
  %add34.i = fadd double %add30.i, %conv
  %add38.i = fadd double %add34.i, %conv
  %add42.i = fadd double %add38.i, %conv
  %add45.i = fadd double %add42.i, %conv
  %add48.i = fadd double %add45.i, %conv
  %add52.i = fadd double %add48.i, %conv
  %add55.i = fadd double %add52.i, %conv
  %add58.i = fadd double %add55.i, %conv
  %add61.i = fadd double %add58.i, %conv
  %add64.i = fadd double %add61.i, %conv
  %add67.i = fadd double %add64.i, %conv
  %add70.i = fadd double %add67.i, %conv
  %add73.i = fadd double %add70.i, %conv
  %add77.i = fadd double %add73.i, %conv
  %add80.i = fadd double %add77.i, %conv
  %add83.i = fadd double %add80.i, %conv
  %add86.i = fadd double %add83.i, %conv
  %add89.i = fadd double %add86.i, %conv
  %add92.i = fadd double %add89.i, %conv
  %add95.i = fadd double %add92.i, %conv
  %add98.i = fadd double %add95.i, %conv
  %add101.i = fadd double %add98.i, %conv
  %add104.i = fadd double %add101.i, %conv
  %add107.i = fadd double %add104.i, %conv
  %add110.i = fadd double %add107.i, %conv
  %add113.i = fadd double %add110.i, %conv
  %add117.i = fadd double %add113.i, %conv
  %add120.i = fadd double %add117.i, %conv
  %add.i36 = shl nsw i32 %seed, 1
  %add6.i38 = mul nsw i32 %seed, 3
  %add9.i40 = shl nsw i32 %seed, 2
  %add12.i42 = mul nsw i32 %seed, 5
  %add15.i44 = mul nsw i32 %seed, 6
  %add18.i46 = mul nsw i32 %seed, 7
  %add21.i48 = shl nsw i32 %seed, 3
  %add24.i50 = mul nsw i32 %seed, 9
  %add27.i52 = mul nsw i32 %seed, 10
  %add30.i54 = mul nsw i32 %seed, 11
  %add34.i56 = mul nsw i32 %seed, 12
  %add38.i58 = mul nsw i32 %seed, 13
  %add42.i60 = mul nsw i32 %seed, 14
  %add45.i62 = mul nsw i32 %seed, 15
  %add48.i64 = shl nsw i32 %seed, 4
  %add52.i66 = mul nsw i32 %seed, 17
  %add55.i68 = mul nsw i32 %seed, 18
  %add58.i70 = mul nsw i32 %seed, 19
  %add61.i72 = mul nsw i32 %seed, 20
  %add64.i74 = mul nsw i32 %seed, 21
  %add67.i76 = mul nsw i32 %seed, 22
  %add70.i78 = mul nsw i32 %seed, 23
  %add73.i80 = mul nsw i32 %seed, 24
  %add77.i82 = mul nsw i32 %seed, 25
  %add80.i84 = mul nsw i32 %seed, 26
  %add83.i86 = mul nsw i32 %seed, 27
  %add86.i88 = mul nsw i32 %seed, 28
  %add89.i90 = mul nsw i32 %seed, 29
  %add92.i92 = mul nsw i32 %seed, 30
  %add95.i94 = mul nsw i32 %seed, 31
  %add98.i96 = shl nsw i32 %seed, 5
  %add101.i98 = mul nsw i32 %seed, 33
  %add104.i100 = mul nsw i32 %seed, 34
  %add107.i102 = mul nsw i32 %seed, 35
  %add110.i104 = mul nsw i32 %seed, 36
  %add113.i106 = mul nsw i32 %seed, 37
  %add117.i108 = mul nsw i32 %seed, 38
  %add120.i110 = mul nsw i32 %seed, 39
  %div.i = fdiv double %add120.i, %add117.i
  %div2.i = fdiv double %div.i, %add113.i
  %div3.i = fdiv double %div2.i, %add110.i
  %div4.i = fdiv double %div3.i, %add107.i
  %div5.i = fdiv double %div4.i, %add104.i
  %div6.i = fdiv double %div5.i, %add101.i
  %div7.i = fdiv double %div6.i, %add98.i
  %div8.i = fdiv double %div7.i, %add95.i
  %div9.i = fdiv double %div8.i, %add92.i
  %div10.i = fdiv double %div9.i, %add89.i
  %div11.i = fdiv double %div10.i, %add86.i
  %div12.i = fdiv double %div11.i, %add83.i
  %div13.i = fdiv double %div12.i, %add80.i
  %div14.i = fdiv double %div13.i, %add77.i
  %div15.i = fdiv double %div14.i, %add73.i
  %div16.i = fdiv double %div15.i, %add70.i
  %div17.i = fdiv double %div16.i, %add67.i
  %div18.i = fdiv double %div17.i, %add64.i
  %div19.i = fdiv double %div18.i, %add61.i
  %div20.i = fdiv double %div19.i, %add58.i
  %div21.i = fdiv double %div20.i, %add55.i
  %div22.i = fdiv double %div21.i, %add52.i
  %div23.i = fdiv double %div22.i, %add48.i
  %div24.i = fdiv double %div23.i, %add45.i
  %div25.i = fdiv double %div24.i, %add42.i
  %div26.i = fdiv double %div25.i, %add38.i
  %div27.i = fdiv double %div26.i, %add34.i
  %div28.i = fdiv double %div27.i, %add30.i
  %div29.i = fdiv double %div28.i, %add27.i
  %div30.i = fdiv double %div29.i, %add24.i
  %div31.i = fdiv double %div30.i, %add21.i
  %div32.i = fdiv double %div31.i, %add18.i
  %div33.i = fdiv double %div32.i, %add15.i
  %div34.i = fdiv double %div33.i, %add12.i
  %div35.i = fdiv double %div34.i, %add9.i
  %div36.i = fdiv double %div35.i, %add6.i
  %div37.i = fdiv double %div36.i, %add.i
  %div38.i = fdiv double %div37.i, %conv
  %div.i145 = sdiv i32 %add120.i110, %add117.i108
  %div2.i147 = sdiv i32 %div.i145, %add113.i106
  %div3.i149 = sdiv i32 %div2.i147, %add110.i104
  %div4.i151 = sdiv i32 %div3.i149, %add107.i102
  %div5.i153 = sdiv i32 %div4.i151, %add104.i100
  %div6.i155 = sdiv i32 %div5.i153, %add101.i98
  %div7.i157 = sdiv i32 %div6.i155, %add98.i96
  %div8.i159 = sdiv i32 %div7.i157, %add95.i94
  %div9.i161 = sdiv i32 %div8.i159, %add92.i92
  %div10.i163 = sdiv i32 %div9.i161, %add89.i90
  %div11.i165 = sdiv i32 %div10.i163, %add86.i88
  %div12.i167 = sdiv i32 %div11.i165, %add83.i86
  %div13.i169 = sdiv i32 %div12.i167, %add80.i84
  %div14.i171 = sdiv i32 %div13.i169, %add77.i82
  %div15.i173 = sdiv i32 %div14.i171, %add73.i80
  %div16.i175 = sdiv i32 %div15.i173, %add70.i78
  %div17.i177 = sdiv i32 %div16.i175, %add67.i76
  %div18.i179 = sdiv i32 %div17.i177, %add64.i74
  %div19.i181 = sdiv i32 %div18.i179, %add61.i72
  %div20.i183 = sdiv i32 %div19.i181, %add58.i70
  %div21.i185 = sdiv i32 %div20.i183, %add55.i68
  %div22.i187 = sdiv i32 %div21.i185, %add52.i66
  %div23.i189 = sdiv i32 %div22.i187, %add48.i64
  %div24.i191 = sdiv i32 %div23.i189, %add45.i62
  %div25.i193 = sdiv i32 %div24.i191, %add42.i60
  %div26.i195 = sdiv i32 %div25.i193, %add38.i58
  %div27.i197 = sdiv i32 %div26.i195, %add34.i56
  %div28.i199 = sdiv i32 %div27.i197, %add30.i54
  %div29.i201 = sdiv i32 %div28.i199, %add27.i52
  %div30.i203 = sdiv i32 %div29.i201, %add24.i50
  %div31.i205 = sdiv i32 %div30.i203, %add21.i48
  %div32.i207 = sdiv i32 %div31.i205, %add18.i46
  %div33.i209 = sdiv i32 %div32.i207, %add15.i44
  %div34.i211 = sdiv i32 %div33.i209, %add12.i42
  %div35.i213 = sdiv i32 %div34.i211, %add9.i40
  %div36.i215 = sdiv i32 %div35.i213, %add6.i38
  %div37.i217 = sdiv i32 %div36.i215, %add.i36
  %div38.i218 = sdiv i32 %div37.i217, %seed
  %conv4 = sitofp i32 %div38.i218 to double
  %add = fadd double %div38.i, %conv4
  call void @_Z10test_frameILj2ELb1ELj2048ELb0ELb0EJEEvDpT4_jPKcP13trace_elementd(i32 noundef 100, ptr noundef nonnull @.str.37, ptr noundef nonnull %trace, double noundef %add)
  %0 = load double, ptr %trace, align 16, !tbaa !5
  %div.i220 = fdiv double %conv, %add.i
  %div2.i222 = fdiv double %div.i220, %add6.i
  %div3.i224 = fdiv double %div2.i222, %add9.i
  %div4.i226 = fdiv double %div3.i224, %add12.i
  %div5.i228 = fdiv double %div4.i226, %add15.i
  %div6.i230 = fdiv double %div5.i228, %add18.i
  %div7.i232 = fdiv double %div6.i230, %add21.i
  %div8.i234 = fdiv double %div7.i232, %add24.i
  %div9.i236 = fdiv double %div8.i234, %add27.i
  %div10.i238 = fdiv double %div9.i236, %add30.i
  %div11.i240 = fdiv double %div10.i238, %add34.i
  %div12.i242 = fdiv double %div11.i240, %add38.i
  %div13.i244 = fdiv double %div12.i242, %add42.i
  %div14.i246 = fdiv double %div13.i244, %add45.i
  %div15.i248 = fdiv double %div14.i246, %add48.i
  %div16.i250 = fdiv double %div15.i248, %add52.i
  %div17.i252 = fdiv double %div16.i250, %add55.i
  %div18.i254 = fdiv double %div17.i252, %add58.i
  %div19.i256 = fdiv double %div18.i254, %add61.i
  %div20.i258 = fdiv double %div19.i256, %add64.i
  %div21.i260 = fdiv double %div20.i258, %add67.i
  %div22.i262 = fdiv double %div21.i260, %add70.i
  %div23.i264 = fdiv double %div22.i262, %add73.i
  %div24.i266 = fdiv double %div23.i264, %add77.i
  %div25.i268 = fdiv double %div24.i266, %add80.i
  %div26.i270 = fdiv double %div25.i268, %add83.i
  %div27.i272 = fdiv double %div26.i270, %add86.i
  %div28.i274 = fdiv double %div27.i272, %add89.i
  %div29.i276 = fdiv double %div28.i274, %add92.i
  %div30.i278 = fdiv double %div29.i276, %add95.i
  %div31.i280 = fdiv double %div30.i278, %add98.i
  %div32.i282 = fdiv double %div31.i280, %add101.i
  %div33.i284 = fdiv double %div32.i282, %add104.i
  %div34.i286 = fdiv double %div33.i284, %add107.i
  %div35.i288 = fdiv double %div34.i286, %add110.i
  %div36.i290 = fdiv double %div35.i288, %add113.i
  %div37.i292 = fdiv double %div36.i290, %add117.i
  %div38.i294 = fdiv double %div37.i292, %add120.i
  %div39.i = fdiv double %div38.i294, %0
  %1 = bitcast double %0 to i64
  %2 = trunc i64 %1 to i32
  %div.i296 = sdiv i32 %seed, %add.i36
  %div2.i298 = sdiv i32 %div.i296, %add6.i38
  %div3.i300 = sdiv i32 %div2.i298, %add9.i40
  %div4.i302 = sdiv i32 %div3.i300, %add12.i42
  %div5.i304 = sdiv i32 %div4.i302, %add15.i44
  %div6.i306 = sdiv i32 %div5.i304, %add18.i46
  %div7.i308 = sdiv i32 %div6.i306, %add21.i48
  %div8.i310 = sdiv i32 %div7.i308, %add24.i50
  %div9.i312 = sdiv i32 %div8.i310, %add27.i52
  %div10.i314 = sdiv i32 %div9.i312, %add30.i54
  %div11.i316 = sdiv i32 %div10.i314, %add34.i56
  %div12.i318 = sdiv i32 %div11.i316, %add38.i58
  %div13.i320 = sdiv i32 %div12.i318, %add42.i60
  %div14.i322 = sdiv i32 %div13.i320, %add45.i62
  %div15.i324 = sdiv i32 %div14.i322, %add48.i64
  %div16.i326 = sdiv i32 %div15.i324, %add52.i66
  %div17.i328 = sdiv i32 %div16.i326, %add55.i68
  %div18.i330 = sdiv i32 %div17.i328, %add58.i70
  %div19.i332 = sdiv i32 %div18.i330, %add61.i72
  %div20.i334 = sdiv i32 %div19.i332, %add64.i74
  %div21.i336 = sdiv i32 %div20.i334, %add67.i76
  %div22.i338 = sdiv i32 %div21.i336, %add70.i78
  %div23.i340 = sdiv i32 %div22.i338, %add73.i80
  %div24.i342 = sdiv i32 %div23.i340, %add77.i82
  %div25.i344 = sdiv i32 %div24.i342, %add80.i84
  %div26.i346 = sdiv i32 %div25.i344, %add83.i86
  %div27.i348 = sdiv i32 %div26.i346, %add86.i88
  %div28.i350 = sdiv i32 %div27.i348, %add89.i90
  %div29.i352 = sdiv i32 %div28.i350, %add92.i92
  %div30.i354 = sdiv i32 %div29.i352, %add95.i94
  %div31.i356 = sdiv i32 %div30.i354, %add98.i96
  %div32.i358 = sdiv i32 %div31.i356, %add101.i98
  %div33.i360 = sdiv i32 %div32.i358, %add104.i100
  %div34.i362 = sdiv i32 %div33.i360, %add107.i102
  %div35.i364 = sdiv i32 %div34.i362, %add110.i104
  %div36.i366 = sdiv i32 %div35.i364, %add113.i106
  %div37.i368 = sdiv i32 %div36.i366, %add117.i108
  %div38.i370 = sdiv i32 %div37.i368, %add120.i110
  %div39.i371 = sdiv i32 %div38.i370, %2
  %conv10 = sitofp i32 %div39.i371 to double
  %add11 = fadd double %div39.i, %conv10
  %conv12 = fptosi double %add11 to i32
  %3 = load volatile i32, ptr %dumping_ground, align 4, !tbaa !49
  %add13 = add nsw i32 %3, %conv12
  store volatile i32 %add13, ptr %dumping_ground, align 4, !tbaa !49
  %4 = load ptr, ptr %test_description, align 8, !tbaa !35
  %call18 = invoke noundef zeroext i1 @_Z11check_tracePKcS0_PK13trace_elementdjbjjbbi(ptr noundef %4, ptr noundef nonnull @.str.37, ptr noundef nonnull %trace, double noundef %add, i32 noundef 2, i1 noundef zeroext true, i32 poison, i32 noundef 2048, i1 noundef zeroext false, i1 noundef zeroext false, i32 noundef -1)
          to label %invoke.cont17 unwind label %lpad16

invoke.cont17:                                    ; preds = %entry
  %5 = load ptr, ptr %test_description, align 8, !tbaa !35
  %6 = getelementptr inbounds %"class.std::__cxx11::basic_string", ptr %test_description, i64 0, i32 2
  %cmp.i.i.i = icmp eq ptr %5, %6
  br i1 %cmp.i.i.i, label %_ZNSt7__cxx1112basic_stringIcSt11char_traitsIcESaIcEED2Ev.exit, label %if.then.i.i

if.then.i.i:                                      ; preds = %invoke.cont17
  call void @_ZdlPv(ptr noundef %5) #22
  br label %_ZNSt7__cxx1112basic_stringIcSt11char_traitsIcESaIcEED2Ev.exit

_ZNSt7__cxx1112basic_stringIcSt11char_traitsIcESaIcEED2Ev.exit: ; preds = %invoke.cont17, %if.then.i.i
  call void @llvm.lifetime.end.p0(i64 32, ptr nonnull %test_description) #20
  call void @llvm.lifetime.end.p0(i64 800, ptr nonnull %trace) #20
  ret i1 %call18

lpad16:                                           ; preds = %entry
  %7 = landingpad { ptr, i32 }
          cleanup
  %8 = load ptr, ptr %test_description, align 8, !tbaa !35
  %9 = getelementptr inbounds %"class.std::__cxx11::basic_string", ptr %test_description, i64 0, i32 2
  %cmp.i.i.i372 = icmp eq ptr %8, %9
  br i1 %cmp.i.i.i372, label %_ZNSt7__cxx1112basic_stringIcSt11char_traitsIcESaIcEED2Ev.exit374, label %if.then.i.i373

if.then.i.i373:                                   ; preds = %lpad16
  call void @_ZdlPv(ptr noundef %8) #22
  br label %_ZNSt7__cxx1112basic_stringIcSt11char_traitsIcESaIcEED2Ev.exit374

_ZNSt7__cxx1112basic_stringIcSt11char_traitsIcESaIcEED2Ev.exit374: ; preds = %lpad16, %if.then.i.i373
  call void @llvm.lifetime.end.p0(i64 32, ptr nonnull %test_description) #20
  call void @llvm.lifetime.end.p0(i64 800, ptr nonnull %trace) #20
  resume { ptr, i32 } %7
}

; Function Attrs: noinline uwtable
define linkonce_odr dso_local noundef zeroext i1 @_Z19check_frame_variantILb1ELb0ELb1ELb0ELb0EEbiRVi(i32 noundef %seed, ptr noundef nonnull align 4 dereferenceable(4) %dumping_ground) local_unnamed_addr #3 comdat personality ptr @__gxx_personality_v0 {
entry:
  %trace = alloca [100 x %union.trace_element], align 16
  %test_description = alloca %"class.std::__cxx11::basic_string", align 8
  call void @llvm.lifetime.start.p0(i64 800, ptr nonnull %trace) #20
  call void @llvm.lifetime.start.p0(i64 32, ptr nonnull %test_description) #20
  call void @_Z24getTestDescriptionStringB5cxx11bbbbb(ptr nonnull sret(%"class.std::__cxx11::basic_string") align 8 %test_description, i1 noundef zeroext true, i1 noundef zeroext false, i1 noundef zeroext true, i1 noundef zeroext false, i1 noundef zeroext false)
  %conv = sitofp i32 %seed to double
  %add.i = fadd double %conv, %conv
  %add6.i = fadd double %add.i, %conv
  %add9.i = fadd double %add6.i, %conv
  %add12.i = fadd double %add9.i, %conv
  %add15.i = fadd double %add12.i, %conv
  %add18.i = fadd double %add15.i, %conv
  %add21.i = fadd double %add18.i, %conv
  %add24.i = fadd double %add21.i, %conv
  %add27.i = fadd double %add24.i, %conv
  %add30.i = fadd double %add27.i, %conv
  %add34.i = fadd double %add30.i, %conv
  %add38.i = fadd double %add34.i, %conv
  %add42.i = fadd double %add38.i, %conv
  %add45.i = fadd double %add42.i, %conv
  %add48.i = fadd double %add45.i, %conv
  %add52.i = fadd double %add48.i, %conv
  %add55.i = fadd double %add52.i, %conv
  %add58.i = fadd double %add55.i, %conv
  %add61.i = fadd double %add58.i, %conv
  %add64.i = fadd double %add61.i, %conv
  %add67.i = fadd double %add64.i, %conv
  %add70.i = fadd double %add67.i, %conv
  %add73.i = fadd double %add70.i, %conv
  %add77.i = fadd double %add73.i, %conv
  %add80.i = fadd double %add77.i, %conv
  %add83.i = fadd double %add80.i, %conv
  %add86.i = fadd double %add83.i, %conv
  %add89.i = fadd double %add86.i, %conv
  %add92.i = fadd double %add89.i, %conv
  %add95.i = fadd double %add92.i, %conv
  %add98.i = fadd double %add95.i, %conv
  %add101.i = fadd double %add98.i, %conv
  %add104.i = fadd double %add101.i, %conv
  %add107.i = fadd double %add104.i, %conv
  %add110.i = fadd double %add107.i, %conv
  %add113.i = fadd double %add110.i, %conv
  %add117.i = fadd double %add113.i, %conv
  %add120.i = fadd double %add117.i, %conv
  %add.i37 = shl nsw i32 %seed, 1
  %add6.i39 = mul nsw i32 %seed, 3
  %add9.i41 = shl nsw i32 %seed, 2
  %add12.i43 = mul nsw i32 %seed, 5
  %add15.i45 = mul nsw i32 %seed, 6
  %add18.i47 = mul nsw i32 %seed, 7
  %add21.i49 = shl nsw i32 %seed, 3
  %add24.i51 = mul nsw i32 %seed, 9
  %add27.i53 = mul nsw i32 %seed, 10
  %add30.i55 = mul nsw i32 %seed, 11
  %add34.i57 = mul nsw i32 %seed, 12
  %add38.i59 = mul nsw i32 %seed, 13
  %add42.i61 = mul nsw i32 %seed, 14
  %add45.i63 = mul nsw i32 %seed, 15
  %add48.i65 = shl nsw i32 %seed, 4
  %add52.i67 = mul nsw i32 %seed, 17
  %add55.i69 = mul nsw i32 %seed, 18
  %add58.i71 = mul nsw i32 %seed, 19
  %add61.i73 = mul nsw i32 %seed, 20
  %add64.i75 = mul nsw i32 %seed, 21
  %add67.i77 = mul nsw i32 %seed, 22
  %add70.i79 = mul nsw i32 %seed, 23
  %add73.i81 = mul nsw i32 %seed, 24
  %add77.i83 = mul nsw i32 %seed, 25
  %add80.i85 = mul nsw i32 %seed, 26
  %add83.i87 = mul nsw i32 %seed, 27
  %add86.i89 = mul nsw i32 %seed, 28
  %add89.i91 = mul nsw i32 %seed, 29
  %add92.i93 = mul nsw i32 %seed, 30
  %add95.i95 = mul nsw i32 %seed, 31
  %add98.i97 = shl nsw i32 %seed, 5
  %add101.i99 = mul nsw i32 %seed, 33
  %add104.i101 = mul nsw i32 %seed, 34
  %add107.i103 = mul nsw i32 %seed, 35
  %add110.i105 = mul nsw i32 %seed, 36
  %add113.i107 = mul nsw i32 %seed, 37
  %add117.i109 = mul nsw i32 %seed, 38
  %add120.i111 = mul nsw i32 %seed, 39
  %div.i = fdiv double %add120.i, %add117.i
  %div2.i = fdiv double %div.i, %add113.i
  %div3.i = fdiv double %div2.i, %add110.i
  %div4.i = fdiv double %div3.i, %add107.i
  %div5.i = fdiv double %div4.i, %add104.i
  %div6.i = fdiv double %div5.i, %add101.i
  %div7.i = fdiv double %div6.i, %add98.i
  %div8.i = fdiv double %div7.i, %add95.i
  %div9.i = fdiv double %div8.i, %add92.i
  %div10.i = fdiv double %div9.i, %add89.i
  %div11.i = fdiv double %div10.i, %add86.i
  %div12.i = fdiv double %div11.i, %add83.i
  %div13.i = fdiv double %div12.i, %add80.i
  %div14.i = fdiv double %div13.i, %add77.i
  %div15.i = fdiv double %div14.i, %add73.i
  %div16.i = fdiv double %div15.i, %add70.i
  %div17.i = fdiv double %div16.i, %add67.i
  %div18.i = fdiv double %div17.i, %add64.i
  %div19.i = fdiv double %div18.i, %add61.i
  %div20.i = fdiv double %div19.i, %add58.i
  %div21.i = fdiv double %div20.i, %add55.i
  %div22.i = fdiv double %div21.i, %add52.i
  %div23.i = fdiv double %div22.i, %add48.i
  %div24.i = fdiv double %div23.i, %add45.i
  %div25.i = fdiv double %div24.i, %add42.i
  %div26.i = fdiv double %div25.i, %add38.i
  %div27.i = fdiv double %div26.i, %add34.i
  %div28.i = fdiv double %div27.i, %add30.i
  %div29.i = fdiv double %div28.i, %add27.i
  %div30.i = fdiv double %div29.i, %add24.i
  %div31.i = fdiv double %div30.i, %add21.i
  %div32.i = fdiv double %div31.i, %add18.i
  %div33.i = fdiv double %div32.i, %add15.i
  %div34.i = fdiv double %div33.i, %add12.i
  %div35.i = fdiv double %div34.i, %add9.i
  %div36.i = fdiv double %div35.i, %add6.i
  %div37.i = fdiv double %div36.i, %add.i
  %div38.i = fdiv double %div37.i, %conv
  %div.i146 = sdiv i32 %add120.i111, %add117.i109
  %div2.i148 = sdiv i32 %div.i146, %add113.i107
  %div3.i150 = sdiv i32 %div2.i148, %add110.i105
  %div4.i152 = sdiv i32 %div3.i150, %add107.i103
  %div5.i154 = sdiv i32 %div4.i152, %add104.i101
  %div6.i156 = sdiv i32 %div5.i154, %add101.i99
  %div7.i158 = sdiv i32 %div6.i156, %add98.i97
  %div8.i160 = sdiv i32 %div7.i158, %add95.i95
  %div9.i162 = sdiv i32 %div8.i160, %add92.i93
  %div10.i164 = sdiv i32 %div9.i162, %add89.i91
  %div11.i166 = sdiv i32 %div10.i164, %add86.i89
  %div12.i168 = sdiv i32 %div11.i166, %add83.i87
  %div13.i170 = sdiv i32 %div12.i168, %add80.i85
  %div14.i172 = sdiv i32 %div13.i170, %add77.i83
  %div15.i174 = sdiv i32 %div14.i172, %add73.i81
  %div16.i176 = sdiv i32 %div15.i174, %add70.i79
  %div17.i178 = sdiv i32 %div16.i176, %add67.i77
  %div18.i180 = sdiv i32 %div17.i178, %add64.i75
  %div19.i182 = sdiv i32 %div18.i180, %add61.i73
  %div20.i184 = sdiv i32 %div19.i182, %add58.i71
  %div21.i186 = sdiv i32 %div20.i184, %add55.i69
  %div22.i188 = sdiv i32 %div21.i186, %add52.i67
  %div23.i190 = sdiv i32 %div22.i188, %add48.i65
  %div24.i192 = sdiv i32 %div23.i190, %add45.i63
  %div25.i194 = sdiv i32 %div24.i192, %add42.i61
  %div26.i196 = sdiv i32 %div25.i194, %add38.i59
  %div27.i198 = sdiv i32 %div26.i196, %add34.i57
  %div28.i200 = sdiv i32 %div27.i198, %add30.i55
  %div29.i202 = sdiv i32 %div28.i200, %add27.i53
  %div30.i204 = sdiv i32 %div29.i202, %add24.i51
  %div31.i206 = sdiv i32 %div30.i204, %add21.i49
  %div32.i208 = sdiv i32 %div31.i206, %add18.i47
  %div33.i210 = sdiv i32 %div32.i208, %add15.i45
  %div34.i212 = sdiv i32 %div33.i210, %add12.i43
  %div35.i214 = sdiv i32 %div34.i212, %add9.i41
  %div36.i216 = sdiv i32 %div35.i214, %add6.i39
  %div37.i218 = sdiv i32 %div36.i216, %add.i37
  %div38.i219 = sdiv i32 %div37.i218, %seed
  %conv4 = sitofp i32 %div38.i219 to double
  %add = fadd double %div38.i, %conv4
  invoke void @_Z10test_frameILj4096ELb0ELj2048ELb1ELb0EJEEvDpT4_jPKcP13trace_elementd(i32 noundef 100, ptr noundef nonnull @.str.37, ptr noundef nonnull %trace, double noundef %add)
          to label %invoke.cont6 unwind label %lpad5

invoke.cont6:                                     ; preds = %entry
  %0 = load double, ptr %trace, align 16, !tbaa !5
  %div.i221 = fdiv double %conv, %add.i
  %div2.i223 = fdiv double %div.i221, %add6.i
  %div3.i225 = fdiv double %div2.i223, %add9.i
  %div4.i227 = fdiv double %div3.i225, %add12.i
  %div5.i229 = fdiv double %div4.i227, %add15.i
  %div6.i231 = fdiv double %div5.i229, %add18.i
  %div7.i233 = fdiv double %div6.i231, %add21.i
  %div8.i235 = fdiv double %div7.i233, %add24.i
  %div9.i237 = fdiv double %div8.i235, %add27.i
  %div10.i239 = fdiv double %div9.i237, %add30.i
  %div11.i241 = fdiv double %div10.i239, %add34.i
  %div12.i243 = fdiv double %div11.i241, %add38.i
  %div13.i245 = fdiv double %div12.i243, %add42.i
  %div14.i247 = fdiv double %div13.i245, %add45.i
  %div15.i249 = fdiv double %div14.i247, %add48.i
  %div16.i251 = fdiv double %div15.i249, %add52.i
  %div17.i253 = fdiv double %div16.i251, %add55.i
  %div18.i255 = fdiv double %div17.i253, %add58.i
  %div19.i257 = fdiv double %div18.i255, %add61.i
  %div20.i259 = fdiv double %div19.i257, %add64.i
  %div21.i261 = fdiv double %div20.i259, %add67.i
  %div22.i263 = fdiv double %div21.i261, %add70.i
  %div23.i265 = fdiv double %div22.i263, %add73.i
  %div24.i267 = fdiv double %div23.i265, %add77.i
  %div25.i269 = fdiv double %div24.i267, %add80.i
  %div26.i271 = fdiv double %div25.i269, %add83.i
  %div27.i273 = fdiv double %div26.i271, %add86.i
  %div28.i275 = fdiv double %div27.i273, %add89.i
  %div29.i277 = fdiv double %div28.i275, %add92.i
  %div30.i279 = fdiv double %div29.i277, %add95.i
  %div31.i281 = fdiv double %div30.i279, %add98.i
  %div32.i283 = fdiv double %div31.i281, %add101.i
  %div33.i285 = fdiv double %div32.i283, %add104.i
  %div34.i287 = fdiv double %div33.i285, %add107.i
  %div35.i289 = fdiv double %div34.i287, %add110.i
  %div36.i291 = fdiv double %div35.i289, %add113.i
  %div37.i293 = fdiv double %div36.i291, %add117.i
  %div38.i295 = fdiv double %div37.i293, %add120.i
  %div39.i = fdiv double %div38.i295, %0
  %1 = bitcast double %0 to i64
  %2 = trunc i64 %1 to i32
  %div.i297 = sdiv i32 %seed, %add.i37
  %div2.i299 = sdiv i32 %div.i297, %add6.i39
  %div3.i301 = sdiv i32 %div2.i299, %add9.i41
  %div4.i303 = sdiv i32 %div3.i301, %add12.i43
  %div5.i305 = sdiv i32 %div4.i303, %add15.i45
  %div6.i307 = sdiv i32 %div5.i305, %add18.i47
  %div7.i309 = sdiv i32 %div6.i307, %add21.i49
  %div8.i311 = sdiv i32 %div7.i309, %add24.i51
  %div9.i313 = sdiv i32 %div8.i311, %add27.i53
  %div10.i315 = sdiv i32 %div9.i313, %add30.i55
  %div11.i317 = sdiv i32 %div10.i315, %add34.i57
  %div12.i319 = sdiv i32 %div11.i317, %add38.i59
  %div13.i321 = sdiv i32 %div12.i319, %add42.i61
  %div14.i323 = sdiv i32 %div13.i321, %add45.i63
  %div15.i325 = sdiv i32 %div14.i323, %add48.i65
  %div16.i327 = sdiv i32 %div15.i325, %add52.i67
  %div17.i329 = sdiv i32 %div16.i327, %add55.i69
  %div18.i331 = sdiv i32 %div17.i329, %add58.i71
  %div19.i333 = sdiv i32 %div18.i331, %add61.i73
  %div20.i335 = sdiv i32 %div19.i333, %add64.i75
  %div21.i337 = sdiv i32 %div20.i335, %add67.i77
  %div22.i339 = sdiv i32 %div21.i337, %add70.i79
  %div23.i341 = sdiv i32 %div22.i339, %add73.i81
  %div24.i343 = sdiv i32 %div23.i341, %add77.i83
  %div25.i345 = sdiv i32 %div24.i343, %add80.i85
  %div26.i347 = sdiv i32 %div25.i345, %add83.i87
  %div27.i349 = sdiv i32 %div26.i347, %add86.i89
  %div28.i351 = sdiv i32 %div27.i349, %add89.i91
  %div29.i353 = sdiv i32 %div28.i351, %add92.i93
  %div30.i355 = sdiv i32 %div29.i353, %add95.i95
  %div31.i357 = sdiv i32 %div30.i355, %add98.i97
  %div32.i359 = sdiv i32 %div31.i357, %add101.i99
  %div33.i361 = sdiv i32 %div32.i359, %add104.i101
  %div34.i363 = sdiv i32 %div33.i361, %add107.i103
  %div35.i365 = sdiv i32 %div34.i363, %add110.i105
  %div36.i367 = sdiv i32 %div35.i365, %add113.i107
  %div37.i369 = sdiv i32 %div36.i367, %add117.i109
  %div38.i371 = sdiv i32 %div37.i369, %add120.i111
  %div39.i372 = sdiv i32 %div38.i371, %2
  %conv10 = sitofp i32 %div39.i372 to double
  %add11 = fadd double %div39.i, %conv10
  %conv12 = fptosi double %add11 to i32
  %3 = load volatile i32, ptr %dumping_ground, align 4, !tbaa !49
  %add13 = add nsw i32 %3, %conv12
  store volatile i32 %add13, ptr %dumping_ground, align 4, !tbaa !49
  br label %try.cont

lpad5:                                            ; preds = %entry
  %4 = landingpad { ptr, i32 }
          cleanup
          catch ptr @_ZTIi
  %5 = extractvalue { ptr, i32 } %4, 1
  %6 = call i32 @llvm.eh.typeid.for(ptr nonnull @_ZTIi) #20
  %matches = icmp eq i32 %5, %6
  br i1 %matches, label %catch, label %ehcleanup

catch:                                            ; preds = %lpad5
  %7 = extractvalue { ptr, i32 } %4, 0
  %8 = call ptr @__cxa_begin_catch(ptr %7) #20
  %9 = load i32, ptr %8, align 4, !tbaa !49
  call void @__cxa_end_catch() #20
  br label %try.cont

try.cont:                                         ; preds = %catch, %invoke.cont6
  %exception_value.0 = phi i32 [ -1, %invoke.cont6 ], [ %9, %catch ]
  %10 = load ptr, ptr %test_description, align 8, !tbaa !35
  %call18 = invoke noundef zeroext i1 @_Z11check_tracePKcS0_PK13trace_elementdjbjjbbi(ptr noundef %10, ptr noundef nonnull @.str.37, ptr noundef nonnull %trace, double noundef %add, i32 noundef 4096, i1 noundef zeroext false, i32 poison, i32 noundef 2048, i1 noundef zeroext true, i1 noundef zeroext false, i32 noundef %exception_value.0)
          to label %invoke.cont17 unwind label %lpad16

invoke.cont17:                                    ; preds = %try.cont
  %11 = load ptr, ptr %test_description, align 8, !tbaa !35
  %12 = getelementptr inbounds %"class.std::__cxx11::basic_string", ptr %test_description, i64 0, i32 2
  %cmp.i.i.i = icmp eq ptr %11, %12
  br i1 %cmp.i.i.i, label %_ZNSt7__cxx1112basic_stringIcSt11char_traitsIcESaIcEED2Ev.exit, label %if.then.i.i

if.then.i.i:                                      ; preds = %invoke.cont17
  call void @_ZdlPv(ptr noundef %11) #22
  br label %_ZNSt7__cxx1112basic_stringIcSt11char_traitsIcESaIcEED2Ev.exit

_ZNSt7__cxx1112basic_stringIcSt11char_traitsIcESaIcEED2Ev.exit: ; preds = %invoke.cont17, %if.then.i.i
  call void @llvm.lifetime.end.p0(i64 32, ptr nonnull %test_description) #20
  call void @llvm.lifetime.end.p0(i64 800, ptr nonnull %trace) #20
  ret i1 %call18

lpad16:                                           ; preds = %try.cont
  %13 = landingpad { ptr, i32 }
          cleanup
  br label %ehcleanup

ehcleanup:                                        ; preds = %lpad16, %lpad5
  %lpad.val31.merged = phi { ptr, i32 } [ %13, %lpad16 ], [ %4, %lpad5 ]
  %14 = load ptr, ptr %test_description, align 8, !tbaa !35
  %15 = getelementptr inbounds %"class.std::__cxx11::basic_string", ptr %test_description, i64 0, i32 2
  %cmp.i.i.i373 = icmp eq ptr %14, %15
  br i1 %cmp.i.i.i373, label %_ZNSt7__cxx1112basic_stringIcSt11char_traitsIcESaIcEED2Ev.exit375, label %if.then.i.i374

if.then.i.i374:                                   ; preds = %ehcleanup
  call void @_ZdlPv(ptr noundef %14) #22
  br label %_ZNSt7__cxx1112basic_stringIcSt11char_traitsIcESaIcEED2Ev.exit375

_ZNSt7__cxx1112basic_stringIcSt11char_traitsIcESaIcEED2Ev.exit375: ; preds = %ehcleanup, %if.then.i.i374
  call void @llvm.lifetime.end.p0(i64 32, ptr nonnull %test_description) #20
  call void @llvm.lifetime.end.p0(i64 800, ptr nonnull %trace) #20
  resume { ptr, i32 } %lpad.val31.merged
}

; Function Attrs: noinline uwtable
define linkonce_odr dso_local noundef zeroext i1 @_Z19check_frame_variantILb0ELb0ELb1ELb0ELb0EEbiRVi(i32 noundef %seed, ptr noundef nonnull align 4 dereferenceable(4) %dumping_ground) local_unnamed_addr #3 comdat personality ptr @__gxx_personality_v0 {
entry:
  %trace = alloca [100 x %union.trace_element], align 16
  %test_description = alloca %"class.std::__cxx11::basic_string", align 8
  call void @llvm.lifetime.start.p0(i64 800, ptr nonnull %trace) #20
  call void @llvm.lifetime.start.p0(i64 32, ptr nonnull %test_description) #20
  call void @_Z24getTestDescriptionStringB5cxx11bbbbb(ptr nonnull sret(%"class.std::__cxx11::basic_string") align 8 %test_description, i1 noundef zeroext false, i1 noundef zeroext false, i1 noundef zeroext true, i1 noundef zeroext false, i1 noundef zeroext false)
  %conv = sitofp i32 %seed to double
  %add.i = fadd double %conv, %conv
  %add6.i = fadd double %add.i, %conv
  %add9.i = fadd double %add6.i, %conv
  %add12.i = fadd double %add9.i, %conv
  %add15.i = fadd double %add12.i, %conv
  %add18.i = fadd double %add15.i, %conv
  %add21.i = fadd double %add18.i, %conv
  %add24.i = fadd double %add21.i, %conv
  %add27.i = fadd double %add24.i, %conv
  %add30.i = fadd double %add27.i, %conv
  %add34.i = fadd double %add30.i, %conv
  %add38.i = fadd double %add34.i, %conv
  %add42.i = fadd double %add38.i, %conv
  %add45.i = fadd double %add42.i, %conv
  %add48.i = fadd double %add45.i, %conv
  %add52.i = fadd double %add48.i, %conv
  %add55.i = fadd double %add52.i, %conv
  %add58.i = fadd double %add55.i, %conv
  %add61.i = fadd double %add58.i, %conv
  %add64.i = fadd double %add61.i, %conv
  %add67.i = fadd double %add64.i, %conv
  %add70.i = fadd double %add67.i, %conv
  %add73.i = fadd double %add70.i, %conv
  %add77.i = fadd double %add73.i, %conv
  %add80.i = fadd double %add77.i, %conv
  %add83.i = fadd double %add80.i, %conv
  %add86.i = fadd double %add83.i, %conv
  %add89.i = fadd double %add86.i, %conv
  %add92.i = fadd double %add89.i, %conv
  %add95.i = fadd double %add92.i, %conv
  %add98.i = fadd double %add95.i, %conv
  %add101.i = fadd double %add98.i, %conv
  %add104.i = fadd double %add101.i, %conv
  %add107.i = fadd double %add104.i, %conv
  %add110.i = fadd double %add107.i, %conv
  %add113.i = fadd double %add110.i, %conv
  %add117.i = fadd double %add113.i, %conv
  %add120.i = fadd double %add117.i, %conv
  %add.i37 = shl nsw i32 %seed, 1
  %add6.i39 = mul nsw i32 %seed, 3
  %add9.i41 = shl nsw i32 %seed, 2
  %add12.i43 = mul nsw i32 %seed, 5
  %add15.i45 = mul nsw i32 %seed, 6
  %add18.i47 = mul nsw i32 %seed, 7
  %add21.i49 = shl nsw i32 %seed, 3
  %add24.i51 = mul nsw i32 %seed, 9
  %add27.i53 = mul nsw i32 %seed, 10
  %add30.i55 = mul nsw i32 %seed, 11
  %add34.i57 = mul nsw i32 %seed, 12
  %add38.i59 = mul nsw i32 %seed, 13
  %add42.i61 = mul nsw i32 %seed, 14
  %add45.i63 = mul nsw i32 %seed, 15
  %add48.i65 = shl nsw i32 %seed, 4
  %add52.i67 = mul nsw i32 %seed, 17
  %add55.i69 = mul nsw i32 %seed, 18
  %add58.i71 = mul nsw i32 %seed, 19
  %add61.i73 = mul nsw i32 %seed, 20
  %add64.i75 = mul nsw i32 %seed, 21
  %add67.i77 = mul nsw i32 %seed, 22
  %add70.i79 = mul nsw i32 %seed, 23
  %add73.i81 = mul nsw i32 %seed, 24
  %add77.i83 = mul nsw i32 %seed, 25
  %add80.i85 = mul nsw i32 %seed, 26
  %add83.i87 = mul nsw i32 %seed, 27
  %add86.i89 = mul nsw i32 %seed, 28
  %add89.i91 = mul nsw i32 %seed, 29
  %add92.i93 = mul nsw i32 %seed, 30
  %add95.i95 = mul nsw i32 %seed, 31
  %add98.i97 = shl nsw i32 %seed, 5
  %add101.i99 = mul nsw i32 %seed, 33
  %add104.i101 = mul nsw i32 %seed, 34
  %add107.i103 = mul nsw i32 %seed, 35
  %add110.i105 = mul nsw i32 %seed, 36
  %add113.i107 = mul nsw i32 %seed, 37
  %add117.i109 = mul nsw i32 %seed, 38
  %add120.i111 = mul nsw i32 %seed, 39
  %div.i = fdiv double %add120.i, %add117.i
  %div2.i = fdiv double %div.i, %add113.i
  %div3.i = fdiv double %div2.i, %add110.i
  %div4.i = fdiv double %div3.i, %add107.i
  %div5.i = fdiv double %div4.i, %add104.i
  %div6.i = fdiv double %div5.i, %add101.i
  %div7.i = fdiv double %div6.i, %add98.i
  %div8.i = fdiv double %div7.i, %add95.i
  %div9.i = fdiv double %div8.i, %add92.i
  %div10.i = fdiv double %div9.i, %add89.i
  %div11.i = fdiv double %div10.i, %add86.i
  %div12.i = fdiv double %div11.i, %add83.i
  %div13.i = fdiv double %div12.i, %add80.i
  %div14.i = fdiv double %div13.i, %add77.i
  %div15.i = fdiv double %div14.i, %add73.i
  %div16.i = fdiv double %div15.i, %add70.i
  %div17.i = fdiv double %div16.i, %add67.i
  %div18.i = fdiv double %div17.i, %add64.i
  %div19.i = fdiv double %div18.i, %add61.i
  %div20.i = fdiv double %div19.i, %add58.i
  %div21.i = fdiv double %div20.i, %add55.i
  %div22.i = fdiv double %div21.i, %add52.i
  %div23.i = fdiv double %div22.i, %add48.i
  %div24.i = fdiv double %div23.i, %add45.i
  %div25.i = fdiv double %div24.i, %add42.i
  %div26.i = fdiv double %div25.i, %add38.i
  %div27.i = fdiv double %div26.i, %add34.i
  %div28.i = fdiv double %div27.i, %add30.i
  %div29.i = fdiv double %div28.i, %add27.i
  %div30.i = fdiv double %div29.i, %add24.i
  %div31.i = fdiv double %div30.i, %add21.i
  %div32.i = fdiv double %div31.i, %add18.i
  %div33.i = fdiv double %div32.i, %add15.i
  %div34.i = fdiv double %div33.i, %add12.i
  %div35.i = fdiv double %div34.i, %add9.i
  %div36.i = fdiv double %div35.i, %add6.i
  %div37.i = fdiv double %div36.i, %add.i
  %div38.i = fdiv double %div37.i, %conv
  %div.i146 = sdiv i32 %add120.i111, %add117.i109
  %div2.i148 = sdiv i32 %div.i146, %add113.i107
  %div3.i150 = sdiv i32 %div2.i148, %add110.i105
  %div4.i152 = sdiv i32 %div3.i150, %add107.i103
  %div5.i154 = sdiv i32 %div4.i152, %add104.i101
  %div6.i156 = sdiv i32 %div5.i154, %add101.i99
  %div7.i158 = sdiv i32 %div6.i156, %add98.i97
  %div8.i160 = sdiv i32 %div7.i158, %add95.i95
  %div9.i162 = sdiv i32 %div8.i160, %add92.i93
  %div10.i164 = sdiv i32 %div9.i162, %add89.i91
  %div11.i166 = sdiv i32 %div10.i164, %add86.i89
  %div12.i168 = sdiv i32 %div11.i166, %add83.i87
  %div13.i170 = sdiv i32 %div12.i168, %add80.i85
  %div14.i172 = sdiv i32 %div13.i170, %add77.i83
  %div15.i174 = sdiv i32 %div14.i172, %add73.i81
  %div16.i176 = sdiv i32 %div15.i174, %add70.i79
  %div17.i178 = sdiv i32 %div16.i176, %add67.i77
  %div18.i180 = sdiv i32 %div17.i178, %add64.i75
  %div19.i182 = sdiv i32 %div18.i180, %add61.i73
  %div20.i184 = sdiv i32 %div19.i182, %add58.i71
  %div21.i186 = sdiv i32 %div20.i184, %add55.i69
  %div22.i188 = sdiv i32 %div21.i186, %add52.i67
  %div23.i190 = sdiv i32 %div22.i188, %add48.i65
  %div24.i192 = sdiv i32 %div23.i190, %add45.i63
  %div25.i194 = sdiv i32 %div24.i192, %add42.i61
  %div26.i196 = sdiv i32 %div25.i194, %add38.i59
  %div27.i198 = sdiv i32 %div26.i196, %add34.i57
  %div28.i200 = sdiv i32 %div27.i198, %add30.i55
  %div29.i202 = sdiv i32 %div28.i200, %add27.i53
  %div30.i204 = sdiv i32 %div29.i202, %add24.i51
  %div31.i206 = sdiv i32 %div30.i204, %add21.i49
  %div32.i208 = sdiv i32 %div31.i206, %add18.i47
  %div33.i210 = sdiv i32 %div32.i208, %add15.i45
  %div34.i212 = sdiv i32 %div33.i210, %add12.i43
  %div35.i214 = sdiv i32 %div34.i212, %add9.i41
  %div36.i216 = sdiv i32 %div35.i214, %add6.i39
  %div37.i218 = sdiv i32 %div36.i216, %add.i37
  %div38.i219 = sdiv i32 %div37.i218, %seed
  %conv4 = sitofp i32 %div38.i219 to double
  %add = fadd double %div38.i, %conv4
  invoke void @_Z10test_frameILj2ELb0ELj2048ELb1ELb0EJEEvDpT4_jPKcP13trace_elementd(i32 noundef 100, ptr noundef nonnull @.str.37, ptr noundef nonnull %trace, double noundef %add)
          to label %invoke.cont6 unwind label %lpad5

invoke.cont6:                                     ; preds = %entry
  %0 = load double, ptr %trace, align 16, !tbaa !5
  %div.i221 = fdiv double %conv, %add.i
  %div2.i223 = fdiv double %div.i221, %add6.i
  %div3.i225 = fdiv double %div2.i223, %add9.i
  %div4.i227 = fdiv double %div3.i225, %add12.i
  %div5.i229 = fdiv double %div4.i227, %add15.i
  %div6.i231 = fdiv double %div5.i229, %add18.i
  %div7.i233 = fdiv double %div6.i231, %add21.i
  %div8.i235 = fdiv double %div7.i233, %add24.i
  %div9.i237 = fdiv double %div8.i235, %add27.i
  %div10.i239 = fdiv double %div9.i237, %add30.i
  %div11.i241 = fdiv double %div10.i239, %add34.i
  %div12.i243 = fdiv double %div11.i241, %add38.i
  %div13.i245 = fdiv double %div12.i243, %add42.i
  %div14.i247 = fdiv double %div13.i245, %add45.i
  %div15.i249 = fdiv double %div14.i247, %add48.i
  %div16.i251 = fdiv double %div15.i249, %add52.i
  %div17.i253 = fdiv double %div16.i251, %add55.i
  %div18.i255 = fdiv double %div17.i253, %add58.i
  %div19.i257 = fdiv double %div18.i255, %add61.i
  %div20.i259 = fdiv double %div19.i257, %add64.i
  %div21.i261 = fdiv double %div20.i259, %add67.i
  %div22.i263 = fdiv double %div21.i261, %add70.i
  %div23.i265 = fdiv double %div22.i263, %add73.i
  %div24.i267 = fdiv double %div23.i265, %add77.i
  %div25.i269 = fdiv double %div24.i267, %add80.i
  %div26.i271 = fdiv double %div25.i269, %add83.i
  %div27.i273 = fdiv double %div26.i271, %add86.i
  %div28.i275 = fdiv double %div27.i273, %add89.i
  %div29.i277 = fdiv double %div28.i275, %add92.i
  %div30.i279 = fdiv double %div29.i277, %add95.i
  %div31.i281 = fdiv double %div30.i279, %add98.i
  %div32.i283 = fdiv double %div31.i281, %add101.i
  %div33.i285 = fdiv double %div32.i283, %add104.i
  %div34.i287 = fdiv double %div33.i285, %add107.i
  %div35.i289 = fdiv double %div34.i287, %add110.i
  %div36.i291 = fdiv double %div35.i289, %add113.i
  %div37.i293 = fdiv double %div36.i291, %add117.i
  %div38.i295 = fdiv double %div37.i293, %add120.i
  %div39.i = fdiv double %div38.i295, %0
  %1 = bitcast double %0 to i64
  %2 = trunc i64 %1 to i32
  %div.i297 = sdiv i32 %seed, %add.i37
  %div2.i299 = sdiv i32 %div.i297, %add6.i39
  %div3.i301 = sdiv i32 %div2.i299, %add9.i41
  %div4.i303 = sdiv i32 %div3.i301, %add12.i43
  %div5.i305 = sdiv i32 %div4.i303, %add15.i45
  %div6.i307 = sdiv i32 %div5.i305, %add18.i47
  %div7.i309 = sdiv i32 %div6.i307, %add21.i49
  %div8.i311 = sdiv i32 %div7.i309, %add24.i51
  %div9.i313 = sdiv i32 %div8.i311, %add27.i53
  %div10.i315 = sdiv i32 %div9.i313, %add30.i55
  %div11.i317 = sdiv i32 %div10.i315, %add34.i57
  %div12.i319 = sdiv i32 %div11.i317, %add38.i59
  %div13.i321 = sdiv i32 %div12.i319, %add42.i61
  %div14.i323 = sdiv i32 %div13.i321, %add45.i63
  %div15.i325 = sdiv i32 %div14.i323, %add48.i65
  %div16.i327 = sdiv i32 %div15.i325, %add52.i67
  %div17.i329 = sdiv i32 %div16.i327, %add55.i69
  %div18.i331 = sdiv i32 %div17.i329, %add58.i71
  %div19.i333 = sdiv i32 %div18.i331, %add61.i73
  %div20.i335 = sdiv i32 %div19.i333, %add64.i75
  %div21.i337 = sdiv i32 %div20.i335, %add67.i77
  %div22.i339 = sdiv i32 %div21.i337, %add70.i79
  %div23.i341 = sdiv i32 %div22.i339, %add73.i81
  %div24.i343 = sdiv i32 %div23.i341, %add77.i83
  %div25.i345 = sdiv i32 %div24.i343, %add80.i85
  %div26.i347 = sdiv i32 %div25.i345, %add83.i87
  %div27.i349 = sdiv i32 %div26.i347, %add86.i89
  %div28.i351 = sdiv i32 %div27.i349, %add89.i91
  %div29.i353 = sdiv i32 %div28.i351, %add92.i93
  %div30.i355 = sdiv i32 %div29.i353, %add95.i95
  %div31.i357 = sdiv i32 %div30.i355, %add98.i97
  %div32.i359 = sdiv i32 %div31.i357, %add101.i99
  %div33.i361 = sdiv i32 %div32.i359, %add104.i101
  %div34.i363 = sdiv i32 %div33.i361, %add107.i103
  %div35.i365 = sdiv i32 %div34.i363, %add110.i105
  %div36.i367 = sdiv i32 %div35.i365, %add113.i107
  %div37.i369 = sdiv i32 %div36.i367, %add117.i109
  %div38.i371 = sdiv i32 %div37.i369, %add120.i111
  %div39.i372 = sdiv i32 %div38.i371, %2
  %conv10 = sitofp i32 %div39.i372 to double
  %add11 = fadd double %div39.i, %conv10
  %conv12 = fptosi double %add11 to i32
  %3 = load volatile i32, ptr %dumping_ground, align 4, !tbaa !49
  %add13 = add nsw i32 %3, %conv12
  store volatile i32 %add13, ptr %dumping_ground, align 4, !tbaa !49
  br label %try.cont

lpad5:                                            ; preds = %entry
  %4 = landingpad { ptr, i32 }
          cleanup
          catch ptr @_ZTIi
  %5 = extractvalue { ptr, i32 } %4, 1
  %6 = call i32 @llvm.eh.typeid.for(ptr nonnull @_ZTIi) #20
  %matches = icmp eq i32 %5, %6
  br i1 %matches, label %catch, label %ehcleanup

catch:                                            ; preds = %lpad5
  %7 = extractvalue { ptr, i32 } %4, 0
  %8 = call ptr @__cxa_begin_catch(ptr %7) #20
  %9 = load i32, ptr %8, align 4, !tbaa !49
  call void @__cxa_end_catch() #20
  br label %try.cont

try.cont:                                         ; preds = %catch, %invoke.cont6
  %exception_value.0 = phi i32 [ -1, %invoke.cont6 ], [ %9, %catch ]
  %10 = load ptr, ptr %test_description, align 8, !tbaa !35
  %call18 = invoke noundef zeroext i1 @_Z11check_tracePKcS0_PK13trace_elementdjbjjbbi(ptr noundef %10, ptr noundef nonnull @.str.37, ptr noundef nonnull %trace, double noundef %add, i32 noundef 2, i1 noundef zeroext false, i32 poison, i32 noundef 2048, i1 noundef zeroext true, i1 noundef zeroext false, i32 noundef %exception_value.0)
          to label %invoke.cont17 unwind label %lpad16

invoke.cont17:                                    ; preds = %try.cont
  %11 = load ptr, ptr %test_description, align 8, !tbaa !35
  %12 = getelementptr inbounds %"class.std::__cxx11::basic_string", ptr %test_description, i64 0, i32 2
  %cmp.i.i.i = icmp eq ptr %11, %12
  br i1 %cmp.i.i.i, label %_ZNSt7__cxx1112basic_stringIcSt11char_traitsIcESaIcEED2Ev.exit, label %if.then.i.i

if.then.i.i:                                      ; preds = %invoke.cont17
  call void @_ZdlPv(ptr noundef %11) #22
  br label %_ZNSt7__cxx1112basic_stringIcSt11char_traitsIcESaIcEED2Ev.exit

_ZNSt7__cxx1112basic_stringIcSt11char_traitsIcESaIcEED2Ev.exit: ; preds = %invoke.cont17, %if.then.i.i
  call void @llvm.lifetime.end.p0(i64 32, ptr nonnull %test_description) #20
  call void @llvm.lifetime.end.p0(i64 800, ptr nonnull %trace) #20
  ret i1 %call18

lpad16:                                           ; preds = %try.cont
  %13 = landingpad { ptr, i32 }
          cleanup
  br label %ehcleanup

ehcleanup:                                        ; preds = %lpad16, %lpad5
  %lpad.val31.merged = phi { ptr, i32 } [ %13, %lpad16 ], [ %4, %lpad5 ]
  %14 = load ptr, ptr %test_description, align 8, !tbaa !35
  %15 = getelementptr inbounds %"class.std::__cxx11::basic_string", ptr %test_description, i64 0, i32 2
  %cmp.i.i.i373 = icmp eq ptr %14, %15
  br i1 %cmp.i.i.i373, label %_ZNSt7__cxx1112basic_stringIcSt11char_traitsIcESaIcEED2Ev.exit375, label %if.then.i.i374

if.then.i.i374:                                   ; preds = %ehcleanup
  call void @_ZdlPv(ptr noundef %14) #22
  br label %_ZNSt7__cxx1112basic_stringIcSt11char_traitsIcESaIcEED2Ev.exit375

_ZNSt7__cxx1112basic_stringIcSt11char_traitsIcESaIcEED2Ev.exit375: ; preds = %ehcleanup, %if.then.i.i374
  call void @llvm.lifetime.end.p0(i64 32, ptr nonnull %test_description) #20
  call void @llvm.lifetime.end.p0(i64 800, ptr nonnull %trace) #20
  resume { ptr, i32 } %lpad.val31.merged
}

; Function Attrs: noinline uwtable
define linkonce_odr dso_local noundef zeroext i1 @_Z19check_frame_variantILb1ELb1ELb1ELb0ELb0EEbiRVi(i32 noundef %seed, ptr noundef nonnull align 4 dereferenceable(4) %dumping_ground) local_unnamed_addr #3 comdat personality ptr @__gxx_personality_v0 {
entry:
  %trace = alloca [100 x %union.trace_element], align 16
  %test_description = alloca %"class.std::__cxx11::basic_string", align 8
  call void @llvm.lifetime.start.p0(i64 800, ptr nonnull %trace) #20
  call void @llvm.lifetime.start.p0(i64 32, ptr nonnull %test_description) #20
  call void @_Z24getTestDescriptionStringB5cxx11bbbbb(ptr nonnull sret(%"class.std::__cxx11::basic_string") align 8 %test_description, i1 noundef zeroext true, i1 noundef zeroext true, i1 noundef zeroext true, i1 noundef zeroext false, i1 noundef zeroext false)
  %conv = sitofp i32 %seed to double
  %add.i = fadd double %conv, %conv
  %add6.i = fadd double %add.i, %conv
  %add9.i = fadd double %add6.i, %conv
  %add12.i = fadd double %add9.i, %conv
  %add15.i = fadd double %add12.i, %conv
  %add18.i = fadd double %add15.i, %conv
  %add21.i = fadd double %add18.i, %conv
  %add24.i = fadd double %add21.i, %conv
  %add27.i = fadd double %add24.i, %conv
  %add30.i = fadd double %add27.i, %conv
  %add34.i = fadd double %add30.i, %conv
  %add38.i = fadd double %add34.i, %conv
  %add42.i = fadd double %add38.i, %conv
  %add45.i = fadd double %add42.i, %conv
  %add48.i = fadd double %add45.i, %conv
  %add52.i = fadd double %add48.i, %conv
  %add55.i = fadd double %add52.i, %conv
  %add58.i = fadd double %add55.i, %conv
  %add61.i = fadd double %add58.i, %conv
  %add64.i = fadd double %add61.i, %conv
  %add67.i = fadd double %add64.i, %conv
  %add70.i = fadd double %add67.i, %conv
  %add73.i = fadd double %add70.i, %conv
  %add77.i = fadd double %add73.i, %conv
  %add80.i = fadd double %add77.i, %conv
  %add83.i = fadd double %add80.i, %conv
  %add86.i = fadd double %add83.i, %conv
  %add89.i = fadd double %add86.i, %conv
  %add92.i = fadd double %add89.i, %conv
  %add95.i = fadd double %add92.i, %conv
  %add98.i = fadd double %add95.i, %conv
  %add101.i = fadd double %add98.i, %conv
  %add104.i = fadd double %add101.i, %conv
  %add107.i = fadd double %add104.i, %conv
  %add110.i = fadd double %add107.i, %conv
  %add113.i = fadd double %add110.i, %conv
  %add117.i = fadd double %add113.i, %conv
  %add120.i = fadd double %add117.i, %conv
  %add.i37 = shl nsw i32 %seed, 1
  %add6.i39 = mul nsw i32 %seed, 3
  %add9.i41 = shl nsw i32 %seed, 2
  %add12.i43 = mul nsw i32 %seed, 5
  %add15.i45 = mul nsw i32 %seed, 6
  %add18.i47 = mul nsw i32 %seed, 7
  %add21.i49 = shl nsw i32 %seed, 3
  %add24.i51 = mul nsw i32 %seed, 9
  %add27.i53 = mul nsw i32 %seed, 10
  %add30.i55 = mul nsw i32 %seed, 11
  %add34.i57 = mul nsw i32 %seed, 12
  %add38.i59 = mul nsw i32 %seed, 13
  %add42.i61 = mul nsw i32 %seed, 14
  %add45.i63 = mul nsw i32 %seed, 15
  %add48.i65 = shl nsw i32 %seed, 4
  %add52.i67 = mul nsw i32 %seed, 17
  %add55.i69 = mul nsw i32 %seed, 18
  %add58.i71 = mul nsw i32 %seed, 19
  %add61.i73 = mul nsw i32 %seed, 20
  %add64.i75 = mul nsw i32 %seed, 21
  %add67.i77 = mul nsw i32 %seed, 22
  %add70.i79 = mul nsw i32 %seed, 23
  %add73.i81 = mul nsw i32 %seed, 24
  %add77.i83 = mul nsw i32 %seed, 25
  %add80.i85 = mul nsw i32 %seed, 26
  %add83.i87 = mul nsw i32 %seed, 27
  %add86.i89 = mul nsw i32 %seed, 28
  %add89.i91 = mul nsw i32 %seed, 29
  %add92.i93 = mul nsw i32 %seed, 30
  %add95.i95 = mul nsw i32 %seed, 31
  %add98.i97 = shl nsw i32 %seed, 5
  %add101.i99 = mul nsw i32 %seed, 33
  %add104.i101 = mul nsw i32 %seed, 34
  %add107.i103 = mul nsw i32 %seed, 35
  %add110.i105 = mul nsw i32 %seed, 36
  %add113.i107 = mul nsw i32 %seed, 37
  %add117.i109 = mul nsw i32 %seed, 38
  %add120.i111 = mul nsw i32 %seed, 39
  %div.i = fdiv double %add120.i, %add117.i
  %div2.i = fdiv double %div.i, %add113.i
  %div3.i = fdiv double %div2.i, %add110.i
  %div4.i = fdiv double %div3.i, %add107.i
  %div5.i = fdiv double %div4.i, %add104.i
  %div6.i = fdiv double %div5.i, %add101.i
  %div7.i = fdiv double %div6.i, %add98.i
  %div8.i = fdiv double %div7.i, %add95.i
  %div9.i = fdiv double %div8.i, %add92.i
  %div10.i = fdiv double %div9.i, %add89.i
  %div11.i = fdiv double %div10.i, %add86.i
  %div12.i = fdiv double %div11.i, %add83.i
  %div13.i = fdiv double %div12.i, %add80.i
  %div14.i = fdiv double %div13.i, %add77.i
  %div15.i = fdiv double %div14.i, %add73.i
  %div16.i = fdiv double %div15.i, %add70.i
  %div17.i = fdiv double %div16.i, %add67.i
  %div18.i = fdiv double %div17.i, %add64.i
  %div19.i = fdiv double %div18.i, %add61.i
  %div20.i = fdiv double %div19.i, %add58.i
  %div21.i = fdiv double %div20.i, %add55.i
  %div22.i = fdiv double %div21.i, %add52.i
  %div23.i = fdiv double %div22.i, %add48.i
  %div24.i = fdiv double %div23.i, %add45.i
  %div25.i = fdiv double %div24.i, %add42.i
  %div26.i = fdiv double %div25.i, %add38.i
  %div27.i = fdiv double %div26.i, %add34.i
  %div28.i = fdiv double %div27.i, %add30.i
  %div29.i = fdiv double %div28.i, %add27.i
  %div30.i = fdiv double %div29.i, %add24.i
  %div31.i = fdiv double %div30.i, %add21.i
  %div32.i = fdiv double %div31.i, %add18.i
  %div33.i = fdiv double %div32.i, %add15.i
  %div34.i = fdiv double %div33.i, %add12.i
  %div35.i = fdiv double %div34.i, %add9.i
  %div36.i = fdiv double %div35.i, %add6.i
  %div37.i = fdiv double %div36.i, %add.i
  %div38.i = fdiv double %div37.i, %conv
  %div.i146 = sdiv i32 %add120.i111, %add117.i109
  %div2.i148 = sdiv i32 %div.i146, %add113.i107
  %div3.i150 = sdiv i32 %div2.i148, %add110.i105
  %div4.i152 = sdiv i32 %div3.i150, %add107.i103
  %div5.i154 = sdiv i32 %div4.i152, %add104.i101
  %div6.i156 = sdiv i32 %div5.i154, %add101.i99
  %div7.i158 = sdiv i32 %div6.i156, %add98.i97
  %div8.i160 = sdiv i32 %div7.i158, %add95.i95
  %div9.i162 = sdiv i32 %div8.i160, %add92.i93
  %div10.i164 = sdiv i32 %div9.i162, %add89.i91
  %div11.i166 = sdiv i32 %div10.i164, %add86.i89
  %div12.i168 = sdiv i32 %div11.i166, %add83.i87
  %div13.i170 = sdiv i32 %div12.i168, %add80.i85
  %div14.i172 = sdiv i32 %div13.i170, %add77.i83
  %div15.i174 = sdiv i32 %div14.i172, %add73.i81
  %div16.i176 = sdiv i32 %div15.i174, %add70.i79
  %div17.i178 = sdiv i32 %div16.i176, %add67.i77
  %div18.i180 = sdiv i32 %div17.i178, %add64.i75
  %div19.i182 = sdiv i32 %div18.i180, %add61.i73
  %div20.i184 = sdiv i32 %div19.i182, %add58.i71
  %div21.i186 = sdiv i32 %div20.i184, %add55.i69
  %div22.i188 = sdiv i32 %div21.i186, %add52.i67
  %div23.i190 = sdiv i32 %div22.i188, %add48.i65
  %div24.i192 = sdiv i32 %div23.i190, %add45.i63
  %div25.i194 = sdiv i32 %div24.i192, %add42.i61
  %div26.i196 = sdiv i32 %div25.i194, %add38.i59
  %div27.i198 = sdiv i32 %div26.i196, %add34.i57
  %div28.i200 = sdiv i32 %div27.i198, %add30.i55
  %div29.i202 = sdiv i32 %div28.i200, %add27.i53
  %div30.i204 = sdiv i32 %div29.i202, %add24.i51
  %div31.i206 = sdiv i32 %div30.i204, %add21.i49
  %div32.i208 = sdiv i32 %div31.i206, %add18.i47
  %div33.i210 = sdiv i32 %div32.i208, %add15.i45
  %div34.i212 = sdiv i32 %div33.i210, %add12.i43
  %div35.i214 = sdiv i32 %div34.i212, %add9.i41
  %div36.i216 = sdiv i32 %div35.i214, %add6.i39
  %div37.i218 = sdiv i32 %div36.i216, %add.i37
  %div38.i219 = sdiv i32 %div37.i218, %seed
  %conv4 = sitofp i32 %div38.i219 to double
  %add = fadd double %div38.i, %conv4
  invoke void @_Z10test_frameILj4096ELb1ELj2048ELb1ELb0EJEEvDpT4_jPKcP13trace_elementd(i32 noundef 100, ptr noundef nonnull @.str.37, ptr noundef nonnull %trace, double noundef %add)
          to label %invoke.cont6 unwind label %lpad5

invoke.cont6:                                     ; preds = %entry
  %0 = load double, ptr %trace, align 16, !tbaa !5
  %div.i221 = fdiv double %conv, %add.i
  %div2.i223 = fdiv double %div.i221, %add6.i
  %div3.i225 = fdiv double %div2.i223, %add9.i
  %div4.i227 = fdiv double %div3.i225, %add12.i
  %div5.i229 = fdiv double %div4.i227, %add15.i
  %div6.i231 = fdiv double %div5.i229, %add18.i
  %div7.i233 = fdiv double %div6.i231, %add21.i
  %div8.i235 = fdiv double %div7.i233, %add24.i
  %div9.i237 = fdiv double %div8.i235, %add27.i
  %div10.i239 = fdiv double %div9.i237, %add30.i
  %div11.i241 = fdiv double %div10.i239, %add34.i
  %div12.i243 = fdiv double %div11.i241, %add38.i
  %div13.i245 = fdiv double %div12.i243, %add42.i
  %div14.i247 = fdiv double %div13.i245, %add45.i
  %div15.i249 = fdiv double %div14.i247, %add48.i
  %div16.i251 = fdiv double %div15.i249, %add52.i
  %div17.i253 = fdiv double %div16.i251, %add55.i
  %div18.i255 = fdiv double %div17.i253, %add58.i
  %div19.i257 = fdiv double %div18.i255, %add61.i
  %div20.i259 = fdiv double %div19.i257, %add64.i
  %div21.i261 = fdiv double %div20.i259, %add67.i
  %div22.i263 = fdiv double %div21.i261, %add70.i
  %div23.i265 = fdiv double %div22.i263, %add73.i
  %div24.i267 = fdiv double %div23.i265, %add77.i
  %div25.i269 = fdiv double %div24.i267, %add80.i
  %div26.i271 = fdiv double %div25.i269, %add83.i
  %div27.i273 = fdiv double %div26.i271, %add86.i
  %div28.i275 = fdiv double %div27.i273, %add89.i
  %div29.i277 = fdiv double %div28.i275, %add92.i
  %div30.i279 = fdiv double %div29.i277, %add95.i
  %div31.i281 = fdiv double %div30.i279, %add98.i
  %div32.i283 = fdiv double %div31.i281, %add101.i
  %div33.i285 = fdiv double %div32.i283, %add104.i
  %div34.i287 = fdiv double %div33.i285, %add107.i
  %div35.i289 = fdiv double %div34.i287, %add110.i
  %div36.i291 = fdiv double %div35.i289, %add113.i
  %div37.i293 = fdiv double %div36.i291, %add117.i
  %div38.i295 = fdiv double %div37.i293, %add120.i
  %div39.i = fdiv double %div38.i295, %0
  %1 = bitcast double %0 to i64
  %2 = trunc i64 %1 to i32
  %div.i297 = sdiv i32 %seed, %add.i37
  %div2.i299 = sdiv i32 %div.i297, %add6.i39
  %div3.i301 = sdiv i32 %div2.i299, %add9.i41
  %div4.i303 = sdiv i32 %div3.i301, %add12.i43
  %div5.i305 = sdiv i32 %div4.i303, %add15.i45
  %div6.i307 = sdiv i32 %div5.i305, %add18.i47
  %div7.i309 = sdiv i32 %div6.i307, %add21.i49
  %div8.i311 = sdiv i32 %div7.i309, %add24.i51
  %div9.i313 = sdiv i32 %div8.i311, %add27.i53
  %div10.i315 = sdiv i32 %div9.i313, %add30.i55
  %div11.i317 = sdiv i32 %div10.i315, %add34.i57
  %div12.i319 = sdiv i32 %div11.i317, %add38.i59
  %div13.i321 = sdiv i32 %div12.i319, %add42.i61
  %div14.i323 = sdiv i32 %div13.i321, %add45.i63
  %div15.i325 = sdiv i32 %div14.i323, %add48.i65
  %div16.i327 = sdiv i32 %div15.i325, %add52.i67
  %div17.i329 = sdiv i32 %div16.i327, %add55.i69
  %div18.i331 = sdiv i32 %div17.i329, %add58.i71
  %div19.i333 = sdiv i32 %div18.i331, %add61.i73
  %div20.i335 = sdiv i32 %div19.i333, %add64.i75
  %div21.i337 = sdiv i32 %div20.i335, %add67.i77
  %div22.i339 = sdiv i32 %div21.i337, %add70.i79
  %div23.i341 = sdiv i32 %div22.i339, %add73.i81
  %div24.i343 = sdiv i32 %div23.i341, %add77.i83
  %div25.i345 = sdiv i32 %div24.i343, %add80.i85
  %div26.i347 = sdiv i32 %div25.i345, %add83.i87
  %div27.i349 = sdiv i32 %div26.i347, %add86.i89
  %div28.i351 = sdiv i32 %div27.i349, %add89.i91
  %div29.i353 = sdiv i32 %div28.i351, %add92.i93
  %div30.i355 = sdiv i32 %div29.i353, %add95.i95
  %div31.i357 = sdiv i32 %div30.i355, %add98.i97
  %div32.i359 = sdiv i32 %div31.i357, %add101.i99
  %div33.i361 = sdiv i32 %div32.i359, %add104.i101
  %div34.i363 = sdiv i32 %div33.i361, %add107.i103
  %div35.i365 = sdiv i32 %div34.i363, %add110.i105
  %div36.i367 = sdiv i32 %div35.i365, %add113.i107
  %div37.i369 = sdiv i32 %div36.i367, %add117.i109
  %div38.i371 = sdiv i32 %div37.i369, %add120.i111
  %div39.i372 = sdiv i32 %div38.i371, %2
  %conv10 = sitofp i32 %div39.i372 to double
  %add11 = fadd double %div39.i, %conv10
  %conv12 = fptosi double %add11 to i32
  %3 = load volatile i32, ptr %dumping_ground, align 4, !tbaa !49
  %add13 = add nsw i32 %3, %conv12
  store volatile i32 %add13, ptr %dumping_ground, align 4, !tbaa !49
  br label %try.cont

lpad5:                                            ; preds = %entry
  %4 = landingpad { ptr, i32 }
          cleanup
          catch ptr @_ZTIi
  %5 = extractvalue { ptr, i32 } %4, 1
  %6 = call i32 @llvm.eh.typeid.for(ptr nonnull @_ZTIi) #20
  %matches = icmp eq i32 %5, %6
  br i1 %matches, label %catch, label %ehcleanup

catch:                                            ; preds = %lpad5
  %7 = extractvalue { ptr, i32 } %4, 0
  %8 = call ptr @__cxa_begin_catch(ptr %7) #20
  %9 = load i32, ptr %8, align 4, !tbaa !49
  call void @__cxa_end_catch() #20
  br label %try.cont

try.cont:                                         ; preds = %catch, %invoke.cont6
  %exception_value.0 = phi i32 [ -1, %invoke.cont6 ], [ %9, %catch ]
  %10 = load ptr, ptr %test_description, align 8, !tbaa !35
  %call18 = invoke noundef zeroext i1 @_Z11check_tracePKcS0_PK13trace_elementdjbjjbbi(ptr noundef %10, ptr noundef nonnull @.str.37, ptr noundef nonnull %trace, double noundef %add, i32 noundef 4096, i1 noundef zeroext true, i32 poison, i32 noundef 2048, i1 noundef zeroext true, i1 noundef zeroext false, i32 noundef %exception_value.0)
          to label %invoke.cont17 unwind label %lpad16

invoke.cont17:                                    ; preds = %try.cont
  %11 = load ptr, ptr %test_description, align 8, !tbaa !35
  %12 = getelementptr inbounds %"class.std::__cxx11::basic_string", ptr %test_description, i64 0, i32 2
  %cmp.i.i.i = icmp eq ptr %11, %12
  br i1 %cmp.i.i.i, label %_ZNSt7__cxx1112basic_stringIcSt11char_traitsIcESaIcEED2Ev.exit, label %if.then.i.i

if.then.i.i:                                      ; preds = %invoke.cont17
  call void @_ZdlPv(ptr noundef %11) #22
  br label %_ZNSt7__cxx1112basic_stringIcSt11char_traitsIcESaIcEED2Ev.exit

_ZNSt7__cxx1112basic_stringIcSt11char_traitsIcESaIcEED2Ev.exit: ; preds = %invoke.cont17, %if.then.i.i
  call void @llvm.lifetime.end.p0(i64 32, ptr nonnull %test_description) #20
  call void @llvm.lifetime.end.p0(i64 800, ptr nonnull %trace) #20
  ret i1 %call18

lpad16:                                           ; preds = %try.cont
  %13 = landingpad { ptr, i32 }
          cleanup
  br label %ehcleanup

ehcleanup:                                        ; preds = %lpad16, %lpad5
  %lpad.val31.merged = phi { ptr, i32 } [ %13, %lpad16 ], [ %4, %lpad5 ]
  %14 = load ptr, ptr %test_description, align 8, !tbaa !35
  %15 = getelementptr inbounds %"class.std::__cxx11::basic_string", ptr %test_description, i64 0, i32 2
  %cmp.i.i.i373 = icmp eq ptr %14, %15
  br i1 %cmp.i.i.i373, label %_ZNSt7__cxx1112basic_stringIcSt11char_traitsIcESaIcEED2Ev.exit375, label %if.then.i.i374

if.then.i.i374:                                   ; preds = %ehcleanup
  call void @_ZdlPv(ptr noundef %14) #22
  br label %_ZNSt7__cxx1112basic_stringIcSt11char_traitsIcESaIcEED2Ev.exit375

_ZNSt7__cxx1112basic_stringIcSt11char_traitsIcESaIcEED2Ev.exit375: ; preds = %ehcleanup, %if.then.i.i374
  call void @llvm.lifetime.end.p0(i64 32, ptr nonnull %test_description) #20
  call void @llvm.lifetime.end.p0(i64 800, ptr nonnull %trace) #20
  resume { ptr, i32 } %lpad.val31.merged
}

; Function Attrs: noinline uwtable
define linkonce_odr dso_local noundef zeroext i1 @_Z19check_frame_variantILb0ELb1ELb1ELb0ELb0EEbiRVi(i32 noundef %seed, ptr noundef nonnull align 4 dereferenceable(4) %dumping_ground) local_unnamed_addr #3 comdat personality ptr @__gxx_personality_v0 {
entry:
  %trace = alloca [100 x %union.trace_element], align 16
  %test_description = alloca %"class.std::__cxx11::basic_string", align 8
  call void @llvm.lifetime.start.p0(i64 800, ptr nonnull %trace) #20
  call void @llvm.lifetime.start.p0(i64 32, ptr nonnull %test_description) #20
  call void @_Z24getTestDescriptionStringB5cxx11bbbbb(ptr nonnull sret(%"class.std::__cxx11::basic_string") align 8 %test_description, i1 noundef zeroext false, i1 noundef zeroext true, i1 noundef zeroext true, i1 noundef zeroext false, i1 noundef zeroext false)
  %conv = sitofp i32 %seed to double
  %add.i = fadd double %conv, %conv
  %add6.i = fadd double %add.i, %conv
  %add9.i = fadd double %add6.i, %conv
  %add12.i = fadd double %add9.i, %conv
  %add15.i = fadd double %add12.i, %conv
  %add18.i = fadd double %add15.i, %conv
  %add21.i = fadd double %add18.i, %conv
  %add24.i = fadd double %add21.i, %conv
  %add27.i = fadd double %add24.i, %conv
  %add30.i = fadd double %add27.i, %conv
  %add34.i = fadd double %add30.i, %conv
  %add38.i = fadd double %add34.i, %conv
  %add42.i = fadd double %add38.i, %conv
  %add45.i = fadd double %add42.i, %conv
  %add48.i = fadd double %add45.i, %conv
  %add52.i = fadd double %add48.i, %conv
  %add55.i = fadd double %add52.i, %conv
  %add58.i = fadd double %add55.i, %conv
  %add61.i = fadd double %add58.i, %conv
  %add64.i = fadd double %add61.i, %conv
  %add67.i = fadd double %add64.i, %conv
  %add70.i = fadd double %add67.i, %conv
  %add73.i = fadd double %add70.i, %conv
  %add77.i = fadd double %add73.i, %conv
  %add80.i = fadd double %add77.i, %conv
  %add83.i = fadd double %add80.i, %conv
  %add86.i = fadd double %add83.i, %conv
  %add89.i = fadd double %add86.i, %conv
  %add92.i = fadd double %add89.i, %conv
  %add95.i = fadd double %add92.i, %conv
  %add98.i = fadd double %add95.i, %conv
  %add101.i = fadd double %add98.i, %conv
  %add104.i = fadd double %add101.i, %conv
  %add107.i = fadd double %add104.i, %conv
  %add110.i = fadd double %add107.i, %conv
  %add113.i = fadd double %add110.i, %conv
  %add117.i = fadd double %add113.i, %conv
  %add120.i = fadd double %add117.i, %conv
  %add.i37 = shl nsw i32 %seed, 1
  %add6.i39 = mul nsw i32 %seed, 3
  %add9.i41 = shl nsw i32 %seed, 2
  %add12.i43 = mul nsw i32 %seed, 5
  %add15.i45 = mul nsw i32 %seed, 6
  %add18.i47 = mul nsw i32 %seed, 7
  %add21.i49 = shl nsw i32 %seed, 3
  %add24.i51 = mul nsw i32 %seed, 9
  %add27.i53 = mul nsw i32 %seed, 10
  %add30.i55 = mul nsw i32 %seed, 11
  %add34.i57 = mul nsw i32 %seed, 12
  %add38.i59 = mul nsw i32 %seed, 13
  %add42.i61 = mul nsw i32 %seed, 14
  %add45.i63 = mul nsw i32 %seed, 15
  %add48.i65 = shl nsw i32 %seed, 4
  %add52.i67 = mul nsw i32 %seed, 17
  %add55.i69 = mul nsw i32 %seed, 18
  %add58.i71 = mul nsw i32 %seed, 19
  %add61.i73 = mul nsw i32 %seed, 20
  %add64.i75 = mul nsw i32 %seed, 21
  %add67.i77 = mul nsw i32 %seed, 22
  %add70.i79 = mul nsw i32 %seed, 23
  %add73.i81 = mul nsw i32 %seed, 24
  %add77.i83 = mul nsw i32 %seed, 25
  %add80.i85 = mul nsw i32 %seed, 26
  %add83.i87 = mul nsw i32 %seed, 27
  %add86.i89 = mul nsw i32 %seed, 28
  %add89.i91 = mul nsw i32 %seed, 29
  %add92.i93 = mul nsw i32 %seed, 30
  %add95.i95 = mul nsw i32 %seed, 31
  %add98.i97 = shl nsw i32 %seed, 5
  %add101.i99 = mul nsw i32 %seed, 33
  %add104.i101 = mul nsw i32 %seed, 34
  %add107.i103 = mul nsw i32 %seed, 35
  %add110.i105 = mul nsw i32 %seed, 36
  %add113.i107 = mul nsw i32 %seed, 37
  %add117.i109 = mul nsw i32 %seed, 38
  %add120.i111 = mul nsw i32 %seed, 39
  %div.i = fdiv double %add120.i, %add117.i
  %div2.i = fdiv double %div.i, %add113.i
  %div3.i = fdiv double %div2.i, %add110.i
  %div4.i = fdiv double %div3.i, %add107.i
  %div5.i = fdiv double %div4.i, %add104.i
  %div6.i = fdiv double %div5.i, %add101.i
  %div7.i = fdiv double %div6.i, %add98.i
  %div8.i = fdiv double %div7.i, %add95.i
  %div9.i = fdiv double %div8.i, %add92.i
  %div10.i = fdiv double %div9.i, %add89.i
  %div11.i = fdiv double %div10.i, %add86.i
  %div12.i = fdiv double %div11.i, %add83.i
  %div13.i = fdiv double %div12.i, %add80.i
  %div14.i = fdiv double %div13.i, %add77.i
  %div15.i = fdiv double %div14.i, %add73.i
  %div16.i = fdiv double %div15.i, %add70.i
  %div17.i = fdiv double %div16.i, %add67.i
  %div18.i = fdiv double %div17.i, %add64.i
  %div19.i = fdiv double %div18.i, %add61.i
  %div20.i = fdiv double %div19.i, %add58.i
  %div21.i = fdiv double %div20.i, %add55.i
  %div22.i = fdiv double %div21.i, %add52.i
  %div23.i = fdiv double %div22.i, %add48.i
  %div24.i = fdiv double %div23.i, %add45.i
  %div25.i = fdiv double %div24.i, %add42.i
  %div26.i = fdiv double %div25.i, %add38.i
  %div27.i = fdiv double %div26.i, %add34.i
  %div28.i = fdiv double %div27.i, %add30.i
  %div29.i = fdiv double %div28.i, %add27.i
  %div30.i = fdiv double %div29.i, %add24.i
  %div31.i = fdiv double %div30.i, %add21.i
  %div32.i = fdiv double %div31.i, %add18.i
  %div33.i = fdiv double %div32.i, %add15.i
  %div34.i = fdiv double %div33.i, %add12.i
  %div35.i = fdiv double %div34.i, %add9.i
  %div36.i = fdiv double %div35.i, %add6.i
  %div37.i = fdiv double %div36.i, %add.i
  %div38.i = fdiv double %div37.i, %conv
  %div.i146 = sdiv i32 %add120.i111, %add117.i109
  %div2.i148 = sdiv i32 %div.i146, %add113.i107
  %div3.i150 = sdiv i32 %div2.i148, %add110.i105
  %div4.i152 = sdiv i32 %div3.i150, %add107.i103
  %div5.i154 = sdiv i32 %div4.i152, %add104.i101
  %div6.i156 = sdiv i32 %div5.i154, %add101.i99
  %div7.i158 = sdiv i32 %div6.i156, %add98.i97
  %div8.i160 = sdiv i32 %div7.i158, %add95.i95
  %div9.i162 = sdiv i32 %div8.i160, %add92.i93
  %div10.i164 = sdiv i32 %div9.i162, %add89.i91
  %div11.i166 = sdiv i32 %div10.i164, %add86.i89
  %div12.i168 = sdiv i32 %div11.i166, %add83.i87
  %div13.i170 = sdiv i32 %div12.i168, %add80.i85
  %div14.i172 = sdiv i32 %div13.i170, %add77.i83
  %div15.i174 = sdiv i32 %div14.i172, %add73.i81
  %div16.i176 = sdiv i32 %div15.i174, %add70.i79
  %div17.i178 = sdiv i32 %div16.i176, %add67.i77
  %div18.i180 = sdiv i32 %div17.i178, %add64.i75
  %div19.i182 = sdiv i32 %div18.i180, %add61.i73
  %div20.i184 = sdiv i32 %div19.i182, %add58.i71
  %div21.i186 = sdiv i32 %div20.i184, %add55.i69
  %div22.i188 = sdiv i32 %div21.i186, %add52.i67
  %div23.i190 = sdiv i32 %div22.i188, %add48.i65
  %div24.i192 = sdiv i32 %div23.i190, %add45.i63
  %div25.i194 = sdiv i32 %div24.i192, %add42.i61
  %div26.i196 = sdiv i32 %div25.i194, %add38.i59
  %div27.i198 = sdiv i32 %div26.i196, %add34.i57
  %div28.i200 = sdiv i32 %div27.i198, %add30.i55
  %div29.i202 = sdiv i32 %div28.i200, %add27.i53
  %div30.i204 = sdiv i32 %div29.i202, %add24.i51
  %div31.i206 = sdiv i32 %div30.i204, %add21.i49
  %div32.i208 = sdiv i32 %div31.i206, %add18.i47
  %div33.i210 = sdiv i32 %div32.i208, %add15.i45
  %div34.i212 = sdiv i32 %div33.i210, %add12.i43
  %div35.i214 = sdiv i32 %div34.i212, %add9.i41
  %div36.i216 = sdiv i32 %div35.i214, %add6.i39
  %div37.i218 = sdiv i32 %div36.i216, %add.i37
  %div38.i219 = sdiv i32 %div37.i218, %seed
  %conv4 = sitofp i32 %div38.i219 to double
  %add = fadd double %div38.i, %conv4
  invoke void @_Z10test_frameILj2ELb1ELj2048ELb1ELb0EJEEvDpT4_jPKcP13trace_elementd(i32 noundef 100, ptr noundef nonnull @.str.37, ptr noundef nonnull %trace, double noundef %add)
          to label %invoke.cont6 unwind label %lpad5

invoke.cont6:                                     ; preds = %entry
  %0 = load double, ptr %trace, align 16, !tbaa !5
  %div.i221 = fdiv double %conv, %add.i
  %div2.i223 = fdiv double %div.i221, %add6.i
  %div3.i225 = fdiv double %div2.i223, %add9.i
  %div4.i227 = fdiv double %div3.i225, %add12.i
  %div5.i229 = fdiv double %div4.i227, %add15.i
  %div6.i231 = fdiv double %div5.i229, %add18.i
  %div7.i233 = fdiv double %div6.i231, %add21.i
  %div8.i235 = fdiv double %div7.i233, %add24.i
  %div9.i237 = fdiv double %div8.i235, %add27.i
  %div10.i239 = fdiv double %div9.i237, %add30.i
  %div11.i241 = fdiv double %div10.i239, %add34.i
  %div12.i243 = fdiv double %div11.i241, %add38.i
  %div13.i245 = fdiv double %div12.i243, %add42.i
  %div14.i247 = fdiv double %div13.i245, %add45.i
  %div15.i249 = fdiv double %div14.i247, %add48.i
  %div16.i251 = fdiv double %div15.i249, %add52.i
  %div17.i253 = fdiv double %div16.i251, %add55.i
  %div18.i255 = fdiv double %div17.i253, %add58.i
  %div19.i257 = fdiv double %div18.i255, %add61.i
  %div20.i259 = fdiv double %div19.i257, %add64.i
  %div21.i261 = fdiv double %div20.i259, %add67.i
  %div22.i263 = fdiv double %div21.i261, %add70.i
  %div23.i265 = fdiv double %div22.i263, %add73.i
  %div24.i267 = fdiv double %div23.i265, %add77.i
  %div25.i269 = fdiv double %div24.i267, %add80.i
  %div26.i271 = fdiv double %div25.i269, %add83.i
  %div27.i273 = fdiv double %div26.i271, %add86.i
  %div28.i275 = fdiv double %div27.i273, %add89.i
  %div29.i277 = fdiv double %div28.i275, %add92.i
  %div30.i279 = fdiv double %div29.i277, %add95.i
  %div31.i281 = fdiv double %div30.i279, %add98.i
  %div32.i283 = fdiv double %div31.i281, %add101.i
  %div33.i285 = fdiv double %div32.i283, %add104.i
  %div34.i287 = fdiv double %div33.i285, %add107.i
  %div35.i289 = fdiv double %div34.i287, %add110.i
  %div36.i291 = fdiv double %div35.i289, %add113.i
  %div37.i293 = fdiv double %div36.i291, %add117.i
  %div38.i295 = fdiv double %div37.i293, %add120.i
  %div39.i = fdiv double %div38.i295, %0
  %1 = bitcast double %0 to i64
  %2 = trunc i64 %1 to i32
  %div.i297 = sdiv i32 %seed, %add.i37
  %div2.i299 = sdiv i32 %div.i297, %add6.i39
  %div3.i301 = sdiv i32 %div2.i299, %add9.i41
  %div4.i303 = sdiv i32 %div3.i301, %add12.i43
  %div5.i305 = sdiv i32 %div4.i303, %add15.i45
  %div6.i307 = sdiv i32 %div5.i305, %add18.i47
  %div7.i309 = sdiv i32 %div6.i307, %add21.i49
  %div8.i311 = sdiv i32 %div7.i309, %add24.i51
  %div9.i313 = sdiv i32 %div8.i311, %add27.i53
  %div10.i315 = sdiv i32 %div9.i313, %add30.i55
  %div11.i317 = sdiv i32 %div10.i315, %add34.i57
  %div12.i319 = sdiv i32 %div11.i317, %add38.i59
  %div13.i321 = sdiv i32 %div12.i319, %add42.i61
  %div14.i323 = sdiv i32 %div13.i321, %add45.i63
  %div15.i325 = sdiv i32 %div14.i323, %add48.i65
  %div16.i327 = sdiv i32 %div15.i325, %add52.i67
  %div17.i329 = sdiv i32 %div16.i327, %add55.i69
  %div18.i331 = sdiv i32 %div17.i329, %add58.i71
  %div19.i333 = sdiv i32 %div18.i331, %add61.i73
  %div20.i335 = sdiv i32 %div19.i333, %add64.i75
  %div21.i337 = sdiv i32 %div20.i335, %add67.i77
  %div22.i339 = sdiv i32 %div21.i337, %add70.i79
  %div23.i341 = sdiv i32 %div22.i339, %add73.i81
  %div24.i343 = sdiv i32 %div23.i341, %add77.i83
  %div25.i345 = sdiv i32 %div24.i343, %add80.i85
  %div26.i347 = sdiv i32 %div25.i345, %add83.i87
  %div27.i349 = sdiv i32 %div26.i347, %add86.i89
  %div28.i351 = sdiv i32 %div27.i349, %add89.i91
  %div29.i353 = sdiv i32 %div28.i351, %add92.i93
  %div30.i355 = sdiv i32 %div29.i353, %add95.i95
  %div31.i357 = sdiv i32 %div30.i355, %add98.i97
  %div32.i359 = sdiv i32 %div31.i357, %add101.i99
  %div33.i361 = sdiv i32 %div32.i359, %add104.i101
  %div34.i363 = sdiv i32 %div33.i361, %add107.i103
  %div35.i365 = sdiv i32 %div34.i363, %add110.i105
  %div36.i367 = sdiv i32 %div35.i365, %add113.i107
  %div37.i369 = sdiv i32 %div36.i367, %add117.i109
  %div38.i371 = sdiv i32 %div37.i369, %add120.i111
  %div39.i372 = sdiv i32 %div38.i371, %2
  %conv10 = sitofp i32 %div39.i372 to double
  %add11 = fadd double %div39.i, %conv10
  %conv12 = fptosi double %add11 to i32
  %3 = load volatile i32, ptr %dumping_ground, align 4, !tbaa !49
  %add13 = add nsw i32 %3, %conv12
  store volatile i32 %add13, ptr %dumping_ground, align 4, !tbaa !49
  br label %try.cont

lpad5:                                            ; preds = %entry
  %4 = landingpad { ptr, i32 }
          cleanup
          catch ptr @_ZTIi
  %5 = extractvalue { ptr, i32 } %4, 1
  %6 = call i32 @llvm.eh.typeid.for(ptr nonnull @_ZTIi) #20
  %matches = icmp eq i32 %5, %6
  br i1 %matches, label %catch, label %ehcleanup

catch:                                            ; preds = %lpad5
  %7 = extractvalue { ptr, i32 } %4, 0
  %8 = call ptr @__cxa_begin_catch(ptr %7) #20
  %9 = load i32, ptr %8, align 4, !tbaa !49
  call void @__cxa_end_catch() #20
  br label %try.cont

try.cont:                                         ; preds = %catch, %invoke.cont6
  %exception_value.0 = phi i32 [ -1, %invoke.cont6 ], [ %9, %catch ]
  %10 = load ptr, ptr %test_description, align 8, !tbaa !35
  %call18 = invoke noundef zeroext i1 @_Z11check_tracePKcS0_PK13trace_elementdjbjjbbi(ptr noundef %10, ptr noundef nonnull @.str.37, ptr noundef nonnull %trace, double noundef %add, i32 noundef 2, i1 noundef zeroext true, i32 poison, i32 noundef 2048, i1 noundef zeroext true, i1 noundef zeroext false, i32 noundef %exception_value.0)
          to label %invoke.cont17 unwind label %lpad16

invoke.cont17:                                    ; preds = %try.cont
  %11 = load ptr, ptr %test_description, align 8, !tbaa !35
  %12 = getelementptr inbounds %"class.std::__cxx11::basic_string", ptr %test_description, i64 0, i32 2
  %cmp.i.i.i = icmp eq ptr %11, %12
  br i1 %cmp.i.i.i, label %_ZNSt7__cxx1112basic_stringIcSt11char_traitsIcESaIcEED2Ev.exit, label %if.then.i.i

if.then.i.i:                                      ; preds = %invoke.cont17
  call void @_ZdlPv(ptr noundef %11) #22
  br label %_ZNSt7__cxx1112basic_stringIcSt11char_traitsIcESaIcEED2Ev.exit

_ZNSt7__cxx1112basic_stringIcSt11char_traitsIcESaIcEED2Ev.exit: ; preds = %invoke.cont17, %if.then.i.i
  call void @llvm.lifetime.end.p0(i64 32, ptr nonnull %test_description) #20
  call void @llvm.lifetime.end.p0(i64 800, ptr nonnull %trace) #20
  ret i1 %call18

lpad16:                                           ; preds = %try.cont
  %13 = landingpad { ptr, i32 }
          cleanup
  br label %ehcleanup

ehcleanup:                                        ; preds = %lpad16, %lpad5
  %lpad.val31.merged = phi { ptr, i32 } [ %13, %lpad16 ], [ %4, %lpad5 ]
  %14 = load ptr, ptr %test_description, align 8, !tbaa !35
  %15 = getelementptr inbounds %"class.std::__cxx11::basic_string", ptr %test_description, i64 0, i32 2
  %cmp.i.i.i373 = icmp eq ptr %14, %15
  br i1 %cmp.i.i.i373, label %_ZNSt7__cxx1112basic_stringIcSt11char_traitsIcESaIcEED2Ev.exit375, label %if.then.i.i374

if.then.i.i374:                                   ; preds = %ehcleanup
  call void @_ZdlPv(ptr noundef %14) #22
  br label %_ZNSt7__cxx1112basic_stringIcSt11char_traitsIcESaIcEED2Ev.exit375

_ZNSt7__cxx1112basic_stringIcSt11char_traitsIcESaIcEED2Ev.exit375: ; preds = %ehcleanup, %if.then.i.i374
  call void @llvm.lifetime.end.p0(i64 32, ptr nonnull %test_description) #20
  call void @llvm.lifetime.end.p0(i64 800, ptr nonnull %trace) #20
  resume { ptr, i32 } %lpad.val31.merged
}

; Function Attrs: noinline uwtable
define linkonce_odr dso_local noundef zeroext i1 @_Z19check_frame_variantILb1ELb0ELb0ELb1ELb0EEbiRVi(i32 noundef %seed, ptr noundef nonnull align 4 dereferenceable(4) %dumping_ground) local_unnamed_addr #3 comdat personality ptr @__gxx_personality_v0 {
entry:
  %trace = alloca [100 x %union.trace_element], align 16
  %test_description = alloca %"class.std::__cxx11::basic_string", align 8
  call void @llvm.lifetime.start.p0(i64 800, ptr nonnull %trace) #20
  call void @llvm.lifetime.start.p0(i64 32, ptr nonnull %test_description) #20
  call void @_Z24getTestDescriptionStringB5cxx11bbbbb(ptr nonnull sret(%"class.std::__cxx11::basic_string") align 8 %test_description, i1 noundef zeroext true, i1 noundef zeroext false, i1 noundef zeroext false, i1 noundef zeroext true, i1 noundef zeroext false)
  %conv = sitofp i32 %seed to double
  %add.i = fadd double %conv, %conv
  %add6.i = fadd double %add.i, %conv
  %add9.i = fadd double %add6.i, %conv
  %add12.i = fadd double %add9.i, %conv
  %add15.i = fadd double %add12.i, %conv
  %add18.i = fadd double %add15.i, %conv
  %add21.i = fadd double %add18.i, %conv
  %add24.i = fadd double %add21.i, %conv
  %add27.i = fadd double %add24.i, %conv
  %add30.i = fadd double %add27.i, %conv
  %add34.i = fadd double %add30.i, %conv
  %add38.i = fadd double %add34.i, %conv
  %add42.i = fadd double %add38.i, %conv
  %add45.i = fadd double %add42.i, %conv
  %add48.i = fadd double %add45.i, %conv
  %add52.i = fadd double %add48.i, %conv
  %add55.i = fadd double %add52.i, %conv
  %add58.i = fadd double %add55.i, %conv
  %add61.i = fadd double %add58.i, %conv
  %add64.i = fadd double %add61.i, %conv
  %add67.i = fadd double %add64.i, %conv
  %add70.i = fadd double %add67.i, %conv
  %add73.i = fadd double %add70.i, %conv
  %add77.i = fadd double %add73.i, %conv
  %add80.i = fadd double %add77.i, %conv
  %add83.i = fadd double %add80.i, %conv
  %add86.i = fadd double %add83.i, %conv
  %add89.i = fadd double %add86.i, %conv
  %add92.i = fadd double %add89.i, %conv
  %add95.i = fadd double %add92.i, %conv
  %add98.i = fadd double %add95.i, %conv
  %add101.i = fadd double %add98.i, %conv
  %add104.i = fadd double %add101.i, %conv
  %add107.i = fadd double %add104.i, %conv
  %add110.i = fadd double %add107.i, %conv
  %add113.i = fadd double %add110.i, %conv
  %add117.i = fadd double %add113.i, %conv
  %add120.i = fadd double %add117.i, %conv
  %add.i36 = shl nsw i32 %seed, 1
  %add6.i38 = mul nsw i32 %seed, 3
  %add9.i40 = shl nsw i32 %seed, 2
  %add12.i42 = mul nsw i32 %seed, 5
  %add15.i44 = mul nsw i32 %seed, 6
  %add18.i46 = mul nsw i32 %seed, 7
  %add21.i48 = shl nsw i32 %seed, 3
  %add24.i50 = mul nsw i32 %seed, 9
  %add27.i52 = mul nsw i32 %seed, 10
  %add30.i54 = mul nsw i32 %seed, 11
  %add34.i56 = mul nsw i32 %seed, 12
  %add38.i58 = mul nsw i32 %seed, 13
  %add42.i60 = mul nsw i32 %seed, 14
  %add45.i62 = mul nsw i32 %seed, 15
  %add48.i64 = shl nsw i32 %seed, 4
  %add52.i66 = mul nsw i32 %seed, 17
  %add55.i68 = mul nsw i32 %seed, 18
  %add58.i70 = mul nsw i32 %seed, 19
  %add61.i72 = mul nsw i32 %seed, 20
  %add64.i74 = mul nsw i32 %seed, 21
  %add67.i76 = mul nsw i32 %seed, 22
  %add70.i78 = mul nsw i32 %seed, 23
  %add73.i80 = mul nsw i32 %seed, 24
  %add77.i82 = mul nsw i32 %seed, 25
  %add80.i84 = mul nsw i32 %seed, 26
  %add83.i86 = mul nsw i32 %seed, 27
  %add86.i88 = mul nsw i32 %seed, 28
  %add89.i90 = mul nsw i32 %seed, 29
  %add92.i92 = mul nsw i32 %seed, 30
  %add95.i94 = mul nsw i32 %seed, 31
  %add98.i96 = shl nsw i32 %seed, 5
  %add101.i98 = mul nsw i32 %seed, 33
  %add104.i100 = mul nsw i32 %seed, 34
  %add107.i102 = mul nsw i32 %seed, 35
  %add110.i104 = mul nsw i32 %seed, 36
  %add113.i106 = mul nsw i32 %seed, 37
  %add117.i108 = mul nsw i32 %seed, 38
  %add120.i110 = mul nsw i32 %seed, 39
  %div.i = fdiv double %add120.i, %add117.i
  %div2.i = fdiv double %div.i, %add113.i
  %div3.i = fdiv double %div2.i, %add110.i
  %div4.i = fdiv double %div3.i, %add107.i
  %div5.i = fdiv double %div4.i, %add104.i
  %div6.i = fdiv double %div5.i, %add101.i
  %div7.i = fdiv double %div6.i, %add98.i
  %div8.i = fdiv double %div7.i, %add95.i
  %div9.i = fdiv double %div8.i, %add92.i
  %div10.i = fdiv double %div9.i, %add89.i
  %div11.i = fdiv double %div10.i, %add86.i
  %div12.i = fdiv double %div11.i, %add83.i
  %div13.i = fdiv double %div12.i, %add80.i
  %div14.i = fdiv double %div13.i, %add77.i
  %div15.i = fdiv double %div14.i, %add73.i
  %div16.i = fdiv double %div15.i, %add70.i
  %div17.i = fdiv double %div16.i, %add67.i
  %div18.i = fdiv double %div17.i, %add64.i
  %div19.i = fdiv double %div18.i, %add61.i
  %div20.i = fdiv double %div19.i, %add58.i
  %div21.i = fdiv double %div20.i, %add55.i
  %div22.i = fdiv double %div21.i, %add52.i
  %div23.i = fdiv double %div22.i, %add48.i
  %div24.i = fdiv double %div23.i, %add45.i
  %div25.i = fdiv double %div24.i, %add42.i
  %div26.i = fdiv double %div25.i, %add38.i
  %div27.i = fdiv double %div26.i, %add34.i
  %div28.i = fdiv double %div27.i, %add30.i
  %div29.i = fdiv double %div28.i, %add27.i
  %div30.i = fdiv double %div29.i, %add24.i
  %div31.i = fdiv double %div30.i, %add21.i
  %div32.i = fdiv double %div31.i, %add18.i
  %div33.i = fdiv double %div32.i, %add15.i
  %div34.i = fdiv double %div33.i, %add12.i
  %div35.i = fdiv double %div34.i, %add9.i
  %div36.i = fdiv double %div35.i, %add6.i
  %div37.i = fdiv double %div36.i, %add.i
  %div38.i = fdiv double %div37.i, %conv
  %div.i145 = sdiv i32 %add120.i110, %add117.i108
  %div2.i147 = sdiv i32 %div.i145, %add113.i106
  %div3.i149 = sdiv i32 %div2.i147, %add110.i104
  %div4.i151 = sdiv i32 %div3.i149, %add107.i102
  %div5.i153 = sdiv i32 %div4.i151, %add104.i100
  %div6.i155 = sdiv i32 %div5.i153, %add101.i98
  %div7.i157 = sdiv i32 %div6.i155, %add98.i96
  %div8.i159 = sdiv i32 %div7.i157, %add95.i94
  %div9.i161 = sdiv i32 %div8.i159, %add92.i92
  %div10.i163 = sdiv i32 %div9.i161, %add89.i90
  %div11.i165 = sdiv i32 %div10.i163, %add86.i88
  %div12.i167 = sdiv i32 %div11.i165, %add83.i86
  %div13.i169 = sdiv i32 %div12.i167, %add80.i84
  %div14.i171 = sdiv i32 %div13.i169, %add77.i82
  %div15.i173 = sdiv i32 %div14.i171, %add73.i80
  %div16.i175 = sdiv i32 %div15.i173, %add70.i78
  %div17.i177 = sdiv i32 %div16.i175, %add67.i76
  %div18.i179 = sdiv i32 %div17.i177, %add64.i74
  %div19.i181 = sdiv i32 %div18.i179, %add61.i72
  %div20.i183 = sdiv i32 %div19.i181, %add58.i70
  %div21.i185 = sdiv i32 %div20.i183, %add55.i68
  %div22.i187 = sdiv i32 %div21.i185, %add52.i66
  %div23.i189 = sdiv i32 %div22.i187, %add48.i64
  %div24.i191 = sdiv i32 %div23.i189, %add45.i62
  %div25.i193 = sdiv i32 %div24.i191, %add42.i60
  %div26.i195 = sdiv i32 %div25.i193, %add38.i58
  %div27.i197 = sdiv i32 %div26.i195, %add34.i56
  %div28.i199 = sdiv i32 %div27.i197, %add30.i54
  %div29.i201 = sdiv i32 %div28.i199, %add27.i52
  %div30.i203 = sdiv i32 %div29.i201, %add24.i50
  %div31.i205 = sdiv i32 %div30.i203, %add21.i48
  %div32.i207 = sdiv i32 %div31.i205, %add18.i46
  %div33.i209 = sdiv i32 %div32.i207, %add15.i44
  %div34.i211 = sdiv i32 %div33.i209, %add12.i42
  %div35.i213 = sdiv i32 %div34.i211, %add9.i40
  %div36.i215 = sdiv i32 %div35.i213, %add6.i38
  %div37.i217 = sdiv i32 %div36.i215, %add.i36
  %div38.i218 = sdiv i32 %div37.i217, %seed
  %conv4 = sitofp i32 %div38.i218 to double
  %add = fadd double %div38.i, %conv4
  call void @_Z10test_frameILj4096ELb0ELj2048ELb0ELb0EJiiiiiiiiiiiiiiiiiiiiddddddddddddddddddddEEvDpT4_jPKcP13trace_elementd(i32 noundef 0, i32 noundef 0, i32 noundef 0, i32 noundef 0, i32 noundef 0, i32 noundef 0, i32 noundef 0, i32 noundef 0, i32 noundef 0, i32 noundef 0, i32 noundef 0, i32 noundef 0, i32 noundef 0, i32 noundef 0, i32 noundef 0, i32 noundef 0, i32 noundef 0, i32 noundef 0, i32 noundef 0, i32 noundef 0, double noundef 0.000000e+00, double noundef 0.000000e+00, double noundef 0.000000e+00, double noundef 0.000000e+00, double noundef 0.000000e+00, double noundef 0.000000e+00, double noundef 0.000000e+00, double noundef 0.000000e+00, double noundef 0.000000e+00, double noundef 0.000000e+00, double noundef 0.000000e+00, double noundef 0.000000e+00, double noundef 0.000000e+00, double noundef 0.000000e+00, double noundef 0.000000e+00, double noundef 0.000000e+00, double noundef 0.000000e+00, double noundef 0.000000e+00, double noundef 0.000000e+00, double noundef 0.000000e+00, i32 noundef 100, ptr noundef nonnull @.str.37, ptr noundef nonnull %trace, double noundef %add)
  %0 = load double, ptr %trace, align 16, !tbaa !5
  %div.i220 = fdiv double %conv, %add.i
  %div2.i222 = fdiv double %div.i220, %add6.i
  %div3.i224 = fdiv double %div2.i222, %add9.i
  %div4.i226 = fdiv double %div3.i224, %add12.i
  %div5.i228 = fdiv double %div4.i226, %add15.i
  %div6.i230 = fdiv double %div5.i228, %add18.i
  %div7.i232 = fdiv double %div6.i230, %add21.i
  %div8.i234 = fdiv double %div7.i232, %add24.i
  %div9.i236 = fdiv double %div8.i234, %add27.i
  %div10.i238 = fdiv double %div9.i236, %add30.i
  %div11.i240 = fdiv double %div10.i238, %add34.i
  %div12.i242 = fdiv double %div11.i240, %add38.i
  %div13.i244 = fdiv double %div12.i242, %add42.i
  %div14.i246 = fdiv double %div13.i244, %add45.i
  %div15.i248 = fdiv double %div14.i246, %add48.i
  %div16.i250 = fdiv double %div15.i248, %add52.i
  %div17.i252 = fdiv double %div16.i250, %add55.i
  %div18.i254 = fdiv double %div17.i252, %add58.i
  %div19.i256 = fdiv double %div18.i254, %add61.i
  %div20.i258 = fdiv double %div19.i256, %add64.i
  %div21.i260 = fdiv double %div20.i258, %add67.i
  %div22.i262 = fdiv double %div21.i260, %add70.i
  %div23.i264 = fdiv double %div22.i262, %add73.i
  %div24.i266 = fdiv double %div23.i264, %add77.i
  %div25.i268 = fdiv double %div24.i266, %add80.i
  %div26.i270 = fdiv double %div25.i268, %add83.i
  %div27.i272 = fdiv double %div26.i270, %add86.i
  %div28.i274 = fdiv double %div27.i272, %add89.i
  %div29.i276 = fdiv double %div28.i274, %add92.i
  %div30.i278 = fdiv double %div29.i276, %add95.i
  %div31.i280 = fdiv double %div30.i278, %add98.i
  %div32.i282 = fdiv double %div31.i280, %add101.i
  %div33.i284 = fdiv double %div32.i282, %add104.i
  %div34.i286 = fdiv double %div33.i284, %add107.i
  %div35.i288 = fdiv double %div34.i286, %add110.i
  %div36.i290 = fdiv double %div35.i288, %add113.i
  %div37.i292 = fdiv double %div36.i290, %add117.i
  %div38.i294 = fdiv double %div37.i292, %add120.i
  %div39.i = fdiv double %div38.i294, %0
  %1 = bitcast double %0 to i64
  %2 = trunc i64 %1 to i32
  %div.i296 = sdiv i32 %seed, %add.i36
  %div2.i298 = sdiv i32 %div.i296, %add6.i38
  %div3.i300 = sdiv i32 %div2.i298, %add9.i40
  %div4.i302 = sdiv i32 %div3.i300, %add12.i42
  %div5.i304 = sdiv i32 %div4.i302, %add15.i44
  %div6.i306 = sdiv i32 %div5.i304, %add18.i46
  %div7.i308 = sdiv i32 %div6.i306, %add21.i48
  %div8.i310 = sdiv i32 %div7.i308, %add24.i50
  %div9.i312 = sdiv i32 %div8.i310, %add27.i52
  %div10.i314 = sdiv i32 %div9.i312, %add30.i54
  %div11.i316 = sdiv i32 %div10.i314, %add34.i56
  %div12.i318 = sdiv i32 %div11.i316, %add38.i58
  %div13.i320 = sdiv i32 %div12.i318, %add42.i60
  %div14.i322 = sdiv i32 %div13.i320, %add45.i62
  %div15.i324 = sdiv i32 %div14.i322, %add48.i64
  %div16.i326 = sdiv i32 %div15.i324, %add52.i66
  %div17.i328 = sdiv i32 %div16.i326, %add55.i68
  %div18.i330 = sdiv i32 %div17.i328, %add58.i70
  %div19.i332 = sdiv i32 %div18.i330, %add61.i72
  %div20.i334 = sdiv i32 %div19.i332, %add64.i74
  %div21.i336 = sdiv i32 %div20.i334, %add67.i76
  %div22.i338 = sdiv i32 %div21.i336, %add70.i78
  %div23.i340 = sdiv i32 %div22.i338, %add73.i80
  %div24.i342 = sdiv i32 %div23.i340, %add77.i82
  %div25.i344 = sdiv i32 %div24.i342, %add80.i84
  %div26.i346 = sdiv i32 %div25.i344, %add83.i86
  %div27.i348 = sdiv i32 %div26.i346, %add86.i88
  %div28.i350 = sdiv i32 %div27.i348, %add89.i90
  %div29.i352 = sdiv i32 %div28.i350, %add92.i92
  %div30.i354 = sdiv i32 %div29.i352, %add95.i94
  %div31.i356 = sdiv i32 %div30.i354, %add98.i96
  %div32.i358 = sdiv i32 %div31.i356, %add101.i98
  %div33.i360 = sdiv i32 %div32.i358, %add104.i100
  %div34.i362 = sdiv i32 %div33.i360, %add107.i102
  %div35.i364 = sdiv i32 %div34.i362, %add110.i104
  %div36.i366 = sdiv i32 %div35.i364, %add113.i106
  %div37.i368 = sdiv i32 %div36.i366, %add117.i108
  %div38.i370 = sdiv i32 %div37.i368, %add120.i110
  %div39.i371 = sdiv i32 %div38.i370, %2
  %conv10 = sitofp i32 %div39.i371 to double
  %add11 = fadd double %div39.i, %conv10
  %conv12 = fptosi double %add11 to i32
  %3 = load volatile i32, ptr %dumping_ground, align 4, !tbaa !49
  %add13 = add nsw i32 %3, %conv12
  store volatile i32 %add13, ptr %dumping_ground, align 4, !tbaa !49
  %4 = load ptr, ptr %test_description, align 8, !tbaa !35
  %call18 = invoke noundef zeroext i1 @_Z11check_tracePKcS0_PK13trace_elementdjbjjbbi(ptr noundef %4, ptr noundef nonnull @.str.37, ptr noundef nonnull %trace, double noundef %add, i32 noundef 4096, i1 noundef zeroext false, i32 poison, i32 noundef 2048, i1 noundef zeroext false, i1 noundef zeroext false, i32 noundef -1)
          to label %invoke.cont17 unwind label %lpad16

invoke.cont17:                                    ; preds = %entry
  %5 = load ptr, ptr %test_description, align 8, !tbaa !35
  %6 = getelementptr inbounds %"class.std::__cxx11::basic_string", ptr %test_description, i64 0, i32 2
  %cmp.i.i.i = icmp eq ptr %5, %6
  br i1 %cmp.i.i.i, label %_ZNSt7__cxx1112basic_stringIcSt11char_traitsIcESaIcEED2Ev.exit, label %if.then.i.i

if.then.i.i:                                      ; preds = %invoke.cont17
  call void @_ZdlPv(ptr noundef %5) #22
  br label %_ZNSt7__cxx1112basic_stringIcSt11char_traitsIcESaIcEED2Ev.exit

_ZNSt7__cxx1112basic_stringIcSt11char_traitsIcESaIcEED2Ev.exit: ; preds = %invoke.cont17, %if.then.i.i
  call void @llvm.lifetime.end.p0(i64 32, ptr nonnull %test_description) #20
  call void @llvm.lifetime.end.p0(i64 800, ptr nonnull %trace) #20
  ret i1 %call18

lpad16:                                           ; preds = %entry
  %7 = landingpad { ptr, i32 }
          cleanup
  %8 = load ptr, ptr %test_description, align 8, !tbaa !35
  %9 = getelementptr inbounds %"class.std::__cxx11::basic_string", ptr %test_description, i64 0, i32 2
  %cmp.i.i.i372 = icmp eq ptr %8, %9
  br i1 %cmp.i.i.i372, label %_ZNSt7__cxx1112basic_stringIcSt11char_traitsIcESaIcEED2Ev.exit374, label %if.then.i.i373

if.then.i.i373:                                   ; preds = %lpad16
  call void @_ZdlPv(ptr noundef %8) #22
  br label %_ZNSt7__cxx1112basic_stringIcSt11char_traitsIcESaIcEED2Ev.exit374

_ZNSt7__cxx1112basic_stringIcSt11char_traitsIcESaIcEED2Ev.exit374: ; preds = %lpad16, %if.then.i.i373
  call void @llvm.lifetime.end.p0(i64 32, ptr nonnull %test_description) #20
  call void @llvm.lifetime.end.p0(i64 800, ptr nonnull %trace) #20
  resume { ptr, i32 } %7
}

; Function Attrs: noinline uwtable
define linkonce_odr dso_local noundef zeroext i1 @_Z19check_frame_variantILb0ELb0ELb0ELb1ELb0EEbiRVi(i32 noundef %seed, ptr noundef nonnull align 4 dereferenceable(4) %dumping_ground) local_unnamed_addr #3 comdat personality ptr @__gxx_personality_v0 {
entry:
  %trace = alloca [100 x %union.trace_element], align 16
  %test_description = alloca %"class.std::__cxx11::basic_string", align 8
  call void @llvm.lifetime.start.p0(i64 800, ptr nonnull %trace) #20
  call void @llvm.lifetime.start.p0(i64 32, ptr nonnull %test_description) #20
  call void @_Z24getTestDescriptionStringB5cxx11bbbbb(ptr nonnull sret(%"class.std::__cxx11::basic_string") align 8 %test_description, i1 noundef zeroext false, i1 noundef zeroext false, i1 noundef zeroext false, i1 noundef zeroext true, i1 noundef zeroext false)
  %conv = sitofp i32 %seed to double
  %add.i = fadd double %conv, %conv
  %add6.i = fadd double %add.i, %conv
  %add9.i = fadd double %add6.i, %conv
  %add12.i = fadd double %add9.i, %conv
  %add15.i = fadd double %add12.i, %conv
  %add18.i = fadd double %add15.i, %conv
  %add21.i = fadd double %add18.i, %conv
  %add24.i = fadd double %add21.i, %conv
  %add27.i = fadd double %add24.i, %conv
  %add30.i = fadd double %add27.i, %conv
  %add34.i = fadd double %add30.i, %conv
  %add38.i = fadd double %add34.i, %conv
  %add42.i = fadd double %add38.i, %conv
  %add45.i = fadd double %add42.i, %conv
  %add48.i = fadd double %add45.i, %conv
  %add52.i = fadd double %add48.i, %conv
  %add55.i = fadd double %add52.i, %conv
  %add58.i = fadd double %add55.i, %conv
  %add61.i = fadd double %add58.i, %conv
  %add64.i = fadd double %add61.i, %conv
  %add67.i = fadd double %add64.i, %conv
  %add70.i = fadd double %add67.i, %conv
  %add73.i = fadd double %add70.i, %conv
  %add77.i = fadd double %add73.i, %conv
  %add80.i = fadd double %add77.i, %conv
  %add83.i = fadd double %add80.i, %conv
  %add86.i = fadd double %add83.i, %conv
  %add89.i = fadd double %add86.i, %conv
  %add92.i = fadd double %add89.i, %conv
  %add95.i = fadd double %add92.i, %conv
  %add98.i = fadd double %add95.i, %conv
  %add101.i = fadd double %add98.i, %conv
  %add104.i = fadd double %add101.i, %conv
  %add107.i = fadd double %add104.i, %conv
  %add110.i = fadd double %add107.i, %conv
  %add113.i = fadd double %add110.i, %conv
  %add117.i = fadd double %add113.i, %conv
  %add120.i = fadd double %add117.i, %conv
  %add.i36 = shl nsw i32 %seed, 1
  %add6.i38 = mul nsw i32 %seed, 3
  %add9.i40 = shl nsw i32 %seed, 2
  %add12.i42 = mul nsw i32 %seed, 5
  %add15.i44 = mul nsw i32 %seed, 6
  %add18.i46 = mul nsw i32 %seed, 7
  %add21.i48 = shl nsw i32 %seed, 3
  %add24.i50 = mul nsw i32 %seed, 9
  %add27.i52 = mul nsw i32 %seed, 10
  %add30.i54 = mul nsw i32 %seed, 11
  %add34.i56 = mul nsw i32 %seed, 12
  %add38.i58 = mul nsw i32 %seed, 13
  %add42.i60 = mul nsw i32 %seed, 14
  %add45.i62 = mul nsw i32 %seed, 15
  %add48.i64 = shl nsw i32 %seed, 4
  %add52.i66 = mul nsw i32 %seed, 17
  %add55.i68 = mul nsw i32 %seed, 18
  %add58.i70 = mul nsw i32 %seed, 19
  %add61.i72 = mul nsw i32 %seed, 20
  %add64.i74 = mul nsw i32 %seed, 21
  %add67.i76 = mul nsw i32 %seed, 22
  %add70.i78 = mul nsw i32 %seed, 23
  %add73.i80 = mul nsw i32 %seed, 24
  %add77.i82 = mul nsw i32 %seed, 25
  %add80.i84 = mul nsw i32 %seed, 26
  %add83.i86 = mul nsw i32 %seed, 27
  %add86.i88 = mul nsw i32 %seed, 28
  %add89.i90 = mul nsw i32 %seed, 29
  %add92.i92 = mul nsw i32 %seed, 30
  %add95.i94 = mul nsw i32 %seed, 31
  %add98.i96 = shl nsw i32 %seed, 5
  %add101.i98 = mul nsw i32 %seed, 33
  %add104.i100 = mul nsw i32 %seed, 34
  %add107.i102 = mul nsw i32 %seed, 35
  %add110.i104 = mul nsw i32 %seed, 36
  %add113.i106 = mul nsw i32 %seed, 37
  %add117.i108 = mul nsw i32 %seed, 38
  %add120.i110 = mul nsw i32 %seed, 39
  %div.i = fdiv double %add120.i, %add117.i
  %div2.i = fdiv double %div.i, %add113.i
  %div3.i = fdiv double %div2.i, %add110.i
  %div4.i = fdiv double %div3.i, %add107.i
  %div5.i = fdiv double %div4.i, %add104.i
  %div6.i = fdiv double %div5.i, %add101.i
  %div7.i = fdiv double %div6.i, %add98.i
  %div8.i = fdiv double %div7.i, %add95.i
  %div9.i = fdiv double %div8.i, %add92.i
  %div10.i = fdiv double %div9.i, %add89.i
  %div11.i = fdiv double %div10.i, %add86.i
  %div12.i = fdiv double %div11.i, %add83.i
  %div13.i = fdiv double %div12.i, %add80.i
  %div14.i = fdiv double %div13.i, %add77.i
  %div15.i = fdiv double %div14.i, %add73.i
  %div16.i = fdiv double %div15.i, %add70.i
  %div17.i = fdiv double %div16.i, %add67.i
  %div18.i = fdiv double %div17.i, %add64.i
  %div19.i = fdiv double %div18.i, %add61.i
  %div20.i = fdiv double %div19.i, %add58.i
  %div21.i = fdiv double %div20.i, %add55.i
  %div22.i = fdiv double %div21.i, %add52.i
  %div23.i = fdiv double %div22.i, %add48.i
  %div24.i = fdiv double %div23.i, %add45.i
  %div25.i = fdiv double %div24.i, %add42.i
  %div26.i = fdiv double %div25.i, %add38.i
  %div27.i = fdiv double %div26.i, %add34.i
  %div28.i = fdiv double %div27.i, %add30.i
  %div29.i = fdiv double %div28.i, %add27.i
  %div30.i = fdiv double %div29.i, %add24.i
  %div31.i = fdiv double %div30.i, %add21.i
  %div32.i = fdiv double %div31.i, %add18.i
  %div33.i = fdiv double %div32.i, %add15.i
  %div34.i = fdiv double %div33.i, %add12.i
  %div35.i = fdiv double %div34.i, %add9.i
  %div36.i = fdiv double %div35.i, %add6.i
  %div37.i = fdiv double %div36.i, %add.i
  %div38.i = fdiv double %div37.i, %conv
  %div.i145 = sdiv i32 %add120.i110, %add117.i108
  %div2.i147 = sdiv i32 %div.i145, %add113.i106
  %div3.i149 = sdiv i32 %div2.i147, %add110.i104
  %div4.i151 = sdiv i32 %div3.i149, %add107.i102
  %div5.i153 = sdiv i32 %div4.i151, %add104.i100
  %div6.i155 = sdiv i32 %div5.i153, %add101.i98
  %div7.i157 = sdiv i32 %div6.i155, %add98.i96
  %div8.i159 = sdiv i32 %div7.i157, %add95.i94
  %div9.i161 = sdiv i32 %div8.i159, %add92.i92
  %div10.i163 = sdiv i32 %div9.i161, %add89.i90
  %div11.i165 = sdiv i32 %div10.i163, %add86.i88
  %div12.i167 = sdiv i32 %div11.i165, %add83.i86
  %div13.i169 = sdiv i32 %div12.i167, %add80.i84
  %div14.i171 = sdiv i32 %div13.i169, %add77.i82
  %div15.i173 = sdiv i32 %div14.i171, %add73.i80
  %div16.i175 = sdiv i32 %div15.i173, %add70.i78
  %div17.i177 = sdiv i32 %div16.i175, %add67.i76
  %div18.i179 = sdiv i32 %div17.i177, %add64.i74
  %div19.i181 = sdiv i32 %div18.i179, %add61.i72
  %div20.i183 = sdiv i32 %div19.i181, %add58.i70
  %div21.i185 = sdiv i32 %div20.i183, %add55.i68
  %div22.i187 = sdiv i32 %div21.i185, %add52.i66
  %div23.i189 = sdiv i32 %div22.i187, %add48.i64
  %div24.i191 = sdiv i32 %div23.i189, %add45.i62
  %div25.i193 = sdiv i32 %div24.i191, %add42.i60
  %div26.i195 = sdiv i32 %div25.i193, %add38.i58
  %div27.i197 = sdiv i32 %div26.i195, %add34.i56
  %div28.i199 = sdiv i32 %div27.i197, %add30.i54
  %div29.i201 = sdiv i32 %div28.i199, %add27.i52
  %div30.i203 = sdiv i32 %div29.i201, %add24.i50
  %div31.i205 = sdiv i32 %div30.i203, %add21.i48
  %div32.i207 = sdiv i32 %div31.i205, %add18.i46
  %div33.i209 = sdiv i32 %div32.i207, %add15.i44
  %div34.i211 = sdiv i32 %div33.i209, %add12.i42
  %div35.i213 = sdiv i32 %div34.i211, %add9.i40
  %div36.i215 = sdiv i32 %div35.i213, %add6.i38
  %div37.i217 = sdiv i32 %div36.i215, %add.i36
  %div38.i218 = sdiv i32 %div37.i217, %seed
  %conv4 = sitofp i32 %div38.i218 to double
  %add = fadd double %div38.i, %conv4
  call void @_Z10test_frameILj2ELb0ELj2048ELb0ELb0EJiiiiiiiiiiiiiiiiiiiiddddddddddddddddddddEEvDpT4_jPKcP13trace_elementd(i32 noundef 0, i32 noundef 0, i32 noundef 0, i32 noundef 0, i32 noundef 0, i32 noundef 0, i32 noundef 0, i32 noundef 0, i32 noundef 0, i32 noundef 0, i32 noundef 0, i32 noundef 0, i32 noundef 0, i32 noundef 0, i32 noundef 0, i32 noundef 0, i32 noundef 0, i32 noundef 0, i32 noundef 0, i32 noundef 0, double noundef 0.000000e+00, double noundef 0.000000e+00, double noundef 0.000000e+00, double noundef 0.000000e+00, double noundef 0.000000e+00, double noundef 0.000000e+00, double noundef 0.000000e+00, double noundef 0.000000e+00, double noundef 0.000000e+00, double noundef 0.000000e+00, double noundef 0.000000e+00, double noundef 0.000000e+00, double noundef 0.000000e+00, double noundef 0.000000e+00, double noundef 0.000000e+00, double noundef 0.000000e+00, double noundef 0.000000e+00, double noundef 0.000000e+00, double noundef 0.000000e+00, double noundef 0.000000e+00, i32 noundef 100, ptr noundef nonnull @.str.37, ptr noundef nonnull %trace, double noundef %add)
  %0 = load double, ptr %trace, align 16, !tbaa !5
  %div.i220 = fdiv double %conv, %add.i
  %div2.i222 = fdiv double %div.i220, %add6.i
  %div3.i224 = fdiv double %div2.i222, %add9.i
  %div4.i226 = fdiv double %div3.i224, %add12.i
  %div5.i228 = fdiv double %div4.i226, %add15.i
  %div6.i230 = fdiv double %div5.i228, %add18.i
  %div7.i232 = fdiv double %div6.i230, %add21.i
  %div8.i234 = fdiv double %div7.i232, %add24.i
  %div9.i236 = fdiv double %div8.i234, %add27.i
  %div10.i238 = fdiv double %div9.i236, %add30.i
  %div11.i240 = fdiv double %div10.i238, %add34.i
  %div12.i242 = fdiv double %div11.i240, %add38.i
  %div13.i244 = fdiv double %div12.i242, %add42.i
  %div14.i246 = fdiv double %div13.i244, %add45.i
  %div15.i248 = fdiv double %div14.i246, %add48.i
  %div16.i250 = fdiv double %div15.i248, %add52.i
  %div17.i252 = fdiv double %div16.i250, %add55.i
  %div18.i254 = fdiv double %div17.i252, %add58.i
  %div19.i256 = fdiv double %div18.i254, %add61.i
  %div20.i258 = fdiv double %div19.i256, %add64.i
  %div21.i260 = fdiv double %div20.i258, %add67.i
  %div22.i262 = fdiv double %div21.i260, %add70.i
  %div23.i264 = fdiv double %div22.i262, %add73.i
  %div24.i266 = fdiv double %div23.i264, %add77.i
  %div25.i268 = fdiv double %div24.i266, %add80.i
  %div26.i270 = fdiv double %div25.i268, %add83.i
  %div27.i272 = fdiv double %div26.i270, %add86.i
  %div28.i274 = fdiv double %div27.i272, %add89.i
  %div29.i276 = fdiv double %div28.i274, %add92.i
  %div30.i278 = fdiv double %div29.i276, %add95.i
  %div31.i280 = fdiv double %div30.i278, %add98.i
  %div32.i282 = fdiv double %div31.i280, %add101.i
  %div33.i284 = fdiv double %div32.i282, %add104.i
  %div34.i286 = fdiv double %div33.i284, %add107.i
  %div35.i288 = fdiv double %div34.i286, %add110.i
  %div36.i290 = fdiv double %div35.i288, %add113.i
  %div37.i292 = fdiv double %div36.i290, %add117.i
  %div38.i294 = fdiv double %div37.i292, %add120.i
  %div39.i = fdiv double %div38.i294, %0
  %1 = bitcast double %0 to i64
  %2 = trunc i64 %1 to i32
  %div.i296 = sdiv i32 %seed, %add.i36
  %div2.i298 = sdiv i32 %div.i296, %add6.i38
  %div3.i300 = sdiv i32 %div2.i298, %add9.i40
  %div4.i302 = sdiv i32 %div3.i300, %add12.i42
  %div5.i304 = sdiv i32 %div4.i302, %add15.i44
  %div6.i306 = sdiv i32 %div5.i304, %add18.i46
  %div7.i308 = sdiv i32 %div6.i306, %add21.i48
  %div8.i310 = sdiv i32 %div7.i308, %add24.i50
  %div9.i312 = sdiv i32 %div8.i310, %add27.i52
  %div10.i314 = sdiv i32 %div9.i312, %add30.i54
  %div11.i316 = sdiv i32 %div10.i314, %add34.i56
  %div12.i318 = sdiv i32 %div11.i316, %add38.i58
  %div13.i320 = sdiv i32 %div12.i318, %add42.i60
  %div14.i322 = sdiv i32 %div13.i320, %add45.i62
  %div15.i324 = sdiv i32 %div14.i322, %add48.i64
  %div16.i326 = sdiv i32 %div15.i324, %add52.i66
  %div17.i328 = sdiv i32 %div16.i326, %add55.i68
  %div18.i330 = sdiv i32 %div17.i328, %add58.i70
  %div19.i332 = sdiv i32 %div18.i330, %add61.i72
  %div20.i334 = sdiv i32 %div19.i332, %add64.i74
  %div21.i336 = sdiv i32 %div20.i334, %add67.i76
  %div22.i338 = sdiv i32 %div21.i336, %add70.i78
  %div23.i340 = sdiv i32 %div22.i338, %add73.i80
  %div24.i342 = sdiv i32 %div23.i340, %add77.i82
  %div25.i344 = sdiv i32 %div24.i342, %add80.i84
  %div26.i346 = sdiv i32 %div25.i344, %add83.i86
  %div27.i348 = sdiv i32 %div26.i346, %add86.i88
  %div28.i350 = sdiv i32 %div27.i348, %add89.i90
  %div29.i352 = sdiv i32 %div28.i350, %add92.i92
  %div30.i354 = sdiv i32 %div29.i352, %add95.i94
  %div31.i356 = sdiv i32 %div30.i354, %add98.i96
  %div32.i358 = sdiv i32 %div31.i356, %add101.i98
  %div33.i360 = sdiv i32 %div32.i358, %add104.i100
  %div34.i362 = sdiv i32 %div33.i360, %add107.i102
  %div35.i364 = sdiv i32 %div34.i362, %add110.i104
  %div36.i366 = sdiv i32 %div35.i364, %add113.i106
  %div37.i368 = sdiv i32 %div36.i366, %add117.i108
  %div38.i370 = sdiv i32 %div37.i368, %add120.i110
  %div39.i371 = sdiv i32 %div38.i370, %2
  %conv10 = sitofp i32 %div39.i371 to double
  %add11 = fadd double %div39.i, %conv10
  %conv12 = fptosi double %add11 to i32
  %3 = load volatile i32, ptr %dumping_ground, align 4, !tbaa !49
  %add13 = add nsw i32 %3, %conv12
  store volatile i32 %add13, ptr %dumping_ground, align 4, !tbaa !49
  %4 = load ptr, ptr %test_description, align 8, !tbaa !35
  %call18 = invoke noundef zeroext i1 @_Z11check_tracePKcS0_PK13trace_elementdjbjjbbi(ptr noundef %4, ptr noundef nonnull @.str.37, ptr noundef nonnull %trace, double noundef %add, i32 noundef 2, i1 noundef zeroext false, i32 poison, i32 noundef 2048, i1 noundef zeroext false, i1 noundef zeroext false, i32 noundef -1)
          to label %invoke.cont17 unwind label %lpad16

invoke.cont17:                                    ; preds = %entry
  %5 = load ptr, ptr %test_description, align 8, !tbaa !35
  %6 = getelementptr inbounds %"class.std::__cxx11::basic_string", ptr %test_description, i64 0, i32 2
  %cmp.i.i.i = icmp eq ptr %5, %6
  br i1 %cmp.i.i.i, label %_ZNSt7__cxx1112basic_stringIcSt11char_traitsIcESaIcEED2Ev.exit, label %if.then.i.i

if.then.i.i:                                      ; preds = %invoke.cont17
  call void @_ZdlPv(ptr noundef %5) #22
  br label %_ZNSt7__cxx1112basic_stringIcSt11char_traitsIcESaIcEED2Ev.exit

_ZNSt7__cxx1112basic_stringIcSt11char_traitsIcESaIcEED2Ev.exit: ; preds = %invoke.cont17, %if.then.i.i
  call void @llvm.lifetime.end.p0(i64 32, ptr nonnull %test_description) #20
  call void @llvm.lifetime.end.p0(i64 800, ptr nonnull %trace) #20
  ret i1 %call18

lpad16:                                           ; preds = %entry
  %7 = landingpad { ptr, i32 }
          cleanup
  %8 = load ptr, ptr %test_description, align 8, !tbaa !35
  %9 = getelementptr inbounds %"class.std::__cxx11::basic_string", ptr %test_description, i64 0, i32 2
  %cmp.i.i.i372 = icmp eq ptr %8, %9
  br i1 %cmp.i.i.i372, label %_ZNSt7__cxx1112basic_stringIcSt11char_traitsIcESaIcEED2Ev.exit374, label %if.then.i.i373

if.then.i.i373:                                   ; preds = %lpad16
  call void @_ZdlPv(ptr noundef %8) #22
  br label %_ZNSt7__cxx1112basic_stringIcSt11char_traitsIcESaIcEED2Ev.exit374

_ZNSt7__cxx1112basic_stringIcSt11char_traitsIcESaIcEED2Ev.exit374: ; preds = %lpad16, %if.then.i.i373
  call void @llvm.lifetime.end.p0(i64 32, ptr nonnull %test_description) #20
  call void @llvm.lifetime.end.p0(i64 800, ptr nonnull %trace) #20
  resume { ptr, i32 } %7
}

; Function Attrs: noinline uwtable
define linkonce_odr dso_local noundef zeroext i1 @_Z19check_frame_variantILb1ELb1ELb0ELb1ELb0EEbiRVi(i32 noundef %seed, ptr noundef nonnull align 4 dereferenceable(4) %dumping_ground) local_unnamed_addr #3 comdat personality ptr @__gxx_personality_v0 {
entry:
