; ModuleID = '/usr/local/google/home/aeubanks/repos/test-suite/MicroBenchmarks/LCALS/LCALSStats.cxx'
source_filename = "/usr/local/google/home/aeubanks/repos/test-suite/MicroBenchmarks/LCALS/LCALSStats.cxx"
target datalayout = "e-m:e-p270:32:32-p271:32:32-p272:64:64-i64:64-f80:128-n8:16:32:64-S128"
target triple = "x86_64-unknown-linux-gnu"

%"class.std::ios_base::Init" = type { i8 }
%"class.std::basic_ostream" = type { ptr, %"class.std::basic_ios" }
%"class.std::basic_ios" = type { %"class.std::ios_base", ptr, i8, i8, ptr, ptr, ptr, ptr }
%"class.std::ios_base" = type { ptr, i64, i64, i32, i32, i32, ptr, %"struct.std::ios_base::_Words", [8 x %"struct.std::ios_base::_Words"], i32, ptr, %"class.std::locale" }
%"struct.std::ios_base::_Words" = type { ptr, i64 }
%"class.std::locale" = type { ptr }
%"class.std::ctype" = type <{ %"class.std::locale::facet.base", [4 x i8], ptr, i8, [7 x i8], ptr, ptr, ptr, i8, [256 x i8], [256 x i8], i8, [6 x i8] }>
%"class.std::locale::facet.base" = type <{ ptr, i32 }>
%class.LoopStat = type { i8, double, %"class.std::vector", %"class.std::vector.5", %"class.std::vector.0", %"class.std::vector.0", %"class.std::vector.0", %"class.std::vector.0", %"class.std::vector.0", %"class.std::vector.0", %"class.std::vector.10", %"class.std::vector.10", %"class.std::vector.0" }
%"class.std::vector" = type { %"struct.std::_Vector_base" }
%"struct.std::_Vector_base" = type { %"struct.std::_Vector_base<std::vector<long double>, std::allocator<std::vector<long double>>>::_Vector_impl" }
%"struct.std::_Vector_base<std::vector<long double>, std::allocator<std::vector<long double>>>::_Vector_impl" = type { %"struct.std::_Vector_base<std::vector<long double>, std::allocator<std::vector<long double>>>::_Vector_impl_data" }
%"struct.std::_Vector_base<std::vector<long double>, std::allocator<std::vector<long double>>>::_Vector_impl_data" = type { ptr, ptr, ptr }
%"class.std::vector.5" = type { %"struct.std::_Vector_base.6" }
%"struct.std::_Vector_base.6" = type { %"struct.std::_Vector_base<unsigned long, std::allocator<unsigned long>>::_Vector_impl" }
%"struct.std::_Vector_base<unsigned long, std::allocator<unsigned long>>::_Vector_impl" = type { %"struct.std::_Vector_base<unsigned long, std::allocator<unsigned long>>::_Vector_impl_data" }
%"struct.std::_Vector_base<unsigned long, std::allocator<unsigned long>>::_Vector_impl_data" = type { ptr, ptr, ptr }
%"class.std::vector.10" = type { %"struct.std::_Vector_base.11" }
%"struct.std::_Vector_base.11" = type { %"struct.std::_Vector_base<int, std::allocator<int>>::_Vector_impl" }
%"struct.std::_Vector_base<int, std::allocator<int>>::_Vector_impl" = type { %"struct.std::_Vector_base<int, std::allocator<int>>::_Vector_impl_data" }
%"struct.std::_Vector_base<int, std::allocator<int>>::_Vector_impl_data" = type { ptr, ptr, ptr }
%"class.std::vector.0" = type { %"struct.std::_Vector_base.1" }
%"struct.std::_Vector_base.1" = type { %"struct.std::_Vector_base<long double, std::allocator<long double>>::_Vector_impl" }
%"struct.std::_Vector_base<long double, std::allocator<long double>>::_Vector_impl" = type { %"struct.std::_Vector_base<long double, std::allocator<long double>>::_Vector_impl_data" }
%"struct.std::_Vector_base<long double, std::allocator<long double>>::_Vector_impl_data" = type { ptr, ptr, ptr }
%"class.std::__cxx11::basic_string" = type { %"struct.std::__cxx11::basic_string<char>::_Alloc_hider", i64, %union.anon }
%"struct.std::__cxx11::basic_string<char>::_Alloc_hider" = type { ptr }
%union.anon = type { i64, [8 x i8] }
%class.LoopSuiteRunInfo = type { %"class.std::__cxx11::basic_string", i32, %"class.std::vector.18", i32, %"class.std::vector.23", %"class.std::vector.18", i32, double, %class.LoopStat, %"class.std::vector.24", %"class.std::vector.29", %"class.std::vector", %"class.std::vector", %"class.std::vector", i64, ptr, x86_fp80, %"class.std::map" }
%"class.std::vector.23" = type { %"struct.std::_Bvector_base" }
%"struct.std::_Bvector_base" = type { %"struct.std::_Bvector_base<std::allocator<bool>>::_Bvector_impl" }
%"struct.std::_Bvector_base<std::allocator<bool>>::_Bvector_impl" = type { %"struct.std::_Bvector_base<std::allocator<bool>>::_Bvector_impl_data" }
%"struct.std::_Bvector_base<std::allocator<bool>>::_Bvector_impl_data" = type { %"struct.std::_Bit_iterator", %"struct.std::_Bit_iterator", ptr }
%"struct.std::_Bit_iterator" = type { %"struct.std::_Bit_iterator_base.base", [4 x i8] }
%"struct.std::_Bit_iterator_base.base" = type <{ ptr, i32 }>
%"class.std::vector.18" = type { %"struct.std::_Vector_base.19" }
%"struct.std::_Vector_base.19" = type { %"struct.std::_Vector_base<std::__cxx11::basic_string<char>, std::allocator<std::__cxx11::basic_string<char>>>::_Vector_impl" }
%"struct.std::_Vector_base<std::__cxx11::basic_string<char>, std::allocator<std::__cxx11::basic_string<char>>>::_Vector_impl" = type { %"struct.std::_Vector_base<std::__cxx11::basic_string<char>, std::allocator<std::__cxx11::basic_string<char>>>::_Vector_impl_data" }
%"struct.std::_Vector_base<std::__cxx11::basic_string<char>, std::allocator<std::__cxx11::basic_string<char>>>::_Vector_impl_data" = type { ptr, ptr, ptr }
%"class.std::vector.24" = type { %"struct.std::_Vector_base.25" }
%"struct.std::_Vector_base.25" = type { %"struct.std::_Vector_base<double, std::allocator<double>>::_Vector_impl" }
%"struct.std::_Vector_base<double, std::allocator<double>>::_Vector_impl" = type { %"struct.std::_Vector_base<double, std::allocator<double>>::_Vector_impl_data" }
%"struct.std::_Vector_base<double, std::allocator<double>>::_Vector_impl_data" = type { ptr, ptr, ptr }
%"class.std::vector.29" = type { %"struct.std::_Vector_base.30" }
%"struct.std::_Vector_base.30" = type { %"struct.std::_Vector_base<std::vector<int>, std::allocator<std::vector<int>>>::_Vector_impl" }
%"struct.std::_Vector_base<std::vector<int>, std::allocator<std::vector<int>>>::_Vector_impl" = type { %"struct.std::_Vector_base<std::vector<int>, std::allocator<std::vector<int>>>::_Vector_impl_data" }
%"struct.std::_Vector_base<std::vector<int>, std::allocator<std::vector<int>>>::_Vector_impl_data" = type { ptr, ptr, ptr }
%"class.std::map" = type { %"class.std::_Rb_tree" }
%"class.std::_Rb_tree" = type { %"struct.std::_Rb_tree<std::__cxx11::basic_string<char>, std::pair<const std::__cxx11::basic_string<char>, std::vector<LoopStat> *>, std::_Select1st<std::pair<const std::__cxx11::basic_string<char>, std::vector<LoopStat> *>>, std::less<std::__cxx11::basic_string<char>>>::_Rb_tree_impl" }
%"struct.std::_Rb_tree<std::__cxx11::basic_string<char>, std::pair<const std::__cxx11::basic_string<char>, std::vector<LoopStat> *>, std::_Select1st<std::pair<const std::__cxx11::basic_string<char>, std::vector<LoopStat> *>>, std::less<std::__cxx11::basic_string<char>>>::_Rb_tree_impl" = type { %"struct.std::_Rb_tree_key_compare", %"struct.std::_Rb_tree_header" }
%"struct.std::_Rb_tree_key_compare" = type { %"struct.std::less" }
%"struct.std::less" = type { i8 }
%"struct.std::_Rb_tree_header" = type { %"struct.std::_Rb_tree_node_base", i64 }
%"struct.std::_Rb_tree_node_base" = type { i32, ptr, ptr, ptr }
%"struct.std::_Rb_tree_node" = type { %"struct.std::_Rb_tree_node_base", %"struct.__gnu_cxx::__aligned_membuf" }
%"struct.__gnu_cxx::__aligned_membuf" = type { [40 x i8] }
%"struct.std::_Vector_base<LoopStat, std::allocator<LoopStat>>::_Vector_impl_data" = type { ptr, ptr, ptr }
%struct.LoopTimer = type <{ i64, i64, i8, [7 x i8] }>
%"class.std::basic_ofstream" = type { %"class.std::basic_ostream.base", %"class.std::basic_filebuf", %"class.std::basic_ios" }
%"class.std::basic_ostream.base" = type { ptr }
%"class.std::basic_filebuf" = type { %"class.std::basic_streambuf", %union.pthread_mutex_t, %"class.std::__basic_file", i32, %struct.__mbstate_t, %struct.__mbstate_t, %struct.__mbstate_t, ptr, i64, i8, i8, i8, i8, ptr, ptr, i8, ptr, ptr, i64, ptr, ptr }
%"class.std::basic_streambuf" = type { ptr, ptr, ptr, ptr, ptr, ptr, ptr, %"class.std::locale" }
%union.pthread_mutex_t = type { %struct.__pthread_mutex_s }
%struct.__pthread_mutex_s = type { i32, i32, i32, i32, i32, i16, i16, %struct.__pthread_internal_list }
%struct.__pthread_internal_list = type { ptr, ptr }
%"class.std::__basic_file" = type <{ ptr, i8, [7 x i8] }>
%struct.__mbstate_t = type { i32, %union.anon.42 }
%union.anon.42 = type { i32 }
%"class.std::basic_ifstream" = type { %"class.std::basic_istream.base", %"class.std::basic_filebuf", %"class.std::basic_ios" }
%"class.std::basic_istream.base" = type { ptr, i64 }
%"class.std::basic_istream" = type { ptr, i64, %"class.std::basic_ios" }

$_ZN16LoopSuiteRunInfoD2Ev = comdat any

$__clang_call_terminate = comdat any

$_ZN8LoopStatD2Ev = comdat any

$_ZNSt8_Rb_treeINSt7__cxx1112basic_stringIcSt11char_traitsIcESaIcEEESt4pairIKS5_PSt6vectorI8LoopStatSaIS9_EEESt10_Select1stISD_ESt4lessIS5_ESaISD_EE8_M_eraseEPSt13_Rb_tree_nodeISD_E = comdat any

$_ZNSt7__cxx1112basic_stringIcSt11char_traitsIcESaIcEE12_M_constructISt19istreambuf_iteratorIcS2_EEEvT_S8_St18input_iterator_tag = comdat any

$_ZNSt6vectorIbSaIbEE13_M_insert_auxESt13_Bit_iteratorb = comdat any

@_ZStL8__ioinit = internal global %"class.std::ios_base::Init" zeroinitializer, align 1
@__dso_handle = external hidden global i8
@.str = private unnamed_addr constant [20 x i8] c"\0ALoopStat::print...\00", align 1
@.str.1 = private unnamed_addr constant [16 x i8] c"\09loop_is_run = \00", align 1
@.str.2 = private unnamed_addr constant [21 x i8] c"\09num loop lengths = \00", align 1
@.str.3 = private unnamed_addr constant [14 x i8] c"\09\09 ilength = \00", align 1
@.str.4 = private unnamed_addr constant [6 x i8] c" --> \00", align 1
@.str.5 = private unnamed_addr constant [19 x i8] c"\09\09\09 loop_length = \00", align 1
@.str.6 = private unnamed_addr constant [24 x i8] c"\09\09\09 samples_per_pass = \00", align 1
@.str.7 = private unnamed_addr constant [22 x i8] c"\09\09\09 loop_run_count = \00", align 1
@.str.8 = private unnamed_addr constant [20 x i8] c"\09\09\09\09 sample time = \00", align 1
@.str.9 = private unnamed_addr constant [13 x i8] c"\09\09\09\09 mean = \00", align 1
@.str.10 = private unnamed_addr constant [16 x i8] c"\09\09\09\09 std_dev = \00", align 1
@.str.11 = private unnamed_addr constant [12 x i8] c"\09\09\09\09 min = \00", align 1
@.str.12 = private unnamed_addr constant [12 x i8] c"\09\09\09\09 max = \00", align 1
@.str.13 = private unnamed_addr constant [18 x i8] c"\09\09\09\09 harm_mean = \00", align 1
@.str.14 = private unnamed_addr constant [20 x i8] c"\09\09\09\09 meanrel2ref = \00", align 1
@_ZL21s_loop_suite_run_info = internal unnamed_addr global ptr null, align 8
@.str.15 = private unnamed_addr constant [2 x i8] c"/\00", align 1
@.str.16 = private unnamed_addr constant [11 x i8] c"timing.txt\00", align 1
@_ZSt4cout = external global %"class.std::basic_ostream", align 8
@.str.17 = private unnamed_addr constant [32 x i8] c" ERROR: Can't open output file \00", align 1
@.str.18 = private unnamed_addr constant [33 x i8] c"\0A writeTimingSummaryReport...   \00", align 1
@.str.19 = private unnamed_addr constant [13 x i8] c"checksum.txt\00", align 1
@.str.20 = private unnamed_addr constant [29 x i8] c"\0A writeChecksumReport...    \00", align 1
@.str.21 = private unnamed_addr constant [8 x i8] c"fom.txt\00", align 1
@.str.22 = private unnamed_addr constant [21 x i8] c"\0A writeFOMReport... \00", align 1
@.str.23 = private unnamed_addr constant [49 x i8] c"cannot create std::vector larger than max_size()\00", align 1
@.str.24 = private unnamed_addr constant [109 x i8] c"===========================================================================================================\0A\00", align 1
@.str.25 = private unnamed_addr constant [110 x i8] c"------------------------------------------------------------------------------------------------------------\0A\00", align 1
@.str.26 = private unnamed_addr constant [57 x i8] c"-------------------------------------------------------\0A\00", align 1
@.str.27 = private unnamed_addr constant [46 x i8] c"............................................\0A\00", align 1
@.str.28 = private unnamed_addr constant [4 x i8] c"\0A\0A\0A\00", align 1
@.str.29 = private unnamed_addr constant [28 x i8] c"LCALS compilation summary: \00", align 1
@.str.30 = private unnamed_addr constant [3 x i8] c"\0A\0A\00", align 1
@.str.31 = private unnamed_addr constant [20 x i8] c"LCALS run summary: \00", align 1
@.str.32 = private unnamed_addr constant [21 x i8] c"sizeof(Real_type) = \00", align 1
@.str.33 = private unnamed_addr constant [25 x i8] c"     num suite passes = \00", align 1
@.str.34 = private unnamed_addr constant [29 x i8] c"     loop sample fraction = \00", align 1
@.str.35 = private unnamed_addr constant [26 x i8] c"     loop variants run : \00", align 1
@.str.36 = private unnamed_addr constant [4 x i8] c" , \00", align 1
@.str.37 = private unnamed_addr constant [27 x i8] c"\0A     reference variant : \00", align 1
@.str.38 = private unnamed_addr constant [19 x i8] c"Variant(length id)\00", align 1
@.str.39 = private unnamed_addr constant [66 x i8] c"Loop name(Loop ID) -->   <length id>:(length, samples/pass), etc.\00", align 1
@.str.40 = private unnamed_addr constant [14 x i8] c"   Mean Time \00", align 1
@.str.41 = private unnamed_addr constant [17 x i8] c"        Min Time\00", align 1
@.str.42 = private unnamed_addr constant [15 x i8] c"      Max Time\00", align 1
@.str.43 = private unnamed_addr constant [14 x i8] c"    Std. Dev.\00", align 1
@.str.44 = private unnamed_addr constant [29 x i8] c"Mean time rel to ref variant\00", align 1
@.str.45 = private unnamed_addr constant [3 x i8] c" (\00", align 1
@.str.46 = private unnamed_addr constant [7 x i8] c") --> \00", align 1
@.str.47 = private unnamed_addr constant [4 x i8] c"   \00", align 1
@.str.48 = private unnamed_addr constant [3 x i8] c":(\00", align 1
@.str.49 = private unnamed_addr constant [3 x i8] c", \00", align 1
@.str.50 = private unnamed_addr constant [2 x i8] c")\00", align 1
@.str.51 = private unnamed_addr constant [2 x i8] c"(\00", align 1
@.str.53 = private unnamed_addr constant [21 x i8] c"basic_string::append\00", align 1
@.str.54 = private unnamed_addr constant [18 x i8] c"Variant(length #)\00", align 1
@.str.55 = private unnamed_addr constant [14 x i8] c"Loop name -->\00", align 1
@.str.56 = private unnamed_addr constant [14 x i8] c"Check Sum    \00", align 1
@.str.57 = private unnamed_addr constant [29 x i8] c"        Delta from reference\00", align 1
@.str.58 = private unnamed_addr constant [20 x i8] c"LCALS FOM results: \00", align 1
@.str.59 = private unnamed_addr constant [17 x i8] c"Loop variant -- \00", align 1
@.str.60 = private unnamed_addr constant [2 x i8] c"\09\00", align 1
@.str.61 = private unnamed_addr constant [20 x i8] c" :   # loops run = \00", align 1
@.str.62 = private unnamed_addr constant [24 x i8] c" ,   total exec time = \00", align 1
@.str.63 = private unnamed_addr constant [18 x i8] c"\09\09FOM_relative = \00", align 1
@.str.64 = private unnamed_addr constant [14 x i8] c"-meantime.txt\00", align 1
@.str.65 = private unnamed_addr constant [28 x i8] c"\0A writeMeanTimeReport...   \00", align 1
@.str.66 = private unnamed_addr constant [17 x i8] c" Mean Run Times \00", align 1
@.str.67 = private unnamed_addr constant [13 x i8] c"-reltime.txt\00", align 1
@.str.68 = private unnamed_addr constant [32 x i8] c"\0A writeRelativeTimeReport...   \00", align 1
@.str.69 = private unnamed_addr constant [21 x i8] c" Relative Run Times \00", align 1
@.str.70 = private unnamed_addr constant [21 x i8] c"lcalsversioninfo.txt\00", align 1
@_ZTTSt14basic_ifstreamIcSt11char_traitsIcEE = external unnamed_addr constant [4 x ptr], align 8
@.str.71 = private unnamed_addr constant [28 x i8] c"vector<bool>::_M_insert_aux\00", align 1
@.str.72 = private unnamed_addr constant [26 x i8] c"vector::_M_realloc_insert\00", align 1
@_ZTTSt14basic_ofstreamIcSt11char_traitsIcEE = external unnamed_addr constant [4 x ptr], align 8
@llvm.global_ctors = appending global [1 x { i32, ptr, ptr }] [{ i32, ptr, ptr } { i32 65535, ptr @_GLOBAL__sub_I_LCALSStats.cxx, ptr null }]

declare void @_ZNSt8ios_base4InitC1Ev(ptr noundef nonnull align 1 dereferenceable(1)) unnamed_addr #0

; Function Attrs: nounwind
declare void @_ZNSt8ios_base4InitD1Ev(ptr noundef nonnull align 1 dereferenceable(1)) unnamed_addr #1

; Function Attrs: nofree nounwind
declare i32 @__cxa_atexit(ptr, ptr, ptr) local_unnamed_addr #2

; Function Attrs: mustprogress uwtable
define dso_local void @_ZNK8LoopStat5printERSo(ptr nocapture noundef nonnull readonly align 8 dereferenceable(280) %this, ptr noundef nonnull align 8 dereferenceable(8) %os) local_unnamed_addr #3 align 2 {
entry:
  %call1.i = tail call noundef nonnull align 8 dereferenceable(8) ptr @_ZSt16__ostream_insertIcSt11char_traitsIcEERSt13basic_ostreamIT_T0_ES6_PKS3_l(ptr noundef nonnull align 8 dereferenceable(8) %os, ptr noundef nonnull @.str, i64 noundef 19)
  %vtable.i = load ptr, ptr %os, align 8, !tbaa !5
  %vbase.offset.ptr.i = getelementptr i8, ptr %vtable.i, i64 -24
  %vbase.offset.i = load i64, ptr %vbase.offset.ptr.i, align 8
  %add.ptr.i232 = getelementptr inbounds i8, ptr %os, i64 %vbase.offset.i
  %_M_ctype.i.i = getelementptr inbounds %"class.std::basic_ios", ptr %add.ptr.i232, i64 0, i32 5
  %0 = load ptr, ptr %_M_ctype.i.i, align 8, !tbaa !8
  %tobool.not.i.i.i = icmp eq ptr %0, null
  br i1 %tobool.not.i.i.i, label %if.then.i.i.i, label %_ZSt13__check_facetISt5ctypeIcEERKT_PS3_.exit.i.i

if.then.i.i.i:                                    ; preds = %entry
  tail call void @_ZSt16__throw_bad_castv() #22
  unreachable

_ZSt13__check_facetISt5ctypeIcEERKT_PS3_.exit.i.i: ; preds = %entry
  %_M_widen_ok.i.i.i = getelementptr inbounds %"class.std::ctype", ptr %0, i64 0, i32 8
  %1 = load i8, ptr %_M_widen_ok.i.i.i, align 8, !tbaa !20
  %tobool.not.i3.i.i = icmp eq i8 %1, 0
  br i1 %tobool.not.i3.i.i, label %if.end.i.i.i, label %if.then.i4.i.i

if.then.i4.i.i:                                   ; preds = %_ZSt13__check_facetISt5ctypeIcEERKT_PS3_.exit.i.i
  %arrayidx.i.i.i = getelementptr inbounds %"class.std::ctype", ptr %0, i64 0, i32 9, i64 10
  %2 = load i8, ptr %arrayidx.i.i.i, align 1, !tbaa !23
  br label %_ZSt4endlIcSt11char_traitsIcEERSt13basic_ostreamIT_T0_ES6_.exit

if.end.i.i.i:                                     ; preds = %_ZSt13__check_facetISt5ctypeIcEERKT_PS3_.exit.i.i
  tail call void @_ZNKSt5ctypeIcE13_M_widen_initEv(ptr noundef nonnull align 8 dereferenceable(570) %0)
  %vtable.i.i.i = load ptr, ptr %0, align 8, !tbaa !5
  %vfn.i.i.i = getelementptr inbounds ptr, ptr %vtable.i.i.i, i64 6
  %3 = load ptr, ptr %vfn.i.i.i, align 8
  %call.i.i.i = tail call noundef signext i8 %3(ptr noundef nonnull align 8 dereferenceable(570) %0, i8 noundef signext 10)
  br label %_ZSt4endlIcSt11char_traitsIcEERSt13basic_ostreamIT_T0_ES6_.exit

_ZSt4endlIcSt11char_traitsIcEERSt13basic_ostreamIT_T0_ES6_.exit: ; preds = %if.then.i4.i.i, %if.end.i.i.i
  %retval.0.i.i.i = phi i8 [ %2, %if.then.i4.i.i ], [ %call.i.i.i, %if.end.i.i.i ]
  %call1.i233 = tail call noundef nonnull align 8 dereferenceable(8) ptr @_ZNSo3putEc(ptr noundef nonnull align 8 dereferenceable(8) %os, i8 noundef signext %retval.0.i.i.i)
  %call.i.i234 = tail call noundef nonnull align 8 dereferenceable(8) ptr @_ZNSo5flushEv(ptr noundef nonnull align 8 dereferenceable(8) %call1.i233)
  %call1.i145 = tail call noundef nonnull align 8 dereferenceable(8) ptr @_ZSt16__ostream_insertIcSt11char_traitsIcEERSt13basic_ostreamIT_T0_ES6_PKS3_l(ptr noundef nonnull align 8 dereferenceable(8) %os, ptr noundef nonnull @.str.1, i64 noundef 15)
  %4 = load i8, ptr %this, align 8, !tbaa !24, !range !43, !noundef !44
  %tobool = icmp ne i8 %4, 0
  %call.i146 = tail call noundef nonnull align 8 dereferenceable(8) ptr @_ZNSo9_M_insertIbEERSoT_(ptr noundef nonnull align 8 dereferenceable(8) %os, i1 noundef zeroext %tobool)
  %vtable.i235 = load ptr, ptr %call.i146, align 8, !tbaa !5
  %vbase.offset.ptr.i236 = getelementptr i8, ptr %vtable.i235, i64 -24
  %vbase.offset.i237 = load i64, ptr %vbase.offset.ptr.i236, align 8
  %add.ptr.i238 = getelementptr inbounds i8, ptr %call.i146, i64 %vbase.offset.i237
  %_M_ctype.i.i239 = getelementptr inbounds %"class.std::basic_ios", ptr %add.ptr.i238, i64 0, i32 5
  %5 = load ptr, ptr %_M_ctype.i.i239, align 8, !tbaa !8
  %tobool.not.i.i.i240 = icmp eq ptr %5, null
  br i1 %tobool.not.i.i.i240, label %if.then.i.i.i241, label %_ZSt13__check_facetISt5ctypeIcEERKT_PS3_.exit.i.i244

if.then.i.i.i241:                                 ; preds = %_ZSt4endlIcSt11char_traitsIcEERSt13basic_ostreamIT_T0_ES6_.exit
  tail call void @_ZSt16__throw_bad_castv() #22
  unreachable

_ZSt13__check_facetISt5ctypeIcEERKT_PS3_.exit.i.i244: ; preds = %_ZSt4endlIcSt11char_traitsIcEERSt13basic_ostreamIT_T0_ES6_.exit
  %_M_widen_ok.i.i.i242 = getelementptr inbounds %"class.std::ctype", ptr %5, i64 0, i32 8
  %6 = load i8, ptr %_M_widen_ok.i.i.i242, align 8, !tbaa !20
  %tobool.not.i3.i.i243 = icmp eq i8 %6, 0
  br i1 %tobool.not.i3.i.i243, label %if.end.i.i.i250, label %if.then.i4.i.i246

if.then.i4.i.i246:                                ; preds = %_ZSt13__check_facetISt5ctypeIcEERKT_PS3_.exit.i.i244
  %arrayidx.i.i.i245 = getelementptr inbounds %"class.std::ctype", ptr %5, i64 0, i32 9, i64 10
  %7 = load i8, ptr %arrayidx.i.i.i245, align 1, !tbaa !23
  br label %_ZSt4endlIcSt11char_traitsIcEERSt13basic_ostreamIT_T0_ES6_.exit254

if.end.i.i.i250:                                  ; preds = %_ZSt13__check_facetISt5ctypeIcEERKT_PS3_.exit.i.i244
  tail call void @_ZNKSt5ctypeIcE13_M_widen_initEv(ptr noundef nonnull align 8 dereferenceable(570) %5)
  %vtable.i.i.i247 = load ptr, ptr %5, align 8, !tbaa !5
  %vfn.i.i.i248 = getelementptr inbounds ptr, ptr %vtable.i.i.i247, i64 6
  %8 = load ptr, ptr %vfn.i.i.i248, align 8
  %call.i.i.i249 = tail call noundef signext i8 %8(ptr noundef nonnull align 8 dereferenceable(570) %5, i8 noundef signext 10)
  br label %_ZSt4endlIcSt11char_traitsIcEERSt13basic_ostreamIT_T0_ES6_.exit254

_ZSt4endlIcSt11char_traitsIcEERSt13basic_ostreamIT_T0_ES6_.exit254: ; preds = %if.then.i4.i.i246, %if.end.i.i.i250
  %retval.0.i.i.i251 = phi i8 [ %7, %if.then.i4.i.i246 ], [ %call.i.i.i249, %if.end.i.i.i250 ]
  %call1.i252 = tail call noundef nonnull align 8 dereferenceable(8) ptr @_ZNSo3putEc(ptr noundef nonnull align 8 dereferenceable(8) %call.i146, i8 noundef signext %retval.0.i.i.i251)
  %call.i.i253 = tail call noundef nonnull align 8 dereferenceable(8) ptr @_ZNSo5flushEv(ptr noundef nonnull align 8 dereferenceable(8) %call1.i252)
  %call1.i149 = tail call noundef nonnull align 8 dereferenceable(8) ptr @_ZSt16__ostream_insertIcSt11char_traitsIcEERSt13basic_ostreamIT_T0_ES6_PKS3_l(ptr noundef nonnull align 8 dereferenceable(8) %os, ptr noundef nonnull @.str.2, i64 noundef 20)
  %loop_length = getelementptr inbounds %class.LoopStat, ptr %this, i64 0, i32 10
  %_M_finish.i = getelementptr inbounds %class.LoopStat, ptr %this, i64 0, i32 10, i32 0, i32 0, i32 0, i32 1
  %9 = load ptr, ptr %_M_finish.i, align 8, !tbaa !45
  %10 = load ptr, ptr %loop_length, align 8, !tbaa !46
  %sub.ptr.lhs.cast.i = ptrtoint ptr %9 to i64
  %sub.ptr.rhs.cast.i = ptrtoint ptr %10 to i64
  %sub.ptr.sub.i = sub i64 %sub.ptr.lhs.cast.i, %sub.ptr.rhs.cast.i
  %sub.ptr.div.i = ashr exact i64 %sub.ptr.sub.i, 2
  %call.i150 = tail call noundef nonnull align 8 dereferenceable(8) ptr @_ZNSo9_M_insertImEERSoT_(ptr noundef nonnull align 8 dereferenceable(8) %os, i64 noundef %sub.ptr.div.i)
  %vtable.i255 = load ptr, ptr %call.i150, align 8, !tbaa !5
  %vbase.offset.ptr.i256 = getelementptr i8, ptr %vtable.i255, i64 -24
  %vbase.offset.i257 = load i64, ptr %vbase.offset.ptr.i256, align 8
  %add.ptr.i258 = getelementptr inbounds i8, ptr %call.i150, i64 %vbase.offset.i257
  %_M_ctype.i.i259 = getelementptr inbounds %"class.std::basic_ios", ptr %add.ptr.i258, i64 0, i32 5
  %11 = load ptr, ptr %_M_ctype.i.i259, align 8, !tbaa !8
  %tobool.not.i.i.i260 = icmp eq ptr %11, null
  br i1 %tobool.not.i.i.i260, label %if.then.i.i.i261, label %_ZSt13__check_facetISt5ctypeIcEERKT_PS3_.exit.i.i264

if.then.i.i.i261:                                 ; preds = %_ZSt4endlIcSt11char_traitsIcEERSt13basic_ostreamIT_T0_ES6_.exit254
  tail call void @_ZSt16__throw_bad_castv() #22
  unreachable

_ZSt13__check_facetISt5ctypeIcEERKT_PS3_.exit.i.i264: ; preds = %_ZSt4endlIcSt11char_traitsIcEERSt13basic_ostreamIT_T0_ES6_.exit254
  %_M_widen_ok.i.i.i262 = getelementptr inbounds %"class.std::ctype", ptr %11, i64 0, i32 8
  %12 = load i8, ptr %_M_widen_ok.i.i.i262, align 8, !tbaa !20
  %tobool.not.i3.i.i263 = icmp eq i8 %12, 0
  br i1 %tobool.not.i3.i.i263, label %if.end.i.i.i270, label %if.then.i4.i.i266

if.then.i4.i.i266:                                ; preds = %_ZSt13__check_facetISt5ctypeIcEERKT_PS3_.exit.i.i264
  %arrayidx.i.i.i265 = getelementptr inbounds %"class.std::ctype", ptr %11, i64 0, i32 9, i64 10
  %13 = load i8, ptr %arrayidx.i.i.i265, align 1, !tbaa !23
  br label %_ZSt4endlIcSt11char_traitsIcEERSt13basic_ostreamIT_T0_ES6_.exit274

if.end.i.i.i270:                                  ; preds = %_ZSt13__check_facetISt5ctypeIcEERKT_PS3_.exit.i.i264
  tail call void @_ZNKSt5ctypeIcE13_M_widen_initEv(ptr noundef nonnull align 8 dereferenceable(570) %11)
  %vtable.i.i.i267 = load ptr, ptr %11, align 8, !tbaa !5
  %vfn.i.i.i268 = getelementptr inbounds ptr, ptr %vtable.i.i.i267, i64 6
  %14 = load ptr, ptr %vfn.i.i.i268, align 8
  %call.i.i.i269 = tail call noundef signext i8 %14(ptr noundef nonnull align 8 dereferenceable(570) %11, i8 noundef signext 10)
  br label %_ZSt4endlIcSt11char_traitsIcEERSt13basic_ostreamIT_T0_ES6_.exit274

_ZSt4endlIcSt11char_traitsIcEERSt13basic_ostreamIT_T0_ES6_.exit274: ; preds = %if.then.i4.i.i266, %if.end.i.i.i270
  %retval.0.i.i.i271 = phi i8 [ %13, %if.then.i4.i.i266 ], [ %call.i.i.i269, %if.end.i.i.i270 ]
  %call1.i272 = tail call noundef nonnull align 8 dereferenceable(8) ptr @_ZNSo3putEc(ptr noundef nonnull align 8 dereferenceable(8) %call.i150, i8 noundef signext %retval.0.i.i.i271)
  %call.i.i273 = tail call noundef nonnull align 8 dereferenceable(8) ptr @_ZNSo5flushEv(ptr noundef nonnull align 8 dereferenceable(8) %call1.i272)
  %invariant.gep = getelementptr %"class.std::basic_ios", ptr %os, i64 0, i32 5
  %15 = load ptr, ptr %_M_finish.i, align 8, !tbaa !45
  %16 = load ptr, ptr %loop_length, align 8, !tbaa !46
  %cmp578.not = icmp eq ptr %15, %16
  br i1 %cmp578.not, label %for.cond.cleanup, label %for.body.lr.ph

for.body.lr.ph:                                   ; preds = %_ZSt4endlIcSt11char_traitsIcEERSt13basic_ostreamIT_T0_ES6_.exit274
  %samples_per_pass = getelementptr inbounds %class.LoopStat, ptr %this, i64 0, i32 11
  %loop_run_count = getelementptr inbounds %class.LoopStat, ptr %this, i64 0, i32 3
  %loop_run_time = getelementptr inbounds %class.LoopStat, ptr %this, i64 0, i32 2
  %mean = getelementptr inbounds %class.LoopStat, ptr %this, i64 0, i32 4
  %std_dev = getelementptr inbounds %class.LoopStat, ptr %this, i64 0, i32 5
  %min = getelementptr inbounds %class.LoopStat, ptr %this, i64 0, i32 6
  %max = getelementptr inbounds %class.LoopStat, ptr %this, i64 0, i32 7
  %harm_mean = getelementptr inbounds %class.LoopStat, ptr %this, i64 0, i32 8
  %meanrel2ref = getelementptr inbounds %class.LoopStat, ptr %this, i64 0, i32 9
  br label %for.body

for.cond.cleanup:                                 ; preds = %for.inc104, %_ZSt4endlIcSt11char_traitsIcEERSt13basic_ostreamIT_T0_ES6_.exit274
  %vtable.i275 = load ptr, ptr %os, align 8, !tbaa !5
  %vbase.offset.ptr.i276 = getelementptr i8, ptr %vtable.i275, i64 -24
  %vbase.offset.i277 = load i64, ptr %vbase.offset.ptr.i276, align 8
  %add.ptr.i278 = getelementptr inbounds i8, ptr %os, i64 %vbase.offset.i277
  %_M_ctype.i.i279 = getelementptr inbounds %"class.std::basic_ios", ptr %add.ptr.i278, i64 0, i32 5
  %17 = load ptr, ptr %_M_ctype.i.i279, align 8, !tbaa !8
  %tobool.not.i.i.i280 = icmp eq ptr %17, null
  br i1 %tobool.not.i.i.i280, label %if.then.i.i.i281, label %_ZSt13__check_facetISt5ctypeIcEERKT_PS3_.exit.i.i284

if.then.i.i.i281:                                 ; preds = %for.cond.cleanup
  tail call void @_ZSt16__throw_bad_castv() #22
  unreachable

_ZSt13__check_facetISt5ctypeIcEERKT_PS3_.exit.i.i284: ; preds = %for.cond.cleanup
  %_M_widen_ok.i.i.i282 = getelementptr inbounds %"class.std::ctype", ptr %17, i64 0, i32 8
  %18 = load i8, ptr %_M_widen_ok.i.i.i282, align 8, !tbaa !20
  %tobool.not.i3.i.i283 = icmp eq i8 %18, 0
  br i1 %tobool.not.i3.i.i283, label %if.end.i.i.i290, label %if.then.i4.i.i286

if.then.i4.i.i286:                                ; preds = %_ZSt13__check_facetISt5ctypeIcEERKT_PS3_.exit.i.i284
  %arrayidx.i.i.i285 = getelementptr inbounds %"class.std::ctype", ptr %17, i64 0, i32 9, i64 10
  %19 = load i8, ptr %arrayidx.i.i.i285, align 1, !tbaa !23
  br label %_ZSt4endlIcSt11char_traitsIcEERSt13basic_ostreamIT_T0_ES6_.exit294

if.end.i.i.i290:                                  ; preds = %_ZSt13__check_facetISt5ctypeIcEERKT_PS3_.exit.i.i284
  tail call void @_ZNKSt5ctypeIcE13_M_widen_initEv(ptr noundef nonnull align 8 dereferenceable(570) %17)
  %vtable.i.i.i287 = load ptr, ptr %17, align 8, !tbaa !5
  %vfn.i.i.i288 = getelementptr inbounds ptr, ptr %vtable.i.i.i287, i64 6
  %20 = load ptr, ptr %vfn.i.i.i288, align 8
  %call.i.i.i289 = tail call noundef signext i8 %20(ptr noundef nonnull align 8 dereferenceable(570) %17, i8 noundef signext 10)
  br label %_ZSt4endlIcSt11char_traitsIcEERSt13basic_ostreamIT_T0_ES6_.exit294

_ZSt4endlIcSt11char_traitsIcEERSt13basic_ostreamIT_T0_ES6_.exit294: ; preds = %if.then.i4.i.i286, %if.end.i.i.i290
  %retval.0.i.i.i291 = phi i8 [ %19, %if.then.i4.i.i286 ], [ %call.i.i.i289, %if.end.i.i.i290 ]
  %call1.i292 = tail call noundef nonnull align 8 dereferenceable(8) ptr @_ZNSo3putEc(ptr noundef nonnull align 8 dereferenceable(8) %os, i8 noundef signext %retval.0.i.i.i291)
  %call.i.i293 = tail call noundef nonnull align 8 dereferenceable(8) ptr @_ZNSo5flushEv(ptr noundef nonnull align 8 dereferenceable(8) %call1.i292)
  ret void

for.body:                                         ; preds = %for.body.lr.ph, %for.inc104
  %conv580 = phi i64 [ 0, %for.body.lr.ph ], [ %conv, %for.inc104 ]
  %call1.i159 = tail call noundef nonnull align 8 dereferenceable(8) ptr @_ZSt16__ostream_insertIcSt11char_traitsIcEERSt13basic_ostreamIT_T0_ES6_PKS3_l(ptr noundef nonnull align 8 dereferenceable(8) %os, ptr noundef nonnull @.str.3, i64 noundef 13)
  %call.i160 = tail call noundef nonnull align 8 dereferenceable(8) ptr @_ZNSo9_M_insertImEERSoT_(ptr noundef nonnull align 8 dereferenceable(8) %os, i64 noundef %conv580)
  %call1.i162 = tail call noundef nonnull align 8 dereferenceable(8) ptr @_ZSt16__ostream_insertIcSt11char_traitsIcEERSt13basic_ostreamIT_T0_ES6_PKS3_l(ptr noundef nonnull align 8 dereferenceable(8) %call.i160, ptr noundef nonnull @.str.4, i64 noundef 5)
  %vtable.i295 = load ptr, ptr %call.i160, align 8, !tbaa !5
  %vbase.offset.ptr.i296 = getelementptr i8, ptr %vtable.i295, i64 -24
  %vbase.offset.i297 = load i64, ptr %vbase.offset.ptr.i296, align 8
  %add.ptr.i298 = getelementptr inbounds i8, ptr %call.i160, i64 %vbase.offset.i297
  %_M_ctype.i.i299 = getelementptr inbounds %"class.std::basic_ios", ptr %add.ptr.i298, i64 0, i32 5
  %21 = load ptr, ptr %_M_ctype.i.i299, align 8, !tbaa !8
  %tobool.not.i.i.i300 = icmp eq ptr %21, null
  br i1 %tobool.not.i.i.i300, label %if.then.i.i.i301, label %_ZSt13__check_facetISt5ctypeIcEERKT_PS3_.exit.i.i304

if.then.i.i.i301:                                 ; preds = %for.body
  tail call void @_ZSt16__throw_bad_castv() #22
  unreachable

_ZSt13__check_facetISt5ctypeIcEERKT_PS3_.exit.i.i304: ; preds = %for.body
  %_M_widen_ok.i.i.i302 = getelementptr inbounds %"class.std::ctype", ptr %21, i64 0, i32 8
  %22 = load i8, ptr %_M_widen_ok.i.i.i302, align 8, !tbaa !20
  %tobool.not.i3.i.i303 = icmp eq i8 %22, 0
  br i1 %tobool.not.i3.i.i303, label %if.end.i.i.i310, label %if.then.i4.i.i306

if.then.i4.i.i306:                                ; preds = %_ZSt13__check_facetISt5ctypeIcEERKT_PS3_.exit.i.i304
  %arrayidx.i.i.i305 = getelementptr inbounds %"class.std::ctype", ptr %21, i64 0, i32 9, i64 10
  %23 = load i8, ptr %arrayidx.i.i.i305, align 1, !tbaa !23
  br label %_ZSt4endlIcSt11char_traitsIcEERSt13basic_ostreamIT_T0_ES6_.exit314

if.end.i.i.i310:                                  ; preds = %_ZSt13__check_facetISt5ctypeIcEERKT_PS3_.exit.i.i304
  tail call void @_ZNKSt5ctypeIcE13_M_widen_initEv(ptr noundef nonnull align 8 dereferenceable(570) %21)
  %vtable.i.i.i307 = load ptr, ptr %21, align 8, !tbaa !5
  %vfn.i.i.i308 = getelementptr inbounds ptr, ptr %vtable.i.i.i307, i64 6
  %24 = load ptr, ptr %vfn.i.i.i308, align 8
  %call.i.i.i309 = tail call noundef signext i8 %24(ptr noundef nonnull align 8 dereferenceable(570) %21, i8 noundef signext 10)
  br label %_ZSt4endlIcSt11char_traitsIcEERSt13basic_ostreamIT_T0_ES6_.exit314

_ZSt4endlIcSt11char_traitsIcEERSt13basic_ostreamIT_T0_ES6_.exit314: ; preds = %if.then.i4.i.i306, %if.end.i.i.i310
  %retval.0.i.i.i311 = phi i8 [ %23, %if.then.i4.i.i306 ], [ %call.i.i.i309, %if.end.i.i.i310 ]
  %call1.i312 = tail call noundef nonnull align 8 dereferenceable(8) ptr @_ZNSo3putEc(ptr noundef nonnull align 8 dereferenceable(8) %call.i160, i8 noundef signext %retval.0.i.i.i311)
  %call.i.i313 = tail call noundef nonnull align 8 dereferenceable(8) ptr @_ZNSo5flushEv(ptr noundef nonnull align 8 dereferenceable(8) %call1.i312)
  %call1.i165 = tail call noundef nonnull align 8 dereferenceable(8) ptr @_ZSt16__ostream_insertIcSt11char_traitsIcEERSt13basic_ostreamIT_T0_ES6_PKS3_l(ptr noundef nonnull align 8 dereferenceable(8) %os, ptr noundef nonnull @.str.5, i64 noundef 18)
  %25 = load ptr, ptr %loop_length, align 8, !tbaa !46
  %add.ptr.i = getelementptr inbounds i32, ptr %25, i64 %conv580
  %26 = load i32, ptr %add.ptr.i, align 4, !tbaa !47
  %call20 = tail call noundef nonnull align 8 dereferenceable(8) ptr @_ZNSolsEi(ptr noundef nonnull align 8 dereferenceable(8) %os, i32 noundef %26)
  %vtable.i315 = load ptr, ptr %call20, align 8, !tbaa !5
  %vbase.offset.ptr.i316 = getelementptr i8, ptr %vtable.i315, i64 -24
  %vbase.offset.i317 = load i64, ptr %vbase.offset.ptr.i316, align 8
  %add.ptr.i318 = getelementptr inbounds i8, ptr %call20, i64 %vbase.offset.i317
  %_M_ctype.i.i319 = getelementptr inbounds %"class.std::basic_ios", ptr %add.ptr.i318, i64 0, i32 5
  %27 = load ptr, ptr %_M_ctype.i.i319, align 8, !tbaa !8
  %tobool.not.i.i.i320 = icmp eq ptr %27, null
  br i1 %tobool.not.i.i.i320, label %if.then.i.i.i321, label %_ZSt13__check_facetISt5ctypeIcEERKT_PS3_.exit.i.i324

if.then.i.i.i321:                                 ; preds = %_ZSt4endlIcSt11char_traitsIcEERSt13basic_ostreamIT_T0_ES6_.exit314
  tail call void @_ZSt16__throw_bad_castv() #22
  unreachable

_ZSt13__check_facetISt5ctypeIcEERKT_PS3_.exit.i.i324: ; preds = %_ZSt4endlIcSt11char_traitsIcEERSt13basic_ostreamIT_T0_ES6_.exit314
  %_M_widen_ok.i.i.i322 = getelementptr inbounds %"class.std::ctype", ptr %27, i64 0, i32 8
  %28 = load i8, ptr %_M_widen_ok.i.i.i322, align 8, !tbaa !20
  %tobool.not.i3.i.i323 = icmp eq i8 %28, 0
  br i1 %tobool.not.i3.i.i323, label %if.end.i.i.i330, label %if.then.i4.i.i326

if.then.i4.i.i326:                                ; preds = %_ZSt13__check_facetISt5ctypeIcEERKT_PS3_.exit.i.i324
  %arrayidx.i.i.i325 = getelementptr inbounds %"class.std::ctype", ptr %27, i64 0, i32 9, i64 10
  %29 = load i8, ptr %arrayidx.i.i.i325, align 1, !tbaa !23
  br label %_ZSt4endlIcSt11char_traitsIcEERSt13basic_ostreamIT_T0_ES6_.exit334

if.end.i.i.i330:                                  ; preds = %_ZSt13__check_facetISt5ctypeIcEERKT_PS3_.exit.i.i324
  tail call void @_ZNKSt5ctypeIcE13_M_widen_initEv(ptr noundef nonnull align 8 dereferenceable(570) %27)
  %vtable.i.i.i327 = load ptr, ptr %27, align 8, !tbaa !5
  %vfn.i.i.i328 = getelementptr inbounds ptr, ptr %vtable.i.i.i327, i64 6
  %30 = load ptr, ptr %vfn.i.i.i328, align 8
  %call.i.i.i329 = tail call noundef signext i8 %30(ptr noundef nonnull align 8 dereferenceable(570) %27, i8 noundef signext 10)
  br label %_ZSt4endlIcSt11char_traitsIcEERSt13basic_ostreamIT_T0_ES6_.exit334

_ZSt4endlIcSt11char_traitsIcEERSt13basic_ostreamIT_T0_ES6_.exit334: ; preds = %if.then.i4.i.i326, %if.end.i.i.i330
  %retval.0.i.i.i331 = phi i8 [ %29, %if.then.i4.i.i326 ], [ %call.i.i.i329, %if.end.i.i.i330 ]
  %call1.i332 = tail call noundef nonnull align 8 dereferenceable(8) ptr @_ZNSo3putEc(ptr noundef nonnull align 8 dereferenceable(8) %call20, i8 noundef signext %retval.0.i.i.i331)
  %call.i.i333 = tail call noundef nonnull align 8 dereferenceable(8) ptr @_ZNSo5flushEv(ptr noundef nonnull align 8 dereferenceable(8) %call1.i332)
  %call1.i168 = tail call noundef nonnull align 8 dereferenceable(8) ptr @_ZSt16__ostream_insertIcSt11char_traitsIcEERSt13basic_ostreamIT_T0_ES6_PKS3_l(ptr noundef nonnull align 8 dereferenceable(8) %os, ptr noundef nonnull @.str.6, i64 noundef 23)
  %31 = load ptr, ptr %samples_per_pass, align 8, !tbaa !46
  %add.ptr.i169 = getelementptr inbounds i32, ptr %31, i64 %conv580
  %32 = load i32, ptr %add.ptr.i169, align 4, !tbaa !47
  %call25 = tail call noundef nonnull align 8 dereferenceable(8) ptr @_ZNSolsEi(ptr noundef nonnull align 8 dereferenceable(8) %os, i32 noundef %32)
  %vtable.i335 = load ptr, ptr %call25, align 8, !tbaa !5
  %vbase.offset.ptr.i336 = getelementptr i8, ptr %vtable.i335, i64 -24
  %vbase.offset.i337 = load i64, ptr %vbase.offset.ptr.i336, align 8
  %add.ptr.i338 = getelementptr inbounds i8, ptr %call25, i64 %vbase.offset.i337
  %_M_ctype.i.i339 = getelementptr inbounds %"class.std::basic_ios", ptr %add.ptr.i338, i64 0, i32 5
  %33 = load ptr, ptr %_M_ctype.i.i339, align 8, !tbaa !8
  %tobool.not.i.i.i340 = icmp eq ptr %33, null
  br i1 %tobool.not.i.i.i340, label %if.then.i.i.i341, label %_ZSt13__check_facetISt5ctypeIcEERKT_PS3_.exit.i.i344

if.then.i.i.i341:                                 ; preds = %_ZSt4endlIcSt11char_traitsIcEERSt13basic_ostreamIT_T0_ES6_.exit334
  tail call void @_ZSt16__throw_bad_castv() #22
  unreachable

_ZSt13__check_facetISt5ctypeIcEERKT_PS3_.exit.i.i344: ; preds = %_ZSt4endlIcSt11char_traitsIcEERSt13basic_ostreamIT_T0_ES6_.exit334
  %_M_widen_ok.i.i.i342 = getelementptr inbounds %"class.std::ctype", ptr %33, i64 0, i32 8
  %34 = load i8, ptr %_M_widen_ok.i.i.i342, align 8, !tbaa !20
  %tobool.not.i3.i.i343 = icmp eq i8 %34, 0
  br i1 %tobool.not.i3.i.i343, label %if.end.i.i.i350, label %if.then.i4.i.i346

if.then.i4.i.i346:                                ; preds = %_ZSt13__check_facetISt5ctypeIcEERKT_PS3_.exit.i.i344
  %arrayidx.i.i.i345 = getelementptr inbounds %"class.std::ctype", ptr %33, i64 0, i32 9, i64 10
  %35 = load i8, ptr %arrayidx.i.i.i345, align 1, !tbaa !23
  br label %_ZSt4endlIcSt11char_traitsIcEERSt13basic_ostreamIT_T0_ES6_.exit354

if.end.i.i.i350:                                  ; preds = %_ZSt13__check_facetISt5ctypeIcEERKT_PS3_.exit.i.i344
  tail call void @_ZNKSt5ctypeIcE13_M_widen_initEv(ptr noundef nonnull align 8 dereferenceable(570) %33)
  %vtable.i.i.i347 = load ptr, ptr %33, align 8, !tbaa !5
  %vfn.i.i.i348 = getelementptr inbounds ptr, ptr %vtable.i.i.i347, i64 6
  %36 = load ptr, ptr %vfn.i.i.i348, align 8
  %call.i.i.i349 = tail call noundef signext i8 %36(ptr noundef nonnull align 8 dereferenceable(570) %33, i8 noundef signext 10)
  br label %_ZSt4endlIcSt11char_traitsIcEERSt13basic_ostreamIT_T0_ES6_.exit354

_ZSt4endlIcSt11char_traitsIcEERSt13basic_ostreamIT_T0_ES6_.exit354: ; preds = %if.then.i4.i.i346, %if.end.i.i.i350
  %retval.0.i.i.i351 = phi i8 [ %35, %if.then.i4.i.i346 ], [ %call.i.i.i349, %if.end.i.i.i350 ]
  %call1.i352 = tail call noundef nonnull align 8 dereferenceable(8) ptr @_ZNSo3putEc(ptr noundef nonnull align 8 dereferenceable(8) %call25, i8 noundef signext %retval.0.i.i.i351)
  %call.i.i353 = tail call noundef nonnull align 8 dereferenceable(8) ptr @_ZNSo5flushEv(ptr noundef nonnull align 8 dereferenceable(8) %call1.i352)
  %call1.i172 = tail call noundef nonnull align 8 dereferenceable(8) ptr @_ZSt16__ostream_insertIcSt11char_traitsIcEERSt13basic_ostreamIT_T0_ES6_PKS3_l(ptr noundef nonnull align 8 dereferenceable(8) %os, ptr noundef nonnull @.str.7, i64 noundef 21)
  %37 = load ptr, ptr %loop_run_count, align 8, !tbaa !48
  %add.ptr.i173 = getelementptr inbounds i64, ptr %37, i64 %conv580
  %38 = load i64, ptr %add.ptr.i173, align 8, !tbaa !49
  %call.i174 = tail call noundef nonnull align 8 dereferenceable(8) ptr @_ZNSo9_M_insertImEERSoT_(ptr noundef nonnull align 8 dereferenceable(8) %os, i64 noundef %38)
  %vtable.i355 = load ptr, ptr %call.i174, align 8, !tbaa !5
  %vbase.offset.ptr.i356 = getelementptr i8, ptr %vtable.i355, i64 -24
  %vbase.offset.i357 = load i64, ptr %vbase.offset.ptr.i356, align 8
  %add.ptr.i358 = getelementptr inbounds i8, ptr %call.i174, i64 %vbase.offset.i357
  %_M_ctype.i.i359 = getelementptr inbounds %"class.std::basic_ios", ptr %add.ptr.i358, i64 0, i32 5
  %39 = load ptr, ptr %_M_ctype.i.i359, align 8, !tbaa !8
  %tobool.not.i.i.i360 = icmp eq ptr %39, null
  br i1 %tobool.not.i.i.i360, label %if.then.i.i.i361, label %_ZSt13__check_facetISt5ctypeIcEERKT_PS3_.exit.i.i364

if.then.i.i.i361:                                 ; preds = %_ZSt4endlIcSt11char_traitsIcEERSt13basic_ostreamIT_T0_ES6_.exit354
  tail call void @_ZSt16__throw_bad_castv() #22
  unreachable

_ZSt13__check_facetISt5ctypeIcEERKT_PS3_.exit.i.i364: ; preds = %_ZSt4endlIcSt11char_traitsIcEERSt13basic_ostreamIT_T0_ES6_.exit354
  %_M_widen_ok.i.i.i362 = getelementptr inbounds %"class.std::ctype", ptr %39, i64 0, i32 8
  %40 = load i8, ptr %_M_widen_ok.i.i.i362, align 8, !tbaa !20
  %tobool.not.i3.i.i363 = icmp eq i8 %40, 0
  br i1 %tobool.not.i3.i.i363, label %if.end.i.i.i370, label %if.then.i4.i.i366

if.then.i4.i.i366:                                ; preds = %_ZSt13__check_facetISt5ctypeIcEERKT_PS3_.exit.i.i364
  %arrayidx.i.i.i365 = getelementptr inbounds %"class.std::ctype", ptr %39, i64 0, i32 9, i64 10
  %41 = load i8, ptr %arrayidx.i.i.i365, align 1, !tbaa !23
  br label %_ZSt4endlIcSt11char_traitsIcEERSt13basic_ostreamIT_T0_ES6_.exit374

if.end.i.i.i370:                                  ; preds = %_ZSt13__check_facetISt5ctypeIcEERKT_PS3_.exit.i.i364
  tail call void @_ZNKSt5ctypeIcE13_M_widen_initEv(ptr noundef nonnull align 8 dereferenceable(570) %39)
  %vtable.i.i.i367 = load ptr, ptr %39, align 8, !tbaa !5
  %vfn.i.i.i368 = getelementptr inbounds ptr, ptr %vtable.i.i.i367, i64 6
  %42 = load ptr, ptr %vfn.i.i.i368, align 8
  %call.i.i.i369 = tail call noundef signext i8 %42(ptr noundef nonnull align 8 dereferenceable(570) %39, i8 noundef signext 10)
  br label %_ZSt4endlIcSt11char_traitsIcEERSt13basic_ostreamIT_T0_ES6_.exit374

_ZSt4endlIcSt11char_traitsIcEERSt13basic_ostreamIT_T0_ES6_.exit374: ; preds = %if.then.i4.i.i366, %if.end.i.i.i370
  %retval.0.i.i.i371 = phi i8 [ %41, %if.then.i4.i.i366 ], [ %call.i.i.i369, %if.end.i.i.i370 ]
  %call1.i372 = tail call noundef nonnull align 8 dereferenceable(8) ptr @_ZNSo3putEc(ptr noundef nonnull align 8 dereferenceable(8) %call.i174, i8 noundef signext %retval.0.i.i.i371)
  %call.i.i373 = tail call noundef nonnull align 8 dereferenceable(8) ptr @_ZNSo5flushEv(ptr noundef nonnull align 8 dereferenceable(8) %call1.i372)
  %43 = load ptr, ptr %loop_run_count, align 8, !tbaa !48
  %add.ptr.i176 = getelementptr inbounds i64, ptr %43, i64 %conv580
  %44 = load i64, ptr %add.ptr.i176, align 8, !tbaa !49
  %cmp35.not = icmp eq i64 %44, 0
  br i1 %cmp35.not, label %for.inc104, label %for.cond36.preheader

for.cond36.preheader:                             ; preds = %_ZSt4endlIcSt11char_traitsIcEERSt13basic_ostreamIT_T0_ES6_.exit374
  %45 = load ptr, ptr %loop_run_time, align 8, !tbaa !50
  %add.ptr.i177556 = getelementptr inbounds %"class.std::vector.0", ptr %45, i64 %conv580
  %_M_finish.i178557 = getelementptr inbounds %"struct.std::_Vector_base<long double, std::allocator<long double>>::_Vector_impl_data", ptr %add.ptr.i177556, i64 0, i32 1
  %46 = load ptr, ptr %_M_finish.i178557, align 8, !tbaa !51
  %47 = load ptr, ptr %add.ptr.i177556, align 8, !tbaa !52
  %cmp41562.not = icmp eq ptr %46, %47
  br i1 %cmp41562.not, label %for.cond.cleanup42, label %for.body43

for.cond.cleanup42:                               ; preds = %_ZSt4endlIcSt11char_traitsIcEERSt13basic_ostreamIT_T0_ES6_.exit534, %for.cond36.preheader
  %call1.i184 = tail call noundef nonnull align 8 dereferenceable(8) ptr @_ZSt16__ostream_insertIcSt11char_traitsIcEERSt13basic_ostreamIT_T0_ES6_PKS3_l(ptr noundef nonnull align 8 dereferenceable(8) %os, ptr noundef nonnull @.str.9, i64 noundef 12)
  %48 = load ptr, ptr %mean, align 8, !tbaa !52
  %add.ptr.i185 = getelementptr inbounds x86_fp80, ptr %48, i64 %conv580
  %49 = load x86_fp80, ptr %add.ptr.i185, align 16, !tbaa !53
  %call.i186 = tail call noundef nonnull align 8 dereferenceable(8) ptr @_ZNSo9_M_insertIeEERSoT_(ptr noundef nonnull align 8 dereferenceable(8) %os, x86_fp80 noundef %49)
  %vtable.i375 = load ptr, ptr %call.i186, align 8, !tbaa !5
  %vbase.offset.ptr.i376 = getelementptr i8, ptr %vtable.i375, i64 -24
  %vbase.offset.i377 = load i64, ptr %vbase.offset.ptr.i376, align 8
  %add.ptr.i378 = getelementptr inbounds i8, ptr %call.i186, i64 %vbase.offset.i377
  %_M_ctype.i.i379 = getelementptr inbounds %"class.std::basic_ios", ptr %add.ptr.i378, i64 0, i32 5
  %50 = load ptr, ptr %_M_ctype.i.i379, align 8, !tbaa !8
  %tobool.not.i.i.i380 = icmp eq ptr %50, null
  br i1 %tobool.not.i.i.i380, label %if.then.i.i.i381, label %_ZSt13__check_facetISt5ctypeIcEERKT_PS3_.exit.i.i384

if.then.i.i.i381:                                 ; preds = %for.cond.cleanup42
  tail call void @_ZSt16__throw_bad_castv() #22
  unreachable

_ZSt13__check_facetISt5ctypeIcEERKT_PS3_.exit.i.i384: ; preds = %for.cond.cleanup42
  %_M_widen_ok.i.i.i382 = getelementptr inbounds %"class.std::ctype", ptr %50, i64 0, i32 8
  %51 = load i8, ptr %_M_widen_ok.i.i.i382, align 8, !tbaa !20
  %tobool.not.i3.i.i383 = icmp eq i8 %51, 0
  br i1 %tobool.not.i3.i.i383, label %if.end.i.i.i390, label %if.then.i4.i.i386

if.then.i4.i.i386:                                ; preds = %_ZSt13__check_facetISt5ctypeIcEERKT_PS3_.exit.i.i384
  %arrayidx.i.i.i385 = getelementptr inbounds %"class.std::ctype", ptr %50, i64 0, i32 9, i64 10
  %52 = load i8, ptr %arrayidx.i.i.i385, align 1, !tbaa !23
  br label %_ZSt4endlIcSt11char_traitsIcEERSt13basic_ostreamIT_T0_ES6_.exit394

if.end.i.i.i390:                                  ; preds = %_ZSt13__check_facetISt5ctypeIcEERKT_PS3_.exit.i.i384
  tail call void @_ZNKSt5ctypeIcE13_M_widen_initEv(ptr noundef nonnull align 8 dereferenceable(570) %50)
  %vtable.i.i.i387 = load ptr, ptr %50, align 8, !tbaa !5
  %vfn.i.i.i388 = getelementptr inbounds ptr, ptr %vtable.i.i.i387, i64 6
  %53 = load ptr, ptr %vfn.i.i.i388, align 8
  %call.i.i.i389 = tail call noundef signext i8 %53(ptr noundef nonnull align 8 dereferenceable(570) %50, i8 noundef signext 10)
  br label %_ZSt4endlIcSt11char_traitsIcEERSt13basic_ostreamIT_T0_ES6_.exit394

_ZSt4endlIcSt11char_traitsIcEERSt13basic_ostreamIT_T0_ES6_.exit394: ; preds = %if.then.i4.i.i386, %if.end.i.i.i390
  %retval.0.i.i.i391 = phi i8 [ %52, %if.then.i4.i.i386 ], [ %call.i.i.i389, %if.end.i.i.i390 ]
  %call1.i392 = tail call noundef nonnull align 8 dereferenceable(8) ptr @_ZNSo3putEc(ptr noundef nonnull align 8 dereferenceable(8) %call.i186, i8 noundef signext %retval.0.i.i.i391)
  %call.i.i393 = tail call noundef nonnull align 8 dereferenceable(8) ptr @_ZNSo5flushEv(ptr noundef nonnull align 8 dereferenceable(8) %call1.i392)
  %call1.i189 = tail call noundef nonnull align 8 dereferenceable(8) ptr @_ZSt16__ostream_insertIcSt11char_traitsIcEERSt13basic_ostreamIT_T0_ES6_PKS3_l(ptr noundef nonnull align 8 dereferenceable(8) %os, ptr noundef nonnull @.str.10, i64 noundef 15)
  %54 = load ptr, ptr %std_dev, align 8, !tbaa !52
  %add.ptr.i190 = getelementptr inbounds x86_fp80, ptr %54, i64 %conv580
  %55 = load x86_fp80, ptr %add.ptr.i190, align 16, !tbaa !53
  %call.i191 = tail call noundef nonnull align 8 dereferenceable(8) ptr @_ZNSo9_M_insertIeEERSoT_(ptr noundef nonnull align 8 dereferenceable(8) %os, x86_fp80 noundef %55)
  %vtable.i395 = load ptr, ptr %call.i191, align 8, !tbaa !5
  %vbase.offset.ptr.i396 = getelementptr i8, ptr %vtable.i395, i64 -24
  %vbase.offset.i397 = load i64, ptr %vbase.offset.ptr.i396, align 8
  %add.ptr.i398 = getelementptr inbounds i8, ptr %call.i191, i64 %vbase.offset.i397
  %_M_ctype.i.i399 = getelementptr inbounds %"class.std::basic_ios", ptr %add.ptr.i398, i64 0, i32 5
  %56 = load ptr, ptr %_M_ctype.i.i399, align 8, !tbaa !8
  %tobool.not.i.i.i400 = icmp eq ptr %56, null
  br i1 %tobool.not.i.i.i400, label %if.then.i.i.i401, label %_ZSt13__check_facetISt5ctypeIcEERKT_PS3_.exit.i.i404

if.then.i.i.i401:                                 ; preds = %_ZSt4endlIcSt11char_traitsIcEERSt13basic_ostreamIT_T0_ES6_.exit394
  tail call void @_ZSt16__throw_bad_castv() #22
  unreachable

_ZSt13__check_facetISt5ctypeIcEERKT_PS3_.exit.i.i404: ; preds = %_ZSt4endlIcSt11char_traitsIcEERSt13basic_ostreamIT_T0_ES6_.exit394
  %_M_widen_ok.i.i.i402 = getelementptr inbounds %"class.std::ctype", ptr %56, i64 0, i32 8
  %57 = load i8, ptr %_M_widen_ok.i.i.i402, align 8, !tbaa !20
  %tobool.not.i3.i.i403 = icmp eq i8 %57, 0
  br i1 %tobool.not.i3.i.i403, label %if.end.i.i.i410, label %if.then.i4.i.i406

if.then.i4.i.i406:                                ; preds = %_ZSt13__check_facetISt5ctypeIcEERKT_PS3_.exit.i.i404
  %arrayidx.i.i.i405 = getelementptr inbounds %"class.std::ctype", ptr %56, i64 0, i32 9, i64 10
  %58 = load i8, ptr %arrayidx.i.i.i405, align 1, !tbaa !23
  br label %_ZSt4endlIcSt11char_traitsIcEERSt13basic_ostreamIT_T0_ES6_.exit414

if.end.i.i.i410:                                  ; preds = %_ZSt13__check_facetISt5ctypeIcEERKT_PS3_.exit.i.i404
  tail call void @_ZNKSt5ctypeIcE13_M_widen_initEv(ptr noundef nonnull align 8 dereferenceable(570) %56)
  %vtable.i.i.i407 = load ptr, ptr %56, align 8, !tbaa !5
  %vfn.i.i.i408 = getelementptr inbounds ptr, ptr %vtable.i.i.i407, i64 6
  %59 = load ptr, ptr %vfn.i.i.i408, align 8
  %call.i.i.i409 = tail call noundef signext i8 %59(ptr noundef nonnull align 8 dereferenceable(570) %56, i8 noundef signext 10)
  br label %_ZSt4endlIcSt11char_traitsIcEERSt13basic_ostreamIT_T0_ES6_.exit414

_ZSt4endlIcSt11char_traitsIcEERSt13basic_ostreamIT_T0_ES6_.exit414: ; preds = %if.then.i4.i.i406, %if.end.i.i.i410
  %retval.0.i.i.i411 = phi i8 [ %58, %if.then.i4.i.i406 ], [ %call.i.i.i409, %if.end.i.i.i410 ]
  %call1.i412 = tail call noundef nonnull align 8 dereferenceable(8) ptr @_ZNSo3putEc(ptr noundef nonnull align 8 dereferenceable(8) %call.i191, i8 noundef signext %retval.0.i.i.i411)
  %call.i.i413 = tail call noundef nonnull align 8 dereferenceable(8) ptr @_ZNSo5flushEv(ptr noundef nonnull align 8 dereferenceable(8) %call1.i412)
  %call1.i194 = tail call noundef nonnull align 8 dereferenceable(8) ptr @_ZSt16__ostream_insertIcSt11char_traitsIcEERSt13basic_ostreamIT_T0_ES6_PKS3_l(ptr noundef nonnull align 8 dereferenceable(8) %os, ptr noundef nonnull @.str.11, i64 noundef 11)
  %60 = load ptr, ptr %min, align 8, !tbaa !52
  %add.ptr.i195 = getelementptr inbounds x86_fp80, ptr %60, i64 %conv580
  %61 = load x86_fp80, ptr %add.ptr.i195, align 16, !tbaa !53
  %call.i196 = tail call noundef nonnull align 8 dereferenceable(8) ptr @_ZNSo9_M_insertIeEERSoT_(ptr noundef nonnull align 8 dereferenceable(8) %os, x86_fp80 noundef %61)
  %vtable.i415 = load ptr, ptr %call.i196, align 8, !tbaa !5
  %vbase.offset.ptr.i416 = getelementptr i8, ptr %vtable.i415, i64 -24
  %vbase.offset.i417 = load i64, ptr %vbase.offset.ptr.i416, align 8
  %add.ptr.i418 = getelementptr inbounds i8, ptr %call.i196, i64 %vbase.offset.i417
  %_M_ctype.i.i419 = getelementptr inbounds %"class.std::basic_ios", ptr %add.ptr.i418, i64 0, i32 5
  %62 = load ptr, ptr %_M_ctype.i.i419, align 8, !tbaa !8
  %tobool.not.i.i.i420 = icmp eq ptr %62, null
  br i1 %tobool.not.i.i.i420, label %if.then.i.i.i421, label %_ZSt13__check_facetISt5ctypeIcEERKT_PS3_.exit.i.i424

if.then.i.i.i421:                                 ; preds = %_ZSt4endlIcSt11char_traitsIcEERSt13basic_ostreamIT_T0_ES6_.exit414
  tail call void @_ZSt16__throw_bad_castv() #22
  unreachable

_ZSt13__check_facetISt5ctypeIcEERKT_PS3_.exit.i.i424: ; preds = %_ZSt4endlIcSt11char_traitsIcEERSt13basic_ostreamIT_T0_ES6_.exit414
  %_M_widen_ok.i.i.i422 = getelementptr inbounds %"class.std::ctype", ptr %62, i64 0, i32 8
  %63 = load i8, ptr %_M_widen_ok.i.i.i422, align 8, !tbaa !20
  %tobool.not.i3.i.i423 = icmp eq i8 %63, 0
  br i1 %tobool.not.i3.i.i423, label %if.end.i.i.i430, label %if.then.i4.i.i426

if.then.i4.i.i426:                                ; preds = %_ZSt13__check_facetISt5ctypeIcEERKT_PS3_.exit.i.i424
  %arrayidx.i.i.i425 = getelementptr inbounds %"class.std::ctype", ptr %62, i64 0, i32 9, i64 10
  %64 = load i8, ptr %arrayidx.i.i.i425, align 1, !tbaa !23
  br label %_ZSt4endlIcSt11char_traitsIcEERSt13basic_ostreamIT_T0_ES6_.exit434

if.end.i.i.i430:                                  ; preds = %_ZSt13__check_facetISt5ctypeIcEERKT_PS3_.exit.i.i424
  tail call void @_ZNKSt5ctypeIcE13_M_widen_initEv(ptr noundef nonnull align 8 dereferenceable(570) %62)
  %vtable.i.i.i427 = load ptr, ptr %62, align 8, !tbaa !5
  %vfn.i.i.i428 = getelementptr inbounds ptr, ptr %vtable.i.i.i427, i64 6
  %65 = load ptr, ptr %vfn.i.i.i428, align 8
  %call.i.i.i429 = tail call noundef signext i8 %65(ptr noundef nonnull align 8 dereferenceable(570) %62, i8 noundef signext 10)
  br label %_ZSt4endlIcSt11char_traitsIcEERSt13basic_ostreamIT_T0_ES6_.exit434

_ZSt4endlIcSt11char_traitsIcEERSt13basic_ostreamIT_T0_ES6_.exit434: ; preds = %if.then.i4.i.i426, %if.end.i.i.i430
  %retval.0.i.i.i431 = phi i8 [ %64, %if.then.i4.i.i426 ], [ %call.i.i.i429, %if.end.i.i.i430 ]
  %call1.i432 = tail call noundef nonnull align 8 dereferenceable(8) ptr @_ZNSo3putEc(ptr noundef nonnull align 8 dereferenceable(8) %call.i196, i8 noundef signext %retval.0.i.i.i431)
  %call.i.i433 = tail call noundef nonnull align 8 dereferenceable(8) ptr @_ZNSo5flushEv(ptr noundef nonnull align 8 dereferenceable(8) %call1.i432)
  %call1.i199 = tail call noundef nonnull align 8 dereferenceable(8) ptr @_ZSt16__ostream_insertIcSt11char_traitsIcEERSt13basic_ostreamIT_T0_ES6_PKS3_l(ptr noundef nonnull align 8 dereferenceable(8) %os, ptr noundef nonnull @.str.12, i64 noundef 11)
  %66 = load ptr, ptr %max, align 8, !tbaa !52
  %add.ptr.i200 = getelementptr inbounds x86_fp80, ptr %66, i64 %conv580
  %67 = load x86_fp80, ptr %add.ptr.i200, align 16, !tbaa !53
  %call.i201 = tail call noundef nonnull align 8 dereferenceable(8) ptr @_ZNSo9_M_insertIeEERSoT_(ptr noundef nonnull align 8 dereferenceable(8) %os, x86_fp80 noundef %67)
  %vtable.i435 = load ptr, ptr %call.i201, align 8, !tbaa !5
  %vbase.offset.ptr.i436 = getelementptr i8, ptr %vtable.i435, i64 -24
  %vbase.offset.i437 = load i64, ptr %vbase.offset.ptr.i436, align 8
  %add.ptr.i438 = getelementptr inbounds i8, ptr %call.i201, i64 %vbase.offset.i437
  %_M_ctype.i.i439 = getelementptr inbounds %"class.std::basic_ios", ptr %add.ptr.i438, i64 0, i32 5
  %68 = load ptr, ptr %_M_ctype.i.i439, align 8, !tbaa !8
  %tobool.not.i.i.i440 = icmp eq ptr %68, null
  br i1 %tobool.not.i.i.i440, label %if.then.i.i.i441, label %_ZSt13__check_facetISt5ctypeIcEERKT_PS3_.exit.i.i444

if.then.i.i.i441:                                 ; preds = %_ZSt4endlIcSt11char_traitsIcEERSt13basic_ostreamIT_T0_ES6_.exit434
  tail call void @_ZSt16__throw_bad_castv() #22
  unreachable

_ZSt13__check_facetISt5ctypeIcEERKT_PS3_.exit.i.i444: ; preds = %_ZSt4endlIcSt11char_traitsIcEERSt13basic_ostreamIT_T0_ES6_.exit434
  %_M_widen_ok.i.i.i442 = getelementptr inbounds %"class.std::ctype", ptr %68, i64 0, i32 8
  %69 = load i8, ptr %_M_widen_ok.i.i.i442, align 8, !tbaa !20
  %tobool.not.i3.i.i443 = icmp eq i8 %69, 0
  br i1 %tobool.not.i3.i.i443, label %if.end.i.i.i450, label %if.then.i4.i.i446

if.then.i4.i.i446:                                ; preds = %_ZSt13__check_facetISt5ctypeIcEERKT_PS3_.exit.i.i444
  %arrayidx.i.i.i445 = getelementptr inbounds %"class.std::ctype", ptr %68, i64 0, i32 9, i64 10
  %70 = load i8, ptr %arrayidx.i.i.i445, align 1, !tbaa !23
  br label %_ZSt4endlIcSt11char_traitsIcEERSt13basic_ostreamIT_T0_ES6_.exit454

if.end.i.i.i450:                                  ; preds = %_ZSt13__check_facetISt5ctypeIcEERKT_PS3_.exit.i.i444
  tail call void @_ZNKSt5ctypeIcE13_M_widen_initEv(ptr noundef nonnull align 8 dereferenceable(570) %68)
  %vtable.i.i.i447 = load ptr, ptr %68, align 8, !tbaa !5
  %vfn.i.i.i448 = getelementptr inbounds ptr, ptr %vtable.i.i.i447, i64 6
  %71 = load ptr, ptr %vfn.i.i.i448, align 8
  %call.i.i.i449 = tail call noundef signext i8 %71(ptr noundef nonnull align 8 dereferenceable(570) %68, i8 noundef signext 10)
  br label %_ZSt4endlIcSt11char_traitsIcEERSt13basic_ostreamIT_T0_ES6_.exit454

_ZSt4endlIcSt11char_traitsIcEERSt13basic_ostreamIT_T0_ES6_.exit454: ; preds = %if.then.i4.i.i446, %if.end.i.i.i450
  %retval.0.i.i.i451 = phi i8 [ %70, %if.then.i4.i.i446 ], [ %call.i.i.i449, %if.end.i.i.i450 ]
  %call1.i452 = tail call noundef nonnull align 8 dereferenceable(8) ptr @_ZNSo3putEc(ptr noundef nonnull align 8 dereferenceable(8) %call.i201, i8 noundef signext %retval.0.i.i.i451)
  %call.i.i453 = tail call noundef nonnull align 8 dereferenceable(8) ptr @_ZNSo5flushEv(ptr noundef nonnull align 8 dereferenceable(8) %call1.i452)
  %call1.i204 = tail call noundef nonnull align 8 dereferenceable(8) ptr @_ZSt16__ostream_insertIcSt11char_traitsIcEERSt13basic_ostreamIT_T0_ES6_PKS3_l(ptr noundef nonnull align 8 dereferenceable(8) %os, ptr noundef nonnull @.str.13, i64 noundef 17)
  %72 = load ptr, ptr %harm_mean, align 8, !tbaa !52
  %add.ptr.i205 = getelementptr inbounds x86_fp80, ptr %72, i64 %conv580
  %73 = load x86_fp80, ptr %add.ptr.i205, align 16, !tbaa !53
  %call.i206 = tail call noundef nonnull align 8 dereferenceable(8) ptr @_ZNSo9_M_insertIeEERSoT_(ptr noundef nonnull align 8 dereferenceable(8) %os, x86_fp80 noundef %73)
  %vtable.i455 = load ptr, ptr %call.i206, align 8, !tbaa !5
  %vbase.offset.ptr.i456 = getelementptr i8, ptr %vtable.i455, i64 -24
  %vbase.offset.i457 = load i64, ptr %vbase.offset.ptr.i456, align 8
  %add.ptr.i458 = getelementptr inbounds i8, ptr %call.i206, i64 %vbase.offset.i457
  %_M_ctype.i.i459 = getelementptr inbounds %"class.std::basic_ios", ptr %add.ptr.i458, i64 0, i32 5
  %74 = load ptr, ptr %_M_ctype.i.i459, align 8, !tbaa !8
  %tobool.not.i.i.i460 = icmp eq ptr %74, null
  br i1 %tobool.not.i.i.i460, label %if.then.i.i.i461, label %_ZSt13__check_facetISt5ctypeIcEERKT_PS3_.exit.i.i464

if.then.i.i.i461:                                 ; preds = %_ZSt4endlIcSt11char_traitsIcEERSt13basic_ostreamIT_T0_ES6_.exit454
  tail call void @_ZSt16__throw_bad_castv() #22
  unreachable

_ZSt13__check_facetISt5ctypeIcEERKT_PS3_.exit.i.i464: ; preds = %_ZSt4endlIcSt11char_traitsIcEERSt13basic_ostreamIT_T0_ES6_.exit454
  %_M_widen_ok.i.i.i462 = getelementptr inbounds %"class.std::ctype", ptr %74, i64 0, i32 8
  %75 = load i8, ptr %_M_widen_ok.i.i.i462, align 8, !tbaa !20
  %tobool.not.i3.i.i463 = icmp eq i8 %75, 0
  br i1 %tobool.not.i3.i.i463, label %if.end.i.i.i470, label %if.then.i4.i.i466

if.then.i4.i.i466:                                ; preds = %_ZSt13__check_facetISt5ctypeIcEERKT_PS3_.exit.i.i464
  %arrayidx.i.i.i465 = getelementptr inbounds %"class.std::ctype", ptr %74, i64 0, i32 9, i64 10
  %76 = load i8, ptr %arrayidx.i.i.i465, align 1, !tbaa !23
  br label %_ZSt4endlIcSt11char_traitsIcEERSt13basic_ostreamIT_T0_ES6_.exit474

if.end.i.i.i470:                                  ; preds = %_ZSt13__check_facetISt5ctypeIcEERKT_PS3_.exit.i.i464
  tail call void @_ZNKSt5ctypeIcE13_M_widen_initEv(ptr noundef nonnull align 8 dereferenceable(570) %74)
  %vtable.i.i.i467 = load ptr, ptr %74, align 8, !tbaa !5
  %vfn.i.i.i468 = getelementptr inbounds ptr, ptr %vtable.i.i.i467, i64 6
  %77 = load ptr, ptr %vfn.i.i.i468, align 8
  %call.i.i.i469 = tail call noundef signext i8 %77(ptr noundef nonnull align 8 dereferenceable(570) %74, i8 noundef signext 10)
  br label %_ZSt4endlIcSt11char_traitsIcEERSt13basic_ostreamIT_T0_ES6_.exit474

_ZSt4endlIcSt11char_traitsIcEERSt13basic_ostreamIT_T0_ES6_.exit474: ; preds = %if.then.i4.i.i466, %if.end.i.i.i470
  %retval.0.i.i.i471 = phi i8 [ %76, %if.then.i4.i.i466 ], [ %call.i.i.i469, %if.end.i.i.i470 ]
  %call1.i472 = tail call noundef nonnull align 8 dereferenceable(8) ptr @_ZNSo3putEc(ptr noundef nonnull align 8 dereferenceable(8) %call.i206, i8 noundef signext %retval.0.i.i.i471)
  %call.i.i473 = tail call noundef nonnull align 8 dereferenceable(8) ptr @_ZNSo5flushEv(ptr noundef nonnull align 8 dereferenceable(8) %call1.i472)
  %call1.i209 = tail call noundef nonnull align 8 dereferenceable(8) ptr @_ZSt16__ostream_insertIcSt11char_traitsIcEERSt13basic_ostreamIT_T0_ES6_PKS3_l(ptr noundef nonnull align 8 dereferenceable(8) %os, ptr noundef nonnull @.str.14, i64 noundef 19)
  %78 = load ptr, ptr %meanrel2ref, align 8, !tbaa !52
  %add.ptr.i210 = getelementptr inbounds x86_fp80, ptr %78, i64 %conv580
  %79 = load x86_fp80, ptr %add.ptr.i210, align 16, !tbaa !53
  %call.i211 = tail call noundef nonnull align 8 dereferenceable(8) ptr @_ZNSo9_M_insertIeEERSoT_(ptr noundef nonnull align 8 dereferenceable(8) %os, x86_fp80 noundef %79)
  %vtable.i475 = load ptr, ptr %call.i211, align 8, !tbaa !5
  %vbase.offset.ptr.i476 = getelementptr i8, ptr %vtable.i475, i64 -24
  %vbase.offset.i477 = load i64, ptr %vbase.offset.ptr.i476, align 8
  %add.ptr.i478 = getelementptr inbounds i8, ptr %call.i211, i64 %vbase.offset.i477
  %_M_ctype.i.i479 = getelementptr inbounds %"class.std::basic_ios", ptr %add.ptr.i478, i64 0, i32 5
  %80 = load ptr, ptr %_M_ctype.i.i479, align 8, !tbaa !8
  %tobool.not.i.i.i480 = icmp eq ptr %80, null
  br i1 %tobool.not.i.i.i480, label %if.then.i.i.i481, label %_ZSt13__check_facetISt5ctypeIcEERKT_PS3_.exit.i.i484

if.then.i.i.i481:                                 ; preds = %_ZSt4endlIcSt11char_traitsIcEERSt13basic_ostreamIT_T0_ES6_.exit474
  tail call void @_ZSt16__throw_bad_castv() #22
  unreachable

_ZSt13__check_facetISt5ctypeIcEERKT_PS3_.exit.i.i484: ; preds = %_ZSt4endlIcSt11char_traitsIcEERSt13basic_ostreamIT_T0_ES6_.exit474
  %_M_widen_ok.i.i.i482 = getelementptr inbounds %"class.std::ctype", ptr %80, i64 0, i32 8
  %81 = load i8, ptr %_M_widen_ok.i.i.i482, align 8, !tbaa !20
  %tobool.not.i3.i.i483 = icmp eq i8 %81, 0
  br i1 %tobool.not.i3.i.i483, label %if.end.i.i.i490, label %if.then.i4.i.i486

if.then.i4.i.i486:                                ; preds = %_ZSt13__check_facetISt5ctypeIcEERKT_PS3_.exit.i.i484
  %arrayidx.i.i.i485 = getelementptr inbounds %"class.std::ctype", ptr %80, i64 0, i32 9, i64 10
  %82 = load i8, ptr %arrayidx.i.i.i485, align 1, !tbaa !23
  br label %_ZSt4endlIcSt11char_traitsIcEERSt13basic_ostreamIT_T0_ES6_.exit494

if.end.i.i.i490:                                  ; preds = %_ZSt13__check_facetISt5ctypeIcEERKT_PS3_.exit.i.i484
  tail call void @_ZNKSt5ctypeIcE13_M_widen_initEv(ptr noundef nonnull align 8 dereferenceable(570) %80)
  %vtable.i.i.i487 = load ptr, ptr %80, align 8, !tbaa !5
  %vfn.i.i.i488 = getelementptr inbounds ptr, ptr %vtable.i.i.i487, i64 6
  %83 = load ptr, ptr %vfn.i.i.i488, align 8
  %call.i.i.i489 = tail call noundef signext i8 %83(ptr noundef nonnull align 8 dereferenceable(570) %80, i8 noundef signext 10)
  br label %_ZSt4endlIcSt11char_traitsIcEERSt13basic_ostreamIT_T0_ES6_.exit494

_ZSt4endlIcSt11char_traitsIcEERSt13basic_ostreamIT_T0_ES6_.exit494: ; preds = %if.then.i4.i.i486, %if.end.i.i.i490
  %retval.0.i.i.i491 = phi i8 [ %82, %if.then.i4.i.i486 ], [ %call.i.i.i489, %if.end.i.i.i490 ]
  %call1.i492 = tail call noundef nonnull align 8 dereferenceable(8) ptr @_ZNSo3putEc(ptr noundef nonnull align 8 dereferenceable(8) %call.i211, i8 noundef signext %retval.0.i.i.i491)
  %call.i.i493 = tail call noundef nonnull align 8 dereferenceable(8) ptr @_ZNSo5flushEv(ptr noundef nonnull align 8 dereferenceable(8) %call1.i492)
  %vtable.i495 = load ptr, ptr %os, align 8, !tbaa !5
  %vbase.offset.ptr.i496 = getelementptr i8, ptr %vtable.i495, i64 -24
  %vbase.offset.i497 = load i64, ptr %vbase.offset.ptr.i496, align 8
  %gep = getelementptr i8, ptr %invariant.gep, i64 %vbase.offset.i497
  %84 = load ptr, ptr %gep, align 8, !tbaa !8
  %tobool.not.i.i.i500 = icmp eq ptr %84, null
  br i1 %tobool.not.i.i.i500, label %if.then.i.i.i501, label %_ZSt13__check_facetISt5ctypeIcEERKT_PS3_.exit.i.i504

if.then.i.i.i501:                                 ; preds = %_ZSt4endlIcSt11char_traitsIcEERSt13basic_ostreamIT_T0_ES6_.exit494
  tail call void @_ZSt16__throw_bad_castv() #22
  unreachable

_ZSt13__check_facetISt5ctypeIcEERKT_PS3_.exit.i.i504: ; preds = %_ZSt4endlIcSt11char_traitsIcEERSt13basic_ostreamIT_T0_ES6_.exit494
  %_M_widen_ok.i.i.i502 = getelementptr inbounds %"class.std::ctype", ptr %84, i64 0, i32 8
  %85 = load i8, ptr %_M_widen_ok.i.i.i502, align 8, !tbaa !20
  %tobool.not.i3.i.i503 = icmp eq i8 %85, 0
  br i1 %tobool.not.i3.i.i503, label %if.end.i.i.i510, label %if.then.i4.i.i506

if.then.i4.i.i506:                                ; preds = %_ZSt13__check_facetISt5ctypeIcEERKT_PS3_.exit.i.i504
  %arrayidx.i.i.i505 = getelementptr inbounds %"class.std::ctype", ptr %84, i64 0, i32 9, i64 10
  %86 = load i8, ptr %arrayidx.i.i.i505, align 1, !tbaa !23
  br label %_ZSt4endlIcSt11char_traitsIcEERSt13basic_ostreamIT_T0_ES6_.exit514

if.end.i.i.i510:                                  ; preds = %_ZSt13__check_facetISt5ctypeIcEERKT_PS3_.exit.i.i504
  tail call void @_ZNKSt5ctypeIcE13_M_widen_initEv(ptr noundef nonnull align 8 dereferenceable(570) %84)
  %vtable.i.i.i507 = load ptr, ptr %84, align 8, !tbaa !5
  %vfn.i.i.i508 = getelementptr inbounds ptr, ptr %vtable.i.i.i507, i64 6
  %87 = load ptr, ptr %vfn.i.i.i508, align 8
  %call.i.i.i509 = tail call noundef signext i8 %87(ptr noundef nonnull align 8 dereferenceable(570) %84, i8 noundef signext 10)
  br label %_ZSt4endlIcSt11char_traitsIcEERSt13basic_ostreamIT_T0_ES6_.exit514

_ZSt4endlIcSt11char_traitsIcEERSt13basic_ostreamIT_T0_ES6_.exit514: ; preds = %if.then.i4.i.i506, %if.end.i.i.i510
  %retval.0.i.i.i511 = phi i8 [ %86, %if.then.i4.i.i506 ], [ %call.i.i.i509, %if.end.i.i.i510 ]
  %call1.i512 = tail call noundef nonnull align 8 dereferenceable(8) ptr @_ZNSo3putEc(ptr noundef nonnull align 8 dereferenceable(8) %os, i8 noundef signext %retval.0.i.i.i511)
  %call.i.i513 = tail call noundef nonnull align 8 dereferenceable(8) ptr @_ZNSo5flushEv(ptr noundef nonnull align 8 dereferenceable(8) %call1.i512)
  %88 = load ptr, ptr %loop_run_time, align 8, !tbaa !50
  %add.ptr.i220565 = getelementptr inbounds %"class.std::vector.0", ptr %88, i64 %conv580
  %_M_finish.i221566 = getelementptr inbounds %"struct.std::_Vector_base<long double, std::allocator<long double>>::_Vector_impl_data", ptr %add.ptr.i220565, i64 0, i32 1
  %89 = load ptr, ptr %_M_finish.i221566, align 8, !tbaa !51
  %90 = load ptr, ptr %add.ptr.i220565, align 8, !tbaa !52
  %cmp90571.not = icmp eq ptr %89, %90
  br i1 %cmp90571.not, label %for.inc104, label %for.body92

for.body43:                                       ; preds = %for.cond36.preheader, %_ZSt4endlIcSt11char_traitsIcEERSt13basic_ostreamIT_T0_ES6_.exit534
  %conv37564 = phi i64 [ %conv37, %_ZSt4endlIcSt11char_traitsIcEERSt13basic_ostreamIT_T0_ES6_.exit534 ], [ 0, %for.cond36.preheader ]
  %call1.i215 = tail call noundef nonnull align 8 dereferenceable(8) ptr @_ZSt16__ostream_insertIcSt11char_traitsIcEERSt13basic_ostreamIT_T0_ES6_PKS3_l(ptr noundef nonnull align 8 dereferenceable(8) %os, ptr noundef nonnull @.str.8, i64 noundef 19)
  %91 = load ptr, ptr %loop_run_time, align 8, !tbaa !50
  %add.ptr.i216 = getelementptr inbounds %"class.std::vector.0", ptr %91, i64 %conv580
  %92 = load ptr, ptr %add.ptr.i216, align 8, !tbaa !52
  %add.ptr.i217 = getelementptr inbounds x86_fp80, ptr %92, i64 %conv37564
  %93 = load x86_fp80, ptr %add.ptr.i217, align 16, !tbaa !53
  %call.i218 = tail call noundef nonnull align 8 dereferenceable(8) ptr @_ZNSo9_M_insertIeEERSoT_(ptr noundef nonnull align 8 dereferenceable(8) %os, x86_fp80 noundef %93)
  %vtable.i515 = load ptr, ptr %call.i218, align 8, !tbaa !5
  %vbase.offset.ptr.i516 = getelementptr i8, ptr %vtable.i515, i64 -24
  %vbase.offset.i517 = load i64, ptr %vbase.offset.ptr.i516, align 8
  %add.ptr.i518 = getelementptr inbounds i8, ptr %call.i218, i64 %vbase.offset.i517
  %_M_ctype.i.i519 = getelementptr inbounds %"class.std::basic_ios", ptr %add.ptr.i518, i64 0, i32 5
  %94 = load ptr, ptr %_M_ctype.i.i519, align 8, !tbaa !8
  %tobool.not.i.i.i520 = icmp eq ptr %94, null
  br i1 %tobool.not.i.i.i520, label %if.then.i.i.i521, label %_ZSt13__check_facetISt5ctypeIcEERKT_PS3_.exit.i.i524

if.then.i.i.i521:                                 ; preds = %for.body43
  tail call void @_ZSt16__throw_bad_castv() #22
  unreachable

_ZSt13__check_facetISt5ctypeIcEERKT_PS3_.exit.i.i524: ; preds = %for.body43
  %_M_widen_ok.i.i.i522 = getelementptr inbounds %"class.std::ctype", ptr %94, i64 0, i32 8
  %95 = load i8, ptr %_M_widen_ok.i.i.i522, align 8, !tbaa !20
  %tobool.not.i3.i.i523 = icmp eq i8 %95, 0
  br i1 %tobool.not.i3.i.i523, label %if.end.i.i.i530, label %if.then.i4.i.i526

if.then.i4.i.i526:                                ; preds = %_ZSt13__check_facetISt5ctypeIcEERKT_PS3_.exit.i.i524
  %arrayidx.i.i.i525 = getelementptr inbounds %"class.std::ctype", ptr %94, i64 0, i32 9, i64 10
  %96 = load i8, ptr %arrayidx.i.i.i525, align 1, !tbaa !23
  br label %_ZSt4endlIcSt11char_traitsIcEERSt13basic_ostreamIT_T0_ES6_.exit534

if.end.i.i.i530:                                  ; preds = %_ZSt13__check_facetISt5ctypeIcEERKT_PS3_.exit.i.i524
  tail call void @_ZNKSt5ctypeIcE13_M_widen_initEv(ptr noundef nonnull align 8 dereferenceable(570) %94)
  %vtable.i.i.i527 = load ptr, ptr %94, align 8, !tbaa !5
  %vfn.i.i.i528 = getelementptr inbounds ptr, ptr %vtable.i.i.i527, i64 6
  %97 = load ptr, ptr %vfn.i.i.i528, align 8
  %call.i.i.i529 = tail call noundef signext i8 %97(ptr noundef nonnull align 8 dereferenceable(570) %94, i8 noundef signext 10)
  br label %_ZSt4endlIcSt11char_traitsIcEERSt13basic_ostreamIT_T0_ES6_.exit534

_ZSt4endlIcSt11char_traitsIcEERSt13basic_ostreamIT_T0_ES6_.exit534: ; preds = %if.then.i4.i.i526, %if.end.i.i.i530
  %retval.0.i.i.i531 = phi i8 [ %96, %if.then.i4.i.i526 ], [ %call.i.i.i529, %if.end.i.i.i530 ]
  %call1.i532 = tail call noundef nonnull align 8 dereferenceable(8) ptr @_ZNSo3putEc(ptr noundef nonnull align 8 dereferenceable(8) %call.i218, i8 noundef signext %retval.0.i.i.i531)
  %call.i.i533 = tail call noundef nonnull align 8 dereferenceable(8) ptr @_ZNSo5flushEv(ptr noundef nonnull align 8 dereferenceable(8) %call1.i532)
  %inc = add nuw nsw i64 %conv37564, 1
  %conv37 = and i64 %inc, 4294967295
  %98 = load ptr, ptr %loop_run_time, align 8, !tbaa !50
  %add.ptr.i177 = getelementptr inbounds %"class.std::vector.0", ptr %98, i64 %conv580
  %_M_finish.i178 = getelementptr inbounds %"struct.std::_Vector_base<long double, std::allocator<long double>>::_Vector_impl_data", ptr %add.ptr.i177, i64 0, i32 1
  %99 = load ptr, ptr %_M_finish.i178, align 8, !tbaa !51
  %100 = load ptr, ptr %add.ptr.i177, align 8, !tbaa !52
  %sub.ptr.lhs.cast.i179 = ptrtoint ptr %99 to i64
  %sub.ptr.rhs.cast.i180 = ptrtoint ptr %100 to i64
  %sub.ptr.sub.i181 = sub i64 %sub.ptr.lhs.cast.i179, %sub.ptr.rhs.cast.i180
  %sub.ptr.div.i182 = ashr exact i64 %sub.ptr.sub.i181, 4
  %cmp41 = icmp ugt i64 %sub.ptr.div.i182, %conv37
  br i1 %cmp41, label %for.body43, label %for.cond.cleanup42, !llvm.loop !55

for.body92:                                       ; preds = %_ZSt4endlIcSt11char_traitsIcEERSt13basic_ostreamIT_T0_ES6_.exit514, %_ZSt4endlIcSt11char_traitsIcEERSt13basic_ostreamIT_T0_ES6_.exit554
  %conv85573 = phi i64 [ %conv85, %_ZSt4endlIcSt11char_traitsIcEERSt13basic_ostreamIT_T0_ES6_.exit554 ], [ 0, %_ZSt4endlIcSt11char_traitsIcEERSt13basic_ostreamIT_T0_ES6_.exit514 ]
  %call1.i227 = tail call noundef nonnull align 8 dereferenceable(8) ptr @_ZSt16__ostream_insertIcSt11char_traitsIcEERSt13basic_ostreamIT_T0_ES6_PKS3_l(ptr noundef nonnull align 8 dereferenceable(8) %os, ptr noundef nonnull @.str.8, i64 noundef 19)
  %101 = load ptr, ptr %loop_run_time, align 8, !tbaa !50
  %add.ptr.i228 = getelementptr inbounds %"class.std::vector.0", ptr %101, i64 %conv580
  %102 = load ptr, ptr %add.ptr.i228, align 8, !tbaa !52
  %add.ptr.i229 = getelementptr inbounds x86_fp80, ptr %102, i64 %conv85573
  %103 = load x86_fp80, ptr %add.ptr.i229, align 16, !tbaa !53
  %call.i230 = tail call noundef nonnull align 8 dereferenceable(8) ptr @_ZNSo9_M_insertIeEERSoT_(ptr noundef nonnull align 8 dereferenceable(8) %os, x86_fp80 noundef %103)
  %vtable.i535 = load ptr, ptr %call.i230, align 8, !tbaa !5
  %vbase.offset.ptr.i536 = getelementptr i8, ptr %vtable.i535, i64 -24
  %vbase.offset.i537 = load i64, ptr %vbase.offset.ptr.i536, align 8
  %add.ptr.i538 = getelementptr inbounds i8, ptr %call.i230, i64 %vbase.offset.i537
  %_M_ctype.i.i539 = getelementptr inbounds %"class.std::basic_ios", ptr %add.ptr.i538, i64 0, i32 5
  %104 = load ptr, ptr %_M_ctype.i.i539, align 8, !tbaa !8
  %tobool.not.i.i.i540 = icmp eq ptr %104, null
  br i1 %tobool.not.i.i.i540, label %if.then.i.i.i541, label %_ZSt13__check_facetISt5ctypeIcEERKT_PS3_.exit.i.i544

if.then.i.i.i541:                                 ; preds = %for.body92
  tail call void @_ZSt16__throw_bad_castv() #22
  unreachable

_ZSt13__check_facetISt5ctypeIcEERKT_PS3_.exit.i.i544: ; preds = %for.body92
  %_M_widen_ok.i.i.i542 = getelementptr inbounds %"class.std::ctype", ptr %104, i64 0, i32 8
  %105 = load i8, ptr %_M_widen_ok.i.i.i542, align 8, !tbaa !20
  %tobool.not.i3.i.i543 = icmp eq i8 %105, 0
  br i1 %tobool.not.i3.i.i543, label %if.end.i.i.i550, label %if.then.i4.i.i546

if.then.i4.i.i546:                                ; preds = %_ZSt13__check_facetISt5ctypeIcEERKT_PS3_.exit.i.i544
  %arrayidx.i.i.i545 = getelementptr inbounds %"class.std::ctype", ptr %104, i64 0, i32 9, i64 10
  %106 = load i8, ptr %arrayidx.i.i.i545, align 1, !tbaa !23
  br label %_ZSt4endlIcSt11char_traitsIcEERSt13basic_ostreamIT_T0_ES6_.exit554

if.end.i.i.i550:                                  ; preds = %_ZSt13__check_facetISt5ctypeIcEERKT_PS3_.exit.i.i544
  tail call void @_ZNKSt5ctypeIcE13_M_widen_initEv(ptr noundef nonnull align 8 dereferenceable(570) %104)
  %vtable.i.i.i547 = load ptr, ptr %104, align 8, !tbaa !5
  %vfn.i.i.i548 = getelementptr inbounds ptr, ptr %vtable.i.i.i547, i64 6
  %107 = load ptr, ptr %vfn.i.i.i548, align 8
  %call.i.i.i549 = tail call noundef signext i8 %107(ptr noundef nonnull align 8 dereferenceable(570) %104, i8 noundef signext 10)
  br label %_ZSt4endlIcSt11char_traitsIcEERSt13basic_ostreamIT_T0_ES6_.exit554

_ZSt4endlIcSt11char_traitsIcEERSt13basic_ostreamIT_T0_ES6_.exit554: ; preds = %if.then.i4.i.i546, %if.end.i.i.i550
  %retval.0.i.i.i551 = phi i8 [ %106, %if.then.i4.i.i546 ], [ %call.i.i.i549, %if.end.i.i.i550 ]
  %call1.i552 = tail call noundef nonnull align 8 dereferenceable(8) ptr @_ZNSo3putEc(ptr noundef nonnull align 8 dereferenceable(8) %call.i230, i8 noundef signext %retval.0.i.i.i551)
  %call.i.i553 = tail call noundef nonnull align 8 dereferenceable(8) ptr @_ZNSo5flushEv(ptr noundef nonnull align 8 dereferenceable(8) %call1.i552)
  %inc102 = add nuw nsw i64 %conv85573, 1
  %conv85 = and i64 %inc102, 4294967295
  %108 = load ptr, ptr %loop_run_time, align 8, !tbaa !50
  %add.ptr.i220 = getelementptr inbounds %"class.std::vector.0", ptr %108, i64 %conv580
  %_M_finish.i221 = getelementptr inbounds %"struct.std::_Vector_base<long double, std::allocator<long double>>::_Vector_impl_data", ptr %add.ptr.i220, i64 0, i32 1
  %109 = load ptr, ptr %_M_finish.i221, align 8, !tbaa !51
  %110 = load ptr, ptr %add.ptr.i220, align 8, !tbaa !52
  %sub.ptr.lhs.cast.i222 = ptrtoint ptr %109 to i64
  %sub.ptr.rhs.cast.i223 = ptrtoint ptr %110 to i64
  %sub.ptr.sub.i224 = sub i64 %sub.ptr.lhs.cast.i222, %sub.ptr.rhs.cast.i223
  %sub.ptr.div.i225 = ashr exact i64 %sub.ptr.sub.i224, 4
  %cmp90 = icmp ugt i64 %sub.ptr.div.i225, %conv85
  br i1 %cmp90, label %for.body92, label %for.inc104, !llvm.loop !57

for.inc104:                                       ; preds = %_ZSt4endlIcSt11char_traitsIcEERSt13basic_ostreamIT_T0_ES6_.exit554, %_ZSt4endlIcSt11char_traitsIcEERSt13basic_ostreamIT_T0_ES6_.exit514, %_ZSt4endlIcSt11char_traitsIcEERSt13basic_ostreamIT_T0_ES6_.exit374
  %inc105 = add nuw nsw i64 %conv580, 1
  %conv = and i64 %inc105, 4294967295
  %111 = load ptr, ptr %_M_finish.i, align 8, !tbaa !45
  %112 = load ptr, ptr %loop_length, align 8, !tbaa !46
  %sub.ptr.lhs.cast.i153 = ptrtoint ptr %111 to i64
  %sub.ptr.rhs.cast.i154 = ptrtoint ptr %112 to i64
  %sub.ptr.sub.i155 = sub i64 %sub.ptr.lhs.cast.i153, %sub.ptr.rhs.cast.i154
  %sub.ptr.div.i156 = ashr exact i64 %sub.ptr.sub.i155, 2
  %cmp = icmp ugt i64 %sub.ptr.div.i156, %conv
  br i1 %cmp, label %for.body, label %for.cond.cleanup, !llvm.loop !58
}

; Function Attrs: mustprogress nocallback nofree nosync nounwind willreturn memory(argmem: readwrite)
declare void @llvm.lifetime.start.p0(i64 immarg, ptr nocapture) #4

declare noundef nonnull align 8 dereferenceable(8) ptr @_ZNSolsEi(ptr noundef nonnull align 8 dereferenceable(8), i32 noundef) local_unnamed_addr #0

; Function Attrs: mustprogress nocallback nofree nosync nounwind willreturn memory(argmem: readwrite)
declare void @llvm.lifetime.end.p0(i64 immarg, ptr nocapture) #4

; Function Attrs: mustprogress nofree norecurse nosync nounwind willreturn memory(read, argmem: none, inaccessiblemem: none) uwtable
define dso_local noundef nonnull align 16 dereferenceable(640) ptr @_Z19getLoopSuiteRunInfov() local_unnamed_addr #5 {
entry:
  %0 = load ptr, ptr @_ZL21s_loop_suite_run_info, align 8, !tbaa !59
  ret ptr %0
}

; Function Attrs: uwtable
define dso_local void @_Z24allocateLoopSuiteRunInfoRKNSt7__cxx1112basic_stringIcSt11char_traitsIcESaIcEEEjjjPbm(ptr noundef nonnull align 8 dereferenceable(32) %host_name, i32 noundef %num_loops, i32 noundef %num_loop_lengths, i32 noundef %num_suite_passes, ptr nocapture noundef readonly %run_loop_length, i64 noundef %cache_size) local_unnamed_addr #6 personality ptr @__gxx_personality_v0 {
entry:
  %0 = load ptr, ptr @_ZL21s_loop_suite_run_info, align 8, !tbaa !59
  %cmp = icmp eq ptr %0, null
  br i1 %cmp, label %invoke.cont, label %if.end

invoke.cont:                                      ; preds = %entry
  %call = tail call noalias noundef nonnull dereferenceable(640) ptr @_Znwm(i64 noundef 640) #23
  %1 = getelementptr inbounds %"class.std::__cxx11::basic_string", ptr %call, i64 0, i32 2
  store ptr %1, ptr %call, align 16, !tbaa !60
  %_M_string_length.i.i.i.i = getelementptr inbounds %"class.std::__cxx11::basic_string", ptr %call, i64 0, i32 1
  store i64 0, ptr %_M_string_length.i.i.i.i, align 8, !tbaa !62
  store i8 0, ptr %1, align 16, !tbaa !23
  %num_loops.i = getelementptr inbounds %class.LoopSuiteRunInfo, ptr %call, i64 0, i32 1
  store i32 0, ptr %num_loops.i, align 16, !tbaa !64
  %loop_names.i = getelementptr inbounds %class.LoopSuiteRunInfo, ptr %call, i64 0, i32 2
  %run_loop_length.i = getelementptr inbounds %class.LoopSuiteRunInfo, ptr %call, i64 0, i32 4
  store ptr null, ptr %run_loop_length.i, align 8, !tbaa !92
  %_M_offset.i.i.i.i.i.i.i = getelementptr inbounds %class.LoopSuiteRunInfo, ptr %call, i64 0, i32 4, i32 0, i32 0, i32 0, i32 0, i32 0, i32 1
  store i32 0, ptr %_M_offset.i.i.i.i.i.i.i, align 16, !tbaa !93
  %_M_finish.i.i.i.i.i = getelementptr inbounds %class.LoopSuiteRunInfo, ptr %call, i64 0, i32 4, i32 0, i32 0, i32 0, i32 1
  store ptr null, ptr %_M_finish.i.i.i.i.i, align 8, !tbaa !92
  %_M_offset.i.i3.i.i.i.i.i = getelementptr inbounds %class.LoopSuiteRunInfo, ptr %call, i64 0, i32 4, i32 0, i32 0, i32 0, i32 1, i32 0, i32 1
  store i32 0, ptr %_M_offset.i.i3.i.i.i.i.i, align 16, !tbaa !93
  %_M_end_of_storage.i.i.i.i.i = getelementptr inbounds %class.LoopSuiteRunInfo, ptr %call, i64 0, i32 4, i32 0, i32 0, i32 0, i32 2
  %loop_samp_frac.i = getelementptr inbounds %class.LoopSuiteRunInfo, ptr %call, i64 0, i32 7
  store double 0.000000e+00, ptr %loop_samp_frac.i, align 16, !tbaa !94
  %ref_loop_stat.i = getelementptr inbounds %class.LoopSuiteRunInfo, ptr %call, i64 0, i32 8
  store i8 0, ptr %ref_loop_stat.i, align 8, !tbaa !24
  %loop_weight.i.i = getelementptr inbounds %class.LoopSuiteRunInfo, ptr %call, i64 0, i32 8, i32 1
  %cache_flush_data_sum.i = getelementptr inbounds %class.LoopSuiteRunInfo, ptr %call, i64 0, i32 16
  store x86_fp80 0xK00000000000000000000, ptr %cache_flush_data_sum.i, align 16, !tbaa !95
  %2 = getelementptr inbounds %class.LoopSuiteRunInfo, ptr %call, i64 0, i32 17, i32 0, i32 0, i32 1
  store i32 0, ptr %2, align 8, !tbaa !96
  %_M_parent.i.i.i.i.i.i = getelementptr inbounds %class.LoopSuiteRunInfo, ptr %call, i64 0, i32 17, i32 0, i32 0, i32 1, i32 0, i32 1
  store ptr null, ptr %_M_parent.i.i.i.i.i.i, align 16, !tbaa !97
  %_M_left.i.i.i.i.i.i = getelementptr inbounds %class.LoopSuiteRunInfo, ptr %call, i64 0, i32 17, i32 0, i32 0, i32 1, i32 0, i32 2
  tail call void @llvm.memset.p0.i64(ptr noundef nonnull align 8 dereferenceable(28) %loop_names.i, i8 0, i64 28, i1 false)
  tail call void @llvm.memset.p0.i64(ptr noundef nonnull align 8 dereferenceable(36) %_M_end_of_storage.i.i.i.i.i, i8 0, i64 36, i1 false)
  tail call void @llvm.memset.p0.i64(ptr noundef nonnull align 16 dereferenceable(408) %loop_weight.i.i, i8 0, i64 408, i1 false)
  store ptr %2, ptr %_M_left.i.i.i.i.i.i, align 8, !tbaa !98
  %_M_right.i.i.i.i.i.i = getelementptr inbounds %class.LoopSuiteRunInfo, ptr %call, i64 0, i32 17, i32 0, i32 0, i32 1, i32 0, i32 3
  store ptr %2, ptr %_M_right.i.i.i.i.i.i, align 16, !tbaa !99
  %_M_node_count.i.i.i.i.i.i = getelementptr inbounds %class.LoopSuiteRunInfo, ptr %call, i64 0, i32 17, i32 0, i32 0, i32 1, i32 1
  store i64 0, ptr %_M_node_count.i.i.i.i.i.i, align 8, !tbaa !100
  store ptr %call, ptr @_ZL21s_loop_suite_run_info, align 8, !tbaa !59
  br label %if.end

if.end:                                           ; preds = %invoke.cont, %entry
  %3 = phi ptr [ %call, %invoke.cont ], [ %0, %entry ]
  tail call void @_ZNSt7__cxx1112basic_stringIcSt11char_traitsIcESaIcEE9_M_assignERKS4_(ptr noundef nonnull align 8 dereferenceable(32) %3, ptr noundef nonnull align 8 dereferenceable(32) %host_name)
  %4 = load ptr, ptr @_ZL21s_loop_suite_run_info, align 8, !tbaa !59
  %num_loops3 = getelementptr inbounds %class.LoopSuiteRunInfo, ptr %4, i64 0, i32 1
  store i32 %num_loops, ptr %num_loops3, align 16, !tbaa !64
  %num_loop_lengths4 = getelementptr inbounds %class.LoopSuiteRunInfo, ptr %4, i64 0, i32 3
  store i32 %num_loop_lengths, ptr %num_loop_lengths4, align 16, !tbaa !101
  %num_suite_passes5 = getelementptr inbounds %class.LoopSuiteRunInfo, ptr %4, i64 0, i32 6
  store i32 %num_suite_passes, ptr %num_suite_passes5, align 8, !tbaa !102
  %cmp628.not = icmp eq i32 %num_loop_lengths, 0
  br i1 %cmp628.not, label %for.cond.cleanup, label %for.body.preheader

for.body.preheader:                               ; preds = %if.end
  %wide.trip.count = zext i32 %num_loop_lengths to i64
  br label %for.body

for.cond.cleanup:                                 ; preds = %_ZNSt6vectorIbSaIbEE9push_backEb.exit, %if.end
  %5 = phi ptr [ %4, %if.end ], [ %15, %_ZNSt6vectorIbSaIbEE9push_backEb.exit ]
  %6 = lshr i64 %cache_size, 2
  %div27 = and i64 %6, 2305843009213693951
  %cache_flush_data_len = getelementptr inbounds %class.LoopSuiteRunInfo, ptr %5, i64 0, i32 14
  store i64 %div27, ptr %cache_flush_data_len, align 8, !tbaa !103
  %7 = shl nuw i64 %div27, 3
  %call9 = tail call noalias noundef nonnull ptr @_Znam(i64 noundef %7) #23
  %cache_flush_data = getelementptr inbounds %class.LoopSuiteRunInfo, ptr %5, i64 0, i32 15
  store ptr %call9, ptr %cache_flush_data, align 16, !tbaa !104
  %8 = load i64, ptr %cache_flush_data_len, align 8, !tbaa !103
  %cmp1231.not = icmp eq i64 %8, 0
  br i1 %cmp1231.not, label %for.cond.cleanup13, label %for.body14

for.body:                                         ; preds = %for.body.preheader, %_ZNSt6vectorIbSaIbEE9push_backEb.exit
  %9 = phi ptr [ %4, %for.body.preheader ], [ %15, %_ZNSt6vectorIbSaIbEE9push_backEb.exit ]
  %indvars.iv = phi i64 [ 0, %for.body.preheader ], [ %indvars.iv.next, %_ZNSt6vectorIbSaIbEE9push_backEb.exit ]
  %arrayidx = getelementptr inbounds i8, ptr %run_loop_length, i64 %indvars.iv
  %10 = load i8, ptr %arrayidx, align 1, !tbaa !105, !range !43, !noundef !44
  %tobool = icmp ne i8 %10, 0
  %_M_finish.i = getelementptr inbounds %class.LoopSuiteRunInfo, ptr %9, i64 0, i32 4, i32 0, i32 0, i32 0, i32 1
  %11 = load ptr, ptr %_M_finish.i, align 8
  %_M_end_of_storage.i.i = getelementptr inbounds %class.LoopSuiteRunInfo, ptr %9, i64 0, i32 4, i32 0, i32 0, i32 0, i32 2
  %12 = load ptr, ptr %_M_end_of_storage.i.i, align 8, !tbaa !106
  %cmp.not.i = icmp eq ptr %11, %12
  %retval.sroa.2.0._M_finish.sroa_idx.i.i = getelementptr inbounds %class.LoopSuiteRunInfo, ptr %9, i64 0, i32 4, i32 0, i32 0, i32 0, i32 1, i32 0, i32 1
  %retval.sroa.2.0.copyload.i15.i = load i32, ptr %retval.sroa.2.0._M_finish.sroa_idx.i.i, align 8
  br i1 %cmp.not.i, label %if.else.i, label %if.then.i

if.then.i:                                        ; preds = %for.body
  %inc.i.i.i = add i32 %retval.sroa.2.0.copyload.i15.i, 1
  store i32 %inc.i.i.i, ptr %retval.sroa.2.0._M_finish.sroa_idx.i.i, align 8, !tbaa !93
  %cmp.i.i.i = icmp eq i32 %retval.sroa.2.0.copyload.i15.i, 63
  br i1 %cmp.i.i.i, label %if.then.i.i.i, label %_ZNSt13_Bit_iteratorppEi.exit.i

if.then.i.i.i:                                    ; preds = %if.then.i
  store i32 0, ptr %retval.sroa.2.0._M_finish.sroa_idx.i.i, align 8, !tbaa !93
  %incdec.ptr.i.i.i = getelementptr inbounds i64, ptr %11, i64 1
  store ptr %incdec.ptr.i.i.i, ptr %_M_finish.i, align 8, !tbaa !92
  br label %_ZNSt13_Bit_iteratorppEi.exit.i

_ZNSt13_Bit_iteratorppEi.exit.i:                  ; preds = %if.then.i.i.i, %if.then.i
  %sh_prom.i.i = zext i32 %retval.sroa.2.0.copyload.i15.i to i64
  %shl.i.i = shl nuw i64 1, %sh_prom.i.i
  br i1 %tobool, label %if.then.i.i, label %if.else.i.i

if.then.i.i:                                      ; preds = %_ZNSt13_Bit_iteratorppEi.exit.i
  %13 = load i64, ptr %11, align 8, !tbaa !49
  %or.i.i = or i64 %13, %shl.i.i
  store i64 %or.i.i, ptr %11, align 8, !tbaa !49
  br label %_ZNSt6vectorIbSaIbEE9push_backEb.exit

if.else.i.i:                                      ; preds = %_ZNSt13_Bit_iteratorppEi.exit.i
  %not.i.i = xor i64 %shl.i.i, -1
  %14 = load i64, ptr %11, align 8, !tbaa !49
  %and.i.i = and i64 %14, %not.i.i
  store i64 %and.i.i, ptr %11, align 8, !tbaa !49
  br label %_ZNSt6vectorIbSaIbEE9push_backEb.exit

if.else.i:                                        ; preds = %for.body
  %run_loop_length7 = getelementptr inbounds %class.LoopSuiteRunInfo, ptr %9, i64 0, i32 4
  tail call void @_ZNSt6vectorIbSaIbEE13_M_insert_auxESt13_Bit_iteratorb(ptr noundef nonnull align 8 dereferenceable(40) %run_loop_length7, ptr %11, i32 %retval.sroa.2.0.copyload.i15.i, i1 noundef zeroext %tobool)
  %.pre = load ptr, ptr @_ZL21s_loop_suite_run_info, align 8, !tbaa !59
  br label %_ZNSt6vectorIbSaIbEE9push_backEb.exit

_ZNSt6vectorIbSaIbEE9push_backEb.exit:            ; preds = %if.then.i.i, %if.else.i.i, %if.else.i
  %15 = phi ptr [ %9, %if.then.i.i ], [ %9, %if.else.i.i ], [ %.pre, %if.else.i ]
  %indvars.iv.next = add nuw nsw i64 %indvars.iv, 1
  %exitcond.not = icmp eq i64 %indvars.iv.next, %wide.trip.count
  br i1 %exitcond.not, label %for.cond.cleanup, label %for.body, !llvm.loop !107

for.cond.cleanup13:                               ; preds = %for.body14, %for.cond.cleanup
  ret void

for.body14:                                       ; preds = %for.cond.cleanup, %for.body14
  %i.032 = phi i64 [ %inc19, %for.body14 ], [ 0, %for.cond.cleanup ]
  %call15 = tail call double @drand48() #24
  %add = fadd double %call15, 1.000000e-01
  %16 = load ptr, ptr @_ZL21s_loop_suite_run_info, align 8, !tbaa !59
  %cache_flush_data16 = getelementptr inbounds %class.LoopSuiteRunInfo, ptr %16, i64 0, i32 15
  %17 = load ptr, ptr %cache_flush_data16, align 16, !tbaa !104
  %arrayidx17 = getelementptr inbounds double, ptr %17, i64 %i.032
  store double %add, ptr %arrayidx17, align 8, !tbaa !108
  %inc19 = add nuw i64 %i.032, 1
  %cache_flush_data_len11 = getelementptr inbounds %class.LoopSuiteRunInfo, ptr %16, i64 0, i32 14
  %18 = load i64, ptr %cache_flush_data_len11, align 8, !tbaa !103
  %cmp12 = icmp ult i64 %inc19, %18
  br i1 %cmp12, label %for.body14, label %for.cond.cleanup13, !llvm.loop !109
}

; Function Attrs: nobuiltin allocsize(0)
declare noundef nonnull ptr @_Znwm(i64 noundef) local_unnamed_addr #7

declare i32 @__gxx_personality_v0(...)

; Function Attrs: nobuiltin nounwind
declare void @_ZdlPv(ptr noundef) local_unnamed_addr #8

; Function Attrs: nobuiltin allocsize(0)
declare noundef nonnull ptr @_Znam(i64 noundef) local_unnamed_addr #7

; Function Attrs: nounwind
declare double @drand48() local_unnamed_addr #1

; Function Attrs: mustprogress nounwind uwtable
define dso_local void @_Z20freeLoopSuiteRunInfov() local_unnamed_addr #9 {
entry:
  %0 = load ptr, ptr @_ZL21s_loop_suite_run_info, align 8, !tbaa !59
  %tobool.not = icmp eq ptr %0, null
  br i1 %tobool.not, label %if.end7, label %if.then

if.then:                                          ; preds = %entry
  %cache_flush_data = getelementptr inbounds %class.LoopSuiteRunInfo, ptr %0, i64 0, i32 15
  %1 = load ptr, ptr %cache_flush_data, align 16, !tbaa !104
  %tobool1.not = icmp eq ptr %1, null
  br i1 %tobool1.not, label %delete.notnull5, label %if.end

if.end:                                           ; preds = %if.then
  tail call void @_ZdaPv(ptr noundef nonnull %1) #25
  %.pre = load ptr, ptr @_ZL21s_loop_suite_run_info, align 8, !tbaa !59
  %isnull4 = icmp eq ptr %.pre, null
  br i1 %isnull4, label %delete.end6, label %delete.notnull5

delete.notnull5:                                  ; preds = %if.then, %if.end
  %2 = phi ptr [ %.pre, %if.end ], [ %0, %if.then ]
  tail call void @_ZN16LoopSuiteRunInfoD2Ev(ptr noundef nonnull align 16 dereferenceable(640) %2) #24
  tail call void @_ZdlPv(ptr noundef nonnull %2) #25
  br label %delete.end6

delete.end6:                                      ; preds = %delete.notnull5, %if.end
  store ptr null, ptr @_ZL21s_loop_suite_run_info, align 8, !tbaa !59
  br label %if.end7

if.end7:                                          ; preds = %delete.end6, %entry
  ret void
}

; Function Attrs: nobuiltin nounwind
declare void @_ZdaPv(ptr noundef) local_unnamed_addr #8

; Function Attrs: nounwind uwtable
define linkonce_odr dso_local void @_ZN16LoopSuiteRunInfoD2Ev(ptr noundef nonnull align 16 dereferenceable(640) %this) unnamed_addr #10 comdat align 2 personality ptr @__gxx_personality_v0 {
entry:
  %loop_test_stats = getelementptr inbounds %class.LoopSuiteRunInfo, ptr %this, i64 0, i32 17
  %_M_left.i.i = getelementptr inbounds %class.LoopSuiteRunInfo, ptr %this, i64 0, i32 17, i32 0, i32 0, i32 1, i32 0, i32 2
  %0 = load ptr, ptr %_M_left.i.i, align 8, !tbaa !98
  %add.ptr.i.i = getelementptr inbounds %class.LoopSuiteRunInfo, ptr %this, i64 0, i32 17, i32 0, i32 0, i32 1
  %cmp.i.not98 = icmp eq ptr %0, %add.ptr.i.i
  br i1 %cmp.i.not98, label %for.end, label %for.body

for.body:                                         ; preds = %entry, %for.inc
  %lsi.sroa.0.099 = phi ptr [ %call.i, %for.inc ], [ %0, %entry ]
  %second = getelementptr inbounds %"struct.std::_Rb_tree_node", ptr %lsi.sroa.0.099, i64 0, i32 1, i32 0, i64 32
  %1 = load ptr, ptr %second, align 8, !tbaa !110
  %isnull = icmp eq ptr %1, null
  br i1 %isnull, label %for.inc, label %delete.notnull

delete.notnull:                                   ; preds = %for.body
  %2 = load ptr, ptr %1, align 8, !tbaa !112
  %_M_finish.i = getelementptr inbounds %"struct.std::_Vector_base<LoopStat, std::allocator<LoopStat>>::_Vector_impl_data", ptr %1, i64 0, i32 1
  %3 = load ptr, ptr %_M_finish.i, align 8, !tbaa !114
  %cmp.not3.i.i.i.i = icmp eq ptr %2, %3
  br i1 %cmp.not3.i.i.i.i, label %invoke.cont.i, label %for.body.i.i.i.i

for.body.i.i.i.i:                                 ; preds = %delete.notnull, %for.body.i.i.i.i
  %__first.addr.04.i.i.i.i = phi ptr [ %incdec.ptr.i.i.i.i, %for.body.i.i.i.i ], [ %2, %delete.notnull ]
  tail call void @_ZN8LoopStatD2Ev(ptr noundef nonnull align 8 dereferenceable(280) %__first.addr.04.i.i.i.i) #24
  %incdec.ptr.i.i.i.i = getelementptr inbounds %class.LoopStat, ptr %__first.addr.04.i.i.i.i, i64 1
  %cmp.not.i.i.i.i = icmp eq ptr %incdec.ptr.i.i.i.i, %3
  br i1 %cmp.not.i.i.i.i, label %invoke.contthread-pre-split.i, label %for.body.i.i.i.i, !llvm.loop !115

invoke.contthread-pre-split.i:                    ; preds = %for.body.i.i.i.i
  %.pr.i = load ptr, ptr %1, align 8, !tbaa !112
  br label %invoke.cont.i

invoke.cont.i:                                    ; preds = %invoke.contthread-pre-split.i, %delete.notnull
  %4 = phi ptr [ %.pr.i, %invoke.contthread-pre-split.i ], [ %2, %delete.notnull ]
  %tobool.not.i.i.i = icmp eq ptr %4, null
  br i1 %tobool.not.i.i.i, label %_ZNSt6vectorI8LoopStatSaIS0_EED2Ev.exit, label %if.then.i.i.i

if.then.i.i.i:                                    ; preds = %invoke.cont.i
  tail call void @_ZdlPv(ptr noundef nonnull %4) #25
  br label %_ZNSt6vectorI8LoopStatSaIS0_EED2Ev.exit

_ZNSt6vectorI8LoopStatSaIS0_EED2Ev.exit:          ; preds = %invoke.cont.i, %if.then.i.i.i
  tail call void @_ZdlPv(ptr noundef nonnull %1) #25
  br label %for.inc

for.inc:                                          ; preds = %for.body, %_ZNSt6vectorI8LoopStatSaIS0_EED2Ev.exit
  %call.i = tail call noundef ptr @_ZSt18_Rb_tree_incrementPSt18_Rb_tree_node_base(ptr noundef %lsi.sroa.0.099) #26
  %cmp.i.not = icmp eq ptr %call.i, %add.ptr.i.i
  br i1 %cmp.i.not, label %for.end, label %for.body, !llvm.loop !116

for.end:                                          ; preds = %for.inc, %entry
  %_M_parent.i.i.i.i = getelementptr inbounds %class.LoopSuiteRunInfo, ptr %this, i64 0, i32 17, i32 0, i32 0, i32 1, i32 0, i32 1
  %5 = load ptr, ptr %_M_parent.i.i.i.i, align 16, !tbaa !97
  invoke void @_ZNSt8_Rb_treeINSt7__cxx1112basic_stringIcSt11char_traitsIcESaIcEEESt4pairIKS5_PSt6vectorI8LoopStatSaIS9_EEESt10_Select1stISD_ESt4lessIS5_ESaISD_EE8_M_eraseEPSt13_Rb_tree_nodeISD_E(ptr noundef nonnull align 8 dereferenceable(48) %loop_test_stats, ptr noundef %5)
          to label %_ZNSt3mapINSt7__cxx1112basic_stringIcSt11char_traitsIcESaIcEEEPSt6vectorI8LoopStatSaIS7_EESt4lessIS5_ESaISt4pairIKS5_SA_EEED2Ev.exit unwind label %terminate.lpad.i.i

terminate.lpad.i.i:                               ; preds = %for.end
  %6 = landingpad { ptr, i32 }
          catch ptr null
  %7 = extractvalue { ptr, i32 } %6, 0
  tail call void @__clang_call_terminate(ptr %7) #27
  unreachable

_ZNSt3mapINSt7__cxx1112basic_stringIcSt11char_traitsIcESaIcEEEPSt6vectorI8LoopStatSaIS7_EESt4lessIS5_ESaISt4pairIKS5_SA_EEED2Ev.exit: ; preds = %for.end
  %fom_rate = getelementptr inbounds %class.LoopSuiteRunInfo, ptr %this, i64 0, i32 13
  %8 = load ptr, ptr %fom_rate, align 16, !tbaa !50
  %_M_finish.i9 = getelementptr inbounds %class.LoopSuiteRunInfo, ptr %this, i64 0, i32 13, i32 0, i32 0, i32 0, i32 1
  %9 = load ptr, ptr %_M_finish.i9, align 8, !tbaa !117
  %cmp.not3.i.i.i.i10 = icmp eq ptr %8, %9
  br i1 %cmp.not3.i.i.i.i10, label %invoke.cont.i18, label %for.body.i.i.i.i12

for.body.i.i.i.i12:                               ; preds = %_ZNSt3mapINSt7__cxx1112basic_stringIcSt11char_traitsIcESaIcEEEPSt6vectorI8LoopStatSaIS7_EESt4lessIS5_ESaISt4pairIKS5_SA_EEED2Ev.exit, %_ZSt8_DestroyISt6vectorIeSaIeEEEvPT_.exit.i.i.i.i
  %__first.addr.04.i.i.i.i11 = phi ptr [ %incdec.ptr.i.i.i.i13, %_ZSt8_DestroyISt6vectorIeSaIeEEEvPT_.exit.i.i.i.i ], [ %8, %_ZNSt3mapINSt7__cxx1112basic_stringIcSt11char_traitsIcESaIcEEEPSt6vectorI8LoopStatSaIS7_EESt4lessIS5_ESaISt4pairIKS5_SA_EEED2Ev.exit ]
  %10 = load ptr, ptr %__first.addr.04.i.i.i.i11, align 8, !tbaa !52
  %tobool.not.i.i.i.i.i.i.i.i = icmp eq ptr %10, null
  br i1 %tobool.not.i.i.i.i.i.i.i.i, label %_ZSt8_DestroyISt6vectorIeSaIeEEEvPT_.exit.i.i.i.i, label %if.then.i.i.i.i.i.i.i.i

if.then.i.i.i.i.i.i.i.i:                          ; preds = %for.body.i.i.i.i12
  tail call void @_ZdlPv(ptr noundef nonnull %10) #25
  br label %_ZSt8_DestroyISt6vectorIeSaIeEEEvPT_.exit.i.i.i.i

_ZSt8_DestroyISt6vectorIeSaIeEEEvPT_.exit.i.i.i.i: ; preds = %if.then.i.i.i.i.i.i.i.i, %for.body.i.i.i.i12
  %incdec.ptr.i.i.i.i13 = getelementptr inbounds %"class.std::vector.0", ptr %__first.addr.04.i.i.i.i11, i64 1
  %cmp.not.i.i.i.i14 = icmp eq ptr %incdec.ptr.i.i.i.i13, %9
  br i1 %cmp.not.i.i.i.i14, label %invoke.contthread-pre-split.i16, label %for.body.i.i.i.i12, !llvm.loop !118

invoke.contthread-pre-split.i16:                  ; preds = %_ZSt8_DestroyISt6vectorIeSaIeEEEvPT_.exit.i.i.i.i
  %.pr.i15 = load ptr, ptr %fom_rate, align 16, !tbaa !50
  br label %invoke.cont.i18

invoke.cont.i18:                                  ; preds = %invoke.contthread-pre-split.i16, %_ZNSt3mapINSt7__cxx1112basic_stringIcSt11char_traitsIcESaIcEEEPSt6vectorI8LoopStatSaIS7_EESt4lessIS5_ESaISt4pairIKS5_SA_EEED2Ev.exit
  %11 = phi ptr [ %.pr.i15, %invoke.contthread-pre-split.i16 ], [ %8, %_ZNSt3mapINSt7__cxx1112basic_stringIcSt11char_traitsIcESaIcEEEPSt6vectorI8LoopStatSaIS7_EESt4lessIS5_ESaISt4pairIKS5_SA_EEED2Ev.exit ]
  %tobool.not.i.i.i17 = icmp eq ptr %11, null
  br i1 %tobool.not.i.i.i17, label %_ZNSt6vectorIS_IeSaIeEESaIS1_EED2Ev.exit, label %if.then.i.i.i19

if.then.i.i.i19:                                  ; preds = %invoke.cont.i18
  tail call void @_ZdlPv(ptr noundef nonnull %11) #25
  br label %_ZNSt6vectorIS_IeSaIeEESaIS1_EED2Ev.exit

_ZNSt6vectorIS_IeSaIeEESaIS1_EED2Ev.exit:         ; preds = %invoke.cont.i18, %if.then.i.i.i19
  %fom_rel = getelementptr inbounds %class.LoopSuiteRunInfo, ptr %this, i64 0, i32 12
  %12 = load ptr, ptr %fom_rel, align 8, !tbaa !50
  %_M_finish.i20 = getelementptr inbounds %class.LoopSuiteRunInfo, ptr %this, i64 0, i32 12, i32 0, i32 0, i32 0, i32 1
  %13 = load ptr, ptr %_M_finish.i20, align 16, !tbaa !117
  %cmp.not3.i.i.i.i21 = icmp eq ptr %12, %13
  br i1 %cmp.not3.i.i.i.i21, label %invoke.cont.i32, label %for.body.i.i.i.i24

for.body.i.i.i.i24:                               ; preds = %_ZNSt6vectorIS_IeSaIeEESaIS1_EED2Ev.exit, %_ZSt8_DestroyISt6vectorIeSaIeEEEvPT_.exit.i.i.i.i28
  %__first.addr.04.i.i.i.i22 = phi ptr [ %incdec.ptr.i.i.i.i26, %_ZSt8_DestroyISt6vectorIeSaIeEEEvPT_.exit.i.i.i.i28 ], [ %12, %_ZNSt6vectorIS_IeSaIeEESaIS1_EED2Ev.exit ]
  %14 = load ptr, ptr %__first.addr.04.i.i.i.i22, align 8, !tbaa !52
  %tobool.not.i.i.i.i.i.i.i.i23 = icmp eq ptr %14, null
  br i1 %tobool.not.i.i.i.i.i.i.i.i23, label %_ZSt8_DestroyISt6vectorIeSaIeEEEvPT_.exit.i.i.i.i28, label %if.then.i.i.i.i.i.i.i.i25

if.then.i.i.i.i.i.i.i.i25:                        ; preds = %for.body.i.i.i.i24
  tail call void @_ZdlPv(ptr noundef nonnull %14) #25
  br label %_ZSt8_DestroyISt6vectorIeSaIeEEEvPT_.exit.i.i.i.i28

_ZSt8_DestroyISt6vectorIeSaIeEEEvPT_.exit.i.i.i.i28: ; preds = %if.then.i.i.i.i.i.i.i.i25, %for.body.i.i.i.i24
  %incdec.ptr.i.i.i.i26 = getelementptr inbounds %"class.std::vector.0", ptr %__first.addr.04.i.i.i.i22, i64 1
  %cmp.not.i.i.i.i27 = icmp eq ptr %incdec.ptr.i.i.i.i26, %13
  br i1 %cmp.not.i.i.i.i27, label %invoke.contthread-pre-split.i30, label %for.body.i.i.i.i24, !llvm.loop !118

invoke.contthread-pre-split.i30:                  ; preds = %_ZSt8_DestroyISt6vectorIeSaIeEEEvPT_.exit.i.i.i.i28
  %.pr.i29 = load ptr, ptr %fom_rel, align 8, !tbaa !50
  br label %invoke.cont.i32

invoke.cont.i32:                                  ; preds = %invoke.contthread-pre-split.i30, %_ZNSt6vectorIS_IeSaIeEESaIS1_EED2Ev.exit
  %15 = phi ptr [ %.pr.i29, %invoke.contthread-pre-split.i30 ], [ %12, %_ZNSt6vectorIS_IeSaIeEESaIS1_EED2Ev.exit ]
  %tobool.not.i.i.i31 = icmp eq ptr %15, null
  br i1 %tobool.not.i.i.i31, label %_ZNSt6vectorIS_IeSaIeEESaIS1_EED2Ev.exit34, label %if.then.i.i.i33

if.then.i.i.i33:                                  ; preds = %invoke.cont.i32
  tail call void @_ZdlPv(ptr noundef nonnull %15) #25
  br label %_ZNSt6vectorIS_IeSaIeEESaIS1_EED2Ev.exit34

_ZNSt6vectorIS_IeSaIeEESaIS1_EED2Ev.exit34:       ; preds = %invoke.cont.i32, %if.then.i.i.i33
  %tot_time = getelementptr inbounds %class.LoopSuiteRunInfo, ptr %this, i64 0, i32 11
  %16 = load ptr, ptr %tot_time, align 16, !tbaa !50
  %_M_finish.i35 = getelementptr inbounds %class.LoopSuiteRunInfo, ptr %this, i64 0, i32 11, i32 0, i32 0, i32 0, i32 1
  %17 = load ptr, ptr %_M_finish.i35, align 8, !tbaa !117
  %cmp.not3.i.i.i.i36 = icmp eq ptr %16, %17
  br i1 %cmp.not3.i.i.i.i36, label %invoke.cont.i47, label %for.body.i.i.i.i39

for.body.i.i.i.i39:                               ; preds = %_ZNSt6vectorIS_IeSaIeEESaIS1_EED2Ev.exit34, %_ZSt8_DestroyISt6vectorIeSaIeEEEvPT_.exit.i.i.i.i43
  %__first.addr.04.i.i.i.i37 = phi ptr [ %incdec.ptr.i.i.i.i41, %_ZSt8_DestroyISt6vectorIeSaIeEEEvPT_.exit.i.i.i.i43 ], [ %16, %_ZNSt6vectorIS_IeSaIeEESaIS1_EED2Ev.exit34 ]
  %18 = load ptr, ptr %__first.addr.04.i.i.i.i37, align 8, !tbaa !52
  %tobool.not.i.i.i.i.i.i.i.i38 = icmp eq ptr %18, null
  br i1 %tobool.not.i.i.i.i.i.i.i.i38, label %_ZSt8_DestroyISt6vectorIeSaIeEEEvPT_.exit.i.i.i.i43, label %if.then.i.i.i.i.i.i.i.i40

if.then.i.i.i.i.i.i.i.i40:                        ; preds = %for.body.i.i.i.i39
  tail call void @_ZdlPv(ptr noundef nonnull %18) #25
  br label %_ZSt8_DestroyISt6vectorIeSaIeEEEvPT_.exit.i.i.i.i43

_ZSt8_DestroyISt6vectorIeSaIeEEEvPT_.exit.i.i.i.i43: ; preds = %if.then.i.i.i.i.i.i.i.i40, %for.body.i.i.i.i39
  %incdec.ptr.i.i.i.i41 = getelementptr inbounds %"class.std::vector.0", ptr %__first.addr.04.i.i.i.i37, i64 1
  %cmp.not.i.i.i.i42 = icmp eq ptr %incdec.ptr.i.i.i.i41, %17
  br i1 %cmp.not.i.i.i.i42, label %invoke.contthread-pre-split.i45, label %for.body.i.i.i.i39, !llvm.loop !118

invoke.contthread-pre-split.i45:                  ; preds = %_ZSt8_DestroyISt6vectorIeSaIeEEEvPT_.exit.i.i.i.i43
  %.pr.i44 = load ptr, ptr %tot_time, align 16, !tbaa !50
  br label %invoke.cont.i47

invoke.cont.i47:                                  ; preds = %invoke.contthread-pre-split.i45, %_ZNSt6vectorIS_IeSaIeEESaIS1_EED2Ev.exit34
  %19 = phi ptr [ %.pr.i44, %invoke.contthread-pre-split.i45 ], [ %16, %_ZNSt6vectorIS_IeSaIeEESaIS1_EED2Ev.exit34 ]
  %tobool.not.i.i.i46 = icmp eq ptr %19, null
  br i1 %tobool.not.i.i.i46, label %_ZNSt6vectorIS_IeSaIeEESaIS1_EED2Ev.exit49, label %if.then.i.i.i48

if.then.i.i.i48:                                  ; preds = %invoke.cont.i47
  tail call void @_ZdlPv(ptr noundef nonnull %19) #25
  br label %_ZNSt6vectorIS_IeSaIeEESaIS1_EED2Ev.exit49

_ZNSt6vectorIS_IeSaIeEESaIS1_EED2Ev.exit49:       ; preds = %invoke.cont.i47, %if.then.i.i.i48
  %num_loops_run = getelementptr inbounds %class.LoopSuiteRunInfo, ptr %this, i64 0, i32 10
  %20 = load ptr, ptr %num_loops_run, align 8, !tbaa !119
  %_M_finish.i50 = getelementptr inbounds %class.LoopSuiteRunInfo, ptr %this, i64 0, i32 10, i32 0, i32 0, i32 0, i32 1
  %21 = load ptr, ptr %_M_finish.i50, align 16, !tbaa !120
  %cmp.not3.i.i.i.i51 = icmp eq ptr %20, %21
  br i1 %cmp.not3.i.i.i.i51, label %invoke.cont.i61, label %for.body.i.i.i.i54

for.body.i.i.i.i54:                               ; preds = %_ZNSt6vectorIS_IeSaIeEESaIS1_EED2Ev.exit49, %_ZSt8_DestroyISt6vectorIiSaIiEEEvPT_.exit.i.i.i.i
  %__first.addr.04.i.i.i.i52 = phi ptr [ %incdec.ptr.i.i.i.i56, %_ZSt8_DestroyISt6vectorIiSaIiEEEvPT_.exit.i.i.i.i ], [ %20, %_ZNSt6vectorIS_IeSaIeEESaIS1_EED2Ev.exit49 ]
  %22 = load ptr, ptr %__first.addr.04.i.i.i.i52, align 8, !tbaa !46
  %tobool.not.i.i.i.i.i.i.i.i53 = icmp eq ptr %22, null
  br i1 %tobool.not.i.i.i.i.i.i.i.i53, label %_ZSt8_DestroyISt6vectorIiSaIiEEEvPT_.exit.i.i.i.i, label %if.then.i.i.i.i.i.i.i.i55

if.then.i.i.i.i.i.i.i.i55:                        ; preds = %for.body.i.i.i.i54
  tail call void @_ZdlPv(ptr noundef nonnull %22) #25
  br label %_ZSt8_DestroyISt6vectorIiSaIiEEEvPT_.exit.i.i.i.i

_ZSt8_DestroyISt6vectorIiSaIiEEEvPT_.exit.i.i.i.i: ; preds = %if.then.i.i.i.i.i.i.i.i55, %for.body.i.i.i.i54
  %incdec.ptr.i.i.i.i56 = getelementptr inbounds %"class.std::vector.10", ptr %__first.addr.04.i.i.i.i52, i64 1
  %cmp.not.i.i.i.i57 = icmp eq ptr %incdec.ptr.i.i.i.i56, %21
  br i1 %cmp.not.i.i.i.i57, label %invoke.contthread-pre-split.i59, label %for.body.i.i.i.i54, !llvm.loop !121

invoke.contthread-pre-split.i59:                  ; preds = %_ZSt8_DestroyISt6vectorIiSaIiEEEvPT_.exit.i.i.i.i
  %.pr.i58 = load ptr, ptr %num_loops_run, align 8, !tbaa !119
  br label %invoke.cont.i61

invoke.cont.i61:                                  ; preds = %invoke.contthread-pre-split.i59, %_ZNSt6vectorIS_IeSaIeEESaIS1_EED2Ev.exit49
  %23 = phi ptr [ %.pr.i58, %invoke.contthread-pre-split.i59 ], [ %20, %_ZNSt6vectorIS_IeSaIeEESaIS1_EED2Ev.exit49 ]
  %tobool.not.i.i.i60 = icmp eq ptr %23, null
  br i1 %tobool.not.i.i.i60, label %_ZNSt6vectorIS_IiSaIiEESaIS1_EED2Ev.exit, label %if.then.i.i.i62

if.then.i.i.i62:                                  ; preds = %invoke.cont.i61
  tail call void @_ZdlPv(ptr noundef nonnull %23) #25
  br label %_ZNSt6vectorIS_IiSaIiEESaIS1_EED2Ev.exit

_ZNSt6vectorIS_IiSaIiEESaIS1_EED2Ev.exit:         ; preds = %invoke.cont.i61, %if.then.i.i.i62
  %loop_weights = getelementptr inbounds %class.LoopSuiteRunInfo, ptr %this, i64 0, i32 9
  %24 = load ptr, ptr %loop_weights, align 16, !tbaa !122
  %tobool.not.i.i.i63 = icmp eq ptr %24, null
  br i1 %tobool.not.i.i.i63, label %_ZNSt6vectorIdSaIdEED2Ev.exit, label %if.then.i.i.i65

if.then.i.i.i65:                                  ; preds = %_ZNSt6vectorIS_IiSaIiEESaIS1_EED2Ev.exit
  tail call void @_ZdlPv(ptr noundef nonnull %24) #25
  br label %_ZNSt6vectorIdSaIdEED2Ev.exit

_ZNSt6vectorIdSaIdEED2Ev.exit:                    ; preds = %_ZNSt6vectorIS_IiSaIiEESaIS1_EED2Ev.exit, %if.then.i.i.i65
  %ref_loop_stat = getelementptr inbounds %class.LoopSuiteRunInfo, ptr %this, i64 0, i32 8
  tail call void @_ZN8LoopStatD2Ev(ptr noundef nonnull align 8 dereferenceable(280) %ref_loop_stat) #24
  %loop_length_names = getelementptr inbounds %class.LoopSuiteRunInfo, ptr %this, i64 0, i32 5
  %25 = load ptr, ptr %loop_length_names, align 16, !tbaa !123
  %_M_finish.i66 = getelementptr inbounds %class.LoopSuiteRunInfo, ptr %this, i64 0, i32 5, i32 0, i32 0, i32 0, i32 1
  %26 = load ptr, ptr %_M_finish.i66, align 8, !tbaa !124
  %cmp.not3.i.i.i.i67 = icmp eq ptr %25, %26
  br i1 %cmp.not3.i.i.i.i67, label %invoke.cont.i75, label %for.body.i.i.i.i69

for.body.i.i.i.i69:                               ; preds = %_ZNSt6vectorIdSaIdEED2Ev.exit, %_ZSt8_DestroyINSt7__cxx1112basic_stringIcSt11char_traitsIcESaIcEEEEvPT_.exit.i.i.i.i
  %__first.addr.04.i.i.i.i68 = phi ptr [ %incdec.ptr.i.i.i.i70, %_ZSt8_DestroyINSt7__cxx1112basic_stringIcSt11char_traitsIcESaIcEEEEvPT_.exit.i.i.i.i ], [ %25, %_ZNSt6vectorIdSaIdEED2Ev.exit ]
  %27 = load ptr, ptr %__first.addr.04.i.i.i.i68, align 8, !tbaa !125
  %28 = getelementptr inbounds %"class.std::__cxx11::basic_string", ptr %__first.addr.04.i.i.i.i68, i64 0, i32 2
  %cmp.i.i.i.i.i.i.i.i = icmp eq ptr %27, %28
  br i1 %cmp.i.i.i.i.i.i.i.i, label %_ZSt8_DestroyINSt7__cxx1112basic_stringIcSt11char_traitsIcESaIcEEEEvPT_.exit.i.i.i.i, label %if.then.i.i.i.i.i.i.i

if.then.i.i.i.i.i.i.i:                            ; preds = %for.body.i.i.i.i69
  tail call void @_ZdlPv(ptr noundef %27) #25
  br label %_ZSt8_DestroyINSt7__cxx1112basic_stringIcSt11char_traitsIcESaIcEEEEvPT_.exit.i.i.i.i

_ZSt8_DestroyINSt7__cxx1112basic_stringIcSt11char_traitsIcESaIcEEEEvPT_.exit.i.i.i.i: ; preds = %if.then.i.i.i.i.i.i.i, %for.body.i.i.i.i69
  %incdec.ptr.i.i.i.i70 = getelementptr inbounds %"class.std::__cxx11::basic_string", ptr %__first.addr.04.i.i.i.i68, i64 1
  %cmp.not.i.i.i.i71 = icmp eq ptr %incdec.ptr.i.i.i.i70, %26
  br i1 %cmp.not.i.i.i.i71, label %invoke.contthread-pre-split.i73, label %for.body.i.i.i.i69, !llvm.loop !126

invoke.contthread-pre-split.i73:                  ; preds = %_ZSt8_DestroyINSt7__cxx1112basic_stringIcSt11char_traitsIcESaIcEEEEvPT_.exit.i.i.i.i
  %.pr.i72 = load ptr, ptr %loop_length_names, align 16, !tbaa !123
  br label %invoke.cont.i75

invoke.cont.i75:                                  ; preds = %invoke.contthread-pre-split.i73, %_ZNSt6vectorIdSaIdEED2Ev.exit
  %29 = phi ptr [ %.pr.i72, %invoke.contthread-pre-split.i73 ], [ %25, %_ZNSt6vectorIdSaIdEED2Ev.exit ]
  %tobool.not.i.i.i74 = icmp eq ptr %29, null
  br i1 %tobool.not.i.i.i74, label %_ZNSt6vectorINSt7__cxx1112basic_stringIcSt11char_traitsIcESaIcEEESaIS5_EED2Ev.exit, label %if.then.i.i.i76

if.then.i.i.i76:                                  ; preds = %invoke.cont.i75
  tail call void @_ZdlPv(ptr noundef nonnull %29) #25
  br label %_ZNSt6vectorINSt7__cxx1112basic_stringIcSt11char_traitsIcESaIcEEESaIS5_EED2Ev.exit

_ZNSt6vectorINSt7__cxx1112basic_stringIcSt11char_traitsIcESaIcEEESaIS5_EED2Ev.exit: ; preds = %invoke.cont.i75, %if.then.i.i.i76
  %run_loop_length = getelementptr inbounds %class.LoopSuiteRunInfo, ptr %this, i64 0, i32 4
  %30 = load ptr, ptr %run_loop_length, align 8, !tbaa !92
  %tobool.not.i.i = icmp eq ptr %30, null
  br i1 %tobool.not.i.i, label %_ZNSt13_Bvector_baseISaIbEED2Ev.exit, label %if.then.i.i

if.then.i.i:                                      ; preds = %_ZNSt6vectorINSt7__cxx1112basic_stringIcSt11char_traitsIcESaIcEEESaIS5_EED2Ev.exit
  %_M_end_of_storage.i.i.i = getelementptr inbounds %class.LoopSuiteRunInfo, ptr %this, i64 0, i32 4, i32 0, i32 0, i32 0, i32 2
  %31 = load ptr, ptr %_M_end_of_storage.i.i.i, align 8, !tbaa !106
  %sub.ptr.lhs.cast.i.i = ptrtoint ptr %31 to i64
  %sub.ptr.rhs.cast.i.i = ptrtoint ptr %30 to i64
  %sub.ptr.sub.i.i = sub i64 %sub.ptr.lhs.cast.i.i, %sub.ptr.rhs.cast.i.i
  %sub.ptr.div.i.i = ashr exact i64 %sub.ptr.sub.i.i, 3
  %idx.neg.i.i = sub nsw i64 0, %sub.ptr.div.i.i
  %add.ptr.i.i77 = getelementptr inbounds i64, ptr %31, i64 %idx.neg.i.i
  tail call void @_ZdlPv(ptr noundef %add.ptr.i.i77) #25
  store ptr null, ptr %run_loop_length, align 8
  %ref.tmp.sroa.4.0.this.sroa_idx.i.i.i = getelementptr inbounds %class.LoopSuiteRunInfo, ptr %this, i64 0, i32 4, i32 0, i32 0, i32 0, i32 0, i32 0, i32 1
  store i32 0, ptr %ref.tmp.sroa.4.0.this.sroa_idx.i.i.i, align 16
  %ref.tmp.sroa.52.0.this.sroa_idx.i.i.i = getelementptr inbounds %class.LoopSuiteRunInfo, ptr %this, i64 0, i32 4, i32 0, i32 0, i32 0, i32 1
  store ptr null, ptr %ref.tmp.sroa.52.0.this.sroa_idx.i.i.i, align 8
  %ref.tmp.sroa.6.0.this.sroa_idx.i.i.i = getelementptr inbounds %class.LoopSuiteRunInfo, ptr %this, i64 0, i32 4, i32 0, i32 0, i32 0, i32 1, i32 0, i32 1
  store i32 0, ptr %ref.tmp.sroa.6.0.this.sroa_idx.i.i.i, align 16
  store ptr null, ptr %_M_end_of_storage.i.i.i, align 8
  br label %_ZNSt13_Bvector_baseISaIbEED2Ev.exit

_ZNSt13_Bvector_baseISaIbEED2Ev.exit:             ; preds = %_ZNSt6vectorINSt7__cxx1112basic_stringIcSt11char_traitsIcESaIcEEESaIS5_EED2Ev.exit, %if.then.i.i
  %loop_names = getelementptr inbounds %class.LoopSuiteRunInfo, ptr %this, i64 0, i32 2
  %32 = load ptr, ptr %loop_names, align 8, !tbaa !123
  %_M_finish.i79 = getelementptr inbounds %class.LoopSuiteRunInfo, ptr %this, i64 0, i32 2, i32 0, i32 0, i32 0, i32 1
  %33 = load ptr, ptr %_M_finish.i79, align 16, !tbaa !124
  %cmp.not3.i.i.i.i80 = icmp eq ptr %32, %33
  br i1 %cmp.not3.i.i.i.i80, label %invoke.cont.i91, label %for.body.i.i.i.i83

for.body.i.i.i.i83:                               ; preds = %_ZNSt13_Bvector_baseISaIbEED2Ev.exit, %_ZSt8_DestroyINSt7__cxx1112basic_stringIcSt11char_traitsIcESaIcEEEEvPT_.exit.i.i.i.i87
  %__first.addr.04.i.i.i.i81 = phi ptr [ %incdec.ptr.i.i.i.i85, %_ZSt8_DestroyINSt7__cxx1112basic_stringIcSt11char_traitsIcESaIcEEEEvPT_.exit.i.i.i.i87 ], [ %32, %_ZNSt13_Bvector_baseISaIbEED2Ev.exit ]
  %34 = load ptr, ptr %__first.addr.04.i.i.i.i81, align 8, !tbaa !125
  %35 = getelementptr inbounds %"class.std::__cxx11::basic_string", ptr %__first.addr.04.i.i.i.i81, i64 0, i32 2
  %cmp.i.i.i.i.i.i.i.i82 = icmp eq ptr %34, %35
  br i1 %cmp.i.i.i.i.i.i.i.i82, label %_ZSt8_DestroyINSt7__cxx1112basic_stringIcSt11char_traitsIcESaIcEEEEvPT_.exit.i.i.i.i87, label %if.then.i.i.i.i.i.i.i84

if.then.i.i.i.i.i.i.i84:                          ; preds = %for.body.i.i.i.i83
  tail call void @_ZdlPv(ptr noundef %34) #25
  br label %_ZSt8_DestroyINSt7__cxx1112basic_stringIcSt11char_traitsIcESaIcEEEEvPT_.exit.i.i.i.i87

_ZSt8_DestroyINSt7__cxx1112basic_stringIcSt11char_traitsIcESaIcEEEEvPT_.exit.i.i.i.i87: ; preds = %if.then.i.i.i.i.i.i.i84, %for.body.i.i.i.i83
  %incdec.ptr.i.i.i.i85 = getelementptr inbounds %"class.std::__cxx11::basic_string", ptr %__first.addr.04.i.i.i.i81, i64 1
  %cmp.not.i.i.i.i86 = icmp eq ptr %incdec.ptr.i.i.i.i85, %33
  br i1 %cmp.not.i.i.i.i86, label %invoke.contthread-pre-split.i89, label %for.body.i.i.i.i83, !llvm.loop !126

invoke.contthread-pre-split.i89:                  ; preds = %_ZSt8_DestroyINSt7__cxx1112basic_stringIcSt11char_traitsIcESaIcEEEEvPT_.exit.i.i.i.i87
  %.pr.i88 = load ptr, ptr %loop_names, align 8, !tbaa !123
  br label %invoke.cont.i91

invoke.cont.i91:                                  ; preds = %invoke.contthread-pre-split.i89, %_ZNSt13_Bvector_baseISaIbEED2Ev.exit
  %36 = phi ptr [ %.pr.i88, %invoke.contthread-pre-split.i89 ], [ %32, %_ZNSt13_Bvector_baseISaIbEED2Ev.exit ]
  %tobool.not.i.i.i90 = icmp eq ptr %36, null
  br i1 %tobool.not.i.i.i90, label %_ZNSt6vectorINSt7__cxx1112basic_stringIcSt11char_traitsIcESaIcEEESaIS5_EED2Ev.exit93, label %if.then.i.i.i92

if.then.i.i.i92:                                  ; preds = %invoke.cont.i91
  tail call void @_ZdlPv(ptr noundef nonnull %36) #25
  br label %_ZNSt6vectorINSt7__cxx1112basic_stringIcSt11char_traitsIcESaIcEEESaIS5_EED2Ev.exit93

_ZNSt6vectorINSt7__cxx1112basic_stringIcSt11char_traitsIcESaIcEEESaIS5_EED2Ev.exit93: ; preds = %invoke.cont.i91, %if.then.i.i.i92
  %37 = load ptr, ptr %this, align 16, !tbaa !125
  %38 = getelementptr inbounds %"class.std::__cxx11::basic_string", ptr %this, i64 0, i32 2
  %cmp.i.i.i = icmp eq ptr %37, %38
  br i1 %cmp.i.i.i, label %_ZNSt7__cxx1112basic_stringIcSt11char_traitsIcESaIcEED2Ev.exit, label %if.then.i.i94

if.then.i.i94:                                    ; preds = %_ZNSt6vectorINSt7__cxx1112basic_stringIcSt11char_traitsIcESaIcEEESaIS5_EED2Ev.exit93
  tail call void @_ZdlPv(ptr noundef %37) #25
  br label %_ZNSt7__cxx1112basic_stringIcSt11char_traitsIcESaIcEED2Ev.exit

_ZNSt7__cxx1112basic_stringIcSt11char_traitsIcESaIcEED2Ev.exit: ; preds = %_ZNSt6vectorINSt7__cxx1112basic_stringIcSt11char_traitsIcESaIcEEESaIS5_EED2Ev.exit93, %if.then.i.i94
  ret void
}

; Function Attrs: mustprogress nofree norecurse nosync nounwind memory(readwrite, inaccessiblemem: none) uwtable
define dso_local void @_Z10flushCachev() local_unnamed_addr #11 {
entry:
  %0 = load ptr, ptr @_ZL21s_loop_suite_run_info, align 8, !tbaa !59
  %cache_flush_data_len = getelementptr inbounds %class.LoopSuiteRunInfo, ptr %0, i64 0, i32 14
  %1 = load i64, ptr %cache_flush_data_len, align 8, !tbaa !103
  %cmp7.not = icmp eq i64 %1, 0
  br i1 %cmp7.not, label %entry.for.cond.cleanup_crit_edge, label %for.body.lr.ph

entry.for.cond.cleanup_crit_edge:                 ; preds = %entry
  %cache_flush_data_sum3.phi.trans.insert = getelementptr inbounds %class.LoopSuiteRunInfo, ptr %0, i64 0, i32 16
  %.pre = load x86_fp80, ptr %cache_flush_data_sum3.phi.trans.insert, align 16, !tbaa !95
  br label %for.cond.cleanup

for.body.lr.ph:                                   ; preds = %entry
  %cache_flush_data = getelementptr inbounds %class.LoopSuiteRunInfo, ptr %0, i64 0, i32 15
  %2 = load ptr, ptr %cache_flush_data, align 16, !tbaa !104
  %cache_flush_data_sum = getelementptr inbounds %class.LoopSuiteRunInfo, ptr %0, i64 0, i32 16
  %cache_flush_data_sum.promoted = load x86_fp80, ptr %cache_flush_data_sum, align 16, !tbaa !95
  %xtraiter = and i64 %1, 3
  %3 = icmp ult i64 %1, 4
  br i1 %3, label %for.cond.cleanup.loopexit.unr-lcssa, label %for.body.lr.ph.new

for.body.lr.ph.new:                               ; preds = %for.body.lr.ph
  %unroll_iter = and i64 %1, -4
  br label %for.body

for.cond.cleanup.loopexit.unr-lcssa:              ; preds = %for.body, %for.body.lr.ph
  %add.lcssa.ph = phi x86_fp80 [ undef, %for.body.lr.ph ], [ %add.3, %for.body ]
  %add10.unr = phi x86_fp80 [ %cache_flush_data_sum.promoted, %for.body.lr.ph ], [ %add.3, %for.body ]
  %i.08.unr = phi i64 [ 0, %for.body.lr.ph ], [ %inc.3, %for.body ]
  %lcmp.mod.not = icmp eq i64 %xtraiter, 0
  br i1 %lcmp.mod.not, label %for.cond.cleanup, label %for.body.epil

for.body.epil:                                    ; preds = %for.cond.cleanup.loopexit.unr-lcssa, %for.body.epil
  %add10.epil = phi x86_fp80 [ %add.epil, %for.body.epil ], [ %add10.unr, %for.cond.cleanup.loopexit.unr-lcssa ]
  %i.08.epil = phi i64 [ %inc.epil, %for.body.epil ], [ %i.08.unr, %for.cond.cleanup.loopexit.unr-lcssa ]
  %epil.iter = phi i64 [ %epil.iter.next, %for.body.epil ], [ 0, %for.cond.cleanup.loopexit.unr-lcssa ]
  %arrayidx.epil = getelementptr inbounds double, ptr %2, i64 %i.08.epil
  %4 = load double, ptr %arrayidx.epil, align 8, !tbaa !108
  %conv.epil = fpext double %4 to x86_fp80
  %add.epil = fadd x86_fp80 %add10.epil, %conv.epil
  %inc.epil = add nuw i64 %i.08.epil, 1
  %epil.iter.next = add i64 %epil.iter, 1
  %epil.iter.cmp.not = icmp eq i64 %epil.iter.next, %xtraiter
  br i1 %epil.iter.cmp.not, label %for.cond.cleanup, label %for.body.epil, !llvm.loop !127

for.cond.cleanup:                                 ; preds = %for.cond.cleanup.loopexit.unr-lcssa, %for.body.epil, %entry.for.cond.cleanup_crit_edge
  %5 = phi x86_fp80 [ %.pre, %entry.for.cond.cleanup_crit_edge ], [ %add.lcssa.ph, %for.cond.cleanup.loopexit.unr-lcssa ], [ %add.epil, %for.body.epil ]
  %conv2 = uitofp i64 %1 to x86_fp80
  %cache_flush_data_sum3 = getelementptr inbounds %class.LoopSuiteRunInfo, ptr %0, i64 0, i32 16
  %div = fdiv x86_fp80 %5, %conv2
  store x86_fp80 %div, ptr %cache_flush_data_sum3, align 16, !tbaa !95
  ret void

for.body:                                         ; preds = %for.body, %for.body.lr.ph.new
  %add10 = phi x86_fp80 [ %cache_flush_data_sum.promoted, %for.body.lr.ph.new ], [ %add.3, %for.body ]
  %i.08 = phi i64 [ 0, %for.body.lr.ph.new ], [ %inc.3, %for.body ]
  %niter = phi i64 [ 0, %for.body.lr.ph.new ], [ %niter.next.3, %for.body ]
  %arrayidx = getelementptr inbounds double, ptr %2, i64 %i.08
  %6 = load double, ptr %arrayidx, align 8, !tbaa !108
  %conv = fpext double %6 to x86_fp80
  %add = fadd x86_fp80 %add10, %conv
  %inc = or i64 %i.08, 1
  %arrayidx.1 = getelementptr inbounds double, ptr %2, i64 %inc
  %7 = load double, ptr %arrayidx.1, align 8, !tbaa !108
  %conv.1 = fpext double %7 to x86_fp80
  %add.1 = fadd x86_fp80 %add, %conv.1
  %inc.1 = or i64 %i.08, 2
  %arrayidx.2 = getelementptr inbounds double, ptr %2, i64 %inc.1
  %8 = load double, ptr %arrayidx.2, align 8, !tbaa !108
  %conv.2 = fpext double %8 to x86_fp80
  %add.2 = fadd x86_fp80 %add.1, %conv.2
  %inc.2 = or i64 %i.08, 3
  %arrayidx.3 = getelementptr inbounds double, ptr %2, i64 %inc.2
  %9 = load double, ptr %arrayidx.3, align 8, !tbaa !108
  %conv.3 = fpext double %9 to x86_fp80
  %add.3 = fadd x86_fp80 %add.2, %conv.3
  %inc.3 = add nuw i64 %i.08, 4
  %niter.next.3 = add i64 %niter, 4
  %niter.ncmp.3 = icmp eq i64 %niter.next.3, %unroll_iter
  br i1 %niter.ncmp.3, label %for.cond.cleanup.loopexit.unr-lcssa, label %for.body, !llvm.loop !129
}

; Function Attrs: uwtable
define dso_local void @_Z9copyTimerR8LoopStatiRK9LoopTimer(ptr nocapture noundef nonnull readonly align 8 dereferenceable(280) %loop_stat, i32 noundef %ilength, ptr nocapture noundef nonnull readonly align 8 dereferenceable(17) %loop_timer) local_unnamed_addr #6 {
entry:
  %was_run = getelementptr inbounds %struct.LoopTimer, ptr %loop_timer, i64 0, i32 2
  %0 = load i8, ptr %was_run, align 8, !tbaa !130, !range !43, !noundef !44
  %tobool.not = icmp eq i8 %0, 0
  br i1 %tobool.not, label %if.end, label %if.then

if.then:                                          ; preds = %entry
  %stop = getelementptr inbounds %struct.LoopTimer, ptr %loop_timer, i64 0, i32 1
  %1 = load i64, ptr %stop, align 8, !tbaa !132
  %2 = load i64, ptr %loop_timer, align 8, !tbaa !133
  %sub = sub nsw i64 %1, %2
  %conv = sitofp i64 %sub to x86_fp80
  %div = fdiv x86_fp80 %conv, 0xK4012F424000000000000
  %loop_run_time = getelementptr inbounds %class.LoopStat, ptr %loop_stat, i64 0, i32 2
  %conv1 = sext i32 %ilength to i64
  %3 = load ptr, ptr %loop_run_time, align 8, !tbaa !50
  %add.ptr.i = getelementptr inbounds %"class.std::vector.0", ptr %3, i64 %conv1
  %_M_finish.i = getelementptr inbounds %"struct.std::_Vector_base<long double, std::allocator<long double>>::_Vector_impl_data", ptr %add.ptr.i, i64 0, i32 1
  %4 = load ptr, ptr %_M_finish.i, align 8, !tbaa !59
  %_M_end_of_storage.i = getelementptr inbounds %"struct.std::_Vector_base<long double, std::allocator<long double>>::_Vector_impl_data", ptr %add.ptr.i, i64 0, i32 2
  %5 = load ptr, ptr %_M_end_of_storage.i, align 8, !tbaa !134
  %cmp.not.i = icmp eq ptr %4, %5
  br i1 %cmp.not.i, label %if.else.i, label %if.then.i

if.then.i:                                        ; preds = %if.then
  store x86_fp80 %div, ptr %4, align 16, !tbaa !53
  %incdec.ptr.i = getelementptr inbounds x86_fp80, ptr %4, i64 1
  store ptr %incdec.ptr.i, ptr %_M_finish.i, align 8, !tbaa !51
  br label %if.end

if.else.i:                                        ; preds = %if.then
  %6 = load ptr, ptr %add.ptr.i, align 8, !tbaa !59
  %sub.ptr.lhs.cast.i.i.i.i = ptrtoint ptr %4 to i64
  %sub.ptr.rhs.cast.i.i.i.i = ptrtoint ptr %6 to i64
  %sub.ptr.sub.i.i.i.i = sub i64 %sub.ptr.lhs.cast.i.i.i.i, %sub.ptr.rhs.cast.i.i.i.i
  %cmp.i.i.i = icmp eq i64 %sub.ptr.sub.i.i.i.i, 9223372036854775792
  br i1 %cmp.i.i.i, label %if.then.i.i.i, label %_ZNKSt6vectorIeSaIeEE12_M_check_lenEmPKc.exit.i.i

if.then.i.i.i:                                    ; preds = %if.else.i
  tail call void @_ZSt20__throw_length_errorPKc(ptr noundef nonnull @.str.72) #22
  unreachable

_ZNKSt6vectorIeSaIeEE12_M_check_lenEmPKc.exit.i.i: ; preds = %if.else.i
  %sub.ptr.div.i.i.i.i = ashr exact i64 %sub.ptr.sub.i.i.i.i, 4
  %.sroa.speculated.i.i.i = tail call i64 @llvm.umax.i64(i64 %sub.ptr.div.i.i.i.i, i64 1)
  %add.i.i.i = add i64 %.sroa.speculated.i.i.i, %sub.ptr.div.i.i.i.i
  %cmp7.i.i.i = icmp ult i64 %add.i.i.i, %sub.ptr.div.i.i.i.i
  %cmp9.i.i.i = icmp ugt i64 %add.i.i.i, 576460752303423487
  %or.cond.i.i.i = or i1 %cmp7.i.i.i, %cmp9.i.i.i
  %cond.i.i.i = select i1 %or.cond.i.i.i, i64 576460752303423487, i64 %add.i.i.i
  %cmp.not.i.i.i = icmp eq i64 %cond.i.i.i, 0
  br i1 %cmp.not.i.i.i, label %_ZNSt12_Vector_baseIeSaIeEE11_M_allocateEm.exit.i.i, label %_ZNSt16allocator_traitsISaIeEE8allocateERS0_m.exit.i.i.i

_ZNSt16allocator_traitsISaIeEE8allocateERS0_m.exit.i.i.i: ; preds = %_ZNKSt6vectorIeSaIeEE12_M_check_lenEmPKc.exit.i.i
  %mul.i.i.i.i.i = shl nuw nsw i64 %cond.i.i.i, 4
  %call5.i.i.i.i.i = tail call noalias noundef nonnull ptr @_Znwm(i64 noundef %mul.i.i.i.i.i) #23
  br label %_ZNSt12_Vector_baseIeSaIeEE11_M_allocateEm.exit.i.i

_ZNSt12_Vector_baseIeSaIeEE11_M_allocateEm.exit.i.i: ; preds = %_ZNSt16allocator_traitsISaIeEE8allocateERS0_m.exit.i.i.i, %_ZNKSt6vectorIeSaIeEE12_M_check_lenEmPKc.exit.i.i
  %cond.i31.i.i = phi ptr [ %call5.i.i.i.i.i, %_ZNSt16allocator_traitsISaIeEE8allocateERS0_m.exit.i.i.i ], [ null, %_ZNKSt6vectorIeSaIeEE12_M_check_lenEmPKc.exit.i.i ]
  %add.ptr.i.i = getelementptr inbounds x86_fp80, ptr %cond.i31.i.i, i64 %sub.ptr.div.i.i.i.i
  store x86_fp80 %div, ptr %add.ptr.i.i, align 16, !tbaa !53
  %cmp.i.i.i.i.i.i = icmp sgt i64 %sub.ptr.sub.i.i.i.i, 0
  br i1 %cmp.i.i.i.i.i.i, label %if.then.i.i.i.i.i.i, label %_ZNSt6vectorIeSaIeEE11_S_relocateEPeS2_S2_RS0_.exit39.i.i

if.then.i.i.i.i.i.i:                              ; preds = %_ZNSt12_Vector_baseIeSaIeEE11_M_allocateEm.exit.i.i
  tail call void @llvm.memmove.p0.p0.i64(ptr nonnull align 16 %cond.i31.i.i, ptr align 16 %6, i64 %sub.ptr.sub.i.i.i.i, i1 false)
  br label %_ZNSt6vectorIeSaIeEE11_S_relocateEPeS2_S2_RS0_.exit39.i.i

_ZNSt6vectorIeSaIeEE11_S_relocateEPeS2_S2_RS0_.exit39.i.i: ; preds = %if.then.i.i.i.i.i.i, %_ZNSt12_Vector_baseIeSaIeEE11_M_allocateEm.exit.i.i
  %incdec.ptr.i.i = getelementptr inbounds x86_fp80, ptr %add.ptr.i.i, i64 1
  %tobool.not.i.i.i = icmp eq ptr %6, null
  br i1 %tobool.not.i.i.i, label %_ZNSt6vectorIeSaIeEE17_M_realloc_insertIJRKeEEEvN9__gnu_cxx17__normal_iteratorIPeS1_EEDpOT_.exit.i, label %if.then.i40.i.i

if.then.i40.i.i:                                  ; preds = %_ZNSt6vectorIeSaIeEE11_S_relocateEPeS2_S2_RS0_.exit39.i.i
  tail call void @_ZdlPv(ptr noundef nonnull %6) #25
  br label %_ZNSt6vectorIeSaIeEE17_M_realloc_insertIJRKeEEEvN9__gnu_cxx17__normal_iteratorIPeS1_EEDpOT_.exit.i

_ZNSt6vectorIeSaIeEE17_M_realloc_insertIJRKeEEEvN9__gnu_cxx17__normal_iteratorIPeS1_EEDpOT_.exit.i: ; preds = %if.then.i40.i.i, %_ZNSt6vectorIeSaIeEE11_S_relocateEPeS2_S2_RS0_.exit39.i.i
  store ptr %cond.i31.i.i, ptr %add.ptr.i, align 8, !tbaa !52
  store ptr %incdec.ptr.i.i, ptr %_M_finish.i, align 8, !tbaa !51
  %add.ptr19.i.i = getelementptr inbounds x86_fp80, ptr %cond.i31.i.i, i64 %cond.i.i.i
  store ptr %add.ptr19.i.i, ptr %_M_end_of_storage.i, align 8, !tbaa !134
  br label %if.end

if.end:                                           ; preds = %_ZNSt6vectorIeSaIeEE17_M_realloc_insertIJRKeEEEvN9__gnu_cxx17__normal_iteratorIPeS1_EEDpOT_.exit.i, %if.then.i, %entry
  ret void
}

; Function Attrs: uwtable
define dso_local void @_Z12computeStatsjRSt6vectorI8LoopStatSaIS0_EEb(i32 noundef %ilv, ptr nocapture noundef nonnull readonly align 8 dereferenceable(24) %loop_stats, i1 noundef zeroext %do_fom) local_unnamed_addr #6 personality ptr @__gxx_personality_v0 {
entry:
  %_M_finish.i = getelementptr inbounds %"struct.std::_Vector_base<LoopStat, std::allocator<LoopStat>>::_Vector_impl_data", ptr %loop_stats, i64 0, i32 1
  %0 = load ptr, ptr %_M_finish.i, align 8, !tbaa !114
  %1 = load ptr, ptr %loop_stats, align 8, !tbaa !112
  %sub.ptr.lhs.cast.i = ptrtoint ptr %0 to i64
  %sub.ptr.rhs.cast.i = ptrtoint ptr %1 to i64
  %sub.ptr.sub.i = sub i64 %sub.ptr.lhs.cast.i, %sub.ptr.rhs.cast.i
  %sub.ptr.div.i = sdiv exact i64 %sub.ptr.sub.i, 280
  %cmp540.not = icmp eq ptr %0, %1
  br i1 %cmp540.not, label %for.cond.cleanup, label %for.body

for.cond.cleanup:                                 ; preds = %if.end77, %entry
  br i1 %do_fom, label %if.then82, label %if.end240

for.body:                                         ; preds = %entry, %if.end77
  %conv542 = phi i64 [ %conv, %if.end77 ], [ 0, %entry ]
  %add.ptr.i = getelementptr inbounds %class.LoopStat, ptr %1, i64 %conv542
  %2 = load i8, ptr %add.ptr.i, align 8, !tbaa !24, !range !43, !noundef !44
  %tobool.not = icmp eq i8 %2, 0
  br i1 %tobool.not, label %if.end77, label %for.cond3.preheader

for.cond3.preheader:                              ; preds = %for.body
  %loop_length = getelementptr inbounds %class.LoopStat, ptr %1, i64 %conv542, i32 10
  %_M_finish.i345 = getelementptr inbounds %"struct.std::_Vector_base<int, std::allocator<int>>::_Vector_impl_data", ptr %loop_length, i64 0, i32 1
  %3 = load ptr, ptr %_M_finish.i345, align 8, !tbaa !45
  %4 = load ptr, ptr %loop_length, align 8, !tbaa !46
  %sub.ptr.lhs.cast.i346 = ptrtoint ptr %3 to i64
  %sub.ptr.rhs.cast.i347 = ptrtoint ptr %4 to i64
  %sub.ptr.sub.i348 = sub i64 %sub.ptr.lhs.cast.i346, %sub.ptr.rhs.cast.i347
  %sub.ptr.div.i349 = ashr exact i64 %sub.ptr.sub.i348, 2
  %cmp6537.not = icmp eq ptr %3, %4
  br i1 %cmp6537.not, label %if.end77, label %for.body8.lr.ph

for.body8.lr.ph:                                  ; preds = %for.cond3.preheader
  %loop_run_count = getelementptr inbounds %class.LoopStat, ptr %1, i64 %conv542, i32 3
  %5 = load ptr, ptr %loop_run_count, align 8, !tbaa !48
  %loop_run_time = getelementptr inbounds %class.LoopStat, ptr %1, i64 %conv542, i32 2
  %mean60 = getelementptr inbounds %class.LoopStat, ptr %1, i64 %conv542, i32 4
  %std_dev = getelementptr inbounds %class.LoopStat, ptr %1, i64 %conv542, i32 5
  %min65 = getelementptr inbounds %class.LoopStat, ptr %1, i64 %conv542, i32 6
  %max68 = getelementptr inbounds %class.LoopStat, ptr %1, i64 %conv542, i32 7
  %harm_mean = getelementptr inbounds %class.LoopStat, ptr %1, i64 %conv542, i32 8
  br label %for.body8

for.body8:                                        ; preds = %for.body8.lr.ph, %for.inc74
  %conv4539 = phi i64 [ 0, %for.body8.lr.ph ], [ %conv4, %for.inc74 ]
  %add.ptr.i350 = getelementptr inbounds i64, ptr %5, i64 %conv4539
  %6 = load i64, ptr %add.ptr.i350, align 8, !tbaa !49
  %cmp11.not = icmp eq i64 %6, 0
  br i1 %cmp11.not, label %for.inc74, label %if.then12

if.then12:                                        ; preds = %for.body8
  %7 = load ptr, ptr %loop_run_time, align 8, !tbaa !50
  %add.ptr.i351 = getelementptr inbounds %"class.std::vector.0", ptr %7, i64 %conv4539
  %_M_finish.i352 = getelementptr inbounds %"struct.std::_Vector_base<long double, std::allocator<long double>>::_Vector_impl_data", ptr %add.ptr.i351, i64 0, i32 1
  %8 = load ptr, ptr %_M_finish.i352, align 8, !tbaa !51
  %9 = load ptr, ptr %add.ptr.i351, align 8, !tbaa !52
  %sub.ptr.lhs.cast.i353 = ptrtoint ptr %8 to i64
  %sub.ptr.rhs.cast.i354 = ptrtoint ptr %9 to i64
  %sub.ptr.sub.i355 = sub i64 %sub.ptr.lhs.cast.i353, %sub.ptr.rhs.cast.i354
  %10 = lshr exact i64 %sub.ptr.sub.i355, 4
  %conv16 = trunc i64 %10 to i32
  %cmp20524.not = icmp eq i32 %conv16, 0
  br i1 %cmp20524.not, label %for.cond.cleanup21.thread, label %for.body22.preheader

for.cond.cleanup21.thread:                        ; preds = %if.then12
  %conv38578 = uitofp i32 %conv16 to x86_fp80
  %div39579 = fdiv x86_fp80 0xK00000000000000000000, %conv38578
  br label %for.cond.cleanup48

for.body22.preheader:                             ; preds = %if.then12
  %wide.trip.count = and i64 %10, 4294967295
  %11 = add nsw i64 %wide.trip.count, -1
  %xtraiter = and i64 %10, 1
  %12 = icmp eq i64 %11, 0
  br i1 %12, label %for.cond.cleanup21.unr-lcssa, label %for.body22.preheader.new

for.body22.preheader.new:                         ; preds = %for.body22.preheader
  %unroll_iter = sub nsw i64 %wide.trip.count, %xtraiter
  br label %for.body22

for.cond.cleanup21.unr-lcssa:                     ; preds = %for.inc.1, %for.body22.preheader
  %harm.1.lcssa.ph = phi x86_fp80 [ undef, %for.body22.preheader ], [ %harm.1.1, %for.inc.1 ]
  %add.lcssa.ph = phi x86_fp80 [ undef, %for.body22.preheader ], [ %add.1, %for.inc.1 ]
  %.lcssa626.ph = phi x86_fp80 [ undef, %for.body22.preheader ], [ %21, %for.inc.1 ]
  %.lcssa.ph = phi x86_fp80 [ undef, %for.body22.preheader ], [ %22, %for.inc.1 ]
  %indvars.iv.unr = phi i64 [ 0, %for.body22.preheader ], [ %indvars.iv.next.1, %for.inc.1 ]
  %mean.0529.unr = phi x86_fp80 [ 0xK00000000000000000000, %for.body22.preheader ], [ %add.1, %for.inc.1 ]
  %harm.0527.unr = phi x86_fp80 [ 0xK00000000000000000000, %for.body22.preheader ], [ %harm.1.1, %for.inc.1 ]
  %max.sroa.0.0.max.sroa.0.0.521522526.unr = phi x86_fp80 [ 0xKFFFEFFFFFFFFFFFFFFFF, %for.body22.preheader ], [ %21, %for.inc.1 ]
  %min.sroa.0.0.min.sroa.0.0.520523525.unr = phi x86_fp80 [ 0xK7FFEFFFFFFFFFFFFFFFF, %for.body22.preheader ], [ %22, %for.inc.1 ]
  %lcmp.mod.not = icmp eq i64 %xtraiter, 0
  br i1 %lcmp.mod.not, label %for.cond.cleanup21, label %for.body22.epil

for.body22.epil:                                  ; preds = %for.cond.cleanup21.unr-lcssa
  %add.ptr.i357.epil = getelementptr inbounds x86_fp80, ptr %9, i64 %indvars.iv.unr
  %13 = load x86_fp80, ptr %add.ptr.i357.epil, align 16
  %add.epil = fadd x86_fp80 %mean.0529.unr, %13
  %cmp.i.epil = fcmp olt x86_fp80 %max.sroa.0.0.max.sroa.0.0.521522526.unr, %13
  %14 = select i1 %cmp.i.epil, x86_fp80 %13, x86_fp80 %max.sroa.0.0.max.sroa.0.0.521522526.unr
  %cmp.i360.epil = fcmp olt x86_fp80 %13, %min.sroa.0.0.min.sroa.0.0.520523525.unr
  %15 = select i1 %cmp.i360.epil, x86_fp80 %13, x86_fp80 %min.sroa.0.0.min.sroa.0.0.520523525.unr
  %cmp33.epil = fcmp ogt x86_fp80 %13, 0xK00000000000000000000
  br i1 %cmp33.epil, label %if.then34.epil, label %for.cond.cleanup21

if.then34.epil:                                   ; preds = %for.body22.epil
  %div.epil = fdiv x86_fp80 0xK3FFF8000000000000000, %13
  %add37.epil = fadd x86_fp80 %harm.0527.unr, %div.epil
  br label %for.cond.cleanup21

for.cond.cleanup21:                               ; preds = %for.body22.epil, %if.then34.epil, %for.cond.cleanup21.unr-lcssa
  %harm.1.lcssa = phi x86_fp80 [ %harm.1.lcssa.ph, %for.cond.cleanup21.unr-lcssa ], [ %add37.epil, %if.then34.epil ], [ %harm.0527.unr, %for.body22.epil ]
  %add.lcssa = phi x86_fp80 [ %add.lcssa.ph, %for.cond.cleanup21.unr-lcssa ], [ %add.epil, %if.then34.epil ], [ %add.epil, %for.body22.epil ]
  %.lcssa626 = phi x86_fp80 [ %.lcssa626.ph, %for.cond.cleanup21.unr-lcssa ], [ %14, %if.then34.epil ], [ %14, %for.body22.epil ]
  %.lcssa = phi x86_fp80 [ %.lcssa.ph, %for.cond.cleanup21.unr-lcssa ], [ %15, %if.then34.epil ], [ %15, %for.body22.epil ]
  %conv38 = uitofp i32 %conv16 to x86_fp80
  %div39 = fdiv x86_fp80 %add.lcssa, %conv38
  %cmp40 = fcmp ogt x86_fp80 %harm.1.lcssa, 0xK00000000000000000000
  %div43 = fdiv x86_fp80 %conv38, %harm.1.lcssa
  %harm.2 = select i1 %cmp40, x86_fp80 %div43, x86_fp80 %harm.1.lcssa
  br i1 %cmp20524.not, label %for.cond.cleanup48, label %for.body49.preheader

for.body49.preheader:                             ; preds = %for.cond.cleanup21
  %xtraiter632 = and i64 %10, 3
  %16 = icmp ult i64 %11, 3
  br i1 %16, label %for.cond.cleanup48.loopexit.unr-lcssa, label %for.body49.preheader.new

for.body49.preheader.new:                         ; preds = %for.body49.preheader
  %unroll_iter635 = sub nsw i64 %wide.trip.count, %xtraiter632
  br label %for.body49

for.body22:                                       ; preds = %for.inc.1, %for.body22.preheader.new
  %indvars.iv = phi i64 [ 0, %for.body22.preheader.new ], [ %indvars.iv.next.1, %for.inc.1 ]
  %mean.0529 = phi x86_fp80 [ 0xK00000000000000000000, %for.body22.preheader.new ], [ %add.1, %for.inc.1 ]
  %harm.0527 = phi x86_fp80 [ 0xK00000000000000000000, %for.body22.preheader.new ], [ %harm.1.1, %for.inc.1 ]
  %max.sroa.0.0.max.sroa.0.0.521522526 = phi x86_fp80 [ 0xKFFFEFFFFFFFFFFFFFFFF, %for.body22.preheader.new ], [ %21, %for.inc.1 ]
  %min.sroa.0.0.min.sroa.0.0.520523525 = phi x86_fp80 [ 0xK7FFEFFFFFFFFFFFFFFFF, %for.body22.preheader.new ], [ %22, %for.inc.1 ]
  %niter = phi i64 [ 0, %for.body22.preheader.new ], [ %niter.next.1, %for.inc.1 ]
  %add.ptr.i357 = getelementptr inbounds x86_fp80, ptr %9, i64 %indvars.iv
  %17 = load x86_fp80, ptr %add.ptr.i357, align 16
  %add = fadd x86_fp80 %mean.0529, %17
  %cmp.i = fcmp olt x86_fp80 %max.sroa.0.0.max.sroa.0.0.521522526, %17
  %18 = select i1 %cmp.i, x86_fp80 %17, x86_fp80 %max.sroa.0.0.max.sroa.0.0.521522526
  %cmp.i360 = fcmp olt x86_fp80 %17, %min.sroa.0.0.min.sroa.0.0.520523525
  %19 = select i1 %cmp.i360, x86_fp80 %17, x86_fp80 %min.sroa.0.0.min.sroa.0.0.520523525
  %cmp33 = fcmp ogt x86_fp80 %17, 0xK00000000000000000000
  br i1 %cmp33, label %if.then34, label %for.inc

if.then34:                                        ; preds = %for.body22
  %div = fdiv x86_fp80 0xK3FFF8000000000000000, %17
  %add37 = fadd x86_fp80 %harm.0527, %div
  br label %for.inc

for.inc:                                          ; preds = %for.body22, %if.then34
  %harm.1 = phi x86_fp80 [ %add37, %if.then34 ], [ %harm.0527, %for.body22 ]
  %indvars.iv.next = or i64 %indvars.iv, 1
  %add.ptr.i357.1 = getelementptr inbounds x86_fp80, ptr %9, i64 %indvars.iv.next
  %20 = load x86_fp80, ptr %add.ptr.i357.1, align 16
  %add.1 = fadd x86_fp80 %add, %20
  %cmp.i.1 = fcmp olt x86_fp80 %18, %20
  %21 = select i1 %cmp.i.1, x86_fp80 %20, x86_fp80 %18
  %cmp.i360.1 = fcmp olt x86_fp80 %20, %19
  %22 = select i1 %cmp.i360.1, x86_fp80 %20, x86_fp80 %19
  %cmp33.1 = fcmp ogt x86_fp80 %20, 0xK00000000000000000000
  br i1 %cmp33.1, label %if.then34.1, label %for.inc.1

if.then34.1:                                      ; preds = %for.inc
  %div.1 = fdiv x86_fp80 0xK3FFF8000000000000000, %20
  %add37.1 = fadd x86_fp80 %harm.1, %div.1
  br label %for.inc.1

for.inc.1:                                        ; preds = %if.then34.1, %for.inc
  %harm.1.1 = phi x86_fp80 [ %add37.1, %if.then34.1 ], [ %harm.1, %for.inc ]
  %indvars.iv.next.1 = add nuw nsw i64 %indvars.iv, 2
  %niter.next.1 = add i64 %niter, 2
  %niter.ncmp.1 = icmp eq i64 %niter.next.1, %unroll_iter
  br i1 %niter.ncmp.1, label %for.cond.cleanup21.unr-lcssa, label %for.body22, !llvm.loop !135

for.cond.cleanup48.loopexit.unr-lcssa:            ; preds = %for.body49, %for.body49.preheader
  %.lcssa627.ph = phi x86_fp80 [ undef, %for.body49.preheader ], [ %37, %for.body49 ]
  %indvars.iv556.unr = phi i64 [ 0, %for.body49.preheader ], [ %indvars.iv.next557.3, %for.body49 ]
  %sdev.0535.unr = phi x86_fp80 [ 0xK00000000000000000000, %for.body49.preheader ], [ %37, %for.body49 ]
  %lcmp.mod633.not = icmp eq i64 %xtraiter632, 0
  br i1 %lcmp.mod633.not, label %for.cond.cleanup48, label %for.body49.epil

for.body49.epil:                                  ; preds = %for.cond.cleanup48.loopexit.unr-lcssa, %for.body49.epil
  %indvars.iv556.epil = phi i64 [ %indvars.iv.next557.epil, %for.body49.epil ], [ %indvars.iv556.unr, %for.cond.cleanup48.loopexit.unr-lcssa ]
  %sdev.0535.epil = phi x86_fp80 [ %24, %for.body49.epil ], [ %sdev.0535.unr, %for.cond.cleanup48.loopexit.unr-lcssa ]
  %epil.iter = phi i64 [ %epil.iter.next, %for.body49.epil ], [ 0, %for.cond.cleanup48.loopexit.unr-lcssa ]
  %add.ptr.i369.epil = getelementptr inbounds x86_fp80, ptr %9, i64 %indvars.iv556.epil
  %23 = load x86_fp80, ptr %add.ptr.i369.epil, align 16, !tbaa !53
  %sub.epil = fsub x86_fp80 %23, %div39
  %24 = tail call x86_fp80 @llvm.fmuladd.f80(x86_fp80 %sub.epil, x86_fp80 %sub.epil, x86_fp80 %sdev.0535.epil)
  %indvars.iv.next557.epil = add nuw nsw i64 %indvars.iv556.epil, 1
  %epil.iter.next = add i64 %epil.iter, 1
  %epil.iter.cmp.not = icmp eq i64 %epil.iter.next, %xtraiter632
  br i1 %epil.iter.cmp.not, label %for.cond.cleanup48, label %for.body49.epil, !llvm.loop !136

for.cond.cleanup48:                               ; preds = %for.cond.cleanup48.loopexit.unr-lcssa, %for.body49.epil, %for.cond.cleanup21.thread, %for.cond.cleanup21
  %harm.2587 = phi x86_fp80 [ %harm.2, %for.cond.cleanup21 ], [ 0xK00000000000000000000, %for.cond.cleanup21.thread ], [ %harm.2, %for.body49.epil ], [ %harm.2, %for.cond.cleanup48.loopexit.unr-lcssa ]
  %div39586 = phi x86_fp80 [ %div39, %for.cond.cleanup21 ], [ %div39579, %for.cond.cleanup21.thread ], [ %div39, %for.body49.epil ], [ %div39, %for.cond.cleanup48.loopexit.unr-lcssa ]
  %conv38585 = phi x86_fp80 [ %conv38, %for.cond.cleanup21 ], [ %conv38578, %for.cond.cleanup21.thread ], [ %conv38, %for.body49.epil ], [ %conv38, %for.cond.cleanup48.loopexit.unr-lcssa ]
  %max.sroa.0.0.max.sroa.0.0.521522.lcssa584 = phi x86_fp80 [ %.lcssa626, %for.cond.cleanup21 ], [ 0xKFFFEFFFFFFFFFFFFFFFF, %for.cond.cleanup21.thread ], [ %.lcssa626, %for.body49.epil ], [ %.lcssa626, %for.cond.cleanup48.loopexit.unr-lcssa ]
  %min.sroa.0.0.min.sroa.0.0.520523.lcssa583 = phi x86_fp80 [ %.lcssa, %for.cond.cleanup21 ], [ 0xK7FFEFFFFFFFFFFFFFFFF, %for.cond.cleanup21.thread ], [ %.lcssa, %for.body49.epil ], [ %.lcssa, %for.cond.cleanup48.loopexit.unr-lcssa ]
  %sdev.0.lcssa = phi x86_fp80 [ 0xK00000000000000000000, %for.cond.cleanup21 ], [ 0xK00000000000000000000, %for.cond.cleanup21.thread ], [ %.lcssa627.ph, %for.cond.cleanup48.loopexit.unr-lcssa ], [ %24, %for.body49.epil ]
  %div59 = fdiv x86_fp80 %sdev.0.lcssa, %conv38585
  %25 = load ptr, ptr %mean60, align 8, !tbaa !52
  %add.ptr.i364 = getelementptr inbounds x86_fp80, ptr %25, i64 %conv4539
  store x86_fp80 %div39586, ptr %add.ptr.i364, align 16, !tbaa !53
  %26 = load ptr, ptr %std_dev, align 8, !tbaa !52
  %add.ptr.i365 = getelementptr inbounds x86_fp80, ptr %26, i64 %conv4539
  store x86_fp80 %div59, ptr %add.ptr.i365, align 16, !tbaa !53
  %27 = load ptr, ptr %min65, align 8, !tbaa !52
  %add.ptr.i366 = getelementptr inbounds x86_fp80, ptr %27, i64 %conv4539
  store x86_fp80 %min.sroa.0.0.min.sroa.0.0.520523.lcssa583, ptr %add.ptr.i366, align 16, !tbaa !53
  %28 = load ptr, ptr %max68, align 8, !tbaa !52
  %add.ptr.i367 = getelementptr inbounds x86_fp80, ptr %28, i64 %conv4539
  store x86_fp80 %max.sroa.0.0.max.sroa.0.0.521522.lcssa584, ptr %add.ptr.i367, align 16, !tbaa !53
  %29 = load ptr, ptr %harm_mean, align 8, !tbaa !52
  %add.ptr.i368 = getelementptr inbounds x86_fp80, ptr %29, i64 %conv4539
  store x86_fp80 %harm.2587, ptr %add.ptr.i368, align 16, !tbaa !53
  br label %for.inc74

for.body49:                                       ; preds = %for.body49, %for.body49.preheader.new
  %indvars.iv556 = phi i64 [ 0, %for.body49.preheader.new ], [ %indvars.iv.next557.3, %for.body49 ]
  %sdev.0535 = phi x86_fp80 [ 0xK00000000000000000000, %for.body49.preheader.new ], [ %37, %for.body49 ]
  %niter636 = phi i64 [ 0, %for.body49.preheader.new ], [ %niter636.next.3, %for.body49 ]
  %add.ptr.i369 = getelementptr inbounds x86_fp80, ptr %9, i64 %indvars.iv556
  %30 = load x86_fp80, ptr %add.ptr.i369, align 16, !tbaa !53
  %sub = fsub x86_fp80 %30, %div39
  %31 = tail call x86_fp80 @llvm.fmuladd.f80(x86_fp80 %sub, x86_fp80 %sub, x86_fp80 %sdev.0535)
  %indvars.iv.next557 = or i64 %indvars.iv556, 1
  %add.ptr.i369.1 = getelementptr inbounds x86_fp80, ptr %9, i64 %indvars.iv.next557
  %32 = load x86_fp80, ptr %add.ptr.i369.1, align 16, !tbaa !53
  %sub.1 = fsub x86_fp80 %32, %div39
  %33 = tail call x86_fp80 @llvm.fmuladd.f80(x86_fp80 %sub.1, x86_fp80 %sub.1, x86_fp80 %31)
  %indvars.iv.next557.1 = or i64 %indvars.iv556, 2
  %add.ptr.i369.2 = getelementptr inbounds x86_fp80, ptr %9, i64 %indvars.iv.next557.1
  %34 = load x86_fp80, ptr %add.ptr.i369.2, align 16, !tbaa !53
  %sub.2 = fsub x86_fp80 %34, %div39
  %35 = tail call x86_fp80 @llvm.fmuladd.f80(x86_fp80 %sub.2, x86_fp80 %sub.2, x86_fp80 %33)
  %indvars.iv.next557.2 = or i64 %indvars.iv556, 3
  %add.ptr.i369.3 = getelementptr inbounds x86_fp80, ptr %9, i64 %indvars.iv.next557.2
  %36 = load x86_fp80, ptr %add.ptr.i369.3, align 16, !tbaa !53
  %sub.3 = fsub x86_fp80 %36, %div39
  %37 = tail call x86_fp80 @llvm.fmuladd.f80(x86_fp80 %sub.3, x86_fp80 %sub.3, x86_fp80 %35)
  %indvars.iv.next557.3 = add nuw nsw i64 %indvars.iv556, 4
  %niter636.next.3 = add i64 %niter636, 4
  %niter636.ncmp.3 = icmp eq i64 %niter636.next.3, %unroll_iter635
  br i1 %niter636.ncmp.3, label %for.cond.cleanup48.loopexit.unr-lcssa, label %for.body49, !llvm.loop !137

for.inc74:                                        ; preds = %for.body8, %for.cond.cleanup48
  %inc75 = add nuw nsw i64 %conv4539, 1
  %conv4 = and i64 %inc75, 4294967295
  %cmp6 = icmp ugt i64 %sub.ptr.div.i349, %conv4
  br i1 %cmp6, label %for.body8, label %if.end77, !llvm.loop !138

if.end77:                                         ; preds = %for.inc74, %for.cond3.preheader, %for.body
  %inc79 = add nuw nsw i64 %conv542, 1
  %conv = and i64 %inc79, 4294967295
  %cmp = icmp ugt i64 %sub.ptr.div.i, %conv
  br i1 %cmp, label %for.body, label %for.cond.cleanup, !llvm.loop !139

if.then82:                                        ; preds = %for.cond.cleanup
  %38 = load ptr, ptr @_ZL21s_loop_suite_run_info, align 8, !tbaa !59
  %num_loop_lengths = getelementptr inbounds %class.LoopSuiteRunInfo, ptr %38, i64 0, i32 3
  %39 = load i32, ptr %num_loop_lengths, align 16, !tbaa !101
  %cmp.not.i.i.i.i = icmp eq i32 %39, 0
  br i1 %cmp.not.i.i.i.i, label %invoke.cont110, label %invoke.cont

invoke.cont:                                      ; preds = %if.then82
  %conv85 = zext i32 %39 to i64
  %mul.i.i.i.i.i.i = shl nuw nsw i64 %conv85, 2
  %call5.i.i.i.i4.i.i371 = tail call noalias noundef nonnull ptr @_Znwm(i64 noundef %mul.i.i.i.i.i.i) #23
  tail call void @llvm.memset.p0.i64(ptr nonnull align 4 %call5.i.i.i.i4.i.i371, i8 0, i64 %mul.i.i.i.i.i.i, i1 false), !tbaa !47
  %.pre = load i32, ptr %num_loop_lengths, align 16, !tbaa !101
  %conv88 = zext i32 %.pre to i64
  %cmp.not.i.i.i.i372 = icmp eq i32 %.pre, 0
  br i1 %cmp.not.i.i.i.i372, label %invoke.cont110, label %if.end.i.i.i.i.i.i.i376

if.end.i.i.i.i.i.i.i376:                          ; preds = %invoke.cont
  %mul.i.i.i.i.i.i373 = shl nuw nsw i64 %conv88, 4
  %call5.i.i.i.i4.i.i384 = invoke noalias noundef nonnull ptr @_Znwm(i64 noundef %mul.i.i.i.i.i.i373) #23
          to label %call5.i.i.i.i4.i.i.noexc383 unwind label %lpad91

call5.i.i.i.i4.i.i.noexc383:                      ; preds = %if.end.i.i.i.i.i.i.i376
  %add.ptr.i.i.i374 = getelementptr inbounds x86_fp80, ptr %call5.i.i.i.i4.i.i384, i64 %conv88
  br label %for.body.i.i.i.i.i.i.i.i.i380

for.body.i.i.i.i.i.i.i.i.i380:                    ; preds = %for.body.i.i.i.i.i.i.i.i.i380, %call5.i.i.i.i4.i.i.noexc383
  %__first.addr.04.i.i.i.i.i.i.i.i.i377 = phi ptr [ %incdec.ptr.i.i.i.i.i.i.i.i.i378, %for.body.i.i.i.i.i.i.i.i.i380 ], [ %call5.i.i.i.i4.i.i384, %call5.i.i.i.i4.i.i.noexc383 ]
  store x86_fp80 0xK00000000000000000000, ptr %__first.addr.04.i.i.i.i.i.i.i.i.i377, align 16, !tbaa !53
  %incdec.ptr.i.i.i.i.i.i.i.i.i378 = getelementptr inbounds x86_fp80, ptr %__first.addr.04.i.i.i.i.i.i.i.i.i377, i64 1
  %cmp.not.i.i.i.i.i.i.i.i.i379 = icmp eq ptr %incdec.ptr.i.i.i.i.i.i.i.i.i378, %add.ptr.i.i.i374
  br i1 %cmp.not.i.i.i.i.i.i.i.i.i379, label %invoke.cont92, label %for.body.i.i.i.i.i.i.i.i.i380, !llvm.loop !140

invoke.cont92:                                    ; preds = %for.body.i.i.i.i.i.i.i.i.i380
  %.pre571 = load i32, ptr %num_loop_lengths, align 16, !tbaa !101
  %conv94 = zext i32 %.pre571 to i64
  %cmp.not.i.i.i.i385 = icmp eq i32 %.pre571, 0
  br i1 %cmp.not.i.i.i.i385, label %invoke.cont110, label %if.end.i.i.i.i.i.i.i390

if.end.i.i.i.i.i.i.i390:                          ; preds = %invoke.cont92
  %mul.i.i.i.i.i.i387 = shl nuw nsw i64 %conv94, 4
  %call5.i.i.i.i4.i.i398 = invoke noalias noundef nonnull ptr @_Znwm(i64 noundef %mul.i.i.i.i.i.i387) #23
          to label %call5.i.i.i.i4.i.i.noexc397 unwind label %lpad97

call5.i.i.i.i4.i.i.noexc397:                      ; preds = %if.end.i.i.i.i.i.i.i390
  %add.ptr.i.i.i388 = getelementptr inbounds x86_fp80, ptr %call5.i.i.i.i4.i.i398, i64 %conv94
  br label %for.body.i.i.i.i.i.i.i.i.i394

for.body.i.i.i.i.i.i.i.i.i394:                    ; preds = %for.body.i.i.i.i.i.i.i.i.i394, %call5.i.i.i.i4.i.i.noexc397
  %__first.addr.04.i.i.i.i.i.i.i.i.i391 = phi ptr [ %incdec.ptr.i.i.i.i.i.i.i.i.i392, %for.body.i.i.i.i.i.i.i.i.i394 ], [ %call5.i.i.i.i4.i.i398, %call5.i.i.i.i4.i.i.noexc397 ]
  store x86_fp80 0xK00000000000000000000, ptr %__first.addr.04.i.i.i.i.i.i.i.i.i391, align 16, !tbaa !53
  %incdec.ptr.i.i.i.i.i.i.i.i.i392 = getelementptr inbounds x86_fp80, ptr %__first.addr.04.i.i.i.i.i.i.i.i.i391, i64 1
  %cmp.not.i.i.i.i.i.i.i.i.i393 = icmp eq ptr %incdec.ptr.i.i.i.i.i.i.i.i.i392, %add.ptr.i.i.i388
  br i1 %cmp.not.i.i.i.i.i.i.i.i.i393, label %invoke.cont98, label %for.body.i.i.i.i.i.i.i.i.i394, !llvm.loop !140

invoke.cont98:                                    ; preds = %for.body.i.i.i.i.i.i.i.i.i394
  %.pre572 = load i32, ptr %num_loop_lengths, align 16, !tbaa !101
  %conv100 = zext i32 %.pre572 to i64
  %cmp.not.i.i.i.i400 = icmp eq i32 %.pre572, 0
  br i1 %cmp.not.i.i.i.i400, label %invoke.cont110, label %if.end.i.i.i.i.i.i.i405

if.end.i.i.i.i.i.i.i405:                          ; preds = %invoke.cont98
  %mul.i.i.i.i.i.i402 = shl nuw nsw i64 %conv100, 4
  %call5.i.i.i.i4.i.i413 = invoke noalias noundef nonnull ptr @_Znwm(i64 noundef %mul.i.i.i.i.i.i402) #23
          to label %call5.i.i.i.i4.i.i.noexc412 unwind label %lpad103

call5.i.i.i.i4.i.i.noexc412:                      ; preds = %if.end.i.i.i.i.i.i.i405
  %add.ptr.i.i.i403 = getelementptr inbounds x86_fp80, ptr %call5.i.i.i.i4.i.i413, i64 %conv100
  br label %for.body.i.i.i.i.i.i.i.i.i409

for.body.i.i.i.i.i.i.i.i.i409:                    ; preds = %for.body.i.i.i.i.i.i.i.i.i409, %call5.i.i.i.i4.i.i.noexc412
  %__first.addr.04.i.i.i.i.i.i.i.i.i406 = phi ptr [ %incdec.ptr.i.i.i.i.i.i.i.i.i407, %for.body.i.i.i.i.i.i.i.i.i409 ], [ %call5.i.i.i.i4.i.i413, %call5.i.i.i.i4.i.i.noexc412 ]
  store x86_fp80 0xK00000000000000000000, ptr %__first.addr.04.i.i.i.i.i.i.i.i.i406, align 16, !tbaa !53
  %incdec.ptr.i.i.i.i.i.i.i.i.i407 = getelementptr inbounds x86_fp80, ptr %__first.addr.04.i.i.i.i.i.i.i.i.i406, i64 1
  %cmp.not.i.i.i.i.i.i.i.i.i408 = icmp eq ptr %incdec.ptr.i.i.i.i.i.i.i.i.i407, %add.ptr.i.i.i403
  br i1 %cmp.not.i.i.i.i.i.i.i.i.i408, label %invoke.cont104, label %for.body.i.i.i.i.i.i.i.i.i409, !llvm.loop !140

invoke.cont104:                                   ; preds = %for.body.i.i.i.i.i.i.i.i.i409
  %.pre573 = load i32, ptr %num_loop_lengths, align 16, !tbaa !101
  %conv106 = zext i32 %.pre573 to i64
  %cmp.not.i.i.i.i415 = icmp eq i32 %.pre573, 0
  br i1 %cmp.not.i.i.i.i415, label %invoke.cont110, label %if.end.i.i.i.i.i.i.i420

if.end.i.i.i.i.i.i.i420:                          ; preds = %invoke.cont104
  %mul.i.i.i.i.i.i417 = shl nuw nsw i64 %conv106, 4
  %call5.i.i.i.i4.i.i428 = invoke noalias noundef nonnull ptr @_Znwm(i64 noundef %mul.i.i.i.i.i.i417) #23
          to label %call5.i.i.i.i4.i.i.noexc427 unwind label %if.then.i.i.i

call5.i.i.i.i4.i.i.noexc427:                      ; preds = %if.end.i.i.i.i.i.i.i420
  %add.ptr.i.i.i418 = getelementptr inbounds x86_fp80, ptr %call5.i.i.i.i4.i.i428, i64 %conv106
  br label %for.body.i.i.i.i.i.i.i.i.i424

for.body.i.i.i.i.i.i.i.i.i424:                    ; preds = %for.body.i.i.i.i.i.i.i.i.i424, %call5.i.i.i.i4.i.i.noexc427
  %__first.addr.04.i.i.i.i.i.i.i.i.i421 = phi ptr [ %incdec.ptr.i.i.i.i.i.i.i.i.i422, %for.body.i.i.i.i.i.i.i.i.i424 ], [ %call5.i.i.i.i4.i.i428, %call5.i.i.i.i4.i.i.noexc427 ]
  store x86_fp80 0xK00000000000000000000, ptr %__first.addr.04.i.i.i.i.i.i.i.i.i421, align 16, !tbaa !53
  %incdec.ptr.i.i.i.i.i.i.i.i.i422 = getelementptr inbounds x86_fp80, ptr %__first.addr.04.i.i.i.i.i.i.i.i.i421, i64 1
  %cmp.not.i.i.i.i.i.i.i.i.i423 = icmp eq ptr %incdec.ptr.i.i.i.i.i.i.i.i.i422, %add.ptr.i.i.i418
  br i1 %cmp.not.i.i.i.i.i.i.i.i.i423, label %invoke.cont110, label %for.body.i.i.i.i.i.i.i.i.i424, !llvm.loop !140

invoke.cont110:                                   ; preds = %for.body.i.i.i.i.i.i.i.i.i424, %if.then82, %invoke.cont, %invoke.cont92, %invoke.cont98, %invoke.cont104
  %fom_rel.sroa.0.0621 = phi ptr [ %call5.i.i.i.i4.i.i413, %invoke.cont104 ], [ null, %invoke.cont98 ], [ null, %invoke.cont92 ], [ null, %invoke.cont ], [ null, %if.then82 ], [ %call5.i.i.i.i4.i.i413, %for.body.i.i.i.i.i.i.i.i.i424 ]
  %tot_weight.sroa.0.0599606620 = phi ptr [ %call5.i.i.i.i4.i.i384, %invoke.cont104 ], [ %call5.i.i.i.i4.i.i384, %invoke.cont98 ], [ %call5.i.i.i.i4.i.i384, %invoke.cont92 ], [ null, %invoke.cont ], [ null, %if.then82 ], [ %call5.i.i.i.i4.i.i384, %for.body.i.i.i.i.i.i.i.i.i424 ]
  %num_loops_run.sroa.0.0591598608619 = phi ptr [ %call5.i.i.i.i4.i.i371, %invoke.cont104 ], [ %call5.i.i.i.i4.i.i371, %invoke.cont98 ], [ %call5.i.i.i.i4.i.i371, %invoke.cont92 ], [ %call5.i.i.i.i4.i.i371, %invoke.cont ], [ null, %if.then82 ], [ %call5.i.i.i.i4.i.i371, %for.body.i.i.i.i.i.i.i.i.i424 ]
  %tot_time.sroa.0.0610618 = phi ptr [ %call5.i.i.i.i4.i.i398, %invoke.cont104 ], [ %call5.i.i.i.i4.i.i398, %invoke.cont98 ], [ null, %invoke.cont92 ], [ null, %invoke.cont ], [ null, %if.then82 ], [ %call5.i.i.i.i4.i.i398, %for.body.i.i.i.i.i.i.i.i.i424 ]
  %fom_rate.sroa.0.0 = phi ptr [ null, %invoke.cont104 ], [ null, %invoke.cont98 ], [ null, %invoke.cont92 ], [ null, %invoke.cont ], [ null, %if.then82 ], [ %call5.i.i.i.i4.i.i428, %for.body.i.i.i.i.i.i.i.i.i424 ]
  br i1 %cmp540.not, label %for.cond182.preheader, label %for.body117

for.cond182.preheader:                            ; preds = %if.end177, %invoke.cont110
  %40 = load i32, ptr %num_loop_lengths, align 16, !tbaa !101
  %cmp184551.not = icmp eq i32 %40, 0
  br i1 %cmp184551.not, label %for.cond.cleanup185, label %for.body186.lr.ph

for.body186.lr.ph:                                ; preds = %for.cond182.preheader
  %num_loops_run189 = getelementptr inbounds %class.LoopSuiteRunInfo, ptr %38, i64 0, i32 10
  %conv190 = zext i32 %ilv to i64
  %41 = load ptr, ptr %num_loops_run189, align 8, !tbaa !119
  %add.ptr.i467 = getelementptr inbounds %"class.std::vector.10", ptr %41, i64 %conv190
  %42 = load ptr, ptr %add.ptr.i467, align 8, !tbaa !46
  %tot_time196 = getelementptr inbounds %class.LoopSuiteRunInfo, ptr %38, i64 0, i32 11
  %43 = load ptr, ptr %tot_time196, align 8, !tbaa !50
  %add.ptr.i470 = getelementptr inbounds %"class.std::vector.0", ptr %43, i64 %conv190
  %44 = load ptr, ptr %add.ptr.i470, align 8, !tbaa !52
  %loop_run_time201 = getelementptr inbounds %class.LoopSuiteRunInfo, ptr %38, i64 0, i32 8, i32 2
  %fom_rel215 = getelementptr inbounds %class.LoopSuiteRunInfo, ptr %38, i64 0, i32 12
  %fom_rate223 = getelementptr inbounds %class.LoopSuiteRunInfo, ptr %38, i64 0, i32 13
  br label %for.body186

lpad91:                                           ; preds = %if.end.i.i.i.i.i.i.i376
  %45 = landingpad { ptr, i32 }
          cleanup
  br label %ehcleanup237

lpad97:                                           ; preds = %if.end.i.i.i.i.i.i.i390
  %46 = landingpad { ptr, i32 }
          cleanup
  br label %if.then.i.i.i485

lpad103:                                          ; preds = %if.end.i.i.i.i.i.i.i405
  %47 = landingpad { ptr, i32 }
          cleanup
  br label %if.then.i.i.i482

if.then.i.i.i:                                    ; preds = %if.end.i.i.i.i.i.i.i420
  %48 = landingpad { ptr, i32 }
          cleanup
  tail call void @_ZdlPv(ptr noundef nonnull %call5.i.i.i.i4.i.i413) #25
  br label %if.then.i.i.i482

for.body117:                                      ; preds = %invoke.cont110, %if.end177
  %indvars.iv563 = phi i64 [ %indvars.iv.next564, %if.end177 ], [ 0, %invoke.cont110 ]
  %add.ptr.i435 = getelementptr inbounds %class.LoopStat, ptr %1, i64 %indvars.iv563
  %49 = load i8, ptr %add.ptr.i435, align 8, !tbaa !24, !range !43, !noundef !44
  %tobool122.not = icmp eq i8 %49, 0
  br i1 %tobool122.not, label %if.end177, label %for.cond125.preheader

for.cond125.preheader:                            ; preds = %for.body117
  %loop_length127 = getelementptr inbounds %class.LoopStat, ptr %1, i64 %indvars.iv563, i32 10
  %_M_finish.i436 = getelementptr inbounds %"struct.std::_Vector_base<int, std::allocator<int>>::_Vector_impl_data", ptr %loop_length127, i64 0, i32 1
  %50 = load ptr, ptr %_M_finish.i436, align 8, !tbaa !45
  %51 = load ptr, ptr %loop_length127, align 8, !tbaa !46
  %sub.ptr.lhs.cast.i437 = ptrtoint ptr %50 to i64
  %sub.ptr.rhs.cast.i438 = ptrtoint ptr %51 to i64
  %sub.ptr.sub.i439 = sub i64 %sub.ptr.lhs.cast.i437, %sub.ptr.rhs.cast.i438
  %sub.ptr.div.i440 = ashr exact i64 %sub.ptr.sub.i439, 2
  %cmp129545.not = icmp eq ptr %50, %51
  br i1 %cmp129545.not, label %if.end177, label %for.body131.lr.ph

for.body131.lr.ph:                                ; preds = %for.cond125.preheader
  %loop_run_count132 = getelementptr inbounds %class.LoopStat, ptr %1, i64 %indvars.iv563, i32 3
  %52 = load ptr, ptr %loop_run_count132, align 8, !tbaa !48
  %loop_weight = getelementptr inbounds %class.LoopStat, ptr %1, i64 %indvars.iv563, i32 1
  %mean144 = getelementptr inbounds %class.LoopStat, ptr %1, i64 %indvars.iv563, i32 4
  %samples_per_pass = getelementptr inbounds %class.LoopStat, ptr %1, i64 %indvars.iv563, i32 11
  br label %for.body131

for.body131:                                      ; preds = %for.body131.lr.ph, %for.inc174
  %conv126547 = phi i64 [ 0, %for.body131.lr.ph ], [ %conv126, %for.inc174 ]
  %add.ptr.i441 = getelementptr inbounds i64, ptr %52, i64 %conv126547
  %53 = load i64, ptr %add.ptr.i441, align 8, !tbaa !49
  %cmp135.not = icmp eq i64 %53, 0
  br i1 %cmp135.not, label %for.inc174, label %if.then136

if.then136:                                       ; preds = %for.body131
  %add.ptr.i442 = getelementptr inbounds i32, ptr %num_loops_run.sroa.0.0591598608619, i64 %conv126547
  %54 = load i32, ptr %add.ptr.i442, align 4, !tbaa !47
  %inc139 = add nsw i32 %54, 1
  store i32 %inc139, ptr %add.ptr.i442, align 4, !tbaa !47
  %55 = load double, ptr %loop_weight, align 8, !tbaa !141
  %conv140 = fpext double %55 to x86_fp80
  %add.ptr.i443 = getelementptr inbounds x86_fp80, ptr %tot_weight.sroa.0.0599606620, i64 %conv126547
  %56 = load x86_fp80, ptr %add.ptr.i443, align 16, !tbaa !53
  %add143 = fadd x86_fp80 %56, %conv140
  store x86_fp80 %add143, ptr %add.ptr.i443, align 16, !tbaa !53
  %57 = load ptr, ptr %mean144, align 8, !tbaa !52
  %add.ptr.i444 = getelementptr inbounds x86_fp80, ptr %57, i64 %conv126547
  %58 = load x86_fp80, ptr %add.ptr.i444, align 16, !tbaa !53
  %add.ptr.i445 = getelementptr inbounds x86_fp80, ptr %tot_time.sroa.0.0610618, i64 %conv126547
  %59 = load x86_fp80, ptr %add.ptr.i445, align 16, !tbaa !53
  %add149 = fadd x86_fp80 %58, %59
  store x86_fp80 %add149, ptr %add.ptr.i445, align 16, !tbaa !53
  %60 = load x86_fp80, ptr %add.ptr.i444, align 16, !tbaa !53
  %add.ptr.i447 = getelementptr inbounds x86_fp80, ptr %fom_rel.sroa.0.0621, i64 %conv126547
  %61 = load x86_fp80, ptr %add.ptr.i447, align 16, !tbaa !53
  %62 = tail call x86_fp80 @llvm.fmuladd.f80(x86_fp80 %conv140, x86_fp80 %60, x86_fp80 %61)
  store x86_fp80 %62, ptr %add.ptr.i447, align 16, !tbaa !53
  %63 = load x86_fp80, ptr %add.ptr.i444, align 16, !tbaa !53
  %mul = fmul x86_fp80 %63, %conv140
  %add.ptr.i449 = getelementptr inbounds i32, ptr %51, i64 %conv126547
  %64 = load i32, ptr %add.ptr.i449, align 4, !tbaa !47
  %65 = load ptr, ptr %samples_per_pass, align 8, !tbaa !46
  %add.ptr.i450 = getelementptr inbounds i32, ptr %65, i64 %conv126547
  %66 = load i32, ptr %add.ptr.i450, align 4, !tbaa !47
  %mul167 = mul nsw i32 %66, %64
  %conv168 = sitofp i32 %mul167 to x86_fp80
  %div169 = fdiv x86_fp80 %mul, %conv168
  %add.ptr.i451 = getelementptr inbounds x86_fp80, ptr %fom_rate.sroa.0.0, i64 %conv126547
  %67 = load x86_fp80, ptr %add.ptr.i451, align 16, !tbaa !53
  %add172 = fadd x86_fp80 %67, %div169
  store x86_fp80 %add172, ptr %add.ptr.i451, align 16, !tbaa !53
  br label %for.inc174

for.inc174:                                       ; preds = %for.body131, %if.then136
  %inc175 = add nuw nsw i64 %conv126547, 1
  %conv126 = and i64 %inc175, 4294967295
  %cmp129 = icmp ugt i64 %sub.ptr.div.i440, %conv126
  br i1 %cmp129, label %for.body131, label %if.end177, !llvm.loop !142

if.end177:                                        ; preds = %for.inc174, %for.cond125.preheader, %for.body117
  %indvars.iv.next564 = add i64 %indvars.iv563, 1
  %conv113 = and i64 %indvars.iv.next564, 4294967295
  %cmp115 = icmp ugt i64 %sub.ptr.div.i, %conv113
  br i1 %cmp115, label %for.body117, label %for.cond182.preheader, !llvm.loop !143

for.cond.cleanup185:                              ; preds = %if.end228, %for.cond182.preheader
  %tobool.not.i.i.i452 = icmp eq ptr %fom_rate.sroa.0.0, null
  br i1 %tobool.not.i.i.i452, label %_ZNSt6vectorIeSaIeEED2Ev.exit454, label %if.then.i.i.i453

if.then.i.i.i453:                                 ; preds = %for.cond.cleanup185
  tail call void @_ZdlPv(ptr noundef nonnull %fom_rate.sroa.0.0) #25
  br label %_ZNSt6vectorIeSaIeEED2Ev.exit454

_ZNSt6vectorIeSaIeEED2Ev.exit454:                 ; preds = %for.cond.cleanup185, %if.then.i.i.i453
  %tobool.not.i.i.i455 = icmp eq ptr %fom_rel.sroa.0.0621, null
  br i1 %tobool.not.i.i.i455, label %_ZNSt6vectorIeSaIeEED2Ev.exit457, label %if.then.i.i.i456

if.then.i.i.i456:                                 ; preds = %_ZNSt6vectorIeSaIeEED2Ev.exit454
  tail call void @_ZdlPv(ptr noundef nonnull %fom_rel.sroa.0.0621) #25
  br label %_ZNSt6vectorIeSaIeEED2Ev.exit457

_ZNSt6vectorIeSaIeEED2Ev.exit457:                 ; preds = %_ZNSt6vectorIeSaIeEED2Ev.exit454, %if.then.i.i.i456
  %tobool.not.i.i.i458 = icmp eq ptr %tot_time.sroa.0.0610618, null
  br i1 %tobool.not.i.i.i458, label %_ZNSt6vectorIeSaIeEED2Ev.exit460, label %if.then.i.i.i459

if.then.i.i.i459:                                 ; preds = %_ZNSt6vectorIeSaIeEED2Ev.exit457
  tail call void @_ZdlPv(ptr noundef nonnull %tot_time.sroa.0.0610618) #25
  br label %_ZNSt6vectorIeSaIeEED2Ev.exit460

_ZNSt6vectorIeSaIeEED2Ev.exit460:                 ; preds = %_ZNSt6vectorIeSaIeEED2Ev.exit457, %if.then.i.i.i459
  %tobool.not.i.i.i461 = icmp eq ptr %tot_weight.sroa.0.0599606620, null
  br i1 %tobool.not.i.i.i461, label %_ZNSt6vectorIeSaIeEED2Ev.exit463, label %if.then.i.i.i462

if.then.i.i.i462:                                 ; preds = %_ZNSt6vectorIeSaIeEED2Ev.exit460
  tail call void @_ZdlPv(ptr noundef nonnull %tot_weight.sroa.0.0599606620) #25
  br label %_ZNSt6vectorIeSaIeEED2Ev.exit463

_ZNSt6vectorIeSaIeEED2Ev.exit463:                 ; preds = %_ZNSt6vectorIeSaIeEED2Ev.exit460, %if.then.i.i.i462
  %tobool.not.i.i.i464 = icmp eq ptr %num_loops_run.sroa.0.0591598608619, null
  br i1 %tobool.not.i.i.i464, label %if.end240, label %if.then.i.i.i465

if.then.i.i.i465:                                 ; preds = %_ZNSt6vectorIeSaIeEED2Ev.exit463
  tail call void @_ZdlPv(ptr noundef nonnull %num_loops_run.sroa.0.0591598608619) #25
  br label %if.end240

for.body186:                                      ; preds = %for.body186.lr.ph, %if.end228
  %indvars.iv567 = phi i64 [ 0, %for.body186.lr.ph ], [ %indvars.iv.next568, %if.end228 ]
  %add.ptr.i466 = getelementptr inbounds i32, ptr %num_loops_run.sroa.0.0591598608619, i64 %indvars.iv567
  %68 = load i32, ptr %add.ptr.i466, align 4, !tbaa !47
  %add.ptr.i468 = getelementptr inbounds i32, ptr %42, i64 %indvars.iv567
  store i32 %68, ptr %add.ptr.i468, align 4, !tbaa !47
  %add.ptr.i469 = getelementptr inbounds x86_fp80, ptr %tot_time.sroa.0.0610618, i64 %indvars.iv567
  %69 = load x86_fp80, ptr %add.ptr.i469, align 16, !tbaa !53
  %add.ptr.i471 = getelementptr inbounds x86_fp80, ptr %44, i64 %indvars.iv567
  store x86_fp80 %69, ptr %add.ptr.i471, align 16, !tbaa !53
  %70 = load i32, ptr %add.ptr.i466, align 4, !tbaa !47
  %cmp207 = icmp sgt i32 %70, 0
  br i1 %cmp207, label %if.then208, label %if.end228

if.then208:                                       ; preds = %for.body186
  %71 = load ptr, ptr %loop_run_time201, align 8, !tbaa !50
  %add.ptr.i472 = getelementptr inbounds %"class.std::vector.0", ptr %71, i64 %indvars.iv567
  %72 = load ptr, ptr %add.ptr.i472, align 8, !tbaa !52
  %73 = load x86_fp80, ptr %72, align 16, !tbaa !53
  %add.ptr.i474 = getelementptr inbounds x86_fp80, ptr %tot_weight.sroa.0.0599606620, i64 %indvars.iv567
  %74 = load x86_fp80, ptr %add.ptr.i474, align 16, !tbaa !53
  %mul211 = fmul x86_fp80 %73, %74
  %add.ptr.i475 = getelementptr inbounds x86_fp80, ptr %fom_rel.sroa.0.0621, i64 %indvars.iv567
  %75 = load x86_fp80, ptr %add.ptr.i475, align 16, !tbaa !53
  %div214 = fdiv x86_fp80 %mul211, %75
  %76 = load ptr, ptr %fom_rel215, align 8, !tbaa !50
  %add.ptr.i476 = getelementptr inbounds %"class.std::vector.0", ptr %76, i64 %conv190
  %77 = load ptr, ptr %add.ptr.i476, align 8, !tbaa !52
  %add.ptr.i477 = getelementptr inbounds x86_fp80, ptr %77, i64 %indvars.iv567
  store x86_fp80 %div214, ptr %add.ptr.i477, align 16, !tbaa !53
  %add.ptr.i478 = getelementptr inbounds x86_fp80, ptr %fom_rate.sroa.0.0, i64 %indvars.iv567
  %78 = load x86_fp80, ptr %add.ptr.i478, align 16, !tbaa !53
  %div222 = fdiv x86_fp80 0xK3FFF8000000000000000, %78
  %79 = load ptr, ptr %fom_rate223, align 8, !tbaa !50
  %add.ptr.i479 = getelementptr inbounds %"class.std::vector.0", ptr %79, i64 %conv190
  %80 = load ptr, ptr %add.ptr.i479, align 8, !tbaa !52
  %add.ptr.i480 = getelementptr inbounds x86_fp80, ptr %80, i64 %indvars.iv567
  store x86_fp80 %div222, ptr %add.ptr.i480, align 16, !tbaa !53
  br label %if.end228

if.end228:                                        ; preds = %if.then208, %for.body186
  %indvars.iv.next568 = add nuw nsw i64 %indvars.iv567, 1
  %81 = load i32, ptr %num_loop_lengths, align 16, !tbaa !101
  %82 = zext i32 %81 to i64
  %cmp184 = icmp ult i64 %indvars.iv.next568, %82
  br i1 %cmp184, label %for.body186, label %for.cond.cleanup185, !llvm.loop !144

if.then.i.i.i482:                                 ; preds = %lpad103, %if.then.i.i.i
  %.pn = phi { ptr, i32 } [ %47, %lpad103 ], [ %48, %if.then.i.i.i ]
  tail call void @_ZdlPv(ptr noundef nonnull %call5.i.i.i.i4.i.i398) #25
  br label %if.then.i.i.i485

if.then.i.i.i485:                                 ; preds = %lpad97, %if.then.i.i.i482
  %.pn.pn = phi { ptr, i32 } [ %46, %lpad97 ], [ %.pn, %if.then.i.i.i482 ]
  tail call void @_ZdlPv(ptr noundef nonnull %call5.i.i.i.i4.i.i384) #25
  br label %ehcleanup237

ehcleanup237:                                     ; preds = %if.then.i.i.i485, %lpad91
  %.pn.pn.pn = phi { ptr, i32 } [ %45, %lpad91 ], [ %.pn.pn, %if.then.i.i.i485 ]
  tail call void @_ZdlPv(ptr noundef nonnull %call5.i.i.i.i4.i.i371) #25
  resume { ptr, i32 } %.pn.pn.pn

if.end240:                                        ; preds = %if.then.i.i.i465, %_ZNSt6vectorIeSaIeEED2Ev.exit463, %for.cond.cleanup
  ret void
}

; Function Attrs: mustprogress nocallback nofree nosync nounwind speculatable willreturn memory(none)
declare x86_fp80 @llvm.fmuladd.f80(x86_fp80, x86_fp80, x86_fp80) #12

; Function Attrs: uwtable
define dso_local void @_Z20generateTimingReportRKSt6vectorINSt7__cxx1112basic_stringIcSt11char_traitsIcESaIcEEESaIS5_EERKS5_(ptr nocapture noundef nonnull readonly align 8 dereferenceable(24) %run_loop_variants, ptr nocapture noundef nonnull readonly align 8 dereferenceable(32) %output_dirname) local_unnamed_addr #6 personality ptr @__gxx_personality_v0 {
entry:
  %__dnew.i.i.i.i172 = alloca i64, align 8
  %rept_fname.i173 = alloca %"class.std::__cxx11::basic_string", align 8
  %ref.tmp.i174 = alloca %"class.std::__cxx11::basic_string", align 8
  %file.i175 = alloca %"class.std::basic_ofstream", align 8
  %sepchr.i176 = alloca %"class.std::__cxx11::basic_string", align 8
  %__dnew.i.i.i.i = alloca i64, align 8
  %rept_fname.i = alloca %"class.std::__cxx11::basic_string", align 8
  %ref.tmp.i = alloca %"class.std::__cxx11::basic_string", align 8
  %file.i = alloca %"class.std::basic_ofstream", align 8
  %sepchr.i = alloca %"class.std::__cxx11::basic_string", align 8
  %__dnew.i.i.i = alloca i64, align 8
  %ver_info = alloca %"class.std::__cxx11::basic_string", align 8
  %timing_fname = alloca %"class.std::__cxx11::basic_string", align 8
  %ref.tmp = alloca %"class.std::__cxx11::basic_string", align 8
  %file = alloca %"class.std::basic_ofstream", align 8
  %_M_finish.i = getelementptr inbounds %"struct.std::_Vector_base<std::__cxx11::basic_string<char>, std::allocator<std::__cxx11::basic_string<char>>>::_Vector_impl_data", ptr %run_loop_variants, i64 0, i32 1
  %0 = load ptr, ptr %_M_finish.i, align 8, !tbaa !124
  %1 = load ptr, ptr %run_loop_variants, align 8, !tbaa !123
  %cmp = icmp eq ptr %0, %1
  br i1 %cmp, label %return, label %if.end

if.end:                                           ; preds = %entry
  call void @llvm.lifetime.start.p0(i64 32, ptr nonnull %ver_info) #24
  call fastcc void @_ZN12_GLOBAL__N_116buildVersionInfoB5cxx11Ev(ptr noalias nonnull align 8 %ver_info)
  %2 = load ptr, ptr %_M_finish.i, align 8, !tbaa !124
  %3 = load ptr, ptr %run_loop_variants, align 8, !tbaa !123
  %sub.ptr.lhs.cast.i105 = ptrtoint ptr %2 to i64
  %sub.ptr.rhs.cast.i106 = ptrtoint ptr %3 to i64
  %sub.ptr.sub.i107 = sub i64 %sub.ptr.lhs.cast.i105, %sub.ptr.rhs.cast.i106
  %4 = lshr exact i64 %sub.ptr.sub.i107, 5
  %conv = trunc i64 %4 to i32
  %cmp3677.not = icmp eq i32 %conv, 0
  br i1 %cmp3677.not, label %for.cond.cleanup, label %for.body.lr.ph

for.body.lr.ph:                                   ; preds = %if.end
  %5 = load ptr, ptr @_ZL21s_loop_suite_run_info, align 8, !tbaa !59
  %_M_parent.i.i.i.i.i = getelementptr inbounds %class.LoopSuiteRunInfo, ptr %5, i64 0, i32 17, i32 0, i32 0, i32 1, i32 0, i32 1
  %add.ptr.i.i.i.i = getelementptr inbounds %class.LoopSuiteRunInfo, ptr %5, i64 0, i32 17, i32 0, i32 0, i32 1
  %wide.trip.count = and i64 %4, 4294967295
  br label %for.body

for.cond.cleanup:                                 ; preds = %for.inc, %if.end
  %_M_string_length.i.i = getelementptr %"class.std::__cxx11::basic_string", ptr %output_dirname, i64 0, i32 1
  %6 = load i64, ptr %_M_string_length.i.i, align 8, !tbaa !62
  %cmp.i = icmp eq i64 %6, 0
  br i1 %cmp.i, label %if.else, label %if.then9

for.body:                                         ; preds = %for.body.lr.ph, %for.inc
  %indvars.iv = phi i64 [ 0, %for.body.lr.ph ], [ %indvars.iv.next, %for.inc ]
  %7 = load ptr, ptr %_M_parent.i.i.i.i.i, align 16, !tbaa !97
  %cmp.not9.i.i.i.i = icmp eq ptr %7, null
  br i1 %cmp.not9.i.i.i.i, label %invoke.cont, label %while.body.lr.ph.i.i.i.i

while.body.lr.ph.i.i.i.i:                         ; preds = %for.body
  %8 = load ptr, ptr %run_loop_variants, align 8, !tbaa !123
  %add.ptr.i = getelementptr inbounds %"class.std::__cxx11::basic_string", ptr %8, i64 %indvars.iv
  %_M_string_length.i10.i.i.i.i.i.i.i = getelementptr inbounds %"class.std::__cxx11::basic_string", ptr %8, i64 %indvars.iv, i32 1
  %9 = load i64, ptr %_M_string_length.i10.i.i.i.i.i.i.i, align 8, !tbaa !62
  %10 = load ptr, ptr %add.ptr.i, align 8
  br label %while.body.i.i.i.i

while.body.i.i.i.i:                               ; preds = %_ZNKSt4lessINSt7__cxx1112basic_stringIcSt11char_traitsIcESaIcEEEEclERKS5_S8_.exit.i.i.i.i, %while.body.lr.ph.i.i.i.i
  %__x.addr.011.i.i.i.i = phi ptr [ %7, %while.body.lr.ph.i.i.i.i ], [ %__x.addr.1.i.i.i.i, %_ZNKSt4lessINSt7__cxx1112basic_stringIcSt11char_traitsIcESaIcEEEEclERKS5_S8_.exit.i.i.i.i ]
  %__y.addr.010.i.i.i.i = phi ptr [ %add.ptr.i.i.i.i, %while.body.lr.ph.i.i.i.i ], [ %__y.addr.1.i.i.i.i, %_ZNKSt4lessINSt7__cxx1112basic_stringIcSt11char_traitsIcESaIcEEEEclERKS5_S8_.exit.i.i.i.i ]
  %_M_string_length.i.i.i.i.i.i.i.i = getelementptr inbounds %"struct.std::_Rb_tree_node", ptr %__x.addr.011.i.i.i.i, i64 0, i32 1, i32 0, i64 8
  %11 = load i64, ptr %_M_string_length.i.i.i.i.i.i.i.i, align 8, !tbaa !62
  %.sroa.speculated.i.i.i.i.i.i.i = call i64 @llvm.umin.i64(i64 %11, i64 %9)
  %cmp.i11.i.i.i.i.i.i.i = icmp eq i64 %.sroa.speculated.i.i.i.i.i.i.i, 0
  br i1 %cmp.i11.i.i.i.i.i.i.i, label %if.then.i.i.i.i.i.i.i, label %_ZNSt11char_traitsIcE7compareEPKcS2_m.exit.i.i.i.i.i.i.i

_ZNSt11char_traitsIcE7compareEPKcS2_m.exit.i.i.i.i.i.i.i: ; preds = %while.body.i.i.i.i
  %_M_storage.i.i.i.i.i.i = getelementptr inbounds %"struct.std::_Rb_tree_node", ptr %__x.addr.011.i.i.i.i, i64 0, i32 1
  %12 = load ptr, ptr %_M_storage.i.i.i.i.i.i, align 8, !tbaa !125
  %call.i.i.i.i.i.i.i.i = call i32 @memcmp(ptr noundef %12, ptr noundef %10, i64 noundef %.sroa.speculated.i.i.i.i.i.i.i) #24
  %tobool.not.i.i.i.i.i.i.i = icmp eq i32 %call.i.i.i.i.i.i.i.i, 0
  br i1 %tobool.not.i.i.i.i.i.i.i, label %if.then.i.i.i.i.i.i.i, label %_ZNKSt4lessINSt7__cxx1112basic_stringIcSt11char_traitsIcESaIcEEEEclERKS5_S8_.exit.i.i.i.i

if.then.i.i.i.i.i.i.i:                            ; preds = %_ZNSt11char_traitsIcE7compareEPKcS2_m.exit.i.i.i.i.i.i.i, %while.body.i.i.i.i
  %sub.i.i.i.i.i.i.i.i = sub i64 %11, %9
  %spec.select6.i.i.i.i.i.i.i.i = call i64 @llvm.smax.i64(i64 %sub.i.i.i.i.i.i.i.i, i64 -2147483648)
  %retval.07.i.i.i.i.i.i.i.i = call i64 @llvm.smin.i64(i64 %spec.select6.i.i.i.i.i.i.i.i, i64 2147483647)
  %retval.0.i12.i.i.i.i.i.i.i = trunc i64 %retval.07.i.i.i.i.i.i.i.i to i32
  br label %_ZNKSt4lessINSt7__cxx1112basic_stringIcSt11char_traitsIcESaIcEEEEclERKS5_S8_.exit.i.i.i.i

_ZNKSt4lessINSt7__cxx1112basic_stringIcSt11char_traitsIcESaIcEEEEclERKS5_S8_.exit.i.i.i.i: ; preds = %if.then.i.i.i.i.i.i.i, %_ZNSt11char_traitsIcE7compareEPKcS2_m.exit.i.i.i.i.i.i.i
  %__r.0.i.i.i.i.i.i.i = phi i32 [ %call.i.i.i.i.i.i.i.i, %_ZNSt11char_traitsIcE7compareEPKcS2_m.exit.i.i.i.i.i.i.i ], [ %retval.0.i12.i.i.i.i.i.i.i, %if.then.i.i.i.i.i.i.i ]
  %cmp.i.i.i.i.i.i = icmp slt i32 %__r.0.i.i.i.i.i.i.i, 0
  %_M_right.i.i.i.i.i = getelementptr inbounds %"struct.std::_Rb_tree_node_base", ptr %__x.addr.011.i.i.i.i, i64 0, i32 3
  %_M_left.i.i.i.i.i = getelementptr inbounds %"struct.std::_Rb_tree_node_base", ptr %__x.addr.011.i.i.i.i, i64 0, i32 2
  %__y.addr.1.i.i.i.i = select i1 %cmp.i.i.i.i.i.i, ptr %__y.addr.010.i.i.i.i, ptr %__x.addr.011.i.i.i.i
  %__x.addr.1.in.i.i.i.i = select i1 %cmp.i.i.i.i.i.i, ptr %_M_right.i.i.i.i.i, ptr %_M_left.i.i.i.i.i
  %__x.addr.1.i.i.i.i = load ptr, ptr %__x.addr.1.in.i.i.i.i, align 8, !tbaa !59
  %cmp.not.i.i.i.i = icmp eq ptr %__x.addr.1.i.i.i.i, null
  br i1 %cmp.not.i.i.i.i, label %_ZNSt8_Rb_treeINSt7__cxx1112basic_stringIcSt11char_traitsIcESaIcEEESt4pairIKS5_PSt6vectorI8LoopStatSaIS9_EEESt10_Select1stISD_ESt4lessIS5_ESaISD_EE14_M_lower_boundEPSt13_Rb_tree_nodeISD_EPSt18_Rb_tree_node_baseRS7_.exit.i.i.i, label %while.body.i.i.i.i, !llvm.loop !145

_ZNSt8_Rb_treeINSt7__cxx1112basic_stringIcSt11char_traitsIcESaIcEEESt4pairIKS5_PSt6vectorI8LoopStatSaIS9_EEESt10_Select1stISD_ESt4lessIS5_ESaISD_EE14_M_lower_boundEPSt13_Rb_tree_nodeISD_EPSt18_Rb_tree_node_baseRS7_.exit.i.i.i: ; preds = %_ZNKSt4lessINSt7__cxx1112basic_stringIcSt11char_traitsIcESaIcEEEEclERKS5_S8_.exit.i.i.i.i
  %cmp.i.i.i.i = icmp eq ptr %__y.addr.1.i.i.i.i, %add.ptr.i.i.i.i
  br i1 %cmp.i.i.i.i, label %invoke.cont, label %lor.lhs.false.i.i.i

lor.lhs.false.i.i.i:                              ; preds = %_ZNSt8_Rb_treeINSt7__cxx1112basic_stringIcSt11char_traitsIcESaIcEEESt4pairIKS5_PSt6vectorI8LoopStatSaIS9_EEESt10_Select1stISD_ESt4lessIS5_ESaISD_EE14_M_lower_boundEPSt13_Rb_tree_nodeISD_EPSt18_Rb_tree_node_baseRS7_.exit.i.i.i
  %_M_string_length.i10.i.i.i.i.i.i = getelementptr inbounds %"struct.std::_Rb_tree_node", ptr %__y.addr.1.i.i.i.i, i64 0, i32 1, i32 0, i64 8
  %13 = load i64, ptr %_M_string_length.i10.i.i.i.i.i.i, align 8, !tbaa !62
  %.sroa.speculated.i.i.i.i.i.i = call i64 @llvm.umin.i64(i64 %9, i64 %13)
  %cmp.i11.i.i.i.i.i.i = icmp eq i64 %.sroa.speculated.i.i.i.i.i.i, 0
  br i1 %cmp.i11.i.i.i.i.i.i, label %if.then.i.i.i.i.i.i, label %_ZNSt11char_traitsIcE7compareEPKcS2_m.exit.i.i.i.i.i.i

_ZNSt11char_traitsIcE7compareEPKcS2_m.exit.i.i.i.i.i.i: ; preds = %lor.lhs.false.i.i.i
  %_M_storage.i.i.i14.i.i.i = getelementptr inbounds %"struct.std::_Rb_tree_node", ptr %__y.addr.1.i.i.i.i, i64 0, i32 1
  %14 = load ptr, ptr %_M_storage.i.i.i14.i.i.i, align 8, !tbaa !125
  %call.i.i.i.i.i.i.i = call i32 @memcmp(ptr noundef %10, ptr noundef %14, i64 noundef %.sroa.speculated.i.i.i.i.i.i) #24
  %tobool.not.i.i.i.i.i.i = icmp eq i32 %call.i.i.i.i.i.i.i, 0
  br i1 %tobool.not.i.i.i.i.i.i, label %if.then.i.i.i.i.i.i, label %_ZNKSt4lessINSt7__cxx1112basic_stringIcSt11char_traitsIcESaIcEEEEclERKS5_S8_.exit.i.i.i

if.then.i.i.i.i.i.i:                              ; preds = %_ZNSt11char_traitsIcE7compareEPKcS2_m.exit.i.i.i.i.i.i, %lor.lhs.false.i.i.i
  %sub.i.i.i.i.i.i.i = sub i64 %9, %13
  %spec.select6.i.i.i.i.i.i.i = call i64 @llvm.smax.i64(i64 %sub.i.i.i.i.i.i.i, i64 -2147483648)
  %retval.07.i.i.i.i.i.i.i = call i64 @llvm.smin.i64(i64 %spec.select6.i.i.i.i.i.i.i, i64 2147483647)
  %retval.0.i12.i.i.i.i.i.i = trunc i64 %retval.07.i.i.i.i.i.i.i to i32
  br label %_ZNKSt4lessINSt7__cxx1112basic_stringIcSt11char_traitsIcESaIcEEEEclERKS5_S8_.exit.i.i.i

_ZNKSt4lessINSt7__cxx1112basic_stringIcSt11char_traitsIcESaIcEEEEclERKS5_S8_.exit.i.i.i: ; preds = %if.then.i.i.i.i.i.i, %_ZNSt11char_traitsIcE7compareEPKcS2_m.exit.i.i.i.i.i.i
  %__r.0.i.i.i.i.i.i = phi i32 [ %call.i.i.i.i.i.i.i, %_ZNSt11char_traitsIcE7compareEPKcS2_m.exit.i.i.i.i.i.i ], [ %retval.0.i12.i.i.i.i.i.i, %if.then.i.i.i.i.i.i ]
  %cmp.i.i.i.i.i = icmp slt i32 %__r.0.i.i.i.i.i.i, 0
  %spec.select.i.i.i = select i1 %cmp.i.i.i.i.i, ptr %add.ptr.i.i.i.i, ptr %__y.addr.1.i.i.i.i
  br label %invoke.cont

invoke.cont:                                      ; preds = %_ZNKSt4lessINSt7__cxx1112basic_stringIcSt11char_traitsIcESaIcEEEEclERKS5_S8_.exit.i.i.i, %_ZNSt8_Rb_treeINSt7__cxx1112basic_stringIcSt11char_traitsIcESaIcEEESt4pairIKS5_PSt6vectorI8LoopStatSaIS9_EEESt10_Select1stISD_ESt4lessIS5_ESaISD_EE14_M_lower_boundEPSt13_Rb_tree_nodeISD_EPSt18_Rb_tree_node_baseRS7_.exit.i.i.i, %for.body
  %retval.sroa.0.0.i.i.i = phi ptr [ %add.ptr.i.i.i.i, %_ZNSt8_Rb_treeINSt7__cxx1112basic_stringIcSt11char_traitsIcESaIcEEESt4pairIKS5_PSt6vectorI8LoopStatSaIS9_EEESt10_Select1stISD_ESt4lessIS5_ESaISD_EE14_M_lower_boundEPSt13_Rb_tree_nodeISD_EPSt18_Rb_tree_node_baseRS7_.exit.i.i.i ], [ %add.ptr.i.i.i.i, %for.body ], [ %spec.select.i.i.i, %_ZNKSt4lessINSt7__cxx1112basic_stringIcSt11char_traitsIcESaIcEEEEclERKS5_S8_.exit.i.i.i ]
  %second.i = getelementptr inbounds %"struct.std::_Rb_tree_node", ptr %retval.sroa.0.0.i.i.i, i64 0, i32 1, i32 0, i64 32
  %15 = load ptr, ptr %second.i, align 8, !tbaa !110
  %16 = trunc i64 %indvars.iv to i32
  invoke void @_Z12computeStatsjRSt6vectorI8LoopStatSaIS0_EEb(i32 noundef %16, ptr noundef nonnull align 8 dereferenceable(24) %15, i1 noundef zeroext true)
          to label %for.inc unwind label %lpad

for.inc:                                          ; preds = %invoke.cont
  %indvars.iv.next = add nuw nsw i64 %indvars.iv, 1
  %exitcond.not = icmp eq i64 %indvars.iv.next, %wide.trip.count
  br i1 %exitcond.not, label %for.cond.cleanup, label %for.body, !llvm.loop !146

lpad:                                             ; preds = %invoke.cont
  %17 = landingpad { ptr, i32 }
          cleanup
  br label %ehcleanup70

if.then9:                                         ; preds = %for.cond.cleanup
  call void @llvm.lifetime.start.p0(i64 32, ptr nonnull %timing_fname) #24
  call void @llvm.lifetime.start.p0(i64 32, ptr nonnull %ref.tmp) #24
  call void @llvm.experimental.noalias.scope.decl(metadata !147)
  %18 = getelementptr inbounds %"class.std::__cxx11::basic_string", ptr %ref.tmp, i64 0, i32 2
  store ptr %18, ptr %ref.tmp, align 8, !tbaa !60, !alias.scope !147
  %19 = load ptr, ptr %output_dirname, align 8, !tbaa !125, !noalias !147
  call void @llvm.lifetime.start.p0(i64 8, ptr nonnull %__dnew.i.i.i) #24, !noalias !147
  store i64 %6, ptr %__dnew.i.i.i, align 8, !tbaa !49, !noalias !147
  %cmp.i.i.i = icmp ugt i64 %6, 15
  br i1 %cmp.i.i.i, label %if.then.i.i.i, label %if.end.i.i.i

if.then.i.i.i:                                    ; preds = %if.then9
  %call2.i12.i.i110 = invoke noundef ptr @_ZNSt7__cxx1112basic_stringIcSt11char_traitsIcESaIcEE9_M_createERmm(ptr noundef nonnull align 8 dereferenceable(32) %ref.tmp, ptr noundef nonnull align 8 dereferenceable(8) %__dnew.i.i.i, i64 noundef 0)
          to label %if.end.i.i.i.thread unwind label %lpad10

if.end.i.i.i.thread:                              ; preds = %if.then.i.i.i
  store ptr %call2.i12.i.i110, ptr %ref.tmp, align 8, !tbaa !125, !alias.scope !147
  %20 = load i64, ptr %__dnew.i.i.i, align 8, !tbaa !49, !noalias !147
  store i64 %20, ptr %18, align 8, !tbaa !23, !alias.scope !147
  br label %if.end.i.i.i.i.i.i

if.end.i.i.i:                                     ; preds = %if.then9
  %cond = icmp eq i64 %6, 1
  br i1 %cond, label %if.then.i.i.i.i.i, label %if.end.i.i.i.i.i.i

if.then.i.i.i.i.i:                                ; preds = %if.end.i.i.i
  %21 = load i8, ptr %19, align 1, !tbaa !23
  store i8 %21, ptr %18, align 8, !tbaa !23
  br label %_ZNSt7__cxx1112basic_stringIcSt11char_traitsIcESaIcEEC2ERKS4_.exit.i

if.end.i.i.i.i.i.i:                               ; preds = %if.end.i.i.i.thread, %if.end.i.i.i
  %22 = phi ptr [ %call2.i12.i.i110, %if.end.i.i.i.thread ], [ %18, %if.end.i.i.i ]
  call void @llvm.memcpy.p0.p0.i64(ptr align 1 %22, ptr align 1 %19, i64 %6, i1 false)
  br label %_ZNSt7__cxx1112basic_stringIcSt11char_traitsIcESaIcEEC2ERKS4_.exit.i

_ZNSt7__cxx1112basic_stringIcSt11char_traitsIcESaIcEEC2ERKS4_.exit.i: ; preds = %if.end.i.i.i.i.i.i, %if.then.i.i.i.i.i
  %23 = load i64, ptr %__dnew.i.i.i, align 8, !tbaa !49, !noalias !147
  %_M_string_length.i.i.i.i.i = getelementptr inbounds %"class.std::__cxx11::basic_string", ptr %ref.tmp, i64 0, i32 1
  store i64 %23, ptr %_M_string_length.i.i.i.i.i, align 8, !tbaa !62, !alias.scope !147
  %24 = load ptr, ptr %ref.tmp, align 8, !tbaa !125, !alias.scope !147
  %arrayidx.i.i.i.i = getelementptr inbounds i8, ptr %24, i64 %23
  store i8 0, ptr %arrayidx.i.i.i.i, align 1, !tbaa !23
  call void @llvm.lifetime.end.p0(i64 8, ptr nonnull %__dnew.i.i.i) #24, !noalias !147
  %25 = load i64, ptr %_M_string_length.i.i.i.i.i, align 8, !tbaa !62, !alias.scope !147
  %cmp.i.i2.i = icmp eq i64 %25, 4611686018427387903
  br i1 %cmp.i.i2.i, label %if.then.i.i3.i, label %_ZNKSt7__cxx1112basic_stringIcSt11char_traitsIcESaIcEE15_M_check_lengthEmmPKc.exit.i.i

if.then.i.i3.i:                                   ; preds = %_ZNSt7__cxx1112basic_stringIcSt11char_traitsIcESaIcEEC2ERKS4_.exit.i
  invoke void @_ZSt20__throw_length_errorPKc(ptr noundef nonnull @.str.53) #22
          to label %.noexc.i unwind label %lpad.i

.noexc.i:                                         ; preds = %if.then.i.i3.i
  unreachable

_ZNKSt7__cxx1112basic_stringIcSt11char_traitsIcESaIcEE15_M_check_lengthEmmPKc.exit.i.i: ; preds = %_ZNSt7__cxx1112basic_stringIcSt11char_traitsIcESaIcEEC2ERKS4_.exit.i
  %call2.i4.i = invoke noundef nonnull align 8 dereferenceable(32) ptr @_ZNSt7__cxx1112basic_stringIcSt11char_traitsIcESaIcEE9_M_appendEPKcm(ptr noundef nonnull align 8 dereferenceable(32) %ref.tmp, ptr noundef nonnull @.str.15, i64 noundef 1)
          to label %invoke.cont11 unwind label %lpad.i

lpad.i:                                           ; preds = %_ZNKSt7__cxx1112basic_stringIcSt11char_traitsIcESaIcEE15_M_check_lengthEmmPKc.exit.i.i, %if.then.i.i3.i
  %26 = landingpad { ptr, i32 }
          cleanup
  %27 = load ptr, ptr %ref.tmp, align 8, !tbaa !125, !alias.scope !147
  %cmp.i.i.i.i109 = icmp eq ptr %27, %18
  br i1 %cmp.i.i.i.i109, label %ehcleanup, label %if.then.i.i5.i

if.then.i.i5.i:                                   ; preds = %lpad.i
  call void @_ZdlPv(ptr noundef %27) #25
  br label %ehcleanup

invoke.cont11:                                    ; preds = %_ZNKSt7__cxx1112basic_stringIcSt11char_traitsIcESaIcEE15_M_check_lengthEmmPKc.exit.i.i
  call void @llvm.experimental.noalias.scope.decl(metadata !150)
  %28 = load i64, ptr %_M_string_length.i.i.i.i.i, align 8, !tbaa !62, !noalias !150
  %29 = add i64 %28, -4611686018427387894
  %cmp.i.i.i113 = icmp ult i64 %29, 10
  br i1 %cmp.i.i.i113, label %if.then.i.i.i114, label %_ZNSt7__cxx1112basic_stringIcSt11char_traitsIcESaIcEE6appendEPKc.exit.i

if.then.i.i.i114:                                 ; preds = %invoke.cont11
  invoke void @_ZSt20__throw_length_errorPKc(ptr noundef nonnull @.str.53) #22
          to label %.noexc unwind label %lpad12

.noexc:                                           ; preds = %if.then.i.i.i114
  unreachable

_ZNSt7__cxx1112basic_stringIcSt11char_traitsIcESaIcEE6appendEPKc.exit.i: ; preds = %invoke.cont11
  %call2.i.i117 = invoke noundef nonnull align 8 dereferenceable(32) ptr @_ZNSt7__cxx1112basic_stringIcSt11char_traitsIcESaIcEE9_M_appendEPKcm(ptr noundef nonnull align 8 dereferenceable(32) %ref.tmp, ptr noundef nonnull @.str.16, i64 noundef 10)
          to label %call2.i.i.noexc unwind label %lpad12

call2.i.i.noexc:                                  ; preds = %_ZNSt7__cxx1112basic_stringIcSt11char_traitsIcESaIcEE6appendEPKc.exit.i
  %30 = getelementptr inbounds %"class.std::__cxx11::basic_string", ptr %timing_fname, i64 0, i32 2
  store ptr %30, ptr %timing_fname, align 8, !tbaa !60, !alias.scope !150
  %31 = load ptr, ptr %call2.i.i117, align 8, !tbaa !125
  %32 = getelementptr inbounds %"class.std::__cxx11::basic_string", ptr %call2.i.i117, i64 0, i32 2
  %cmp.i.i1.i = icmp eq ptr %31, %32
  br i1 %cmp.i.i1.i, label %if.then.i.i, label %if.else.i.i

if.then.i.i:                                      ; preds = %call2.i.i.noexc
  %_M_string_length.i.i.i115 = getelementptr inbounds %"class.std::__cxx11::basic_string", ptr %call2.i.i117, i64 0, i32 1
  %33 = load i64, ptr %_M_string_length.i.i.i115, align 8, !tbaa !62
  %add.i.i = add i64 %33, 1
  %cmp.i21.i.i = icmp eq i64 %add.i.i, 0
  br i1 %cmp.i21.i.i, label %invoke.cont13, label %if.end.i.i.i116

if.end.i.i.i116:                                  ; preds = %if.then.i.i
  call void @llvm.memcpy.p0.p0.i64(ptr nonnull align 8 %30, ptr nonnull align 8 %31, i64 %add.i.i, i1 false)
  br label %invoke.cont13

if.else.i.i:                                      ; preds = %call2.i.i.noexc
  store ptr %31, ptr %timing_fname, align 8, !tbaa !125, !alias.scope !150
  %34 = load i64, ptr %32, align 8, !tbaa !23
  store i64 %34, ptr %30, align 8, !tbaa !23, !alias.scope !150
  br label %invoke.cont13

invoke.cont13:                                    ; preds = %if.else.i.i, %if.end.i.i.i116, %if.then.i.i
  %_M_string_length.i22.i.i = getelementptr inbounds %"class.std::__cxx11::basic_string", ptr %call2.i.i117, i64 0, i32 1
  %35 = load i64, ptr %_M_string_length.i22.i.i, align 8, !tbaa !62
  %_M_string_length.i23.i.i = getelementptr inbounds %"class.std::__cxx11::basic_string", ptr %timing_fname, i64 0, i32 1
  store i64 %35, ptr %_M_string_length.i23.i.i, align 8, !tbaa !62, !alias.scope !150
  store ptr %32, ptr %call2.i.i117, align 8, !tbaa !125
  store i64 0, ptr %_M_string_length.i22.i.i, align 8, !tbaa !62
  store i8 0, ptr %32, align 8, !tbaa !23
  %36 = load ptr, ptr %ref.tmp, align 8, !tbaa !125
  %cmp.i.i.i118 = icmp eq ptr %36, %18
  br i1 %cmp.i.i.i118, label %_ZNSt7__cxx1112basic_stringIcSt11char_traitsIcESaIcEED2Ev.exit, label %if.then.i.i119

if.then.i.i119:                                   ; preds = %invoke.cont13
  call void @_ZdlPv(ptr noundef %36) #25
  br label %_ZNSt7__cxx1112basic_stringIcSt11char_traitsIcESaIcEED2Ev.exit

_ZNSt7__cxx1112basic_stringIcSt11char_traitsIcESaIcEED2Ev.exit: ; preds = %invoke.cont13, %if.then.i.i119
  call void @llvm.lifetime.end.p0(i64 32, ptr nonnull %ref.tmp) #24
  call void @llvm.lifetime.start.p0(i64 512, ptr nonnull %file) #24
  %37 = load ptr, ptr %timing_fname, align 8, !tbaa !125
  invoke void @_ZNSt14basic_ofstreamIcSt11char_traitsIcEEC1EPKcSt13_Ios_Openmode(ptr noundef nonnull align 8 dereferenceable(248) %file, ptr noundef %37, i32 noundef 48)
          to label %invoke.cont20 unwind label %lpad15

invoke.cont20:                                    ; preds = %_ZNSt7__cxx1112basic_stringIcSt11char_traitsIcESaIcEED2Ev.exit
  %vtable = load ptr, ptr %file, align 8, !tbaa !5
  %vbase.offset.ptr = getelementptr i8, ptr %vtable, i64 -24
  %vbase.offset = load i64, ptr %vbase.offset.ptr, align 8
  %add.ptr = getelementptr inbounds i8, ptr %file, i64 %vbase.offset
  %_M_streambuf_state.i.i.i = getelementptr inbounds %"class.std::ios_base", ptr %add.ptr, i64 0, i32 5
  %38 = load i32, ptr %_M_streambuf_state.i.i.i, align 8, !tbaa !153
  %and.i.i.i = and i32 %38, 5
  %cmp.i.i.not = icmp eq i32 %and.i.i.i, 0
  br i1 %cmp.i.i.not, label %if.end29, label %if.then22

if.then22:                                        ; preds = %invoke.cont20
  %call1.i120 = invoke noundef nonnull align 8 dereferenceable(8) ptr @_ZSt16__ostream_insertIcSt11char_traitsIcEERSt13basic_ostreamIT_T0_ES6_PKS3_l(ptr noundef nonnull align 8 dereferenceable(8) @_ZSt4cout, ptr noundef nonnull @.str.17, i64 noundef 31)
          to label %invoke.cont23 unwind label %lpad19

invoke.cont23:                                    ; preds = %if.then22
  %39 = load ptr, ptr %timing_fname, align 8, !tbaa !125
  %40 = load i64, ptr %_M_string_length.i23.i.i, align 8, !tbaa !62
  %call2.i122 = invoke noundef nonnull align 8 dereferenceable(8) ptr @_ZSt16__ostream_insertIcSt11char_traitsIcEERSt13basic_ostreamIT_T0_ES6_PKS3_l(ptr noundef nonnull align 8 dereferenceable(8) @_ZSt4cout, ptr noundef %39, i64 noundef %40)
          to label %invoke.cont25 unwind label %lpad19

invoke.cont25:                                    ; preds = %invoke.cont23
  %vtable.i541 = load ptr, ptr %call2.i122, align 8, !tbaa !5
  %vbase.offset.ptr.i542 = getelementptr i8, ptr %vtable.i541, i64 -24
  %vbase.offset.i543 = load i64, ptr %vbase.offset.ptr.i542, align 8
  %add.ptr.i544 = getelementptr inbounds i8, ptr %call2.i122, i64 %vbase.offset.i543
  %_M_ctype.i.i = getelementptr inbounds %"class.std::basic_ios", ptr %add.ptr.i544, i64 0, i32 5
  %41 = load ptr, ptr %_M_ctype.i.i, align 8, !tbaa !8
  %tobool.not.i.i.i = icmp eq ptr %41, null
  br i1 %tobool.not.i.i.i, label %if.then.i.i.i560.invoke, label %_ZSt13__check_facetISt5ctypeIcEERKT_PS3_.exit.i.i

_ZSt13__check_facetISt5ctypeIcEERKT_PS3_.exit.i.i: ; preds = %invoke.cont25
  %_M_widen_ok.i.i.i = getelementptr inbounds %"class.std::ctype", ptr %41, i64 0, i32 8
  %42 = load i8, ptr %_M_widen_ok.i.i.i, align 8, !tbaa !20
  %tobool.not.i3.i.i = icmp eq i8 %42, 0
  br i1 %tobool.not.i3.i.i, label %if.end.i.i.i547, label %if.then.i4.i.i

if.then.i4.i.i:                                   ; preds = %_ZSt13__check_facetISt5ctypeIcEERKT_PS3_.exit.i.i
  %arrayidx.i.i.i = getelementptr inbounds %"class.std::ctype", ptr %41, i64 0, i32 9, i64 10
  %43 = load i8, ptr %arrayidx.i.i.i, align 1, !tbaa !23
  br label %_ZNKSt9basic_iosIcSt11char_traitsIcEE5widenEc.exit.i

if.end.i.i.i547:                                  ; preds = %_ZSt13__check_facetISt5ctypeIcEERKT_PS3_.exit.i.i
  invoke void @_ZNKSt5ctypeIcE13_M_widen_initEv(ptr noundef nonnull align 8 dereferenceable(570) %41)
          to label %.noexc550 unwind label %lpad19

.noexc550:                                        ; preds = %if.end.i.i.i547
  %vtable.i.i.i = load ptr, ptr %41, align 8, !tbaa !5
  %vfn.i.i.i = getelementptr inbounds ptr, ptr %vtable.i.i.i, i64 6
  %44 = load ptr, ptr %vfn.i.i.i, align 8
  %call.i.i.i546551 = invoke noundef signext i8 %44(ptr noundef nonnull align 8 dereferenceable(570) %41, i8 noundef signext 10)
          to label %_ZNKSt9basic_iosIcSt11char_traitsIcEE5widenEc.exit.i unwind label %lpad19

_ZNKSt9basic_iosIcSt11char_traitsIcEE5widenEc.exit.i: ; preds = %.noexc550, %if.then.i4.i.i
  %retval.0.i.i.i = phi i8 [ %43, %if.then.i4.i.i ], [ %call.i.i.i546551, %.noexc550 ]
  %call1.i552 = invoke noundef nonnull align 8 dereferenceable(8) ptr @_ZNSo3putEc(ptr noundef nonnull align 8 dereferenceable(8) %call2.i122, i8 noundef signext %retval.0.i.i.i)
          to label %call1.i.noexc unwind label %lpad19

call1.i.noexc:                                    ; preds = %_ZNKSt9basic_iosIcSt11char_traitsIcEE5widenEc.exit.i
  %call.i.i548553 = invoke noundef nonnull align 8 dereferenceable(8) ptr @_ZNSo5flushEv(ptr noundef nonnull align 8 dereferenceable(8) %call1.i552)
          to label %if.end29 unwind label %lpad19

lpad10:                                           ; preds = %if.then.i.i.i
  %45 = landingpad { ptr, i32 }
          cleanup
  br label %ehcleanup

lpad12:                                           ; preds = %_ZNSt7__cxx1112basic_stringIcSt11char_traitsIcESaIcEE6appendEPKc.exit.i, %if.then.i.i.i114
  %46 = landingpad { ptr, i32 }
          cleanup
  %47 = load ptr, ptr %ref.tmp, align 8, !tbaa !125
  %cmp.i.i.i124 = icmp eq ptr %47, %18
  br i1 %cmp.i.i.i124, label %ehcleanup, label %if.then.i.i125

if.then.i.i125:                                   ; preds = %lpad12
  call void @_ZdlPv(ptr noundef %47) #25
  br label %ehcleanup

ehcleanup:                                        ; preds = %if.then.i.i125, %lpad12, %lpad10, %if.then.i.i5.i, %lpad.i
  %.pn = phi { ptr, i32 } [ %45, %lpad10 ], [ %26, %if.then.i.i5.i ], [ %26, %lpad.i ], [ %46, %lpad12 ], [ %46, %if.then.i.i125 ]
  call void @llvm.lifetime.end.p0(i64 32, ptr nonnull %ref.tmp) #24
  br label %ehcleanup66

lpad15:                                           ; preds = %_ZNSt7__cxx1112basic_stringIcSt11char_traitsIcESaIcEED2Ev.exit
  %48 = landingpad { ptr, i32 }
          cleanup
  br label %ehcleanup64

lpad19:                                           ; preds = %if.then.i.i.i560.invoke, %call1.i.noexc576, %_ZNKSt9basic_iosIcSt11char_traitsIcEE5widenEc.exit.i572, %.noexc574, %if.end.i.i.i569, %call1.i.noexc, %_ZNKSt9basic_iosIcSt11char_traitsIcEE5widenEc.exit.i, %.noexc550, %if.end.i.i.i547, %invoke.cont30, %if.end29, %invoke.cont23, %if.then22, %invoke.cont34
  %49 = landingpad { ptr, i32 }
          cleanup
  br label %ehcleanup63

if.end29:                                         ; preds = %call1.i.noexc, %invoke.cont20
  %call1.i128 = invoke noundef nonnull align 8 dereferenceable(8) ptr @_ZSt16__ostream_insertIcSt11char_traitsIcEERSt13basic_ostreamIT_T0_ES6_PKS3_l(ptr noundef nonnull align 8 dereferenceable(8) @_ZSt4cout, ptr noundef nonnull @.str.18, i64 noundef 32)
          to label %invoke.cont30 unwind label %lpad19

invoke.cont30:                                    ; preds = %if.end29
  %50 = load ptr, ptr %timing_fname, align 8, !tbaa !125
  %51 = load i64, ptr %_M_string_length.i23.i.i, align 8, !tbaa !62
  %call2.i131 = invoke noundef nonnull align 8 dereferenceable(8) ptr @_ZSt16__ostream_insertIcSt11char_traitsIcEERSt13basic_ostreamIT_T0_ES6_PKS3_l(ptr noundef nonnull align 8 dereferenceable(8) @_ZSt4cout, ptr noundef %50, i64 noundef %51)
          to label %invoke.cont32 unwind label %lpad19

invoke.cont32:                                    ; preds = %invoke.cont30
  %vtable.i554 = load ptr, ptr %call2.i131, align 8, !tbaa !5
  %vbase.offset.ptr.i555 = getelementptr i8, ptr %vtable.i554, i64 -24
  %vbase.offset.i556 = load i64, ptr %vbase.offset.ptr.i555, align 8
  %add.ptr.i557 = getelementptr inbounds i8, ptr %call2.i131, i64 %vbase.offset.i556
  %_M_ctype.i.i558 = getelementptr inbounds %"class.std::basic_ios", ptr %add.ptr.i557, i64 0, i32 5
  %52 = load ptr, ptr %_M_ctype.i.i558, align 8, !tbaa !8
  %tobool.not.i.i.i559 = icmp eq ptr %52, null
  br i1 %tobool.not.i.i.i559, label %if.then.i.i.i560.invoke, label %_ZSt13__check_facetISt5ctypeIcEERKT_PS3_.exit.i.i563

if.then.i.i.i560.invoke:                          ; preds = %invoke.cont25, %invoke.cont32
  invoke void @_ZSt16__throw_bad_castv() #22
          to label %if.then.i.i.i560.cont unwind label %lpad19

if.then.i.i.i560.cont:                            ; preds = %if.then.i.i.i560.invoke
  unreachable

_ZSt13__check_facetISt5ctypeIcEERKT_PS3_.exit.i.i563: ; preds = %invoke.cont32
  %_M_widen_ok.i.i.i561 = getelementptr inbounds %"class.std::ctype", ptr %52, i64 0, i32 8
  %53 = load i8, ptr %_M_widen_ok.i.i.i561, align 8, !tbaa !20
  %tobool.not.i3.i.i562 = icmp eq i8 %53, 0
  br i1 %tobool.not.i3.i.i562, label %if.end.i.i.i569, label %if.then.i4.i.i565

if.then.i4.i.i565:                                ; preds = %_ZSt13__check_facetISt5ctypeIcEERKT_PS3_.exit.i.i563
  %arrayidx.i.i.i564 = getelementptr inbounds %"class.std::ctype", ptr %52, i64 0, i32 9, i64 10
  %54 = load i8, ptr %arrayidx.i.i.i564, align 1, !tbaa !23
  br label %_ZNKSt9basic_iosIcSt11char_traitsIcEE5widenEc.exit.i572

if.end.i.i.i569:                                  ; preds = %_ZSt13__check_facetISt5ctypeIcEERKT_PS3_.exit.i.i563
  invoke void @_ZNKSt5ctypeIcE13_M_widen_initEv(ptr noundef nonnull align 8 dereferenceable(570) %52)
          to label %.noexc574 unwind label %lpad19

.noexc574:                                        ; preds = %if.end.i.i.i569
  %vtable.i.i.i566 = load ptr, ptr %52, align 8, !tbaa !5
  %vfn.i.i.i567 = getelementptr inbounds ptr, ptr %vtable.i.i.i566, i64 6
  %55 = load ptr, ptr %vfn.i.i.i567, align 8
  %call.i.i.i568575 = invoke noundef signext i8 %55(ptr noundef nonnull align 8 dereferenceable(570) %52, i8 noundef signext 10)
          to label %_ZNKSt9basic_iosIcSt11char_traitsIcEE5widenEc.exit.i572 unwind label %lpad19

_ZNKSt9basic_iosIcSt11char_traitsIcEE5widenEc.exit.i572: ; preds = %.noexc574, %if.then.i4.i.i565
  %retval.0.i.i.i570 = phi i8 [ %54, %if.then.i4.i.i565 ], [ %call.i.i.i568575, %.noexc574 ]
  %call1.i577 = invoke noundef nonnull align 8 dereferenceable(8) ptr @_ZNSo3putEc(ptr noundef nonnull align 8 dereferenceable(8) %call2.i131, i8 noundef signext %retval.0.i.i.i570)
          to label %call1.i.noexc576 unwind label %lpad19

call1.i.noexc576:                                 ; preds = %_ZNKSt9basic_iosIcSt11char_traitsIcEE5widenEc.exit.i572
  %call.i.i571578 = invoke noundef nonnull align 8 dereferenceable(8) ptr @_ZNSo5flushEv(ptr noundef nonnull align 8 dereferenceable(8) %call1.i577)
          to label %invoke.cont34 unwind label %lpad19

invoke.cont34:                                    ; preds = %call1.i.noexc576
  invoke fastcc void @_ZN12_GLOBAL__N_124writeTimingSummaryReportERKSt6vectorINSt7__cxx1112basic_stringIcSt11char_traitsIcESaIcEEESaIS6_EERSo(ptr noundef nonnull align 8 dereferenceable(24) %run_loop_variants, ptr noundef nonnull align 8 dereferenceable(8) %file)
          to label %for.cond38.preheader unwind label %lpad19

for.cond38.preheader:                             ; preds = %invoke.cont34
  %invariant.gep = getelementptr inbounds %"class.std::ios_base", ptr %file.i, i64 0, i32 5
  %invariant.gep679 = getelementptr inbounds %"class.std::basic_ios", ptr %file.i, i64 0, i32 5
  br i1 %cmp3677.not, label %for.cond.cleanup53, label %for.body41.lr.ph

for.body41.lr.ph:                                 ; preds = %for.cond38.preheader
  %56 = getelementptr inbounds %"class.std::__cxx11::basic_string", ptr %rept_fname.i, i64 0, i32 2
  %_M_string_length.i.i.i.i.i.i = getelementptr inbounds %"class.std::__cxx11::basic_string", ptr %rept_fname.i, i64 0, i32 1
  %57 = getelementptr inbounds %"class.std::__cxx11::basic_string", ptr %ref.tmp.i, i64 0, i32 2
  %_M_string_length.i.i.i.i.i141 = getelementptr inbounds %"class.std::__cxx11::basic_string", ptr %ref.tmp.i, i64 0, i32 1
  %arrayidx.i.i.i.i142 = getelementptr inbounds %"class.std::__cxx11::basic_string", ptr %ref.tmp.i, i64 0, i32 2, i32 1, i64 5
  %58 = getelementptr inbounds %"class.std::__cxx11::basic_string", ptr %sepchr.i, i64 0, i32 2
  %_M_string_length.i.i.i.i198.i = getelementptr inbounds %"class.std::__cxx11::basic_string", ptr %sepchr.i, i64 0, i32 1
  %arrayidx.i.i.i199.i = getelementptr inbounds i8, ptr %sepchr.i, i64 19
  %59 = load ptr, ptr @_ZTTSt14basic_ofstreamIcSt11char_traitsIcEE, align 8
  %60 = load ptr, ptr getelementptr inbounds ([4 x ptr], ptr @_ZTTSt14basic_ofstreamIcSt11char_traitsIcEE, i64 0, i64 3), align 8
  %vbase.offset.ptr.i.i.i = getelementptr i8, ptr %59, i64 -24
  %_M_filebuf.i.i.i = getelementptr inbounds %"class.std::basic_ofstream", ptr %file.i, i64 0, i32 1
  %61 = getelementptr inbounds i8, ptr %file.i, i64 248
  br label %for.body41

for.cond51.preheader:                             ; preds = %for.inc46
  %invariant.gep685 = getelementptr inbounds %"class.std::ios_base", ptr %file.i175, i64 0, i32 5
  %invariant.gep687 = getelementptr inbounds %"class.std::basic_ios", ptr %file.i175, i64 0, i32 5
  %cmp52691 = icmp ugt i32 %conv, 1
  br i1 %cmp52691, label %for.body54.lr.ph, label %for.cond.cleanup53

for.body54.lr.ph:                                 ; preds = %for.cond51.preheader
  %62 = getelementptr inbounds %"class.std::__cxx11::basic_string", ptr %rept_fname.i173, i64 0, i32 2
  %_M_string_length.i.i.i.i.i.i182 = getelementptr inbounds %"class.std::__cxx11::basic_string", ptr %rept_fname.i173, i64 0, i32 1
  %63 = getelementptr inbounds %"class.std::__cxx11::basic_string", ptr %ref.tmp.i174, i64 0, i32 2
  %_M_string_length.i.i.i.i.i203 = getelementptr inbounds %"class.std::__cxx11::basic_string", ptr %ref.tmp.i174, i64 0, i32 1
  %arrayidx.i.i.i.i204 = getelementptr inbounds %"class.std::__cxx11::basic_string", ptr %ref.tmp.i174, i64 0, i32 2, i32 1, i64 4
  %64 = getelementptr inbounds %"class.std::__cxx11::basic_string", ptr %sepchr.i176, i64 0, i32 2
  %_M_string_length.i.i.i.i198.i286 = getelementptr inbounds %"class.std::__cxx11::basic_string", ptr %sepchr.i176, i64 0, i32 1
  %arrayidx.i.i.i199.i287 = getelementptr inbounds i8, ptr %sepchr.i176, i64 19
  %65 = load ptr, ptr @_ZTTSt14basic_ofstreamIcSt11char_traitsIcEE, align 8
  %66 = load ptr, ptr getelementptr inbounds ([4 x ptr], ptr @_ZTTSt14basic_ofstreamIcSt11char_traitsIcEE, i64 0, i64 3), align 8
  %vbase.offset.ptr.i.i.i505 = getelementptr i8, ptr %65, i64 -24
  %_M_filebuf.i.i.i508 = getelementptr inbounds %"class.std::basic_ofstream", ptr %file.i175, i64 0, i32 1
  %67 = getelementptr inbounds i8, ptr %file.i175, i64 248
  br label %for.body54

for.body41:                                       ; preds = %for.body41.lr.ph, %for.inc46
  %ilv37.0684 = phi i32 [ 0, %for.body41.lr.ph ], [ %inc47, %for.inc46 ]
  %conv42 = zext i32 %ilv37.0684 to i64
  %68 = load ptr, ptr %run_loop_variants, align 8, !tbaa !123
  %add.ptr.i135 = getelementptr inbounds %"class.std::__cxx11::basic_string", ptr %68, i64 %conv42
  %output_dirname.val = load ptr, ptr %output_dirname, align 8, !tbaa !125, !noalias !154
  %output_dirname.val101 = load i64, ptr %_M_string_length.i.i, align 8, !tbaa !62, !noalias !154
  call void @llvm.lifetime.start.p0(i64 32, ptr nonnull %rept_fname.i) #24
  call void @llvm.experimental.noalias.scope.decl(metadata !157)
  store ptr %56, ptr %rept_fname.i, align 8, !tbaa !60, !alias.scope !157
  call void @llvm.lifetime.start.p0(i64 8, ptr nonnull %__dnew.i.i.i.i) #24, !noalias !157
  store i64 %output_dirname.val101, ptr %__dnew.i.i.i.i, align 8, !tbaa !49, !noalias !157
  %cmp.i.i.i.i136 = icmp ugt i64 %output_dirname.val101, 15
  br i1 %cmp.i.i.i.i136, label %if.then.i.i.i.i, label %if.end.i.i.i.i

if.then.i.i.i.i:                                  ; preds = %for.body41
  %call2.i12.i.i.i162 = invoke noundef ptr @_ZNSt7__cxx1112basic_stringIcSt11char_traitsIcESaIcEE9_M_createERmm(ptr noundef nonnull align 8 dereferenceable(32) %rept_fname.i, ptr noundef nonnull align 8 dereferenceable(8) %__dnew.i.i.i.i, i64 noundef 0)
          to label %call2.i12.i.i.i.noexc unwind label %lpad44

call2.i12.i.i.i.noexc:                            ; preds = %if.then.i.i.i.i
  store ptr %call2.i12.i.i.i162, ptr %rept_fname.i, align 8, !tbaa !125, !alias.scope !157
  %69 = load i64, ptr %__dnew.i.i.i.i, align 8, !tbaa !49, !noalias !157
  store i64 %69, ptr %56, align 8, !tbaa !23, !alias.scope !157
  br label %if.end.i.i.i.i

if.end.i.i.i.i:                                   ; preds = %call2.i12.i.i.i.noexc, %for.body41
  %70 = phi ptr [ %call2.i12.i.i.i162, %call2.i12.i.i.i.noexc ], [ %56, %for.body41 ]
  switch i64 %output_dirname.val101, label %if.end.i.i.i.i.i.i.i [
    i64 1, label %if.then.i.i.i.i.i.i137
    i64 0, label %_ZNSt7__cxx1112basic_stringIcSt11char_traitsIcESaIcEEC2ERKS4_.exit.i.i
  ]

if.then.i.i.i.i.i.i137:                           ; preds = %if.end.i.i.i.i
  %71 = load i8, ptr %output_dirname.val, align 1, !tbaa !23
  store i8 %71, ptr %70, align 1, !tbaa !23
  br label %_ZNSt7__cxx1112basic_stringIcSt11char_traitsIcESaIcEEC2ERKS4_.exit.i.i

if.end.i.i.i.i.i.i.i:                             ; preds = %if.end.i.i.i.i
  call void @llvm.memcpy.p0.p0.i64(ptr align 1 %70, ptr align 1 %output_dirname.val, i64 %output_dirname.val101, i1 false)
  br label %_ZNSt7__cxx1112basic_stringIcSt11char_traitsIcESaIcEEC2ERKS4_.exit.i.i

_ZNSt7__cxx1112basic_stringIcSt11char_traitsIcESaIcEEC2ERKS4_.exit.i.i: ; preds = %if.end.i.i.i.i.i.i.i, %if.then.i.i.i.i.i.i137, %if.end.i.i.i.i
  %72 = load i64, ptr %__dnew.i.i.i.i, align 8, !tbaa !49, !noalias !157
  store i64 %72, ptr %_M_string_length.i.i.i.i.i.i, align 8, !tbaa !62, !alias.scope !157
  %73 = load ptr, ptr %rept_fname.i, align 8, !tbaa !125, !alias.scope !157
  %arrayidx.i.i.i.i.i = getelementptr inbounds i8, ptr %73, i64 %72
  store i8 0, ptr %arrayidx.i.i.i.i.i, align 1, !tbaa !23
  call void @llvm.lifetime.end.p0(i64 8, ptr nonnull %__dnew.i.i.i.i) #24, !noalias !157
  %74 = load i64, ptr %_M_string_length.i.i.i.i.i.i, align 8, !tbaa !62, !alias.scope !157
  %cmp.i.i2.i.i = icmp eq i64 %74, 4611686018427387903
  br i1 %cmp.i.i2.i.i, label %if.then.i.i3.i.i, label %_ZNKSt7__cxx1112basic_stringIcSt11char_traitsIcESaIcEE15_M_check_lengthEmmPKc.exit.i.i.i

if.then.i.i3.i.i:                                 ; preds = %_ZNSt7__cxx1112basic_stringIcSt11char_traitsIcESaIcEEC2ERKS4_.exit.i.i
  invoke void @_ZSt20__throw_length_errorPKc(ptr noundef nonnull @.str.53) #22
          to label %.noexc.i.i unwind label %lpad.i.i.loopexit.split-lp

.noexc.i.i:                                       ; preds = %if.then.i.i3.i.i
  unreachable

_ZNKSt7__cxx1112basic_stringIcSt11char_traitsIcESaIcEE15_M_check_lengthEmmPKc.exit.i.i.i: ; preds = %_ZNSt7__cxx1112basic_stringIcSt11char_traitsIcESaIcEEC2ERKS4_.exit.i.i
  %call2.i4.i.i = invoke noundef nonnull align 8 dereferenceable(32) ptr @_ZNSt7__cxx1112basic_stringIcSt11char_traitsIcESaIcEE9_M_appendEPKcm(ptr noundef nonnull align 8 dereferenceable(32) %rept_fname.i, ptr noundef nonnull @.str.15, i64 noundef 1)
          to label %_ZStplIcSt11char_traitsIcESaIcEENSt7__cxx1112basic_stringIT_T0_T1_EERKS8_PKS5_.exit.i unwind label %lpad.i.i.loopexit

lpad.i.i.loopexit:                                ; preds = %_ZNKSt7__cxx1112basic_stringIcSt11char_traitsIcESaIcEE15_M_check_lengthEmmPKc.exit.i.i.i
  %lpad.loopexit592 = landingpad { ptr, i32 }
          cleanup
  br label %lpad.i.i

lpad.i.i.loopexit.split-lp:                       ; preds = %if.then.i.i3.i.i
  %lpad.loopexit.split-lp593 = landingpad { ptr, i32 }
          cleanup
  br label %lpad.i.i

lpad.i.i:                                         ; preds = %lpad.i.i.loopexit.split-lp, %lpad.i.i.loopexit
  %lpad.phi594 = phi { ptr, i32 } [ %lpad.loopexit592, %lpad.i.i.loopexit ], [ %lpad.loopexit.split-lp593, %lpad.i.i.loopexit.split-lp ]
  %75 = load ptr, ptr %rept_fname.i, align 8, !tbaa !125, !alias.scope !157
  %cmp.i.i.i.i.i138 = icmp eq ptr %75, %56
  br i1 %cmp.i.i.i.i.i138, label %ehcleanup63, label %if.then.i.i5.i.i

if.then.i.i5.i.i:                                 ; preds = %lpad.i.i
  call void @_ZdlPv(ptr noundef %75) #25
  br label %ehcleanup63

_ZStplIcSt11char_traitsIcESaIcEENSt7__cxx1112basic_stringIT_T0_T1_EERKS8_PKS5_.exit.i: ; preds = %_ZNKSt7__cxx1112basic_stringIcSt11char_traitsIcESaIcEE15_M_check_lengthEmmPKc.exit.i.i.i
  %_M_string_length.i.i.i156.i = getelementptr inbounds %"class.std::__cxx11::basic_string", ptr %68, i64 %conv42, i32 1
  %76 = load i64, ptr %_M_string_length.i.i.i156.i, align 8, !tbaa !62
  %77 = load i64, ptr %_M_string_length.i.i.i.i.i.i, align 8, !tbaa !62
  %sub3.i.i.i.i.i = sub i64 4611686018427387903, %77
  %cmp.i.i.i.i158.i = icmp ult i64 %sub3.i.i.i.i.i, %76
  br i1 %cmp.i.i.i.i158.i, label %if.then.i.i.i.i.i139, label %_ZNSt7__cxx1112basic_stringIcSt11char_traitsIcESaIcEE6appendERKS4_.exit.i.i

if.then.i.i.i.i.i139:                             ; preds = %_ZStplIcSt11char_traitsIcESaIcEENSt7__cxx1112basic_stringIT_T0_T1_EERKS8_PKS5_.exit.i
  invoke void @_ZSt20__throw_length_errorPKc(ptr noundef nonnull @.str.53) #22
          to label %.noexc.i140 unwind label %lpad.i145.loopexit.split-lp

.noexc.i140:                                      ; preds = %if.then.i.i.i.i.i139
  unreachable

_ZNSt7__cxx1112basic_stringIcSt11char_traitsIcESaIcEE6appendERKS4_.exit.i.i: ; preds = %_ZStplIcSt11char_traitsIcESaIcEENSt7__cxx1112basic_stringIT_T0_T1_EERKS8_PKS5_.exit.i
  %78 = load ptr, ptr %add.ptr.i135, align 8, !tbaa !125
  %call.i.i.i159160.i = invoke noundef nonnull align 8 dereferenceable(32) ptr @_ZNSt7__cxx1112basic_stringIcSt11char_traitsIcESaIcEE9_M_appendEPKcm(ptr noundef nonnull align 8 dereferenceable(32) %rept_fname.i, ptr noundef %78, i64 noundef %76)
          to label %invoke.cont.i unwind label %lpad.i145.loopexit

invoke.cont.i:                                    ; preds = %_ZNSt7__cxx1112basic_stringIcSt11char_traitsIcESaIcEE6appendERKS4_.exit.i.i
  call void @llvm.lifetime.start.p0(i64 32, ptr nonnull %ref.tmp.i) #24
  store ptr %57, ptr %ref.tmp.i, align 8, !tbaa !60
  call void @llvm.memcpy.p0.p0.i64(ptr noundef nonnull align 8 dereferenceable(13) %57, ptr noundef nonnull align 1 dereferenceable(13) @.str.64, i64 13, i1 false)
  store i64 13, ptr %_M_string_length.i.i.i.i.i141, align 8, !tbaa !62
  store i8 0, ptr %arrayidx.i.i.i.i142, align 1, !tbaa !23
  %79 = load i64, ptr %_M_string_length.i.i.i.i.i.i, align 8, !tbaa !62
  %80 = add i64 %79, -4611686018427387891
  %cmp.i.i.i.i166.i = icmp ult i64 %80, 13
  br i1 %cmp.i.i.i.i166.i, label %if.then.i.i.i.i167.i, label %_ZNSt7__cxx1112basic_stringIcSt11char_traitsIcESaIcEE6appendERKS4_.exit.i169.i

if.then.i.i.i.i167.i:                             ; preds = %invoke.cont.i
  invoke void @_ZSt20__throw_length_errorPKc(ptr noundef nonnull @.str.53) #22
          to label %.noexc170.i unwind label %lpad4.i.loopexit.split-lp

.noexc170.i:                                      ; preds = %if.then.i.i.i.i167.i
  unreachable

_ZNSt7__cxx1112basic_stringIcSt11char_traitsIcESaIcEE6appendERKS4_.exit.i169.i: ; preds = %invoke.cont.i
  %call.i.i.i168171.i = invoke noundef nonnull align 8 dereferenceable(32) ptr @_ZNSt7__cxx1112basic_stringIcSt11char_traitsIcESaIcEE9_M_appendEPKcm(ptr noundef nonnull align 8 dereferenceable(32) %rept_fname.i, ptr noundef nonnull %57, i64 noundef 13)
          to label %invoke.cont5.i unwind label %lpad4.i.loopexit

invoke.cont5.i:                                   ; preds = %_ZNSt7__cxx1112basic_stringIcSt11char_traitsIcESaIcEE6appendERKS4_.exit.i169.i
  %81 = load ptr, ptr %ref.tmp.i, align 8, !tbaa !125
  %cmp.i.i.i173.i = icmp eq ptr %81, %57
  br i1 %cmp.i.i.i173.i, label %_ZNSt7__cxx1112basic_stringIcSt11char_traitsIcESaIcEED2Ev.exit.i143, label %if.then.i.i174.i

if.then.i.i174.i:                                 ; preds = %invoke.cont5.i
  call void @_ZdlPv(ptr noundef %81) #25
  br label %_ZNSt7__cxx1112basic_stringIcSt11char_traitsIcESaIcEED2Ev.exit.i143

_ZNSt7__cxx1112basic_stringIcSt11char_traitsIcESaIcEED2Ev.exit.i143: ; preds = %if.then.i.i174.i, %invoke.cont5.i
  call void @llvm.lifetime.end.p0(i64 32, ptr nonnull %ref.tmp.i) #24
  call void @llvm.lifetime.start.p0(i64 512, ptr nonnull %file.i) #24
  %82 = load ptr, ptr %rept_fname.i, align 8, !tbaa !125
  invoke void @_ZNSt14basic_ofstreamIcSt11char_traitsIcEEC1EPKcSt13_Ios_Openmode(ptr noundef nonnull align 8 dereferenceable(248) %file.i, ptr noundef %82, i32 noundef 48)
          to label %invoke.cont14.i unwind label %lpad11.i

invoke.cont14.i:                                  ; preds = %_ZNSt7__cxx1112basic_stringIcSt11char_traitsIcESaIcEED2Ev.exit.i143
  %vtable.i = load ptr, ptr %file.i, align 8, !tbaa !5
  %vbase.offset.ptr.i = getelementptr i8, ptr %vtable.i, i64 -24
  %vbase.offset.i = load i64, ptr %vbase.offset.ptr.i, align 8
  %gep = getelementptr i8, ptr %invariant.gep, i64 %vbase.offset.i
  %83 = load i32, ptr %gep, align 8, !tbaa !153
  %and.i.i.i.i = and i32 %83, 5
  %cmp.i.i175.not.i = icmp eq i32 %and.i.i.i.i, 0
  br i1 %cmp.i.i175.not.i, label %if.end.i, label %if.then.i

if.then.i:                                        ; preds = %invoke.cont14.i
  %call1.i177.i = invoke noundef nonnull align 8 dereferenceable(8) ptr @_ZSt16__ostream_insertIcSt11char_traitsIcEERSt13basic_ostreamIT_T0_ES6_PKS3_l(ptr noundef nonnull align 8 dereferenceable(8) @_ZSt4cout, ptr noundef nonnull @.str.17, i64 noundef 31)
          to label %invoke.cont16.i unwind label %lpad13.i.loopexit

invoke.cont16.i:                                  ; preds = %if.then.i
  %84 = load ptr, ptr %rept_fname.i, align 8, !tbaa !125
  %85 = load i64, ptr %_M_string_length.i.i.i.i.i.i, align 8, !tbaa !62
  %call2.i178.i = invoke noundef nonnull align 8 dereferenceable(8) ptr @_ZSt16__ostream_insertIcSt11char_traitsIcEERSt13basic_ostreamIT_T0_ES6_PKS3_l(ptr noundef nonnull align 8 dereferenceable(8) @_ZSt4cout, ptr noundef %84, i64 noundef %85)
          to label %invoke.cont18.i unwind label %lpad13.i.loopexit

invoke.cont18.i:                                  ; preds = %invoke.cont16.i
  %vtable.i265.i = load ptr, ptr %call2.i178.i, align 8, !tbaa !5
  %vbase.offset.ptr.i266.i = getelementptr i8, ptr %vtable.i265.i, i64 -24
  %vbase.offset.i267.i = load i64, ptr %vbase.offset.ptr.i266.i, align 8
  %add.ptr.i268.i = getelementptr inbounds i8, ptr %call2.i178.i, i64 %vbase.offset.i267.i
  %_M_ctype.i.i.i = getelementptr inbounds %"class.std::basic_ios", ptr %add.ptr.i268.i, i64 0, i32 5
  %86 = load ptr, ptr %_M_ctype.i.i.i, align 8, !tbaa !8
  %tobool.not.i.i.i.i = icmp eq ptr %86, null
  br i1 %tobool.not.i.i.i.i, label %if.then.i.i.i285.invoke.i, label %_ZSt13__check_facetISt5ctypeIcEERKT_PS3_.exit.i.i.i

_ZSt13__check_facetISt5ctypeIcEERKT_PS3_.exit.i.i.i: ; preds = %invoke.cont18.i
  %_M_widen_ok.i.i.i.i = getelementptr inbounds %"class.std::ctype", ptr %86, i64 0, i32 8
  %87 = load i8, ptr %_M_widen_ok.i.i.i.i, align 8, !tbaa !20
  %tobool.not.i3.i.i.i = icmp eq i8 %87, 0
  br i1 %tobool.not.i3.i.i.i, label %if.end.i.i.i272.i, label %if.then.i4.i.i.i

if.then.i4.i.i.i:                                 ; preds = %_ZSt13__check_facetISt5ctypeIcEERKT_PS3_.exit.i.i.i
  %arrayidx.i.i.i270.i = getelementptr inbounds %"class.std::ctype", ptr %86, i64 0, i32 9, i64 10
  %88 = load i8, ptr %arrayidx.i.i.i270.i, align 1, !tbaa !23
  br label %_ZNKSt9basic_iosIcSt11char_traitsIcEE5widenEc.exit.i.i

if.end.i.i.i272.i:                                ; preds = %_ZSt13__check_facetISt5ctypeIcEERKT_PS3_.exit.i.i.i
  invoke void @_ZNKSt5ctypeIcE13_M_widen_initEv(ptr noundef nonnull align 8 dereferenceable(570) %86)
          to label %.noexc275.i unwind label %lpad13.i.loopexit

.noexc275.i:                                      ; preds = %if.end.i.i.i272.i
  %vtable.i.i.i.i = load ptr, ptr %86, align 8, !tbaa !5
  %vfn.i.i.i.i = getelementptr inbounds ptr, ptr %vtable.i.i.i.i, i64 6
  %89 = load ptr, ptr %vfn.i.i.i.i, align 8
  %call.i.i.i271276.i = invoke noundef signext i8 %89(ptr noundef nonnull align 8 dereferenceable(570) %86, i8 noundef signext 10)
          to label %_ZNKSt9basic_iosIcSt11char_traitsIcEE5widenEc.exit.i.i unwind label %lpad13.i.loopexit

_ZNKSt9basic_iosIcSt11char_traitsIcEE5widenEc.exit.i.i: ; preds = %.noexc275.i, %if.then.i4.i.i.i
  %retval.0.i.i.i.i = phi i8 [ %88, %if.then.i4.i.i.i ], [ %call.i.i.i271276.i, %.noexc275.i ]
  %call1.i277.i = invoke noundef nonnull align 8 dereferenceable(8) ptr @_ZNSo3putEc(ptr noundef nonnull align 8 dereferenceable(8) %call2.i178.i, i8 noundef signext %retval.0.i.i.i.i)
          to label %call1.i.noexc.i unwind label %lpad13.i.loopexit

call1.i.noexc.i:                                  ; preds = %_ZNKSt9basic_iosIcSt11char_traitsIcEE5widenEc.exit.i.i
  %call.i.i273278.i = invoke noundef nonnull align 8 dereferenceable(8) ptr @_ZNSo5flushEv(ptr noundef nonnull align 8 dereferenceable(8) %call1.i277.i)
          to label %if.end.i unwind label %lpad13.i.loopexit

lpad.i145.loopexit:                               ; preds = %_ZNSt7__cxx1112basic_stringIcSt11char_traitsIcESaIcEE6appendERKS4_.exit.i.i
  %lpad.loopexit595 = landingpad { ptr, i32 }
          cleanup
  br label %ehcleanup125.i

lpad.i145.loopexit.split-lp:                      ; preds = %if.then.i.i.i.i.i139
  %lpad.loopexit.split-lp596 = landingpad { ptr, i32 }
          cleanup
  br label %ehcleanup125.i

lpad4.i.loopexit:                                 ; preds = %_ZNSt7__cxx1112basic_stringIcSt11char_traitsIcESaIcEE6appendERKS4_.exit.i169.i
  %lpad.loopexit598 = landingpad { ptr, i32 }
          cleanup
  br label %lpad4.i

lpad4.i.loopexit.split-lp:                        ; preds = %if.then.i.i.i.i167.i
  %lpad.loopexit.split-lp599 = landingpad { ptr, i32 }
          cleanup
  br label %lpad4.i

lpad4.i:                                          ; preds = %lpad4.i.loopexit.split-lp, %lpad4.i.loopexit
  %lpad.phi600 = phi { ptr, i32 } [ %lpad.loopexit598, %lpad4.i.loopexit ], [ %lpad.loopexit.split-lp599, %lpad4.i.loopexit.split-lp ]
  %90 = load ptr, ptr %ref.tmp.i, align 8, !tbaa !125
  %cmp.i.i.i180.i = icmp eq ptr %90, %57
  br i1 %cmp.i.i.i180.i, label %ehcleanup.i, label %if.then.i.i181.i

if.then.i.i181.i:                                 ; preds = %lpad4.i
  call void @_ZdlPv(ptr noundef %90) #25
  br label %ehcleanup.i

ehcleanup.i:                                      ; preds = %if.then.i.i181.i, %lpad4.i
  call void @llvm.lifetime.end.p0(i64 32, ptr nonnull %ref.tmp.i) #24
  br label %ehcleanup125.i

lpad11.i:                                         ; preds = %_ZNSt7__cxx1112basic_stringIcSt11char_traitsIcESaIcEED2Ev.exit.i143
  %91 = landingpad { ptr, i32 }
          cleanup
  br label %ehcleanup124.i

lpad13.i.loopexit:                                ; preds = %if.then.i, %invoke.cont16.i, %if.end.i.i.i272.i, %.noexc275.i, %_ZNKSt9basic_iosIcSt11char_traitsIcEE5widenEc.exit.i.i, %call1.i.noexc.i, %if.end.i, %invoke.cont22.i, %if.end.i.i.i294.i, %.noexc299.i, %_ZNKSt9basic_iosIcSt11char_traitsIcEE5widenEc.exit.i297.i, %call1.i.noexc301.i
  %lpad.loopexit601 = landingpad { ptr, i32 }
          cleanup
  br label %ehcleanup123.i

lpad13.i.loopexit.split-lp:                       ; preds = %if.then.i.i.i285.invoke.i
  %lpad.loopexit.split-lp602 = landingpad { ptr, i32 }
          cleanup
  br label %ehcleanup123.i

if.end.i:                                         ; preds = %call1.i.noexc.i, %invoke.cont14.i
  %call1.i184.i = invoke noundef nonnull align 8 dereferenceable(8) ptr @_ZSt16__ostream_insertIcSt11char_traitsIcEERSt13basic_ostreamIT_T0_ES6_PKS3_l(ptr noundef nonnull align 8 dereferenceable(8) @_ZSt4cout, ptr noundef nonnull @.str.65, i64 noundef 27)
          to label %invoke.cont22.i unwind label %lpad13.i.loopexit

invoke.cont22.i:                                  ; preds = %if.end.i
  %92 = load ptr, ptr %rept_fname.i, align 8, !tbaa !125
  %93 = load i64, ptr %_M_string_length.i.i.i.i.i.i, align 8, !tbaa !62
  %call2.i187.i = invoke noundef nonnull align 8 dereferenceable(8) ptr @_ZSt16__ostream_insertIcSt11char_traitsIcEERSt13basic_ostreamIT_T0_ES6_PKS3_l(ptr noundef nonnull align 8 dereferenceable(8) @_ZSt4cout, ptr noundef %92, i64 noundef %93)
          to label %invoke.cont24.i unwind label %lpad13.i.loopexit

invoke.cont24.i:                                  ; preds = %invoke.cont22.i
  %vtable.i279.i = load ptr, ptr %call2.i187.i, align 8, !tbaa !5
  %vbase.offset.ptr.i280.i = getelementptr i8, ptr %vtable.i279.i, i64 -24
  %vbase.offset.i281.i = load i64, ptr %vbase.offset.ptr.i280.i, align 8
  %add.ptr.i282.i = getelementptr inbounds i8, ptr %call2.i187.i, i64 %vbase.offset.i281.i
  %_M_ctype.i.i283.i = getelementptr inbounds %"class.std::basic_ios", ptr %add.ptr.i282.i, i64 0, i32 5
  %94 = load ptr, ptr %_M_ctype.i.i283.i, align 8, !tbaa !8
  %tobool.not.i.i.i284.i = icmp eq ptr %94, null
  br i1 %tobool.not.i.i.i284.i, label %if.then.i.i.i285.invoke.i, label %_ZSt13__check_facetISt5ctypeIcEERKT_PS3_.exit.i.i288.i

if.then.i.i.i285.invoke.i:                        ; preds = %invoke.cont24.i, %invoke.cont18.i
  invoke void @_ZSt16__throw_bad_castv() #22
          to label %if.then.i.i.i285.cont.i unwind label %lpad13.i.loopexit.split-lp

if.then.i.i.i285.cont.i:                          ; preds = %if.then.i.i.i285.invoke.i
  unreachable

_ZSt13__check_facetISt5ctypeIcEERKT_PS3_.exit.i.i288.i: ; preds = %invoke.cont24.i
  %_M_widen_ok.i.i.i286.i = getelementptr inbounds %"class.std::ctype", ptr %94, i64 0, i32 8
  %95 = load i8, ptr %_M_widen_ok.i.i.i286.i, align 8, !tbaa !20
  %tobool.not.i3.i.i287.i = icmp eq i8 %95, 0
  br i1 %tobool.not.i3.i.i287.i, label %if.end.i.i.i294.i, label %if.then.i4.i.i290.i

if.then.i4.i.i290.i:                              ; preds = %_ZSt13__check_facetISt5ctypeIcEERKT_PS3_.exit.i.i288.i
  %arrayidx.i.i.i289.i = getelementptr inbounds %"class.std::ctype", ptr %94, i64 0, i32 9, i64 10
  %96 = load i8, ptr %arrayidx.i.i.i289.i, align 1, !tbaa !23
  br label %_ZNKSt9basic_iosIcSt11char_traitsIcEE5widenEc.exit.i297.i

if.end.i.i.i294.i:                                ; preds = %_ZSt13__check_facetISt5ctypeIcEERKT_PS3_.exit.i.i288.i
  invoke void @_ZNKSt5ctypeIcE13_M_widen_initEv(ptr noundef nonnull align 8 dereferenceable(570) %94)
          to label %.noexc299.i unwind label %lpad13.i.loopexit

.noexc299.i:                                      ; preds = %if.end.i.i.i294.i
  %vtable.i.i.i291.i = load ptr, ptr %94, align 8, !tbaa !5
  %vfn.i.i.i292.i = getelementptr inbounds ptr, ptr %vtable.i.i.i291.i, i64 6
  %97 = load ptr, ptr %vfn.i.i.i292.i, align 8
  %call.i.i.i293300.i = invoke noundef signext i8 %97(ptr noundef nonnull align 8 dereferenceable(570) %94, i8 noundef signext 10)
          to label %_ZNKSt9basic_iosIcSt11char_traitsIcEE5widenEc.exit.i297.i unwind label %lpad13.i.loopexit

_ZNKSt9basic_iosIcSt11char_traitsIcEE5widenEc.exit.i297.i: ; preds = %.noexc299.i, %if.then.i4.i.i290.i
  %retval.0.i.i.i295.i = phi i8 [ %96, %if.then.i4.i.i290.i ], [ %call.i.i.i293300.i, %.noexc299.i ]
  %call1.i302.i = invoke noundef nonnull align 8 dereferenceable(8) ptr @_ZNSo3putEc(ptr noundef nonnull align 8 dereferenceable(8) %call2.i187.i, i8 noundef signext %retval.0.i.i.i295.i)
          to label %call1.i.noexc301.i unwind label %lpad13.i.loopexit

call1.i.noexc301.i:                               ; preds = %_ZNKSt9basic_iosIcSt11char_traitsIcEE5widenEc.exit.i297.i
  %call.i.i296303.i = invoke noundef nonnull align 8 dereferenceable(8) ptr @_ZNSo5flushEv(ptr noundef nonnull align 8 dereferenceable(8) %call1.i302.i)
          to label %invoke.cont26.i unwind label %lpad13.i.loopexit

invoke.cont26.i:                                  ; preds = %call1.i.noexc301.i
  %98 = load ptr, ptr @_ZL21s_loop_suite_run_info, align 8, !tbaa !59
  %loop_names29.i = getelementptr inbounds %class.LoopSuiteRunInfo, ptr %98, i64 0, i32 2
  %loop_length_names.i = getelementptr inbounds %class.LoopSuiteRunInfo, ptr %98, i64 0, i32 5
  call void @llvm.lifetime.start.p0(i64 32, ptr nonnull %sepchr.i) #24
  store ptr %58, ptr %sepchr.i, align 8, !tbaa !60
  call void @llvm.memcpy.p0.p0.i64(ptr noundef nonnull align 8 dereferenceable(3) %58, ptr noundef nonnull align 1 dereferenceable(3) @.str.36, i64 3, i1 false)
  store i64 3, ptr %_M_string_length.i.i.i.i198.i, align 8, !tbaa !62
  store i8 0, ptr %arrayidx.i.i.i199.i, align 1, !tbaa !23
  %99 = load ptr, ptr %add.ptr.i135, align 8, !tbaa !125
  %100 = load i64, ptr %_M_string_length.i.i.i156.i, align 8, !tbaa !62
  %call2.i204.i = invoke noundef nonnull align 8 dereferenceable(8) ptr @_ZSt16__ostream_insertIcSt11char_traitsIcEERSt13basic_ostreamIT_T0_ES6_PKS3_l(ptr noundef nonnull align 8 dereferenceable(8) %file.i, ptr noundef %99, i64 noundef %100)
          to label %invoke.cont36.i unwind label %lpad35.i.loopexit

invoke.cont36.i:                                  ; preds = %invoke.cont26.i
  %call1.i207.i = invoke noundef nonnull align 8 dereferenceable(8) ptr @_ZSt16__ostream_insertIcSt11char_traitsIcEERSt13basic_ostreamIT_T0_ES6_PKS3_l(ptr noundef nonnull align 8 dereferenceable(8) %call2.i204.i, ptr noundef nonnull @.str.66, i64 noundef 16)
          to label %for.cond.preheader.i unwind label %lpad35.i.loopexit

for.cond.preheader.i:                             ; preds = %invoke.cont36.i
  %_M_finish.i.i = getelementptr inbounds %class.LoopSuiteRunInfo, ptr %98, i64 0, i32 5, i32 0, i32 0, i32 0, i32 1
  %101 = load ptr, ptr %_M_finish.i.i, align 8, !tbaa !124
  %102 = load ptr, ptr %loop_length_names.i, align 8, !tbaa !123
  %cmp6.not.i = icmp eq ptr %101, %102
  br i1 %cmp6.not.i, label %for.cond.cleanup.i, label %for.body.i

for.cond.cleanup.i:                               ; preds = %for.inc.i, %for.cond.preheader.i
  %vtable.i305.i = load ptr, ptr %file.i, align 8, !tbaa !5
  %vbase.offset.ptr.i306.i = getelementptr i8, ptr %vtable.i305.i, i64 -24
  %vbase.offset.i307.i = load i64, ptr %vbase.offset.ptr.i306.i, align 8
  %gep680 = getelementptr i8, ptr %invariant.gep679, i64 %vbase.offset.i307.i
  %103 = load ptr, ptr %gep680, align 8, !tbaa !8
  %tobool.not.i.i.i310.i = icmp eq ptr %103, null
  br i1 %tobool.not.i.i.i310.i, label %if.then.i.i.i337.invoke.i, label %_ZSt13__check_facetISt5ctypeIcEERKT_PS3_.exit.i.i314.i

_ZSt13__check_facetISt5ctypeIcEERKT_PS3_.exit.i.i314.i: ; preds = %for.cond.cleanup.i
  %_M_widen_ok.i.i.i312.i = getelementptr inbounds %"class.std::ctype", ptr %103, i64 0, i32 8
  %104 = load i8, ptr %_M_widen_ok.i.i.i312.i, align 8, !tbaa !20
  %tobool.not.i3.i.i313.i = icmp eq i8 %104, 0
  br i1 %tobool.not.i3.i.i313.i, label %if.end.i.i.i320.i, label %if.then.i4.i.i316.i

if.then.i4.i.i316.i:                              ; preds = %_ZSt13__check_facetISt5ctypeIcEERKT_PS3_.exit.i.i314.i
  %arrayidx.i.i.i315.i = getelementptr inbounds %"class.std::ctype", ptr %103, i64 0, i32 9, i64 10
  %105 = load i8, ptr %arrayidx.i.i.i315.i, align 1, !tbaa !23
  br label %_ZNKSt9basic_iosIcSt11char_traitsIcEE5widenEc.exit.i323.i

if.end.i.i.i320.i:                                ; preds = %_ZSt13__check_facetISt5ctypeIcEERKT_PS3_.exit.i.i314.i
  invoke void @_ZNKSt5ctypeIcE13_M_widen_initEv(ptr noundef nonnull align 8 dereferenceable(570) %103)
          to label %.noexc325.i unwind label %lpad35.i.loopexit

.noexc325.i:                                      ; preds = %if.end.i.i.i320.i
  %vtable.i.i.i317.i = load ptr, ptr %103, align 8, !tbaa !5
  %vfn.i.i.i318.i = getelementptr inbounds ptr, ptr %vtable.i.i.i317.i, i64 6
  %106 = load ptr, ptr %vfn.i.i.i318.i, align 8
  %call.i.i.i319326.i = invoke noundef signext i8 %106(ptr noundef nonnull align 8 dereferenceable(570) %103, i8 noundef signext 10)
          to label %_ZNKSt9basic_iosIcSt11char_traitsIcEE5widenEc.exit.i323.i unwind label %lpad35.i.loopexit

_ZNKSt9basic_iosIcSt11char_traitsIcEE5widenEc.exit.i323.i: ; preds = %.noexc325.i, %if.then.i4.i.i316.i
  %retval.0.i.i.i321.i = phi i8 [ %105, %if.then.i4.i.i316.i ], [ %call.i.i.i319326.i, %.noexc325.i ]
  %call1.i328.i = invoke noundef nonnull align 8 dereferenceable(8) ptr @_ZNSo3putEc(ptr noundef nonnull align 8 dereferenceable(8) %file.i, i8 noundef signext %retval.0.i.i.i321.i)
          to label %call1.i.noexc327.i unwind label %lpad35.i.loopexit

call1.i.noexc327.i:                               ; preds = %_ZNKSt9basic_iosIcSt11char_traitsIcEE5widenEc.exit.i323.i
  %call.i.i322329.i = invoke noundef nonnull align 8 dereferenceable(8) ptr @_ZNSo5flushEv(ptr noundef nonnull align 8 dereferenceable(8) %call1.i328.i)
          to label %for.cond48.preheader.i unwind label %lpad35.i.loopexit

for.cond48.preheader.i:                           ; preds = %call1.i.noexc327.i
  %107 = load ptr, ptr %_M_finish.i.i, align 8, !tbaa !124
  %108 = load ptr, ptr %loop_length_names.i, align 8, !tbaa !123
  %cmp5112.not.i = icmp eq ptr %107, %108
  br i1 %cmp5112.not.i, label %for.cond.cleanup52.i, label %for.body53.i

lpad35.i.loopexit:                                ; preds = %invoke.cont26.i, %invoke.cont36.i, %if.end.i.i.i320.i, %.noexc325.i, %_ZNKSt9basic_iosIcSt11char_traitsIcEE5widenEc.exit.i323.i, %call1.i.noexc327.i, %if.end.i.i.i346.i, %.noexc351.i, %_ZNKSt9basic_iosIcSt11char_traitsIcEE5widenEc.exit.i349.i, %call1.i.noexc353.i, %for.cond.cleanup71.i
  %lpad.loopexit604 = landingpad { ptr, i32 }
          cleanup
  br label %ehcleanup117.i

lpad35.i.loopexit.split-lp:                       ; preds = %if.then.i.i.i337.invoke.i
  %lpad.loopexit.split-lp605 = landingpad { ptr, i32 }
          cleanup
  br label %ehcleanup117.i

for.body.i:                                       ; preds = %for.cond.preheader.i, %for.inc.i
  %i.07.i = phi i32 [ %inc.i, %for.inc.i ], [ 0, %for.cond.preheader.i ]
  %109 = load ptr, ptr %sepchr.i, align 8, !tbaa !125
  %110 = load i64, ptr %_M_string_length.i.i.i.i198.i, align 8, !tbaa !62
  %call2.i212.i = invoke noundef nonnull align 8 dereferenceable(8) ptr @_ZSt16__ostream_insertIcSt11char_traitsIcEERSt13basic_ostreamIT_T0_ES6_PKS3_l(ptr noundef nonnull align 8 dereferenceable(8) %file.i, ptr noundef %109, i64 noundef %110)
          to label %for.inc.i unwind label %lpad41.i

for.inc.i:                                        ; preds = %for.body.i
  %inc.i = add i32 %i.07.i, 1
  %conv.i = zext i32 %inc.i to i64
  %111 = load ptr, ptr %_M_finish.i.i, align 8, !tbaa !124
  %112 = load ptr, ptr %loop_length_names.i, align 8, !tbaa !123
  %sub.ptr.lhs.cast.i.i = ptrtoint ptr %111 to i64
  %sub.ptr.rhs.cast.i.i = ptrtoint ptr %112 to i64
  %sub.ptr.sub.i.i = sub i64 %sub.ptr.lhs.cast.i.i, %sub.ptr.rhs.cast.i.i
  %sub.ptr.div.i.i = ashr exact i64 %sub.ptr.sub.i.i, 5
  %cmp.i146 = icmp ugt i64 %sub.ptr.div.i.i, %conv.i
  br i1 %cmp.i146, label %for.body.i, label %for.cond.cleanup.i, !llvm.loop !160

lpad41.i:                                         ; preds = %for.body.i
  %113 = landingpad { ptr, i32 }
          cleanup
  br label %ehcleanup117.i

for.cond.cleanup52.i:                             ; preds = %for.inc61.i, %for.cond48.preheader.i
  %vtable.i331.i = load ptr, ptr %file.i, align 8, !tbaa !5
  %vbase.offset.ptr.i332.i = getelementptr i8, ptr %vtable.i331.i, i64 -24
  %vbase.offset.i333.i = load i64, ptr %vbase.offset.ptr.i332.i, align 8
  %gep682 = getelementptr i8, ptr %invariant.gep679, i64 %vbase.offset.i333.i
  %114 = load ptr, ptr %gep682, align 8, !tbaa !8
  %tobool.not.i.i.i336.i = icmp eq ptr %114, null
  br i1 %tobool.not.i.i.i336.i, label %if.then.i.i.i337.invoke.i, label %_ZSt13__check_facetISt5ctypeIcEERKT_PS3_.exit.i.i340.i

if.then.i.i.i337.invoke.i:                        ; preds = %for.cond.cleanup52.i, %for.cond.cleanup.i
  invoke void @_ZSt16__throw_bad_castv() #22
          to label %if.then.i.i.i337.cont.i unwind label %lpad35.i.loopexit.split-lp

if.then.i.i.i337.cont.i:                          ; preds = %if.then.i.i.i337.invoke.i
  unreachable

_ZSt13__check_facetISt5ctypeIcEERKT_PS3_.exit.i.i340.i: ; preds = %for.cond.cleanup52.i
  %_M_widen_ok.i.i.i338.i = getelementptr inbounds %"class.std::ctype", ptr %114, i64 0, i32 8
  %115 = load i8, ptr %_M_widen_ok.i.i.i338.i, align 8, !tbaa !20
  %tobool.not.i3.i.i339.i = icmp eq i8 %115, 0
  br i1 %tobool.not.i3.i.i339.i, label %if.end.i.i.i346.i, label %if.then.i4.i.i342.i

if.then.i4.i.i342.i:                              ; preds = %_ZSt13__check_facetISt5ctypeIcEERKT_PS3_.exit.i.i340.i
  %arrayidx.i.i.i341.i = getelementptr inbounds %"class.std::ctype", ptr %114, i64 0, i32 9, i64 10
  %116 = load i8, ptr %arrayidx.i.i.i341.i, align 1, !tbaa !23
  br label %_ZNKSt9basic_iosIcSt11char_traitsIcEE5widenEc.exit.i349.i

if.end.i.i.i346.i:                                ; preds = %_ZSt13__check_facetISt5ctypeIcEERKT_PS3_.exit.i.i340.i
  invoke void @_ZNKSt5ctypeIcE13_M_widen_initEv(ptr noundef nonnull align 8 dereferenceable(570) %114)
          to label %.noexc351.i unwind label %lpad35.i.loopexit

.noexc351.i:                                      ; preds = %if.end.i.i.i346.i
  %vtable.i.i.i343.i = load ptr, ptr %114, align 8, !tbaa !5
  %vfn.i.i.i344.i = getelementptr inbounds ptr, ptr %vtable.i.i.i343.i, i64 6
  %117 = load ptr, ptr %vfn.i.i.i344.i, align 8
  %call.i.i.i345352.i = invoke noundef signext i8 %117(ptr noundef nonnull align 8 dereferenceable(570) %114, i8 noundef signext 10)
          to label %_ZNKSt9basic_iosIcSt11char_traitsIcEE5widenEc.exit.i349.i unwind label %lpad35.i.loopexit

_ZNKSt9basic_iosIcSt11char_traitsIcEE5widenEc.exit.i349.i: ; preds = %.noexc351.i, %if.then.i4.i.i342.i
  %retval.0.i.i.i347.i = phi i8 [ %116, %if.then.i4.i.i342.i ], [ %call.i.i.i345352.i, %.noexc351.i ]
  %call1.i354.i = invoke noundef nonnull align 8 dereferenceable(8) ptr @_ZNSo3putEc(ptr noundef nonnull align 8 dereferenceable(8) %file.i, i8 noundef signext %retval.0.i.i.i347.i)
          to label %call1.i.noexc353.i unwind label %lpad35.i.loopexit

call1.i.noexc353.i:                               ; preds = %_ZNKSt9basic_iosIcSt11char_traitsIcEE5widenEc.exit.i349.i
  %call.i.i348355.i = invoke noundef nonnull align 8 dereferenceable(8) ptr @_ZNSo5flushEv(ptr noundef nonnull align 8 dereferenceable(8) %call1.i354.i)
          to label %for.cond67.preheader.i unwind label %lpad35.i.loopexit

for.cond67.preheader.i:                           ; preds = %call1.i.noexc353.i
  %_M_finish.i227.i = getelementptr inbounds %class.LoopSuiteRunInfo, ptr %98, i64 0, i32 2, i32 0, i32 0, i32 0, i32 1
  %118 = load ptr, ptr %_M_finish.i227.i, align 8, !tbaa !124
  %119 = load ptr, ptr %loop_names29.i, align 8, !tbaa !123
  %cmp7026.not.i = icmp eq ptr %118, %119
  br i1 %cmp7026.not.i, label %for.cond.cleanup71.i, label %for.body72.lr.ph.i

for.body72.lr.ph.i:                               ; preds = %for.cond67.preheader.i
  %_M_parent.i.i.i.i.i.i = getelementptr inbounds %class.LoopSuiteRunInfo, ptr %98, i64 0, i32 17, i32 0, i32 0, i32 1, i32 0, i32 1
  %add.ptr.i.i.i.i.i = getelementptr inbounds %class.LoopSuiteRunInfo, ptr %98, i64 0, i32 17, i32 0, i32 0, i32 1
  br label %for.body72.i

for.body53.i:                                     ; preds = %for.cond48.preheader.i, %for.inc61.i
  %conv4914.i = phi i64 [ %conv49.i, %for.inc61.i ], [ 0, %for.cond48.preheader.i ]
  %120 = load ptr, ptr %sepchr.i, align 8, !tbaa !125
  %121 = load i64, ptr %_M_string_length.i.i.i.i198.i, align 8, !tbaa !62
  %call2.i222.i = invoke noundef nonnull align 8 dereferenceable(8) ptr @_ZSt16__ostream_insertIcSt11char_traitsIcEERSt13basic_ostreamIT_T0_ES6_PKS3_l(ptr noundef nonnull align 8 dereferenceable(8) %file.i, ptr noundef %120, i64 noundef %121)
          to label %invoke.cont55.i unwind label %lpad54.i

invoke.cont55.i:                                  ; preds = %for.body53.i
  %122 = load ptr, ptr %loop_length_names.i, align 8, !tbaa !123
  %add.ptr.i.i = getelementptr inbounds %"class.std::__cxx11::basic_string", ptr %122, i64 %conv4914.i
  %123 = load ptr, ptr %add.ptr.i.i, align 8, !tbaa !125
  %_M_string_length.i.i224.i = getelementptr inbounds %"class.std::__cxx11::basic_string", ptr %122, i64 %conv4914.i, i32 1
  %124 = load i64, ptr %_M_string_length.i.i224.i, align 8, !tbaa !62
  %call2.i225.i = invoke noundef nonnull align 8 dereferenceable(8) ptr @_ZSt16__ostream_insertIcSt11char_traitsIcEERSt13basic_ostreamIT_T0_ES6_PKS3_l(ptr noundef nonnull align 8 dereferenceable(8) %call2.i222.i, ptr noundef %123, i64 noundef %124)
          to label %for.inc61.i unwind label %lpad54.i

for.inc61.i:                                      ; preds = %invoke.cont55.i
  %inc62.i = add nuw nsw i64 %conv4914.i, 1
  %conv49.i = and i64 %inc62.i, 4294967295
  %125 = load ptr, ptr %_M_finish.i.i, align 8, !tbaa !124
  %126 = load ptr, ptr %loop_length_names.i, align 8, !tbaa !123
  %sub.ptr.lhs.cast.i215.i = ptrtoint ptr %125 to i64
  %sub.ptr.rhs.cast.i216.i = ptrtoint ptr %126 to i64
  %sub.ptr.sub.i217.i = sub i64 %sub.ptr.lhs.cast.i215.i, %sub.ptr.rhs.cast.i216.i
  %sub.ptr.div.i218.i = ashr exact i64 %sub.ptr.sub.i217.i, 5
  %cmp51.i = icmp ugt i64 %sub.ptr.div.i218.i, %conv49.i
  br i1 %cmp51.i, label %for.body53.i, label %for.cond.cleanup52.i, !llvm.loop !161

lpad54.i:                                         ; preds = %invoke.cont55.i, %for.body53.i
  %127 = landingpad { ptr, i32 }
          cleanup
  br label %ehcleanup117.i

for.cond.cleanup71.i:                             ; preds = %if.end109.i, %for.cond67.preheader.i
  %call116.i = invoke noundef nonnull align 8 dereferenceable(8) ptr @_ZNSo5flushEv(ptr noundef nonnull align 8 dereferenceable(8) %file.i)
          to label %invoke.cont115.i unwind label %lpad35.i.loopexit

for.body72.i:                                     ; preds = %if.end109.i, %for.body72.lr.ph.i
  %128 = phi ptr [ %119, %for.body72.lr.ph.i ], [ %155, %if.end109.i ]
  %129 = phi ptr [ %118, %for.body72.lr.ph.i ], [ %156, %if.end109.i ]
  %conv6828.i = phi i64 [ 0, %for.body72.lr.ph.i ], [ %conv68.i, %if.end109.i ]
  %130 = load ptr, ptr %_M_parent.i.i.i.i.i.i, align 16, !tbaa !97
  %cmp.not9.i.i.i.i.i = icmp eq ptr %130, null
  br i1 %cmp.not9.i.i.i.i.i, label %invoke.cont74.i, label %while.body.lr.ph.i.i.i.i.i

while.body.lr.ph.i.i.i.i.i:                       ; preds = %for.body72.i
  %131 = load i64, ptr %_M_string_length.i.i.i156.i, align 8, !tbaa !62
  %132 = load ptr, ptr %add.ptr.i135, align 8
  br label %while.body.i.i.i.i.i

while.body.i.i.i.i.i:                             ; preds = %_ZNKSt4lessINSt7__cxx1112basic_stringIcSt11char_traitsIcESaIcEEEEclERKS5_S8_.exit.i.i.i.i.i, %while.body.lr.ph.i.i.i.i.i
  %__x.addr.011.i.i.i.i.i = phi ptr [ %130, %while.body.lr.ph.i.i.i.i.i ], [ %__x.addr.1.i.i.i.i.i, %_ZNKSt4lessINSt7__cxx1112basic_stringIcSt11char_traitsIcESaIcEEEEclERKS5_S8_.exit.i.i.i.i.i ]
  %__y.addr.010.i.i.i.i.i = phi ptr [ %add.ptr.i.i.i.i.i, %while.body.lr.ph.i.i.i.i.i ], [ %__y.addr.1.i.i.i.i.i, %_ZNKSt4lessINSt7__cxx1112basic_stringIcSt11char_traitsIcESaIcEEEEclERKS5_S8_.exit.i.i.i.i.i ]
  %_M_string_length.i.i.i.i.i.i.i.i.i = getelementptr inbounds %"struct.std::_Rb_tree_node", ptr %__x.addr.011.i.i.i.i.i, i64 0, i32 1, i32 0, i64 8
  %133 = load i64, ptr %_M_string_length.i.i.i.i.i.i.i.i.i, align 8, !tbaa !62
  %.sroa.speculated.i.i.i.i.i.i.i.i = call i64 @llvm.umin.i64(i64 %133, i64 %131)
  %cmp.i11.i.i.i.i.i.i.i.i = icmp eq i64 %.sroa.speculated.i.i.i.i.i.i.i.i, 0
  br i1 %cmp.i11.i.i.i.i.i.i.i.i, label %if.then.i.i.i.i.i.i.i.i, label %_ZNSt11char_traitsIcE7compareEPKcS2_m.exit.i.i.i.i.i.i.i.i

_ZNSt11char_traitsIcE7compareEPKcS2_m.exit.i.i.i.i.i.i.i.i: ; preds = %while.body.i.i.i.i.i
  %_M_storage.i.i.i.i.i.i.i = getelementptr inbounds %"struct.std::_Rb_tree_node", ptr %__x.addr.011.i.i.i.i.i, i64 0, i32 1
  %134 = load ptr, ptr %_M_storage.i.i.i.i.i.i.i, align 8, !tbaa !125
  %call.i.i.i.i.i.i.i.i.i = call i32 @memcmp(ptr noundef %134, ptr noundef %132, i64 noundef %.sroa.speculated.i.i.i.i.i.i.i.i) #24
  %tobool.not.i.i.i.i.i.i.i.i = icmp eq i32 %call.i.i.i.i.i.i.i.i.i, 0
  br i1 %tobool.not.i.i.i.i.i.i.i.i, label %if.then.i.i.i.i.i.i.i.i, label %_ZNKSt4lessINSt7__cxx1112basic_stringIcSt11char_traitsIcESaIcEEEEclERKS5_S8_.exit.i.i.i.i.i

if.then.i.i.i.i.i.i.i.i:                          ; preds = %_ZNSt11char_traitsIcE7compareEPKcS2_m.exit.i.i.i.i.i.i.i.i, %while.body.i.i.i.i.i
  %sub.i.i.i.i.i.i.i.i.i = sub i64 %133, %131
  %spec.select6.i.i.i.i.i.i.i.i.i = call i64 @llvm.smax.i64(i64 %sub.i.i.i.i.i.i.i.i.i, i64 -2147483648)
  %retval.07.i.i.i.i.i.i.i.i.i = call i64 @llvm.smin.i64(i64 %spec.select6.i.i.i.i.i.i.i.i.i, i64 2147483647)
  %retval.0.i12.i.i.i.i.i.i.i.i = trunc i64 %retval.07.i.i.i.i.i.i.i.i.i to i32
  br label %_ZNKSt4lessINSt7__cxx1112basic_stringIcSt11char_traitsIcESaIcEEEEclERKS5_S8_.exit.i.i.i.i.i

_ZNKSt4lessINSt7__cxx1112basic_stringIcSt11char_traitsIcESaIcEEEEclERKS5_S8_.exit.i.i.i.i.i: ; preds = %if.then.i.i.i.i.i.i.i.i, %_ZNSt11char_traitsIcE7compareEPKcS2_m.exit.i.i.i.i.i.i.i.i
  %__r.0.i.i.i.i.i.i.i.i = phi i32 [ %call.i.i.i.i.i.i.i.i.i, %_ZNSt11char_traitsIcE7compareEPKcS2_m.exit.i.i.i.i.i.i.i.i ], [ %retval.0.i12.i.i.i.i.i.i.i.i, %if.then.i.i.i.i.i.i.i.i ]
  %cmp.i.i.i.i.i.i.i = icmp slt i32 %__r.0.i.i.i.i.i.i.i.i, 0
  %_M_right.i.i.i.i.i.i = getelementptr inbounds %"struct.std::_Rb_tree_node_base", ptr %__x.addr.011.i.i.i.i.i, i64 0, i32 3
  %_M_left.i.i.i.i.i.i = getelementptr inbounds %"struct.std::_Rb_tree_node_base", ptr %__x.addr.011.i.i.i.i.i, i64 0, i32 2
  %__y.addr.1.i.i.i.i.i = select i1 %cmp.i.i.i.i.i.i.i, ptr %__y.addr.010.i.i.i.i.i, ptr %__x.addr.011.i.i.i.i.i
  %__x.addr.1.in.i.i.i.i.i = select i1 %cmp.i.i.i.i.i.i.i, ptr %_M_right.i.i.i.i.i.i, ptr %_M_left.i.i.i.i.i.i
  %__x.addr.1.i.i.i.i.i = load ptr, ptr %__x.addr.1.in.i.i.i.i.i, align 8, !tbaa !59
  %cmp.not.i.i.i.i.i = icmp eq ptr %__x.addr.1.i.i.i.i.i, null
  br i1 %cmp.not.i.i.i.i.i, label %_ZNSt8_Rb_treeINSt7__cxx1112basic_stringIcSt11char_traitsIcESaIcEEESt4pairIKS5_PSt6vectorI8LoopStatSaIS9_EEESt10_Select1stISD_ESt4lessIS5_ESaISD_EE14_M_lower_boundEPSt13_Rb_tree_nodeISD_EPSt18_Rb_tree_node_baseRS7_.exit.i.i.i.i, label %while.body.i.i.i.i.i, !llvm.loop !145

_ZNSt8_Rb_treeINSt7__cxx1112basic_stringIcSt11char_traitsIcESaIcEEESt4pairIKS5_PSt6vectorI8LoopStatSaIS9_EEESt10_Select1stISD_ESt4lessIS5_ESaISD_EE14_M_lower_boundEPSt13_Rb_tree_nodeISD_EPSt18_Rb_tree_node_baseRS7_.exit.i.i.i.i: ; preds = %_ZNKSt4lessINSt7__cxx1112basic_stringIcSt11char_traitsIcESaIcEEEEclERKS5_S8_.exit.i.i.i.i.i
  %cmp.i.i.i.i232.i = icmp eq ptr %__y.addr.1.i.i.i.i.i, %add.ptr.i.i.i.i.i
  br i1 %cmp.i.i.i.i232.i, label %invoke.cont74.i, label %lor.lhs.false.i.i.i.i

lor.lhs.false.i.i.i.i:                            ; preds = %_ZNSt8_Rb_treeINSt7__cxx1112basic_stringIcSt11char_traitsIcESaIcEEESt4pairIKS5_PSt6vectorI8LoopStatSaIS9_EEESt10_Select1stISD_ESt4lessIS5_ESaISD_EE14_M_lower_boundEPSt13_Rb_tree_nodeISD_EPSt18_Rb_tree_node_baseRS7_.exit.i.i.i.i
  %_M_string_length.i10.i.i.i.i.i.i.i147 = getelementptr inbounds %"struct.std::_Rb_tree_node", ptr %__y.addr.1.i.i.i.i.i, i64 0, i32 1, i32 0, i64 8
  %135 = load i64, ptr %_M_string_length.i10.i.i.i.i.i.i.i147, align 8, !tbaa !62
  %.sroa.speculated.i.i.i.i.i.i.i148 = call i64 @llvm.umin.i64(i64 %131, i64 %135)
  %cmp.i11.i.i.i.i.i.i.i149 = icmp eq i64 %.sroa.speculated.i.i.i.i.i.i.i148, 0
  br i1 %cmp.i11.i.i.i.i.i.i.i149, label %if.then.i.i.i.i.i.i.i157, label %_ZNSt11char_traitsIcE7compareEPKcS2_m.exit.i.i.i.i.i.i.i152

_ZNSt11char_traitsIcE7compareEPKcS2_m.exit.i.i.i.i.i.i.i152: ; preds = %lor.lhs.false.i.i.i.i
  %_M_storage.i.i.i14.i.i.i.i = getelementptr inbounds %"struct.std::_Rb_tree_node", ptr %__y.addr.1.i.i.i.i.i, i64 0, i32 1
  %136 = load ptr, ptr %_M_storage.i.i.i14.i.i.i.i, align 8, !tbaa !125
  %call.i.i.i.i.i.i.i.i150 = call i32 @memcmp(ptr noundef %132, ptr noundef %136, i64 noundef %.sroa.speculated.i.i.i.i.i.i.i148) #24
  %tobool.not.i.i.i.i.i.i.i151 = icmp eq i32 %call.i.i.i.i.i.i.i.i150, 0
  br i1 %tobool.not.i.i.i.i.i.i.i151, label %if.then.i.i.i.i.i.i.i157, label %_ZNKSt4lessINSt7__cxx1112basic_stringIcSt11char_traitsIcESaIcEEEEclERKS5_S8_.exit.i.i.i.i160

if.then.i.i.i.i.i.i.i157:                         ; preds = %_ZNSt11char_traitsIcE7compareEPKcS2_m.exit.i.i.i.i.i.i.i152, %lor.lhs.false.i.i.i.i
  %sub.i.i.i.i.i.i.i.i153 = sub i64 %131, %135
  %spec.select6.i.i.i.i.i.i.i.i154 = call i64 @llvm.smax.i64(i64 %sub.i.i.i.i.i.i.i.i153, i64 -2147483648)
  %retval.07.i.i.i.i.i.i.i.i155 = call i64 @llvm.smin.i64(i64 %spec.select6.i.i.i.i.i.i.i.i154, i64 2147483647)
  %retval.0.i12.i.i.i.i.i.i.i156 = trunc i64 %retval.07.i.i.i.i.i.i.i.i155 to i32
  br label %_ZNKSt4lessINSt7__cxx1112basic_stringIcSt11char_traitsIcESaIcEEEEclERKS5_S8_.exit.i.i.i.i160

_ZNKSt4lessINSt7__cxx1112basic_stringIcSt11char_traitsIcESaIcEEEEclERKS5_S8_.exit.i.i.i.i160: ; preds = %if.then.i.i.i.i.i.i.i157, %_ZNSt11char_traitsIcE7compareEPKcS2_m.exit.i.i.i.i.i.i.i152
  %__r.0.i.i.i.i.i.i.i158 = phi i32 [ %call.i.i.i.i.i.i.i.i150, %_ZNSt11char_traitsIcE7compareEPKcS2_m.exit.i.i.i.i.i.i.i152 ], [ %retval.0.i12.i.i.i.i.i.i.i156, %if.then.i.i.i.i.i.i.i157 ]
  %cmp.i.i.i.i.i.i159 = icmp slt i32 %__r.0.i.i.i.i.i.i.i158, 0
  %spec.select.i.i.i.i = select i1 %cmp.i.i.i.i.i.i159, ptr %add.ptr.i.i.i.i.i, ptr %__y.addr.1.i.i.i.i.i
  br label %invoke.cont74.i

invoke.cont74.i:                                  ; preds = %_ZNKSt4lessINSt7__cxx1112basic_stringIcSt11char_traitsIcESaIcEEEEclERKS5_S8_.exit.i.i.i.i160, %_ZNSt8_Rb_treeINSt7__cxx1112basic_stringIcSt11char_traitsIcESaIcEEESt4pairIKS5_PSt6vectorI8LoopStatSaIS9_EEESt10_Select1stISD_ESt4lessIS5_ESaISD_EE14_M_lower_boundEPSt13_Rb_tree_nodeISD_EPSt18_Rb_tree_node_baseRS7_.exit.i.i.i.i, %for.body72.i
  %retval.sroa.0.0.i.i.i.i = phi ptr [ %add.ptr.i.i.i.i.i, %_ZNSt8_Rb_treeINSt7__cxx1112basic_stringIcSt11char_traitsIcESaIcEEESt4pairIKS5_PSt6vectorI8LoopStatSaIS9_EEESt10_Select1stISD_ESt4lessIS5_ESaISD_EE14_M_lower_boundEPSt13_Rb_tree_nodeISD_EPSt18_Rb_tree_node_baseRS7_.exit.i.i.i.i ], [ %add.ptr.i.i.i.i.i, %for.body72.i ], [ %spec.select.i.i.i.i, %_ZNKSt4lessINSt7__cxx1112basic_stringIcSt11char_traitsIcESaIcEEEEclERKS5_S8_.exit.i.i.i.i160 ]
  %second.i.i = getelementptr inbounds %"struct.std::_Rb_tree_node", ptr %retval.sroa.0.0.i.i.i.i, i64 0, i32 1, i32 0, i64 32
  %137 = load ptr, ptr %second.i.i, align 8, !tbaa !110
  %138 = load ptr, ptr %137, align 8, !tbaa !112
  %add.ptr.i233.i = getelementptr inbounds %class.LoopStat, ptr %138, i64 %conv6828.i
  %_M_string_length.i.i235.i = getelementptr inbounds %"class.std::__cxx11::basic_string", ptr %128, i64 %conv6828.i, i32 1
  %139 = load i64, ptr %_M_string_length.i.i235.i, align 8, !tbaa !62
  %cmp.i.i161 = icmp eq i64 %139, 0
  %140 = load i8, ptr %add.ptr.i233.i, align 8, !range !43
  %tobool.not.i = icmp eq i8 %140, 0
  %or.cond.i = select i1 %cmp.i.i161, i1 true, i1 %tobool.not.i
  br i1 %or.cond.i, label %if.end109.i, label %if.then81.i

if.then81.i:                                      ; preds = %invoke.cont74.i
  %add.ptr.i234.i = getelementptr inbounds %"class.std::__cxx11::basic_string", ptr %128, i64 %conv6828.i
  %141 = load ptr, ptr %add.ptr.i234.i, align 8, !tbaa !125
  %call2.i238.i = invoke noundef nonnull align 8 dereferenceable(8) ptr @_ZSt16__ostream_insertIcSt11char_traitsIcEERSt13basic_ostreamIT_T0_ES6_PKS3_l(ptr noundef nonnull align 8 dereferenceable(8) %file.i, ptr noundef %141, i64 noundef %139)
          to label %for.cond86.preheader.i unwind label %lpad73.loopexit.i

for.cond86.preheader.i:                           ; preds = %if.then81.i
  %loop_length.i = getelementptr inbounds %class.LoopStat, ptr %138, i64 %conv6828.i, i32 10
  %_M_finish.i240.i = getelementptr inbounds %"struct.std::_Vector_base<int, std::allocator<int>>::_Vector_impl_data", ptr %loop_length.i, i64 0, i32 1
  %142 = load ptr, ptr %_M_finish.i240.i, align 8, !tbaa !45
  %143 = load ptr, ptr %loop_length.i, align 8, !tbaa !46
  %cmp8919.not.i = icmp eq ptr %142, %143
  br i1 %cmp8919.not.i, label %for.cond.cleanup90.i, label %for.body91.lr.ph.i

for.body91.lr.ph.i:                               ; preds = %for.cond86.preheader.i
  %mean.i = getelementptr inbounds %class.LoopStat, ptr %138, i64 %conv6828.i, i32 4
  br label %for.body91.i

for.cond.cleanup90.i:                             ; preds = %for.inc103.i, %for.cond86.preheader.i
  %vtable.i357.i = load ptr, ptr %file.i, align 8, !tbaa !5
  %vbase.offset.ptr.i358.i = getelementptr i8, ptr %vtable.i357.i, i64 -24
  %vbase.offset.i359.i = load i64, ptr %vbase.offset.ptr.i358.i, align 8
  %gep.i = getelementptr i8, ptr %invariant.gep679, i64 %vbase.offset.i359.i
  %144 = load ptr, ptr %gep.i, align 8, !tbaa !8
  %tobool.not.i.i.i362.i = icmp eq ptr %144, null
  br i1 %tobool.not.i.i.i362.i, label %if.then.i.i.i363.i, label %_ZSt13__check_facetISt5ctypeIcEERKT_PS3_.exit.i.i366.i

if.then.i.i.i363.i:                               ; preds = %for.cond.cleanup90.i
  invoke void @_ZSt16__throw_bad_castv() #22
          to label %.noexc376.i unwind label %lpad73.loopexit.split-lp.i

.noexc376.i:                                      ; preds = %if.then.i.i.i363.i
  unreachable

_ZSt13__check_facetISt5ctypeIcEERKT_PS3_.exit.i.i366.i: ; preds = %for.cond.cleanup90.i
  %_M_widen_ok.i.i.i364.i = getelementptr inbounds %"class.std::ctype", ptr %144, i64 0, i32 8
  %145 = load i8, ptr %_M_widen_ok.i.i.i364.i, align 8, !tbaa !20
  %tobool.not.i3.i.i365.i = icmp eq i8 %145, 0
  br i1 %tobool.not.i3.i.i365.i, label %if.end.i.i.i372.i, label %if.then.i4.i.i368.i

if.then.i4.i.i368.i:                              ; preds = %_ZSt13__check_facetISt5ctypeIcEERKT_PS3_.exit.i.i366.i
  %arrayidx.i.i.i367.i = getelementptr inbounds %"class.std::ctype", ptr %144, i64 0, i32 9, i64 10
  %146 = load i8, ptr %arrayidx.i.i.i367.i, align 1, !tbaa !23
  br label %_ZNKSt9basic_iosIcSt11char_traitsIcEE5widenEc.exit.i375.i

if.end.i.i.i372.i:                                ; preds = %_ZSt13__check_facetISt5ctypeIcEERKT_PS3_.exit.i.i366.i
  invoke void @_ZNKSt5ctypeIcE13_M_widen_initEv(ptr noundef nonnull align 8 dereferenceable(570) %144)
          to label %.noexc377.i unwind label %lpad73.loopexit.i

.noexc377.i:                                      ; preds = %if.end.i.i.i372.i
  %vtable.i.i.i369.i = load ptr, ptr %144, align 8, !tbaa !5
  %vfn.i.i.i370.i = getelementptr inbounds ptr, ptr %vtable.i.i.i369.i, i64 6
  %147 = load ptr, ptr %vfn.i.i.i370.i, align 8
  %call.i.i.i371378.i = invoke noundef signext i8 %147(ptr noundef nonnull align 8 dereferenceable(570) %144, i8 noundef signext 10)
          to label %_ZNKSt9basic_iosIcSt11char_traitsIcEE5widenEc.exit.i375.i unwind label %lpad73.loopexit.i

_ZNKSt9basic_iosIcSt11char_traitsIcEE5widenEc.exit.i375.i: ; preds = %.noexc377.i, %if.then.i4.i.i368.i
  %retval.0.i.i.i373.i = phi i8 [ %146, %if.then.i4.i.i368.i ], [ %call.i.i.i371378.i, %.noexc377.i ]
  %call1.i380.i = invoke noundef nonnull align 8 dereferenceable(8) ptr @_ZNSo3putEc(ptr noundef nonnull align 8 dereferenceable(8) %file.i, i8 noundef signext %retval.0.i.i.i373.i)
          to label %call1.i.noexc379.i unwind label %lpad73.loopexit.i

call1.i.noexc379.i:                               ; preds = %_ZNKSt9basic_iosIcSt11char_traitsIcEE5widenEc.exit.i375.i
  %call.i.i374381.i = invoke noundef nonnull align 8 dereferenceable(8) ptr @_ZNSo5flushEv(ptr noundef nonnull align 8 dereferenceable(8) %call1.i380.i)
          to label %call1.i.noexc379.if.end109_crit_edge.i unwind label %lpad73.loopexit.i

