; ModuleID = '/usr/local/google/home/aeubanks/repos/test-suite/MicroBenchmarks/libs/benchmark/test/user_counters_thousands_test.cc'
source_filename = "/usr/local/google/home/aeubanks/repos/test-suite/MicroBenchmarks/libs/benchmark/test/user_counters_thousands_test.cc"
target datalayout = "e-m:e-p270:32:32-p271:32:32-p272:64:64-i64:64-f80:128-n8:16:32:64-S128"
target triple = "x86_64-unknown-linux-gnu"

%"class.std::ios_base::Init" = type { i8 }
%"class.benchmark::internal::LogType" = type { ptr }
%"class.std::basic_ostream" = type { ptr, %"class.std::basic_ios" }
%"class.std::basic_ios" = type { %"class.std::ios_base", ptr, i8, i8, ptr, ptr, ptr, ptr }
%"class.std::ios_base" = type { ptr, i64, i64, i32, i32, i32, ptr, %"struct.std::ios_base::_Words", [8 x %"struct.std::ios_base::_Words"], i32, ptr, %"class.std::locale" }
%"struct.std::ios_base::_Words" = type { ptr, i64 }
%"class.std::locale" = type { ptr }
%"struct.std::_Rb_tree<std::__cxx11::basic_string<char>, std::pair<const std::__cxx11::basic_string<char>, benchmark::Counter>, std::_Select1st<std::pair<const std::__cxx11::basic_string<char>, benchmark::Counter>>, std::less<std::__cxx11::basic_string<char>>>::_Alloc_node" = type { ptr }
%"struct.std::pair" = type { %"class.std::__cxx11::basic_string", %"class.benchmark::Counter" }
%"class.std::__cxx11::basic_string" = type { %"struct.std::__cxx11::basic_string<char>::_Alloc_hider", i64, %union.anon }
%"struct.std::__cxx11::basic_string<char>::_Alloc_hider" = type { ptr }
%union.anon = type { i64, [8 x i8] }
%"class.benchmark::Counter" = type { double, i32, i32 }
%"class.benchmark::State" = type { i64, i64, i64, i8, i8, i8, %"class.std::vector", i64, %"class.std::map", i32, i32, ptr, ptr, ptr }
%"class.std::vector" = type { %"struct.std::_Vector_base" }
%"struct.std::_Vector_base" = type { %"struct.std::_Vector_base<long, std::allocator<long>>::_Vector_impl" }
%"struct.std::_Vector_base<long, std::allocator<long>>::_Vector_impl" = type { %"struct.std::_Vector_base<long, std::allocator<long>>::_Vector_impl_data" }
%"struct.std::_Vector_base<long, std::allocator<long>>::_Vector_impl_data" = type { ptr, ptr, ptr }
%"class.std::map" = type { %"class.std::_Rb_tree" }
%"class.std::_Rb_tree" = type { %"struct.std::_Rb_tree<std::__cxx11::basic_string<char>, std::pair<const std::__cxx11::basic_string<char>, benchmark::Counter>, std::_Select1st<std::pair<const std::__cxx11::basic_string<char>, benchmark::Counter>>, std::less<std::__cxx11::basic_string<char>>>::_Rb_tree_impl" }
%"struct.std::_Rb_tree<std::__cxx11::basic_string<char>, std::pair<const std::__cxx11::basic_string<char>, benchmark::Counter>, std::_Select1st<std::pair<const std::__cxx11::basic_string<char>, benchmark::Counter>>, std::less<std::__cxx11::basic_string<char>>>::_Rb_tree_impl" = type { %"struct.std::_Rb_tree_key_compare", %"struct.std::_Rb_tree_header" }
%"struct.std::_Rb_tree_key_compare" = type { %"struct.std::less" }
%"struct.std::less" = type { i8 }
%"struct.std::_Rb_tree_header" = type { %"struct.std::_Rb_tree_node_base", i64 }
%"struct.std::_Rb_tree_node_base" = type { i32, ptr, ptr, ptr }
%"class.benchmark::internal::CheckHandler" = type { ptr }
%"class.std::ctype" = type <{ %"class.std::locale::facet.base", [4 x i8], ptr, i8, [7 x i8], ptr, ptr, ptr, i8, [256 x i8], [256 x i8], i8, [6 x i8] }>
%"class.std::locale::facet.base" = type <{ ptr, i32 }>
%"class.std::_Sp_counted_base" = type { ptr, i32, i32 }
%"struct.std::_Rb_tree_node" = type { %"struct.std::_Rb_tree_node_base", %"struct.__gnu_cxx::__aligned_membuf.54" }
%"struct.__gnu_cxx::__aligned_membuf.54" = type { [48 x i8] }
%"class.std::__cxx11::basic_stringstream" = type { %"class.std::basic_iostream.base", %"class.std::__cxx11::basic_stringbuf", %"class.std::basic_ios" }
%"class.std::basic_iostream.base" = type { %"class.std::basic_istream.base", %"class.std::basic_ostream.base" }
%"class.std::basic_istream.base" = type { ptr, i64 }
%"class.std::basic_ostream.base" = type { ptr }
%"class.std::__cxx11::basic_stringbuf" = type { %"class.std::basic_streambuf", i32, %"class.std::__cxx11::basic_string" }
%"class.std::basic_streambuf" = type { ptr, ptr, ptr, ptr, ptr, ptr, ptr, %"class.std::locale" }
%"class.std::basic_istream" = type { ptr, i64, %"class.std::basic_ios" }
%struct.Results = type { %"class.std::__cxx11::basic_string", %"class.std::map.35" }
%"class.std::map.35" = type { %"class.std::_Rb_tree.36" }
%"class.std::_Rb_tree.36" = type { %"struct.std::_Rb_tree<std::__cxx11::basic_string<char>, std::pair<const std::__cxx11::basic_string<char>, std::__cxx11::basic_string<char>>, std::_Select1st<std::pair<const std::__cxx11::basic_string<char>, std::__cxx11::basic_string<char>>>, std::less<std::__cxx11::basic_string<char>>>::_Rb_tree_impl" }
%"struct.std::_Rb_tree<std::__cxx11::basic_string<char>, std::pair<const std::__cxx11::basic_string<char>, std::__cxx11::basic_string<char>>, std::_Select1st<std::pair<const std::__cxx11::basic_string<char>, std::__cxx11::basic_string<char>>>, std::less<std::__cxx11::basic_string<char>>>::_Rb_tree_impl" = type { %"struct.std::_Rb_tree_key_compare", %"struct.std::_Rb_tree_header" }
%"struct.std::_Rb_tree_node.59" = type { %"struct.std::_Rb_tree_node_base", %"struct.__gnu_cxx::__aligned_membuf.60" }
%"struct.__gnu_cxx::__aligned_membuf.60" = type { [64 x i8] }
%"class.std::function" = type { %"class.std::_Function_base", ptr }
%"class.std::_Function_base" = type { %"union.std::_Any_data", ptr }
%"union.std::_Any_data" = type { %"union.std::_Nocopy_types" }
%"union.std::_Nocopy_types" = type { { i64, i64 } }
%struct.TestCase = type { %"class.std::__cxx11::basic_string", i32, %"class.std::__cxx11::basic_string", %"class.std::shared_ptr" }
%"class.std::shared_ptr" = type { %"class.std::__shared_ptr" }
%"class.std::__shared_ptr" = type { ptr, %"class.std::__shared_count" }
%"class.std::__shared_count" = type { ptr }
%"class.benchmark::internal::FunctionBenchmark" = type { %"class.benchmark::internal::Benchmark", ptr }
%"class.benchmark::internal::Benchmark" = type { ptr, %"class.std::__cxx11::basic_string", i32, %"class.std::vector.6", %"class.std::vector.11", i32, i8, i32, double, i64, i32, i8, i8, i8, i32, ptr, %"class.std::vector.16", %"class.std::vector.26", ptr, ptr }
%"class.std::vector.6" = type { %"struct.std::_Vector_base.7" }
%"struct.std::_Vector_base.7" = type { %"struct.std::_Vector_base<std::__cxx11::basic_string<char>, std::allocator<std::__cxx11::basic_string<char>>>::_Vector_impl" }
%"struct.std::_Vector_base<std::__cxx11::basic_string<char>, std::allocator<std::__cxx11::basic_string<char>>>::_Vector_impl" = type { %"struct.std::_Vector_base<std::__cxx11::basic_string<char>, std::allocator<std::__cxx11::basic_string<char>>>::_Vector_impl_data" }
%"struct.std::_Vector_base<std::__cxx11::basic_string<char>, std::allocator<std::__cxx11::basic_string<char>>>::_Vector_impl_data" = type { ptr, ptr, ptr }
%"class.std::vector.11" = type { %"struct.std::_Vector_base.12" }
%"struct.std::_Vector_base.12" = type { %"struct.std::_Vector_base<std::vector<long>, std::allocator<std::vector<long>>>::_Vector_impl" }
%"struct.std::_Vector_base<std::vector<long>, std::allocator<std::vector<long>>>::_Vector_impl" = type { %"struct.std::_Vector_base<std::vector<long>, std::allocator<std::vector<long>>>::_Vector_impl_data" }
%"struct.std::_Vector_base<std::vector<long>, std::allocator<std::vector<long>>>::_Vector_impl_data" = type { ptr, ptr, ptr }
%"class.std::vector.16" = type { %"struct.std::_Vector_base.17" }
%"struct.std::_Vector_base.17" = type { %"struct.std::_Vector_base<benchmark::internal::Statistics, std::allocator<benchmark::internal::Statistics>>::_Vector_impl" }
%"struct.std::_Vector_base<benchmark::internal::Statistics, std::allocator<benchmark::internal::Statistics>>::_Vector_impl" = type { %"struct.std::_Vector_base<benchmark::internal::Statistics, std::allocator<benchmark::internal::Statistics>>::_Vector_impl_data" }
%"struct.std::_Vector_base<benchmark::internal::Statistics, std::allocator<benchmark::internal::Statistics>>::_Vector_impl_data" = type { ptr, ptr, ptr }
%"class.std::vector.26" = type { %"struct.std::_Vector_base.27" }
%"struct.std::_Vector_base.27" = type { %"struct.std::_Vector_base<int, std::allocator<int>>::_Vector_impl" }
%"struct.std::_Vector_base<int, std::allocator<int>>::_Vector_impl" = type { %"struct.std::_Vector_base<int, std::allocator<int>>::_Vector_impl_data" }
%"struct.std::_Vector_base<int, std::allocator<int>>::_Vector_impl_data" = type { ptr, ptr, ptr }

$_ZN9benchmark8internal12CheckHandlerC2EPKcS3_S3_i = comdat any

$_ZN9benchmark8internal12CheckHandlerD2Ev = comdat any

$__clang_call_terminate = comdat any

$_ZNSt16_Sp_counted_baseILN9__gnu_cxx12_Lock_policyE2EE24_M_release_last_use_coldEv = comdat any

$_ZN9benchmark8internal16CallAbortHandlerEv = comdat any

$_ZNSt8_Rb_treeINSt7__cxx1112basic_stringIcSt11char_traitsIcESaIcEEESt4pairIKS5_N9benchmark7CounterEESt10_Select1stISA_ESt4lessIS5_ESaISA_EE17_M_insert_unique_IRKSA_NSG_11_Alloc_nodeEEESt17_Rb_tree_iteratorISA_ESt23_Rb_tree_const_iteratorISA_EOT_RT0_ = comdat any

$_ZNSt8_Rb_treeINSt7__cxx1112basic_stringIcSt11char_traitsIcESaIcEEESt4pairIKS5_N9benchmark7CounterEESt10_Select1stISA_ESt4lessIS5_ESaISA_EE29_M_get_insert_hint_unique_posESt23_Rb_tree_const_iteratorISA_ERS7_ = comdat any

$_ZNSt8_Rb_treeINSt7__cxx1112basic_stringIcSt11char_traitsIcESaIcEEESt4pairIKS5_N9benchmark7CounterEESt10_Select1stISA_ESt4lessIS5_ESaISA_EE24_M_get_insert_unique_posERS7_ = comdat any

$_ZNSt8_Rb_treeINSt7__cxx1112basic_stringIcSt11char_traitsIcESaIcEEESt4pairIKS5_N9benchmark7CounterEESt10_Select1stISA_ESt4lessIS5_ESaISA_EE17_M_construct_nodeIJRKSA_EEEvPSt13_Rb_tree_nodeISA_EDpOT_ = comdat any

$_ZNK7Results5GetAsIdEET_PKc = comdat any

$_ZNK7Results3GetB5cxx11EPKc = comdat any

$_ZNSt17_Function_handlerIFvRK7ResultsEPS3_E9_M_invokeERKSt9_Any_dataS2_ = comdat any

$_ZNSt17_Function_handlerIFvRK7ResultsEPS3_E10_M_managerERSt9_Any_dataRKS6_St18_Manager_operation = comdat any

$_ZZN9benchmark8internal18GetNullLogInstanceEvE3log = comdat any

$_ZGVZN9benchmark8internal18GetNullLogInstanceEvE3log = comdat any

$_ZZN9benchmark8internal19GetErrorLogInstanceEvE3log = comdat any

$_ZGVZN9benchmark8internal19GetErrorLogInstanceEvE3log = comdat any

$_ZTSPFvRK7ResultsE = comdat any

$_ZTSFvRK7ResultsE = comdat any

$_ZTIFvRK7ResultsE = comdat any

$_ZTIPFvRK7ResultsE = comdat any

@_ZStL8__ioinit = internal global %"class.std::ios_base::Init" zeroinitializer, align 1
@__dso_handle = external hidden global i8
@.str = private unnamed_addr constant [22 x i8] c"t0_1000000DefaultBase\00", align 1
@.str.2 = private unnamed_addr constant [19 x i8] c"t1_1000000Base1000\00", align 1
@.str.3 = private unnamed_addr constant [19 x i8] c"t2_1000000Base1024\00", align 1
@.str.4 = private unnamed_addr constant [19 x i8] c"t3_1048576Base1000\00", align 1
@.str.5 = private unnamed_addr constant [19 x i8] c"t4_1048576Base1024\00", align 1
@_ZL27benchmark_uniq_2_benchmark_ = internal unnamed_addr global ptr null, align 8
@.str.7 = private unnamed_addr constant [22 x i8] c"BM_Counters_Thousands\00", align 1
@dummy51 = hidden local_unnamed_addr global i32 0, align 4
@.str.9 = private unnamed_addr constant [187 x i8] c"^BM_Counters_Thousands/repeats:2 %console_report t0_1000000DefaultBase=1000k t1_1000000Base1000=1000k t2_1000000Base1024=976.56[23]k t3_1048576Base1000=1048.58k t4_1048576Base1024=1024k$\00", align 1
@.str.10 = private unnamed_addr constant [192 x i8] c"^BM_Counters_Thousands/repeats:2_mean %console_report t0_1000000DefaultBase=1000k t1_1000000Base1000=1000k t2_1000000Base1024=976.56[23]k t3_1048576Base1000=1048.58k t4_1048576Base1024=1024k$\00", align 1
@.str.11 = private unnamed_addr constant [194 x i8] c"^BM_Counters_Thousands/repeats:2_median %console_report t0_1000000DefaultBase=1000k t1_1000000Base1000=1000k t2_1000000Base1024=976.56[23]k t3_1048576Base1000=1048.58k t4_1048576Base1024=1024k$\00", align 1
@.str.12 = private unnamed_addr constant [181 x i8] c"^BM_Counters_Thousands/repeats:2_stddev %console_time_only_report [ ]*2 t0_1000000DefaultBase=0 t1_1000000Base1000=0 t2_1000000Base1024=0 t3_1048576Base1000=0 t4_1048576Base1024=0$\00", align 1
@dummy70 = hidden local_unnamed_addr global i32 0, align 4
@.str.14 = private unnamed_addr constant [44 x i8] c"\22name\22: \22BM_Counters_Thousands/repeats:2\22,$\00", align 1
@.str.15 = private unnamed_addr constant [20 x i8] c"\22family_index\22: 0,$\00", align 1
@.str.16 = private unnamed_addr constant [33 x i8] c"\22per_family_instance_index\22: 0,$\00", align 1
@.str.17 = private unnamed_addr constant [48 x i8] c"\22run_name\22: \22BM_Counters_Thousands/repeats:2\22,$\00", align 1
@.str.18 = private unnamed_addr constant [26 x i8] c"\22run_type\22: \22iteration\22,$\00", align 1
@.str.19 = private unnamed_addr constant [19 x i8] c"\22repetitions\22: 2,$\00", align 1
@.str.20 = private unnamed_addr constant [24 x i8] c"\22repetition_index\22: 0,$\00", align 1
@.str.21 = private unnamed_addr constant [15 x i8] c"\22threads\22: 1,$\00", align 1
@.str.22 = private unnamed_addr constant [21 x i8] c"\22iterations\22: %int,$\00", align 1
@.str.23 = private unnamed_addr constant [22 x i8] c"\22real_time\22: %float,$\00", align 1
@.str.24 = private unnamed_addr constant [21 x i8] c"\22cpu_time\22: %float,$\00", align 1
@.str.25 = private unnamed_addr constant [20 x i8] c"\22time_unit\22: \22ns\22,$\00", align 1
@.str.26 = private unnamed_addr constant [43 x i8] c"\22t0_1000000DefaultBase\22: 1\\.(0)*e\\+(0)*6,$\00", align 1
@.str.27 = private unnamed_addr constant [40 x i8] c"\22t1_1000000Base1000\22: 1\\.(0)*e\\+(0)*6,$\00", align 1
@.str.28 = private unnamed_addr constant [40 x i8] c"\22t2_1000000Base1024\22: 1\\.(0)*e\\+(0)*6,$\00", align 1
@.str.29 = private unnamed_addr constant [46 x i8] c"\22t3_1048576Base1000\22: 1\\.048576(0)*e\\+(0)*6,$\00", align 1
@.str.30 = private unnamed_addr constant [45 x i8] c"\22t4_1048576Base1024\22: 1\\.048576(0)*e\\+(0)*6$\00", align 1
@dummy89 = hidden local_unnamed_addr global i32 0, align 4
@.str.33 = private unnamed_addr constant [24 x i8] c"\22repetition_index\22: 1,$\00", align 1
@dummy109 = hidden local_unnamed_addr global i32 0, align 4
@.str.35 = private unnamed_addr constant [49 x i8] c"\22name\22: \22BM_Counters_Thousands/repeats:2_mean\22,$\00", align 1
@.str.36 = private unnamed_addr constant [26 x i8] c"\22run_type\22: \22aggregate\22,$\00", align 1
@.str.37 = private unnamed_addr constant [27 x i8] c"\22aggregate_name\22: \22mean\22,$\00", align 1
@.str.38 = private unnamed_addr constant [27 x i8] c"\22aggregate_unit\22: \22time\22,$\00", align 1
@.str.39 = private unnamed_addr constant [18 x i8] c"\22iterations\22: 2,$\00", align 1
@dummy129 = hidden local_unnamed_addr global i32 0, align 4
@.str.41 = private unnamed_addr constant [51 x i8] c"\22name\22: \22BM_Counters_Thousands/repeats:2_median\22,$\00", align 1
@.str.42 = private unnamed_addr constant [29 x i8] c"\22aggregate_name\22: \22median\22,$\00", align 1
@dummy149 = hidden local_unnamed_addr global i32 0, align 4
@.str.44 = private unnamed_addr constant [51 x i8] c"\22name\22: \22BM_Counters_Thousands/repeats:2_stddev\22,$\00", align 1
@.str.45 = private unnamed_addr constant [29 x i8] c"\22aggregate_name\22: \22stddev\22,$\00", align 1
@.str.46 = private unnamed_addr constant [42 x i8] c"\22t0_1000000DefaultBase\22: 0\\.(0)*e\\+(0)*,$\00", align 1
@.str.47 = private unnamed_addr constant [39 x i8] c"\22t1_1000000Base1000\22: 0\\.(0)*e\\+(0)*,$\00", align 1
@.str.48 = private unnamed_addr constant [39 x i8] c"\22t2_1000000Base1024\22: 0\\.(0)*e\\+(0)*,$\00", align 1
@.str.49 = private unnamed_addr constant [39 x i8] c"\22t3_1048576Base1000\22: 0\\.(0)*e\\+(0)*,$\00", align 1
@.str.50 = private unnamed_addr constant [38 x i8] c"\22t4_1048576Base1024\22: 0\\.(0)*e\\+(0)*$\00", align 1
@dummy165 = hidden local_unnamed_addr global i32 0, align 4
@.str.52 = private unnamed_addr constant [112 x i8] c"^\22BM_Counters_Thousands/repeats:2\22,%csv_report,1e\\+(0)*6,1e\\+(0)*6,1e\\+(0)*6,1\\.04858e\\+(0)*6,1\\.04858e\\+(0)*6$\00", align 1
@.str.53 = private unnamed_addr constant [117 x i8] c"^\22BM_Counters_Thousands/repeats:2_mean\22,%csv_report,1e\\+(0)*6,1e\\+(0)*6,1e\\+(0)*6,1\\.04858e\\+(0)*6,1\\.04858e\\+(0)*6$\00", align 1
@.str.54 = private unnamed_addr constant [119 x i8] c"^\22BM_Counters_Thousands/repeats:2_median\22,%csv_report,1e\\+(0)*6,1e\\+(0)*6,1e\\+(0)*6,1\\.04858e\\+(0)*6,1\\.04858e\\+(0)*6$\00", align 1
@.str.55 = private unnamed_addr constant [65 x i8] c"^\22BM_Counters_Thousands/repeats:2_stddev\22,%csv_report,0,0,0,0,0$\00", align 1
@.str.56 = private unnamed_addr constant [32 x i8] c"BM_Counters_Thousands/repeats:2\00", align 1
@.str.57 = private unnamed_addr constant [110 x i8] c"std::fabs((e.GetCounterAs< double >(\22t0_1000000DefaultBase\22)) - ((1000 * 1000))) < ((0.0001) * (1000 * 1000))\00", align 1
@.str.58 = private unnamed_addr constant [117 x i8] c"/usr/local/google/home/aeubanks/repos/test-suite/MicroBenchmarks/libs/benchmark/test/user_counters_thousands_test.cc\00", align 1
@__func__._Z14CheckThousandsRK7Results = private unnamed_addr constant [15 x i8] c"CheckThousands\00", align 1
@.str.59 = private unnamed_addr constant [2 x i8] c"\0A\00", align 1
@.str.60 = private unnamed_addr constant [2 x i8] c":\00", align 1
@.str.61 = private unnamed_addr constant [3 x i8] c": \00", align 1
@.str.62 = private unnamed_addr constant [3 x i8] c":\0A\00", align 1
@.str.63 = private unnamed_addr constant [11 x i8] c"expected (\00", align 1
@.str.64 = private unnamed_addr constant [7 x i8] c"double\00", align 1
@.str.65 = private unnamed_addr constant [2 x i8] c")\00", align 1
@.str.66 = private unnamed_addr constant [2 x i8] c"=\00", align 1
@.str.67 = private unnamed_addr constant [14 x i8] c" to be EQ to \00", align 1
@.str.68 = private unnamed_addr constant [19 x i8] c"with tolerance of \00", align 1
@.str.69 = private unnamed_addr constant [3 x i8] c" (\00", align 1
@.str.70 = private unnamed_addr constant [5 x i8] c"%), \00", align 1
@.str.71 = private unnamed_addr constant [15 x i8] c"but delta was \00", align 1
@.str.72 = private unnamed_addr constant [3 x i8] c"%)\00", align 1
@.str.73 = private unnamed_addr constant [107 x i8] c"std::fabs((e.GetCounterAs< double >(\22t1_1000000Base1000\22)) - ((1000 * 1000))) < ((0.0001) * (1000 * 1000))\00", align 1
@.str.74 = private unnamed_addr constant [107 x i8] c"std::fabs((e.GetCounterAs< double >(\22t2_1000000Base1024\22)) - ((1000 * 1000))) < ((0.0001) * (1000 * 1000))\00", align 1
@.str.75 = private unnamed_addr constant [107 x i8] c"std::fabs((e.GetCounterAs< double >(\22t3_1048576Base1000\22)) - ((1024 * 1024))) < ((0.0001) * (1024 * 1024))\00", align 1
@.str.76 = private unnamed_addr constant [107 x i8] c"std::fabs((e.GetCounterAs< double >(\22t4_1048576Base1024\22)) - ((1024 * 1024))) < ((0.0001) * (1024 * 1024))\00", align 1
@dummy180 = hidden local_unnamed_addr global i64 0, align 8
@_ZTVN9benchmark8internal17FunctionBenchmarkE = external unnamed_addr constant { [5 x ptr] }, align 8
@__libc_single_threaded = external local_unnamed_addr global i8, align 1
@_ZZN9benchmark8internal18GetNullLogInstanceEvE3log = linkonce_odr hidden local_unnamed_addr global %"class.benchmark::internal::LogType" zeroinitializer, comdat, align 8
@_ZGVZN9benchmark8internal18GetNullLogInstanceEvE3log = linkonce_odr hidden global i64 0, comdat, align 8
@.str.80 = private unnamed_addr constant [10 x i8] c": Check `\00", align 1
@.str.81 = private unnamed_addr constant [11 x i8] c"' failed. \00", align 1
@_ZZN9benchmark8internal19GetErrorLogInstanceEvE3log = linkonce_odr hidden global %"class.benchmark::internal::LogType" zeroinitializer, comdat, align 8
@_ZGVZN9benchmark8internal19GetErrorLogInstanceEvE3log = linkonce_odr hidden global i64 0, comdat, align 8
@_ZSt4clog = external global %"class.std::basic_ostream", align 8
@.str.82 = private unnamed_addr constant [50 x i8] c"basic_string: construction from null is not valid\00", align 1
@.str.83 = private unnamed_addr constant [30 x i8] c"sv != nullptr && !sv->empty()\00", align 1
@.str.84 = private unnamed_addr constant [99 x i8] c"/usr/local/google/home/aeubanks/repos/test-suite/MicroBenchmarks/libs/benchmark/test/output_test.h\00", align 1
@__func__._ZNK7Results5GetAsIdEET_PKc = private unnamed_addr constant [6 x i8] c"GetAs\00", align 1
@.str.85 = private unnamed_addr constant [11 x i8] c"!ss.fail()\00", align 1
@_ZTTNSt7__cxx1118basic_stringstreamIcSt11char_traitsIcESaIcEEE = external unnamed_addr constant [10 x ptr], align 8
@_ZTVNSt7__cxx1115basic_stringbufIcSt11char_traitsIcESaIcEEE = external unnamed_addr constant { [16 x ptr] }, align 8
@_ZTVSt15basic_streambufIcSt11char_traitsIcEE = external unnamed_addr constant { [16 x ptr] }, align 8
@_ZTVN10__cxxabiv119__pointer_type_infoE = external global ptr
@_ZTSPFvRK7ResultsE = linkonce_odr hidden constant [15 x i8] c"PFvRK7ResultsE\00", comdat, align 1
@_ZTVN10__cxxabiv120__function_type_infoE = external global ptr
@_ZTSFvRK7ResultsE = linkonce_odr hidden constant [14 x i8] c"FvRK7ResultsE\00", comdat, align 1
@_ZTIFvRK7ResultsE = linkonce_odr hidden constant { ptr, ptr } { ptr getelementptr inbounds (ptr, ptr @_ZTVN10__cxxabiv120__function_type_infoE, i64 2), ptr @_ZTSFvRK7ResultsE }, comdat, align 8
@_ZTIPFvRK7ResultsE = linkonce_odr hidden constant { ptr, ptr, i32, ptr } { ptr getelementptr inbounds (ptr, ptr @_ZTVN10__cxxabiv119__pointer_type_infoE, i64 2), ptr @_ZTSPFvRK7ResultsE, i32 0, ptr @_ZTIFvRK7ResultsE }, comdat, align 8
@llvm.global_ctors = appending global [1 x { i32, ptr, ptr }] [{ i32, ptr, ptr } { i32 65535, ptr @_GLOBAL__sub_I_user_counters_thousands_test.cc, ptr null }]

declare noundef i32 @_ZN9benchmark8internal17InitializeStreamsEv() local_unnamed_addr #0

declare void @_ZNSt8ios_base4InitC1Ev(ptr noundef nonnull align 1 dereferenceable(1)) unnamed_addr #0

; Function Attrs: nounwind
declare void @_ZNSt8ios_base4InitD1Ev(ptr noundef nonnull align 1 dereferenceable(1)) unnamed_addr #1

; Function Attrs: nofree nounwind
declare i32 @__cxa_atexit(ptr, ptr, ptr) local_unnamed_addr #2

; Function Attrs: uwtable
define hidden void @_Z21BM_Counters_ThousandsRN9benchmark5StateE(ptr noundef nonnull align 8 dereferenceable(144) %state) #3 personality ptr @__gxx_personality_v0 {
entry:
  %__an.i.i.i = alloca %"struct.std::_Rb_tree<std::__cxx11::basic_string<char>, std::pair<const std::__cxx11::basic_string<char>, benchmark::Counter>, std::_Select1st<std::pair<const std::__cxx11::basic_string<char>, benchmark::Counter>>, std::less<std::__cxx11::basic_string<char>>>::_Alloc_node", align 8
  %__dnew.i.i.i96 = alloca i64, align 8
  %__dnew.i.i.i83 = alloca i64, align 8
  %__dnew.i.i.i70 = alloca i64, align 8
  %__dnew.i.i.i58 = alloca i64, align 8
  %__dnew.i.i.i = alloca i64, align 8
  %ref.tmp = alloca [5 x %"struct.std::pair"], align 8
  tail call void @_ZN9benchmark5State16StartKeepRunningEv(ptr noundef nonnull align 8 dereferenceable(144) %state)
  tail call void @_ZN9benchmark5State17FinishKeepRunningEv(ptr noundef nonnull align 8 dereferenceable(144) %state)
  %counters = getelementptr inbounds %"class.benchmark::State", ptr %state, i64 0, i32 8
  call void @llvm.lifetime.start.p0(i64 240, ptr nonnull %ref.tmp) #21
  %0 = getelementptr inbounds %"class.std::__cxx11::basic_string", ptr %ref.tmp, i64 0, i32 2
  store ptr %0, ptr %ref.tmp, align 8, !tbaa !5
  call void @llvm.lifetime.start.p0(i64 8, ptr nonnull %__dnew.i.i.i) #21
  store i64 21, ptr %__dnew.i.i.i, align 8, !tbaa !10
  %call2.i9.i3.i57 = call noundef ptr @_ZNSt7__cxx1112basic_stringIcSt11char_traitsIcESaIcEE9_M_createERmm(ptr noundef nonnull align 8 dereferenceable(32) %ref.tmp, ptr noundef nonnull align 8 dereferenceable(8) %__dnew.i.i.i, i64 noundef 0)
  store ptr %call2.i9.i3.i57, ptr %ref.tmp, align 8, !tbaa !12
  %1 = load i64, ptr %__dnew.i.i.i, align 8, !tbaa !10
  store i64 %1, ptr %0, align 8, !tbaa !14
  call void @llvm.memcpy.p0.p0.i64(ptr noundef nonnull align 1 dereferenceable(21) %call2.i9.i3.i57, ptr noundef nonnull align 1 dereferenceable(21) @.str, i64 21, i1 false)
  %_M_string_length.i.i.i.i.i = getelementptr inbounds %"class.std::__cxx11::basic_string", ptr %ref.tmp, i64 0, i32 1
  store i64 %1, ptr %_M_string_length.i.i.i.i.i, align 8, !tbaa !15
  %2 = load ptr, ptr %ref.tmp, align 8, !tbaa !12
  %arrayidx.i.i.i.i = getelementptr inbounds i8, ptr %2, i64 %1
  store i8 0, ptr %arrayidx.i.i.i.i, align 1, !tbaa !14
  call void @llvm.lifetime.end.p0(i64 8, ptr nonnull %__dnew.i.i.i) #21
  %second.i = getelementptr inbounds %"struct.std::pair", ptr %ref.tmp, i64 0, i32 1
  store double 1.000000e+06, ptr %second.i, align 8, !tbaa.struct !16
  %ref.tmp4.sroa.5.0.second.i.sroa_idx = getelementptr inbounds %"struct.std::pair", ptr %ref.tmp, i64 0, i32 1, i32 1
  store i32 0, ptr %ref.tmp4.sroa.5.0.second.i.sroa_idx, align 8, !tbaa.struct !23
  %ref.tmp4.sroa.6.0.second.i.sroa_idx = getelementptr inbounds %"struct.std::pair", ptr %ref.tmp, i64 0, i32 1, i32 2
  store i32 1000, ptr %ref.tmp4.sroa.6.0.second.i.sroa_idx, align 4, !tbaa.struct !24
  %arrayinit.element = getelementptr inbounds %"struct.std::pair", ptr %ref.tmp, i64 1
  %3 = getelementptr inbounds %"struct.std::pair", ptr %ref.tmp, i64 1, i32 0, i32 2
  store ptr %3, ptr %arrayinit.element, align 8, !tbaa !5
  call void @llvm.lifetime.start.p0(i64 8, ptr nonnull %__dnew.i.i.i58) #21
  store i64 18, ptr %__dnew.i.i.i58, align 8, !tbaa !10
  %call2.i9.i3.i69 = invoke noundef ptr @_ZNSt7__cxx1112basic_stringIcSt11char_traitsIcESaIcEE9_M_createERmm(ptr noundef nonnull align 8 dereferenceable(32) %arrayinit.element, ptr noundef nonnull align 8 dereferenceable(8) %__dnew.i.i.i58, i64 noundef 0)
          to label %call2.i9.i3.i.noexc68 unwind label %lpad7

call2.i9.i3.i.noexc68:                            ; preds = %entry
  store ptr %call2.i9.i3.i69, ptr %arrayinit.element, align 8, !tbaa !12
  %4 = load i64, ptr %__dnew.i.i.i58, align 8, !tbaa !10
  store i64 %4, ptr %3, align 8, !tbaa !14
  call void @llvm.memcpy.p0.p0.i64(ptr noundef nonnull align 1 dereferenceable(18) %call2.i9.i3.i69, ptr noundef nonnull align 1 dereferenceable(18) @.str.2, i64 18, i1 false)
  %_M_string_length.i.i.i.i.i65 = getelementptr inbounds %"struct.std::pair", ptr %ref.tmp, i64 1, i32 0, i32 1
  store i64 %4, ptr %_M_string_length.i.i.i.i.i65, align 8, !tbaa !15
  %5 = load ptr, ptr %arrayinit.element, align 8, !tbaa !12
  %arrayidx.i.i.i.i66 = getelementptr inbounds i8, ptr %5, i64 %4
  store i8 0, ptr %arrayidx.i.i.i.i66, align 1, !tbaa !14
  call void @llvm.lifetime.end.p0(i64 8, ptr nonnull %__dnew.i.i.i58) #21
  %second.i67 = getelementptr inbounds %"struct.std::pair", ptr %ref.tmp, i64 1, i32 1
  store double 1.000000e+06, ptr %second.i67, align 8, !tbaa.struct !16
  %ref.tmp6.sroa.5.0.second.i67.sroa_idx = getelementptr inbounds %"struct.std::pair", ptr %ref.tmp, i64 1, i32 1, i32 1
  store i32 0, ptr %ref.tmp6.sroa.5.0.second.i67.sroa_idx, align 8, !tbaa.struct !23
  %ref.tmp6.sroa.6.0.second.i67.sroa_idx = getelementptr inbounds %"struct.std::pair", ptr %ref.tmp, i64 1, i32 1, i32 2
  store i32 1000, ptr %ref.tmp6.sroa.6.0.second.i67.sroa_idx, align 4, !tbaa.struct !24
  %arrayinit.element10 = getelementptr inbounds %"struct.std::pair", ptr %ref.tmp, i64 2
  %6 = getelementptr inbounds %"struct.std::pair", ptr %ref.tmp, i64 2, i32 0, i32 2
  store ptr %6, ptr %arrayinit.element10, align 8, !tbaa !5
  call void @llvm.lifetime.start.p0(i64 8, ptr nonnull %__dnew.i.i.i70) #21
  store i64 18, ptr %__dnew.i.i.i70, align 8, !tbaa !10
  %call2.i9.i3.i81 = invoke noundef ptr @_ZNSt7__cxx1112basic_stringIcSt11char_traitsIcESaIcEE9_M_createERmm(ptr noundef nonnull align 8 dereferenceable(32) %arrayinit.element10, ptr noundef nonnull align 8 dereferenceable(8) %__dnew.i.i.i70, i64 noundef 0)
          to label %call2.i9.i3.i.noexc80 unwind label %lpad12

call2.i9.i3.i.noexc80:                            ; preds = %call2.i9.i3.i.noexc68
  store ptr %call2.i9.i3.i81, ptr %arrayinit.element10, align 8, !tbaa !12
  %7 = load i64, ptr %__dnew.i.i.i70, align 8, !tbaa !10
  store i64 %7, ptr %6, align 8, !tbaa !14
  call void @llvm.memcpy.p0.p0.i64(ptr noundef nonnull align 1 dereferenceable(18) %call2.i9.i3.i81, ptr noundef nonnull align 1 dereferenceable(18) @.str.3, i64 18, i1 false)
  %_M_string_length.i.i.i.i.i77 = getelementptr inbounds %"struct.std::pair", ptr %ref.tmp, i64 2, i32 0, i32 1
  store i64 %7, ptr %_M_string_length.i.i.i.i.i77, align 8, !tbaa !15
  %8 = load ptr, ptr %arrayinit.element10, align 8, !tbaa !12
  %arrayidx.i.i.i.i78 = getelementptr inbounds i8, ptr %8, i64 %7
  store i8 0, ptr %arrayidx.i.i.i.i78, align 1, !tbaa !14
  call void @llvm.lifetime.end.p0(i64 8, ptr nonnull %__dnew.i.i.i70) #21
  %second.i79 = getelementptr inbounds %"struct.std::pair", ptr %ref.tmp, i64 2, i32 1
  store double 1.000000e+06, ptr %second.i79, align 8, !tbaa.struct !16
  %ref.tmp11.sroa.5.0.second.i79.sroa_idx = getelementptr inbounds %"struct.std::pair", ptr %ref.tmp, i64 2, i32 1, i32 1
  store i32 0, ptr %ref.tmp11.sroa.5.0.second.i79.sroa_idx, align 8, !tbaa.struct !23
  %ref.tmp11.sroa.6.0.second.i79.sroa_idx = getelementptr inbounds %"struct.std::pair", ptr %ref.tmp, i64 2, i32 1, i32 2
  store i32 1024, ptr %ref.tmp11.sroa.6.0.second.i79.sroa_idx, align 4, !tbaa.struct !24
  %arrayinit.element15 = getelementptr inbounds %"struct.std::pair", ptr %ref.tmp, i64 3
  %9 = getelementptr inbounds %"struct.std::pair", ptr %ref.tmp, i64 3, i32 0, i32 2
  store ptr %9, ptr %arrayinit.element15, align 8, !tbaa !5
  call void @llvm.lifetime.start.p0(i64 8, ptr nonnull %__dnew.i.i.i83) #21
  store i64 18, ptr %__dnew.i.i.i83, align 8, !tbaa !10
  %call2.i9.i3.i94 = invoke noundef ptr @_ZNSt7__cxx1112basic_stringIcSt11char_traitsIcESaIcEE9_M_createERmm(ptr noundef nonnull align 8 dereferenceable(32) %arrayinit.element15, ptr noundef nonnull align 8 dereferenceable(8) %__dnew.i.i.i83, i64 noundef 0)
          to label %call2.i9.i3.i.noexc93 unwind label %lpad17

call2.i9.i3.i.noexc93:                            ; preds = %call2.i9.i3.i.noexc80
  store ptr %call2.i9.i3.i94, ptr %arrayinit.element15, align 8, !tbaa !12
  %10 = load i64, ptr %__dnew.i.i.i83, align 8, !tbaa !10
  store i64 %10, ptr %9, align 8, !tbaa !14
  call void @llvm.memcpy.p0.p0.i64(ptr noundef nonnull align 1 dereferenceable(18) %call2.i9.i3.i94, ptr noundef nonnull align 1 dereferenceable(18) @.str.4, i64 18, i1 false)
  %_M_string_length.i.i.i.i.i90 = getelementptr inbounds %"struct.std::pair", ptr %ref.tmp, i64 3, i32 0, i32 1
  store i64 %10, ptr %_M_string_length.i.i.i.i.i90, align 8, !tbaa !15
  %11 = load ptr, ptr %arrayinit.element15, align 8, !tbaa !12
  %arrayidx.i.i.i.i91 = getelementptr inbounds i8, ptr %11, i64 %10
  store i8 0, ptr %arrayidx.i.i.i.i91, align 1, !tbaa !14
  call void @llvm.lifetime.end.p0(i64 8, ptr nonnull %__dnew.i.i.i83) #21
  %second.i92 = getelementptr inbounds %"struct.std::pair", ptr %ref.tmp, i64 3, i32 1
  store double 0x4130000000000000, ptr %second.i92, align 8, !tbaa.struct !16
  %ref.tmp16.sroa.5.0.second.i92.sroa_idx = getelementptr inbounds %"struct.std::pair", ptr %ref.tmp, i64 3, i32 1, i32 1
  store i32 0, ptr %ref.tmp16.sroa.5.0.second.i92.sroa_idx, align 8, !tbaa.struct !23
  %ref.tmp16.sroa.6.0.second.i92.sroa_idx = getelementptr inbounds %"struct.std::pair", ptr %ref.tmp, i64 3, i32 1, i32 2
  store i32 1000, ptr %ref.tmp16.sroa.6.0.second.i92.sroa_idx, align 4, !tbaa.struct !24
  %arrayinit.element20 = getelementptr inbounds %"struct.std::pair", ptr %ref.tmp, i64 4
  %12 = getelementptr inbounds %"struct.std::pair", ptr %ref.tmp, i64 4, i32 0, i32 2
  store ptr %12, ptr %arrayinit.element20, align 8, !tbaa !5
  call void @llvm.lifetime.start.p0(i64 8, ptr nonnull %__dnew.i.i.i96) #21
  store i64 18, ptr %__dnew.i.i.i96, align 8, !tbaa !10
  %call2.i9.i3.i107 = invoke noundef ptr @_ZNSt7__cxx1112basic_stringIcSt11char_traitsIcESaIcEE9_M_createERmm(ptr noundef nonnull align 8 dereferenceable(32) %arrayinit.element20, ptr noundef nonnull align 8 dereferenceable(8) %__dnew.i.i.i96, i64 noundef 0)
          to label %call2.i9.i3.i.noexc106 unwind label %lpad22

call2.i9.i3.i.noexc106:                           ; preds = %call2.i9.i3.i.noexc93
  store ptr %call2.i9.i3.i107, ptr %arrayinit.element20, align 8, !tbaa !12
  %13 = load i64, ptr %__dnew.i.i.i96, align 8, !tbaa !10
  store i64 %13, ptr %12, align 8, !tbaa !14
  call void @llvm.memcpy.p0.p0.i64(ptr noundef nonnull align 1 dereferenceable(18) %call2.i9.i3.i107, ptr noundef nonnull align 1 dereferenceable(18) @.str.5, i64 18, i1 false)
  %_M_string_length.i.i.i.i.i103 = getelementptr inbounds %"struct.std::pair", ptr %ref.tmp, i64 4, i32 0, i32 1
  store i64 %13, ptr %_M_string_length.i.i.i.i.i103, align 8, !tbaa !15
  %14 = load ptr, ptr %arrayinit.element20, align 8, !tbaa !12
  %arrayidx.i.i.i.i104 = getelementptr inbounds i8, ptr %14, i64 %13
  store i8 0, ptr %arrayidx.i.i.i.i104, align 1, !tbaa !14
  call void @llvm.lifetime.end.p0(i64 8, ptr nonnull %__dnew.i.i.i96) #21
  %second.i105 = getelementptr inbounds %"struct.std::pair", ptr %ref.tmp, i64 4, i32 1
  store double 0x4130000000000000, ptr %second.i105, align 8, !tbaa.struct !16
  %ref.tmp21.sroa.5.0.second.i105.sroa_idx = getelementptr inbounds %"struct.std::pair", ptr %ref.tmp, i64 4, i32 1, i32 1
  store i32 0, ptr %ref.tmp21.sroa.5.0.second.i105.sroa_idx, align 8, !tbaa.struct !23
  %ref.tmp21.sroa.6.0.second.i105.sroa_idx = getelementptr inbounds %"struct.std::pair", ptr %ref.tmp, i64 4, i32 1, i32 2
  store i32 1024, ptr %ref.tmp21.sroa.6.0.second.i105.sroa_idx, align 4, !tbaa.struct !24
  call void @llvm.lifetime.start.p0(i64 8, ptr nonnull %__an.i.i.i) #21
  store ptr %counters, ptr %__an.i.i.i, align 8, !tbaa !25
  %add.ptr.i.i.i.i = getelementptr inbounds %"class.benchmark::State", ptr %state, i64 0, i32 8, i32 0, i32 0, i32 1
  %call3.i.i.i109 = invoke ptr @_ZNSt8_Rb_treeINSt7__cxx1112basic_stringIcSt11char_traitsIcESaIcEEESt4pairIKS5_N9benchmark7CounterEESt10_Select1stISA_ESt4lessIS5_ESaISA_EE17_M_insert_unique_IRKSA_NSG_11_Alloc_nodeEEESt17_Rb_tree_iteratorISA_ESt23_Rb_tree_const_iteratorISA_EOT_RT0_(ptr noundef nonnull align 8 dereferenceable(48) %counters, ptr nonnull %add.ptr.i.i.i.i, ptr noundef nonnull align 8 dereferenceable(48) %ref.tmp, ptr noundef nonnull align 8 dereferenceable(8) %__an.i.i.i)
          to label %call3.i.i.i.noexc unwind label %lpad25

call3.i.i.i.noexc:                                ; preds = %call2.i9.i3.i.noexc106
  %call3.i.i.i109.1 = invoke ptr @_ZNSt8_Rb_treeINSt7__cxx1112basic_stringIcSt11char_traitsIcESaIcEEESt4pairIKS5_N9benchmark7CounterEESt10_Select1stISA_ESt4lessIS5_ESaISA_EE17_M_insert_unique_IRKSA_NSG_11_Alloc_nodeEEESt17_Rb_tree_iteratorISA_ESt23_Rb_tree_const_iteratorISA_EOT_RT0_(ptr noundef nonnull align 8 dereferenceable(48) %counters, ptr nonnull %add.ptr.i.i.i.i, ptr noundef nonnull align 8 dereferenceable(48) %arrayinit.element, ptr noundef nonnull align 8 dereferenceable(8) %__an.i.i.i)
          to label %call3.i.i.i.noexc.1 unwind label %lpad25

call3.i.i.i.noexc.1:                              ; preds = %call3.i.i.i.noexc
  %call3.i.i.i109.2 = invoke ptr @_ZNSt8_Rb_treeINSt7__cxx1112basic_stringIcSt11char_traitsIcESaIcEEESt4pairIKS5_N9benchmark7CounterEESt10_Select1stISA_ESt4lessIS5_ESaISA_EE17_M_insert_unique_IRKSA_NSG_11_Alloc_nodeEEESt17_Rb_tree_iteratorISA_ESt23_Rb_tree_const_iteratorISA_EOT_RT0_(ptr noundef nonnull align 8 dereferenceable(48) %counters, ptr nonnull %add.ptr.i.i.i.i, ptr noundef nonnull align 8 dereferenceable(48) %arrayinit.element10, ptr noundef nonnull align 8 dereferenceable(8) %__an.i.i.i)
          to label %call3.i.i.i.noexc.2 unwind label %lpad25

call3.i.i.i.noexc.2:                              ; preds = %call3.i.i.i.noexc.1
  %call3.i.i.i109.3 = invoke ptr @_ZNSt8_Rb_treeINSt7__cxx1112basic_stringIcSt11char_traitsIcESaIcEEESt4pairIKS5_N9benchmark7CounterEESt10_Select1stISA_ESt4lessIS5_ESaISA_EE17_M_insert_unique_IRKSA_NSG_11_Alloc_nodeEEESt17_Rb_tree_iteratorISA_ESt23_Rb_tree_const_iteratorISA_EOT_RT0_(ptr noundef nonnull align 8 dereferenceable(48) %counters, ptr nonnull %add.ptr.i.i.i.i, ptr noundef nonnull align 8 dereferenceable(48) %arrayinit.element15, ptr noundef nonnull align 8 dereferenceable(8) %__an.i.i.i)
          to label %call3.i.i.i.noexc.3 unwind label %lpad25

call3.i.i.i.noexc.3:                              ; preds = %call3.i.i.i.noexc.2
  %call3.i.i.i109.4 = invoke ptr @_ZNSt8_Rb_treeINSt7__cxx1112basic_stringIcSt11char_traitsIcESaIcEEESt4pairIKS5_N9benchmark7CounterEESt10_Select1stISA_ESt4lessIS5_ESaISA_EE17_M_insert_unique_IRKSA_NSG_11_Alloc_nodeEEESt17_Rb_tree_iteratorISA_ESt23_Rb_tree_const_iteratorISA_EOT_RT0_(ptr noundef nonnull align 8 dereferenceable(48) %counters, ptr nonnull %add.ptr.i.i.i.i, ptr noundef nonnull align 8 dereferenceable(48) %arrayinit.element20, ptr noundef nonnull align 8 dereferenceable(8) %__an.i.i.i)
          to label %call3.i.i.i.noexc.4 unwind label %lpad25

call3.i.i.i.noexc.4:                              ; preds = %call3.i.i.i.noexc.3
  call void @llvm.lifetime.end.p0(i64 8, ptr nonnull %__an.i.i.i) #21
  %arraydestroy.element = getelementptr inbounds %"struct.std::pair", ptr %ref.tmp, i64 4
  %15 = load ptr, ptr %arraydestroy.element, align 8, !tbaa !12
  %16 = getelementptr inbounds %"struct.std::pair", ptr %ref.tmp, i64 4, i32 0, i32 2
  %cmp.i.i.i.i = icmp eq ptr %15, %16
  br i1 %cmp.i.i.i.i, label %_ZNSt4pairIKNSt7__cxx1112basic_stringIcSt11char_traitsIcESaIcEEEN9benchmark7CounterEED2Ev.exit, label %if.then.i.i.i110

if.then.i.i.i110:                                 ; preds = %call3.i.i.i.noexc.4
  call void @_ZdlPv(ptr noundef %15) #22
  br label %_ZNSt4pairIKNSt7__cxx1112basic_stringIcSt11char_traitsIcESaIcEEEN9benchmark7CounterEED2Ev.exit

_ZNSt4pairIKNSt7__cxx1112basic_stringIcSt11char_traitsIcESaIcEEEN9benchmark7CounterEED2Ev.exit: ; preds = %call3.i.i.i.noexc.4, %if.then.i.i.i110
  %arraydestroy.element.1 = getelementptr inbounds %"struct.std::pair", ptr %ref.tmp, i64 3
  %17 = load ptr, ptr %arraydestroy.element.1, align 8, !tbaa !12
  %18 = getelementptr inbounds %"struct.std::pair", ptr %ref.tmp, i64 3, i32 0, i32 2
  %cmp.i.i.i.i.1 = icmp eq ptr %17, %18
  br i1 %cmp.i.i.i.i.1, label %_ZNSt4pairIKNSt7__cxx1112basic_stringIcSt11char_traitsIcESaIcEEEN9benchmark7CounterEED2Ev.exit.1, label %if.then.i.i.i110.1

if.then.i.i.i110.1:                               ; preds = %_ZNSt4pairIKNSt7__cxx1112basic_stringIcSt11char_traitsIcESaIcEEEN9benchmark7CounterEED2Ev.exit
  call void @_ZdlPv(ptr noundef %17) #22
  br label %_ZNSt4pairIKNSt7__cxx1112basic_stringIcSt11char_traitsIcESaIcEEEN9benchmark7CounterEED2Ev.exit.1

_ZNSt4pairIKNSt7__cxx1112basic_stringIcSt11char_traitsIcESaIcEEEN9benchmark7CounterEED2Ev.exit.1: ; preds = %if.then.i.i.i110.1, %_ZNSt4pairIKNSt7__cxx1112basic_stringIcSt11char_traitsIcESaIcEEEN9benchmark7CounterEED2Ev.exit
  %arraydestroy.element.2 = getelementptr inbounds %"struct.std::pair", ptr %ref.tmp, i64 2
  %19 = load ptr, ptr %arraydestroy.element.2, align 8, !tbaa !12
  %20 = getelementptr inbounds %"struct.std::pair", ptr %ref.tmp, i64 2, i32 0, i32 2
  %cmp.i.i.i.i.2 = icmp eq ptr %19, %20
  br i1 %cmp.i.i.i.i.2, label %_ZNSt4pairIKNSt7__cxx1112basic_stringIcSt11char_traitsIcESaIcEEEN9benchmark7CounterEED2Ev.exit.2, label %if.then.i.i.i110.2

if.then.i.i.i110.2:                               ; preds = %_ZNSt4pairIKNSt7__cxx1112basic_stringIcSt11char_traitsIcESaIcEEEN9benchmark7CounterEED2Ev.exit.1
  call void @_ZdlPv(ptr noundef %19) #22
  br label %_ZNSt4pairIKNSt7__cxx1112basic_stringIcSt11char_traitsIcESaIcEEEN9benchmark7CounterEED2Ev.exit.2

_ZNSt4pairIKNSt7__cxx1112basic_stringIcSt11char_traitsIcESaIcEEEN9benchmark7CounterEED2Ev.exit.2: ; preds = %if.then.i.i.i110.2, %_ZNSt4pairIKNSt7__cxx1112basic_stringIcSt11char_traitsIcESaIcEEEN9benchmark7CounterEED2Ev.exit.1
  %arraydestroy.element.3 = getelementptr inbounds %"struct.std::pair", ptr %ref.tmp, i64 1
  %21 = load ptr, ptr %arraydestroy.element.3, align 8, !tbaa !12
  %22 = getelementptr inbounds %"struct.std::pair", ptr %ref.tmp, i64 1, i32 0, i32 2
  %cmp.i.i.i.i.3 = icmp eq ptr %21, %22
  br i1 %cmp.i.i.i.i.3, label %_ZNSt4pairIKNSt7__cxx1112basic_stringIcSt11char_traitsIcESaIcEEEN9benchmark7CounterEED2Ev.exit.3, label %if.then.i.i.i110.3

if.then.i.i.i110.3:                               ; preds = %_ZNSt4pairIKNSt7__cxx1112basic_stringIcSt11char_traitsIcESaIcEEEN9benchmark7CounterEED2Ev.exit.2
  call void @_ZdlPv(ptr noundef %21) #22
  br label %_ZNSt4pairIKNSt7__cxx1112basic_stringIcSt11char_traitsIcESaIcEEEN9benchmark7CounterEED2Ev.exit.3

_ZNSt4pairIKNSt7__cxx1112basic_stringIcSt11char_traitsIcESaIcEEEN9benchmark7CounterEED2Ev.exit.3: ; preds = %if.then.i.i.i110.3, %_ZNSt4pairIKNSt7__cxx1112basic_stringIcSt11char_traitsIcESaIcEEEN9benchmark7CounterEED2Ev.exit.2
  %23 = load ptr, ptr %ref.tmp, align 8, !tbaa !12
  %24 = getelementptr inbounds %"struct.std::pair", ptr %ref.tmp, i64 0, i32 0, i32 2
  %cmp.i.i.i.i.4 = icmp eq ptr %23, %24
  br i1 %cmp.i.i.i.i.4, label %_ZNSt4pairIKNSt7__cxx1112basic_stringIcSt11char_traitsIcESaIcEEEN9benchmark7CounterEED2Ev.exit.4, label %if.then.i.i.i110.4

if.then.i.i.i110.4:                               ; preds = %_ZNSt4pairIKNSt7__cxx1112basic_stringIcSt11char_traitsIcESaIcEEEN9benchmark7CounterEED2Ev.exit.3
  call void @_ZdlPv(ptr noundef %23) #22
  br label %_ZNSt4pairIKNSt7__cxx1112basic_stringIcSt11char_traitsIcESaIcEEEN9benchmark7CounterEED2Ev.exit.4

_ZNSt4pairIKNSt7__cxx1112basic_stringIcSt11char_traitsIcESaIcEEEN9benchmark7CounterEED2Ev.exit.4: ; preds = %if.then.i.i.i110.4, %_ZNSt4pairIKNSt7__cxx1112basic_stringIcSt11char_traitsIcESaIcEEEN9benchmark7CounterEED2Ev.exit.3
  call void @llvm.lifetime.end.p0(i64 240, ptr nonnull %ref.tmp) #21
  ret void

lpad7:                                            ; preds = %entry
  %25 = landingpad { ptr, i32 }
          cleanup
  br label %arraydestroy.body39.preheader

lpad12:                                           ; preds = %call2.i9.i3.i.noexc68
  %26 = landingpad { ptr, i32 }
          cleanup
  br label %arraydestroy.body39.preheader

lpad17:                                           ; preds = %call2.i9.i3.i.noexc80
  %27 = landingpad { ptr, i32 }
          cleanup
  br label %arraydestroy.body39.preheader

lpad22:                                           ; preds = %call2.i9.i3.i.noexc93
  %28 = landingpad { ptr, i32 }
          cleanup
  br label %arraydestroy.body39.preheader

lpad25:                                           ; preds = %call3.i.i.i.noexc.3, %call3.i.i.i.noexc.2, %call3.i.i.i.noexc.1, %call3.i.i.i.noexc, %call2.i9.i3.i.noexc106
  %29 = landingpad { ptr, i32 }
          cleanup
  %arraydestroy.element31 = getelementptr inbounds %"struct.std::pair", ptr %ref.tmp, i64 4
  %30 = load ptr, ptr %arraydestroy.element31, align 8, !tbaa !12
  %31 = getelementptr inbounds %"struct.std::pair", ptr %ref.tmp, i64 4, i32 0, i32 2
  %cmp.i.i.i.i111 = icmp eq ptr %30, %31
  br i1 %cmp.i.i.i.i111, label %_ZNSt4pairIKNSt7__cxx1112basic_stringIcSt11char_traitsIcESaIcEEEN9benchmark7CounterEED2Ev.exit113, label %if.then.i.i.i112

if.then.i.i.i112:                                 ; preds = %lpad25
  call void @_ZdlPv(ptr noundef %30) #22
  br label %_ZNSt4pairIKNSt7__cxx1112basic_stringIcSt11char_traitsIcESaIcEEEN9benchmark7CounterEED2Ev.exit113

_ZNSt4pairIKNSt7__cxx1112basic_stringIcSt11char_traitsIcESaIcEEEN9benchmark7CounterEED2Ev.exit113: ; preds = %lpad25, %if.then.i.i.i112
  %arraydestroy.element31.1 = getelementptr inbounds %"struct.std::pair", ptr %ref.tmp, i64 3
  %32 = load ptr, ptr %arraydestroy.element31.1, align 8, !tbaa !12
  %33 = getelementptr inbounds %"struct.std::pair", ptr %ref.tmp, i64 3, i32 0, i32 2
  %cmp.i.i.i.i111.1 = icmp eq ptr %32, %33
  br i1 %cmp.i.i.i.i111.1, label %_ZNSt4pairIKNSt7__cxx1112basic_stringIcSt11char_traitsIcESaIcEEEN9benchmark7CounterEED2Ev.exit113.1, label %if.then.i.i.i112.1

if.then.i.i.i112.1:                               ; preds = %_ZNSt4pairIKNSt7__cxx1112basic_stringIcSt11char_traitsIcESaIcEEEN9benchmark7CounterEED2Ev.exit113
  call void @_ZdlPv(ptr noundef %32) #22
  br label %_ZNSt4pairIKNSt7__cxx1112basic_stringIcSt11char_traitsIcESaIcEEEN9benchmark7CounterEED2Ev.exit113.1

_ZNSt4pairIKNSt7__cxx1112basic_stringIcSt11char_traitsIcESaIcEEEN9benchmark7CounterEED2Ev.exit113.1: ; preds = %if.then.i.i.i112.1, %_ZNSt4pairIKNSt7__cxx1112basic_stringIcSt11char_traitsIcESaIcEEEN9benchmark7CounterEED2Ev.exit113
  %arraydestroy.element31.2 = getelementptr inbounds %"struct.std::pair", ptr %ref.tmp, i64 2
  %34 = load ptr, ptr %arraydestroy.element31.2, align 8, !tbaa !12
  %35 = getelementptr inbounds %"struct.std::pair", ptr %ref.tmp, i64 2, i32 0, i32 2
  %cmp.i.i.i.i111.2 = icmp eq ptr %34, %35
  br i1 %cmp.i.i.i.i111.2, label %_ZNSt4pairIKNSt7__cxx1112basic_stringIcSt11char_traitsIcESaIcEEEN9benchmark7CounterEED2Ev.exit113.2, label %if.then.i.i.i112.2

if.then.i.i.i112.2:                               ; preds = %_ZNSt4pairIKNSt7__cxx1112basic_stringIcSt11char_traitsIcESaIcEEEN9benchmark7CounterEED2Ev.exit113.1
  call void @_ZdlPv(ptr noundef %34) #22
  br label %_ZNSt4pairIKNSt7__cxx1112basic_stringIcSt11char_traitsIcESaIcEEEN9benchmark7CounterEED2Ev.exit113.2

_ZNSt4pairIKNSt7__cxx1112basic_stringIcSt11char_traitsIcESaIcEEEN9benchmark7CounterEED2Ev.exit113.2: ; preds = %if.then.i.i.i112.2, %_ZNSt4pairIKNSt7__cxx1112basic_stringIcSt11char_traitsIcESaIcEEEN9benchmark7CounterEED2Ev.exit113.1
  %arraydestroy.element31.3 = getelementptr inbounds %"struct.std::pair", ptr %ref.tmp, i64 1
  %36 = load ptr, ptr %arraydestroy.element31.3, align 8, !tbaa !12
  %37 = getelementptr inbounds %"struct.std::pair", ptr %ref.tmp, i64 1, i32 0, i32 2
  %cmp.i.i.i.i111.3 = icmp eq ptr %36, %37
  br i1 %cmp.i.i.i.i111.3, label %_ZNSt4pairIKNSt7__cxx1112basic_stringIcSt11char_traitsIcESaIcEEEN9benchmark7CounterEED2Ev.exit113.3, label %if.then.i.i.i112.3

if.then.i.i.i112.3:                               ; preds = %_ZNSt4pairIKNSt7__cxx1112basic_stringIcSt11char_traitsIcESaIcEEEN9benchmark7CounterEED2Ev.exit113.2
  call void @_ZdlPv(ptr noundef %36) #22
  br label %_ZNSt4pairIKNSt7__cxx1112basic_stringIcSt11char_traitsIcESaIcEEEN9benchmark7CounterEED2Ev.exit113.3

_ZNSt4pairIKNSt7__cxx1112basic_stringIcSt11char_traitsIcESaIcEEEN9benchmark7CounterEED2Ev.exit113.3: ; preds = %if.then.i.i.i112.3, %_ZNSt4pairIKNSt7__cxx1112basic_stringIcSt11char_traitsIcESaIcEEEN9benchmark7CounterEED2Ev.exit113.2
  %38 = load ptr, ptr %ref.tmp, align 8, !tbaa !12
  %39 = getelementptr inbounds %"struct.std::pair", ptr %ref.tmp, i64 0, i32 0, i32 2
  %cmp.i.i.i.i111.4 = icmp eq ptr %38, %39
  br i1 %cmp.i.i.i.i111.4, label %cleanup.done, label %if.then.i.i.i112.4

if.then.i.i.i112.4:                               ; preds = %_ZNSt4pairIKNSt7__cxx1112basic_stringIcSt11char_traitsIcESaIcEEEN9benchmark7CounterEED2Ev.exit113.3
  call void @_ZdlPv(ptr noundef %38) #22
  br label %cleanup.done

arraydestroy.body39.preheader:                    ; preds = %lpad12, %lpad22, %lpad17, %lpad7
  %arrayinit.endOfInit.3 = phi ptr [ %arrayinit.element, %lpad7 ], [ %arrayinit.element10, %lpad12 ], [ %arrayinit.element15, %lpad17 ], [ %arrayinit.element20, %lpad22 ]
  %.pn.pn.pn.pn.pn = phi { ptr, i32 } [ %25, %lpad7 ], [ %26, %lpad12 ], [ %27, %lpad17 ], [ %28, %lpad22 ]
  br label %arraydestroy.body39

arraydestroy.body39:                              ; preds = %arraydestroy.body39.preheader, %_ZNSt4pairIKNSt7__cxx1112basic_stringIcSt11char_traitsIcESaIcEEEN9benchmark7CounterEED2Ev.exit116
  %arraydestroy.elementPast40 = phi ptr [ %arraydestroy.element41, %_ZNSt4pairIKNSt7__cxx1112basic_stringIcSt11char_traitsIcESaIcEEEN9benchmark7CounterEED2Ev.exit116 ], [ %arrayinit.endOfInit.3, %arraydestroy.body39.preheader ]
  %arraydestroy.element41 = getelementptr inbounds %"struct.std::pair", ptr %arraydestroy.elementPast40, i64 -1
  %40 = load ptr, ptr %arraydestroy.element41, align 8, !tbaa !12
  %41 = getelementptr %"struct.std::pair", ptr %arraydestroy.elementPast40, i64 -1, i32 0, i32 2
  %cmp.i.i.i.i114 = icmp eq ptr %40, %41
  br i1 %cmp.i.i.i.i114, label %_ZNSt4pairIKNSt7__cxx1112basic_stringIcSt11char_traitsIcESaIcEEEN9benchmark7CounterEED2Ev.exit116, label %if.then.i.i.i115

if.then.i.i.i115:                                 ; preds = %arraydestroy.body39
  call void @_ZdlPv(ptr noundef %40) #22
  br label %_ZNSt4pairIKNSt7__cxx1112basic_stringIcSt11char_traitsIcESaIcEEEN9benchmark7CounterEED2Ev.exit116

_ZNSt4pairIKNSt7__cxx1112basic_stringIcSt11char_traitsIcESaIcEEEN9benchmark7CounterEED2Ev.exit116: ; preds = %arraydestroy.body39, %if.then.i.i.i115
  %arraydestroy.done42 = icmp eq ptr %arraydestroy.element41, %ref.tmp
  br i1 %arraydestroy.done42, label %cleanup.done, label %arraydestroy.body39

cleanup.done:                                     ; preds = %_ZNSt4pairIKNSt7__cxx1112basic_stringIcSt11char_traitsIcESaIcEEEN9benchmark7CounterEED2Ev.exit116, %_ZNSt4pairIKNSt7__cxx1112basic_stringIcSt11char_traitsIcESaIcEEEN9benchmark7CounterEED2Ev.exit113.3, %if.then.i.i.i112.4
  %.pn.pn.pn.pn.pn128 = phi { ptr, i32 } [ %29, %if.then.i.i.i112.4 ], [ %29, %_ZNSt4pairIKNSt7__cxx1112basic_stringIcSt11char_traitsIcESaIcEEEN9benchmark7CounterEED2Ev.exit113.3 ], [ %.pn.pn.pn.pn.pn, %_ZNSt4pairIKNSt7__cxx1112basic_stringIcSt11char_traitsIcESaIcEEEN9benchmark7CounterEED2Ev.exit116 ]
  call void @llvm.lifetime.end.p0(i64 240, ptr nonnull %ref.tmp) #21
  resume { ptr, i32 } %.pn.pn.pn.pn.pn128
}

; Function Attrs: mustprogress nocallback nofree nosync nounwind willreturn memory(argmem: readwrite)
declare void @llvm.lifetime.start.p0(i64 immarg, ptr nocapture) #4

; Function Attrs: mustprogress nocallback nofree nosync nounwind willreturn memory(argmem: readwrite)
declare void @llvm.lifetime.end.p0(i64 immarg, ptr nocapture) #4

declare i32 @__gxx_personality_v0(...)

declare noundef ptr @_ZN9benchmark8internal25RegisterBenchmarkInternalEPNS0_9BenchmarkE(ptr noundef) local_unnamed_addr #0

; Function Attrs: nobuiltin allocsize(0)
declare noundef nonnull ptr @_Znwm(i64 noundef) local_unnamed_addr #5

; Function Attrs: nobuiltin nounwind
declare void @_ZdlPv(ptr noundef) local_unnamed_addr #6

declare noundef ptr @_ZN9benchmark8internal9Benchmark11RepetitionsEi(ptr noundef nonnull align 8 dereferenceable(216), i32 noundef) local_unnamed_addr #0

declare noundef i32 @_Z8AddCases10TestCaseIDSt16initializer_listI8TestCaseE(i32 noundef, ptr, i64) local_unnamed_addr #0

declare void @_ZN8TestCaseC1ENSt7__cxx1112basic_stringIcSt11char_traitsIcESaIcEEEi(ptr noundef nonnull align 8 dereferenceable(88), ptr noundef, i32 noundef) unnamed_addr #0

; Function Attrs: uwtable
define hidden void @_Z14CheckThousandsRK7Results(ptr noundef nonnull align 8 dereferenceable(80) %e) #3 personality ptr @__gxx_personality_v0 {
entry:
  %ref.tmp = alloca %"class.benchmark::internal::CheckHandler", align 8
  %ref.tmp125 = alloca %"class.benchmark::internal::CheckHandler", align 8
  %ref.tmp260 = alloca %"class.benchmark::internal::CheckHandler", align 8
  %ref.tmp395 = alloca %"class.benchmark::internal::CheckHandler", align 8
  %ref.tmp530 = alloca %"class.benchmark::internal::CheckHandler", align 8
  %call.i.i = tail call noundef i32 @_ZNKSt7__cxx1112basic_stringIcSt11char_traitsIcESaIcEE7compareEPKc(ptr noundef nonnull align 8 dereferenceable(32) %e, ptr noundef nonnull @.str.56) #21
  %cmp.i.i.not = icmp eq i32 %call.i.i, 0
  br i1 %cmp.i.i.not, label %if.end, label %cleanup.done654

if.end:                                           ; preds = %entry
  %call.i = tail call noundef double @_ZNK7Results5GetAsIdEET_PKc(ptr noundef nonnull align 8 dereferenceable(80) %e, ptr noundef nonnull @.str)
  %sub = fadd double %call.i, -1.000000e+06
  %0 = tail call double @llvm.fabs.f64(double %sub)
  %cmp = fcmp uge double %0, 1.000000e+02
  br i1 %cmp, label %cond.false, label %cond.true

cond.true:                                        ; preds = %if.end
  %1 = load atomic i8, ptr @_ZGVZN9benchmark8internal18GetNullLogInstanceEvE3log acquire, align 8
  %guard.uninitialized.i = icmp eq i8 %1, 0
  br i1 %guard.uninitialized.i, label %init.check.i, label %cond.end, !prof !26

init.check.i:                                     ; preds = %cond.true
  %2 = tail call i32 @__cxa_guard_acquire(ptr nonnull @_ZGVZN9benchmark8internal18GetNullLogInstanceEvE3log) #21
  %tobool.not.i = icmp eq i32 %2, 0
  br i1 %tobool.not.i, label %cond.end, label %init.i

init.i:                                           ; preds = %init.check.i
  store ptr null, ptr @_ZZN9benchmark8internal18GetNullLogInstanceEvE3log, align 8, !tbaa !27
  tail call void @__cxa_guard_release(ptr nonnull @_ZGVZN9benchmark8internal18GetNullLogInstanceEvE3log) #21
  br label %cond.end

cond.false:                                       ; preds = %if.end
  call void @llvm.lifetime.start.p0(i64 8, ptr nonnull %ref.tmp) #21
  call void @_ZN9benchmark8internal12CheckHandlerC2EPKcS3_S3_i(ptr noundef nonnull align 8 dereferenceable(8) %ref.tmp, ptr noundef nonnull @.str.57, ptr noundef nonnull @.str.58, ptr noundef nonnull @__func__._Z14CheckThousandsRK7Results, i32 noundef 174)
  %3 = load ptr, ptr %ref.tmp, align 8, !tbaa !29
  br label %cond.end

cond.end:                                         ; preds = %init.i, %init.check.i, %cond.true, %cond.false
  %cond-lvalue = phi ptr [ %3, %cond.false ], [ @_ZZN9benchmark8internal18GetNullLogInstanceEvE3log, %cond.true ], [ @_ZZN9benchmark8internal18GetNullLogInstanceEvE3log, %init.check.i ], [ @_ZZN9benchmark8internal18GetNullLogInstanceEvE3log, %init.i ]
  %4 = load ptr, ptr %cond-lvalue, align 8, !tbaa !27
  %tobool.not.i685 = icmp eq ptr %4, null
  br i1 %tobool.not.i685, label %invoke.cont40, label %if.then.i

if.then.i:                                        ; preds = %cond.end
  %call1.i.i686 = invoke noundef nonnull align 8 dereferenceable(8) ptr @_ZSt16__ostream_insertIcSt11char_traitsIcEERSt13basic_ostreamIT_T0_ES6_PKS3_l(ptr noundef nonnull align 8 dereferenceable(8) %4, ptr noundef nonnull @.str.59, i64 noundef 1)
          to label %invoke.cont5 unwind label %lpad

invoke.cont5:                                     ; preds = %if.then.i
  %.pr = load ptr, ptr %cond-lvalue, align 8, !tbaa !27
  %tobool.not.i687 = icmp eq ptr %.pr, null
  br i1 %tobool.not.i687, label %invoke.cont40, label %if.then.i689

if.then.i689:                                     ; preds = %invoke.cont5
  %call1.i.i691 = invoke noundef nonnull align 8 dereferenceable(8) ptr @_ZSt16__ostream_insertIcSt11char_traitsIcEERSt13basic_ostreamIT_T0_ES6_PKS3_l(ptr noundef nonnull align 8 dereferenceable(8) %.pr, ptr noundef nonnull @.str.58, i64 noundef 116)
          to label %invoke.cont7 unwind label %lpad

invoke.cont7:                                     ; preds = %if.then.i689
  %.pr1761 = load ptr, ptr %cond-lvalue, align 8, !tbaa !27
  %tobool.not.i692 = icmp eq ptr %.pr1761, null
  br i1 %tobool.not.i692, label %invoke.cont40, label %if.then.i694

if.then.i694:                                     ; preds = %invoke.cont7
  %call1.i.i696 = invoke noundef nonnull align 8 dereferenceable(8) ptr @_ZSt16__ostream_insertIcSt11char_traitsIcEERSt13basic_ostreamIT_T0_ES6_PKS3_l(ptr noundef nonnull align 8 dereferenceable(8) %.pr1761, ptr noundef nonnull @.str.60, i64 noundef 1)
          to label %invoke.cont9 unwind label %lpad

invoke.cont9:                                     ; preds = %if.then.i694
  %.pr1763.pr = load ptr, ptr %cond-lvalue, align 8, !tbaa !27
  %tobool.not.i698 = icmp eq ptr %.pr1763.pr, null
  br i1 %tobool.not.i698, label %invoke.cont40, label %if.then.i700

if.then.i700:                                     ; preds = %invoke.cont9
  %call.i699701 = invoke noundef nonnull align 8 dereferenceable(8) ptr @_ZNSolsEi(ptr noundef nonnull align 8 dereferenceable(8) %.pr1763.pr, i32 noundef 174)
          to label %invoke.cont13 unwind label %lpad12

invoke.cont13:                                    ; preds = %if.then.i700
  %.pr1765 = load ptr, ptr %cond-lvalue, align 8, !tbaa !27
  %tobool.not.i702 = icmp eq ptr %.pr1765, null
  br i1 %tobool.not.i702, label %invoke.cont40, label %if.then.i704

if.then.i704:                                     ; preds = %invoke.cont13
  %call1.i.i706 = invoke noundef nonnull align 8 dereferenceable(8) ptr @_ZSt16__ostream_insertIcSt11char_traitsIcEERSt13basic_ostreamIT_T0_ES6_PKS3_l(ptr noundef nonnull align 8 dereferenceable(8) %.pr1765, ptr noundef nonnull @.str.61, i64 noundef 2)
          to label %invoke.cont15 unwind label %lpad12

invoke.cont15:                                    ; preds = %if.then.i704
  %.pr1767.pr.pr = load ptr, ptr %cond-lvalue, align 8, !tbaa !27
  %tobool.not.i707 = icmp eq ptr %.pr1767.pr.pr, null
  br i1 %tobool.not.i707, label %invoke.cont40, label %if.then.i708

if.then.i708:                                     ; preds = %invoke.cont15
  %5 = load ptr, ptr %e, align 8, !tbaa !12
  %_M_string_length.i.i.i = getelementptr inbounds %"class.std::__cxx11::basic_string", ptr %e, i64 0, i32 1
  %6 = load i64, ptr %_M_string_length.i.i.i, align 8, !tbaa !15
  %call2.i.i709 = invoke noundef nonnull align 8 dereferenceable(8) ptr @_ZSt16__ostream_insertIcSt11char_traitsIcEERSt13basic_ostreamIT_T0_ES6_PKS3_l(ptr noundef nonnull align 8 dereferenceable(8) %.pr1767.pr.pr, ptr noundef %5, i64 noundef %6)
          to label %invoke.cont18 unwind label %lpad12

invoke.cont18:                                    ; preds = %if.then.i708
  %.pr1769 = load ptr, ptr %cond-lvalue, align 8, !tbaa !27
  %tobool.not.i710 = icmp eq ptr %.pr1769, null
  br i1 %tobool.not.i710, label %invoke.cont40, label %if.then.i712

if.then.i712:                                     ; preds = %invoke.cont18
  %call1.i.i714 = invoke noundef nonnull align 8 dereferenceable(8) ptr @_ZSt16__ostream_insertIcSt11char_traitsIcEERSt13basic_ostreamIT_T0_ES6_PKS3_l(ptr noundef nonnull align 8 dereferenceable(8) %.pr1769, ptr noundef nonnull @.str.62, i64 noundef 2)
          to label %invoke.cont20 unwind label %lpad12

invoke.cont20:                                    ; preds = %if.then.i712
  %.pr1771.pr.pr = load ptr, ptr %cond-lvalue, align 8, !tbaa !27
  %tobool.not.i716 = icmp eq ptr %.pr1771.pr.pr, null
  br i1 %tobool.not.i716, label %invoke.cont40, label %if.then.i718

if.then.i718:                                     ; preds = %invoke.cont20
  %call1.i.i720 = invoke noundef nonnull align 8 dereferenceable(8) ptr @_ZSt16__ostream_insertIcSt11char_traitsIcEERSt13basic_ostreamIT_T0_ES6_PKS3_l(ptr noundef nonnull align 8 dereferenceable(8) %.pr1771.pr.pr, ptr noundef nonnull @.str.58, i64 noundef 116)
          to label %invoke.cont22 unwind label %lpad12

invoke.cont22:                                    ; preds = %if.then.i718
  %.pr1773 = load ptr, ptr %cond-lvalue, align 8, !tbaa !27
  %tobool.not.i722 = icmp eq ptr %.pr1773, null
  br i1 %tobool.not.i722, label %invoke.cont40, label %if.then.i724

if.then.i724:                                     ; preds = %invoke.cont22
  %call1.i.i726 = invoke noundef nonnull align 8 dereferenceable(8) ptr @_ZSt16__ostream_insertIcSt11char_traitsIcEERSt13basic_ostreamIT_T0_ES6_PKS3_l(ptr noundef nonnull align 8 dereferenceable(8) %.pr1773, ptr noundef nonnull @.str.60, i64 noundef 1)
          to label %invoke.cont24 unwind label %lpad12

invoke.cont24:                                    ; preds = %if.then.i724
  %.pr1775.pr.pr.pr = load ptr, ptr %cond-lvalue, align 8, !tbaa !27
  %tobool.not.i728 = icmp eq ptr %.pr1775.pr.pr.pr, null
  br i1 %tobool.not.i728, label %invoke.cont40, label %if.then.i730

if.then.i730:                                     ; preds = %invoke.cont24
  %call.i729731 = invoke noundef nonnull align 8 dereferenceable(8) ptr @_ZNSolsEi(ptr noundef nonnull align 8 dereferenceable(8) %.pr1775.pr.pr.pr, i32 noundef 174)
          to label %invoke.cont28 unwind label %lpad27

invoke.cont28:                                    ; preds = %if.then.i730
  %.pr1777 = load ptr, ptr %cond-lvalue, align 8, !tbaa !27
  %tobool.not.i733 = icmp eq ptr %.pr1777, null
  br i1 %tobool.not.i733, label %invoke.cont40, label %if.then.i735

if.then.i735:                                     ; preds = %invoke.cont28
  %call1.i.i737 = invoke noundef nonnull align 8 dereferenceable(8) ptr @_ZSt16__ostream_insertIcSt11char_traitsIcEERSt13basic_ostreamIT_T0_ES6_PKS3_l(ptr noundef nonnull align 8 dereferenceable(8) %.pr1777, ptr noundef nonnull @.str.61, i64 noundef 2)
          to label %invoke.cont30 unwind label %lpad27

invoke.cont30:                                    ; preds = %if.then.i735
  %.pr1779.pr.pr.pr = load ptr, ptr %cond-lvalue, align 8, !tbaa !27
  %tobool.not.i739 = icmp eq ptr %.pr1779.pr.pr.pr, null
  br i1 %tobool.not.i739, label %invoke.cont40, label %if.then.i741

if.then.i741:                                     ; preds = %invoke.cont30
  %call1.i.i743 = invoke noundef nonnull align 8 dereferenceable(8) ptr @_ZSt16__ostream_insertIcSt11char_traitsIcEERSt13basic_ostreamIT_T0_ES6_PKS3_l(ptr noundef nonnull align 8 dereferenceable(8) %.pr1779.pr.pr.pr, ptr noundef nonnull @.str.63, i64 noundef 10)
          to label %invoke.cont32 unwind label %lpad27

invoke.cont32:                                    ; preds = %if.then.i741
  %.pr1781 = load ptr, ptr %cond-lvalue, align 8, !tbaa !27
  %tobool.not.i744 = icmp eq ptr %.pr1781, null
  br i1 %tobool.not.i744, label %invoke.cont40, label %if.then.i746

if.then.i746:                                     ; preds = %invoke.cont32
  %call1.i.i748 = invoke noundef nonnull align 8 dereferenceable(8) ptr @_ZSt16__ostream_insertIcSt11char_traitsIcEERSt13basic_ostreamIT_T0_ES6_PKS3_l(ptr noundef nonnull align 8 dereferenceable(8) %.pr1781, ptr noundef nonnull @.str.64, i64 noundef 6)
          to label %invoke.cont34 unwind label %lpad27

invoke.cont34:                                    ; preds = %if.then.i746
  %.pr1783.pr.pr.pr = load ptr, ptr %cond-lvalue, align 8, !tbaa !27
  %tobool.not.i749 = icmp eq ptr %.pr1783.pr.pr.pr, null
  br i1 %tobool.not.i749, label %invoke.cont40, label %if.then.i751

if.then.i751:                                     ; preds = %invoke.cont34
  %call1.i.i753 = invoke noundef nonnull align 8 dereferenceable(8) ptr @_ZSt16__ostream_insertIcSt11char_traitsIcEERSt13basic_ostreamIT_T0_ES6_PKS3_l(ptr noundef nonnull align 8 dereferenceable(8) %.pr1783.pr.pr.pr, ptr noundef nonnull @.str.65, i64 noundef 1)
          to label %invoke.cont36 unwind label %lpad27

invoke.cont36:                                    ; preds = %if.then.i751
  %.pr1785 = load ptr, ptr %cond-lvalue, align 8, !tbaa !27
  %tobool.not.i755 = icmp eq ptr %.pr1785, null
  br i1 %tobool.not.i755, label %invoke.cont40, label %if.then.i757

if.then.i757:                                     ; preds = %invoke.cont36
  %call1.i.i759 = invoke noundef nonnull align 8 dereferenceable(8) ptr @_ZSt16__ostream_insertIcSt11char_traitsIcEERSt13basic_ostreamIT_T0_ES6_PKS3_l(ptr noundef nonnull align 8 dereferenceable(8) %.pr1785, ptr noundef nonnull @.str, i64 noundef 21)
          to label %invoke.cont38 unwind label %lpad27

invoke.cont38:                                    ; preds = %if.then.i757
  %.pr1787.pr.pr.pr = load ptr, ptr %cond-lvalue, align 8, !tbaa !27
  %tobool.not.i760 = icmp eq ptr %.pr1787.pr.pr.pr, null
  br i1 %tobool.not.i760, label %invoke.cont40, label %if.then.i762

if.then.i762:                                     ; preds = %invoke.cont38
  %call1.i.i764 = invoke noundef nonnull align 8 dereferenceable(8) ptr @_ZSt16__ostream_insertIcSt11char_traitsIcEERSt13basic_ostreamIT_T0_ES6_PKS3_l(ptr noundef nonnull align 8 dereferenceable(8) %.pr1787.pr.pr.pr, ptr noundef nonnull @.str.66, i64 noundef 1)
          to label %invoke.cont40 unwind label %lpad27

invoke.cont40:                                    ; preds = %invoke.cont20, %invoke.cont18, %invoke.cont15, %invoke.cont13, %invoke.cont9, %invoke.cont7, %invoke.cont5, %cond.end, %invoke.cont28, %invoke.cont30, %invoke.cont22, %invoke.cont24, %invoke.cont34, %invoke.cont32, %invoke.cont36, %invoke.cont38, %if.then.i762
  %call.i766767 = invoke noundef double @_ZNK7Results5GetAsIdEET_PKc(ptr noundef nonnull align 8 dereferenceable(80) %e, ptr noundef nonnull @.str)
          to label %invoke.cont44 unwind label %lpad43

invoke.cont44:                                    ; preds = %invoke.cont40
  %7 = load ptr, ptr %cond-lvalue, align 8, !tbaa !27
  %tobool.not.i768 = icmp eq ptr %7, null
  br i1 %tobool.not.i768, label %invoke.cont80, label %if.then.i770

if.then.i770:                                     ; preds = %invoke.cont44
  %call.i.i769771 = invoke noundef nonnull align 8 dereferenceable(8) ptr @_ZNSo9_M_insertIdEERSoT_(ptr noundef nonnull align 8 dereferenceable(8) %7, double noundef %call.i766767)
          to label %invoke.cont46 unwind label %lpad43

invoke.cont46:                                    ; preds = %if.then.i770
  %.pr1789 = load ptr, ptr %cond-lvalue, align 8, !tbaa !27
  %tobool.not.i772 = icmp eq ptr %.pr1789, null
  br i1 %tobool.not.i772, label %invoke.cont80, label %if.then.i774

if.then.i774:                                     ; preds = %invoke.cont46
  %call1.i.i776 = invoke noundef nonnull align 8 dereferenceable(8) ptr @_ZSt16__ostream_insertIcSt11char_traitsIcEERSt13basic_ostreamIT_T0_ES6_PKS3_l(ptr noundef nonnull align 8 dereferenceable(8) %.pr1789, ptr noundef nonnull @.str.67, i64 noundef 13)
          to label %invoke.cont48 unwind label %lpad43

invoke.cont48:                                    ; preds = %if.then.i774
  %.pr1791 = load ptr, ptr %cond-lvalue, align 8, !tbaa !27
  %tobool.not.i777 = icmp eq ptr %.pr1791, null
  br i1 %tobool.not.i777, label %invoke.cont80, label %if.then.i779

if.then.i779:                                     ; preds = %invoke.cont48
  %call.i778780 = invoke noundef nonnull align 8 dereferenceable(8) ptr @_ZNSolsEi(ptr noundef nonnull align 8 dereferenceable(8) %.pr1791, i32 noundef 1000000)
          to label %invoke.cont52 unwind label %lpad51

invoke.cont52:                                    ; preds = %if.then.i779
  %.pr1793.pr = load ptr, ptr %cond-lvalue, align 8, !tbaa !27
  %tobool.not.i782 = icmp eq ptr %.pr1793.pr, null
  br i1 %tobool.not.i782, label %invoke.cont80, label %if.then.i784

if.then.i784:                                     ; preds = %invoke.cont52
  %call1.i.i786 = invoke noundef nonnull align 8 dereferenceable(8) ptr @_ZSt16__ostream_insertIcSt11char_traitsIcEERSt13basic_ostreamIT_T0_ES6_PKS3_l(ptr noundef nonnull align 8 dereferenceable(8) %.pr1793.pr, ptr noundef nonnull @.str.59, i64 noundef 1)
          to label %invoke.cont54 unwind label %lpad51

invoke.cont54:                                    ; preds = %if.then.i784
  %.pr1795 = load ptr, ptr %cond-lvalue, align 8, !tbaa !27
  %tobool.not.i788 = icmp eq ptr %.pr1795, null
  br i1 %tobool.not.i788, label %invoke.cont80, label %if.then.i790

if.then.i790:                                     ; preds = %invoke.cont54
  %call1.i.i792 = invoke noundef nonnull align 8 dereferenceable(8) ptr @_ZSt16__ostream_insertIcSt11char_traitsIcEERSt13basic_ostreamIT_T0_ES6_PKS3_l(ptr noundef nonnull align 8 dereferenceable(8) %.pr1795, ptr noundef nonnull @.str.58, i64 noundef 116)
          to label %invoke.cont56 unwind label %lpad51

invoke.cont56:                                    ; preds = %if.then.i790
  %.pr1797.pr.pr = load ptr, ptr %cond-lvalue, align 8, !tbaa !27
  %tobool.not.i794 = icmp eq ptr %.pr1797.pr.pr, null
  br i1 %tobool.not.i794, label %invoke.cont80, label %if.then.i796

if.then.i796:                                     ; preds = %invoke.cont56
  %call1.i.i798 = invoke noundef nonnull align 8 dereferenceable(8) ptr @_ZSt16__ostream_insertIcSt11char_traitsIcEERSt13basic_ostreamIT_T0_ES6_PKS3_l(ptr noundef nonnull align 8 dereferenceable(8) %.pr1797.pr.pr, ptr noundef nonnull @.str.60, i64 noundef 1)
          to label %invoke.cont58 unwind label %lpad51

invoke.cont58:                                    ; preds = %if.then.i796
  %.pr1799 = load ptr, ptr %cond-lvalue, align 8, !tbaa !27
  %tobool.not.i800 = icmp eq ptr %.pr1799, null
  br i1 %tobool.not.i800, label %invoke.cont80, label %if.then.i802

if.then.i802:                                     ; preds = %invoke.cont58
  %call.i801803 = invoke noundef nonnull align 8 dereferenceable(8) ptr @_ZNSolsEi(ptr noundef nonnull align 8 dereferenceable(8) %.pr1799, i32 noundef 174)
          to label %invoke.cont62 unwind label %lpad61

invoke.cont62:                                    ; preds = %if.then.i802
  %.pr1801.pr.pr = load ptr, ptr %cond-lvalue, align 8, !tbaa !27
  %tobool.not.i805 = icmp eq ptr %.pr1801.pr.pr, null
  br i1 %tobool.not.i805, label %invoke.cont80, label %if.then.i807

if.then.i807:                                     ; preds = %invoke.cont62
  %call1.i.i809 = invoke noundef nonnull align 8 dereferenceable(8) ptr @_ZSt16__ostream_insertIcSt11char_traitsIcEERSt13basic_ostreamIT_T0_ES6_PKS3_l(ptr noundef nonnull align 8 dereferenceable(8) %.pr1801.pr.pr, ptr noundef nonnull @.str.61, i64 noundef 2)
          to label %invoke.cont64 unwind label %lpad61

invoke.cont64:                                    ; preds = %if.then.i807
  %.pr1803 = load ptr, ptr %cond-lvalue, align 8, !tbaa !27
  %tobool.not.i811 = icmp eq ptr %.pr1803, null
  br i1 %tobool.not.i811, label %invoke.cont80, label %if.then.i813

if.then.i813:                                     ; preds = %invoke.cont64
  %call1.i.i815 = invoke noundef nonnull align 8 dereferenceable(8) ptr @_ZSt16__ostream_insertIcSt11char_traitsIcEERSt13basic_ostreamIT_T0_ES6_PKS3_l(ptr noundef nonnull align 8 dereferenceable(8) %.pr1803, ptr noundef nonnull @.str.68, i64 noundef 18)
          to label %invoke.cont66 unwind label %lpad61

invoke.cont66:                                    ; preds = %if.then.i813
  %.pr1805.pr.pr.pr = load ptr, ptr %cond-lvalue, align 8, !tbaa !27
  %tobool.not.i816 = icmp eq ptr %.pr1805.pr.pr.pr, null
  br i1 %tobool.not.i816, label %invoke.cont80, label %if.then.i818

if.then.i818:                                     ; preds = %invoke.cont66
  %call.i.i817819 = invoke noundef nonnull align 8 dereferenceable(8) ptr @_ZNSo9_M_insertIdEERSoT_(ptr noundef nonnull align 8 dereferenceable(8) %.pr1805.pr.pr.pr, double noundef 1.000000e+02)
          to label %invoke.cont70 unwind label %lpad69

invoke.cont70:                                    ; preds = %if.then.i818
  %.pr1807 = load ptr, ptr %cond-lvalue, align 8, !tbaa !27
  %tobool.not.i821 = icmp eq ptr %.pr1807, null
  br i1 %tobool.not.i821, label %invoke.cont80, label %if.then.i823

if.then.i823:                                     ; preds = %invoke.cont70
  %call1.i.i825 = invoke noundef nonnull align 8 dereferenceable(8) ptr @_ZSt16__ostream_insertIcSt11char_traitsIcEERSt13basic_ostreamIT_T0_ES6_PKS3_l(ptr noundef nonnull align 8 dereferenceable(8) %.pr1807, ptr noundef nonnull @.str.69, i64 noundef 2)
          to label %invoke.cont72 unwind label %lpad69

invoke.cont72:                                    ; preds = %if.then.i823
  %.pr1809.pr.pr.pr = load ptr, ptr %cond-lvalue, align 8, !tbaa !27
  %tobool.not.i827 = icmp eq ptr %.pr1809.pr.pr.pr, null
  br i1 %tobool.not.i827, label %invoke.cont80, label %if.then.i829

if.then.i829:                                     ; preds = %invoke.cont72
  %call.i.i828830 = invoke noundef nonnull align 8 dereferenceable(8) ptr @_ZNSo9_M_insertIdEERSoT_(ptr noundef nonnull align 8 dereferenceable(8) %.pr1809.pr.pr.pr, double noundef 1.000000e-02)
          to label %invoke.cont76 unwind label %lpad75

invoke.cont76:                                    ; preds = %if.then.i829
  %.pr1811 = load ptr, ptr %cond-lvalue, align 8, !tbaa !27
  %tobool.not.i832 = icmp eq ptr %.pr1811, null
  br i1 %tobool.not.i832, label %invoke.cont80, label %if.then.i834

if.then.i834:                                     ; preds = %invoke.cont76
  %call1.i.i836 = invoke noundef nonnull align 8 dereferenceable(8) ptr @_ZSt16__ostream_insertIcSt11char_traitsIcEERSt13basic_ostreamIT_T0_ES6_PKS3_l(ptr noundef nonnull align 8 dereferenceable(8) %.pr1811, ptr noundef nonnull @.str.70, i64 noundef 4)
          to label %invoke.cont78 unwind label %lpad75

invoke.cont78:                                    ; preds = %if.then.i834
  %.pr1813.pr.pr.pr = load ptr, ptr %cond-lvalue, align 8, !tbaa !27
  %tobool.not.i837 = icmp eq ptr %.pr1813.pr.pr.pr, null
  br i1 %tobool.not.i837, label %invoke.cont80, label %if.then.i839

if.then.i839:                                     ; preds = %invoke.cont78
  %call1.i.i841 = invoke noundef nonnull align 8 dereferenceable(8) ptr @_ZSt16__ostream_insertIcSt11char_traitsIcEERSt13basic_ostreamIT_T0_ES6_PKS3_l(ptr noundef nonnull align 8 dereferenceable(8) %.pr1813.pr.pr.pr, ptr noundef nonnull @.str.71, i64 noundef 14)
          to label %invoke.cont80 unwind label %lpad75

invoke.cont80:                                    ; preds = %invoke.cont56, %invoke.cont54, %invoke.cont52, %invoke.cont48, %invoke.cont46, %invoke.cont44, %invoke.cont64, %invoke.cont66, %invoke.cont58, %invoke.cont62, %invoke.cont72, %invoke.cont70, %invoke.cont76, %invoke.cont78, %if.then.i839
  %call.i842843 = invoke noundef double @_ZNK7Results5GetAsIdEET_PKc(ptr noundef nonnull align 8 dereferenceable(80) %e, ptr noundef nonnull @.str)
          to label %invoke.cont84 unwind label %lpad83

invoke.cont84:                                    ; preds = %invoke.cont80
  %8 = load ptr, ptr %cond-lvalue, align 8, !tbaa !27
  %tobool.not.i845 = icmp eq ptr %8, null
  br i1 %tobool.not.i845, label %invoke.cont89, label %if.then.i847

if.then.i847:                                     ; preds = %invoke.cont84
  %sub86 = fadd double %call.i842843, -1.000000e+06
  %call.i.i846848 = invoke noundef nonnull align 8 dereferenceable(8) ptr @_ZNSo9_M_insertIdEERSoT_(ptr noundef nonnull align 8 dereferenceable(8) %8, double noundef %sub86)
          to label %invoke.cont87 unwind label %lpad83

invoke.cont87:                                    ; preds = %if.then.i847
  %.pr1815 = load ptr, ptr %cond-lvalue, align 8, !tbaa !27
  %tobool.not.i850 = icmp eq ptr %.pr1815, null
  br i1 %tobool.not.i850, label %invoke.cont89, label %if.then.i852

if.then.i852:                                     ; preds = %invoke.cont87
  %call1.i.i854 = invoke noundef nonnull align 8 dereferenceable(8) ptr @_ZSt16__ostream_insertIcSt11char_traitsIcEERSt13basic_ostreamIT_T0_ES6_PKS3_l(ptr noundef nonnull align 8 dereferenceable(8) %.pr1815, ptr noundef nonnull @.str.69, i64 noundef 2)
          to label %invoke.cont89 unwind label %lpad83

invoke.cont89:                                    ; preds = %invoke.cont84, %invoke.cont87, %if.then.i852
  %call.i856857 = invoke noundef double @_ZNK7Results5GetAsIdEET_PKc(ptr noundef nonnull align 8 dereferenceable(80) %e, ptr noundef nonnull @.str)
          to label %invoke.cont93 unwind label %lpad92

invoke.cont93:                                    ; preds = %invoke.cont89
  %9 = load ptr, ptr %cond-lvalue, align 8, !tbaa !27
  %tobool.not.i859 = icmp eq ptr %9, null
  br i1 %tobool.not.i859, label %invoke.cont98, label %if.then.i861

if.then.i861:                                     ; preds = %invoke.cont93
  %sub95 = fadd double %call.i856857, -1.000000e+06
  %div = fdiv double %sub95, 1.000000e+06
  %mul = fmul double %div, 1.000000e+02
  %call.i.i860862 = invoke noundef nonnull align 8 dereferenceable(8) ptr @_ZNSo9_M_insertIdEERSoT_(ptr noundef nonnull align 8 dereferenceable(8) %9, double noundef %mul)
          to label %invoke.cont96 unwind label %lpad92

invoke.cont96:                                    ; preds = %if.then.i861
  %.pr1817 = load ptr, ptr %cond-lvalue, align 8, !tbaa !27
  %tobool.not.i864 = icmp eq ptr %.pr1817, null
  br i1 %tobool.not.i864, label %invoke.cont98, label %if.then.i866

if.then.i866:                                     ; preds = %invoke.cont96
  %call1.i.i868 = invoke noundef nonnull align 8 dereferenceable(8) ptr @_ZSt16__ostream_insertIcSt11char_traitsIcEERSt13basic_ostreamIT_T0_ES6_PKS3_l(ptr noundef nonnull align 8 dereferenceable(8) %.pr1817, ptr noundef nonnull @.str.72, i64 noundef 2)
          to label %invoke.cont98 unwind label %lpad92

invoke.cont98:                                    ; preds = %invoke.cont93, %invoke.cont96, %if.then.i866
  br i1 %cmp, label %cleanup.action, label %cleanup.done114

cleanup.action:                                   ; preds = %invoke.cont98
  call void @_ZN9benchmark8internal12CheckHandlerD2Ev(ptr noundef nonnull align 8 dereferenceable(8) %ref.tmp) #23
  unreachable

lpad:                                             ; preds = %if.then.i694, %if.then.i689, %if.then.i
  %10 = landingpad { ptr, i32 }
          cleanup
  br label %ehcleanup107

lpad12:                                           ; preds = %if.then.i724, %if.then.i718, %if.then.i712, %if.then.i708, %if.then.i704, %if.then.i700
  %11 = landingpad { ptr, i32 }
          cleanup
  br label %ehcleanup107

lpad27:                                           ; preds = %if.then.i762, %if.then.i757, %if.then.i751, %if.then.i746, %if.then.i741, %if.then.i735, %if.then.i730
  %12 = landingpad { ptr, i32 }
          cleanup
  br label %ehcleanup107

lpad43:                                           ; preds = %if.then.i774, %if.then.i770, %invoke.cont40
  %13 = landingpad { ptr, i32 }
          cleanup
  br label %ehcleanup107

lpad51:                                           ; preds = %if.then.i796, %if.then.i790, %if.then.i784, %if.then.i779
  %14 = landingpad { ptr, i32 }
          cleanup
  br label %ehcleanup107

lpad61:                                           ; preds = %if.then.i813, %if.then.i807, %if.then.i802
  %15 = landingpad { ptr, i32 }
          cleanup
  br label %ehcleanup107

lpad69:                                           ; preds = %if.then.i823, %if.then.i818
  %16 = landingpad { ptr, i32 }
          cleanup
  br label %ehcleanup107

lpad75:                                           ; preds = %if.then.i839, %if.then.i834, %if.then.i829
  %17 = landingpad { ptr, i32 }
          cleanup
  br label %ehcleanup107

lpad83:                                           ; preds = %if.then.i852, %if.then.i847, %invoke.cont80
  %18 = landingpad { ptr, i32 }
          cleanup
  br label %ehcleanup107

lpad92:                                           ; preds = %if.then.i866, %if.then.i861, %invoke.cont89
  %19 = landingpad { ptr, i32 }
          cleanup
  br label %ehcleanup107

cleanup.done114:                                  ; preds = %invoke.cont98
  %call.i870 = call noundef double @_ZNK7Results5GetAsIdEET_PKc(ptr noundef nonnull align 8 dereferenceable(80) %e, ptr noundef nonnull @.str.2)
  %sub120 = fadd double %call.i870, -1.000000e+06
  %20 = call double @llvm.fabs.f64(double %sub120)
  %cmp121 = fcmp uge double %20, 1.000000e+02
  br i1 %cmp121, label %cond.false124, label %cond.true122

cond.true122:                                     ; preds = %cleanup.done114
  %21 = load atomic i8, ptr @_ZGVZN9benchmark8internal18GetNullLogInstanceEvE3log acquire, align 8
  %guard.uninitialized.i871 = icmp eq i8 %21, 0
  br i1 %guard.uninitialized.i871, label %init.check.i873, label %cond.end131, !prof !26

init.check.i873:                                  ; preds = %cond.true122
  %22 = call i32 @__cxa_guard_acquire(ptr nonnull @_ZGVZN9benchmark8internal18GetNullLogInstanceEvE3log) #21
  %tobool.not.i872 = icmp eq i32 %22, 0
  br i1 %tobool.not.i872, label %cond.end131, label %init.i874

init.i874:                                        ; preds = %init.check.i873
  store ptr null, ptr @_ZZN9benchmark8internal18GetNullLogInstanceEvE3log, align 8, !tbaa !27
  call void @__cxa_guard_release(ptr nonnull @_ZGVZN9benchmark8internal18GetNullLogInstanceEvE3log) #21
  br label %cond.end131

cond.false124:                                    ; preds = %cleanup.done114
  call void @llvm.lifetime.start.p0(i64 8, ptr nonnull %ref.tmp125) #21
  call void @_ZN9benchmark8internal12CheckHandlerC2EPKcS3_S3_i(ptr noundef nonnull align 8 dereferenceable(8) %ref.tmp125, ptr noundef nonnull @.str.73, ptr noundef nonnull @.str.58, ptr noundef nonnull @__func__._Z14CheckThousandsRK7Results, i32 noundef 175)
  %23 = load ptr, ptr %ref.tmp125, align 8, !tbaa !29
  br label %cond.end131

cond.end131:                                      ; preds = %init.i874, %init.check.i873, %cond.true122, %cond.false124
  %cond-lvalue132 = phi ptr [ %23, %cond.false124 ], [ @_ZZN9benchmark8internal18GetNullLogInstanceEvE3log, %cond.true122 ], [ @_ZZN9benchmark8internal18GetNullLogInstanceEvE3log, %init.check.i873 ], [ @_ZZN9benchmark8internal18GetNullLogInstanceEvE3log, %init.i874 ]
  %24 = load ptr, ptr %cond-lvalue132, align 8, !tbaa !27
  %tobool.not.i876 = icmp eq ptr %24, null
  br i1 %tobool.not.i876, label %invoke.cont168, label %if.then.i878

if.then.i878:                                     ; preds = %cond.end131
  %call1.i.i880 = invoke noundef nonnull align 8 dereferenceable(8) ptr @_ZSt16__ostream_insertIcSt11char_traitsIcEERSt13basic_ostreamIT_T0_ES6_PKS3_l(ptr noundef nonnull align 8 dereferenceable(8) %24, ptr noundef nonnull @.str.59, i64 noundef 1)
          to label %invoke.cont133 unwind label %lpad128

invoke.cont133:                                   ; preds = %if.then.i878
  %.pr1819 = load ptr, ptr %cond-lvalue132, align 8, !tbaa !27
  %tobool.not.i882 = icmp eq ptr %.pr1819, null
  br i1 %tobool.not.i882, label %invoke.cont168, label %if.then.i884

if.then.i884:                                     ; preds = %invoke.cont133
  %call1.i.i886 = invoke noundef nonnull align 8 dereferenceable(8) ptr @_ZSt16__ostream_insertIcSt11char_traitsIcEERSt13basic_ostreamIT_T0_ES6_PKS3_l(ptr noundef nonnull align 8 dereferenceable(8) %.pr1819, ptr noundef nonnull @.str.58, i64 noundef 116)
          to label %invoke.cont135 unwind label %lpad128

invoke.cont135:                                   ; preds = %if.then.i884
  %.pr1821 = load ptr, ptr %cond-lvalue132, align 8, !tbaa !27
  %tobool.not.i888 = icmp eq ptr %.pr1821, null
  br i1 %tobool.not.i888, label %invoke.cont168, label %if.then.i890

if.then.i890:                                     ; preds = %invoke.cont135
  %call1.i.i892 = invoke noundef nonnull align 8 dereferenceable(8) ptr @_ZSt16__ostream_insertIcSt11char_traitsIcEERSt13basic_ostreamIT_T0_ES6_PKS3_l(ptr noundef nonnull align 8 dereferenceable(8) %.pr1821, ptr noundef nonnull @.str.60, i64 noundef 1)
          to label %invoke.cont137 unwind label %lpad128

invoke.cont137:                                   ; preds = %if.then.i890
  %.pr1823.pr = load ptr, ptr %cond-lvalue132, align 8, !tbaa !27
  %tobool.not.i894 = icmp eq ptr %.pr1823.pr, null
  br i1 %tobool.not.i894, label %invoke.cont168, label %if.then.i896

if.then.i896:                                     ; preds = %invoke.cont137
  %call.i895897 = invoke noundef nonnull align 8 dereferenceable(8) ptr @_ZNSolsEi(ptr noundef nonnull align 8 dereferenceable(8) %.pr1823.pr, i32 noundef 175)
          to label %invoke.cont141 unwind label %lpad140

invoke.cont141:                                   ; preds = %if.then.i896
  %.pr1825 = load ptr, ptr %cond-lvalue132, align 8, !tbaa !27
  %tobool.not.i899 = icmp eq ptr %.pr1825, null
  br i1 %tobool.not.i899, label %invoke.cont168, label %if.then.i901

if.then.i901:                                     ; preds = %invoke.cont141
  %call1.i.i903 = invoke noundef nonnull align 8 dereferenceable(8) ptr @_ZSt16__ostream_insertIcSt11char_traitsIcEERSt13basic_ostreamIT_T0_ES6_PKS3_l(ptr noundef nonnull align 8 dereferenceable(8) %.pr1825, ptr noundef nonnull @.str.61, i64 noundef 2)
          to label %invoke.cont143 unwind label %lpad140

invoke.cont143:                                   ; preds = %if.then.i901
  %.pr1827.pr.pr = load ptr, ptr %cond-lvalue132, align 8, !tbaa !27
  %tobool.not.i905 = icmp eq ptr %.pr1827.pr.pr, null
  br i1 %tobool.not.i905, label %invoke.cont168, label %if.then.i907

if.then.i907:                                     ; preds = %invoke.cont143
  %25 = load ptr, ptr %e, align 8, !tbaa !12
  %_M_string_length.i.i.i906 = getelementptr inbounds %"class.std::__cxx11::basic_string", ptr %e, i64 0, i32 1
  %26 = load i64, ptr %_M_string_length.i.i.i906, align 8, !tbaa !15
  %call2.i.i909 = invoke noundef nonnull align 8 dereferenceable(8) ptr @_ZSt16__ostream_insertIcSt11char_traitsIcEERSt13basic_ostreamIT_T0_ES6_PKS3_l(ptr noundef nonnull align 8 dereferenceable(8) %.pr1827.pr.pr, ptr noundef %25, i64 noundef %26)
          to label %invoke.cont146 unwind label %lpad140

invoke.cont146:                                   ; preds = %if.then.i907
  %.pr1829 = load ptr, ptr %cond-lvalue132, align 8, !tbaa !27
  %tobool.not.i911 = icmp eq ptr %.pr1829, null
  br i1 %tobool.not.i911, label %invoke.cont168, label %if.then.i913

if.then.i913:                                     ; preds = %invoke.cont146
  %call1.i.i915 = invoke noundef nonnull align 8 dereferenceable(8) ptr @_ZSt16__ostream_insertIcSt11char_traitsIcEERSt13basic_ostreamIT_T0_ES6_PKS3_l(ptr noundef nonnull align 8 dereferenceable(8) %.pr1829, ptr noundef nonnull @.str.62, i64 noundef 2)
          to label %invoke.cont148 unwind label %lpad140

invoke.cont148:                                   ; preds = %if.then.i913
  %.pr1831.pr.pr = load ptr, ptr %cond-lvalue132, align 8, !tbaa !27
  %tobool.not.i917 = icmp eq ptr %.pr1831.pr.pr, null
  br i1 %tobool.not.i917, label %invoke.cont168, label %if.then.i919

if.then.i919:                                     ; preds = %invoke.cont148
  %call1.i.i921 = invoke noundef nonnull align 8 dereferenceable(8) ptr @_ZSt16__ostream_insertIcSt11char_traitsIcEERSt13basic_ostreamIT_T0_ES6_PKS3_l(ptr noundef nonnull align 8 dereferenceable(8) %.pr1831.pr.pr, ptr noundef nonnull @.str.58, i64 noundef 116)
          to label %invoke.cont150 unwind label %lpad140

invoke.cont150:                                   ; preds = %if.then.i919
  %.pr1833 = load ptr, ptr %cond-lvalue132, align 8, !tbaa !27
  %tobool.not.i923 = icmp eq ptr %.pr1833, null
  br i1 %tobool.not.i923, label %invoke.cont168, label %if.then.i925

if.then.i925:                                     ; preds = %invoke.cont150
  %call1.i.i927 = invoke noundef nonnull align 8 dereferenceable(8) ptr @_ZSt16__ostream_insertIcSt11char_traitsIcEERSt13basic_ostreamIT_T0_ES6_PKS3_l(ptr noundef nonnull align 8 dereferenceable(8) %.pr1833, ptr noundef nonnull @.str.60, i64 noundef 1)
          to label %invoke.cont152 unwind label %lpad140

invoke.cont152:                                   ; preds = %if.then.i925
  %.pr1835.pr.pr.pr = load ptr, ptr %cond-lvalue132, align 8, !tbaa !27
  %tobool.not.i929 = icmp eq ptr %.pr1835.pr.pr.pr, null
  br i1 %tobool.not.i929, label %invoke.cont168, label %if.then.i931

if.then.i931:                                     ; preds = %invoke.cont152
  %call.i930932 = invoke noundef nonnull align 8 dereferenceable(8) ptr @_ZNSolsEi(ptr noundef nonnull align 8 dereferenceable(8) %.pr1835.pr.pr.pr, i32 noundef 175)
          to label %invoke.cont156 unwind label %lpad155

invoke.cont156:                                   ; preds = %if.then.i931
  %.pr1837 = load ptr, ptr %cond-lvalue132, align 8, !tbaa !27
  %tobool.not.i934 = icmp eq ptr %.pr1837, null
  br i1 %tobool.not.i934, label %invoke.cont168, label %if.then.i936

if.then.i936:                                     ; preds = %invoke.cont156
  %call1.i.i938 = invoke noundef nonnull align 8 dereferenceable(8) ptr @_ZSt16__ostream_insertIcSt11char_traitsIcEERSt13basic_ostreamIT_T0_ES6_PKS3_l(ptr noundef nonnull align 8 dereferenceable(8) %.pr1837, ptr noundef nonnull @.str.61, i64 noundef 2)
          to label %invoke.cont158 unwind label %lpad155

invoke.cont158:                                   ; preds = %if.then.i936
  %.pr1839.pr.pr.pr = load ptr, ptr %cond-lvalue132, align 8, !tbaa !27
  %tobool.not.i940 = icmp eq ptr %.pr1839.pr.pr.pr, null
  br i1 %tobool.not.i940, label %invoke.cont168, label %if.then.i942

if.then.i942:                                     ; preds = %invoke.cont158
  %call1.i.i944 = invoke noundef nonnull align 8 dereferenceable(8) ptr @_ZSt16__ostream_insertIcSt11char_traitsIcEERSt13basic_ostreamIT_T0_ES6_PKS3_l(ptr noundef nonnull align 8 dereferenceable(8) %.pr1839.pr.pr.pr, ptr noundef nonnull @.str.63, i64 noundef 10)
          to label %invoke.cont160 unwind label %lpad155

invoke.cont160:                                   ; preds = %if.then.i942
  %.pr1841 = load ptr, ptr %cond-lvalue132, align 8, !tbaa !27
  %tobool.not.i946 = icmp eq ptr %.pr1841, null
  br i1 %tobool.not.i946, label %invoke.cont168, label %if.then.i948

if.then.i948:                                     ; preds = %invoke.cont160
  %call1.i.i950 = invoke noundef nonnull align 8 dereferenceable(8) ptr @_ZSt16__ostream_insertIcSt11char_traitsIcEERSt13basic_ostreamIT_T0_ES6_PKS3_l(ptr noundef nonnull align 8 dereferenceable(8) %.pr1841, ptr noundef nonnull @.str.64, i64 noundef 6)
          to label %invoke.cont162 unwind label %lpad155

invoke.cont162:                                   ; preds = %if.then.i948
  %.pr1843.pr.pr.pr = load ptr, ptr %cond-lvalue132, align 8, !tbaa !27
  %tobool.not.i952 = icmp eq ptr %.pr1843.pr.pr.pr, null
  br i1 %tobool.not.i952, label %invoke.cont168, label %if.then.i954

if.then.i954:                                     ; preds = %invoke.cont162
  %call1.i.i956 = invoke noundef nonnull align 8 dereferenceable(8) ptr @_ZSt16__ostream_insertIcSt11char_traitsIcEERSt13basic_ostreamIT_T0_ES6_PKS3_l(ptr noundef nonnull align 8 dereferenceable(8) %.pr1843.pr.pr.pr, ptr noundef nonnull @.str.65, i64 noundef 1)
          to label %invoke.cont164 unwind label %lpad155

invoke.cont164:                                   ; preds = %if.then.i954
  %.pr1845 = load ptr, ptr %cond-lvalue132, align 8, !tbaa !27
  %tobool.not.i958 = icmp eq ptr %.pr1845, null
  br i1 %tobool.not.i958, label %invoke.cont168, label %if.then.i960

if.then.i960:                                     ; preds = %invoke.cont164
  %call1.i.i962 = invoke noundef nonnull align 8 dereferenceable(8) ptr @_ZSt16__ostream_insertIcSt11char_traitsIcEERSt13basic_ostreamIT_T0_ES6_PKS3_l(ptr noundef nonnull align 8 dereferenceable(8) %.pr1845, ptr noundef nonnull @.str.2, i64 noundef 18)
          to label %invoke.cont166 unwind label %lpad155

invoke.cont166:                                   ; preds = %if.then.i960
  %.pr1847.pr.pr.pr = load ptr, ptr %cond-lvalue132, align 8, !tbaa !27
  %tobool.not.i964 = icmp eq ptr %.pr1847.pr.pr.pr, null
  br i1 %tobool.not.i964, label %invoke.cont168, label %if.then.i966

if.then.i966:                                     ; preds = %invoke.cont166
  %call1.i.i968 = invoke noundef nonnull align 8 dereferenceable(8) ptr @_ZSt16__ostream_insertIcSt11char_traitsIcEERSt13basic_ostreamIT_T0_ES6_PKS3_l(ptr noundef nonnull align 8 dereferenceable(8) %.pr1847.pr.pr.pr, ptr noundef nonnull @.str.66, i64 noundef 1)
          to label %invoke.cont168 unwind label %lpad155

invoke.cont168:                                   ; preds = %invoke.cont148, %invoke.cont146, %invoke.cont143, %invoke.cont141, %invoke.cont137, %invoke.cont135, %invoke.cont133, %cond.end131, %invoke.cont156, %invoke.cont158, %invoke.cont150, %invoke.cont152, %invoke.cont162, %invoke.cont160, %invoke.cont164, %invoke.cont166, %if.then.i966
  %call.i970971 = invoke noundef double @_ZNK7Results5GetAsIdEET_PKc(ptr noundef nonnull align 8 dereferenceable(80) %e, ptr noundef nonnull @.str.2)
          to label %invoke.cont172 unwind label %lpad171

invoke.cont172:                                   ; preds = %invoke.cont168
  %27 = load ptr, ptr %cond-lvalue132, align 8, !tbaa !27
  %tobool.not.i973 = icmp eq ptr %27, null
  br i1 %tobool.not.i973, label %invoke.cont208, label %if.then.i975

if.then.i975:                                     ; preds = %invoke.cont172
  %call.i.i974976 = invoke noundef nonnull align 8 dereferenceable(8) ptr @_ZNSo9_M_insertIdEERSoT_(ptr noundef nonnull align 8 dereferenceable(8) %27, double noundef %call.i970971)
          to label %invoke.cont174 unwind label %lpad171

invoke.cont174:                                   ; preds = %if.then.i975
  %.pr1849 = load ptr, ptr %cond-lvalue132, align 8, !tbaa !27
  %tobool.not.i978 = icmp eq ptr %.pr1849, null
  br i1 %tobool.not.i978, label %invoke.cont208, label %if.then.i980

if.then.i980:                                     ; preds = %invoke.cont174
  %call1.i.i982 = invoke noundef nonnull align 8 dereferenceable(8) ptr @_ZSt16__ostream_insertIcSt11char_traitsIcEERSt13basic_ostreamIT_T0_ES6_PKS3_l(ptr noundef nonnull align 8 dereferenceable(8) %.pr1849, ptr noundef nonnull @.str.67, i64 noundef 13)
          to label %invoke.cont176 unwind label %lpad171

invoke.cont176:                                   ; preds = %if.then.i980
  %.pr1851 = load ptr, ptr %cond-lvalue132, align 8, !tbaa !27
  %tobool.not.i984 = icmp eq ptr %.pr1851, null
  br i1 %tobool.not.i984, label %invoke.cont208, label %if.then.i986

if.then.i986:                                     ; preds = %invoke.cont176
  %call.i985987 = invoke noundef nonnull align 8 dereferenceable(8) ptr @_ZNSolsEi(ptr noundef nonnull align 8 dereferenceable(8) %.pr1851, i32 noundef 1000000)
          to label %invoke.cont180 unwind label %lpad179

invoke.cont180:                                   ; preds = %if.then.i986
  %.pr1853.pr = load ptr, ptr %cond-lvalue132, align 8, !tbaa !27
  %tobool.not.i989 = icmp eq ptr %.pr1853.pr, null
  br i1 %tobool.not.i989, label %invoke.cont208, label %if.then.i991

if.then.i991:                                     ; preds = %invoke.cont180
  %call1.i.i993 = invoke noundef nonnull align 8 dereferenceable(8) ptr @_ZSt16__ostream_insertIcSt11char_traitsIcEERSt13basic_ostreamIT_T0_ES6_PKS3_l(ptr noundef nonnull align 8 dereferenceable(8) %.pr1853.pr, ptr noundef nonnull @.str.59, i64 noundef 1)
          to label %invoke.cont182 unwind label %lpad179

invoke.cont182:                                   ; preds = %if.then.i991
  %.pr1855 = load ptr, ptr %cond-lvalue132, align 8, !tbaa !27
  %tobool.not.i995 = icmp eq ptr %.pr1855, null
  br i1 %tobool.not.i995, label %invoke.cont208, label %if.then.i997

if.then.i997:                                     ; preds = %invoke.cont182
  %call1.i.i999 = invoke noundef nonnull align 8 dereferenceable(8) ptr @_ZSt16__ostream_insertIcSt11char_traitsIcEERSt13basic_ostreamIT_T0_ES6_PKS3_l(ptr noundef nonnull align 8 dereferenceable(8) %.pr1855, ptr noundef nonnull @.str.58, i64 noundef 116)
          to label %invoke.cont184 unwind label %lpad179

invoke.cont184:                                   ; preds = %if.then.i997
  %.pr1857.pr.pr = load ptr, ptr %cond-lvalue132, align 8, !tbaa !27
  %tobool.not.i1001 = icmp eq ptr %.pr1857.pr.pr, null
  br i1 %tobool.not.i1001, label %invoke.cont208, label %if.then.i1003

if.then.i1003:                                    ; preds = %invoke.cont184
  %call1.i.i1005 = invoke noundef nonnull align 8 dereferenceable(8) ptr @_ZSt16__ostream_insertIcSt11char_traitsIcEERSt13basic_ostreamIT_T0_ES6_PKS3_l(ptr noundef nonnull align 8 dereferenceable(8) %.pr1857.pr.pr, ptr noundef nonnull @.str.60, i64 noundef 1)
          to label %invoke.cont186 unwind label %lpad179

invoke.cont186:                                   ; preds = %if.then.i1003
  %.pr1859 = load ptr, ptr %cond-lvalue132, align 8, !tbaa !27
  %tobool.not.i1007 = icmp eq ptr %.pr1859, null
  br i1 %tobool.not.i1007, label %invoke.cont208, label %if.then.i1009

if.then.i1009:                                    ; preds = %invoke.cont186
  %call.i10081010 = invoke noundef nonnull align 8 dereferenceable(8) ptr @_ZNSolsEi(ptr noundef nonnull align 8 dereferenceable(8) %.pr1859, i32 noundef 175)
          to label %invoke.cont190 unwind label %lpad189

invoke.cont190:                                   ; preds = %if.then.i1009
  %.pr1861.pr.pr = load ptr, ptr %cond-lvalue132, align 8, !tbaa !27
  %tobool.not.i1012 = icmp eq ptr %.pr1861.pr.pr, null
  br i1 %tobool.not.i1012, label %invoke.cont208, label %if.then.i1014

if.then.i1014:                                    ; preds = %invoke.cont190
  %call1.i.i1016 = invoke noundef nonnull align 8 dereferenceable(8) ptr @_ZSt16__ostream_insertIcSt11char_traitsIcEERSt13basic_ostreamIT_T0_ES6_PKS3_l(ptr noundef nonnull align 8 dereferenceable(8) %.pr1861.pr.pr, ptr noundef nonnull @.str.61, i64 noundef 2)
          to label %invoke.cont192 unwind label %lpad189

invoke.cont192:                                   ; preds = %if.then.i1014
  %.pr1863 = load ptr, ptr %cond-lvalue132, align 8, !tbaa !27
  %tobool.not.i1018 = icmp eq ptr %.pr1863, null
  br i1 %tobool.not.i1018, label %invoke.cont208, label %if.then.i1020

if.then.i1020:                                    ; preds = %invoke.cont192
  %call1.i.i1022 = invoke noundef nonnull align 8 dereferenceable(8) ptr @_ZSt16__ostream_insertIcSt11char_traitsIcEERSt13basic_ostreamIT_T0_ES6_PKS3_l(ptr noundef nonnull align 8 dereferenceable(8) %.pr1863, ptr noundef nonnull @.str.68, i64 noundef 18)
          to label %invoke.cont194 unwind label %lpad189

invoke.cont194:                                   ; preds = %if.then.i1020
  %.pr1865.pr.pr.pr = load ptr, ptr %cond-lvalue132, align 8, !tbaa !27
  %tobool.not.i1024 = icmp eq ptr %.pr1865.pr.pr.pr, null
  br i1 %tobool.not.i1024, label %invoke.cont208, label %if.then.i1026

if.then.i1026:                                    ; preds = %invoke.cont194
  %call.i.i10251027 = invoke noundef nonnull align 8 dereferenceable(8) ptr @_ZNSo9_M_insertIdEERSoT_(ptr noundef nonnull align 8 dereferenceable(8) %.pr1865.pr.pr.pr, double noundef 1.000000e+02)
          to label %invoke.cont198 unwind label %lpad197

invoke.cont198:                                   ; preds = %if.then.i1026
  %.pr1867 = load ptr, ptr %cond-lvalue132, align 8, !tbaa !27
  %tobool.not.i1029 = icmp eq ptr %.pr1867, null
  br i1 %tobool.not.i1029, label %invoke.cont208, label %if.then.i1031

if.then.i1031:                                    ; preds = %invoke.cont198
  %call1.i.i1033 = invoke noundef nonnull align 8 dereferenceable(8) ptr @_ZSt16__ostream_insertIcSt11char_traitsIcEERSt13basic_ostreamIT_T0_ES6_PKS3_l(ptr noundef nonnull align 8 dereferenceable(8) %.pr1867, ptr noundef nonnull @.str.69, i64 noundef 2)
          to label %invoke.cont200 unwind label %lpad197

invoke.cont200:                                   ; preds = %if.then.i1031
  %.pr1869.pr.pr.pr = load ptr, ptr %cond-lvalue132, align 8, !tbaa !27
  %tobool.not.i1035 = icmp eq ptr %.pr1869.pr.pr.pr, null
  br i1 %tobool.not.i1035, label %invoke.cont208, label %if.then.i1037

if.then.i1037:                                    ; preds = %invoke.cont200
  %call.i.i10361038 = invoke noundef nonnull align 8 dereferenceable(8) ptr @_ZNSo9_M_insertIdEERSoT_(ptr noundef nonnull align 8 dereferenceable(8) %.pr1869.pr.pr.pr, double noundef 1.000000e-02)
          to label %invoke.cont204 unwind label %lpad203

invoke.cont204:                                   ; preds = %if.then.i1037
  %.pr1871 = load ptr, ptr %cond-lvalue132, align 8, !tbaa !27
  %tobool.not.i1040 = icmp eq ptr %.pr1871, null
  br i1 %tobool.not.i1040, label %invoke.cont208, label %if.then.i1042

if.then.i1042:                                    ; preds = %invoke.cont204
  %call1.i.i1044 = invoke noundef nonnull align 8 dereferenceable(8) ptr @_ZSt16__ostream_insertIcSt11char_traitsIcEERSt13basic_ostreamIT_T0_ES6_PKS3_l(ptr noundef nonnull align 8 dereferenceable(8) %.pr1871, ptr noundef nonnull @.str.70, i64 noundef 4)
          to label %invoke.cont206 unwind label %lpad203

invoke.cont206:                                   ; preds = %if.then.i1042
  %.pr1873.pr.pr.pr = load ptr, ptr %cond-lvalue132, align 8, !tbaa !27
  %tobool.not.i1046 = icmp eq ptr %.pr1873.pr.pr.pr, null
  br i1 %tobool.not.i1046, label %invoke.cont208, label %if.then.i1048

if.then.i1048:                                    ; preds = %invoke.cont206
  %call1.i.i1050 = invoke noundef nonnull align 8 dereferenceable(8) ptr @_ZSt16__ostream_insertIcSt11char_traitsIcEERSt13basic_ostreamIT_T0_ES6_PKS3_l(ptr noundef nonnull align 8 dereferenceable(8) %.pr1873.pr.pr.pr, ptr noundef nonnull @.str.71, i64 noundef 14)
          to label %invoke.cont208 unwind label %lpad203

invoke.cont208:                                   ; preds = %invoke.cont184, %invoke.cont182, %invoke.cont180, %invoke.cont176, %invoke.cont174, %invoke.cont172, %invoke.cont192, %invoke.cont194, %invoke.cont186, %invoke.cont190, %invoke.cont200, %invoke.cont198, %invoke.cont204, %invoke.cont206, %if.then.i1048
  %call.i10521053 = invoke noundef double @_ZNK7Results5GetAsIdEET_PKc(ptr noundef nonnull align 8 dereferenceable(80) %e, ptr noundef nonnull @.str.2)
          to label %invoke.cont212 unwind label %lpad211

invoke.cont212:                                   ; preds = %invoke.cont208
  %28 = load ptr, ptr %cond-lvalue132, align 8, !tbaa !27
  %tobool.not.i1055 = icmp eq ptr %28, null
  br i1 %tobool.not.i1055, label %invoke.cont217, label %if.then.i1057

if.then.i1057:                                    ; preds = %invoke.cont212
  %sub214 = fadd double %call.i10521053, -1.000000e+06
  %call.i.i10561058 = invoke noundef nonnull align 8 dereferenceable(8) ptr @_ZNSo9_M_insertIdEERSoT_(ptr noundef nonnull align 8 dereferenceable(8) %28, double noundef %sub214)
          to label %invoke.cont215 unwind label %lpad211

invoke.cont215:                                   ; preds = %if.then.i1057
  %.pr1875 = load ptr, ptr %cond-lvalue132, align 8, !tbaa !27
  %tobool.not.i1060 = icmp eq ptr %.pr1875, null
  br i1 %tobool.not.i1060, label %invoke.cont217, label %if.then.i1062

if.then.i1062:                                    ; preds = %invoke.cont215
  %call1.i.i1064 = invoke noundef nonnull align 8 dereferenceable(8) ptr @_ZSt16__ostream_insertIcSt11char_traitsIcEERSt13basic_ostreamIT_T0_ES6_PKS3_l(ptr noundef nonnull align 8 dereferenceable(8) %.pr1875, ptr noundef nonnull @.str.69, i64 noundef 2)
          to label %invoke.cont217 unwind label %lpad211

invoke.cont217:                                   ; preds = %invoke.cont212, %invoke.cont215, %if.then.i1062
  %call.i10661067 = invoke noundef double @_ZNK7Results5GetAsIdEET_PKc(ptr noundef nonnull align 8 dereferenceable(80) %e, ptr noundef nonnull @.str.2)
          to label %invoke.cont221 unwind label %lpad220

invoke.cont221:                                   ; preds = %invoke.cont217
  %29 = load ptr, ptr %cond-lvalue132, align 8, !tbaa !27
  %tobool.not.i1069 = icmp eq ptr %29, null
  br i1 %tobool.not.i1069, label %invoke.cont228, label %if.then.i1071

if.then.i1071:                                    ; preds = %invoke.cont221
  %sub223 = fadd double %call.i10661067, -1.000000e+06
  %div224 = fdiv double %sub223, 1.000000e+06
  %mul225 = fmul double %div224, 1.000000e+02
  %call.i.i10701072 = invoke noundef nonnull align 8 dereferenceable(8) ptr @_ZNSo9_M_insertIdEERSoT_(ptr noundef nonnull align 8 dereferenceable(8) %29, double noundef %mul225)
          to label %invoke.cont226 unwind label %lpad220

invoke.cont226:                                   ; preds = %if.then.i1071
  %.pr1877 = load ptr, ptr %cond-lvalue132, align 8, !tbaa !27
  %tobool.not.i1074 = icmp eq ptr %.pr1877, null
  br i1 %tobool.not.i1074, label %invoke.cont228, label %if.then.i1076

if.then.i1076:                                    ; preds = %invoke.cont226
  %call1.i.i1078 = invoke noundef nonnull align 8 dereferenceable(8) ptr @_ZSt16__ostream_insertIcSt11char_traitsIcEERSt13basic_ostreamIT_T0_ES6_PKS3_l(ptr noundef nonnull align 8 dereferenceable(8) %.pr1877, ptr noundef nonnull @.str.72, i64 noundef 2)
          to label %invoke.cont228 unwind label %lpad220

invoke.cont228:                                   ; preds = %invoke.cont221, %invoke.cont226, %if.then.i1076
  br i1 %cmp121, label %cleanup.action240, label %cleanup.done249

cleanup.action240:                                ; preds = %invoke.cont228
  call void @_ZN9benchmark8internal12CheckHandlerD2Ev(ptr noundef nonnull align 8 dereferenceable(8) %ref.tmp125) #23
  unreachable

ehcleanup107:                                     ; preds = %lpad12, %lpad43, %lpad61, %lpad75, %lpad92, %lpad83, %lpad69, %lpad51, %lpad27, %lpad
  %.pn.pn.pn.pn.pn.pn.pn.pn.pn = phi { ptr, i32 } [ %10, %lpad ], [ %11, %lpad12 ], [ %12, %lpad27 ], [ %13, %lpad43 ], [ %14, %lpad51 ], [ %15, %lpad61 ], [ %16, %lpad69 ], [ %17, %lpad75 ], [ %19, %lpad92 ], [ %18, %lpad83 ]
  br i1 %cmp, label %cleanup.action649.invoke, label %eh.resume

lpad128:                                          ; preds = %if.then.i890, %if.then.i884, %if.then.i878
  %30 = landingpad { ptr, i32 }
          cleanup
  br label %ehcleanup242

lpad140:                                          ; preds = %if.then.i925, %if.then.i919, %if.then.i913, %if.then.i907, %if.then.i901, %if.then.i896
  %31 = landingpad { ptr, i32 }
          cleanup
  br label %ehcleanup242

lpad155:                                          ; preds = %if.then.i966, %if.then.i960, %if.then.i954, %if.then.i948, %if.then.i942, %if.then.i936, %if.then.i931
  %32 = landingpad { ptr, i32 }
          cleanup
  br label %ehcleanup242

lpad171:                                          ; preds = %if.then.i980, %if.then.i975, %invoke.cont168
  %33 = landingpad { ptr, i32 }
          cleanup
  br label %ehcleanup242

lpad179:                                          ; preds = %if.then.i1003, %if.then.i997, %if.then.i991, %if.then.i986
  %34 = landingpad { ptr, i32 }
          cleanup
  br label %ehcleanup242

lpad189:                                          ; preds = %if.then.i1020, %if.then.i1014, %if.then.i1009
  %35 = landingpad { ptr, i32 }
          cleanup
  br label %ehcleanup242

lpad197:                                          ; preds = %if.then.i1031, %if.then.i1026
  %36 = landingpad { ptr, i32 }
          cleanup
  br label %ehcleanup242

lpad203:                                          ; preds = %if.then.i1048, %if.then.i1042, %if.then.i1037
  %37 = landingpad { ptr, i32 }
          cleanup
  br label %ehcleanup242

lpad211:                                          ; preds = %if.then.i1062, %if.then.i1057, %invoke.cont208
  %38 = landingpad { ptr, i32 }
          cleanup
  br label %ehcleanup242

lpad220:                                          ; preds = %if.then.i1076, %if.then.i1071, %invoke.cont217
  %39 = landingpad { ptr, i32 }
          cleanup
  br label %ehcleanup242

cleanup.done249:                                  ; preds = %invoke.cont228
  %call.i1080 = call noundef double @_ZNK7Results5GetAsIdEET_PKc(ptr noundef nonnull align 8 dereferenceable(80) %e, ptr noundef nonnull @.str.3)
  %sub255 = fadd double %call.i1080, -1.000000e+06
  %40 = call double @llvm.fabs.f64(double %sub255)
  %cmp256 = fcmp uge double %40, 1.000000e+02
  br i1 %cmp256, label %cond.false259, label %cond.true257

cond.true257:                                     ; preds = %cleanup.done249
  %41 = load atomic i8, ptr @_ZGVZN9benchmark8internal18GetNullLogInstanceEvE3log acquire, align 8
  %guard.uninitialized.i1081 = icmp eq i8 %41, 0
  br i1 %guard.uninitialized.i1081, label %init.check.i1083, label %cond.end266, !prof !26

init.check.i1083:                                 ; preds = %cond.true257
  %42 = call i32 @__cxa_guard_acquire(ptr nonnull @_ZGVZN9benchmark8internal18GetNullLogInstanceEvE3log) #21
  %tobool.not.i1082 = icmp eq i32 %42, 0
  br i1 %tobool.not.i1082, label %cond.end266, label %init.i1084

init.i1084:                                       ; preds = %init.check.i1083
  store ptr null, ptr @_ZZN9benchmark8internal18GetNullLogInstanceEvE3log, align 8, !tbaa !27
  call void @__cxa_guard_release(ptr nonnull @_ZGVZN9benchmark8internal18GetNullLogInstanceEvE3log) #21
  br label %cond.end266

cond.false259:                                    ; preds = %cleanup.done249
  call void @llvm.lifetime.start.p0(i64 8, ptr nonnull %ref.tmp260) #21
  call void @_ZN9benchmark8internal12CheckHandlerC2EPKcS3_S3_i(ptr noundef nonnull align 8 dereferenceable(8) %ref.tmp260, ptr noundef nonnull @.str.74, ptr noundef nonnull @.str.58, ptr noundef nonnull @__func__._Z14CheckThousandsRK7Results, i32 noundef 176)
  %43 = load ptr, ptr %ref.tmp260, align 8, !tbaa !29
  br label %cond.end266

cond.end266:                                      ; preds = %init.i1084, %init.check.i1083, %cond.true257, %cond.false259
  %cond-lvalue267 = phi ptr [ %43, %cond.false259 ], [ @_ZZN9benchmark8internal18GetNullLogInstanceEvE3log, %cond.true257 ], [ @_ZZN9benchmark8internal18GetNullLogInstanceEvE3log, %init.check.i1083 ], [ @_ZZN9benchmark8internal18GetNullLogInstanceEvE3log, %init.i1084 ]
  %44 = load ptr, ptr %cond-lvalue267, align 8, !tbaa !27
  %tobool.not.i1086 = icmp eq ptr %44, null
  br i1 %tobool.not.i1086, label %invoke.cont303, label %if.then.i1088

if.then.i1088:                                    ; preds = %cond.end266
  %call1.i.i1090 = invoke noundef nonnull align 8 dereferenceable(8) ptr @_ZSt16__ostream_insertIcSt11char_traitsIcEERSt13basic_ostreamIT_T0_ES6_PKS3_l(ptr noundef nonnull align 8 dereferenceable(8) %44, ptr noundef nonnull @.str.59, i64 noundef 1)
          to label %invoke.cont268 unwind label %lpad263

invoke.cont268:                                   ; preds = %if.then.i1088
  %.pr1879 = load ptr, ptr %cond-lvalue267, align 8, !tbaa !27
  %tobool.not.i1092 = icmp eq ptr %.pr1879, null
  br i1 %tobool.not.i1092, label %invoke.cont303, label %if.then.i1094

if.then.i1094:                                    ; preds = %invoke.cont268
  %call1.i.i1096 = invoke noundef nonnull align 8 dereferenceable(8) ptr @_ZSt16__ostream_insertIcSt11char_traitsIcEERSt13basic_ostreamIT_T0_ES6_PKS3_l(ptr noundef nonnull align 8 dereferenceable(8) %.pr1879, ptr noundef nonnull @.str.58, i64 noundef 116)
          to label %invoke.cont270 unwind label %lpad263

invoke.cont270:                                   ; preds = %if.then.i1094
  %.pr1881 = load ptr, ptr %cond-lvalue267, align 8, !tbaa !27
  %tobool.not.i1098 = icmp eq ptr %.pr1881, null
  br i1 %tobool.not.i1098, label %invoke.cont303, label %if.then.i1100

if.then.i1100:                                    ; preds = %invoke.cont270
  %call1.i.i1102 = invoke noundef nonnull align 8 dereferenceable(8) ptr @_ZSt16__ostream_insertIcSt11char_traitsIcEERSt13basic_ostreamIT_T0_ES6_PKS3_l(ptr noundef nonnull align 8 dereferenceable(8) %.pr1881, ptr noundef nonnull @.str.60, i64 noundef 1)
          to label %invoke.cont272 unwind label %lpad263

invoke.cont272:                                   ; preds = %if.then.i1100
  %.pr1883.pr = load ptr, ptr %cond-lvalue267, align 8, !tbaa !27
  %tobool.not.i1104 = icmp eq ptr %.pr1883.pr, null
  br i1 %tobool.not.i1104, label %invoke.cont303, label %if.then.i1106

if.then.i1106:                                    ; preds = %invoke.cont272
  %call.i11051107 = invoke noundef nonnull align 8 dereferenceable(8) ptr @_ZNSolsEi(ptr noundef nonnull align 8 dereferenceable(8) %.pr1883.pr, i32 noundef 176)
          to label %invoke.cont276 unwind label %lpad275

invoke.cont276:                                   ; preds = %if.then.i1106
  %.pr1885 = load ptr, ptr %cond-lvalue267, align 8, !tbaa !27
  %tobool.not.i1109 = icmp eq ptr %.pr1885, null
  br i1 %tobool.not.i1109, label %invoke.cont303, label %if.then.i1111

if.then.i1111:                                    ; preds = %invoke.cont276
  %call1.i.i1113 = invoke noundef nonnull align 8 dereferenceable(8) ptr @_ZSt16__ostream_insertIcSt11char_traitsIcEERSt13basic_ostreamIT_T0_ES6_PKS3_l(ptr noundef nonnull align 8 dereferenceable(8) %.pr1885, ptr noundef nonnull @.str.61, i64 noundef 2)
          to label %invoke.cont278 unwind label %lpad275

invoke.cont278:                                   ; preds = %if.then.i1111
  %.pr1887.pr.pr = load ptr, ptr %cond-lvalue267, align 8, !tbaa !27
  %tobool.not.i1115 = icmp eq ptr %.pr1887.pr.pr, null
  br i1 %tobool.not.i1115, label %invoke.cont303, label %if.then.i1117

if.then.i1117:                                    ; preds = %invoke.cont278
  %45 = load ptr, ptr %e, align 8, !tbaa !12
  %_M_string_length.i.i.i1116 = getelementptr inbounds %"class.std::__cxx11::basic_string", ptr %e, i64 0, i32 1
  %46 = load i64, ptr %_M_string_length.i.i.i1116, align 8, !tbaa !15
  %call2.i.i1119 = invoke noundef nonnull align 8 dereferenceable(8) ptr @_ZSt16__ostream_insertIcSt11char_traitsIcEERSt13basic_ostreamIT_T0_ES6_PKS3_l(ptr noundef nonnull align 8 dereferenceable(8) %.pr1887.pr.pr, ptr noundef %45, i64 noundef %46)
          to label %invoke.cont281 unwind label %lpad275

invoke.cont281:                                   ; preds = %if.then.i1117
  %.pr1889 = load ptr, ptr %cond-lvalue267, align 8, !tbaa !27
  %tobool.not.i1121 = icmp eq ptr %.pr1889, null
  br i1 %tobool.not.i1121, label %invoke.cont303, label %if.then.i1123

if.then.i1123:                                    ; preds = %invoke.cont281
  %call1.i.i1125 = invoke noundef nonnull align 8 dereferenceable(8) ptr @_ZSt16__ostream_insertIcSt11char_traitsIcEERSt13basic_ostreamIT_T0_ES6_PKS3_l(ptr noundef nonnull align 8 dereferenceable(8) %.pr1889, ptr noundef nonnull @.str.62, i64 noundef 2)
          to label %invoke.cont283 unwind label %lpad275

invoke.cont283:                                   ; preds = %if.then.i1123
  %.pr1891.pr.pr = load ptr, ptr %cond-lvalue267, align 8, !tbaa !27
  %tobool.not.i1127 = icmp eq ptr %.pr1891.pr.pr, null
  br i1 %tobool.not.i1127, label %invoke.cont303, label %if.then.i1129

if.then.i1129:                                    ; preds = %invoke.cont283
  %call1.i.i1131 = invoke noundef nonnull align 8 dereferenceable(8) ptr @_ZSt16__ostream_insertIcSt11char_traitsIcEERSt13basic_ostreamIT_T0_ES6_PKS3_l(ptr noundef nonnull align 8 dereferenceable(8) %.pr1891.pr.pr, ptr noundef nonnull @.str.58, i64 noundef 116)
          to label %invoke.cont285 unwind label %lpad275

invoke.cont285:                                   ; preds = %if.then.i1129
  %.pr1893 = load ptr, ptr %cond-lvalue267, align 8, !tbaa !27
  %tobool.not.i1133 = icmp eq ptr %.pr1893, null
  br i1 %tobool.not.i1133, label %invoke.cont303, label %if.then.i1135

if.then.i1135:                                    ; preds = %invoke.cont285
  %call1.i.i1137 = invoke noundef nonnull align 8 dereferenceable(8) ptr @_ZSt16__ostream_insertIcSt11char_traitsIcEERSt13basic_ostreamIT_T0_ES6_PKS3_l(ptr noundef nonnull align 8 dereferenceable(8) %.pr1893, ptr noundef nonnull @.str.60, i64 noundef 1)
          to label %invoke.cont287 unwind label %lpad275

invoke.cont287:                                   ; preds = %if.then.i1135
  %.pr1895.pr.pr.pr = load ptr, ptr %cond-lvalue267, align 8, !tbaa !27
  %tobool.not.i1139 = icmp eq ptr %.pr1895.pr.pr.pr, null
  br i1 %tobool.not.i1139, label %invoke.cont303, label %if.then.i1141

if.then.i1141:                                    ; preds = %invoke.cont287
  %call.i11401142 = invoke noundef nonnull align 8 dereferenceable(8) ptr @_ZNSolsEi(ptr noundef nonnull align 8 dereferenceable(8) %.pr1895.pr.pr.pr, i32 noundef 176)
          to label %invoke.cont291 unwind label %lpad290

invoke.cont291:                                   ; preds = %if.then.i1141
  %.pr1897 = load ptr, ptr %cond-lvalue267, align 8, !tbaa !27
  %tobool.not.i1144 = icmp eq ptr %.pr1897, null
  br i1 %tobool.not.i1144, label %invoke.cont303, label %if.then.i1146

if.then.i1146:                                    ; preds = %invoke.cont291
  %call1.i.i1148 = invoke noundef nonnull align 8 dereferenceable(8) ptr @_ZSt16__ostream_insertIcSt11char_traitsIcEERSt13basic_ostreamIT_T0_ES6_PKS3_l(ptr noundef nonnull align 8 dereferenceable(8) %.pr1897, ptr noundef nonnull @.str.61, i64 noundef 2)
          to label %invoke.cont293 unwind label %lpad290

invoke.cont293:                                   ; preds = %if.then.i1146
  %.pr1899.pr.pr.pr = load ptr, ptr %cond-lvalue267, align 8, !tbaa !27
  %tobool.not.i1150 = icmp eq ptr %.pr1899.pr.pr.pr, null
  br i1 %tobool.not.i1150, label %invoke.cont303, label %if.then.i1152

if.then.i1152:                                    ; preds = %invoke.cont293
  %call1.i.i1154 = invoke noundef nonnull align 8 dereferenceable(8) ptr @_ZSt16__ostream_insertIcSt11char_traitsIcEERSt13basic_ostreamIT_T0_ES6_PKS3_l(ptr noundef nonnull align 8 dereferenceable(8) %.pr1899.pr.pr.pr, ptr noundef nonnull @.str.63, i64 noundef 10)
          to label %invoke.cont295 unwind label %lpad290

invoke.cont295:                                   ; preds = %if.then.i1152
  %.pr1901 = load ptr, ptr %cond-lvalue267, align 8, !tbaa !27
  %tobool.not.i1156 = icmp eq ptr %.pr1901, null
  br i1 %tobool.not.i1156, label %invoke.cont303, label %if.then.i1158

if.then.i1158:                                    ; preds = %invoke.cont295
  %call1.i.i1160 = invoke noundef nonnull align 8 dereferenceable(8) ptr @_ZSt16__ostream_insertIcSt11char_traitsIcEERSt13basic_ostreamIT_T0_ES6_PKS3_l(ptr noundef nonnull align 8 dereferenceable(8) %.pr1901, ptr noundef nonnull @.str.64, i64 noundef 6)
          to label %invoke.cont297 unwind label %lpad290

invoke.cont297:                                   ; preds = %if.then.i1158
  %.pr1903.pr.pr.pr = load ptr, ptr %cond-lvalue267, align 8, !tbaa !27
  %tobool.not.i1162 = icmp eq ptr %.pr1903.pr.pr.pr, null
  br i1 %tobool.not.i1162, label %invoke.cont303, label %if.then.i1164

if.then.i1164:                                    ; preds = %invoke.cont297
  %call1.i.i1166 = invoke noundef nonnull align 8 dereferenceable(8) ptr @_ZSt16__ostream_insertIcSt11char_traitsIcEERSt13basic_ostreamIT_T0_ES6_PKS3_l(ptr noundef nonnull align 8 dereferenceable(8) %.pr1903.pr.pr.pr, ptr noundef nonnull @.str.65, i64 noundef 1)
          to label %invoke.cont299 unwind label %lpad290

invoke.cont299:                                   ; preds = %if.then.i1164
  %.pr1905 = load ptr, ptr %cond-lvalue267, align 8, !tbaa !27
  %tobool.not.i1168 = icmp eq ptr %.pr1905, null
  br i1 %tobool.not.i1168, label %invoke.cont303, label %if.then.i1170

if.then.i1170:                                    ; preds = %invoke.cont299
  %call1.i.i1172 = invoke noundef nonnull align 8 dereferenceable(8) ptr @_ZSt16__ostream_insertIcSt11char_traitsIcEERSt13basic_ostreamIT_T0_ES6_PKS3_l(ptr noundef nonnull align 8 dereferenceable(8) %.pr1905, ptr noundef nonnull @.str.3, i64 noundef 18)
          to label %invoke.cont301 unwind label %lpad290

invoke.cont301:                                   ; preds = %if.then.i1170
  %.pr1907.pr.pr.pr = load ptr, ptr %cond-lvalue267, align 8, !tbaa !27
  %tobool.not.i1174 = icmp eq ptr %.pr1907.pr.pr.pr, null
  br i1 %tobool.not.i1174, label %invoke.cont303, label %if.then.i1176

if.then.i1176:                                    ; preds = %invoke.cont301
  %call1.i.i1178 = invoke noundef nonnull align 8 dereferenceable(8) ptr @_ZSt16__ostream_insertIcSt11char_traitsIcEERSt13basic_ostreamIT_T0_ES6_PKS3_l(ptr noundef nonnull align 8 dereferenceable(8) %.pr1907.pr.pr.pr, ptr noundef nonnull @.str.66, i64 noundef 1)
          to label %invoke.cont303 unwind label %lpad290

invoke.cont303:                                   ; preds = %invoke.cont283, %invoke.cont281, %invoke.cont278, %invoke.cont276, %invoke.cont272, %invoke.cont270, %invoke.cont268, %cond.end266, %invoke.cont291, %invoke.cont293, %invoke.cont285, %invoke.cont287, %invoke.cont297, %invoke.cont295, %invoke.cont299, %invoke.cont301, %if.then.i1176
  %call.i11801181 = invoke noundef double @_ZNK7Results5GetAsIdEET_PKc(ptr noundef nonnull align 8 dereferenceable(80) %e, ptr noundef nonnull @.str.3)
          to label %invoke.cont307 unwind label %lpad306

invoke.cont307:                                   ; preds = %invoke.cont303
  %47 = load ptr, ptr %cond-lvalue267, align 8, !tbaa !27
  %tobool.not.i1183 = icmp eq ptr %47, null
  br i1 %tobool.not.i1183, label %invoke.cont343, label %if.then.i1185

if.then.i1185:                                    ; preds = %invoke.cont307
  %call.i.i11841186 = invoke noundef nonnull align 8 dereferenceable(8) ptr @_ZNSo9_M_insertIdEERSoT_(ptr noundef nonnull align 8 dereferenceable(8) %47, double noundef %call.i11801181)
          to label %invoke.cont309 unwind label %lpad306

invoke.cont309:                                   ; preds = %if.then.i1185
  %.pr1909 = load ptr, ptr %cond-lvalue267, align 8, !tbaa !27
  %tobool.not.i1188 = icmp eq ptr %.pr1909, null
  br i1 %tobool.not.i1188, label %invoke.cont343, label %if.then.i1190

if.then.i1190:                                    ; preds = %invoke.cont309
  %call1.i.i1192 = invoke noundef nonnull align 8 dereferenceable(8) ptr @_ZSt16__ostream_insertIcSt11char_traitsIcEERSt13basic_ostreamIT_T0_ES6_PKS3_l(ptr noundef nonnull align 8 dereferenceable(8) %.pr1909, ptr noundef nonnull @.str.67, i64 noundef 13)
          to label %invoke.cont311 unwind label %lpad306

invoke.cont311:                                   ; preds = %if.then.i1190
  %.pr1911 = load ptr, ptr %cond-lvalue267, align 8, !tbaa !27
  %tobool.not.i1194 = icmp eq ptr %.pr1911, null
  br i1 %tobool.not.i1194, label %invoke.cont343, label %if.then.i1196

if.then.i1196:                                    ; preds = %invoke.cont311
  %call.i11951197 = invoke noundef nonnull align 8 dereferenceable(8) ptr @_ZNSolsEi(ptr noundef nonnull align 8 dereferenceable(8) %.pr1911, i32 noundef 1000000)
          to label %invoke.cont315 unwind label %lpad314

invoke.cont315:                                   ; preds = %if.then.i1196
  %.pr1913.pr = load ptr, ptr %cond-lvalue267, align 8, !tbaa !27
  %tobool.not.i1199 = icmp eq ptr %.pr1913.pr, null
  br i1 %tobool.not.i1199, label %invoke.cont343, label %if.then.i1201

if.then.i1201:                                    ; preds = %invoke.cont315
  %call1.i.i1203 = invoke noundef nonnull align 8 dereferenceable(8) ptr @_ZSt16__ostream_insertIcSt11char_traitsIcEERSt13basic_ostreamIT_T0_ES6_PKS3_l(ptr noundef nonnull align 8 dereferenceable(8) %.pr1913.pr, ptr noundef nonnull @.str.59, i64 noundef 1)
          to label %invoke.cont317 unwind label %lpad314

invoke.cont317:                                   ; preds = %if.then.i1201
  %.pr1915 = load ptr, ptr %cond-lvalue267, align 8, !tbaa !27
  %tobool.not.i1205 = icmp eq ptr %.pr1915, null
  br i1 %tobool.not.i1205, label %invoke.cont343, label %if.then.i1207

if.then.i1207:                                    ; preds = %invoke.cont317
  %call1.i.i1209 = invoke noundef nonnull align 8 dereferenceable(8) ptr @_ZSt16__ostream_insertIcSt11char_traitsIcEERSt13basic_ostreamIT_T0_ES6_PKS3_l(ptr noundef nonnull align 8 dereferenceable(8) %.pr1915, ptr noundef nonnull @.str.58, i64 noundef 116)
          to label %invoke.cont319 unwind label %lpad314

invoke.cont319:                                   ; preds = %if.then.i1207
  %.pr1917.pr.pr = load ptr, ptr %cond-lvalue267, align 8, !tbaa !27
  %tobool.not.i1211 = icmp eq ptr %.pr1917.pr.pr, null
  br i1 %tobool.not.i1211, label %invoke.cont343, label %if.then.i1213

if.then.i1213:                                    ; preds = %invoke.cont319
  %call1.i.i1215 = invoke noundef nonnull align 8 dereferenceable(8) ptr @_ZSt16__ostream_insertIcSt11char_traitsIcEERSt13basic_ostreamIT_T0_ES6_PKS3_l(ptr noundef nonnull align 8 dereferenceable(8) %.pr1917.pr.pr, ptr noundef nonnull @.str.60, i64 noundef 1)
          to label %invoke.cont321 unwind label %lpad314

invoke.cont321:                                   ; preds = %if.then.i1213
  %.pr1919 = load ptr, ptr %cond-lvalue267, align 8, !tbaa !27
  %tobool.not.i1217 = icmp eq ptr %.pr1919, null
  br i1 %tobool.not.i1217, label %invoke.cont343, label %if.then.i1219

if.then.i1219:                                    ; preds = %invoke.cont321
  %call.i12181220 = invoke noundef nonnull align 8 dereferenceable(8) ptr @_ZNSolsEi(ptr noundef nonnull align 8 dereferenceable(8) %.pr1919, i32 noundef 176)
          to label %invoke.cont325 unwind label %lpad324

invoke.cont325:                                   ; preds = %if.then.i1219
  %.pr1921.pr.pr = load ptr, ptr %cond-lvalue267, align 8, !tbaa !27
  %tobool.not.i1222 = icmp eq ptr %.pr1921.pr.pr, null
  br i1 %tobool.not.i1222, label %invoke.cont343, label %if.then.i1224

if.then.i1224:                                    ; preds = %invoke.cont325
  %call1.i.i1226 = invoke noundef nonnull align 8 dereferenceable(8) ptr @_ZSt16__ostream_insertIcSt11char_traitsIcEERSt13basic_ostreamIT_T0_ES6_PKS3_l(ptr noundef nonnull align 8 dereferenceable(8) %.pr1921.pr.pr, ptr noundef nonnull @.str.61, i64 noundef 2)
          to label %invoke.cont327 unwind label %lpad324

invoke.cont327:                                   ; preds = %if.then.i1224
  %.pr1923 = load ptr, ptr %cond-lvalue267, align 8, !tbaa !27
  %tobool.not.i1228 = icmp eq ptr %.pr1923, null
  br i1 %tobool.not.i1228, label %invoke.cont343, label %if.then.i1230

if.then.i1230:                                    ; preds = %invoke.cont327
  %call1.i.i1232 = invoke noundef nonnull align 8 dereferenceable(8) ptr @_ZSt16__ostream_insertIcSt11char_traitsIcEERSt13basic_ostreamIT_T0_ES6_PKS3_l(ptr noundef nonnull align 8 dereferenceable(8) %.pr1923, ptr noundef nonnull @.str.68, i64 noundef 18)
          to label %invoke.cont329 unwind label %lpad324

invoke.cont329:                                   ; preds = %if.then.i1230
  %.pr1925.pr.pr.pr = load ptr, ptr %cond-lvalue267, align 8, !tbaa !27
  %tobool.not.i1234 = icmp eq ptr %.pr1925.pr.pr.pr, null
  br i1 %tobool.not.i1234, label %invoke.cont343, label %if.then.i1236

if.then.i1236:                                    ; preds = %invoke.cont329
  %call.i.i12351237 = invoke noundef nonnull align 8 dereferenceable(8) ptr @_ZNSo9_M_insertIdEERSoT_(ptr noundef nonnull align 8 dereferenceable(8) %.pr1925.pr.pr.pr, double noundef 1.000000e+02)
          to label %invoke.cont333 unwind label %lpad332

invoke.cont333:                                   ; preds = %if.then.i1236
  %.pr1927 = load ptr, ptr %cond-lvalue267, align 8, !tbaa !27
  %tobool.not.i1239 = icmp eq ptr %.pr1927, null
  br i1 %tobool.not.i1239, label %invoke.cont343, label %if.then.i1241

if.then.i1241:                                    ; preds = %invoke.cont333
  %call1.i.i1243 = invoke noundef nonnull align 8 dereferenceable(8) ptr @_ZSt16__ostream_insertIcSt11char_traitsIcEERSt13basic_ostreamIT_T0_ES6_PKS3_l(ptr noundef nonnull align 8 dereferenceable(8) %.pr1927, ptr noundef nonnull @.str.69, i64 noundef 2)
          to label %invoke.cont335 unwind label %lpad332

invoke.cont335:                                   ; preds = %if.then.i1241
  %.pr1929.pr.pr.pr = load ptr, ptr %cond-lvalue267, align 8, !tbaa !27
  %tobool.not.i1245 = icmp eq ptr %.pr1929.pr.pr.pr, null
  br i1 %tobool.not.i1245, label %invoke.cont343, label %if.then.i1247

if.then.i1247:                                    ; preds = %invoke.cont335
  %call.i.i12461248 = invoke noundef nonnull align 8 dereferenceable(8) ptr @_ZNSo9_M_insertIdEERSoT_(ptr noundef nonnull align 8 dereferenceable(8) %.pr1929.pr.pr.pr, double noundef 1.000000e-02)
          to label %invoke.cont339 unwind label %lpad338

invoke.cont339:                                   ; preds = %if.then.i1247
  %.pr1931 = load ptr, ptr %cond-lvalue267, align 8, !tbaa !27
  %tobool.not.i1250 = icmp eq ptr %.pr1931, null
  br i1 %tobool.not.i1250, label %invoke.cont343, label %if.then.i1252

if.then.i1252:                                    ; preds = %invoke.cont339
  %call1.i.i1254 = invoke noundef nonnull align 8 dereferenceable(8) ptr @_ZSt16__ostream_insertIcSt11char_traitsIcEERSt13basic_ostreamIT_T0_ES6_PKS3_l(ptr noundef nonnull align 8 dereferenceable(8) %.pr1931, ptr noundef nonnull @.str.70, i64 noundef 4)
          to label %invoke.cont341 unwind label %lpad338

invoke.cont341:                                   ; preds = %if.then.i1252
  %.pr1933.pr.pr.pr = load ptr, ptr %cond-lvalue267, align 8, !tbaa !27
  %tobool.not.i1256 = icmp eq ptr %.pr1933.pr.pr.pr, null
  br i1 %tobool.not.i1256, label %invoke.cont343, label %if.then.i1258

if.then.i1258:                                    ; preds = %invoke.cont341
  %call1.i.i1260 = invoke noundef nonnull align 8 dereferenceable(8) ptr @_ZSt16__ostream_insertIcSt11char_traitsIcEERSt13basic_ostreamIT_T0_ES6_PKS3_l(ptr noundef nonnull align 8 dereferenceable(8) %.pr1933.pr.pr.pr, ptr noundef nonnull @.str.71, i64 noundef 14)
          to label %invoke.cont343 unwind label %lpad338

invoke.cont343:                                   ; preds = %invoke.cont319, %invoke.cont317, %invoke.cont315, %invoke.cont311, %invoke.cont309, %invoke.cont307, %invoke.cont327, %invoke.cont329, %invoke.cont321, %invoke.cont325, %invoke.cont335, %invoke.cont333, %invoke.cont339, %invoke.cont341, %if.then.i1258
  %call.i12621263 = invoke noundef double @_ZNK7Results5GetAsIdEET_PKc(ptr noundef nonnull align 8 dereferenceable(80) %e, ptr noundef nonnull @.str.3)
          to label %invoke.cont347 unwind label %lpad346

invoke.cont347:                                   ; preds = %invoke.cont343
  %48 = load ptr, ptr %cond-lvalue267, align 8, !tbaa !27
  %tobool.not.i1265 = icmp eq ptr %48, null
  br i1 %tobool.not.i1265, label %invoke.cont352, label %if.then.i1267

if.then.i1267:                                    ; preds = %invoke.cont347
  %sub349 = fadd double %call.i12621263, -1.000000e+06
  %call.i.i12661268 = invoke noundef nonnull align 8 dereferenceable(8) ptr @_ZNSo9_M_insertIdEERSoT_(ptr noundef nonnull align 8 dereferenceable(8) %48, double noundef %sub349)
          to label %invoke.cont350 unwind label %lpad346

invoke.cont350:                                   ; preds = %if.then.i1267
  %.pr1935 = load ptr, ptr %cond-lvalue267, align 8, !tbaa !27
  %tobool.not.i1270 = icmp eq ptr %.pr1935, null
  br i1 %tobool.not.i1270, label %invoke.cont352, label %if.then.i1272

if.then.i1272:                                    ; preds = %invoke.cont350
  %call1.i.i1274 = invoke noundef nonnull align 8 dereferenceable(8) ptr @_ZSt16__ostream_insertIcSt11char_traitsIcEERSt13basic_ostreamIT_T0_ES6_PKS3_l(ptr noundef nonnull align 8 dereferenceable(8) %.pr1935, ptr noundef nonnull @.str.69, i64 noundef 2)
          to label %invoke.cont352 unwind label %lpad346

invoke.cont352:                                   ; preds = %invoke.cont347, %invoke.cont350, %if.then.i1272
  %call.i12761277 = invoke noundef double @_ZNK7Results5GetAsIdEET_PKc(ptr noundef nonnull align 8 dereferenceable(80) %e, ptr noundef nonnull @.str.3)
          to label %invoke.cont356 unwind label %lpad355

invoke.cont356:                                   ; preds = %invoke.cont352
  %49 = load ptr, ptr %cond-lvalue267, align 8, !tbaa !27
  %tobool.not.i1279 = icmp eq ptr %49, null
  br i1 %tobool.not.i1279, label %invoke.cont363, label %if.then.i1281

if.then.i1281:                                    ; preds = %invoke.cont356
  %sub358 = fadd double %call.i12761277, -1.000000e+06
  %div359 = fdiv double %sub358, 1.000000e+06
  %mul360 = fmul double %div359, 1.000000e+02
  %call.i.i12801282 = invoke noundef nonnull align 8 dereferenceable(8) ptr @_ZNSo9_M_insertIdEERSoT_(ptr noundef nonnull align 8 dereferenceable(8) %49, double noundef %mul360)
          to label %invoke.cont361 unwind label %lpad355

invoke.cont361:                                   ; preds = %if.then.i1281
  %.pr1937 = load ptr, ptr %cond-lvalue267, align 8, !tbaa !27
  %tobool.not.i1284 = icmp eq ptr %.pr1937, null
  br i1 %tobool.not.i1284, label %invoke.cont363, label %if.then.i1286

if.then.i1286:                                    ; preds = %invoke.cont361
  %call1.i.i1288 = invoke noundef nonnull align 8 dereferenceable(8) ptr @_ZSt16__ostream_insertIcSt11char_traitsIcEERSt13basic_ostreamIT_T0_ES6_PKS3_l(ptr noundef nonnull align 8 dereferenceable(8) %.pr1937, ptr noundef nonnull @.str.72, i64 noundef 2)
          to label %invoke.cont363 unwind label %lpad355

invoke.cont363:                                   ; preds = %invoke.cont356, %invoke.cont361, %if.then.i1286
  br i1 %cmp256, label %cleanup.action375, label %cleanup.done384

cleanup.action375:                                ; preds = %invoke.cont363
  call void @_ZN9benchmark8internal12CheckHandlerD2Ev(ptr noundef nonnull align 8 dereferenceable(8) %ref.tmp260) #23
  unreachable

ehcleanup242:                                     ; preds = %lpad140, %lpad171, %lpad189, %lpad203, %lpad220, %lpad211, %lpad197, %lpad179, %lpad155, %lpad128
  %.pn1719.pn.pn.pn.pn.pn.pn.pn.pn = phi { ptr, i32 } [ %30, %lpad128 ], [ %31, %lpad140 ], [ %32, %lpad155 ], [ %33, %lpad171 ], [ %34, %lpad179 ], [ %35, %lpad189 ], [ %36, %lpad197 ], [ %37, %lpad203 ], [ %39, %lpad220 ], [ %38, %lpad211 ]
  br i1 %cmp121, label %cleanup.action649.invoke, label %eh.resume

lpad263:                                          ; preds = %if.then.i1100, %if.then.i1094, %if.then.i1088
  %50 = landingpad { ptr, i32 }
          cleanup
  br label %ehcleanup377

lpad275:                                          ; preds = %if.then.i1135, %if.then.i1129, %if.then.i1123, %if.then.i1117, %if.then.i1111, %if.then.i1106
  %51 = landingpad { ptr, i32 }
          cleanup
  br label %ehcleanup377

lpad290:                                          ; preds = %if.then.i1176, %if.then.i1170, %if.then.i1164, %if.then.i1158, %if.then.i1152, %if.then.i1146, %if.then.i1141
  %52 = landingpad { ptr, i32 }
          cleanup
  br label %ehcleanup377

lpad306:                                          ; preds = %if.then.i1190, %if.then.i1185, %invoke.cont303
  %53 = landingpad { ptr, i32 }
          cleanup
  br label %ehcleanup377

lpad314:                                          ; preds = %if.then.i1213, %if.then.i1207, %if.then.i1201, %if.then.i1196
  %54 = landingpad { ptr, i32 }
          cleanup
  br label %ehcleanup377

lpad324:                                          ; preds = %if.then.i1230, %if.then.i1224, %if.then.i1219
  %55 = landingpad { ptr, i32 }
          cleanup
  br label %ehcleanup377

lpad332:                                          ; preds = %if.then.i1241, %if.then.i1236
  %56 = landingpad { ptr, i32 }
          cleanup
  br label %ehcleanup377

lpad338:                                          ; preds = %if.then.i1258, %if.then.i1252, %if.then.i1247
  %57 = landingpad { ptr, i32 }
          cleanup
  br label %ehcleanup377

lpad346:                                          ; preds = %if.then.i1272, %if.then.i1267, %invoke.cont343
  %58 = landingpad { ptr, i32 }
          cleanup
  br label %ehcleanup377

lpad355:                                          ; preds = %if.then.i1286, %if.then.i1281, %invoke.cont352
  %59 = landingpad { ptr, i32 }
          cleanup
  br label %ehcleanup377

cleanup.done384:                                  ; preds = %invoke.cont363
  %call.i1290 = call noundef double @_ZNK7Results5GetAsIdEET_PKc(ptr noundef nonnull align 8 dereferenceable(80) %e, ptr noundef nonnull @.str.4)
  %sub390 = fadd double %call.i1290, 0xC130000000000000
  %60 = call double @llvm.fabs.f64(double %sub390)
  %cmp391 = fcmp uge double %60, 0x405A36E2EB1C432D
  br i1 %cmp391, label %cond.false394, label %cond.true392

cond.true392:                                     ; preds = %cleanup.done384
  %61 = load atomic i8, ptr @_ZGVZN9benchmark8internal18GetNullLogInstanceEvE3log acquire, align 8
  %guard.uninitialized.i1291 = icmp eq i8 %61, 0
  br i1 %guard.uninitialized.i1291, label %init.check.i1293, label %cond.end401, !prof !26

init.check.i1293:                                 ; preds = %cond.true392
  %62 = call i32 @__cxa_guard_acquire(ptr nonnull @_ZGVZN9benchmark8internal18GetNullLogInstanceEvE3log) #21
  %tobool.not.i1292 = icmp eq i32 %62, 0
  br i1 %tobool.not.i1292, label %cond.end401, label %init.i1294

init.i1294:                                       ; preds = %init.check.i1293
  store ptr null, ptr @_ZZN9benchmark8internal18GetNullLogInstanceEvE3log, align 8, !tbaa !27
  call void @__cxa_guard_release(ptr nonnull @_ZGVZN9benchmark8internal18GetNullLogInstanceEvE3log) #21
  br label %cond.end401

cond.false394:                                    ; preds = %cleanup.done384
  call void @llvm.lifetime.start.p0(i64 8, ptr nonnull %ref.tmp395) #21
  call void @_ZN9benchmark8internal12CheckHandlerC2EPKcS3_S3_i(ptr noundef nonnull align 8 dereferenceable(8) %ref.tmp395, ptr noundef nonnull @.str.75, ptr noundef nonnull @.str.58, ptr noundef nonnull @__func__._Z14CheckThousandsRK7Results, i32 noundef 177)
  %63 = load ptr, ptr %ref.tmp395, align 8, !tbaa !29
  br label %cond.end401

cond.end401:                                      ; preds = %init.i1294, %init.check.i1293, %cond.true392, %cond.false394
  %cond-lvalue402 = phi ptr [ %63, %cond.false394 ], [ @_ZZN9benchmark8internal18GetNullLogInstanceEvE3log, %cond.true392 ], [ @_ZZN9benchmark8internal18GetNullLogInstanceEvE3log, %init.check.i1293 ], [ @_ZZN9benchmark8internal18GetNullLogInstanceEvE3log, %init.i1294 ]
  %64 = load ptr, ptr %cond-lvalue402, align 8, !tbaa !27
  %tobool.not.i1296 = icmp eq ptr %64, null
  br i1 %tobool.not.i1296, label %invoke.cont438, label %if.then.i1298

if.then.i1298:                                    ; preds = %cond.end401
  %call1.i.i1300 = invoke noundef nonnull align 8 dereferenceable(8) ptr @_ZSt16__ostream_insertIcSt11char_traitsIcEERSt13basic_ostreamIT_T0_ES6_PKS3_l(ptr noundef nonnull align 8 dereferenceable(8) %64, ptr noundef nonnull @.str.59, i64 noundef 1)
          to label %invoke.cont403 unwind label %lpad398

invoke.cont403:                                   ; preds = %if.then.i1298
  %.pr1939 = load ptr, ptr %cond-lvalue402, align 8, !tbaa !27
  %tobool.not.i1302 = icmp eq ptr %.pr1939, null
  br i1 %tobool.not.i1302, label %invoke.cont438, label %if.then.i1304

if.then.i1304:                                    ; preds = %invoke.cont403
  %call1.i.i1306 = invoke noundef nonnull align 8 dereferenceable(8) ptr @_ZSt16__ostream_insertIcSt11char_traitsIcEERSt13basic_ostreamIT_T0_ES6_PKS3_l(ptr noundef nonnull align 8 dereferenceable(8) %.pr1939, ptr noundef nonnull @.str.58, i64 noundef 116)
          to label %invoke.cont405 unwind label %lpad398

invoke.cont405:                                   ; preds = %if.then.i1304
  %.pr1941 = load ptr, ptr %cond-lvalue402, align 8, !tbaa !27
  %tobool.not.i1308 = icmp eq ptr %.pr1941, null
  br i1 %tobool.not.i1308, label %invoke.cont438, label %if.then.i1310

if.then.i1310:                                    ; preds = %invoke.cont405
  %call1.i.i1312 = invoke noundef nonnull align 8 dereferenceable(8) ptr @_ZSt16__ostream_insertIcSt11char_traitsIcEERSt13basic_ostreamIT_T0_ES6_PKS3_l(ptr noundef nonnull align 8 dereferenceable(8) %.pr1941, ptr noundef nonnull @.str.60, i64 noundef 1)
          to label %invoke.cont407 unwind label %lpad398

invoke.cont407:                                   ; preds = %if.then.i1310
  %.pr1943.pr = load ptr, ptr %cond-lvalue402, align 8, !tbaa !27
  %tobool.not.i1314 = icmp eq ptr %.pr1943.pr, null
  br i1 %tobool.not.i1314, label %invoke.cont438, label %if.then.i1316

if.then.i1316:                                    ; preds = %invoke.cont407
  %call.i13151317 = invoke noundef nonnull align 8 dereferenceable(8) ptr @_ZNSolsEi(ptr noundef nonnull align 8 dereferenceable(8) %.pr1943.pr, i32 noundef 177)
          to label %invoke.cont411 unwind label %lpad410

invoke.cont411:                                   ; preds = %if.then.i1316
  %.pr1945 = load ptr, ptr %cond-lvalue402, align 8, !tbaa !27
  %tobool.not.i1319 = icmp eq ptr %.pr1945, null
  br i1 %tobool.not.i1319, label %invoke.cont438, label %if.then.i1321

if.then.i1321:                                    ; preds = %invoke.cont411
  %call1.i.i1323 = invoke noundef nonnull align 8 dereferenceable(8) ptr @_ZSt16__ostream_insertIcSt11char_traitsIcEERSt13basic_ostreamIT_T0_ES6_PKS3_l(ptr noundef nonnull align 8 dereferenceable(8) %.pr1945, ptr noundef nonnull @.str.61, i64 noundef 2)
          to label %invoke.cont413 unwind label %lpad410

invoke.cont413:                                   ; preds = %if.then.i1321
  %.pr1947.pr.pr = load ptr, ptr %cond-lvalue402, align 8, !tbaa !27
  %tobool.not.i1325 = icmp eq ptr %.pr1947.pr.pr, null
  br i1 %tobool.not.i1325, label %invoke.cont438, label %if.then.i1327

if.then.i1327:                                    ; preds = %invoke.cont413
  %65 = load ptr, ptr %e, align 8, !tbaa !12
  %_M_string_length.i.i.i1326 = getelementptr inbounds %"class.std::__cxx11::basic_string", ptr %e, i64 0, i32 1
  %66 = load i64, ptr %_M_string_length.i.i.i1326, align 8, !tbaa !15
  %call2.i.i1329 = invoke noundef nonnull align 8 dereferenceable(8) ptr @_ZSt16__ostream_insertIcSt11char_traitsIcEERSt13basic_ostreamIT_T0_ES6_PKS3_l(ptr noundef nonnull align 8 dereferenceable(8) %.pr1947.pr.pr, ptr noundef %65, i64 noundef %66)
          to label %invoke.cont416 unwind label %lpad410

invoke.cont416:                                   ; preds = %if.then.i1327
  %.pr1949 = load ptr, ptr %cond-lvalue402, align 8, !tbaa !27
  %tobool.not.i1331 = icmp eq ptr %.pr1949, null
  br i1 %tobool.not.i1331, label %invoke.cont438, label %if.then.i1333

if.then.i1333:                                    ; preds = %invoke.cont416
  %call1.i.i1335 = invoke noundef nonnull align 8 dereferenceable(8) ptr @_ZSt16__ostream_insertIcSt11char_traitsIcEERSt13basic_ostreamIT_T0_ES6_PKS3_l(ptr noundef nonnull align 8 dereferenceable(8) %.pr1949, ptr noundef nonnull @.str.62, i64 noundef 2)
          to label %invoke.cont418 unwind label %lpad410

invoke.cont418:                                   ; preds = %if.then.i1333
  %.pr1951.pr.pr = load ptr, ptr %cond-lvalue402, align 8, !tbaa !27
  %tobool.not.i1337 = icmp eq ptr %.pr1951.pr.pr, null
  br i1 %tobool.not.i1337, label %invoke.cont438, label %if.then.i1339

if.then.i1339:                                    ; preds = %invoke.cont418
  %call1.i.i1341 = invoke noundef nonnull align 8 dereferenceable(8) ptr @_ZSt16__ostream_insertIcSt11char_traitsIcEERSt13basic_ostreamIT_T0_ES6_PKS3_l(ptr noundef nonnull align 8 dereferenceable(8) %.pr1951.pr.pr, ptr noundef nonnull @.str.58, i64 noundef 116)
          to label %invoke.cont420 unwind label %lpad410

invoke.cont420:                                   ; preds = %if.then.i1339
  %.pr1953 = load ptr, ptr %cond-lvalue402, align 8, !tbaa !27
  %tobool.not.i1343 = icmp eq ptr %.pr1953, null
  br i1 %tobool.not.i1343, label %invoke.cont438, label %if.then.i1345

if.then.i1345:                                    ; preds = %invoke.cont420
  %call1.i.i1347 = invoke noundef nonnull align 8 dereferenceable(8) ptr @_ZSt16__ostream_insertIcSt11char_traitsIcEERSt13basic_ostreamIT_T0_ES6_PKS3_l(ptr noundef nonnull align 8 dereferenceable(8) %.pr1953, ptr noundef nonnull @.str.60, i64 noundef 1)
          to label %invoke.cont422 unwind label %lpad410

invoke.cont422:                                   ; preds = %if.then.i1345
  %.pr1955.pr.pr.pr = load ptr, ptr %cond-lvalue402, align 8, !tbaa !27
  %tobool.not.i1349 = icmp eq ptr %.pr1955.pr.pr.pr, null
  br i1 %tobool.not.i1349, label %invoke.cont438, label %if.then.i1351

if.then.i1351:                                    ; preds = %invoke.cont422
  %call.i13501352 = invoke noundef nonnull align 8 dereferenceable(8) ptr @_ZNSolsEi(ptr noundef nonnull align 8 dereferenceable(8) %.pr1955.pr.pr.pr, i32 noundef 177)
          to label %invoke.cont426 unwind label %lpad425

invoke.cont426:                                   ; preds = %if.then.i1351
  %.pr1957 = load ptr, ptr %cond-lvalue402, align 8, !tbaa !27
  %tobool.not.i1354 = icmp eq ptr %.pr1957, null
  br i1 %tobool.not.i1354, label %invoke.cont438, label %if.then.i1356

if.then.i1356:                                    ; preds = %invoke.cont426
  %call1.i.i1358 = invoke noundef nonnull align 8 dereferenceable(8) ptr @_ZSt16__ostream_insertIcSt11char_traitsIcEERSt13basic_ostreamIT_T0_ES6_PKS3_l(ptr noundef nonnull align 8 dereferenceable(8) %.pr1957, ptr noundef nonnull @.str.61, i64 noundef 2)
          to label %invoke.cont428 unwind label %lpad425

invoke.cont428:                                   ; preds = %if.then.i1356
  %.pr1959.pr.pr.pr = load ptr, ptr %cond-lvalue402, align 8, !tbaa !27
  %tobool.not.i1360 = icmp eq ptr %.pr1959.pr.pr.pr, null
  br i1 %tobool.not.i1360, label %invoke.cont438, label %if.then.i1362

if.then.i1362:                                    ; preds = %invoke.cont428
  %call1.i.i1364 = invoke noundef nonnull align 8 dereferenceable(8) ptr @_ZSt16__ostream_insertIcSt11char_traitsIcEERSt13basic_ostreamIT_T0_ES6_PKS3_l(ptr noundef nonnull align 8 dereferenceable(8) %.pr1959.pr.pr.pr, ptr noundef nonnull @.str.63, i64 noundef 10)
          to label %invoke.cont430 unwind label %lpad425

invoke.cont430:                                   ; preds = %if.then.i1362
  %.pr1961 = load ptr, ptr %cond-lvalue402, align 8, !tbaa !27
  %tobool.not.i1366 = icmp eq ptr %.pr1961, null
  br i1 %tobool.not.i1366, label %invoke.cont438, label %if.then.i1368

if.then.i1368:                                    ; preds = %invoke.cont430
  %call1.i.i1370 = invoke noundef nonnull align 8 dereferenceable(8) ptr @_ZSt16__ostream_insertIcSt11char_traitsIcEERSt13basic_ostreamIT_T0_ES6_PKS3_l(ptr noundef nonnull align 8 dereferenceable(8) %.pr1961, ptr noundef nonnull @.str.64, i64 noundef 6)
          to label %invoke.cont432 unwind label %lpad425

invoke.cont432:                                   ; preds = %if.then.i1368
  %.pr1963.pr.pr.pr = load ptr, ptr %cond-lvalue402, align 8, !tbaa !27
  %tobool.not.i1372 = icmp eq ptr %.pr1963.pr.pr.pr, null
  br i1 %tobool.not.i1372, label %invoke.cont438, label %if.then.i1374

if.then.i1374:                                    ; preds = %invoke.cont432
  %call1.i.i1376 = invoke noundef nonnull align 8 dereferenceable(8) ptr @_ZSt16__ostream_insertIcSt11char_traitsIcEERSt13basic_ostreamIT_T0_ES6_PKS3_l(ptr noundef nonnull align 8 dereferenceable(8) %.pr1963.pr.pr.pr, ptr noundef nonnull @.str.65, i64 noundef 1)
          to label %invoke.cont434 unwind label %lpad425

invoke.cont434:                                   ; preds = %if.then.i1374
  %.pr1965 = load ptr, ptr %cond-lvalue402, align 8, !tbaa !27
  %tobool.not.i1378 = icmp eq ptr %.pr1965, null
  br i1 %tobool.not.i1378, label %invoke.cont438, label %if.then.i1380

if.then.i1380:                                    ; preds = %invoke.cont434
  %call1.i.i1382 = invoke noundef nonnull align 8 dereferenceable(8) ptr @_ZSt16__ostream_insertIcSt11char_traitsIcEERSt13basic_ostreamIT_T0_ES6_PKS3_l(ptr noundef nonnull align 8 dereferenceable(8) %.pr1965, ptr noundef nonnull @.str.4, i64 noundef 18)
          to label %invoke.cont436 unwind label %lpad425

invoke.cont436:                                   ; preds = %if.then.i1380
  %.pr1967.pr.pr.pr = load ptr, ptr %cond-lvalue402, align 8, !tbaa !27
  %tobool.not.i1384 = icmp eq ptr %.pr1967.pr.pr.pr, null
  br i1 %tobool.not.i1384, label %invoke.cont438, label %if.then.i1386

if.then.i1386:                                    ; preds = %invoke.cont436
  %call1.i.i1388 = invoke noundef nonnull align 8 dereferenceable(8) ptr @_ZSt16__ostream_insertIcSt11char_traitsIcEERSt13basic_ostreamIT_T0_ES6_PKS3_l(ptr noundef nonnull align 8 dereferenceable(8) %.pr1967.pr.pr.pr, ptr noundef nonnull @.str.66, i64 noundef 1)
          to label %invoke.cont438 unwind label %lpad425

invoke.cont438:                                   ; preds = %invoke.cont418, %invoke.cont416, %invoke.cont413, %invoke.cont411, %invoke.cont407, %invoke.cont405, %invoke.cont403, %cond.end401, %invoke.cont426, %invoke.cont428, %invoke.cont420, %invoke.cont422, %invoke.cont432, %invoke.cont430, %invoke.cont434, %invoke.cont436, %if.then.i1386
  %call.i13901391 = invoke noundef double @_ZNK7Results5GetAsIdEET_PKc(ptr noundef nonnull align 8 dereferenceable(80) %e, ptr noundef nonnull @.str.4)
          to label %invoke.cont442 unwind label %lpad441

invoke.cont442:                                   ; preds = %invoke.cont438
  %67 = load ptr, ptr %cond-lvalue402, align 8, !tbaa !27
  %tobool.not.i1393 = icmp eq ptr %67, null
  br i1 %tobool.not.i1393, label %invoke.cont478, label %if.then.i1395

if.then.i1395:                                    ; preds = %invoke.cont442
  %call.i.i13941396 = invoke noundef nonnull align 8 dereferenceable(8) ptr @_ZNSo9_M_insertIdEERSoT_(ptr noundef nonnull align 8 dereferenceable(8) %67, double noundef %call.i13901391)
          to label %invoke.cont444 unwind label %lpad441

invoke.cont444:                                   ; preds = %if.then.i1395
  %.pr1969 = load ptr, ptr %cond-lvalue402, align 8, !tbaa !27
  %tobool.not.i1398 = icmp eq ptr %.pr1969, null
  br i1 %tobool.not.i1398, label %invoke.cont478, label %if.then.i1400

if.then.i1400:                                    ; preds = %invoke.cont444
  %call1.i.i1402 = invoke noundef nonnull align 8 dereferenceable(8) ptr @_ZSt16__ostream_insertIcSt11char_traitsIcEERSt13basic_ostreamIT_T0_ES6_PKS3_l(ptr noundef nonnull align 8 dereferenceable(8) %.pr1969, ptr noundef nonnull @.str.67, i64 noundef 13)
          to label %invoke.cont446 unwind label %lpad441

invoke.cont446:                                   ; preds = %if.then.i1400
  %.pr1971 = load ptr, ptr %cond-lvalue402, align 8, !tbaa !27
  %tobool.not.i1404 = icmp eq ptr %.pr1971, null
  br i1 %tobool.not.i1404, label %invoke.cont478, label %if.then.i1406

if.then.i1406:                                    ; preds = %invoke.cont446
  %call.i14051407 = invoke noundef nonnull align 8 dereferenceable(8) ptr @_ZNSolsEi(ptr noundef nonnull align 8 dereferenceable(8) %.pr1971, i32 noundef 1048576)
          to label %invoke.cont450 unwind label %lpad449

invoke.cont450:                                   ; preds = %if.then.i1406
  %.pr1973.pr = load ptr, ptr %cond-lvalue402, align 8, !tbaa !27
  %tobool.not.i1409 = icmp eq ptr %.pr1973.pr, null
  br i1 %tobool.not.i1409, label %invoke.cont478, label %if.then.i1411

if.then.i1411:                                    ; preds = %invoke.cont450
  %call1.i.i1413 = invoke noundef nonnull align 8 dereferenceable(8) ptr @_ZSt16__ostream_insertIcSt11char_traitsIcEERSt13basic_ostreamIT_T0_ES6_PKS3_l(ptr noundef nonnull align 8 dereferenceable(8) %.pr1973.pr, ptr noundef nonnull @.str.59, i64 noundef 1)
          to label %invoke.cont452 unwind label %lpad449

invoke.cont452:                                   ; preds = %if.then.i1411
  %.pr1975 = load ptr, ptr %cond-lvalue402, align 8, !tbaa !27
  %tobool.not.i1415 = icmp eq ptr %.pr1975, null
  br i1 %tobool.not.i1415, label %invoke.cont478, label %if.then.i1417

if.then.i1417:                                    ; preds = %invoke.cont452
  %call1.i.i1419 = invoke noundef nonnull align 8 dereferenceable(8) ptr @_ZSt16__ostream_insertIcSt11char_traitsIcEERSt13basic_ostreamIT_T0_ES6_PKS3_l(ptr noundef nonnull align 8 dereferenceable(8) %.pr1975, ptr noundef nonnull @.str.58, i64 noundef 116)
          to label %invoke.cont454 unwind label %lpad449

invoke.cont454:                                   ; preds = %if.then.i1417
  %.pr1977.pr.pr = load ptr, ptr %cond-lvalue402, align 8, !tbaa !27
  %tobool.not.i1421 = icmp eq ptr %.pr1977.pr.pr, null
  br i1 %tobool.not.i1421, label %invoke.cont478, label %if.then.i1423

if.then.i1423:                                    ; preds = %invoke.cont454
  %call1.i.i1425 = invoke noundef nonnull align 8 dereferenceable(8) ptr @_ZSt16__ostream_insertIcSt11char_traitsIcEERSt13basic_ostreamIT_T0_ES6_PKS3_l(ptr noundef nonnull align 8 dereferenceable(8) %.pr1977.pr.pr, ptr noundef nonnull @.str.60, i64 noundef 1)
          to label %invoke.cont456 unwind label %lpad449

invoke.cont456:                                   ; preds = %if.then.i1423
  %.pr1979 = load ptr, ptr %cond-lvalue402, align 8, !tbaa !27
  %tobool.not.i1427 = icmp eq ptr %.pr1979, null
  br i1 %tobool.not.i1427, label %invoke.cont478, label %if.then.i1429

if.then.i1429:                                    ; preds = %invoke.cont456
  %call.i14281430 = invoke noundef nonnull align 8 dereferenceable(8) ptr @_ZNSolsEi(ptr noundef nonnull align 8 dereferenceable(8) %.pr1979, i32 noundef 177)
          to label %invoke.cont460 unwind label %lpad459

invoke.cont460:                                   ; preds = %if.then.i1429
  %.pr1981.pr.pr = load ptr, ptr %cond-lvalue402, align 8, !tbaa !27
  %tobool.not.i1432 = icmp eq ptr %.pr1981.pr.pr, null
  br i1 %tobool.not.i1432, label %invoke.cont478, label %if.then.i1434

if.then.i1434:                                    ; preds = %invoke.cont460
  %call1.i.i1436 = invoke noundef nonnull align 8 dereferenceable(8) ptr @_ZSt16__ostream_insertIcSt11char_traitsIcEERSt13basic_ostreamIT_T0_ES6_PKS3_l(ptr noundef nonnull align 8 dereferenceable(8) %.pr1981.pr.pr, ptr noundef nonnull @.str.61, i64 noundef 2)
          to label %invoke.cont462 unwind label %lpad459

invoke.cont462:                                   ; preds = %if.then.i1434
  %.pr1983 = load ptr, ptr %cond-lvalue402, align 8, !tbaa !27
  %tobool.not.i1438 = icmp eq ptr %.pr1983, null
  br i1 %tobool.not.i1438, label %invoke.cont478, label %if.then.i1440

if.then.i1440:                                    ; preds = %invoke.cont462
  %call1.i.i1442 = invoke noundef nonnull align 8 dereferenceable(8) ptr @_ZSt16__ostream_insertIcSt11char_traitsIcEERSt13basic_ostreamIT_T0_ES6_PKS3_l(ptr noundef nonnull align 8 dereferenceable(8) %.pr1983, ptr noundef nonnull @.str.68, i64 noundef 18)
          to label %invoke.cont464 unwind label %lpad459

invoke.cont464:                                   ; preds = %if.then.i1440
  %.pr1985.pr.pr.pr = load ptr, ptr %cond-lvalue402, align 8, !tbaa !27
  %tobool.not.i1444 = icmp eq ptr %.pr1985.pr.pr.pr, null
  br i1 %tobool.not.i1444, label %invoke.cont478, label %if.then.i1446

if.then.i1446:                                    ; preds = %invoke.cont464
  %call.i.i14451447 = invoke noundef nonnull align 8 dereferenceable(8) ptr @_ZNSo9_M_insertIdEERSoT_(ptr noundef nonnull align 8 dereferenceable(8) %.pr1985.pr.pr.pr, double noundef 0x405A36E2EB1C432D)
          to label %invoke.cont468 unwind label %lpad467

invoke.cont468:                                   ; preds = %if.then.i1446
  %.pr1987 = load ptr, ptr %cond-lvalue402, align 8, !tbaa !27
  %tobool.not.i1449 = icmp eq ptr %.pr1987, null
  br i1 %tobool.not.i1449, label %invoke.cont478, label %if.then.i1451

if.then.i1451:                                    ; preds = %invoke.cont468
  %call1.i.i1453 = invoke noundef nonnull align 8 dereferenceable(8) ptr @_ZSt16__ostream_insertIcSt11char_traitsIcEERSt13basic_ostreamIT_T0_ES6_PKS3_l(ptr noundef nonnull align 8 dereferenceable(8) %.pr1987, ptr noundef nonnull @.str.69, i64 noundef 2)
          to label %invoke.cont470 unwind label %lpad467

invoke.cont470:                                   ; preds = %if.then.i1451
  %.pr1989.pr.pr.pr = load ptr, ptr %cond-lvalue402, align 8, !tbaa !27
  %tobool.not.i1455 = icmp eq ptr %.pr1989.pr.pr.pr, null
  br i1 %tobool.not.i1455, label %invoke.cont478, label %if.then.i1457

if.then.i1457:                                    ; preds = %invoke.cont470
  %call.i.i14561458 = invoke noundef nonnull align 8 dereferenceable(8) ptr @_ZNSo9_M_insertIdEERSoT_(ptr noundef nonnull align 8 dereferenceable(8) %.pr1989.pr.pr.pr, double noundef 1.000000e-02)
          to label %invoke.cont474 unwind label %lpad473

invoke.cont474:                                   ; preds = %if.then.i1457
  %.pr1991 = load ptr, ptr %cond-lvalue402, align 8, !tbaa !27
  %tobool.not.i1460 = icmp eq ptr %.pr1991, null
  br i1 %tobool.not.i1460, label %invoke.cont478, label %if.then.i1462

if.then.i1462:                                    ; preds = %invoke.cont474
  %call1.i.i1464 = invoke noundef nonnull align 8 dereferenceable(8) ptr @_ZSt16__ostream_insertIcSt11char_traitsIcEERSt13basic_ostreamIT_T0_ES6_PKS3_l(ptr noundef nonnull align 8 dereferenceable(8) %.pr1991, ptr noundef nonnull @.str.70, i64 noundef 4)
          to label %invoke.cont476 unwind label %lpad473

invoke.cont476:                                   ; preds = %if.then.i1462
  %.pr1993.pr.pr.pr = load ptr, ptr %cond-lvalue402, align 8, !tbaa !27
  %tobool.not.i1466 = icmp eq ptr %.pr1993.pr.pr.pr, null
  br i1 %tobool.not.i1466, label %invoke.cont478, label %if.then.i1468

if.then.i1468:                                    ; preds = %invoke.cont476
  %call1.i.i1470 = invoke noundef nonnull align 8 dereferenceable(8) ptr @_ZSt16__ostream_insertIcSt11char_traitsIcEERSt13basic_ostreamIT_T0_ES6_PKS3_l(ptr noundef nonnull align 8 dereferenceable(8) %.pr1993.pr.pr.pr, ptr noundef nonnull @.str.71, i64 noundef 14)
          to label %invoke.cont478 unwind label %lpad473

invoke.cont478:                                   ; preds = %invoke.cont454, %invoke.cont452, %invoke.cont450, %invoke.cont446, %invoke.cont444, %invoke.cont442, %invoke.cont462, %invoke.cont464, %invoke.cont456, %invoke.cont460, %invoke.cont470, %invoke.cont468, %invoke.cont474, %invoke.cont476, %if.then.i1468
  %call.i14721473 = invoke noundef double @_ZNK7Results5GetAsIdEET_PKc(ptr noundef nonnull align 8 dereferenceable(80) %e, ptr noundef nonnull @.str.4)
          to label %invoke.cont482 unwind label %lpad481

invoke.cont482:                                   ; preds = %invoke.cont478
  %68 = load ptr, ptr %cond-lvalue402, align 8, !tbaa !27
  %tobool.not.i1475 = icmp eq ptr %68, null
  br i1 %tobool.not.i1475, label %invoke.cont487, label %if.then.i1477

if.then.i1477:                                    ; preds = %invoke.cont482
  %sub484 = fadd double %call.i14721473, 0xC130000000000000
  %call.i.i14761478 = invoke noundef nonnull align 8 dereferenceable(8) ptr @_ZNSo9_M_insertIdEERSoT_(ptr noundef nonnull align 8 dereferenceable(8) %68, double noundef %sub484)
          to label %invoke.cont485 unwind label %lpad481

invoke.cont485:                                   ; preds = %if.then.i1477
  %.pr1995 = load ptr, ptr %cond-lvalue402, align 8, !tbaa !27
  %tobool.not.i1480 = icmp eq ptr %.pr1995, null
  br i1 %tobool.not.i1480, label %invoke.cont487, label %if.then.i1482

if.then.i1482:                                    ; preds = %invoke.cont485
  %call1.i.i1484 = invoke noundef nonnull align 8 dereferenceable(8) ptr @_ZSt16__ostream_insertIcSt11char_traitsIcEERSt13basic_ostreamIT_T0_ES6_PKS3_l(ptr noundef nonnull align 8 dereferenceable(8) %.pr1995, ptr noundef nonnull @.str.69, i64 noundef 2)
          to label %invoke.cont487 unwind label %lpad481

invoke.cont487:                                   ; preds = %invoke.cont482, %invoke.cont485, %if.then.i1482
  %call.i14861487 = invoke noundef double @_ZNK7Results5GetAsIdEET_PKc(ptr noundef nonnull align 8 dereferenceable(80) %e, ptr noundef nonnull @.str.4)
          to label %invoke.cont491 unwind label %lpad490

invoke.cont491:                                   ; preds = %invoke.cont487
  %69 = load ptr, ptr %cond-lvalue402, align 8, !tbaa !27
  %tobool.not.i1489 = icmp eq ptr %69, null
  br i1 %tobool.not.i1489, label %invoke.cont498, label %if.then.i1491

if.then.i1491:                                    ; preds = %invoke.cont491
  %sub493 = fadd double %call.i14861487, 0xC130000000000000
  %div494 = fmul double %sub493, 0x3EB0000000000000
  %mul495 = fmul double %div494, 1.000000e+02
  %call.i.i14901492 = invoke noundef nonnull align 8 dereferenceable(8) ptr @_ZNSo9_M_insertIdEERSoT_(ptr noundef nonnull align 8 dereferenceable(8) %69, double noundef %mul495)
          to label %invoke.cont496 unwind label %lpad490

invoke.cont496:                                   ; preds = %if.then.i1491
  %.pr1997 = load ptr, ptr %cond-lvalue402, align 8, !tbaa !27
  %tobool.not.i1494 = icmp eq ptr %.pr1997, null
  br i1 %tobool.not.i1494, label %invoke.cont498, label %if.then.i1496

if.then.i1496:                                    ; preds = %invoke.cont496
  %call1.i.i1498 = invoke noundef nonnull align 8 dereferenceable(8) ptr @_ZSt16__ostream_insertIcSt11char_traitsIcEERSt13basic_ostreamIT_T0_ES6_PKS3_l(ptr noundef nonnull align 8 dereferenceable(8) %.pr1997, ptr noundef nonnull @.str.72, i64 noundef 2)
          to label %invoke.cont498 unwind label %lpad490

invoke.cont498:                                   ; preds = %invoke.cont491, %invoke.cont496, %if.then.i1496
  br i1 %cmp391, label %cleanup.action510, label %cleanup.done519

cleanup.action510:                                ; preds = %invoke.cont498
  call void @_ZN9benchmark8internal12CheckHandlerD2Ev(ptr noundef nonnull align 8 dereferenceable(8) %ref.tmp395) #23
  unreachable

ehcleanup377:                                     ; preds = %lpad275, %lpad306, %lpad324, %lpad338, %lpad355, %lpad346, %lpad332, %lpad314, %lpad290, %lpad263
  %.pn1729.pn.pn.pn.pn.pn.pn.pn.pn = phi { ptr, i32 } [ %50, %lpad263 ], [ %51, %lpad275 ], [ %52, %lpad290 ], [ %53, %lpad306 ], [ %54, %lpad314 ], [ %55, %lpad324 ], [ %56, %lpad332 ], [ %57, %lpad338 ], [ %59, %lpad355 ], [ %58, %lpad346 ]
  br i1 %cmp256, label %cleanup.action649.invoke, label %eh.resume

lpad398:                                          ; preds = %if.then.i1310, %if.then.i1304, %if.then.i1298
  %70 = landingpad { ptr, i32 }
          cleanup
  br label %ehcleanup512

lpad410:                                          ; preds = %if.then.i1345, %if.then.i1339, %if.then.i1333, %if.then.i1327, %if.then.i1321, %if.then.i1316
  %71 = landingpad { ptr, i32 }
          cleanup
  br label %ehcleanup512

lpad425:                                          ; preds = %if.then.i1386, %if.then.i1380, %if.then.i1374, %if.then.i1368, %if.then.i1362, %if.then.i1356, %if.then.i1351
  %72 = landingpad { ptr, i32 }
          cleanup
  br label %ehcleanup512

lpad441:                                          ; preds = %if.then.i1400, %if.then.i1395, %invoke.cont438
  %73 = landingpad { ptr, i32 }
          cleanup
  br label %ehcleanup512

lpad449:                                          ; preds = %if.then.i1423, %if.then.i1417, %if.then.i1411, %if.then.i1406
  %74 = landingpad { ptr, i32 }
          cleanup
  br label %ehcleanup512

lpad459:                                          ; preds = %if.then.i1440, %if.then.i1434, %if.then.i1429
  %75 = landingpad { ptr, i32 }
          cleanup
  br label %ehcleanup512

lpad467:                                          ; preds = %if.then.i1451, %if.then.i1446
  %76 = landingpad { ptr, i32 }
          cleanup
  br label %ehcleanup512

lpad473:                                          ; preds = %if.then.i1468, %if.then.i1462, %if.then.i1457
  %77 = landingpad { ptr, i32 }
          cleanup
  br label %ehcleanup512

lpad481:                                          ; preds = %if.then.i1482, %if.then.i1477, %invoke.cont478
  %78 = landingpad { ptr, i32 }
          cleanup
  br label %ehcleanup512

lpad490:                                          ; preds = %if.then.i1496, %if.then.i1491, %invoke.cont487
  %79 = landingpad { ptr, i32 }
          cleanup
  br label %ehcleanup512

cleanup.done519:                                  ; preds = %invoke.cont498
  %call.i1500 = call noundef double @_ZNK7Results5GetAsIdEET_PKc(ptr noundef nonnull align 8 dereferenceable(80) %e, ptr noundef nonnull @.str.5)
  %sub525 = fadd double %call.i1500, 0xC130000000000000
  %80 = call double @llvm.fabs.f64(double %sub525)
  %cmp526 = fcmp uge double %80, 0x405A36E2EB1C432D
  br i1 %cmp526, label %cond.false529, label %cond.true527

cond.true527:                                     ; preds = %cleanup.done519
  %81 = load atomic i8, ptr @_ZGVZN9benchmark8internal18GetNullLogInstanceEvE3log acquire, align 8
  %guard.uninitialized.i1501 = icmp eq i8 %81, 0
  br i1 %guard.uninitialized.i1501, label %init.check.i1503, label %cond.end536, !prof !26

init.check.i1503:                                 ; preds = %cond.true527
  %82 = call i32 @__cxa_guard_acquire(ptr nonnull @_ZGVZN9benchmark8internal18GetNullLogInstanceEvE3log) #21
  %tobool.not.i1502 = icmp eq i32 %82, 0
  br i1 %tobool.not.i1502, label %cond.end536, label %init.i1504

init.i1504:                                       ; preds = %init.check.i1503
  store ptr null, ptr @_ZZN9benchmark8internal18GetNullLogInstanceEvE3log, align 8, !tbaa !27
  call void @__cxa_guard_release(ptr nonnull @_ZGVZN9benchmark8internal18GetNullLogInstanceEvE3log) #21
  br label %cond.end536

cond.false529:                                    ; preds = %cleanup.done519
  call void @llvm.lifetime.start.p0(i64 8, ptr nonnull %ref.tmp530) #21
  call void @_ZN9benchmark8internal12CheckHandlerC2EPKcS3_S3_i(ptr noundef nonnull align 8 dereferenceable(8) %ref.tmp530, ptr noundef nonnull @.str.76, ptr noundef nonnull @.str.58, ptr noundef nonnull @__func__._Z14CheckThousandsRK7Results, i32 noundef 178)
  %83 = load ptr, ptr %ref.tmp530, align 8, !tbaa !29
  br label %cond.end536

cond.end536:                                      ; preds = %init.i1504, %init.check.i1503, %cond.true527, %cond.false529
  %cond-lvalue537 = phi ptr [ %83, %cond.false529 ], [ @_ZZN9benchmark8internal18GetNullLogInstanceEvE3log, %cond.true527 ], [ @_ZZN9benchmark8internal18GetNullLogInstanceEvE3log, %init.check.i1503 ], [ @_ZZN9benchmark8internal18GetNullLogInstanceEvE3log, %init.i1504 ]
  %84 = load ptr, ptr %cond-lvalue537, align 8, !tbaa !27
  %tobool.not.i1506 = icmp eq ptr %84, null
  br i1 %tobool.not.i1506, label %invoke.cont573, label %if.then.i1508

if.then.i1508:                                    ; preds = %cond.end536
  %call1.i.i1510 = invoke noundef nonnull align 8 dereferenceable(8) ptr @_ZSt16__ostream_insertIcSt11char_traitsIcEERSt13basic_ostreamIT_T0_ES6_PKS3_l(ptr noundef nonnull align 8 dereferenceable(8) %84, ptr noundef nonnull @.str.59, i64 noundef 1)
          to label %invoke.cont538 unwind label %lpad533

invoke.cont538:                                   ; preds = %if.then.i1508
  %.pr1999 = load ptr, ptr %cond-lvalue537, align 8, !tbaa !27
  %tobool.not.i1512 = icmp eq ptr %.pr1999, null
  br i1 %tobool.not.i1512, label %invoke.cont573, label %if.then.i1514

if.then.i1514:                                    ; preds = %invoke.cont538
  %call1.i.i1516 = invoke noundef nonnull align 8 dereferenceable(8) ptr @_ZSt16__ostream_insertIcSt11char_traitsIcEERSt13basic_ostreamIT_T0_ES6_PKS3_l(ptr noundef nonnull align 8 dereferenceable(8) %.pr1999, ptr noundef nonnull @.str.58, i64 noundef 116)
          to label %invoke.cont540 unwind label %lpad533

invoke.cont540:                                   ; preds = %if.then.i1514
  %.pr2001 = load ptr, ptr %cond-lvalue537, align 8, !tbaa !27
  %tobool.not.i1518 = icmp eq ptr %.pr2001, null
  br i1 %tobool.not.i1518, label %invoke.cont573, label %if.then.i1520

if.then.i1520:                                    ; preds = %invoke.cont540
  %call1.i.i1522 = invoke noundef nonnull align 8 dereferenceable(8) ptr @_ZSt16__ostream_insertIcSt11char_traitsIcEERSt13basic_ostreamIT_T0_ES6_PKS3_l(ptr noundef nonnull align 8 dereferenceable(8) %.pr2001, ptr noundef nonnull @.str.60, i64 noundef 1)
          to label %invoke.cont542 unwind label %lpad533

invoke.cont542:                                   ; preds = %if.then.i1520
  %.pr2003.pr = load ptr, ptr %cond-lvalue537, align 8, !tbaa !27
  %tobool.not.i1524 = icmp eq ptr %.pr2003.pr, null
  br i1 %tobool.not.i1524, label %invoke.cont573, label %if.then.i1526

if.then.i1526:                                    ; preds = %invoke.cont542
  %call.i15251527 = invoke noundef nonnull align 8 dereferenceable(8) ptr @_ZNSolsEi(ptr noundef nonnull align 8 dereferenceable(8) %.pr2003.pr, i32 noundef 178)
          to label %invoke.cont546 unwind label %lpad545

invoke.cont546:                                   ; preds = %if.then.i1526
  %.pr2005 = load ptr, ptr %cond-lvalue537, align 8, !tbaa !27
  %tobool.not.i1529 = icmp eq ptr %.pr2005, null
  br i1 %tobool.not.i1529, label %invoke.cont573, label %if.then.i1531

if.then.i1531:                                    ; preds = %invoke.cont546
  %call1.i.i1533 = invoke noundef nonnull align 8 dereferenceable(8) ptr @_ZSt16__ostream_insertIcSt11char_traitsIcEERSt13basic_ostreamIT_T0_ES6_PKS3_l(ptr noundef nonnull align 8 dereferenceable(8) %.pr2005, ptr noundef nonnull @.str.61, i64 noundef 2)
          to label %invoke.cont548 unwind label %lpad545

invoke.cont548:                                   ; preds = %if.then.i1531
  %.pr2007.pr.pr = load ptr, ptr %cond-lvalue537, align 8, !tbaa !27
  %tobool.not.i1535 = icmp eq ptr %.pr2007.pr.pr, null
  br i1 %tobool.not.i1535, label %invoke.cont573, label %if.then.i1537

if.then.i1537:                                    ; preds = %invoke.cont548
  %85 = load ptr, ptr %e, align 8, !tbaa !12
  %_M_string_length.i.i.i1536 = getelementptr inbounds %"class.std::__cxx11::basic_string", ptr %e, i64 0, i32 1
  %86 = load i64, ptr %_M_string_length.i.i.i1536, align 8, !tbaa !15
  %call2.i.i1539 = invoke noundef nonnull align 8 dereferenceable(8) ptr @_ZSt16__ostream_insertIcSt11char_traitsIcEERSt13basic_ostreamIT_T0_ES6_PKS3_l(ptr noundef nonnull align 8 dereferenceable(8) %.pr2007.pr.pr, ptr noundef %85, i64 noundef %86)
          to label %invoke.cont551 unwind label %lpad545

invoke.cont551:                                   ; preds = %if.then.i1537
  %.pr2009 = load ptr, ptr %cond-lvalue537, align 8, !tbaa !27
  %tobool.not.i1541 = icmp eq ptr %.pr2009, null
  br i1 %tobool.not.i1541, label %invoke.cont573, label %if.then.i1543

if.then.i1543:                                    ; preds = %invoke.cont551
  %call1.i.i1545 = invoke noundef nonnull align 8 dereferenceable(8) ptr @_ZSt16__ostream_insertIcSt11char_traitsIcEERSt13basic_ostreamIT_T0_ES6_PKS3_l(ptr noundef nonnull align 8 dereferenceable(8) %.pr2009, ptr noundef nonnull @.str.62, i64 noundef 2)
          to label %invoke.cont553 unwind label %lpad545

invoke.cont553:                                   ; preds = %if.then.i1543
  %.pr2011.pr.pr = load ptr, ptr %cond-lvalue537, align 8, !tbaa !27
  %tobool.not.i1547 = icmp eq ptr %.pr2011.pr.pr, null
  br i1 %tobool.not.i1547, label %invoke.cont573, label %if.then.i1549

if.then.i1549:                                    ; preds = %invoke.cont553
  %call1.i.i1551 = invoke noundef nonnull align 8 dereferenceable(8) ptr @_ZSt16__ostream_insertIcSt11char_traitsIcEERSt13basic_ostreamIT_T0_ES6_PKS3_l(ptr noundef nonnull align 8 dereferenceable(8) %.pr2011.pr.pr, ptr noundef nonnull @.str.58, i64 noundef 116)
          to label %invoke.cont555 unwind label %lpad545

invoke.cont555:                                   ; preds = %if.then.i1549
  %.pr2013 = load ptr, ptr %cond-lvalue537, align 8, !tbaa !27
  %tobool.not.i1553 = icmp eq ptr %.pr2013, null
  br i1 %tobool.not.i1553, label %invoke.cont573, label %if.then.i1555

if.then.i1555:                                    ; preds = %invoke.cont555
  %call1.i.i1557 = invoke noundef nonnull align 8 dereferenceable(8) ptr @_ZSt16__ostream_insertIcSt11char_traitsIcEERSt13basic_ostreamIT_T0_ES6_PKS3_l(ptr noundef nonnull align 8 dereferenceable(8) %.pr2013, ptr noundef nonnull @.str.60, i64 noundef 1)
          to label %invoke.cont557 unwind label %lpad545

invoke.cont557:                                   ; preds = %if.then.i1555
  %.pr2015.pr.pr.pr = load ptr, ptr %cond-lvalue537, align 8, !tbaa !27
  %tobool.not.i1559 = icmp eq ptr %.pr2015.pr.pr.pr, null
  br i1 %tobool.not.i1559, label %invoke.cont573, label %if.then.i1561

if.then.i1561:                                    ; preds = %invoke.cont557
  %call.i15601562 = invoke noundef nonnull align 8 dereferenceable(8) ptr @_ZNSolsEi(ptr noundef nonnull align 8 dereferenceable(8) %.pr2015.pr.pr.pr, i32 noundef 178)
          to label %invoke.cont561 unwind label %lpad560

invoke.cont561:                                   ; preds = %if.then.i1561
  %.pr2017 = load ptr, ptr %cond-lvalue537, align 8, !tbaa !27
  %tobool.not.i1564 = icmp eq ptr %.pr2017, null
  br i1 %tobool.not.i1564, label %invoke.cont573, label %if.then.i1566

if.then.i1566:                                    ; preds = %invoke.cont561
  %call1.i.i1568 = invoke noundef nonnull align 8 dereferenceable(8) ptr @_ZSt16__ostream_insertIcSt11char_traitsIcEERSt13basic_ostreamIT_T0_ES6_PKS3_l(ptr noundef nonnull align 8 dereferenceable(8) %.pr2017, ptr noundef nonnull @.str.61, i64 noundef 2)
          to label %invoke.cont563 unwind label %lpad560

invoke.cont563:                                   ; preds = %if.then.i1566
  %.pr2019.pr.pr.pr = load ptr, ptr %cond-lvalue537, align 8, !tbaa !27
  %tobool.not.i1570 = icmp eq ptr %.pr2019.pr.pr.pr, null
  br i1 %tobool.not.i1570, label %invoke.cont573, label %if.then.i1572

if.then.i1572:                                    ; preds = %invoke.cont563
  %call1.i.i1574 = invoke noundef nonnull align 8 dereferenceable(8) ptr @_ZSt16__ostream_insertIcSt11char_traitsIcEERSt13basic_ostreamIT_T0_ES6_PKS3_l(ptr noundef nonnull align 8 dereferenceable(8) %.pr2019.pr.pr.pr, ptr noundef nonnull @.str.63, i64 noundef 10)
          to label %invoke.cont565 unwind label %lpad560

invoke.cont565:                                   ; preds = %if.then.i1572
  %.pr2021 = load ptr, ptr %cond-lvalue537, align 8, !tbaa !27
  %tobool.not.i1576 = icmp eq ptr %.pr2021, null
  br i1 %tobool.not.i1576, label %invoke.cont573, label %if.then.i1578

if.then.i1578:                                    ; preds = %invoke.cont565
  %call1.i.i1580 = invoke noundef nonnull align 8 dereferenceable(8) ptr @_ZSt16__ostream_insertIcSt11char_traitsIcEERSt13basic_ostreamIT_T0_ES6_PKS3_l(ptr noundef nonnull align 8 dereferenceable(8) %.pr2021, ptr noundef nonnull @.str.64, i64 noundef 6)
          to label %invoke.cont567 unwind label %lpad560

invoke.cont567:                                   ; preds = %if.then.i1578
  %.pr2023.pr.pr.pr = load ptr, ptr %cond-lvalue537, align 8, !tbaa !27
  %tobool.not.i1582 = icmp eq ptr %.pr2023.pr.pr.pr, null
  br i1 %tobool.not.i1582, label %invoke.cont573, label %if.then.i1584

if.then.i1584:                                    ; preds = %invoke.cont567
  %call1.i.i1586 = invoke noundef nonnull align 8 dereferenceable(8) ptr @_ZSt16__ostream_insertIcSt11char_traitsIcEERSt13basic_ostreamIT_T0_ES6_PKS3_l(ptr noundef nonnull align 8 dereferenceable(8) %.pr2023.pr.pr.pr, ptr noundef nonnull @.str.65, i64 noundef 1)
          to label %invoke.cont569 unwind label %lpad560

invoke.cont569:                                   ; preds = %if.then.i1584
  %.pr2025 = load ptr, ptr %cond-lvalue537, align 8, !tbaa !27
  %tobool.not.i1588 = icmp eq ptr %.pr2025, null
  br i1 %tobool.not.i1588, label %invoke.cont573, label %if.then.i1590

if.then.i1590:                                    ; preds = %invoke.cont569
  %call1.i.i1592 = invoke noundef nonnull align 8 dereferenceable(8) ptr @_ZSt16__ostream_insertIcSt11char_traitsIcEERSt13basic_ostreamIT_T0_ES6_PKS3_l(ptr noundef nonnull align 8 dereferenceable(8) %.pr2025, ptr noundef nonnull @.str.5, i64 noundef 18)
          to label %invoke.cont571 unwind label %lpad560

invoke.cont571:                                   ; preds = %if.then.i1590
  %.pr2027.pr.pr.pr = load ptr, ptr %cond-lvalue537, align 8, !tbaa !27
  %tobool.not.i1594 = icmp eq ptr %.pr2027.pr.pr.pr, null
  br i1 %tobool.not.i1594, label %invoke.cont573, label %if.then.i1596

if.then.i1596:                                    ; preds = %invoke.cont571
  %call1.i.i1598 = invoke noundef nonnull align 8 dereferenceable(8) ptr @_ZSt16__ostream_insertIcSt11char_traitsIcEERSt13basic_ostreamIT_T0_ES6_PKS3_l(ptr noundef nonnull align 8 dereferenceable(8) %.pr2027.pr.pr.pr, ptr noundef nonnull @.str.66, i64 noundef 1)
          to label %invoke.cont573 unwind label %lpad560

invoke.cont573:                                   ; preds = %invoke.cont553, %invoke.cont551, %invoke.cont548, %invoke.cont546, %invoke.cont542, %invoke.cont540, %invoke.cont538, %cond.end536, %invoke.cont561, %invoke.cont563, %invoke.cont555, %invoke.cont557, %invoke.cont567, %invoke.cont565, %invoke.cont569, %invoke.cont571, %if.then.i1596
  %call.i16001601 = invoke noundef double @_ZNK7Results5GetAsIdEET_PKc(ptr noundef nonnull align 8 dereferenceable(80) %e, ptr noundef nonnull @.str.5)
          to label %invoke.cont577 unwind label %lpad576

invoke.cont577:                                   ; preds = %invoke.cont573
  %87 = load ptr, ptr %cond-lvalue537, align 8, !tbaa !27
  %tobool.not.i1603 = icmp eq ptr %87, null
  br i1 %tobool.not.i1603, label %invoke.cont613, label %if.then.i1605

if.then.i1605:                                    ; preds = %invoke.cont577
  %call.i.i16041606 = invoke noundef nonnull align 8 dereferenceable(8) ptr @_ZNSo9_M_insertIdEERSoT_(ptr noundef nonnull align 8 dereferenceable(8) %87, double noundef %call.i16001601)
          to label %invoke.cont579 unwind label %lpad576

invoke.cont579:                                   ; preds = %if.then.i1605
  %.pr2029 = load ptr, ptr %cond-lvalue537, align 8, !tbaa !27
  %tobool.not.i1608 = icmp eq ptr %.pr2029, null
  br i1 %tobool.not.i1608, label %invoke.cont613, label %if.then.i1610

if.then.i1610:                                    ; preds = %invoke.cont579
  %call1.i.i1612 = invoke noundef nonnull align 8 dereferenceable(8) ptr @_ZSt16__ostream_insertIcSt11char_traitsIcEERSt13basic_ostreamIT_T0_ES6_PKS3_l(ptr noundef nonnull align 8 dereferenceable(8) %.pr2029, ptr noundef nonnull @.str.67, i64 noundef 13)
          to label %invoke.cont581 unwind label %lpad576

invoke.cont581:                                   ; preds = %if.then.i1610
  %.pr2031 = load ptr, ptr %cond-lvalue537, align 8, !tbaa !27
  %tobool.not.i1614 = icmp eq ptr %.pr2031, null
  br i1 %tobool.not.i1614, label %invoke.cont613, label %if.then.i1616

if.then.i1616:                                    ; preds = %invoke.cont581
  %call.i16151617 = invoke noundef nonnull align 8 dereferenceable(8) ptr @_ZNSolsEi(ptr noundef nonnull align 8 dereferenceable(8) %.pr2031, i32 noundef 1048576)
          to label %invoke.cont585 unwind label %lpad584

invoke.cont585:                                   ; preds = %if.then.i1616
  %.pr2033.pr = load ptr, ptr %cond-lvalue537, align 8, !tbaa !27
  %tobool.not.i1619 = icmp eq ptr %.pr2033.pr, null
  br i1 %tobool.not.i1619, label %invoke.cont613, label %if.then.i1621

if.then.i1621:                                    ; preds = %invoke.cont585
  %call1.i.i1623 = invoke noundef nonnull align 8 dereferenceable(8) ptr @_ZSt16__ostream_insertIcSt11char_traitsIcEERSt13basic_ostreamIT_T0_ES6_PKS3_l(ptr noundef nonnull align 8 dereferenceable(8) %.pr2033.pr, ptr noundef nonnull @.str.59, i64 noundef 1)
          to label %invoke.cont587 unwind label %lpad584

invoke.cont587:                                   ; preds = %if.then.i1621
  %.pr2035 = load ptr, ptr %cond-lvalue537, align 8, !tbaa !27
  %tobool.not.i1625 = icmp eq ptr %.pr2035, null
  br i1 %tobool.not.i1625, label %invoke.cont613, label %if.then.i1627

if.then.i1627:                                    ; preds = %invoke.cont587
  %call1.i.i1629 = invoke noundef nonnull align 8 dereferenceable(8) ptr @_ZSt16__ostream_insertIcSt11char_traitsIcEERSt13basic_ostreamIT_T0_ES6_PKS3_l(ptr noundef nonnull align 8 dereferenceable(8) %.pr2035, ptr noundef nonnull @.str.58, i64 noundef 116)
          to label %invoke.cont589 unwind label %lpad584

invoke.cont589:                                   ; preds = %if.then.i1627
  %.pr2037.pr.pr = load ptr, ptr %cond-lvalue537, align 8, !tbaa !27
  %tobool.not.i1631 = icmp eq ptr %.pr2037.pr.pr, null
  br i1 %tobool.not.i1631, label %invoke.cont613, label %if.then.i1633

if.then.i1633:                                    ; preds = %invoke.cont589
  %call1.i.i1635 = invoke noundef nonnull align 8 dereferenceable(8) ptr @_ZSt16__ostream_insertIcSt11char_traitsIcEERSt13basic_ostreamIT_T0_ES6_PKS3_l(ptr noundef nonnull align 8 dereferenceable(8) %.pr2037.pr.pr, ptr noundef nonnull @.str.60, i64 noundef 1)
          to label %invoke.cont591 unwind label %lpad584

invoke.cont591:                                   ; preds = %if.then.i1633
  %.pr2039 = load ptr, ptr %cond-lvalue537, align 8, !tbaa !27
  %tobool.not.i1637 = icmp eq ptr %.pr2039, null
  br i1 %tobool.not.i1637, label %invoke.cont613, label %if.then.i1639

if.then.i1639:                                    ; preds = %invoke.cont591
  %call.i16381640 = invoke noundef nonnull align 8 dereferenceable(8) ptr @_ZNSolsEi(ptr noundef nonnull align 8 dereferenceable(8) %.pr2039, i32 noundef 178)
          to label %invoke.cont595 unwind label %lpad594

invoke.cont595:                                   ; preds = %if.then.i1639
  %.pr2041.pr.pr = load ptr, ptr %cond-lvalue537, align 8, !tbaa !27
  %tobool.not.i1642 = icmp eq ptr %.pr2041.pr.pr, null
  br i1 %tobool.not.i1642, label %invoke.cont613, label %if.then.i1644

if.then.i1644:                                    ; preds = %invoke.cont595
  %call1.i.i1646 = invoke noundef nonnull align 8 dereferenceable(8) ptr @_ZSt16__ostream_insertIcSt11char_traitsIcEERSt13basic_ostreamIT_T0_ES6_PKS3_l(ptr noundef nonnull align 8 dereferenceable(8) %.pr2041.pr.pr, ptr noundef nonnull @.str.61, i64 noundef 2)
          to label %invoke.cont597 unwind label %lpad594

invoke.cont597:                                   ; preds = %if.then.i1644
  %.pr2043 = load ptr, ptr %cond-lvalue537, align 8, !tbaa !27
  %tobool.not.i1648 = icmp eq ptr %.pr2043, null
  br i1 %tobool.not.i1648, label %invoke.cont613, label %if.then.i1650

if.then.i1650:                                    ; preds = %invoke.cont597
  %call1.i.i1652 = invoke noundef nonnull align 8 dereferenceable(8) ptr @_ZSt16__ostream_insertIcSt11char_traitsIcEERSt13basic_ostreamIT_T0_ES6_PKS3_l(ptr noundef nonnull align 8 dereferenceable(8) %.pr2043, ptr noundef nonnull @.str.68, i64 noundef 18)
          to label %invoke.cont599 unwind label %lpad594

invoke.cont599:                                   ; preds = %if.then.i1650
  %.pr2045.pr.pr.pr = load ptr, ptr %cond-lvalue537, align 8, !tbaa !27
  %tobool.not.i1654 = icmp eq ptr %.pr2045.pr.pr.pr, null
  br i1 %tobool.not.i1654, label %invoke.cont613, label %if.then.i1656

if.then.i1656:                                    ; preds = %invoke.cont599
  %call.i.i16551657 = invoke noundef nonnull align 8 dereferenceable(8) ptr @_ZNSo9_M_insertIdEERSoT_(ptr noundef nonnull align 8 dereferenceable(8) %.pr2045.pr.pr.pr, double noundef 0x405A36E2EB1C432D)
          to label %invoke.cont603 unwind label %lpad602

invoke.cont603:                                   ; preds = %if.then.i1656
  %.pr2047 = load ptr, ptr %cond-lvalue537, align 8, !tbaa !27
  %tobool.not.i1659 = icmp eq ptr %.pr2047, null
  br i1 %tobool.not.i1659, label %invoke.cont613, label %if.then.i1661

if.then.i1661:                                    ; preds = %invoke.cont603
  %call1.i.i1663 = invoke noundef nonnull align 8 dereferenceable(8) ptr @_ZSt16__ostream_insertIcSt11char_traitsIcEERSt13basic_ostreamIT_T0_ES6_PKS3_l(ptr noundef nonnull align 8 dereferenceable(8) %.pr2047, ptr noundef nonnull @.str.69, i64 noundef 2)
          to label %invoke.cont605 unwind label %lpad602

invoke.cont605:                                   ; preds = %if.then.i1661
  %.pr2049.pr.pr.pr = load ptr, ptr %cond-lvalue537, align 8, !tbaa !27
  %tobool.not.i1665 = icmp eq ptr %.pr2049.pr.pr.pr, null
  br i1 %tobool.not.i1665, label %invoke.cont613, label %if.then.i1667

if.then.i1667:                                    ; preds = %invoke.cont605
  %call.i.i16661668 = invoke noundef nonnull align 8 dereferenceable(8) ptr @_ZNSo9_M_insertIdEERSoT_(ptr noundef nonnull align 8 dereferenceable(8) %.pr2049.pr.pr.pr, double noundef 1.000000e-02)
          to label %invoke.cont609 unwind label %lpad608

invoke.cont609:                                   ; preds = %if.then.i1667
  %.pr2051 = load ptr, ptr %cond-lvalue537, align 8, !tbaa !27
  %tobool.not.i1670 = icmp eq ptr %.pr2051, null
  br i1 %tobool.not.i1670, label %invoke.cont613, label %if.then.i1672

if.then.i1672:                                    ; preds = %invoke.cont609
  %call1.i.i1674 = invoke noundef nonnull align 8 dereferenceable(8) ptr @_ZSt16__ostream_insertIcSt11char_traitsIcEERSt13basic_ostreamIT_T0_ES6_PKS3_l(ptr noundef nonnull align 8 dereferenceable(8) %.pr2051, ptr noundef nonnull @.str.70, i64 noundef 4)
          to label %invoke.cont611 unwind label %lpad608

invoke.cont611:                                   ; preds = %if.then.i1672
  %.pr2053.pr.pr.pr = load ptr, ptr %cond-lvalue537, align 8, !tbaa !27
  %tobool.not.i1676 = icmp eq ptr %.pr2053.pr.pr.pr, null
  br i1 %tobool.not.i1676, label %invoke.cont613, label %if.then.i1678

if.then.i1678:                                    ; preds = %invoke.cont611
  %call1.i.i1680 = invoke noundef nonnull align 8 dereferenceable(8) ptr @_ZSt16__ostream_insertIcSt11char_traitsIcEERSt13basic_ostreamIT_T0_ES6_PKS3_l(ptr noundef nonnull align 8 dereferenceable(8) %.pr2053.pr.pr.pr, ptr noundef nonnull @.str.71, i64 noundef 14)
          to label %invoke.cont613 unwind label %lpad608

invoke.cont613:                                   ; preds = %invoke.cont589, %invoke.cont587, %invoke.cont585, %invoke.cont581, %invoke.cont579, %invoke.cont577, %invoke.cont597, %invoke.cont599, %invoke.cont591, %invoke.cont595, %invoke.cont605, %invoke.cont603, %invoke.cont609, %invoke.cont611, %if.then.i1678
  %call.i16821683 = invoke noundef double @_ZNK7Results5GetAsIdEET_PKc(ptr noundef nonnull align 8 dereferenceable(80) %e, ptr noundef nonnull @.str.5)
          to label %invoke.cont617 unwind label %lpad616

invoke.cont617:                                   ; preds = %invoke.cont613
  %88 = load ptr, ptr %cond-lvalue537, align 8, !tbaa !27
  %tobool.not.i1685 = icmp eq ptr %88, null
  br i1 %tobool.not.i1685, label %invoke.cont622, label %if.then.i1687

if.then.i1687:                                    ; preds = %invoke.cont617
  %sub619 = fadd double %call.i16821683, 0xC130000000000000
  %call.i.i16861688 = invoke noundef nonnull align 8 dereferenceable(8) ptr @_ZNSo9_M_insertIdEERSoT_(ptr noundef nonnull align 8 dereferenceable(8) %88, double noundef %sub619)
          to label %invoke.cont620 unwind label %lpad616

invoke.cont620:                                   ; preds = %if.then.i1687
  %.pr2055 = load ptr, ptr %cond-lvalue537, align 8, !tbaa !27
  %tobool.not.i1690 = icmp eq ptr %.pr2055, null
  br i1 %tobool.not.i1690, label %invoke.cont622, label %if.then.i1692

if.then.i1692:                                    ; preds = %invoke.cont620
  %call1.i.i1694 = invoke noundef nonnull align 8 dereferenceable(8) ptr @_ZSt16__ostream_insertIcSt11char_traitsIcEERSt13basic_ostreamIT_T0_ES6_PKS3_l(ptr noundef nonnull align 8 dereferenceable(8) %.pr2055, ptr noundef nonnull @.str.69, i64 noundef 2)
          to label %invoke.cont622 unwind label %lpad616

invoke.cont622:                                   ; preds = %invoke.cont617, %invoke.cont620, %if.then.i1692
  %call.i16961697 = invoke noundef double @_ZNK7Results5GetAsIdEET_PKc(ptr noundef nonnull align 8 dereferenceable(80) %e, ptr noundef nonnull @.str.5)
          to label %invoke.cont626 unwind label %lpad625

invoke.cont626:                                   ; preds = %invoke.cont622
  %89 = load ptr, ptr %cond-lvalue537, align 8, !tbaa !27
  %tobool.not.i1699 = icmp eq ptr %89, null
  br i1 %tobool.not.i1699, label %invoke.cont633, label %if.then.i1701

if.then.i1701:                                    ; preds = %invoke.cont626
  %sub628 = fadd double %call.i16961697, 0xC130000000000000
  %div629 = fmul double %sub628, 0x3EB0000000000000
  %mul630 = fmul double %div629, 1.000000e+02
  %call.i.i17001702 = invoke noundef nonnull align 8 dereferenceable(8) ptr @_ZNSo9_M_insertIdEERSoT_(ptr noundef nonnull align 8 dereferenceable(8) %89, double noundef %mul630)
          to label %invoke.cont631 unwind label %lpad625

invoke.cont631:                                   ; preds = %if.then.i1701
  %.pr2057 = load ptr, ptr %cond-lvalue537, align 8, !tbaa !27
  %tobool.not.i1704 = icmp eq ptr %.pr2057, null
  br i1 %tobool.not.i1704, label %invoke.cont633, label %if.then.i1706

if.then.i1706:                                    ; preds = %invoke.cont631
  %call1.i.i1708 = invoke noundef nonnull align 8 dereferenceable(8) ptr @_ZSt16__ostream_insertIcSt11char_traitsIcEERSt13basic_ostreamIT_T0_ES6_PKS3_l(ptr noundef nonnull align 8 dereferenceable(8) %.pr2057, ptr noundef nonnull @.str.72, i64 noundef 2)
          to label %invoke.cont633 unwind label %lpad625

invoke.cont633:                                   ; preds = %invoke.cont626, %invoke.cont631, %if.then.i1706
  br i1 %cmp526, label %cleanup.action645, label %cleanup.done654

cleanup.action645:                                ; preds = %invoke.cont633
  call void @_ZN9benchmark8internal12CheckHandlerD2Ev(ptr noundef nonnull align 8 dereferenceable(8) %ref.tmp530) #23
  unreachable

ehcleanup512:                                     ; preds = %lpad410, %lpad441, %lpad459, %lpad473, %lpad490, %lpad481, %lpad467, %lpad449, %lpad425, %lpad398
  %.pn1739.pn.pn.pn.pn.pn.pn.pn.pn = phi { ptr, i32 } [ %70, %lpad398 ], [ %71, %lpad410 ], [ %72, %lpad425 ], [ %73, %lpad441 ], [ %74, %lpad449 ], [ %75, %lpad459 ], [ %76, %lpad467 ], [ %77, %lpad473 ], [ %79, %lpad490 ], [ %78, %lpad481 ]
  br i1 %cmp391, label %cleanup.action649.invoke, label %eh.resume

lpad533:                                          ; preds = %if.then.i1520, %if.then.i1514, %if.then.i1508
  %90 = landingpad { ptr, i32 }
          cleanup
  br label %ehcleanup647

lpad545:                                          ; preds = %if.then.i1555, %if.then.i1549, %if.then.i1543, %if.then.i1537, %if.then.i1531, %if.then.i1526
  %91 = landingpad { ptr, i32 }
          cleanup
  br label %ehcleanup647

lpad560:                                          ; preds = %if.then.i1596, %if.then.i1590, %if.then.i1584, %if.then.i1578, %if.then.i1572, %if.then.i1566, %if.then.i1561
  %92 = landingpad { ptr, i32 }
          cleanup
  br label %ehcleanup647

lpad576:                                          ; preds = %if.then.i1610, %if.then.i1605, %invoke.cont573
  %93 = landingpad { ptr, i32 }
          cleanup
  br label %ehcleanup647

lpad584:                                          ; preds = %if.then.i1633, %if.then.i1627, %if.then.i1621, %if.then.i1616
  %94 = landingpad { ptr, i32 }
          cleanup
  br label %ehcleanup647

lpad594:                                          ; preds = %if.then.i1650, %if.then.i1644, %if.then.i1639
  %95 = landingpad { ptr, i32 }
          cleanup
  br label %ehcleanup647

lpad602:                                          ; preds = %if.then.i1661, %if.then.i1656
  %96 = landingpad { ptr, i32 }
          cleanup
  br label %ehcleanup647

lpad608:                                          ; preds = %if.then.i1678, %if.then.i1672, %if.then.i1667
  %97 = landingpad { ptr, i32 }
          cleanup
  br label %ehcleanup647

lpad616:                                          ; preds = %if.then.i1692, %if.then.i1687, %invoke.cont613
  %98 = landingpad { ptr, i32 }
          cleanup
  br label %ehcleanup647

lpad625:                                          ; preds = %if.then.i1706, %if.then.i1701, %invoke.cont622
  %99 = landingpad { ptr, i32 }
          cleanup
  br label %ehcleanup647

cleanup.done654:                                  ; preds = %invoke.cont633, %entry
  ret void

ehcleanup647:                                     ; preds = %lpad545, %lpad576, %lpad594, %lpad608, %lpad625, %lpad616, %lpad602, %lpad584, %lpad560, %lpad533
  %.pn1749.pn.pn.pn.pn.pn.pn.pn.pn = phi { ptr, i32 } [ %90, %lpad533 ], [ %91, %lpad545 ], [ %92, %lpad560 ], [ %93, %lpad576 ], [ %94, %lpad584 ], [ %95, %lpad594 ], [ %96, %lpad602 ], [ %97, %lpad608 ], [ %99, %lpad625 ], [ %98, %lpad616 ]
  br i1 %cmp526, label %cleanup.action649.invoke, label %eh.resume

cleanup.action649.invoke:                         ; preds = %ehcleanup647, %ehcleanup512, %ehcleanup377, %ehcleanup242, %ehcleanup107
  %100 = phi ptr [ %ref.tmp, %ehcleanup107 ], [ %ref.tmp125, %ehcleanup242 ], [ %ref.tmp260, %ehcleanup377 ], [ %ref.tmp395, %ehcleanup512 ], [ %ref.tmp530, %ehcleanup647 ]
  invoke void @_ZN9benchmark8internal12CheckHandlerD2Ev(ptr noundef nonnull align 8 dereferenceable(8) %100) #23
          to label %cleanup.action649.cont unwind label %terminate.lpad

cleanup.action649.cont:                           ; preds = %cleanup.action649.invoke
  unreachable

eh.resume:                                        ; preds = %ehcleanup647, %ehcleanup512, %ehcleanup377, %ehcleanup242, %ehcleanup107
  %.pn1749.pn.pn.pn.pn.pn.pn.pn.pn.pn = phi { ptr, i32 } [ %.pn.pn.pn.pn.pn.pn.pn.pn.pn, %ehcleanup107 ], [ %.pn1719.pn.pn.pn.pn.pn.pn.pn.pn, %ehcleanup242 ], [ %.pn1729.pn.pn.pn.pn.pn.pn.pn.pn, %ehcleanup377 ], [ %.pn1739.pn.pn.pn.pn.pn.pn.pn.pn, %ehcleanup512 ], [ %.pn1749.pn.pn.pn.pn.pn.pn.pn.pn, %ehcleanup647 ]
  resume { ptr, i32 } %.pn1749.pn.pn.pn.pn.pn.pn.pn.pn.pn

terminate.lpad:                                   ; preds = %cleanup.action649.invoke
  %101 = landingpad { ptr, i32 }
          catch ptr null
  %102 = extractvalue { ptr, i32 } %101, 0
  call void @__clang_call_terminate(ptr %102) #24
  unreachable
}

; Function Attrs: mustprogress nocallback nofree nosync nounwind speculatable willreturn memory(none)
declare double @llvm.fabs.f64(double) #7

; Function Attrs: uwtable
define linkonce_odr hidden void @_ZN9benchmark8internal12CheckHandlerC2EPKcS3_S3_i(ptr noundef nonnull align 8 dereferenceable(8) %this, ptr noundef %check, ptr noundef %file, ptr noundef %func, i32 noundef %line) unnamed_addr #3 comdat align 2 personality ptr @__gxx_personality_v0 {
entry:
  %0 = load atomic i8, ptr @_ZGVZN9benchmark8internal19GetErrorLogInstanceEvE3log acquire, align 8
  %guard.uninitialized.i = icmp eq i8 %0, 0
  br i1 %guard.uninitialized.i, label %init.check.i, label %_ZN9benchmark8internal19GetErrorLogInstanceEv.exit, !prof !26

init.check.i:                                     ; preds = %entry
  %1 = tail call i32 @__cxa_guard_acquire(ptr nonnull @_ZGVZN9benchmark8internal19GetErrorLogInstanceEvE3log) #21
  %tobool.not.i = icmp eq i32 %1, 0
  br i1 %tobool.not.i, label %_ZN9benchmark8internal19GetErrorLogInstanceEv.exit, label %init.i

init.i:                                           ; preds = %init.check.i
  store ptr @_ZSt4clog, ptr @_ZZN9benchmark8internal19GetErrorLogInstanceEvE3log, align 8, !tbaa !27
  tail call void @__cxa_guard_release(ptr nonnull @_ZGVZN9benchmark8internal19GetErrorLogInstanceEvE3log) #21
  br label %_ZN9benchmark8internal19GetErrorLogInstanceEv.exit

_ZN9benchmark8internal19GetErrorLogInstanceEv.exit: ; preds = %entry, %init.check.i, %init.i
  store ptr @_ZZN9benchmark8internal19GetErrorLogInstanceEvE3log, ptr %this, align 8, !tbaa !25
  %2 = load ptr, ptr @_ZZN9benchmark8internal19GetErrorLogInstanceEvE3log, align 8, !tbaa !27
  %tobool.not.i11 = icmp eq ptr %2, null
  br i1 %tobool.not.i11, label %_ZN9benchmark8internallsIA11_cEERNS0_7LogTypeES4_RKT_.exit, label %if.then.i

if.then.i:                                        ; preds = %_ZN9benchmark8internal19GetErrorLogInstanceEv.exit
  %tobool.not.i.i = icmp eq ptr %file, null
  br i1 %tobool.not.i.i, label %if.then.i.i, label %if.else.i.i

if.then.i.i:                                      ; preds = %if.then.i
  %vtable.i.i = load ptr, ptr %2, align 8, !tbaa !31
  %vbase.offset.ptr.i.i = getelementptr i8, ptr %vtable.i.i, i64 -24
  %vbase.offset.i.i = load i64, ptr %vbase.offset.ptr.i.i, align 8
  %add.ptr.i.i = getelementptr inbounds i8, ptr %2, i64 %vbase.offset.i.i
  %_M_streambuf_state.i.i.i.i = getelementptr inbounds %"class.std::ios_base", ptr %add.ptr.i.i, i64 0, i32 5
  %3 = load i32, ptr %_M_streambuf_state.i.i.i.i, align 8, !tbaa !33
  %or.i.i.i.i = or i32 %3, 1
  tail call void @_ZNSt9basic_iosIcSt11char_traitsIcEE5clearESt12_Ios_Iostate(ptr noundef nonnull align 8 dereferenceable(264) %add.ptr.i.i, i32 noundef %or.i.i.i.i)
  br label %_ZN9benchmark8internallsIPKcEERNS0_7LogTypeES5_RKT_.exit

if.else.i.i:                                      ; preds = %if.then.i
  %call.i.i.i = tail call i64 @strlen(ptr noundef nonnull dereferenceable(1) %file) #21
  %call1.i.i = tail call noundef nonnull align 8 dereferenceable(8) ptr @_ZSt16__ostream_insertIcSt11char_traitsIcEERSt13basic_ostreamIT_T0_ES6_PKS3_l(ptr noundef nonnull align 8 dereferenceable(8) %2, ptr noundef nonnull %file, i64 noundef %call.i.i.i)
  br label %_ZN9benchmark8internallsIPKcEERNS0_7LogTypeES5_RKT_.exit

_ZN9benchmark8internallsIPKcEERNS0_7LogTypeES5_RKT_.exit: ; preds = %if.then.i.i, %if.else.i.i
  %.pr = load ptr, ptr @_ZZN9benchmark8internal19GetErrorLogInstanceEvE3log, align 8, !tbaa !27
  %tobool.not.i12 = icmp eq ptr %.pr, null
  br i1 %tobool.not.i12, label %_ZN9benchmark8internallsIA11_cEERNS0_7LogTypeES4_RKT_.exit, label %_ZN9benchmark8internallsIA2_cEERNS0_7LogTypeES4_RKT_.exit

_ZN9benchmark8internallsIA2_cEERNS0_7LogTypeES4_RKT_.exit: ; preds = %_ZN9benchmark8internallsIPKcEERNS0_7LogTypeES5_RKT_.exit
  %call1.i.i14 = tail call noundef nonnull align 8 dereferenceable(8) ptr @_ZSt16__ostream_insertIcSt11char_traitsIcEERSt13basic_ostreamIT_T0_ES6_PKS3_l(ptr noundef nonnull align 8 dereferenceable(8) %.pr, ptr noundef nonnull @.str.60, i64 noundef 1)
  %.pr59 = load ptr, ptr @_ZZN9benchmark8internal19GetErrorLogInstanceEvE3log, align 8, !tbaa !27
  %tobool.not.i16 = icmp eq ptr %.pr59, null
  br i1 %tobool.not.i16, label %_ZN9benchmark8internallsIA11_cEERNS0_7LogTypeES4_RKT_.exit, label %_ZN9benchmark8internallsIiEERNS0_7LogTypeES3_RKT_.exit

_ZN9benchmark8internallsIiEERNS0_7LogTypeES3_RKT_.exit: ; preds = %_ZN9benchmark8internallsIA2_cEERNS0_7LogTypeES4_RKT_.exit
  %call.i = tail call noundef nonnull align 8 dereferenceable(8) ptr @_ZNSolsEi(ptr noundef nonnull align 8 dereferenceable(8) %.pr59, i32 noundef %line)
  %.pr61.pr = load ptr, ptr @_ZZN9benchmark8internal19GetErrorLogInstanceEvE3log, align 8, !tbaa !27
  %tobool.not.i18 = icmp eq ptr %.pr61.pr, null
  br i1 %tobool.not.i18, label %_ZN9benchmark8internallsIA11_cEERNS0_7LogTypeES4_RKT_.exit, label %_ZN9benchmark8internallsIA3_cEERNS0_7LogTypeES4_RKT_.exit

_ZN9benchmark8internallsIA3_cEERNS0_7LogTypeES4_RKT_.exit: ; preds = %_ZN9benchmark8internallsIiEERNS0_7LogTypeES3_RKT_.exit
  %call1.i.i20 = tail call noundef nonnull align 8 dereferenceable(8) ptr @_ZSt16__ostream_insertIcSt11char_traitsIcEERSt13basic_ostreamIT_T0_ES6_PKS3_l(ptr noundef nonnull align 8 dereferenceable(8) %.pr61.pr, ptr noundef nonnull @.str.61, i64 noundef 2)
  %.pr63 = load ptr, ptr @_ZZN9benchmark8internal19GetErrorLogInstanceEvE3log, align 8, !tbaa !27
  %tobool.not.i22 = icmp eq ptr %.pr63, null
  br i1 %tobool.not.i22, label %_ZN9benchmark8internallsIA11_cEERNS0_7LogTypeES4_RKT_.exit, label %if.then.i24

if.then.i24:                                      ; preds = %_ZN9benchmark8internallsIA3_cEERNS0_7LogTypeES4_RKT_.exit
  %tobool.not.i.i23 = icmp eq ptr %func, null
  br i1 %tobool.not.i.i23, label %if.then.i.i31, label %if.else.i.i34

if.then.i.i31:                                    ; preds = %if.then.i24
  %vtable.i.i25 = load ptr, ptr %.pr63, align 8, !tbaa !31
  %vbase.offset.ptr.i.i26 = getelementptr i8, ptr %vtable.i.i25, i64 -24
  %vbase.offset.i.i27 = load i64, ptr %vbase.offset.ptr.i.i26, align 8
  %add.ptr.i.i28 = getelementptr inbounds i8, ptr %.pr63, i64 %vbase.offset.i.i27
  %_M_streambuf_state.i.i.i.i29 = getelementptr inbounds %"class.std::ios_base", ptr %add.ptr.i.i28, i64 0, i32 5
  %4 = load i32, ptr %_M_streambuf_state.i.i.i.i29, align 8, !tbaa !33
  %or.i.i.i.i30 = or i32 %4, 1
  tail call void @_ZNSt9basic_iosIcSt11char_traitsIcEE5clearESt12_Ios_Iostate(ptr noundef nonnull align 8 dereferenceable(264) %add.ptr.i.i28, i32 noundef %or.i.i.i.i30)
  br label %_ZN9benchmark8internallsIPKcEERNS0_7LogTypeES5_RKT_.exit35

if.else.i.i34:                                    ; preds = %if.then.i24
  %call.i.i.i32 = tail call i64 @strlen(ptr noundef nonnull dereferenceable(1) %func) #21
  %call1.i.i33 = tail call noundef nonnull align 8 dereferenceable(8) ptr @_ZSt16__ostream_insertIcSt11char_traitsIcEERSt13basic_ostreamIT_T0_ES6_PKS3_l(ptr noundef nonnull align 8 dereferenceable(8) %.pr63, ptr noundef nonnull %func, i64 noundef %call.i.i.i32)
  br label %_ZN9benchmark8internallsIPKcEERNS0_7LogTypeES5_RKT_.exit35

_ZN9benchmark8internallsIPKcEERNS0_7LogTypeES5_RKT_.exit35: ; preds = %if.then.i.i31, %if.else.i.i34
  %.pr65.pr.pr = load ptr, ptr @_ZZN9benchmark8internal19GetErrorLogInstanceEvE3log, align 8, !tbaa !27
  %tobool.not.i36 = icmp eq ptr %.pr65.pr.pr, null
  br i1 %tobool.not.i36, label %_ZN9benchmark8internallsIA11_cEERNS0_7LogTypeES4_RKT_.exit, label %_ZN9benchmark8internallsIA10_cEERNS0_7LogTypeES4_RKT_.exit

_ZN9benchmark8internallsIA10_cEERNS0_7LogTypeES4_RKT_.exit: ; preds = %_ZN9benchmark8internallsIPKcEERNS0_7LogTypeES5_RKT_.exit35
  %call1.i.i38 = tail call noundef nonnull align 8 dereferenceable(8) ptr @_ZSt16__ostream_insertIcSt11char_traitsIcEERSt13basic_ostreamIT_T0_ES6_PKS3_l(ptr noundef nonnull align 8 dereferenceable(8) %.pr65.pr.pr, ptr noundef nonnull @.str.80, i64 noundef 9)
  %.pr67 = load ptr, ptr @_ZZN9benchmark8internal19GetErrorLogInstanceEvE3log, align 8, !tbaa !27
  %tobool.not.i40 = icmp eq ptr %.pr67, null
  br i1 %tobool.not.i40, label %_ZN9benchmark8internallsIA11_cEERNS0_7LogTypeES4_RKT_.exit, label %if.then.i42

if.then.i42:                                      ; preds = %_ZN9benchmark8internallsIA10_cEERNS0_7LogTypeES4_RKT_.exit
  %tobool.not.i.i41 = icmp eq ptr %check, null
  br i1 %tobool.not.i.i41, label %if.then.i.i49, label %if.else.i.i52

if.then.i.i49:                                    ; preds = %if.then.i42
  %vtable.i.i43 = load ptr, ptr %.pr67, align 8, !tbaa !31
  %vbase.offset.ptr.i.i44 = getelementptr i8, ptr %vtable.i.i43, i64 -24
  %vbase.offset.i.i45 = load i64, ptr %vbase.offset.ptr.i.i44, align 8
  %add.ptr.i.i46 = getelementptr inbounds i8, ptr %.pr67, i64 %vbase.offset.i.i45
  %_M_streambuf_state.i.i.i.i47 = getelementptr inbounds %"class.std::ios_base", ptr %add.ptr.i.i46, i64 0, i32 5
  %5 = load i32, ptr %_M_streambuf_state.i.i.i.i47, align 8, !tbaa !33
  %or.i.i.i.i48 = or i32 %5, 1
  tail call void @_ZNSt9basic_iosIcSt11char_traitsIcEE5clearESt12_Ios_Iostate(ptr noundef nonnull align 8 dereferenceable(264) %add.ptr.i.i46, i32 noundef %or.i.i.i.i48)
  br label %_ZN9benchmark8internallsIPKcEERNS0_7LogTypeES5_RKT_.exit53

if.else.i.i52:                                    ; preds = %if.then.i42
  %call.i.i.i50 = tail call i64 @strlen(ptr noundef nonnull dereferenceable(1) %check) #21
  %call1.i.i51 = tail call noundef nonnull align 8 dereferenceable(8) ptr @_ZSt16__ostream_insertIcSt11char_traitsIcEERSt13basic_ostreamIT_T0_ES6_PKS3_l(ptr noundef nonnull align 8 dereferenceable(8) %.pr67, ptr noundef nonnull %check, i64 noundef %call.i.i.i50)
  br label %_ZN9benchmark8internallsIPKcEERNS0_7LogTypeES5_RKT_.exit53

_ZN9benchmark8internallsIPKcEERNS0_7LogTypeES5_RKT_.exit53: ; preds = %if.then.i.i49, %if.else.i.i52
  %.pr69.pr.pr = load ptr, ptr @_ZZN9benchmark8internal19GetErrorLogInstanceEvE3log, align 8, !tbaa !27
  %tobool.not.i54 = icmp eq ptr %.pr69.pr.pr, null
  br i1 %tobool.not.i54, label %_ZN9benchmark8internallsIA11_cEERNS0_7LogTypeES4_RKT_.exit, label %if.then.i57

if.then.i57:                                      ; preds = %_ZN9benchmark8internallsIPKcEERNS0_7LogTypeES5_RKT_.exit53
  %call1.i.i56 = tail call noundef nonnull align 8 dereferenceable(8) ptr @_ZSt16__ostream_insertIcSt11char_traitsIcEERSt13basic_ostreamIT_T0_ES6_PKS3_l(ptr noundef nonnull align 8 dereferenceable(8) %.pr69.pr.pr, ptr noundef nonnull @.str.81, i64 noundef 10)
  br label %_ZN9benchmark8internallsIA11_cEERNS0_7LogTypeES4_RKT_.exit

_ZN9benchmark8internallsIA11_cEERNS0_7LogTypeES4_RKT_.exit: ; preds = %_ZN9benchmark8internallsIA2_cEERNS0_7LogTypeES4_RKT_.exit, %_ZN9benchmark8internallsIiEERNS0_7LogTypeES3_RKT_.exit, %_ZN9benchmark8internal19GetErrorLogInstanceEv.exit, %_ZN9benchmark8internallsIPKcEERNS0_7LogTypeES5_RKT_.exit, %_ZN9benchmark8internallsIPKcEERNS0_7LogTypeES5_RKT_.exit35, %_ZN9benchmark8internallsIA3_cEERNS0_7LogTypeES4_RKT_.exit, %_ZN9benchmark8internallsIA10_cEERNS0_7LogTypeES4_RKT_.exit, %_ZN9benchmark8internallsIPKcEERNS0_7LogTypeES5_RKT_.exit53, %if.then.i57
  ret void
}

; Function Attrs: noreturn uwtable
define linkonce_odr hidden void @_ZN9benchmark8internal12CheckHandlerD2Ev(ptr noundef nonnull align 8 dereferenceable(8) %this) unnamed_addr #8 comdat align 2 {
entry:
  %0 = load ptr, ptr %this, align 8, !tbaa !29
  %1 = load ptr, ptr %0, align 8, !tbaa !27
  %tobool.not.i = icmp eq ptr %1, null
  br i1 %tobool.not.i, label %_ZN9benchmark8internallsERNS0_7LogTypeEPFRSoS3_E.exit, label %if.then.i

if.then.i:                                        ; preds = %entry
  %vtable.i = load ptr, ptr %1, align 8, !tbaa !31
  %vbase.offset.ptr.i = getelementptr i8, ptr %vtable.i, i64 -24
  %vbase.offset.i = load i64, ptr %vbase.offset.ptr.i, align 8
  %add.ptr.i = getelementptr inbounds i8, ptr %1, i64 %vbase.offset.i
  %_M_ctype.i.i = getelementptr inbounds %"class.std::basic_ios", ptr %add.ptr.i, i64 0, i32 5
  %2 = load ptr, ptr %_M_ctype.i.i, align 8, !tbaa !40
  %tobool.not.i.i.i = icmp eq ptr %2, null
  br i1 %tobool.not.i.i.i, label %if.then.i.i.i, label %_ZSt13__check_facetISt5ctypeIcEERKT_PS3_.exit.i.i

if.then.i.i.i:                                    ; preds = %if.then.i
  tail call void @_ZSt16__throw_bad_castv() #23
  unreachable

_ZSt13__check_facetISt5ctypeIcEERKT_PS3_.exit.i.i: ; preds = %if.then.i
  %_M_widen_ok.i.i.i = getelementptr inbounds %"class.std::ctype", ptr %2, i64 0, i32 8
  %3 = load i8, ptr %_M_widen_ok.i.i.i, align 8, !tbaa !43
  %tobool.not.i3.i.i = icmp eq i8 %3, 0
  br i1 %tobool.not.i3.i.i, label %if.end.i.i.i, label %if.then.i4.i.i

if.then.i4.i.i:                                   ; preds = %_ZSt13__check_facetISt5ctypeIcEERKT_PS3_.exit.i.i
  %arrayidx.i.i.i = getelementptr inbounds %"class.std::ctype", ptr %2, i64 0, i32 9, i64 10
  %4 = load i8, ptr %arrayidx.i.i.i, align 1, !tbaa !14
  br label %_ZSt4endlIcSt11char_traitsIcEERSt13basic_ostreamIT_T0_ES6_.exit

if.end.i.i.i:                                     ; preds = %_ZSt13__check_facetISt5ctypeIcEERKT_PS3_.exit.i.i
  tail call void @_ZNKSt5ctypeIcE13_M_widen_initEv(ptr noundef nonnull align 8 dereferenceable(570) %2)
  %vtable.i.i.i = load ptr, ptr %2, align 8, !tbaa !31
  %vfn.i.i.i = getelementptr inbounds ptr, ptr %vtable.i.i.i, i64 6
  %5 = load ptr, ptr %vfn.i.i.i, align 8
  %call.i.i.i = tail call noundef signext i8 %5(ptr noundef nonnull align 8 dereferenceable(570) %2, i8 noundef signext 10)
  br label %_ZSt4endlIcSt11char_traitsIcEERSt13basic_ostreamIT_T0_ES6_.exit

_ZSt4endlIcSt11char_traitsIcEERSt13basic_ostreamIT_T0_ES6_.exit: ; preds = %if.then.i4.i.i, %if.end.i.i.i
  %retval.0.i.i.i = phi i8 [ %4, %if.then.i4.i.i ], [ %call.i.i.i, %if.end.i.i.i ]
  %call1.i = tail call noundef nonnull align 8 dereferenceable(8) ptr @_ZNSo3putEc(ptr noundef nonnull align 8 dereferenceable(8) %1, i8 noundef signext %retval.0.i.i.i)
  %call.i.i2 = tail call noundef nonnull align 8 dereferenceable(8) ptr @_ZNSo5flushEv(ptr noundef nonnull align 8 dereferenceable(8) %call1.i)
  br label %_ZN9benchmark8internallsERNS0_7LogTypeEPFRSoS3_E.exit

_ZN9benchmark8internallsERNS0_7LogTypeEPFRSoS3_E.exit: ; preds = %entry, %_ZSt4endlIcSt11char_traitsIcEERSt13basic_ostreamIT_T0_ES6_.exit
  tail call void @_ZN9benchmark8internal16CallAbortHandlerEv() #23
  unreachable
}

; Function Attrs: noinline noreturn nounwind
define linkonce_odr hidden void @__clang_call_terminate(ptr noundef %0) local_unnamed_addr #9 comdat {
  %2 = tail call ptr @__cxa_begin_catch(ptr %0) #21
  tail call void @_ZSt9terminatev() #24
  unreachable
}

declare ptr @__cxa_begin_catch(ptr) local_unnamed_addr

declare void @_ZSt9terminatev() local_unnamed_addr

declare noundef i64 @_Z10AddCheckerPKcRKSt8functionIFvRK7ResultsEE(ptr noundef, ptr noundef nonnull align 8 dereferenceable(32)) local_unnamed_addr #0

; Function Attrs: mustprogress norecurse uwtable
define hidden noundef i32 @main(i32 noundef %argc, ptr noundef %argv) local_unnamed_addr #10 {
entry:
  tail call void @_Z14RunOutputTestsiPPc(i32 noundef %argc, ptr noundef %argv)
  ret i32 0
}

declare void @_Z14RunOutputTestsiPPc(i32 noundef, ptr noundef) local_unnamed_addr #0

declare void @_ZN9benchmark5State16StartKeepRunningEv(ptr noundef nonnull align 8 dereferenceable(144)) local_unnamed_addr #0

declare void @_ZN9benchmark5State17FinishKeepRunningEv(ptr noundef nonnull align 8 dereferenceable(144)) local_unnamed_addr #0

; Function Attrs: mustprogress nocallback nofree nounwind willreturn memory(argmem: readwrite)
declare void @llvm.memcpy.p0.p0.i64(ptr noalias nocapture writeonly, ptr noalias nocapture readonly, i64, i1 immarg) #11

declare void @_ZN9benchmark8internal9BenchmarkC2EPKc(ptr noundef nonnull align 8 dereferenceable(216), ptr noundef) unnamed_addr #0

; Function Attrs: mustprogress noinline nounwind uwtable
define linkonce_odr hidden void @_ZNSt16_Sp_counted_baseILN9__gnu_cxx12_Lock_policyE2EE24_M_release_last_use_coldEv(ptr noundef nonnull align 8 dereferenceable(16) %this) local_unnamed_addr #12 comdat align 2 personality ptr @__gxx_personality_v0 {
entry:
  %vtable.i = load ptr, ptr %this, align 8, !tbaa !31
  %vfn.i = getelementptr inbounds ptr, ptr %vtable.i, i64 2
  %0 = load ptr, ptr %vfn.i, align 8
  tail call void %0(ptr noundef nonnull align 8 dereferenceable(16) %this) #21
  %_M_weak_count.i = getelementptr inbounds %"class.std::_Sp_counted_base", ptr %this, i64 0, i32 2
  %1 = load i8, ptr @__libc_single_threaded, align 1, !tbaa !14
  %tobool.i.not.i.i = icmp eq i8 %1, 0
  br i1 %tobool.i.not.i.i, label %if.else.i.i, label %if.then.i.i

if.then.i.i:                                      ; preds = %entry
  %2 = load i32, ptr %_M_weak_count.i, align 4, !tbaa !46
  %add.i.i.i = add nsw i32 %2, -1
  store i32 %add.i.i.i, ptr %_M_weak_count.i, align 4, !tbaa !46
  br label %invoke.cont.i

if.else.i.i:                                      ; preds = %entry
  %3 = atomicrmw volatile add ptr %_M_weak_count.i, i32 -1 acq_rel, align 4
  br label %invoke.cont.i

invoke.cont.i:                                    ; preds = %if.else.i.i, %if.then.i.i
  %retval.0.i.i = phi i32 [ %2, %if.then.i.i ], [ %3, %if.else.i.i ]
  %cmp.i = icmp eq i32 %retval.0.i.i, 1
  br i1 %cmp.i, label %if.then.i, label %_ZNSt16_Sp_counted_baseILN9__gnu_cxx12_Lock_policyE2EE19_M_release_last_useEv.exit

if.then.i:                                        ; preds = %invoke.cont.i
  %vtable2.i = load ptr, ptr %this, align 8, !tbaa !31
  %vfn3.i = getelementptr inbounds ptr, ptr %vtable2.i, i64 3
  %4 = load ptr, ptr %vfn3.i, align 8
  tail call void %4(ptr noundef nonnull align 8 dereferenceable(16) %this) #21
  br label %_ZNSt16_Sp_counted_baseILN9__gnu_cxx12_Lock_policyE2EE19_M_release_last_useEv.exit

_ZNSt16_Sp_counted_baseILN9__gnu_cxx12_Lock_policyE2EE19_M_release_last_useEv.exit: ; preds = %invoke.cont.i, %if.then.i
  ret void
}

; Function Attrs: nofree nounwind
declare i32 @__cxa_guard_acquire(ptr) local_unnamed_addr #2

; Function Attrs: nofree nounwind
declare void @__cxa_guard_release(ptr) local_unnamed_addr #2

declare noundef nonnull align 8 dereferenceable(8) ptr @_ZSt16__ostream_insertIcSt11char_traitsIcEERSt13basic_ostreamIT_T0_ES6_PKS3_l(ptr noundef nonnull align 8 dereferenceable(8), ptr noundef, i64 noundef) local_unnamed_addr #0

declare void @_ZNSt9basic_iosIcSt11char_traitsIcEE5clearESt12_Ios_Iostate(ptr noundef nonnull align 8 dereferenceable(264), i32 noundef) local_unnamed_addr #0

; Function Attrs: mustprogress nofree nounwind willreturn memory(argmem: read)
declare i64 @strlen(ptr nocapture noundef) local_unnamed_addr #13

; Function Attrs: inlinehint mustprogress noreturn uwtable
define linkonce_odr hidden void @_ZN9benchmark8internal16CallAbortHandlerEv() local_unnamed_addr #14 comdat {
entry:
  %call = tail call noundef nonnull align 8 dereferenceable(8) ptr @_ZN9benchmark8internal15GetAbortHandlerEv()
  %0 = load ptr, ptr %call, align 8, !tbaa !25
  tail call void %0()
  tail call void @abort() #24
  unreachable
}

declare noundef nonnull align 8 dereferenceable(8) ptr @_ZNSo3putEc(ptr noundef nonnull align 8 dereferenceable(8), i8 noundef signext) local_unnamed_addr #0

declare noundef nonnull align 8 dereferenceable(8) ptr @_ZNSo5flushEv(ptr noundef nonnull align 8 dereferenceable(8)) local_unnamed_addr #0

; Function Attrs: noreturn
declare void @_ZSt16__throw_bad_castv() local_unnamed_addr #15

declare void @_ZNKSt5ctypeIcE13_M_widen_initEv(ptr noundef nonnull align 8 dereferenceable(570)) local_unnamed_addr #0

declare noundef nonnull align 8 dereferenceable(8) ptr @_ZN9benchmark8internal15GetAbortHandlerEv() local_unnamed_addr #0

; Function Attrs: noreturn nounwind
declare void @abort() local_unnamed_addr #16

; Function Attrs: noreturn
declare void @_ZSt19__throw_logic_errorPKc(ptr noundef) local_unnamed_addr #15

declare noundef ptr @_ZNSt7__cxx1112basic_stringIcSt11char_traitsIcESaIcEE9_M_createERmm(ptr noundef nonnull align 8 dereferenceable(32), ptr noundef nonnull align 8 dereferenceable(8), i64 noundef) local_unnamed_addr #0

declare noundef nonnull align 8 dereferenceable(8) ptr @_ZNSolsEi(ptr noundef nonnull align 8 dereferenceable(8), i32 noundef) local_unnamed_addr #0

; Function Attrs: uwtable
define linkonce_odr hidden ptr @_ZNSt8_Rb_treeINSt7__cxx1112basic_stringIcSt11char_traitsIcESaIcEEESt4pairIKS5_N9benchmark7CounterEESt10_Select1stISA_ESt4lessIS5_ESaISA_EE17_M_insert_unique_IRKSA_NSG_11_Alloc_nodeEEESt17_Rb_tree_iteratorISA_ESt23_Rb_tree_const_iteratorISA_EOT_RT0_(ptr noundef nonnull align 8 dereferenceable(48) %this, ptr %__position.coerce, ptr noundef nonnull align 8 dereferenceable(48) %__v, ptr noundef nonnull align 8 dereferenceable(8) %__node_gen) local_unnamed_addr #3 comdat align 2 personality ptr @__gxx_personality_v0 {
entry:
  %call3 = tail call { ptr, ptr } @_ZNSt8_Rb_treeINSt7__cxx1112basic_stringIcSt11char_traitsIcESaIcEEESt4pairIKS5_N9benchmark7CounterEESt10_Select1stISA_ESt4lessIS5_ESaISA_EE29_M_get_insert_hint_unique_posESt23_Rb_tree_const_iteratorISA_ERS7_(ptr noundef nonnull align 8 dereferenceable(48) %this, ptr %__position.coerce, ptr noundef nonnull align 8 dereferenceable(32) %__v)
  %0 = extractvalue { ptr, ptr } %call3, 0
  %1 = extractvalue { ptr, ptr } %call3, 1
  %tobool.not = icmp eq ptr %1, null
  br i1 %tobool.not, label %cleanup, label %if.then

if.then:                                          ; preds = %entry
  %cmp.not.i = icmp ne ptr %0, null
  %add.ptr.i.i = getelementptr inbounds i8, ptr %this, i64 8
  %cmp2.i = icmp eq ptr %add.ptr.i.i, %1
  %or.cond.i = select i1 %cmp.not.i, i1 true, i1 %cmp2.i
  br i1 %or.cond.i, label %_ZNSt8_Rb_treeINSt7__cxx1112basic_stringIcSt11char_traitsIcESaIcEEESt4pairIKS5_N9benchmark7CounterEESt10_Select1stISA_ESt4lessIS5_ESaISA_EE10_M_insert_IRKSA_NSG_11_Alloc_nodeEEESt17_Rb_tree_iteratorISA_EPSt18_Rb_tree_node_baseSO_OT_RT0_.exit, label %lor.rhs.i

lor.rhs.i:                                        ; preds = %if.then
  %_M_string_length.i.i.i.i.i = getelementptr inbounds %"class.std::__cxx11::basic_string", ptr %__v, i64 0, i32 1
  %2 = load i64, ptr %_M_string_length.i.i.i.i.i, align 8, !tbaa !15
  %_M_string_length.i10.i.i.i.i = getelementptr inbounds %"struct.std::_Rb_tree_node", ptr %1, i64 0, i32 1, i32 0, i64 8
  %3 = load i64, ptr %_M_string_length.i10.i.i.i.i, align 8, !tbaa !15
  %.sroa.speculated.i.i.i.i = tail call i64 @llvm.umin.i64(i64 %2, i64 %3)
  %cmp.i11.i.i.i.i = icmp eq i64 %.sroa.speculated.i.i.i.i, 0
  br i1 %cmp.i11.i.i.i.i, label %if.then.i.i.i.i, label %_ZNSt11char_traitsIcE7compareEPKcS2_m.exit.i.i.i.i

_ZNSt11char_traitsIcE7compareEPKcS2_m.exit.i.i.i.i: ; preds = %lor.rhs.i
  %_M_storage.i.i.i.i = getelementptr inbounds %"struct.std::_Rb_tree_node", ptr %1, i64 0, i32 1
  %4 = load ptr, ptr %_M_storage.i.i.i.i, align 8, !tbaa !12
  %5 = load ptr, ptr %__v, align 8, !tbaa !12
  %call.i.i.i.i.i = tail call i32 @memcmp(ptr noundef %5, ptr noundef %4, i64 noundef %.sroa.speculated.i.i.i.i) #21
  %tobool.not.i.i.i.i = icmp eq i32 %call.i.i.i.i.i, 0
  br i1 %tobool.not.i.i.i.i, label %if.then.i.i.i.i, label %_ZNKSt4lessINSt7__cxx1112basic_stringIcSt11char_traitsIcESaIcEEEEclERKS5_S8_.exit.i

if.then.i.i.i.i:                                  ; preds = %_ZNSt11char_traitsIcE7compareEPKcS2_m.exit.i.i.i.i, %lor.rhs.i
  %sub.i.i.i.i.i = sub i64 %2, %3
  %spec.select6.i.i.i.i.i = tail call i64 @llvm.smax.i64(i64 %sub.i.i.i.i.i, i64 -2147483648)
  %retval.07.i.i.i.i.i = tail call i64 @llvm.smin.i64(i64 %spec.select6.i.i.i.i.i, i64 2147483647)
  %retval.0.i12.i.i.i.i = trunc i64 %retval.07.i.i.i.i.i to i32
  br label %_ZNKSt4lessINSt7__cxx1112basic_stringIcSt11char_traitsIcESaIcEEEEclERKS5_S8_.exit.i

_ZNKSt4lessINSt7__cxx1112basic_stringIcSt11char_traitsIcESaIcEEEEclERKS5_S8_.exit.i: ; preds = %if.then.i.i.i.i, %_ZNSt11char_traitsIcE7compareEPKcS2_m.exit.i.i.i.i
  %__r.0.i.i.i.i = phi i32 [ %call.i.i.i.i.i, %_ZNSt11char_traitsIcE7compareEPKcS2_m.exit.i.i.i.i ], [ %retval.0.i12.i.i.i.i, %if.then.i.i.i.i ]
  %cmp.i.i.i = icmp slt i32 %__r.0.i.i.i.i, 0
  br label %_ZNSt8_Rb_treeINSt7__cxx1112basic_stringIcSt11char_traitsIcESaIcEEESt4pairIKS5_N9benchmark7CounterEESt10_Select1stISA_ESt4lessIS5_ESaISA_EE10_M_insert_IRKSA_NSG_11_Alloc_nodeEEESt17_Rb_tree_iteratorISA_EPSt18_Rb_tree_node_baseSO_OT_RT0_.exit

_ZNSt8_Rb_treeINSt7__cxx1112basic_stringIcSt11char_traitsIcESaIcEEESt4pairIKS5_N9benchmark7CounterEESt10_Select1stISA_ESt4lessIS5_ESaISA_EE10_M_insert_IRKSA_NSG_11_Alloc_nodeEEESt17_Rb_tree_iteratorISA_EPSt18_Rb_tree_node_baseSO_OT_RT0_.exit: ; preds = %if.then, %_ZNKSt4lessINSt7__cxx1112basic_stringIcSt11char_traitsIcESaIcEEEEclERKS5_S8_.exit.i
  %6 = phi i1 [ true, %if.then ], [ %cmp.i.i.i, %_ZNKSt4lessINSt7__cxx1112basic_stringIcSt11char_traitsIcESaIcEEEEclERKS5_S8_.exit.i ]
  %7 = load ptr, ptr %__node_gen, align 8, !tbaa !47
  %call5.i.i.i.i.i.i = tail call noalias noundef nonnull dereferenceable(80) ptr @_Znwm(i64 noundef 80) #25
  tail call void @_ZNSt8_Rb_treeINSt7__cxx1112basic_stringIcSt11char_traitsIcESaIcEEESt4pairIKS5_N9benchmark7CounterEESt10_Select1stISA_ESt4lessIS5_ESaISA_EE17_M_construct_nodeIJRKSA_EEEvPSt13_Rb_tree_nodeISA_EDpOT_(ptr noundef nonnull align 8 dereferenceable(48) %7, ptr noundef nonnull %call5.i.i.i.i.i.i, ptr noundef nonnull align 8 dereferenceable(48) %__v)
  tail call void @_ZSt29_Rb_tree_insert_and_rebalancebPSt18_Rb_tree_node_baseS0_RS_(i1 noundef zeroext %6, ptr noundef nonnull %call5.i.i.i.i.i.i, ptr noundef nonnull %1, ptr noundef nonnull align 8 dereferenceable(32) %add.ptr.i.i) #21
  %_M_node_count.i = getelementptr inbounds i8, ptr %this, i64 40
  %8 = load i64, ptr %_M_node_count.i, align 8, !tbaa !49
  %inc.i = add i64 %8, 1
  store i64 %inc.i, ptr %_M_node_count.i, align 8, !tbaa !49
  br label %cleanup

cleanup:                                          ; preds = %entry, %_ZNSt8_Rb_treeINSt7__cxx1112basic_stringIcSt11char_traitsIcESaIcEEESt4pairIKS5_N9benchmark7CounterEESt10_Select1stISA_ESt4lessIS5_ESaISA_EE10_M_insert_IRKSA_NSG_11_Alloc_nodeEEESt17_Rb_tree_iteratorISA_EPSt18_Rb_tree_node_baseSO_OT_RT0_.exit
  %retval.sroa.0.0 = phi ptr [ %call5.i.i.i.i.i.i, %_ZNSt8_Rb_treeINSt7__cxx1112basic_stringIcSt11char_traitsIcESaIcEEESt4pairIKS5_N9benchmark7CounterEESt10_Select1stISA_ESt4lessIS5_ESaISA_EE10_M_insert_IRKSA_NSG_11_Alloc_nodeEEESt17_Rb_tree_iteratorISA_EPSt18_Rb_tree_node_baseSO_OT_RT0_.exit ], [ %0, %entry ]
  ret ptr %retval.sroa.0.0
}

; Function Attrs: uwtable
define linkonce_odr hidden { ptr, ptr } @_ZNSt8_Rb_treeINSt7__cxx1112basic_stringIcSt11char_traitsIcESaIcEEESt4pairIKS5_N9benchmark7CounterEESt10_Select1stISA_ESt4lessIS5_ESaISA_EE29_M_get_insert_hint_unique_posESt23_Rb_tree_const_iteratorISA_ERS7_(ptr noundef nonnull align 8 dereferenceable(48) %this, ptr %__position.coerce, ptr noundef nonnull align 8 dereferenceable(32) %__k) local_unnamed_addr #3 comdat align 2 personality ptr @__gxx_personality_v0 {
entry:
  %add.ptr.i = getelementptr inbounds i8, ptr %this, i64 8
  %cmp = icmp eq ptr %add.ptr.i, %__position.coerce
  br i1 %cmp, label %if.then, label %if.else12

if.then:                                          ; preds = %entry
  %_M_node_count.i = getelementptr inbounds i8, ptr %this, i64 40
  %0 = load i64, ptr %_M_node_count.i, align 8, !tbaa !49
  %cmp5.not = icmp eq i64 %0, 0
  br i1 %cmp5.not, label %if.else, label %land.lhs.true

land.lhs.true:                                    ; preds = %if.then
  %_M_right.i = getelementptr inbounds i8, ptr %this, i64 32
  %1 = load ptr, ptr %_M_right.i, align 8, !tbaa !25
  %_M_string_length.i.i.i.i = getelementptr inbounds %"struct.std::_Rb_tree_node", ptr %1, i64 0, i32 1, i32 0, i64 8
  %2 = load i64, ptr %_M_string_length.i.i.i.i, align 8, !tbaa !15
  %_M_string_length.i10.i.i.i = getelementptr inbounds %"class.std::__cxx11::basic_string", ptr %__k, i64 0, i32 1
  %3 = load i64, ptr %_M_string_length.i10.i.i.i, align 8, !tbaa !15
  %.sroa.speculated.i.i.i = tail call i64 @llvm.umin.i64(i64 %2, i64 %3)
  %cmp.i11.i.i.i = icmp eq i64 %.sroa.speculated.i.i.i, 0
  br i1 %cmp.i11.i.i.i, label %if.then.i.i.i, label %_ZNSt11char_traitsIcE7compareEPKcS2_m.exit.i.i.i

_ZNSt11char_traitsIcE7compareEPKcS2_m.exit.i.i.i: ; preds = %land.lhs.true
  %_M_storage.i.i.i = getelementptr inbounds %"struct.std::_Rb_tree_node", ptr %1, i64 0, i32 1
  %4 = load ptr, ptr %__k, align 8, !tbaa !12
  %5 = load ptr, ptr %_M_storage.i.i.i, align 8, !tbaa !12
  %call.i.i.i.i = tail call i32 @memcmp(ptr noundef %5, ptr noundef %4, i64 noundef %.sroa.speculated.i.i.i) #21
  %tobool.not.i.i.i = icmp eq i32 %call.i.i.i.i, 0
  br i1 %tobool.not.i.i.i, label %if.then.i.i.i, label %_ZNKSt4lessINSt7__cxx1112basic_stringIcSt11char_traitsIcESaIcEEEEclERKS5_S8_.exit

if.then.i.i.i:                                    ; preds = %_ZNSt11char_traitsIcE7compareEPKcS2_m.exit.i.i.i, %land.lhs.true
  %sub.i.i.i.i = sub i64 %2, %3
  %spec.select6.i.i.i.i = tail call i64 @llvm.smax.i64(i64 %sub.i.i.i.i, i64 -2147483648)
  %retval.07.i.i.i.i = tail call i64 @llvm.smin.i64(i64 %spec.select6.i.i.i.i, i64 2147483647)
  %retval.0.i12.i.i.i = trunc i64 %retval.07.i.i.i.i to i32
  br label %_ZNKSt4lessINSt7__cxx1112basic_stringIcSt11char_traitsIcESaIcEEEEclERKS5_S8_.exit

_ZNKSt4lessINSt7__cxx1112basic_stringIcSt11char_traitsIcESaIcEEEEclERKS5_S8_.exit: ; preds = %_ZNSt11char_traitsIcE7compareEPKcS2_m.exit.i.i.i, %if.then.i.i.i
  %__r.0.i.i.i = phi i32 [ %call.i.i.i.i, %_ZNSt11char_traitsIcE7compareEPKcS2_m.exit.i.i.i ], [ %retval.0.i12.i.i.i, %if.then.i.i.i ]
  %cmp.i.i = icmp slt i32 %__r.0.i.i.i, 0
  br i1 %cmp.i.i, label %cleanup80, label %if.else

if.else:                                          ; preds = %_ZNKSt4lessINSt7__cxx1112basic_stringIcSt11char_traitsIcESaIcEEEEclERKS5_S8_.exit, %if.then
  %call11 = tail call { ptr, ptr } @_ZNSt8_Rb_treeINSt7__cxx1112basic_stringIcSt11char_traitsIcESaIcEEESt4pairIKS5_N9benchmark7CounterEESt10_Select1stISA_ESt4lessIS5_ESaISA_EE24_M_get_insert_unique_posERS7_(ptr noundef nonnull align 8 dereferenceable(48) %this, ptr noundef nonnull align 8 dereferenceable(32) %__k)
  %6 = extractvalue { ptr, ptr } %call11, 0
  %7 = extractvalue { ptr, ptr } %call11, 1
  br label %cleanup80

if.else12:                                        ; preds = %entry
  %_M_string_length.i.i.i.i90 = getelementptr inbounds %"class.std::__cxx11::basic_string", ptr %__k, i64 0, i32 1
  %8 = load i64, ptr %_M_string_length.i.i.i.i90, align 8, !tbaa !15
  %_M_string_length.i10.i.i.i91 = getelementptr inbounds %"struct.std::_Rb_tree_node", ptr %__position.coerce, i64 0, i32 1, i32 0, i64 8
  %9 = load i64, ptr %_M_string_length.i10.i.i.i91, align 8, !tbaa !15
  %.sroa.speculated.i.i.i92 = tail call i64 @llvm.umin.i64(i64 %8, i64 %9)
  %cmp.i11.i.i.i93 = icmp eq i64 %.sroa.speculated.i.i.i92, 0
  br i1 %cmp.i11.i.i.i93, label %_ZNKSt4lessINSt7__cxx1112basic_stringIcSt11char_traitsIcESaIcEEEEclERKS5_S8_.exit104, label %_ZNSt11char_traitsIcE7compareEPKcS2_m.exit.i.i.i96

_ZNSt11char_traitsIcE7compareEPKcS2_m.exit.i.i.i96: ; preds = %if.else12
  %_M_storage.i.i.i89 = getelementptr inbounds %"struct.std::_Rb_tree_node", ptr %__position.coerce, i64 0, i32 1
  %10 = load ptr, ptr %_M_storage.i.i.i89, align 8, !tbaa !12
  %11 = load ptr, ptr %__k, align 8, !tbaa !12
  %call.i.i.i.i94 = tail call i32 @memcmp(ptr noundef %11, ptr noundef %10, i64 noundef %.sroa.speculated.i.i.i92) #21
  %tobool.not.i.i.i95 = icmp eq i32 %call.i.i.i.i94, 0
  br i1 %tobool.not.i.i.i95, label %_ZNKSt4lessINSt7__cxx1112basic_stringIcSt11char_traitsIcESaIcEEEEclERKS5_S8_.exit104.thread183, label %_ZNKSt4lessINSt7__cxx1112basic_stringIcSt11char_traitsIcESaIcEEEEclERKS5_S8_.exit104.thread

_ZNKSt4lessINSt7__cxx1112basic_stringIcSt11char_traitsIcESaIcEEEEclERKS5_S8_.exit104: ; preds = %if.else12
  %sub.i.i.i.i97 = sub i64 %8, %9
  %spec.select6.i.i.i.i98 = tail call i64 @llvm.smax.i64(i64 %sub.i.i.i.i97, i64 -2147483648)
  %retval.07.i.i.i.i99 = tail call i64 @llvm.smin.i64(i64 %spec.select6.i.i.i.i98, i64 2147483647)
  %12 = and i64 %retval.07.i.i.i.i99, 2147483648
  %cmp.i.i103.not = icmp eq i64 %12, 0
  br i1 %cmp.i.i103.not, label %if.then.i.i.i139, label %if.then18

_ZNKSt4lessINSt7__cxx1112basic_stringIcSt11char_traitsIcESaIcEEEEclERKS5_S8_.exit104.thread183: ; preds = %_ZNSt11char_traitsIcE7compareEPKcS2_m.exit.i.i.i96
  %sub.i.i.i.i97184 = sub i64 %8, %9
  %spec.select6.i.i.i.i98185 = tail call i64 @llvm.smax.i64(i64 %sub.i.i.i.i97184, i64 -2147483648)
  %retval.07.i.i.i.i99186 = tail call i64 @llvm.smin.i64(i64 %spec.select6.i.i.i.i98185, i64 2147483647)
  %13 = and i64 %retval.07.i.i.i.i99186, 2147483648
  %cmp.i.i103188.not = icmp eq i64 %13, 0
  br i1 %cmp.i.i103188.not, label %_ZNSt11char_traitsIcE7compareEPKcS2_m.exit.i.i.i134, label %if.then18

_ZNKSt4lessINSt7__cxx1112basic_stringIcSt11char_traitsIcESaIcEEEEclERKS5_S8_.exit104.thread: ; preds = %_ZNSt11char_traitsIcE7compareEPKcS2_m.exit.i.i.i96
  %cmp.i.i103182 = icmp slt i32 %call.i.i.i.i94, 0
  br i1 %cmp.i.i103182, label %if.then18, label %_ZNSt11char_traitsIcE7compareEPKcS2_m.exit.i.i.i134

if.then18:                                        ; preds = %_ZNKSt4lessINSt7__cxx1112basic_stringIcSt11char_traitsIcESaIcEEEEclERKS5_S8_.exit104.thread183, %_ZNKSt4lessINSt7__cxx1112basic_stringIcSt11char_traitsIcESaIcEEEEclERKS5_S8_.exit104.thread, %_ZNKSt4lessINSt7__cxx1112basic_stringIcSt11char_traitsIcESaIcEEEEclERKS5_S8_.exit104
  %_M_left.i = getelementptr inbounds i8, ptr %this, i64 24
  %14 = load ptr, ptr %_M_left.i, align 8, !tbaa !25
  %cmp21 = icmp eq ptr %14, %__position.coerce
  br i1 %cmp21, label %cleanup80, label %if.else25

if.else25:                                        ; preds = %if.then18
  %call.i = tail call noundef ptr @_ZSt18_Rb_tree_decrementPSt18_Rb_tree_node_base(ptr noundef nonnull %__position.coerce) #26
  %_M_string_length.i.i.i.i109 = getelementptr inbounds %"struct.std::_Rb_tree_node", ptr %call.i, i64 0, i32 1, i32 0, i64 8
  %15 = load i64, ptr %_M_string_length.i.i.i.i109, align 8, !tbaa !15
  %.sroa.speculated.i.i.i111 = tail call i64 @llvm.umin.i64(i64 %15, i64 %8)
  %cmp.i11.i.i.i112 = icmp eq i64 %.sroa.speculated.i.i.i111, 0
  br i1 %cmp.i11.i.i.i112, label %if.then.i.i.i120, label %_ZNSt11char_traitsIcE7compareEPKcS2_m.exit.i.i.i115

_ZNSt11char_traitsIcE7compareEPKcS2_m.exit.i.i.i115: ; preds = %if.else25
  %_M_storage.i.i.i108 = getelementptr inbounds %"struct.std::_Rb_tree_node", ptr %call.i, i64 0, i32 1
  %16 = load ptr, ptr %__k, align 8, !tbaa !12
  %17 = load ptr, ptr %_M_storage.i.i.i108, align 8, !tbaa !12
  %call.i.i.i.i113 = tail call i32 @memcmp(ptr noundef %17, ptr noundef %16, i64 noundef %.sroa.speculated.i.i.i111) #21
  %tobool.not.i.i.i114 = icmp eq i32 %call.i.i.i.i113, 0
  br i1 %tobool.not.i.i.i114, label %if.then.i.i.i120, label %_ZNKSt4lessINSt7__cxx1112basic_stringIcSt11char_traitsIcESaIcEEEEclERKS5_S8_.exit123

if.then.i.i.i120:                                 ; preds = %_ZNSt11char_traitsIcE7compareEPKcS2_m.exit.i.i.i115, %if.else25
  %sub.i.i.i.i116 = sub i64 %15, %8
  %spec.select6.i.i.i.i117 = tail call i64 @llvm.smax.i64(i64 %sub.i.i.i.i116, i64 -2147483648)
  %retval.07.i.i.i.i118 = tail call i64 @llvm.smin.i64(i64 %spec.select6.i.i.i.i117, i64 2147483647)
  %retval.0.i12.i.i.i119 = trunc i64 %retval.07.i.i.i.i118 to i32
  br label %_ZNKSt4lessINSt7__cxx1112basic_stringIcSt11char_traitsIcESaIcEEEEclERKS5_S8_.exit123

_ZNKSt4lessINSt7__cxx1112basic_stringIcSt11char_traitsIcESaIcEEEEclERKS5_S8_.exit123: ; preds = %_ZNSt11char_traitsIcE7compareEPKcS2_m.exit.i.i.i115, %if.then.i.i.i120
  %__r.0.i.i.i121 = phi i32 [ %call.i.i.i.i113, %_ZNSt11char_traitsIcE7compareEPKcS2_m.exit.i.i.i115 ], [ %retval.0.i12.i.i.i119, %if.then.i.i.i120 ]
  %cmp.i.i122 = icmp slt i32 %__r.0.i.i.i121, 0
  br i1 %cmp.i.i122, label %if.then32, label %if.else42

if.then32:                                        ; preds = %_ZNKSt4lessINSt7__cxx1112basic_stringIcSt11char_traitsIcESaIcEEEEclERKS5_S8_.exit123
  %_M_right.i124 = getelementptr inbounds %"struct.std::_Rb_tree_node_base", ptr %call.i, i64 0, i32 3
  %18 = load ptr, ptr %_M_right.i124, align 8, !tbaa !53
  %cmp35 = icmp eq ptr %18, null
  %.__position.coerce = select i1 %cmp35, ptr null, ptr %__position.coerce
  %call.i.__position.coerce = select i1 %cmp35, ptr %call.i, ptr %__position.coerce
  br label %cleanup80

if.else42:                                        ; preds = %_ZNKSt4lessINSt7__cxx1112basic_stringIcSt11char_traitsIcESaIcEEEEclERKS5_S8_.exit123
  %call43 = tail call { ptr, ptr } @_ZNSt8_Rb_treeINSt7__cxx1112basic_stringIcSt11char_traitsIcESaIcEEESt4pairIKS5_N9benchmark7CounterEESt10_Select1stISA_ESt4lessIS5_ESaISA_EE24_M_get_insert_unique_posERS7_(ptr noundef nonnull align 8 dereferenceable(48) %this, ptr noundef nonnull align 8 dereferenceable(32) %__k)
  %19 = extractvalue { ptr, ptr } %call43, 0
  %20 = extractvalue { ptr, ptr } %call43, 1
  br label %cleanup80

_ZNSt11char_traitsIcE7compareEPKcS2_m.exit.i.i.i134: ; preds = %_ZNKSt4lessINSt7__cxx1112basic_stringIcSt11char_traitsIcESaIcEEEEclERKS5_S8_.exit104.thread183, %_ZNKSt4lessINSt7__cxx1112basic_stringIcSt11char_traitsIcESaIcEEEEclERKS5_S8_.exit104.thread
  %call.i.i.i.i132 = tail call i32 @memcmp(ptr noundef %10, ptr noundef %11, i64 noundef %.sroa.speculated.i.i.i92) #21
  %tobool.not.i.i.i133 = icmp eq i32 %call.i.i.i.i132, 0
  br i1 %tobool.not.i.i.i133, label %if.then.i.i.i139, label %_ZNKSt4lessINSt7__cxx1112basic_stringIcSt11char_traitsIcESaIcEEEEclERKS5_S8_.exit142

if.then.i.i.i139:                                 ; preds = %_ZNKSt4lessINSt7__cxx1112basic_stringIcSt11char_traitsIcESaIcEEEEclERKS5_S8_.exit104, %_ZNSt11char_traitsIcE7compareEPKcS2_m.exit.i.i.i134
  %sub.i.i.i.i135 = sub i64 %9, %8
  %spec.select6.i.i.i.i136 = tail call i64 @llvm.smax.i64(i64 %sub.i.i.i.i135, i64 -2147483648)
  %retval.07.i.i.i.i137 = tail call i64 @llvm.smin.i64(i64 %spec.select6.i.i.i.i136, i64 2147483647)
  %retval.0.i12.i.i.i138 = trunc i64 %retval.07.i.i.i.i137 to i32
  br label %_ZNKSt4lessINSt7__cxx1112basic_stringIcSt11char_traitsIcESaIcEEEEclERKS5_S8_.exit142

_ZNKSt4lessINSt7__cxx1112basic_stringIcSt11char_traitsIcESaIcEEEEclERKS5_S8_.exit142: ; preds = %_ZNSt11char_traitsIcE7compareEPKcS2_m.exit.i.i.i134, %if.then.i.i.i139
  %__r.0.i.i.i140 = phi i32 [ %call.i.i.i.i132, %_ZNSt11char_traitsIcE7compareEPKcS2_m.exit.i.i.i134 ], [ %retval.0.i12.i.i.i138, %if.then.i.i.i139 ]
  %cmp.i.i141 = icmp slt i32 %__r.0.i.i.i140, 0
  br i1 %cmp.i.i141, label %if.then50, label %cleanup80

if.then50:                                        ; preds = %_ZNKSt4lessINSt7__cxx1112basic_stringIcSt11char_traitsIcESaIcEEEEclERKS5_S8_.exit142
  %_M_right.i143 = getelementptr inbounds i8, ptr %this, i64 32
  %21 = load ptr, ptr %_M_right.i143, align 8, !tbaa !25
  %cmp53 = icmp eq ptr %21, %__position.coerce
  br i1 %cmp53, label %cleanup80, label %if.else57

if.else57:                                        ; preds = %if.then50
  %call.i146 = tail call noundef ptr @_ZSt18_Rb_tree_incrementPSt18_Rb_tree_node_base(ptr noundef nonnull %__position.coerce) #26
  %_M_string_length.i10.i.i.i149 = getelementptr inbounds %"struct.std::_Rb_tree_node", ptr %call.i146, i64 0, i32 1, i32 0, i64 8
  %22 = load i64, ptr %_M_string_length.i10.i.i.i149, align 8, !tbaa !15
  %.sroa.speculated.i.i.i150 = tail call i64 @llvm.umin.i64(i64 %8, i64 %22)
  %cmp.i11.i.i.i151 = icmp eq i64 %.sroa.speculated.i.i.i150, 0
  br i1 %cmp.i11.i.i.i151, label %if.then.i.i.i159, label %_ZNSt11char_traitsIcE7compareEPKcS2_m.exit.i.i.i154

_ZNSt11char_traitsIcE7compareEPKcS2_m.exit.i.i.i154: ; preds = %if.else57
  %_M_storage.i.i.i147 = getelementptr inbounds %"struct.std::_Rb_tree_node", ptr %call.i146, i64 0, i32 1
  %23 = load ptr, ptr %_M_storage.i.i.i147, align 8, !tbaa !12
  %24 = load ptr, ptr %__k, align 8, !tbaa !12
  %call.i.i.i.i152 = tail call i32 @memcmp(ptr noundef %24, ptr noundef %23, i64 noundef %.sroa.speculated.i.i.i150) #21
  %tobool.not.i.i.i153 = icmp eq i32 %call.i.i.i.i152, 0
  br i1 %tobool.not.i.i.i153, label %if.then.i.i.i159, label %_ZNKSt4lessINSt7__cxx1112basic_stringIcSt11char_traitsIcESaIcEEEEclERKS5_S8_.exit162

if.then.i.i.i159:                                 ; preds = %_ZNSt11char_traitsIcE7compareEPKcS2_m.exit.i.i.i154, %if.else57
  %sub.i.i.i.i155 = sub i64 %8, %22
  %spec.select6.i.i.i.i156 = tail call i64 @llvm.smax.i64(i64 %sub.i.i.i.i155, i64 -2147483648)
  %retval.07.i.i.i.i157 = tail call i64 @llvm.smin.i64(i64 %spec.select6.i.i.i.i156, i64 2147483647)
  %retval.0.i12.i.i.i158 = trunc i64 %retval.07.i.i.i.i157 to i32
  br label %_ZNKSt4lessINSt7__cxx1112basic_stringIcSt11char_traitsIcESaIcEEEEclERKS5_S8_.exit162

_ZNKSt4lessINSt7__cxx1112basic_stringIcSt11char_traitsIcESaIcEEEEclERKS5_S8_.exit162: ; preds = %_ZNSt11char_traitsIcE7compareEPKcS2_m.exit.i.i.i154, %if.then.i.i.i159
  %__r.0.i.i.i160 = phi i32 [ %call.i.i.i.i152, %_ZNSt11char_traitsIcE7compareEPKcS2_m.exit.i.i.i154 ], [ %retval.0.i12.i.i.i158, %if.then.i.i.i159 ]
  %cmp.i.i161 = icmp slt i32 %__r.0.i.i.i160, 0
  br i1 %cmp.i.i161, label %if.then64, label %if.else74

if.then64:                                        ; preds = %_ZNKSt4lessINSt7__cxx1112basic_stringIcSt11char_traitsIcESaIcEEEEclERKS5_S8_.exit162
  %_M_right.i163 = getelementptr inbounds %"struct.std::_Rb_tree_node_base", ptr %__position.coerce, i64 0, i32 3
  %25 = load ptr, ptr %_M_right.i163, align 8, !tbaa !53
  %cmp67 = icmp eq ptr %25, null
  %.call.i146 = select i1 %cmp67, ptr null, ptr %call.i146
  %__position.coerce.call.i146 = select i1 %cmp67, ptr %__position.coerce, ptr %call.i146
  br label %cleanup80

if.else74:                                        ; preds = %_ZNKSt4lessINSt7__cxx1112basic_stringIcSt11char_traitsIcESaIcEEEEclERKS5_S8_.exit162
  %call75 = tail call { ptr, ptr } @_ZNSt8_Rb_treeINSt7__cxx1112basic_stringIcSt11char_traitsIcESaIcEEESt4pairIKS5_N9benchmark7CounterEESt10_Select1stISA_ESt4lessIS5_ESaISA_EE24_M_get_insert_unique_posERS7_(ptr noundef nonnull align 8 dereferenceable(48) %this, ptr noundef nonnull align 8 dereferenceable(32) %__k)
  %26 = extractvalue { ptr, ptr } %call75, 0
  %27 = extractvalue { ptr, ptr } %call75, 1
  br label %cleanup80

cleanup80:                                        ; preds = %_ZNKSt4lessINSt7__cxx1112basic_stringIcSt11char_traitsIcESaIcEEEEclERKS5_S8_.exit142, %if.else74, %if.then50, %if.then64, %if.else42, %if.then18, %if.then32, %_ZNKSt4lessINSt7__cxx1112basic_stringIcSt11char_traitsIcESaIcEEEEclERKS5_S8_.exit, %if.else
  %retval.sroa.0.2 = phi ptr [ %6, %if.else ], [ null, %_ZNKSt4lessINSt7__cxx1112basic_stringIcSt11char_traitsIcESaIcEEEEclERKS5_S8_.exit ], [ %19, %if.else42 ], [ %__position.coerce, %if.then18 ], [ %.__position.coerce, %if.then32 ], [ %26, %if.else74 ], [ null, %if.then50 ], [ %.call.i146, %if.then64 ], [ %__position.coerce, %_ZNKSt4lessINSt7__cxx1112basic_stringIcSt11char_traitsIcESaIcEEEEclERKS5_S8_.exit142 ]
  %retval.sroa.12.2 = phi ptr [ %7, %if.else ], [ %1, %_ZNKSt4lessINSt7__cxx1112basic_stringIcSt11char_traitsIcESaIcEEEEclERKS5_S8_.exit ], [ %20, %if.else42 ], [ %__position.coerce, %if.then18 ], [ %call.i.__position.coerce, %if.then32 ], [ %27, %if.else74 ], [ %__position.coerce, %if.then50 ], [ %__position.coerce.call.i146, %if.then64 ], [ null, %_ZNKSt4lessINSt7__cxx1112basic_stringIcSt11char_traitsIcESaIcEEEEclERKS5_S8_.exit142 ]
  %.fca.0.insert = insertvalue { ptr, ptr } poison, ptr %retval.sroa.0.2, 0
  %.fca.1.insert = insertvalue { ptr, ptr } %.fca.0.insert, ptr %retval.sroa.12.2, 1
  ret { ptr, ptr } %.fca.1.insert
}

; Function Attrs: uwtable
define linkonce_odr hidden { ptr, ptr } @_ZNSt8_Rb_treeINSt7__cxx1112basic_stringIcSt11char_traitsIcESaIcEEESt4pairIKS5_N9benchmark7CounterEESt10_Select1stISA_ESt4lessIS5_ESaISA_EE24_M_get_insert_unique_posERS7_(ptr noundef nonnull align 8 dereferenceable(48) %this, ptr noundef nonnull align 8 dereferenceable(32) %__k) local_unnamed_addr #3 comdat align 2 personality ptr @__gxx_personality_v0 {
entry:
  %_M_parent.i.i = getelementptr inbounds i8, ptr %this, i64 16
  %add.ptr.i = getelementptr inbounds i8, ptr %this, i64 8
  %__x.054 = load ptr, ptr %_M_parent.i.i, align 8, !tbaa !25
  %cmp.not55 = icmp eq ptr %__x.054, null
  br i1 %cmp.not55, label %if.then, label %while.body.lr.ph

while.body.lr.ph:                                 ; preds = %entry
  %_M_string_length.i.i.i.i = getelementptr inbounds %"class.std::__cxx11::basic_string", ptr %__k, i64 0, i32 1
  %0 = load i64, ptr %_M_string_length.i.i.i.i, align 8, !tbaa !15
  %1 = load ptr, ptr %__k, align 8
  br label %while.body

while.body:                                       ; preds = %while.body.lr.ph, %_ZNKSt4lessINSt7__cxx1112basic_stringIcSt11char_traitsIcESaIcEEEEclERKS5_S8_.exit
  %__x.056 = phi ptr [ %__x.054, %while.body.lr.ph ], [ %__x.0, %_ZNKSt4lessINSt7__cxx1112basic_stringIcSt11char_traitsIcESaIcEEEEclERKS5_S8_.exit ]
  %_M_string_length.i10.i.i.i = getelementptr inbounds %"struct.std::_Rb_tree_node", ptr %__x.056, i64 0, i32 1, i32 0, i64 8
  %2 = load i64, ptr %_M_string_length.i10.i.i.i, align 8, !tbaa !15
  %.sroa.speculated.i.i.i = tail call i64 @llvm.umin.i64(i64 %0, i64 %2)
  %cmp.i11.i.i.i = icmp eq i64 %.sroa.speculated.i.i.i, 0
  br i1 %cmp.i11.i.i.i, label %if.then.i.i.i, label %_ZNSt11char_traitsIcE7compareEPKcS2_m.exit.i.i.i

_ZNSt11char_traitsIcE7compareEPKcS2_m.exit.i.i.i: ; preds = %while.body
  %_M_storage.i.i = getelementptr inbounds %"struct.std::_Rb_tree_node", ptr %__x.056, i64 0, i32 1
  %3 = load ptr, ptr %_M_storage.i.i, align 8, !tbaa !12
  %call.i.i.i.i = tail call i32 @memcmp(ptr noundef %1, ptr noundef %3, i64 noundef %.sroa.speculated.i.i.i) #21
  %tobool.not.i.i.i = icmp eq i32 %call.i.i.i.i, 0
  br i1 %tobool.not.i.i.i, label %if.then.i.i.i, label %_ZNKSt4lessINSt7__cxx1112basic_stringIcSt11char_traitsIcESaIcEEEEclERKS5_S8_.exit

if.then.i.i.i:                                    ; preds = %_ZNSt11char_traitsIcE7compareEPKcS2_m.exit.i.i.i, %while.body
  %sub.i.i.i.i = sub i64 %0, %2
  %spec.select6.i.i.i.i = tail call i64 @llvm.smax.i64(i64 %sub.i.i.i.i, i64 -2147483648)
  %retval.07.i.i.i.i = tail call i64 @llvm.smin.i64(i64 %spec.select6.i.i.i.i, i64 2147483647)
  %retval.0.i12.i.i.i = trunc i64 %retval.07.i.i.i.i to i32
  br label %_ZNKSt4lessINSt7__cxx1112basic_stringIcSt11char_traitsIcESaIcEEEEclERKS5_S8_.exit

_ZNKSt4lessINSt7__cxx1112basic_stringIcSt11char_traitsIcESaIcEEEEclERKS5_S8_.exit: ; preds = %_ZNSt11char_traitsIcE7compareEPKcS2_m.exit.i.i.i, %if.then.i.i.i
  %__r.0.i.i.i = phi i32 [ %call.i.i.i.i, %_ZNSt11char_traitsIcE7compareEPKcS2_m.exit.i.i.i ], [ %retval.0.i12.i.i.i, %if.then.i.i.i ]
  %cmp.i.i = icmp slt i32 %__r.0.i.i.i, 0
  %_M_left.i = getelementptr inbounds %"struct.std::_Rb_tree_node_base", ptr %__x.056, i64 0, i32 2
  %_M_right.i = getelementptr inbounds %"struct.std::_Rb_tree_node_base", ptr %__x.056, i64 0, i32 3
  %cond.in = select i1 %cmp.i.i, ptr %_M_left.i, ptr %_M_right.i
  %__x.0 = load ptr, ptr %cond.in, align 8, !tbaa !25
  %cmp.not = icmp eq ptr %__x.0, null
  br i1 %cmp.not, label %while.end, label %while.body, !llvm.loop !54

while.end:                                        ; preds = %_ZNKSt4lessINSt7__cxx1112basic_stringIcSt11char_traitsIcESaIcEEEEclERKS5_S8_.exit
  br i1 %cmp.i.i, label %if.then, label %if.end12

if.then:                                          ; preds = %entry, %while.end
  %__y.0.lcssa62 = phi ptr [ %__x.056, %while.end ], [ %add.ptr.i, %entry ]
  %_M_left.i26 = getelementptr inbounds i8, ptr %this, i64 24
  %4 = load ptr, ptr %_M_left.i26, align 8, !tbaa !56
  %cmp.i = icmp eq ptr %__y.0.lcssa62, %4
  br i1 %cmp.i, label %cleanup, label %if.else

if.else:                                          ; preds = %if.then
  %call.i = tail call noundef ptr @_ZSt18_Rb_tree_decrementPSt18_Rb_tree_node_base(ptr noundef nonnull %__y.0.lcssa62) #26
  br label %if.end12

if.end12:                                         ; preds = %if.else, %while.end
  %__y.0.lcssa63 = phi ptr [ %__y.0.lcssa62, %if.else ], [ %__x.056, %while.end ]
  %__j.sroa.0.0 = phi ptr [ %call.i, %if.else ], [ %__x.056, %while.end ]
  %_M_string_length.i.i.i.i27 = getelementptr inbounds %"struct.std::_Rb_tree_node", ptr %__j.sroa.0.0, i64 0, i32 1, i32 0, i64 8
  %5 = load i64, ptr %_M_string_length.i.i.i.i27, align 8, !tbaa !15
  %_M_string_length.i10.i.i.i28 = getelementptr inbounds %"class.std::__cxx11::basic_string", ptr %__k, i64 0, i32 1
  %6 = load i64, ptr %_M_string_length.i10.i.i.i28, align 8, !tbaa !15
  %.sroa.speculated.i.i.i29 = tail call i64 @llvm.umin.i64(i64 %5, i64 %6)
  %cmp.i11.i.i.i30 = icmp eq i64 %.sroa.speculated.i.i.i29, 0
  br i1 %cmp.i11.i.i.i30, label %if.then.i.i.i38, label %_ZNSt11char_traitsIcE7compareEPKcS2_m.exit.i.i.i33

_ZNSt11char_traitsIcE7compareEPKcS2_m.exit.i.i.i33: ; preds = %if.end12
  %_M_storage.i.i.i = getelementptr inbounds %"struct.std::_Rb_tree_node", ptr %__j.sroa.0.0, i64 0, i32 1
  %7 = load ptr, ptr %__k, align 8, !tbaa !12
  %8 = load ptr, ptr %_M_storage.i.i.i, align 8, !tbaa !12
  %call.i.i.i.i31 = tail call i32 @memcmp(ptr noundef %8, ptr noundef %7, i64 noundef %.sroa.speculated.i.i.i29) #21
  %tobool.not.i.i.i32 = icmp eq i32 %call.i.i.i.i31, 0
  br i1 %tobool.not.i.i.i32, label %if.then.i.i.i38, label %_ZNKSt4lessINSt7__cxx1112basic_stringIcSt11char_traitsIcESaIcEEEEclERKS5_S8_.exit41

if.then.i.i.i38:                                  ; preds = %_ZNSt11char_traitsIcE7compareEPKcS2_m.exit.i.i.i33, %if.end12
  %sub.i.i.i.i34 = sub i64 %5, %6
  %spec.select6.i.i.i.i35 = tail call i64 @llvm.smax.i64(i64 %sub.i.i.i.i34, i64 -2147483648)
  %retval.07.i.i.i.i36 = tail call i64 @llvm.smin.i64(i64 %spec.select6.i.i.i.i35, i64 2147483647)
  %retval.0.i12.i.i.i37 = trunc i64 %retval.07.i.i.i.i36 to i32
  br label %_ZNKSt4lessINSt7__cxx1112basic_stringIcSt11char_traitsIcESaIcEEEEclERKS5_S8_.exit41

_ZNKSt4lessINSt7__cxx1112basic_stringIcSt11char_traitsIcESaIcEEEEclERKS5_S8_.exit41: ; preds = %_ZNSt11char_traitsIcE7compareEPKcS2_m.exit.i.i.i33, %if.then.i.i.i38
  %__r.0.i.i.i39 = phi i32 [ %call.i.i.i.i31, %_ZNSt11char_traitsIcE7compareEPKcS2_m.exit.i.i.i33 ], [ %retval.0.i12.i.i.i37, %if.then.i.i.i38 ]
  %cmp.i.i40 = icmp slt i32 %__r.0.i.i.i39, 0
  %__x.0.__j.sroa.0.0 = select i1 %cmp.i.i40, ptr null, ptr %__j.sroa.0.0
  %__y.0. = select i1 %cmp.i.i40, ptr %__y.0.lcssa63, ptr null
  br label %cleanup

cleanup:                                          ; preds = %_ZNKSt4lessINSt7__cxx1112basic_stringIcSt11char_traitsIcESaIcEEEEclERKS5_S8_.exit41, %if.then
  %retval.sroa.0.0 = phi ptr [ null, %if.then ], [ %__x.0.__j.sroa.0.0, %_ZNKSt4lessINSt7__cxx1112basic_stringIcSt11char_traitsIcESaIcEEEEclERKS5_S8_.exit41 ]
  %retval.sroa.4.0 = phi ptr [ %__y.0.lcssa62, %if.then ], [ %__y.0., %_ZNKSt4lessINSt7__cxx1112basic_stringIcSt11char_traitsIcESaIcEEEEclERKS5_S8_.exit41 ]
  %.fca.0.insert = insertvalue { ptr, ptr } poison, ptr %retval.sroa.0.0, 0
  %.fca.1.insert = insertvalue { ptr, ptr } %.fca.0.insert, ptr %retval.sroa.4.0, 1
  ret { ptr, ptr } %.fca.1.insert
}

; Function Attrs: mustprogress nofree nounwind willreturn memory(argmem: read)
declare i32 @memcmp(ptr nocapture noundef, ptr nocapture noundef, i64 noundef) local_unnamed_addr #13

; Function Attrs: mustprogress nofree nounwind willreturn memory(read)
declare noundef ptr @_ZSt18_Rb_tree_decrementPSt18_Rb_tree_node_base(ptr noundef) local_unnamed_addr #17

; Function Attrs: mustprogress nofree nounwind willreturn memory(read)
declare noundef ptr @_ZSt18_Rb_tree_incrementPSt18_Rb_tree_node_base(ptr noundef) local_unnamed_addr #17

; Function Attrs: nounwind
declare void @_ZSt29_Rb_tree_insert_and_rebalancebPSt18_Rb_tree_node_baseS0_RS_(i1 noundef zeroext, ptr noundef, ptr noundef, ptr noundef nonnull align 8 dereferenceable(32)) local_unnamed_addr #1

; Function Attrs: uwtable
define linkonce_odr hidden void @_ZNSt8_Rb_treeINSt7__cxx1112basic_stringIcSt11char_traitsIcESaIcEEESt4pairIKS5_N9benchmark7CounterEESt10_Select1stISA_ESt4lessIS5_ESaISA_EE17_M_construct_nodeIJRKSA_EEEvPSt13_Rb_tree_nodeISA_EDpOT_(ptr noundef nonnull align 8 dereferenceable(48) %this, ptr noundef %__node, ptr noundef nonnull align 8 dereferenceable(48) %__args) local_unnamed_addr #3 comdat align 2 personality ptr @__gxx_personality_v0 {
entry:
  %__dnew.i.i.i.i.i = alloca i64, align 8
  %_M_storage.i = getelementptr inbounds %"struct.std::_Rb_tree_node", ptr %__node, i64 0, i32 1
  %0 = getelementptr inbounds %"struct.std::_Rb_tree_node", ptr %__node, i64 0, i32 1, i32 0, i64 16
  store ptr %0, ptr %_M_storage.i, align 8, !tbaa !5
  %1 = load ptr, ptr %__args, align 8, !tbaa !12
  %_M_string_length.i.i.i.i.i = getelementptr inbounds %"class.std::__cxx11::basic_string", ptr %__args, i64 0, i32 1
  %2 = load i64, ptr %_M_string_length.i.i.i.i.i, align 8, !tbaa !15
  call void @llvm.lifetime.start.p0(i64 8, ptr nonnull %__dnew.i.i.i.i.i) #21
  store i64 %2, ptr %__dnew.i.i.i.i.i, align 8, !tbaa !10
  %cmp.i.i.i.i.i = icmp ugt i64 %2, 15
  br i1 %cmp.i.i.i.i.i, label %if.then.i.i.i.i.i, label %if.end.i.i.i.i.i

if.then.i.i.i.i.i:                                ; preds = %entry
  %call2.i12.i.i.i.i11 = invoke noundef ptr @_ZNSt7__cxx1112basic_stringIcSt11char_traitsIcESaIcEE9_M_createERmm(ptr noundef nonnull align 8 dereferenceable(32) %_M_storage.i, ptr noundef nonnull align 8 dereferenceable(8) %__dnew.i.i.i.i.i, i64 noundef 0)
          to label %call2.i12.i.i.i.i.noexc unwind label %lpad

call2.i12.i.i.i.i.noexc:                          ; preds = %if.then.i.i.i.i.i
  store ptr %call2.i12.i.i.i.i11, ptr %_M_storage.i, align 8, !tbaa !12
  %3 = load i64, ptr %__dnew.i.i.i.i.i, align 8, !tbaa !10
  store i64 %3, ptr %0, align 8, !tbaa !14
  br label %if.end.i.i.i.i.i

if.end.i.i.i.i.i:                                 ; preds = %call2.i12.i.i.i.i.noexc, %entry
  %4 = phi ptr [ %call2.i12.i.i.i.i11, %call2.i12.i.i.i.i.noexc ], [ %0, %entry ]
  switch i64 %2, label %if.end.i.i.i.i.i.i.i.i [
    i64 1, label %if.then.i.i.i.i.i.i.i
    i64 0, label %_ZNSt16allocator_traitsISaISt13_Rb_tree_nodeISt4pairIKNSt7__cxx1112basic_stringIcSt11char_traitsIcESaIcEEEN9benchmark7CounterEEEEE9constructISB_JRKSB_EEEvRSD_PT_DpOT0_.exit
  ]

if.then.i.i.i.i.i.i.i:                            ; preds = %if.end.i.i.i.i.i
  %5 = load i8, ptr %1, align 1, !tbaa !14
  store i8 %5, ptr %4, align 1, !tbaa !14
  br label %_ZNSt16allocator_traitsISaISt13_Rb_tree_nodeISt4pairIKNSt7__cxx1112basic_stringIcSt11char_traitsIcESaIcEEEN9benchmark7CounterEEEEE9constructISB_JRKSB_EEEvRSD_PT_DpOT0_.exit

if.end.i.i.i.i.i.i.i.i:                           ; preds = %if.end.i.i.i.i.i
  call void @llvm.memcpy.p0.p0.i64(ptr align 1 %4, ptr align 1 %1, i64 %2, i1 false)
  br label %_ZNSt16allocator_traitsISaISt13_Rb_tree_nodeISt4pairIKNSt7__cxx1112basic_stringIcSt11char_traitsIcESaIcEEEN9benchmark7CounterEEEEE9constructISB_JRKSB_EEEvRSD_PT_DpOT0_.exit

_ZNSt16allocator_traitsISaISt13_Rb_tree_nodeISt4pairIKNSt7__cxx1112basic_stringIcSt11char_traitsIcESaIcEEEN9benchmark7CounterEEEEE9constructISB_JRKSB_EEEvRSD_PT_DpOT0_.exit: ; preds = %if.end.i.i.i.i.i, %if.then.i.i.i.i.i.i.i, %if.end.i.i.i.i.i.i.i.i
  %6 = load i64, ptr %__dnew.i.i.i.i.i, align 8, !tbaa !10
  %_M_string_length.i.i.i.i.i.i.i = getelementptr inbounds %"struct.std::_Rb_tree_node", ptr %__node, i64 0, i32 1, i32 0, i64 8
  store i64 %6, ptr %_M_string_length.i.i.i.i.i.i.i, align 8, !tbaa !15
  %7 = load ptr, ptr %_M_storage.i, align 8, !tbaa !12
  %arrayidx.i.i.i.i.i.i = getelementptr inbounds i8, ptr %7, i64 %6
  store i8 0, ptr %arrayidx.i.i.i.i.i.i, align 1, !tbaa !14
  call void @llvm.lifetime.end.p0(i64 8, ptr nonnull %__dnew.i.i.i.i.i) #21
  %second.i.i.i = getelementptr inbounds %"struct.std::_Rb_tree_node", ptr %__node, i64 0, i32 1, i32 0, i64 32
  %second3.i.i.i = getelementptr inbounds %"struct.std::pair", ptr %__args, i64 0, i32 1
  call void @llvm.memcpy.p0.p0.i64(ptr noundef nonnull align 8 dereferenceable(16) %second.i.i.i, ptr noundef nonnull align 8 dereferenceable(16) %second3.i.i.i, i64 16, i1 false), !tbaa.struct !16
  ret void

lpad:                                             ; preds = %if.then.i.i.i.i.i
  %8 = landingpad { ptr, i32 }
          catch ptr null
  %9 = extractvalue { ptr, i32 } %8, 0
  %10 = call ptr @__cxa_begin_catch(ptr %9) #21
