; ModuleID = '/usr/local/google/home/aeubanks/repos/test-suite/MultiSource/Applications/kimwitu++/occur.cc'
source_filename = "/usr/local/google/home/aeubanks/repos/test-suite/MultiSource/Applications/kimwitu++/occur.cc"
target datalayout = "e-m:e-p270:32:32-p271:32:32-p272:64:64-i64:64-f80:128-n8:16:32:64-S128"
target triple = "x86_64-unknown-linux-gnu"

%"class.kc::impl_ID_Id" = type { %"class.kc::impl_ID", ptr }
%"class.kc::impl_ID" = type { %"class.kc::impl_abstract_phylum", ptr, ptr, i32, ptr }
%"class.kc::impl_abstract_phylum" = type { ptr }
%"class.kc::impl_uniqID" = type { %"class.kc::impl_abstract_phylum", ptr, i32, ptr, ptr }
%"class.kc::impl_IDtype_ITUserFunction" = type { %"class.kc::impl_IDtype", ptr }
%"class.kc::impl_IDtype" = type { %"class.kc::impl_abstract_phylum" }
%"class.kc::impl_IDtype_ITPatternVariable" = type { %"class.kc::impl_IDtype", ptr, ptr }
%"class.kc::impl_IDtype_ITUserPhylum" = type { %"class.kc::impl_IDtype", ptr }
%"class.kc::impl_phylumdeclaration_PhylumDeclaration" = type { %"class.kc::impl_phylumdeclaration", ptr, ptr, ptr, ptr }
%"class.kc::impl_phylumdeclaration" = type { %"class.kc::impl_abstract_phylum", i32, ptr, ptr }
%"class.kc::impl_languagenames" = type { %"class.kc::impl_abstract_list", ptr, ptr }
%"class.kc::impl_abstract_list" = type { %"class.kc::impl_abstract_phylum" }

@.str = private unnamed_addr constant [11 x i8] c"v_defoccur\00", align 1
@.str.1 = private unnamed_addr constant [93 x i8] c"/usr/local/google/home/aeubanks/repos/test-suite/MultiSource/Applications/kimwitu++/occur.cc\00", align 1
@.str.2 = private unnamed_addr constant [40 x i8] c"illegal redefinition of local function:\00", align 1
@.str.3 = private unnamed_addr constant [42 x i8] c"illegal redefinition of pattern variable:\00", align 1
@.str.4 = private unnamed_addr constant [38 x i8] c"illegal redefinition of rewrite view:\00", align 1
@.str.5 = private unnamed_addr constant [49 x i8] c"illegal redefinition of predefined rewrite view:\00", align 1
@.str.6 = private unnamed_addr constant [39 x i8] c"illegal predefinition of rewrite view:\00", align 1
@.str.7 = private unnamed_addr constant [50 x i8] c"illegal predefinition of predefined rewrite view:\00", align 1
@.str.8 = private unnamed_addr constant [38 x i8] c"illegal redefinition of unparse view:\00", align 1
@.str.9 = private unnamed_addr constant [49 x i8] c"illegal redefinition of predefined unparse view:\00", align 1
@.str.10 = private unnamed_addr constant [39 x i8] c"illegal predefinition of unparse view:\00", align 1
@.str.11 = private unnamed_addr constant [50 x i8] c"illegal predefinition of predefined unparse view:\00", align 1
@.str.12 = private unnamed_addr constant [39 x i8] c"illegal redefinition of storage class:\00", align 1
@.str.13 = private unnamed_addr constant [50 x i8] c"illegal redefinition of predefined storage class:\00", align 1
@.str.14 = private unnamed_addr constant [40 x i8] c"illegal predefinition of storage class:\00", align 1
@.str.15 = private unnamed_addr constant [51 x i8] c"illegal predefinition of predefined storage class:\00", align 1
@.str.16 = private unnamed_addr constant [34 x i8] c"illegal redefinition of operator:\00", align 1
@.str.17 = private unnamed_addr constant [45 x i8] c"illegal redefinition of predefined operator:\00", align 1
@.str.18 = private unnamed_addr constant [35 x i8] c"illegal predefinition of operator:\00", align 1
@.str.19 = private unnamed_addr constant [46 x i8] c"illegal predefinition of predefined operator:\00", align 1
@.str.20 = private unnamed_addr constant [32 x i8] c"illegal redefinition of phylum:\00", align 1
@.str.21 = private unnamed_addr constant [43 x i8] c"illegal redefinition of predefined phylum:\00", align 1
@.str.22 = private unnamed_addr constant [33 x i8] c"illegal predefinition of phylum:\00", align 1
@.str.23 = private unnamed_addr constant [44 x i8] c"illegal predefinition of predefined phylum:\00", align 1
@.str.24 = private unnamed_addr constant [25 x i8] c"illegal redefinition of \00", align 1
@.str.25 = private unnamed_addr constant [20 x i8] c"as pattern variable\00", align 1
@.str.26 = private unnamed_addr constant [16 x i8] c"as rewrite view\00", align 1
@.str.27 = private unnamed_addr constant [26 x i8] c"illegal predefinition of \00", align 1
@.str.28 = private unnamed_addr constant [16 x i8] c"as unparse view\00", align 1
@.str.29 = private unnamed_addr constant [12 x i8] c"as function\00", align 1
@.str.30 = private unnamed_addr constant [17 x i8] c"as storage class\00", align 1
@.str.31 = private unnamed_addr constant [18 x i8] c"as storage class:\00", align 1
@.str.32 = private unnamed_addr constant [13 x i8] c"as operator:\00", align 1
@.str.33 = private unnamed_addr constant [11 x i8] c"as phylum:\00", align 1
@.str.34 = private unnamed_addr constant [72 x i8] c"undefined operator (it's predefined, you're not supposed to use those):\00", align 1
@.str.35 = private unnamed_addr constant [19 x i8] c"undefined operator\00", align 1
@.str.36 = private unnamed_addr constant [19 x i8] c"f_useoccuroperator\00", align 1
@.str.37 = private unnamed_addr constant [19 x i8] c"variable expected:\00", align 1
@.str.38 = private unnamed_addr constant [20 x i8] c"f_warnifnotvariable\00", align 1
@.str.39 = private unnamed_addr constant [17 x i8] c"undefined phylum\00", align 1
@.str.40 = private unnamed_addr constant [17 x i8] c"f_useoccurphylum\00", align 1
@.str.41 = private unnamed_addr constant [50 x i8] c"undefined list phylum (it's a predefined phylum):\00", align 1
@.str.42 = private unnamed_addr constant [48 x i8] c"undefined list phylum (it's a non-list phylum):\00", align 1
@.str.43 = private unnamed_addr constant [54 x i8] c"undefined list phylum (the productionblock is empty):\00", align 1
@.str.44 = private unnamed_addr constant [21 x i8] c"f_useoccurlistphylum\00", align 1
@.str.45 = private unnamed_addr constant [22 x i8] c"undefined list phylum\00", align 1
@.str.46 = private unnamed_addr constant [24 x i8] c"undefined unparse view:\00", align 1
@.str.47 = private unnamed_addr constant [20 x i8] c"f_useoccuruviewname\00", align 1
@.str.48 = private unnamed_addr constant [24 x i8] c"undefined rewrite view:\00", align 1
@.str.49 = private unnamed_addr constant [20 x i8] c"f_useoccurrviewname\00", align 1
@.str.50 = private unnamed_addr constant [25 x i8] c"undefined storage class:\00", align 1
@.str.51 = private unnamed_addr constant [23 x i8] c"f_useoccurstorageclass\00", align 1
@.str.52 = private unnamed_addr constant [23 x i8] c"f_useoccurlanguagename\00", align 1
@.str.53 = private unnamed_addr constant [28 x i8] c"undefined pattern variable:\00", align 1
@.str.54 = private unnamed_addr constant [26 x i8] c"f_useoccurpatternvariable\00", align 1
@.str.55 = private unnamed_addr constant [17 x i8] c"do_v_extendoccur\00", align 1
@.str.56 = private unnamed_addr constant [51 x i8] c"type mismatch in redefinition of pattern variable:\00", align 1
@.str.57 = private unnamed_addr constant [9 x i8] c"old type\00", align 1
@.str.58 = private unnamed_addr constant [9 x i8] c"new type\00", align 1
@.str.59 = private unnamed_addr constant [43 x i8] c"superfluous redeclaration of rewrite view:\00", align 1
@.str.60 = private unnamed_addr constant [54 x i8] c"superfluous redeclaration of predefined rewrite view:\00", align 1
@.str.61 = private unnamed_addr constant [35 x i8] c"illegal extension of rewrite view:\00", align 1
@.str.62 = private unnamed_addr constant [46 x i8] c"illegal extension of predefined rewrite view:\00", align 1
@.str.63 = private unnamed_addr constant [43 x i8] c"superfluous redeclaration of unparse view:\00", align 1
@.str.64 = private unnamed_addr constant [54 x i8] c"superfluous redeclaration of predefined unparse view:\00", align 1
@.str.65 = private unnamed_addr constant [35 x i8] c"illegal extension of unparse view:\00", align 1
@.str.66 = private unnamed_addr constant [46 x i8] c"illegal extension of predefined unparse view:\00", align 1
@.str.67 = private unnamed_addr constant [31 x i8] c"illegal extension of function:\00", align 1
@.str.68 = private unnamed_addr constant [36 x i8] c"illegal extension of storage class:\00", align 1
@.str.69 = private unnamed_addr constant [47 x i8] c"illegal extension of predefined storage class:\00", align 1
@.str.70 = private unnamed_addr constant [42 x i8] c"illegal extension of predefined operator:\00", align 1
@.str.71 = private unnamed_addr constant [31 x i8] c"illegal extension of operator:\00", align 1
@.str.72 = private unnamed_addr constant [40 x i8] c"illegal extension of predefined phylum:\00", align 1
@.str.73 = private unnamed_addr constant [29 x i8] c"illegal extension of phylum:\00", align 1
@.str.74 = private unnamed_addr constant [21 x i8] c"illegal extension of\00", align 1
@.str.75 = private unnamed_addr constant [21 x i8] c"as pattern variable:\00", align 1
@.str.76 = private unnamed_addr constant [22 x i8] c"illegal extension of \00", align 1
@.str.77 = private unnamed_addr constant [13 x i8] c"as function:\00", align 1
@.str.78 = private unnamed_addr constant [10 x i8] c"as phylum\00", align 1
@Thelanguages = external local_unnamed_addr global ptr, align 8
@.str.79 = private unnamed_addr constant [25 x i8] c"undefined language name:\00", align 1

; Function Attrs: mustprogress uwtable
define dso_local void @_ZN2kc10v_defoccurEPNS_7impl_IDEPNS_11impl_IDtypeE(ptr noundef %0, ptr noundef %1) local_unnamed_addr #0 {
  %3 = load ptr, ptr %0, align 8, !tbaa !5
  %4 = load ptr, ptr %3, align 8
  %5 = tail call noundef i32 %4(ptr noundef nonnull align 8 dereferenceable(8) %0)
  %6 = icmp eq i32 %5, 7
  br i1 %6, label %7, label %10

7:                                                ; preds = %2
  %8 = getelementptr inbounds %"class.kc::impl_ID_Id", ptr %0, i64 0, i32 1
  %9 = load ptr, ptr %8, align 8, !tbaa !8
  br label %11

10:                                               ; preds = %2
  tail call void @_ZN2kc21kc_no_default_in_withEPKciS1_(ptr noundef nonnull @.str, i32 noundef 63, ptr noundef nonnull @.str.1)
  br label %11

11:                                               ; preds = %10, %7
  %12 = phi ptr [ %9, %7 ], [ undef, %10 ]
  %13 = getelementptr inbounds %"class.kc::impl_ID", ptr %0, i64 0, i32 1
  store ptr %1, ptr %13, align 8, !tbaa !15
  %14 = getelementptr inbounds %"class.kc::impl_uniqID", ptr %12, i64 0, i32 1
  %15 = load ptr, ptr %14, align 8, !tbaa !16
  %16 = load ptr, ptr %1, align 8, !tbaa !5
  %17 = load ptr, ptr %16, align 8
  %18 = tail call noundef i32 %17(ptr noundef nonnull align 8 dereferenceable(8) %1)
  %19 = icmp eq i32 %18, 172
  br i1 %19, label %638, label %20

20:                                               ; preds = %11
  %21 = load ptr, ptr %15, align 8, !tbaa !5
  %22 = load ptr, ptr %21, align 8
  %23 = tail call noundef i32 %22(ptr noundef nonnull align 8 dereferenceable(8) %15)
  %24 = icmp eq i32 %23, 172
  br i1 %24, label %25, label %32

25:                                               ; preds = %20
  store ptr %1, ptr %14, align 8, !tbaa !16
  %26 = getelementptr inbounds %"class.kc::impl_ID", ptr %0, i64 0, i32 3
  %27 = load i32, ptr %26, align 8, !tbaa !18
  %28 = getelementptr inbounds %"class.kc::impl_uniqID", ptr %12, i64 0, i32 2
  store i32 %27, ptr %28, align 8, !tbaa !19
  %29 = getelementptr inbounds %"class.kc::impl_ID", ptr %0, i64 0, i32 4
  %30 = load ptr, ptr %29, align 8, !tbaa !20
  %31 = getelementptr inbounds %"class.kc::impl_uniqID", ptr %12, i64 0, i32 3
  store ptr %30, ptr %31, align 8, !tbaa !21
  br label %638

32:                                               ; preds = %20
  %33 = load ptr, ptr %13, align 8, !tbaa !15
  %34 = load ptr, ptr %14, align 8, !tbaa !16
  %35 = load ptr, ptr %33, align 8, !tbaa !5
  %36 = load ptr, ptr %35, align 8
  %37 = tail call noundef i32 %36(ptr noundef nonnull align 8 dereferenceable(8) %33)
  %38 = icmp eq i32 %37, 184
  br i1 %38, label %39, label %51

39:                                               ; preds = %32
  %40 = load ptr, ptr %34, align 8, !tbaa !5
  %41 = load ptr, ptr %40, align 8
  %42 = tail call noundef i32 %41(ptr noundef nonnull align 8 dereferenceable(8) %34)
  %43 = icmp eq i32 %42, 184
  br i1 %43, label %44, label %51

44:                                               ; preds = %39
  %45 = getelementptr inbounds %"class.kc::impl_IDtype_ITUserFunction", ptr %34, i64 0, i32 1
  %46 = load ptr, ptr %45, align 8, !tbaa !22
  %47 = load ptr, ptr %46, align 8, !tbaa !5
  %48 = load ptr, ptr %47, align 8
  %49 = tail call noundef i32 %48(ptr noundef nonnull align 8 dereferenceable(8) %46)
  %50 = icmp eq i32 %49, 115
  br i1 %50, label %638, label %51

51:                                               ; preds = %44, %39, %32
  %52 = load ptr, ptr %33, align 8, !tbaa !5
  %53 = load ptr, ptr %52, align 8
  %54 = tail call noundef i32 %53(ptr noundef nonnull align 8 dereferenceable(8) %33)
  %55 = icmp eq i32 %54, 184
  br i1 %55, label %56, label %68

56:                                               ; preds = %51
  %57 = load ptr, ptr %34, align 8, !tbaa !5
  %58 = load ptr, ptr %57, align 8
  %59 = tail call noundef i32 %58(ptr noundef nonnull align 8 dereferenceable(8) %34)
  %60 = icmp eq i32 %59, 184
  br i1 %60, label %61, label %68

61:                                               ; preds = %56
  %62 = getelementptr inbounds %"class.kc::impl_IDtype_ITUserFunction", ptr %34, i64 0, i32 1
  %63 = load ptr, ptr %62, align 8, !tbaa !22
  %64 = load ptr, ptr %63, align 8, !tbaa !5
  %65 = load ptr, ptr %64, align 8
  %66 = tail call noundef i32 %65(ptr noundef nonnull align 8 dereferenceable(8) %63)
  %67 = icmp eq i32 %66, 114
  br i1 %67, label %638, label %68

68:                                               ; preds = %61, %56, %51
  %69 = load ptr, ptr %33, align 8, !tbaa !5
  %70 = load ptr, ptr %69, align 8
  %71 = tail call noundef i32 %70(ptr noundef nonnull align 8 dereferenceable(8) %33)
  %72 = icmp eq i32 %71, 184
  br i1 %72, label %73, label %85

73:                                               ; preds = %68
  %74 = load ptr, ptr %34, align 8, !tbaa !5
  %75 = load ptr, ptr %74, align 8
  %76 = tail call noundef i32 %75(ptr noundef nonnull align 8 dereferenceable(8) %34)
  %77 = icmp eq i32 %76, 184
  br i1 %77, label %78, label %85

78:                                               ; preds = %73
  %79 = getelementptr inbounds %"class.kc::impl_IDtype_ITUserFunction", ptr %34, i64 0, i32 1
  %80 = load ptr, ptr %79, align 8, !tbaa !22
  %81 = load ptr, ptr %80, align 8, !tbaa !5
  %82 = load ptr, ptr %81, align 8
  %83 = tail call noundef i32 %82(ptr noundef nonnull align 8 dereferenceable(8) %80)
  %84 = icmp eq i32 %83, 113
  br i1 %84, label %638, label %85

85:                                               ; preds = %78, %73, %68
  %86 = load ptr, ptr %33, align 8, !tbaa !5
  %87 = load ptr, ptr %86, align 8
  %88 = tail call noundef i32 %87(ptr noundef nonnull align 8 dereferenceable(8) %33)
  %89 = icmp eq i32 %88, 184
  br i1 %89, label %90, label %132

90:                                               ; preds = %85
  %91 = load ptr, ptr %34, align 8, !tbaa !5
  %92 = load ptr, ptr %91, align 8
  %93 = tail call noundef i32 %92(ptr noundef nonnull align 8 dereferenceable(8) %34)
  %94 = icmp eq i32 %93, 184
  br i1 %94, label %95, label %132

95:                                               ; preds = %90
  %96 = getelementptr inbounds %"class.kc::impl_IDtype_ITUserFunction", ptr %34, i64 0, i32 1
  %97 = load ptr, ptr %96, align 8, !tbaa !22
  %98 = load ptr, ptr %97, align 8, !tbaa !5
  %99 = load ptr, ptr %98, align 8
  %100 = tail call noundef i32 %99(ptr noundef nonnull align 8 dereferenceable(8) %97)
  %101 = icmp eq i32 %100, 112
  br i1 %101, label %102, label %132

102:                                              ; preds = %95
  %103 = getelementptr inbounds %"class.kc::impl_IDtype_ITUserFunction", ptr %33, i64 0, i32 1
  %104 = load ptr, ptr %103, align 8, !tbaa !22
  %105 = load ptr, ptr %104, align 8, !tbaa !5
  %106 = load ptr, ptr %105, align 8
  %107 = tail call noundef i32 %106(ptr noundef nonnull align 8 dereferenceable(8) %104)
  %108 = icmp eq i32 %107, 112
  br i1 %108, label %109, label %120

109:                                              ; preds = %102
  %110 = getelementptr inbounds %"class.kc::impl_uniqID", ptr %12, i64 0, i32 3
  %111 = load ptr, ptr %110, align 8, !tbaa !21
  %112 = getelementptr %"class.kc::impl_ID", ptr %0, i64 0, i32 4
  %113 = load ptr, ptr %112, align 8, !tbaa !20
  %114 = tail call noundef zeroext i1 @_ZNK2kc20impl_abstract_phylum2eqEPKS0_(ptr noundef nonnull align 8 dereferenceable(8) %111, ptr noundef %113)
  br i1 %114, label %115, label %638

115:                                              ; preds = %109
  %116 = tail call noundef ptr @_ZN2kc12Problem1S1IDEPKcPNS_7impl_IDE(ptr noundef nonnull @.str.2, ptr noundef nonnull %0)
  %117 = getelementptr i8, ptr %0, i64 24
  %118 = load i32, ptr %117, align 8, !tbaa !18
  %119 = load ptr, ptr %112, align 8, !tbaa !20
  tail call fastcc void @_ZL2NFPN2kc7impl_IDEPNS_12impl_problemE(i32 %118, ptr %119, ptr noundef %116)
  br label %638

120:                                              ; preds = %102
  %121 = load ptr, ptr %104, align 8, !tbaa !5
  %122 = load ptr, ptr %121, align 8
  %123 = tail call noundef i32 %122(ptr noundef nonnull align 8 dereferenceable(8) %104)
  %124 = icmp eq i32 %123, 111
  br i1 %124, label %125, label %131

125:                                              ; preds = %120
  %126 = tail call noundef ptr @_ZN2kc12Problem1S1IDEPKcPNS_7impl_IDE(ptr noundef nonnull @.str.2, ptr noundef nonnull %0)
  %127 = getelementptr i8, ptr %0, i64 24
  %128 = load i32, ptr %127, align 8, !tbaa !18
  %129 = getelementptr i8, ptr %0, i64 32
  %130 = load ptr, ptr %129, align 8, !tbaa !20
  tail call fastcc void @_ZL2NFPN2kc7impl_IDEPNS_12impl_problemE(i32 %128, ptr %130, ptr noundef %126)
  br label %638

131:                                              ; preds = %120
  tail call void @_ZN2kc21kc_no_default_in_withEPKciS1_(ptr noundef nonnull @.str, i32 noundef 107, ptr noundef nonnull @.str.1)
  br label %638

132:                                              ; preds = %95, %90, %85
  %133 = load ptr, ptr %33, align 8, !tbaa !5
  %134 = load ptr, ptr %133, align 8
  %135 = tail call noundef i32 %134(ptr noundef nonnull align 8 dereferenceable(8) %33)
  %136 = icmp eq i32 %135, 184
  br i1 %136, label %137, label %149

137:                                              ; preds = %132
  %138 = load ptr, ptr %34, align 8, !tbaa !5
  %139 = load ptr, ptr %138, align 8
  %140 = tail call noundef i32 %139(ptr noundef nonnull align 8 dereferenceable(8) %34)
  %141 = icmp eq i32 %140, 184
  br i1 %141, label %142, label %149

142:                                              ; preds = %137
  %143 = getelementptr inbounds %"class.kc::impl_IDtype_ITUserFunction", ptr %34, i64 0, i32 1
  %144 = load ptr, ptr %143, align 8, !tbaa !22
  %145 = load ptr, ptr %144, align 8, !tbaa !5
  %146 = load ptr, ptr %145, align 8
  %147 = tail call noundef i32 %146(ptr noundef nonnull align 8 dereferenceable(8) %144)
  %148 = icmp eq i32 %147, 111
  br i1 %148, label %638, label %149

149:                                              ; preds = %142, %137, %132
  %150 = load ptr, ptr %33, align 8, !tbaa !5
  %151 = load ptr, ptr %150, align 8
  %152 = tail call noundef i32 %151(ptr noundef nonnull align 8 dereferenceable(8) %33)
  %153 = icmp eq i32 %152, 185
  br i1 %153, label %154, label %171

154:                                              ; preds = %149
  %155 = load ptr, ptr %34, align 8, !tbaa !5
  %156 = load ptr, ptr %155, align 8
  %157 = tail call noundef i32 %156(ptr noundef nonnull align 8 dereferenceable(8) %34)
  %158 = icmp eq i32 %157, 185
  br i1 %158, label %159, label %171

159:                                              ; preds = %154
  %160 = getelementptr inbounds %"class.kc::impl_IDtype_ITPatternVariable", ptr %33, i64 0, i32 2
  %161 = load ptr, ptr %160, align 8, !tbaa !25
  %162 = getelementptr inbounds %"class.kc::impl_IDtype_ITPatternVariable", ptr %34, i64 0, i32 2
  %163 = load ptr, ptr %162, align 8, !tbaa !25
  %164 = icmp eq ptr %161, %163
  br i1 %164, label %165, label %638

165:                                              ; preds = %159
  %166 = tail call noundef ptr @_ZN2kc12Problem1S1IDEPKcPNS_7impl_IDE(ptr noundef nonnull @.str.3, ptr noundef nonnull %0)
  %167 = getelementptr i8, ptr %0, i64 24
  %168 = load i32, ptr %167, align 8, !tbaa !18
  %169 = getelementptr i8, ptr %0, i64 32
  %170 = load ptr, ptr %169, align 8, !tbaa !20
  tail call fastcc void @_ZL2NFPN2kc7impl_IDEPNS_12impl_problemE(i32 %168, ptr %170, ptr noundef %166)
  br label %638

171:                                              ; preds = %154, %149
  %172 = load ptr, ptr %33, align 8, !tbaa !5
  %173 = load ptr, ptr %172, align 8
  %174 = tail call noundef i32 %173(ptr noundef nonnull align 8 dereferenceable(8) %33)
  %175 = icmp eq i32 %174, 183
  br i1 %175, label %176, label %189

176:                                              ; preds = %171
  %177 = load ptr, ptr %34, align 8, !tbaa !5
  %178 = load ptr, ptr %177, align 8
  %179 = tail call noundef i32 %178(ptr noundef nonnull align 8 dereferenceable(8) %34)
  %180 = icmp eq i32 %179, 183
  br i1 %180, label %181, label %189

181:                                              ; preds = %176
  %182 = tail call noundef ptr @_ZN2kc12Problem1S1IDEPKcPNS_7impl_IDE(ptr noundef nonnull @.str.4, ptr noundef nonnull %0)
  %183 = getelementptr i8, ptr %0, i64 24
  %184 = load i32, ptr %183, align 8, !tbaa !18
  %185 = getelementptr i8, ptr %0, i64 32
  %186 = load ptr, ptr %185, align 8, !tbaa !20
  %187 = tail call noundef ptr @_ZN2kc8FileLineEPNS_20impl_casestring__StrEi(ptr noundef %186, i32 noundef %184)
  %188 = tail call noundef ptr @_ZN2kc8NonFatalEPNS_13impl_filelineEPNS_12impl_problemE(ptr noundef %187, ptr noundef %182)
  tail call void @_ZN2kc8v_reportEPNS_10impl_errorE(ptr noundef %188)
  br label %638

189:                                              ; preds = %176, %171
  %190 = load ptr, ptr %33, align 8, !tbaa !5
  %191 = load ptr, ptr %190, align 8
  %192 = tail call noundef i32 %191(ptr noundef nonnull align 8 dereferenceable(8) %33)
  %193 = icmp eq i32 %192, 183
  br i1 %193, label %194, label %205

194:                                              ; preds = %189
  %195 = load ptr, ptr %34, align 8, !tbaa !5
  %196 = load ptr, ptr %195, align 8
  %197 = tail call noundef i32 %196(ptr noundef nonnull align 8 dereferenceable(8) %34)
  %198 = icmp eq i32 %197, 182
  br i1 %198, label %199, label %205

199:                                              ; preds = %194
  %200 = tail call noundef ptr @_ZN2kc12Problem1S1IDEPKcPNS_7impl_IDE(ptr noundef nonnull @.str.5, ptr noundef nonnull %0)
  %201 = getelementptr i8, ptr %0, i64 24
  %202 = load i32, ptr %201, align 8, !tbaa !18
  %203 = getelementptr i8, ptr %0, i64 32
  %204 = load ptr, ptr %203, align 8, !tbaa !20
  tail call fastcc void @_ZL2NFPN2kc7impl_IDEPNS_12impl_problemE(i32 %202, ptr %204, ptr noundef %200)
  br label %638

205:                                              ; preds = %194, %189
  %206 = load ptr, ptr %33, align 8, !tbaa !5
  %207 = load ptr, ptr %206, align 8
  %208 = tail call noundef i32 %207(ptr noundef nonnull align 8 dereferenceable(8) %33)
  %209 = icmp eq i32 %208, 182
  br i1 %209, label %210, label %221

210:                                              ; preds = %205
  %211 = load ptr, ptr %34, align 8, !tbaa !5
  %212 = load ptr, ptr %211, align 8
  %213 = tail call noundef i32 %212(ptr noundef nonnull align 8 dereferenceable(8) %34)
  %214 = icmp eq i32 %213, 183
  br i1 %214, label %215, label %221

215:                                              ; preds = %210
  %216 = tail call noundef ptr @_ZN2kc12Problem1S1IDEPKcPNS_7impl_IDE(ptr noundef nonnull @.str.6, ptr noundef nonnull %0)
  %217 = getelementptr i8, ptr %0, i64 24
  %218 = load i32, ptr %217, align 8, !tbaa !18
  %219 = getelementptr i8, ptr %0, i64 32
  %220 = load ptr, ptr %219, align 8, !tbaa !20
  tail call fastcc void @_ZL2NFPN2kc7impl_IDEPNS_12impl_problemE(i32 %218, ptr %220, ptr noundef %216)
  br label %638

221:                                              ; preds = %210, %205
  %222 = load ptr, ptr %33, align 8, !tbaa !5
  %223 = load ptr, ptr %222, align 8
  %224 = tail call noundef i32 %223(ptr noundef nonnull align 8 dereferenceable(8) %33)
  %225 = icmp eq i32 %224, 182
  br i1 %225, label %226, label %237

226:                                              ; preds = %221
  %227 = load ptr, ptr %34, align 8, !tbaa !5
  %228 = load ptr, ptr %227, align 8
  %229 = tail call noundef i32 %228(ptr noundef nonnull align 8 dereferenceable(8) %34)
  %230 = icmp eq i32 %229, 182
  br i1 %230, label %231, label %237

231:                                              ; preds = %226
  %232 = tail call noundef ptr @_ZN2kc12Problem1S1IDEPKcPNS_7impl_IDE(ptr noundef nonnull @.str.7, ptr noundef nonnull %0)
  %233 = getelementptr i8, ptr %0, i64 24
  %234 = load i32, ptr %233, align 8, !tbaa !18
  %235 = getelementptr i8, ptr %0, i64 32
  %236 = load ptr, ptr %235, align 8, !tbaa !20
  tail call fastcc void @_ZL2NFPN2kc7impl_IDEPNS_12impl_problemE(i32 %234, ptr %236, ptr noundef %232)
  br label %638

237:                                              ; preds = %226, %221
  %238 = load ptr, ptr %33, align 8, !tbaa !5
  %239 = load ptr, ptr %238, align 8
  %240 = tail call noundef i32 %239(ptr noundef nonnull align 8 dereferenceable(8) %33)
  %241 = icmp eq i32 %240, 180
  br i1 %241, label %242, label %253

242:                                              ; preds = %237
  %243 = load ptr, ptr %34, align 8, !tbaa !5
  %244 = load ptr, ptr %243, align 8
  %245 = tail call noundef i32 %244(ptr noundef nonnull align 8 dereferenceable(8) %34)
  %246 = icmp eq i32 %245, 180
  br i1 %246, label %247, label %253

247:                                              ; preds = %242
  %248 = tail call noundef ptr @_ZN2kc12Problem1S1IDEPKcPNS_7impl_IDE(ptr noundef nonnull @.str.8, ptr noundef nonnull %0)
  %249 = getelementptr i8, ptr %0, i64 24
  %250 = load i32, ptr %249, align 8, !tbaa !18
  %251 = getelementptr i8, ptr %0, i64 32
  %252 = load ptr, ptr %251, align 8, !tbaa !20
  tail call fastcc void @_ZL2NFPN2kc7impl_IDEPNS_12impl_problemE(i32 %250, ptr %252, ptr noundef %248)
  br label %638

253:                                              ; preds = %242, %237
  %254 = load ptr, ptr %33, align 8, !tbaa !5
  %255 = load ptr, ptr %254, align 8
  %256 = tail call noundef i32 %255(ptr noundef nonnull align 8 dereferenceable(8) %33)
  %257 = icmp eq i32 %256, 180
  br i1 %257, label %258, label %269

258:                                              ; preds = %253
  %259 = load ptr, ptr %34, align 8, !tbaa !5
  %260 = load ptr, ptr %259, align 8
  %261 = tail call noundef i32 %260(ptr noundef nonnull align 8 dereferenceable(8) %34)
  %262 = icmp eq i32 %261, 179
  br i1 %262, label %263, label %269

263:                                              ; preds = %258
  %264 = tail call noundef ptr @_ZN2kc12Problem1S1IDEPKcPNS_7impl_IDE(ptr noundef nonnull @.str.9, ptr noundef nonnull %0)
  %265 = getelementptr i8, ptr %0, i64 24
  %266 = load i32, ptr %265, align 8, !tbaa !18
  %267 = getelementptr i8, ptr %0, i64 32
  %268 = load ptr, ptr %267, align 8, !tbaa !20
  tail call fastcc void @_ZL2NFPN2kc7impl_IDEPNS_12impl_problemE(i32 %266, ptr %268, ptr noundef %264)
  br label %638

269:                                              ; preds = %258, %253
  %270 = load ptr, ptr %33, align 8, !tbaa !5
  %271 = load ptr, ptr %270, align 8
  %272 = tail call noundef i32 %271(ptr noundef nonnull align 8 dereferenceable(8) %33)
  %273 = icmp eq i32 %272, 179
  br i1 %273, label %274, label %285

274:                                              ; preds = %269
  %275 = load ptr, ptr %34, align 8, !tbaa !5
  %276 = load ptr, ptr %275, align 8
  %277 = tail call noundef i32 %276(ptr noundef nonnull align 8 dereferenceable(8) %34)
  %278 = icmp eq i32 %277, 180
  br i1 %278, label %279, label %285

279:                                              ; preds = %274
  %280 = tail call noundef ptr @_ZN2kc12Problem1S1IDEPKcPNS_7impl_IDE(ptr noundef nonnull @.str.10, ptr noundef nonnull %0)
  %281 = getelementptr i8, ptr %0, i64 24
  %282 = load i32, ptr %281, align 8, !tbaa !18
  %283 = getelementptr i8, ptr %0, i64 32
  %284 = load ptr, ptr %283, align 8, !tbaa !20
  tail call fastcc void @_ZL2NFPN2kc7impl_IDEPNS_12impl_problemE(i32 %282, ptr %284, ptr noundef %280)
  br label %638

285:                                              ; preds = %274, %269
  %286 = load ptr, ptr %33, align 8, !tbaa !5
  %287 = load ptr, ptr %286, align 8
  %288 = tail call noundef i32 %287(ptr noundef nonnull align 8 dereferenceable(8) %33)
  %289 = icmp eq i32 %288, 179
  br i1 %289, label %290, label %301

290:                                              ; preds = %285
  %291 = load ptr, ptr %34, align 8, !tbaa !5
  %292 = load ptr, ptr %291, align 8
  %293 = tail call noundef i32 %292(ptr noundef nonnull align 8 dereferenceable(8) %34)
  %294 = icmp eq i32 %293, 179
  br i1 %294, label %295, label %301

295:                                              ; preds = %290
  %296 = tail call noundef ptr @_ZN2kc12Problem1S1IDEPKcPNS_7impl_IDE(ptr noundef nonnull @.str.11, ptr noundef nonnull %0)
  %297 = getelementptr i8, ptr %0, i64 24
  %298 = load i32, ptr %297, align 8, !tbaa !18
  %299 = getelementptr i8, ptr %0, i64 32
  %300 = load ptr, ptr %299, align 8, !tbaa !20
  tail call fastcc void @_ZL2NFPN2kc7impl_IDEPNS_12impl_problemE(i32 %298, ptr %300, ptr noundef %296)
  br label %638

301:                                              ; preds = %290, %285
  %302 = load ptr, ptr %33, align 8, !tbaa !5
  %303 = load ptr, ptr %302, align 8
  %304 = tail call noundef i32 %303(ptr noundef nonnull align 8 dereferenceable(8) %33)
  %305 = icmp eq i32 %304, 178
  br i1 %305, label %306, label %317

306:                                              ; preds = %301
  %307 = load ptr, ptr %34, align 8, !tbaa !5
  %308 = load ptr, ptr %307, align 8
  %309 = tail call noundef i32 %308(ptr noundef nonnull align 8 dereferenceable(8) %34)
  %310 = icmp eq i32 %309, 178
  br i1 %310, label %311, label %317

311:                                              ; preds = %306
  %312 = tail call noundef ptr @_ZN2kc12Problem1S1IDEPKcPNS_7impl_IDE(ptr noundef nonnull @.str.12, ptr noundef nonnull %0)
  %313 = getelementptr i8, ptr %0, i64 24
  %314 = load i32, ptr %313, align 8, !tbaa !18
  %315 = getelementptr i8, ptr %0, i64 32
  %316 = load ptr, ptr %315, align 8, !tbaa !20
  tail call fastcc void @_ZL2NFPN2kc7impl_IDEPNS_12impl_problemE(i32 %314, ptr %316, ptr noundef %312)
  br label %638

317:                                              ; preds = %306, %301
  %318 = load ptr, ptr %33, align 8, !tbaa !5
  %319 = load ptr, ptr %318, align 8
  %320 = tail call noundef i32 %319(ptr noundef nonnull align 8 dereferenceable(8) %33)
  %321 = icmp eq i32 %320, 178
  br i1 %321, label %322, label %333

322:                                              ; preds = %317
  %323 = load ptr, ptr %34, align 8, !tbaa !5
  %324 = load ptr, ptr %323, align 8
  %325 = tail call noundef i32 %324(ptr noundef nonnull align 8 dereferenceable(8) %34)
  %326 = icmp eq i32 %325, 177
  br i1 %326, label %327, label %333

327:                                              ; preds = %322
  %328 = tail call noundef ptr @_ZN2kc12Problem1S1IDEPKcPNS_7impl_IDE(ptr noundef nonnull @.str.13, ptr noundef nonnull %0)
  %329 = getelementptr i8, ptr %0, i64 24
  %330 = load i32, ptr %329, align 8, !tbaa !18
  %331 = getelementptr i8, ptr %0, i64 32
  %332 = load ptr, ptr %331, align 8, !tbaa !20
  tail call fastcc void @_ZL2NFPN2kc7impl_IDEPNS_12impl_problemE(i32 %330, ptr %332, ptr noundef %328)
  br label %638

333:                                              ; preds = %322, %317
  %334 = load ptr, ptr %33, align 8, !tbaa !5
  %335 = load ptr, ptr %334, align 8
  %336 = tail call noundef i32 %335(ptr noundef nonnull align 8 dereferenceable(8) %33)
  %337 = icmp eq i32 %336, 177
  br i1 %337, label %338, label %349

338:                                              ; preds = %333
  %339 = load ptr, ptr %34, align 8, !tbaa !5
  %340 = load ptr, ptr %339, align 8
  %341 = tail call noundef i32 %340(ptr noundef nonnull align 8 dereferenceable(8) %34)
  %342 = icmp eq i32 %341, 178
  br i1 %342, label %343, label %349

343:                                              ; preds = %338
  %344 = tail call noundef ptr @_ZN2kc12Problem1S1IDEPKcPNS_7impl_IDE(ptr noundef nonnull @.str.14, ptr noundef nonnull %0)
  %345 = getelementptr i8, ptr %0, i64 24
  %346 = load i32, ptr %345, align 8, !tbaa !18
  %347 = getelementptr i8, ptr %0, i64 32
  %348 = load ptr, ptr %347, align 8, !tbaa !20
  tail call fastcc void @_ZL2NFPN2kc7impl_IDEPNS_12impl_problemE(i32 %346, ptr %348, ptr noundef %344)
  br label %638

349:                                              ; preds = %338, %333
  %350 = load ptr, ptr %33, align 8, !tbaa !5
  %351 = load ptr, ptr %350, align 8
  %352 = tail call noundef i32 %351(ptr noundef nonnull align 8 dereferenceable(8) %33)
  %353 = icmp eq i32 %352, 177
  br i1 %353, label %354, label %365

354:                                              ; preds = %349
  %355 = load ptr, ptr %34, align 8, !tbaa !5
  %356 = load ptr, ptr %355, align 8
  %357 = tail call noundef i32 %356(ptr noundef nonnull align 8 dereferenceable(8) %34)
  %358 = icmp eq i32 %357, 177
  br i1 %358, label %359, label %365

359:                                              ; preds = %354
  %360 = tail call noundef ptr @_ZN2kc12Problem1S1IDEPKcPNS_7impl_IDE(ptr noundef nonnull @.str.15, ptr noundef nonnull %0)
  %361 = getelementptr i8, ptr %0, i64 24
  %362 = load i32, ptr %361, align 8, !tbaa !18
  %363 = getelementptr i8, ptr %0, i64 32
  %364 = load ptr, ptr %363, align 8, !tbaa !20
  tail call fastcc void @_ZL2NFPN2kc7impl_IDEPNS_12impl_problemE(i32 %362, ptr %364, ptr noundef %360)
  br label %638

365:                                              ; preds = %354, %349
  %366 = load ptr, ptr %33, align 8, !tbaa !5
  %367 = load ptr, ptr %366, align 8
  %368 = tail call noundef i32 %367(ptr noundef nonnull align 8 dereferenceable(8) %33)
  %369 = icmp eq i32 %368, 176
  br i1 %369, label %370, label %381

370:                                              ; preds = %365
  %371 = load ptr, ptr %34, align 8, !tbaa !5
  %372 = load ptr, ptr %371, align 8
  %373 = tail call noundef i32 %372(ptr noundef nonnull align 8 dereferenceable(8) %34)
  %374 = icmp eq i32 %373, 176
  br i1 %374, label %375, label %381

375:                                              ; preds = %370
  %376 = tail call noundef ptr @_ZN2kc12Problem1S1IDEPKcPNS_7impl_IDE(ptr noundef nonnull @.str.16, ptr noundef nonnull %0)
  %377 = getelementptr i8, ptr %0, i64 24
  %378 = load i32, ptr %377, align 8, !tbaa !18
  %379 = getelementptr i8, ptr %0, i64 32
  %380 = load ptr, ptr %379, align 8, !tbaa !20
  tail call fastcc void @_ZL2NFPN2kc7impl_IDEPNS_12impl_problemE(i32 %378, ptr %380, ptr noundef %376)
  br label %638

381:                                              ; preds = %370, %365
  %382 = load ptr, ptr %33, align 8, !tbaa !5
  %383 = load ptr, ptr %382, align 8
  %384 = tail call noundef i32 %383(ptr noundef nonnull align 8 dereferenceable(8) %33)
  %385 = icmp eq i32 %384, 176
  br i1 %385, label %386, label %397

386:                                              ; preds = %381
  %387 = load ptr, ptr %34, align 8, !tbaa !5
  %388 = load ptr, ptr %387, align 8
  %389 = tail call noundef i32 %388(ptr noundef nonnull align 8 dereferenceable(8) %34)
  %390 = icmp eq i32 %389, 175
  br i1 %390, label %391, label %397

391:                                              ; preds = %386
  %392 = tail call noundef ptr @_ZN2kc12Problem1S1IDEPKcPNS_7impl_IDE(ptr noundef nonnull @.str.17, ptr noundef nonnull %0)
  %393 = getelementptr i8, ptr %0, i64 24
  %394 = load i32, ptr %393, align 8, !tbaa !18
  %395 = getelementptr i8, ptr %0, i64 32
  %396 = load ptr, ptr %395, align 8, !tbaa !20
  tail call fastcc void @_ZL2NFPN2kc7impl_IDEPNS_12impl_problemE(i32 %394, ptr %396, ptr noundef %392)
  br label %638

397:                                              ; preds = %386, %381
  %398 = load ptr, ptr %33, align 8, !tbaa !5
  %399 = load ptr, ptr %398, align 8
  %400 = tail call noundef i32 %399(ptr noundef nonnull align 8 dereferenceable(8) %33)
  %401 = icmp eq i32 %400, 175
  br i1 %401, label %402, label %413

402:                                              ; preds = %397
  %403 = load ptr, ptr %34, align 8, !tbaa !5
  %404 = load ptr, ptr %403, align 8
  %405 = tail call noundef i32 %404(ptr noundef nonnull align 8 dereferenceable(8) %34)
  %406 = icmp eq i32 %405, 176
  br i1 %406, label %407, label %413

407:                                              ; preds = %402
  %408 = tail call noundef ptr @_ZN2kc12Problem1S1IDEPKcPNS_7impl_IDE(ptr noundef nonnull @.str.18, ptr noundef nonnull %0)
  %409 = getelementptr i8, ptr %0, i64 24
  %410 = load i32, ptr %409, align 8, !tbaa !18
  %411 = getelementptr i8, ptr %0, i64 32
  %412 = load ptr, ptr %411, align 8, !tbaa !20
  tail call fastcc void @_ZL2NFPN2kc7impl_IDEPNS_12impl_problemE(i32 %410, ptr %412, ptr noundef %408)
  br label %638

413:                                              ; preds = %402, %397
  %414 = load ptr, ptr %33, align 8, !tbaa !5
  %415 = load ptr, ptr %414, align 8
  %416 = tail call noundef i32 %415(ptr noundef nonnull align 8 dereferenceable(8) %33)
  %417 = icmp eq i32 %416, 175
  br i1 %417, label %418, label %429

418:                                              ; preds = %413
  %419 = load ptr, ptr %34, align 8, !tbaa !5
  %420 = load ptr, ptr %419, align 8
  %421 = tail call noundef i32 %420(ptr noundef nonnull align 8 dereferenceable(8) %34)
  %422 = icmp eq i32 %421, 175
  br i1 %422, label %423, label %429

423:                                              ; preds = %418
  %424 = tail call noundef ptr @_ZN2kc12Problem1S1IDEPKcPNS_7impl_IDE(ptr noundef nonnull @.str.19, ptr noundef nonnull %0)
  %425 = getelementptr i8, ptr %0, i64 24
  %426 = load i32, ptr %425, align 8, !tbaa !18
  %427 = getelementptr i8, ptr %0, i64 32
  %428 = load ptr, ptr %427, align 8, !tbaa !20
  tail call fastcc void @_ZL2NFPN2kc7impl_IDEPNS_12impl_problemE(i32 %426, ptr %428, ptr noundef %424)
  br label %638

429:                                              ; preds = %418, %413
  %430 = load ptr, ptr %33, align 8, !tbaa !5
  %431 = load ptr, ptr %430, align 8
  %432 = tail call noundef i32 %431(ptr noundef nonnull align 8 dereferenceable(8) %33)
  %433 = icmp eq i32 %432, 174
  br i1 %433, label %434, label %445

434:                                              ; preds = %429
  %435 = load ptr, ptr %34, align 8, !tbaa !5
  %436 = load ptr, ptr %435, align 8
  %437 = tail call noundef i32 %436(ptr noundef nonnull align 8 dereferenceable(8) %34)
  %438 = icmp eq i32 %437, 174
  br i1 %438, label %439, label %445

439:                                              ; preds = %434
  %440 = tail call noundef ptr @_ZN2kc12Problem1S1IDEPKcPNS_7impl_IDE(ptr noundef nonnull @.str.20, ptr noundef nonnull %0)
  %441 = getelementptr i8, ptr %0, i64 24
  %442 = load i32, ptr %441, align 8, !tbaa !18
  %443 = getelementptr i8, ptr %0, i64 32
  %444 = load ptr, ptr %443, align 8, !tbaa !20
  tail call fastcc void @_ZL2NFPN2kc7impl_IDEPNS_12impl_problemE(i32 %442, ptr %444, ptr noundef %440)
  br label %638

445:                                              ; preds = %434, %429
  %446 = load ptr, ptr %33, align 8, !tbaa !5
  %447 = load ptr, ptr %446, align 8
  %448 = tail call noundef i32 %447(ptr noundef nonnull align 8 dereferenceable(8) %33)
  %449 = icmp eq i32 %448, 174
  br i1 %449, label %450, label %461

450:                                              ; preds = %445
  %451 = load ptr, ptr %34, align 8, !tbaa !5
  %452 = load ptr, ptr %451, align 8
  %453 = tail call noundef i32 %452(ptr noundef nonnull align 8 dereferenceable(8) %34)
  %454 = icmp eq i32 %453, 173
  br i1 %454, label %455, label %461

455:                                              ; preds = %450
  %456 = tail call noundef ptr @_ZN2kc12Problem1S1IDEPKcPNS_7impl_IDE(ptr noundef nonnull @.str.21, ptr noundef nonnull %0)
  %457 = getelementptr i8, ptr %0, i64 24
  %458 = load i32, ptr %457, align 8, !tbaa !18
  %459 = getelementptr i8, ptr %0, i64 32
  %460 = load ptr, ptr %459, align 8, !tbaa !20
  tail call fastcc void @_ZL2NFPN2kc7impl_IDEPNS_12impl_problemE(i32 %458, ptr %460, ptr noundef %456)
  br label %638

461:                                              ; preds = %450, %445
  %462 = load ptr, ptr %33, align 8, !tbaa !5
  %463 = load ptr, ptr %462, align 8
  %464 = tail call noundef i32 %463(ptr noundef nonnull align 8 dereferenceable(8) %33)
  %465 = icmp eq i32 %464, 173
  br i1 %465, label %466, label %477

466:                                              ; preds = %461
  %467 = load ptr, ptr %34, align 8, !tbaa !5
  %468 = load ptr, ptr %467, align 8
  %469 = tail call noundef i32 %468(ptr noundef nonnull align 8 dereferenceable(8) %34)
  %470 = icmp eq i32 %469, 174
  br i1 %470, label %471, label %477

471:                                              ; preds = %466
  %472 = tail call noundef ptr @_ZN2kc12Problem1S1IDEPKcPNS_7impl_IDE(ptr noundef nonnull @.str.22, ptr noundef nonnull %0)
  %473 = getelementptr i8, ptr %0, i64 24
  %474 = load i32, ptr %473, align 8, !tbaa !18
  %475 = getelementptr i8, ptr %0, i64 32
  %476 = load ptr, ptr %475, align 8, !tbaa !20
  tail call fastcc void @_ZL2NFPN2kc7impl_IDEPNS_12impl_problemE(i32 %474, ptr %476, ptr noundef %472)
  br label %638

477:                                              ; preds = %466, %461
  %478 = load ptr, ptr %33, align 8, !tbaa !5
  %479 = load ptr, ptr %478, align 8
  %480 = tail call noundef i32 %479(ptr noundef nonnull align 8 dereferenceable(8) %33)
  %481 = icmp eq i32 %480, 173
  br i1 %481, label %482, label %493

482:                                              ; preds = %477
  %483 = load ptr, ptr %34, align 8, !tbaa !5
  %484 = load ptr, ptr %483, align 8
  %485 = tail call noundef i32 %484(ptr noundef nonnull align 8 dereferenceable(8) %34)
  %486 = icmp eq i32 %485, 173
  br i1 %486, label %487, label %493

487:                                              ; preds = %482
  %488 = tail call noundef ptr @_ZN2kc12Problem1S1IDEPKcPNS_7impl_IDE(ptr noundef nonnull @.str.23, ptr noundef nonnull %0)
  %489 = getelementptr i8, ptr %0, i64 24
  %490 = load i32, ptr %489, align 8, !tbaa !18
  %491 = getelementptr i8, ptr %0, i64 32
  %492 = load ptr, ptr %491, align 8, !tbaa !20
  tail call fastcc void @_ZL2NFPN2kc7impl_IDEPNS_12impl_problemE(i32 %490, ptr %492, ptr noundef %488)
  br label %638

493:                                              ; preds = %482, %477
  %494 = load ptr, ptr %33, align 8, !tbaa !5
  %495 = load ptr, ptr %494, align 8
  %496 = tail call noundef i32 %495(ptr noundef nonnull align 8 dereferenceable(8) %33)
  %497 = icmp eq i32 %496, 185
  br i1 %497, label %498, label %505

498:                                              ; preds = %493
  %499 = load ptr, ptr %14, align 8, !tbaa !16
  %500 = tail call noundef ptr @_ZN2kc16Problem1S1t1S1IDEPKcPNS_11impl_IDtypeES1_PNS_7impl_IDE(ptr noundef nonnull @.str.24, ptr noundef %499, ptr noundef nonnull @.str.25, ptr noundef nonnull %0)
  %501 = getelementptr i8, ptr %0, i64 24
  %502 = load i32, ptr %501, align 8, !tbaa !18
  %503 = getelementptr i8, ptr %0, i64 32
  %504 = load ptr, ptr %503, align 8, !tbaa !20
  tail call fastcc void @_ZL2NFPN2kc7impl_IDEPNS_12impl_problemE(i32 %502, ptr %504, ptr noundef %500)
  br label %638

505:                                              ; preds = %493
  %506 = load ptr, ptr %33, align 8, !tbaa !5
  %507 = load ptr, ptr %506, align 8
  %508 = tail call noundef i32 %507(ptr noundef nonnull align 8 dereferenceable(8) %33)
  %509 = icmp eq i32 %508, 183
  br i1 %509, label %510, label %517

510:                                              ; preds = %505
  %511 = load ptr, ptr %14, align 8, !tbaa !16
  %512 = tail call noundef ptr @_ZN2kc16Problem1S1t1S1IDEPKcPNS_11impl_IDtypeES1_PNS_7impl_IDE(ptr noundef nonnull @.str.24, ptr noundef %511, ptr noundef nonnull @.str.26, ptr noundef nonnull %0)
  %513 = getelementptr i8, ptr %0, i64 24
  %514 = load i32, ptr %513, align 8, !tbaa !18
  %515 = getelementptr i8, ptr %0, i64 32
  %516 = load ptr, ptr %515, align 8, !tbaa !20
  tail call fastcc void @_ZL2NFPN2kc7impl_IDEPNS_12impl_problemE(i32 %514, ptr %516, ptr noundef %512)
  br label %638

517:                                              ; preds = %505
  %518 = load ptr, ptr %33, align 8, !tbaa !5
  %519 = load ptr, ptr %518, align 8
  %520 = tail call noundef i32 %519(ptr noundef nonnull align 8 dereferenceable(8) %33)
  %521 = icmp eq i32 %520, 182
  br i1 %521, label %522, label %529

522:                                              ; preds = %517
  %523 = load ptr, ptr %14, align 8, !tbaa !16
  %524 = tail call noundef ptr @_ZN2kc16Problem1S1t1S1IDEPKcPNS_11impl_IDtypeES1_PNS_7impl_IDE(ptr noundef nonnull @.str.27, ptr noundef %523, ptr noundef nonnull @.str.26, ptr noundef nonnull %0)
  %525 = getelementptr i8, ptr %0, i64 24
  %526 = load i32, ptr %525, align 8, !tbaa !18
  %527 = getelementptr i8, ptr %0, i64 32
  %528 = load ptr, ptr %527, align 8, !tbaa !20
  tail call fastcc void @_ZL2NFPN2kc7impl_IDEPNS_12impl_problemE(i32 %526, ptr %528, ptr noundef %524)
  br label %638

529:                                              ; preds = %517
  %530 = load ptr, ptr %33, align 8, !tbaa !5
  %531 = load ptr, ptr %530, align 8
  %532 = tail call noundef i32 %531(ptr noundef nonnull align 8 dereferenceable(8) %33)
  %533 = icmp eq i32 %532, 180
  br i1 %533, label %534, label %541

534:                                              ; preds = %529
  %535 = load ptr, ptr %14, align 8, !tbaa !16
  %536 = tail call noundef ptr @_ZN2kc16Problem1S1t1S1IDEPKcPNS_11impl_IDtypeES1_PNS_7impl_IDE(ptr noundef nonnull @.str.24, ptr noundef %535, ptr noundef nonnull @.str.28, ptr noundef nonnull %0)
  %537 = getelementptr i8, ptr %0, i64 24
  %538 = load i32, ptr %537, align 8, !tbaa !18
  %539 = getelementptr i8, ptr %0, i64 32
  %540 = load ptr, ptr %539, align 8, !tbaa !20
  tail call fastcc void @_ZL2NFPN2kc7impl_IDEPNS_12impl_problemE(i32 %538, ptr %540, ptr noundef %536)
  br label %638

541:                                              ; preds = %529
  %542 = load ptr, ptr %33, align 8, !tbaa !5
  %543 = load ptr, ptr %542, align 8
  %544 = tail call noundef i32 %543(ptr noundef nonnull align 8 dereferenceable(8) %33)
  %545 = icmp eq i32 %544, 179
  br i1 %545, label %546, label %553

546:                                              ; preds = %541
  %547 = load ptr, ptr %14, align 8, !tbaa !16
  %548 = tail call noundef ptr @_ZN2kc16Problem1S1t1S1IDEPKcPNS_11impl_IDtypeES1_PNS_7impl_IDE(ptr noundef nonnull @.str.27, ptr noundef %547, ptr noundef nonnull @.str.28, ptr noundef nonnull %0)
  %549 = getelementptr i8, ptr %0, i64 24
  %550 = load i32, ptr %549, align 8, !tbaa !18
  %551 = getelementptr i8, ptr %0, i64 32
  %552 = load ptr, ptr %551, align 8, !tbaa !20
  tail call fastcc void @_ZL2NFPN2kc7impl_IDEPNS_12impl_problemE(i32 %550, ptr %552, ptr noundef %548)
  br label %638

553:                                              ; preds = %541
  %554 = load ptr, ptr %33, align 8, !tbaa !5
  %555 = load ptr, ptr %554, align 8
  %556 = tail call noundef i32 %555(ptr noundef nonnull align 8 dereferenceable(8) %33)
  %557 = icmp eq i32 %556, 184
  br i1 %557, label %558, label %565

558:                                              ; preds = %553
  %559 = load ptr, ptr %14, align 8, !tbaa !16
  %560 = tail call noundef ptr @_ZN2kc16Problem1S1t1S1IDEPKcPNS_11impl_IDtypeES1_PNS_7impl_IDE(ptr noundef nonnull @.str.24, ptr noundef %559, ptr noundef nonnull @.str.29, ptr noundef nonnull %0)
  %561 = getelementptr i8, ptr %0, i64 24
  %562 = load i32, ptr %561, align 8, !tbaa !18
  %563 = getelementptr i8, ptr %0, i64 32
  %564 = load ptr, ptr %563, align 8, !tbaa !20
  tail call fastcc void @_ZL2NFPN2kc7impl_IDEPNS_12impl_problemE(i32 %562, ptr %564, ptr noundef %560)
  br label %638

565:                                              ; preds = %553
  %566 = load ptr, ptr %33, align 8, !tbaa !5
  %567 = load ptr, ptr %566, align 8
  %568 = tail call noundef i32 %567(ptr noundef nonnull align 8 dereferenceable(8) %33)
  %569 = icmp eq i32 %568, 178
  br i1 %569, label %570, label %577

570:                                              ; preds = %565
  %571 = load ptr, ptr %14, align 8, !tbaa !16
  %572 = tail call noundef ptr @_ZN2kc16Problem1S1t1S1IDEPKcPNS_11impl_IDtypeES1_PNS_7impl_IDE(ptr noundef nonnull @.str.24, ptr noundef %571, ptr noundef nonnull @.str.30, ptr noundef nonnull %0)
  %573 = getelementptr i8, ptr %0, i64 24
  %574 = load i32, ptr %573, align 8, !tbaa !18
  %575 = getelementptr i8, ptr %0, i64 32
  %576 = load ptr, ptr %575, align 8, !tbaa !20
  tail call fastcc void @_ZL2NFPN2kc7impl_IDEPNS_12impl_problemE(i32 %574, ptr %576, ptr noundef %572)
  br label %638

577:                                              ; preds = %565
  %578 = load ptr, ptr %33, align 8, !tbaa !5
  %579 = load ptr, ptr %578, align 8
  %580 = tail call noundef i32 %579(ptr noundef nonnull align 8 dereferenceable(8) %33)
  %581 = icmp eq i32 %580, 177
  br i1 %581, label %582, label %589

582:                                              ; preds = %577
  %583 = load ptr, ptr %14, align 8, !tbaa !16
  %584 = tail call noundef ptr @_ZN2kc16Problem1S1t1S1IDEPKcPNS_11impl_IDtypeES1_PNS_7impl_IDE(ptr noundef nonnull @.str.27, ptr noundef %583, ptr noundef nonnull @.str.31, ptr noundef nonnull %0)
  %585 = getelementptr i8, ptr %0, i64 24
  %586 = load i32, ptr %585, align 8, !tbaa !18
  %587 = getelementptr i8, ptr %0, i64 32
  %588 = load ptr, ptr %587, align 8, !tbaa !20
  tail call fastcc void @_ZL2NFPN2kc7impl_IDEPNS_12impl_problemE(i32 %586, ptr %588, ptr noundef %584)
  br label %638

589:                                              ; preds = %577
  %590 = load ptr, ptr %33, align 8, !tbaa !5
  %591 = load ptr, ptr %590, align 8
  %592 = tail call noundef i32 %591(ptr noundef nonnull align 8 dereferenceable(8) %33)
  %593 = icmp eq i32 %592, 176
  br i1 %593, label %594, label %601

594:                                              ; preds = %589
  %595 = load ptr, ptr %14, align 8, !tbaa !16
  %596 = tail call noundef ptr @_ZN2kc16Problem1S1t1S1IDEPKcPNS_11impl_IDtypeES1_PNS_7impl_IDE(ptr noundef nonnull @.str.24, ptr noundef %595, ptr noundef nonnull @.str.32, ptr noundef nonnull %0)
  %597 = getelementptr i8, ptr %0, i64 24
  %598 = load i32, ptr %597, align 8, !tbaa !18
  %599 = getelementptr i8, ptr %0, i64 32
  %600 = load ptr, ptr %599, align 8, !tbaa !20
  tail call fastcc void @_ZL2NFPN2kc7impl_IDEPNS_12impl_problemE(i32 %598, ptr %600, ptr noundef %596)
  br label %638

601:                                              ; preds = %589
  %602 = load ptr, ptr %33, align 8, !tbaa !5
  %603 = load ptr, ptr %602, align 8
  %604 = tail call noundef i32 %603(ptr noundef nonnull align 8 dereferenceable(8) %33)
  %605 = icmp eq i32 %604, 175
  br i1 %605, label %606, label %613

606:                                              ; preds = %601
  %607 = load ptr, ptr %14, align 8, !tbaa !16
  %608 = tail call noundef ptr @_ZN2kc16Problem1S1t1S1IDEPKcPNS_11impl_IDtypeES1_PNS_7impl_IDE(ptr noundef nonnull @.str.27, ptr noundef %607, ptr noundef nonnull @.str.32, ptr noundef nonnull %0)
  %609 = getelementptr i8, ptr %0, i64 24
  %610 = load i32, ptr %609, align 8, !tbaa !18
  %611 = getelementptr i8, ptr %0, i64 32
  %612 = load ptr, ptr %611, align 8, !tbaa !20
  tail call fastcc void @_ZL2NFPN2kc7impl_IDEPNS_12impl_problemE(i32 %610, ptr %612, ptr noundef %608)
  br label %638

613:                                              ; preds = %601
  %614 = load ptr, ptr %33, align 8, !tbaa !5
  %615 = load ptr, ptr %614, align 8
  %616 = tail call noundef i32 %615(ptr noundef nonnull align 8 dereferenceable(8) %33)
  %617 = icmp eq i32 %616, 174
  br i1 %617, label %618, label %625

618:                                              ; preds = %613
  %619 = load ptr, ptr %14, align 8, !tbaa !16
  %620 = tail call noundef ptr @_ZN2kc16Problem1S1t1S1IDEPKcPNS_11impl_IDtypeES1_PNS_7impl_IDE(ptr noundef nonnull @.str.24, ptr noundef %619, ptr noundef nonnull @.str.33, ptr noundef nonnull %0)
  %621 = getelementptr i8, ptr %0, i64 24
  %622 = load i32, ptr %621, align 8, !tbaa !18
  %623 = getelementptr i8, ptr %0, i64 32
  %624 = load ptr, ptr %623, align 8, !tbaa !20
  tail call fastcc void @_ZL2NFPN2kc7impl_IDEPNS_12impl_problemE(i32 %622, ptr %624, ptr noundef %620)
  br label %638

625:                                              ; preds = %613
  %626 = load ptr, ptr %33, align 8, !tbaa !5
  %627 = load ptr, ptr %626, align 8
  %628 = tail call noundef i32 %627(ptr noundef nonnull align 8 dereferenceable(8) %33)
  %629 = icmp eq i32 %628, 173
  br i1 %629, label %630, label %637

630:                                              ; preds = %625
  %631 = load ptr, ptr %14, align 8, !tbaa !16
  %632 = tail call noundef ptr @_ZN2kc16Problem1S1t1S1IDEPKcPNS_11impl_IDtypeES1_PNS_7impl_IDE(ptr noundef nonnull @.str.27, ptr noundef %631, ptr noundef nonnull @.str.33, ptr noundef nonnull %0)
  %633 = getelementptr i8, ptr %0, i64 24
  %634 = load i32, ptr %633, align 8, !tbaa !18
  %635 = getelementptr i8, ptr %0, i64 32
  %636 = load ptr, ptr %635, align 8, !tbaa !20
  tail call fastcc void @_ZL2NFPN2kc7impl_IDEPNS_12impl_problemE(i32 %634, ptr %636, ptr noundef %632)
  br label %638

637:                                              ; preds = %625
  tail call void @_ZN2kc21kc_no_default_in_withEPKciS1_(ptr noundef nonnull @.str, i32 noundef 255, ptr noundef nonnull @.str.1)
  br label %638

638:                                              ; preds = %142, %25, %11, %44, %78, %181, %215, %247, %279, %311, %343, %375, %407, %439, %471, %498, %522, %546, %570, %594, %618, %637, %630, %606, %582, %558, %534, %510, %487, %455, %423, %391, %359, %327, %295, %263, %231, %199, %61, %125, %131, %109, %115, %165, %159
  ret void
}

declare void @_ZN2kc21kc_no_default_in_withEPKciS1_(ptr noundef, i32 noundef, ptr noundef) local_unnamed_addr #1

declare noundef zeroext i1 @_ZNK2kc20impl_abstract_phylum2eqEPKS0_(ptr noundef nonnull align 8 dereferenceable(8), ptr noundef) local_unnamed_addr #1

; Function Attrs: inlinehint mustprogress uwtable
define internal fastcc void @_ZL2NFPN2kc7impl_IDEPNS_12impl_problemE(i32 %0, ptr %1, ptr noundef %2) unnamed_addr #2 {
  %4 = tail call noundef ptr @_ZN2kc8FileLineEPNS_20impl_casestring__StrEi(ptr noundef %1, i32 noundef %0)
  %5 = tail call noundef ptr @_ZN2kc8NonFatalEPNS_13impl_filelineEPNS_12impl_problemE(ptr noundef %4, ptr noundef %2)
  tail call void @_ZN2kc8v_reportEPNS_10impl_errorE(ptr noundef %5)
  ret void
}

declare noundef ptr @_ZN2kc12Problem1S1IDEPKcPNS_7impl_IDE(ptr noundef, ptr noundef) local_unnamed_addr #1

declare noundef ptr @_ZN2kc16Problem1S1t1S1IDEPKcPNS_11impl_IDtypeES1_PNS_7impl_IDE(ptr noundef, ptr noundef, ptr noundef, ptr noundef) local_unnamed_addr #1

; Function Attrs: mustprogress uwtable
define dso_local void @_ZN2kc13v_extendoccurEPNS_7impl_IDEPNS_11impl_IDtypeE(ptr noundef %0, ptr noundef %1) local_unnamed_addr #0 {
  tail call fastcc void @_ZN2kcL16do_v_extendoccurEPNS_7impl_IDEPNS_11impl_IDtypeEb(ptr noundef %0, ptr noundef %1, i1 noundef zeroext true)
  ret void
}

; Function Attrs: mustprogress uwtable
define internal fastcc void @_ZN2kcL16do_v_extendoccurEPNS_7impl_IDEPNS_11impl_IDtypeEb(ptr noundef %0, ptr noundef %1, i1 noundef zeroext %2) unnamed_addr #0 {
  %4 = load ptr, ptr %0, align 8, !tbaa !5
  %5 = load ptr, ptr %4, align 8
  %6 = tail call noundef i32 %5(ptr noundef nonnull align 8 dereferenceable(8) %0)
  %7 = icmp eq i32 %6, 7
  br i1 %7, label %8, label %11

8:                                                ; preds = %3
  %9 = getelementptr inbounds %"class.kc::impl_ID_Id", ptr %0, i64 0, i32 1
  %10 = load ptr, ptr %9, align 8, !tbaa !8
  br label %12

11:                                               ; preds = %3
  tail call void @_ZN2kc21kc_no_default_in_withEPKciS1_(ptr noundef nonnull @.str.55, i32 noundef 277, ptr noundef nonnull @.str.1)
  br label %12

12:                                               ; preds = %11, %8
  %13 = phi ptr [ %10, %8 ], [ undef, %11 ]
  %14 = getelementptr inbounds %"class.kc::impl_ID", ptr %0, i64 0, i32 1
  store ptr %1, ptr %14, align 8, !tbaa !15
  %15 = getelementptr inbounds %"class.kc::impl_uniqID", ptr %13, i64 0, i32 1
  %16 = load ptr, ptr %15, align 8, !tbaa !16
  %17 = load ptr, ptr %1, align 8, !tbaa !5
  %18 = load ptr, ptr %17, align 8
  %19 = tail call noundef i32 %18(ptr noundef nonnull align 8 dereferenceable(8) %1)
  %20 = icmp eq i32 %19, 172
  br i1 %20, label %543, label %21

21:                                               ; preds = %12
  %22 = load ptr, ptr %16, align 8, !tbaa !5
  %23 = load ptr, ptr %22, align 8
  %24 = tail call noundef i32 %23(ptr noundef nonnull align 8 dereferenceable(8) %16)
  %25 = icmp eq i32 %24, 172
  br i1 %25, label %26, label %33

26:                                               ; preds = %21
  store ptr %1, ptr %15, align 8, !tbaa !16
  %27 = getelementptr inbounds %"class.kc::impl_ID", ptr %0, i64 0, i32 3
  %28 = load i32, ptr %27, align 8, !tbaa !18
  %29 = getelementptr inbounds %"class.kc::impl_uniqID", ptr %13, i64 0, i32 2
  store i32 %28, ptr %29, align 8, !tbaa !19
  %30 = getelementptr inbounds %"class.kc::impl_ID", ptr %0, i64 0, i32 4
  %31 = load ptr, ptr %30, align 8, !tbaa !20
  %32 = getelementptr inbounds %"class.kc::impl_uniqID", ptr %13, i64 0, i32 3
  store ptr %31, ptr %32, align 8, !tbaa !21
  br label %543

33:                                               ; preds = %21
  %34 = load ptr, ptr %14, align 8, !tbaa !15
  %35 = load ptr, ptr %15, align 8, !tbaa !16
  %36 = load ptr, ptr %34, align 8, !tbaa !5
  %37 = load ptr, ptr %36, align 8
  %38 = tail call noundef i32 %37(ptr noundef nonnull align 8 dereferenceable(8) %34)
  %39 = icmp eq i32 %38, 185
  br i1 %39, label %40, label %78

40:                                               ; preds = %33
  %41 = load ptr, ptr %35, align 8, !tbaa !5
  %42 = load ptr, ptr %41, align 8
  %43 = tail call noundef i32 %42(ptr noundef nonnull align 8 dereferenceable(8) %35)
  %44 = icmp eq i32 %43, 185
  br i1 %44, label %45, label %78

45:                                               ; preds = %40
  %46 = getelementptr inbounds %"class.kc::impl_IDtype_ITPatternVariable", ptr %34, i64 0, i32 1
  %47 = load ptr, ptr %46, align 8, !tbaa !27
  %48 = getelementptr inbounds %"class.kc::impl_IDtype_ITPatternVariable", ptr %34, i64 0, i32 2
  %49 = load ptr, ptr %48, align 8, !tbaa !25
  %50 = getelementptr inbounds %"class.kc::impl_IDtype_ITPatternVariable", ptr %35, i64 0, i32 1
  %51 = load ptr, ptr %50, align 8, !tbaa !27
  %52 = getelementptr inbounds %"class.kc::impl_IDtype_ITPatternVariable", ptr %35, i64 0, i32 2
  %53 = load ptr, ptr %52, align 8, !tbaa !25
  %54 = icmp eq ptr %49, %53
  br i1 %54, label %55, label %63

55:                                               ; preds = %45
  %56 = tail call noundef zeroext i1 @_ZNK2kc20impl_abstract_phylum2eqEPKS0_(ptr noundef nonnull align 8 dereferenceable(8) %47, ptr noundef %51)
  br i1 %56, label %543, label %57

57:                                               ; preds = %55
  %58 = tail call noundef ptr @_ZN2kc22Problem1S1ID1S1ID1S1IDEPKcPNS_7impl_IDES1_S3_S1_S3_(ptr noundef nonnull @.str.56, ptr noundef nonnull %0, ptr noundef nonnull @.str.57, ptr noundef %51, ptr noundef nonnull @.str.58, ptr noundef nonnull %47)
  %59 = getelementptr i8, ptr %0, i64 24
  %60 = load i32, ptr %59, align 8, !tbaa !18
  %61 = getelementptr i8, ptr %0, i64 32
  %62 = load ptr, ptr %61, align 8, !tbaa !20
  tail call fastcc void @_ZL2NFPN2kc7impl_IDEPNS_12impl_problemE(i32 %60, ptr %62, ptr noundef %58)
  br label %543

63:                                               ; preds = %45
  %64 = load ptr, ptr %15, align 8, !tbaa !16
  %65 = getelementptr inbounds %"class.kc::impl_uniqID", ptr %13, i64 0, i32 3
  %66 = load ptr, ptr %65, align 8, !tbaa !21
  %67 = getelementptr inbounds %"class.kc::impl_uniqID", ptr %13, i64 0, i32 2
  %68 = load i32, ptr %67, align 8, !tbaa !19
  %69 = tail call noundef ptr @_ZN2kc9mkintegerEi(i32 noundef %68)
  %70 = tail call noundef ptr @_ZN2kc17ScopeTypeFileLineEPNS_17impl_integer__IntEPNS_11impl_IDtypeEPNS_20impl_casestring__StrES1_(ptr noundef %49, ptr noundef %64, ptr noundef %66, ptr noundef %69)
  %71 = getelementptr inbounds %"class.kc::impl_uniqID", ptr %13, i64 0, i32 4
  %72 = load ptr, ptr %71, align 8, !tbaa !28
  %73 = tail call noundef ptr @_ZN2kc26ConsscopetypefilelinestackEPNS_22impl_scopetypefilelineEPNS_27impl_scopetypefilelinestackE(ptr noundef %70, ptr noundef %72)
  store ptr %73, ptr %71, align 8, !tbaa !28
  store ptr %1, ptr %15, align 8, !tbaa !16
  %74 = getelementptr inbounds %"class.kc::impl_ID", ptr %0, i64 0, i32 3
  %75 = load i32, ptr %74, align 8, !tbaa !18
  store i32 %75, ptr %67, align 8, !tbaa !19
  %76 = getelementptr inbounds %"class.kc::impl_ID", ptr %0, i64 0, i32 4
  %77 = load ptr, ptr %76, align 8, !tbaa !20
  store ptr %77, ptr %65, align 8, !tbaa !21
  br label %543

78:                                               ; preds = %40, %33
  %79 = load ptr, ptr %34, align 8, !tbaa !5
  %80 = load ptr, ptr %79, align 8
  %81 = tail call noundef i32 %80(ptr noundef nonnull align 8 dereferenceable(8) %34)
  %82 = icmp eq i32 %81, 183
  br i1 %82, label %83, label %97

83:                                               ; preds = %78
  %84 = load ptr, ptr %35, align 8, !tbaa !5
  %85 = load ptr, ptr %84, align 8
  %86 = tail call noundef i32 %85(ptr noundef nonnull align 8 dereferenceable(8) %35)
  %87 = icmp eq i32 %86, 183
  br i1 %87, label %88, label %97

88:                                               ; preds = %83
  br i1 %2, label %89, label %543

89:                                               ; preds = %88
  %90 = tail call noundef ptr @_ZN2kc12Problem1S1IDEPKcPNS_7impl_IDE(ptr noundef nonnull @.str.59, ptr noundef nonnull %0)
  %91 = getelementptr i8, ptr %0, i64 24
  %92 = load i32, ptr %91, align 8, !tbaa !18
  %93 = getelementptr i8, ptr %0, i64 32
  %94 = load ptr, ptr %93, align 8, !tbaa !20
  %95 = tail call noundef ptr @_ZN2kc8FileLineEPNS_20impl_casestring__StrEi(ptr noundef %94, i32 noundef %92)
  %96 = tail call noundef ptr @_ZN2kc8NonFatalEPNS_13impl_filelineEPNS_12impl_problemE(ptr noundef %95, ptr noundef %90)
  tail call void @_ZN2kc8v_reportEPNS_10impl_errorE(ptr noundef %96)
  br label %543

97:                                               ; preds = %83, %78
  %98 = load ptr, ptr %34, align 8, !tbaa !5
  %99 = load ptr, ptr %98, align 8
  %100 = tail call noundef i32 %99(ptr noundef nonnull align 8 dereferenceable(8) %34)
  %101 = icmp eq i32 %100, 183
  br i1 %101, label %102, label %114

102:                                              ; preds = %97
  %103 = load ptr, ptr %35, align 8, !tbaa !5
  %104 = load ptr, ptr %103, align 8
  %105 = tail call noundef i32 %104(ptr noundef nonnull align 8 dereferenceable(8) %35)
  %106 = icmp eq i32 %105, 182
  br i1 %106, label %107, label %114

107:                                              ; preds = %102
  br i1 %2, label %108, label %543

108:                                              ; preds = %107
  %109 = tail call noundef ptr @_ZN2kc12Problem1S1IDEPKcPNS_7impl_IDE(ptr noundef nonnull @.str.60, ptr noundef nonnull %0)
  %110 = getelementptr i8, ptr %0, i64 24
  %111 = load i32, ptr %110, align 8, !tbaa !18
  %112 = getelementptr i8, ptr %0, i64 32
  %113 = load ptr, ptr %112, align 8, !tbaa !20
  tail call fastcc void @_ZL2NFPN2kc7impl_IDEPNS_12impl_problemE(i32 %111, ptr %113, ptr noundef %109)
  br label %543

114:                                              ; preds = %102, %97
  %115 = load ptr, ptr %34, align 8, !tbaa !5
  %116 = load ptr, ptr %115, align 8
  %117 = tail call noundef i32 %116(ptr noundef nonnull align 8 dereferenceable(8) %34)
  %118 = icmp eq i32 %117, 182
  br i1 %118, label %119, label %132

119:                                              ; preds = %114
  %120 = load ptr, ptr %35, align 8, !tbaa !5
  %121 = load ptr, ptr %120, align 8
  %122 = tail call noundef i32 %121(ptr noundef nonnull align 8 dereferenceable(8) %35)
  %123 = icmp eq i32 %122, 183
  br i1 %123, label %124, label %132

124:                                              ; preds = %119
  %125 = tail call noundef ptr @_ZN2kc12Problem1S1IDEPKcPNS_7impl_IDE(ptr noundef nonnull @.str.61, ptr noundef nonnull %0)
  %126 = getelementptr i8, ptr %0, i64 24
  %127 = load i32, ptr %126, align 8, !tbaa !18
  %128 = getelementptr i8, ptr %0, i64 32
  %129 = load ptr, ptr %128, align 8, !tbaa !20
  %130 = tail call noundef ptr @_ZN2kc8FileLineEPNS_20impl_casestring__StrEi(ptr noundef %129, i32 noundef %127)
  %131 = tail call noundef ptr @_ZN2kc8NonFatalEPNS_13impl_filelineEPNS_12impl_problemE(ptr noundef %130, ptr noundef %125)
  tail call void @_ZN2kc8v_reportEPNS_10impl_errorE(ptr noundef %131)
  br label %543

132:                                              ; preds = %119, %114
  %133 = load ptr, ptr %34, align 8, !tbaa !5
  %134 = load ptr, ptr %133, align 8
  %135 = tail call noundef i32 %134(ptr noundef nonnull align 8 dereferenceable(8) %34)
  %136 = icmp eq i32 %135, 182
  br i1 %136, label %137, label %148

137:                                              ; preds = %132
  %138 = load ptr, ptr %35, align 8, !tbaa !5
  %139 = load ptr, ptr %138, align 8
  %140 = tail call noundef i32 %139(ptr noundef nonnull align 8 dereferenceable(8) %35)
  %141 = icmp eq i32 %140, 182
  br i1 %141, label %142, label %148

142:                                              ; preds = %137
  %143 = tail call noundef ptr @_ZN2kc12Problem1S1IDEPKcPNS_7impl_IDE(ptr noundef nonnull @.str.62, ptr noundef nonnull %0)
  %144 = getelementptr i8, ptr %0, i64 24
  %145 = load i32, ptr %144, align 8, !tbaa !18
  %146 = getelementptr i8, ptr %0, i64 32
  %147 = load ptr, ptr %146, align 8, !tbaa !20
  tail call fastcc void @_ZL2NFPN2kc7impl_IDEPNS_12impl_problemE(i32 %145, ptr %147, ptr noundef %143)
  br label %543

148:                                              ; preds = %137, %132
  %149 = load ptr, ptr %34, align 8, !tbaa !5
  %150 = load ptr, ptr %149, align 8
  %151 = tail call noundef i32 %150(ptr noundef nonnull align 8 dereferenceable(8) %34)
  %152 = icmp eq i32 %151, 180
  br i1 %152, label %153, label %165

153:                                              ; preds = %148
  %154 = load ptr, ptr %35, align 8, !tbaa !5
  %155 = load ptr, ptr %154, align 8
  %156 = tail call noundef i32 %155(ptr noundef nonnull align 8 dereferenceable(8) %35)
  %157 = icmp eq i32 %156, 180
  br i1 %157, label %158, label %165

158:                                              ; preds = %153
  br i1 %2, label %159, label %543

159:                                              ; preds = %158
  %160 = tail call noundef ptr @_ZN2kc12Problem1S1IDEPKcPNS_7impl_IDE(ptr noundef nonnull @.str.63, ptr noundef nonnull %0)
  %161 = getelementptr i8, ptr %0, i64 24
  %162 = load i32, ptr %161, align 8, !tbaa !18
  %163 = getelementptr i8, ptr %0, i64 32
  %164 = load ptr, ptr %163, align 8, !tbaa !20
  tail call fastcc void @_ZL2NFPN2kc7impl_IDEPNS_12impl_problemE(i32 %162, ptr %164, ptr noundef %160)
  br label %543

165:                                              ; preds = %153, %148
  %166 = load ptr, ptr %34, align 8, !tbaa !5
  %167 = load ptr, ptr %166, align 8
  %168 = tail call noundef i32 %167(ptr noundef nonnull align 8 dereferenceable(8) %34)
  %169 = icmp eq i32 %168, 180
  br i1 %169, label %170, label %182

170:                                              ; preds = %165
  %171 = load ptr, ptr %35, align 8, !tbaa !5
  %172 = load ptr, ptr %171, align 8
  %173 = tail call noundef i32 %172(ptr noundef nonnull align 8 dereferenceable(8) %35)
  %174 = icmp eq i32 %173, 179
  br i1 %174, label %175, label %182

175:                                              ; preds = %170
  br i1 %2, label %176, label %543

176:                                              ; preds = %175
  %177 = tail call noundef ptr @_ZN2kc12Problem1S1IDEPKcPNS_7impl_IDE(ptr noundef nonnull @.str.64, ptr noundef nonnull %0)
  %178 = getelementptr i8, ptr %0, i64 24
  %179 = load i32, ptr %178, align 8, !tbaa !18
  %180 = getelementptr i8, ptr %0, i64 32
  %181 = load ptr, ptr %180, align 8, !tbaa !20
  tail call fastcc void @_ZL2NFPN2kc7impl_IDEPNS_12impl_problemE(i32 %179, ptr %181, ptr noundef %177)
  br label %543

182:                                              ; preds = %170, %165
  %183 = load ptr, ptr %34, align 8, !tbaa !5
  %184 = load ptr, ptr %183, align 8
  %185 = tail call noundef i32 %184(ptr noundef nonnull align 8 dereferenceable(8) %34)
  %186 = icmp eq i32 %185, 179
  br i1 %186, label %187, label %198

187:                                              ; preds = %182
  %188 = load ptr, ptr %35, align 8, !tbaa !5
  %189 = load ptr, ptr %188, align 8
  %190 = tail call noundef i32 %189(ptr noundef nonnull align 8 dereferenceable(8) %35)
  %191 = icmp eq i32 %190, 180
  br i1 %191, label %192, label %198

192:                                              ; preds = %187
  %193 = tail call noundef ptr @_ZN2kc12Problem1S1IDEPKcPNS_7impl_IDE(ptr noundef nonnull @.str.65, ptr noundef nonnull %0)
  %194 = getelementptr i8, ptr %0, i64 24
  %195 = load i32, ptr %194, align 8, !tbaa !18
  %196 = getelementptr i8, ptr %0, i64 32
  %197 = load ptr, ptr %196, align 8, !tbaa !20
  tail call fastcc void @_ZL2NFPN2kc7impl_IDEPNS_12impl_problemE(i32 %195, ptr %197, ptr noundef %193)
  br label %543

198:                                              ; preds = %187, %182
  %199 = load ptr, ptr %34, align 8, !tbaa !5
  %200 = load ptr, ptr %199, align 8
  %201 = tail call noundef i32 %200(ptr noundef nonnull align 8 dereferenceable(8) %34)
  %202 = icmp eq i32 %201, 179
  br i1 %202, label %203, label %214

203:                                              ; preds = %198
  %204 = load ptr, ptr %35, align 8, !tbaa !5
  %205 = load ptr, ptr %204, align 8
  %206 = tail call noundef i32 %205(ptr noundef nonnull align 8 dereferenceable(8) %35)
  %207 = icmp eq i32 %206, 179
  br i1 %207, label %208, label %214

208:                                              ; preds = %203
  %209 = tail call noundef ptr @_ZN2kc12Problem1S1IDEPKcPNS_7impl_IDE(ptr noundef nonnull @.str.66, ptr noundef nonnull %0)
  %210 = getelementptr i8, ptr %0, i64 24
  %211 = load i32, ptr %210, align 8, !tbaa !18
  %212 = getelementptr i8, ptr %0, i64 32
  %213 = load ptr, ptr %212, align 8, !tbaa !20
  tail call fastcc void @_ZL2NFPN2kc7impl_IDEPNS_12impl_problemE(i32 %211, ptr %213, ptr noundef %209)
  br label %543

214:                                              ; preds = %203, %198
  %215 = load ptr, ptr %34, align 8, !tbaa !5
  %216 = load ptr, ptr %215, align 8
  %217 = tail call noundef i32 %216(ptr noundef nonnull align 8 dereferenceable(8) %34)
  %218 = icmp eq i32 %217, 184
  br i1 %218, label %219, label %230

219:                                              ; preds = %214
  %220 = load ptr, ptr %35, align 8, !tbaa !5
  %221 = load ptr, ptr %220, align 8
  %222 = tail call noundef i32 %221(ptr noundef nonnull align 8 dereferenceable(8) %35)
  %223 = icmp eq i32 %222, 184
  br i1 %223, label %224, label %230

224:                                              ; preds = %219
  %225 = tail call noundef ptr @_ZN2kc12Problem1S1IDEPKcPNS_7impl_IDE(ptr noundef nonnull @.str.67, ptr noundef nonnull %0)
  %226 = getelementptr i8, ptr %0, i64 24
  %227 = load i32, ptr %226, align 8, !tbaa !18
  %228 = getelementptr i8, ptr %0, i64 32
  %229 = load ptr, ptr %228, align 8, !tbaa !20
  tail call fastcc void @_ZL2NFPN2kc7impl_IDEPNS_12impl_problemE(i32 %227, ptr %229, ptr noundef %225)
  br label %543

230:                                              ; preds = %219, %214
  %231 = load ptr, ptr %34, align 8, !tbaa !5
  %232 = load ptr, ptr %231, align 8
  %233 = tail call noundef i32 %232(ptr noundef nonnull align 8 dereferenceable(8) %34)
  %234 = icmp eq i32 %233, 178
  br i1 %234, label %235, label %240

235:                                              ; preds = %230
  %236 = load ptr, ptr %35, align 8, !tbaa !5
  %237 = load ptr, ptr %236, align 8
  %238 = tail call noundef i32 %237(ptr noundef nonnull align 8 dereferenceable(8) %35)
  %239 = icmp eq i32 %238, 178
  br i1 %239, label %543, label %240

240:                                              ; preds = %235, %230
  %241 = load ptr, ptr %34, align 8, !tbaa !5
  %242 = load ptr, ptr %241, align 8
  %243 = tail call noundef i32 %242(ptr noundef nonnull align 8 dereferenceable(8) %34)
  %244 = icmp eq i32 %243, 178
  br i1 %244, label %245, label %250

245:                                              ; preds = %240
  %246 = load ptr, ptr %35, align 8, !tbaa !5
  %247 = load ptr, ptr %246, align 8
  %248 = tail call noundef i32 %247(ptr noundef nonnull align 8 dereferenceable(8) %35)
  %249 = icmp eq i32 %248, 177
  br i1 %249, label %543, label %250

250:                                              ; preds = %245, %240
  %251 = load ptr, ptr %34, align 8, !tbaa !5
  %252 = load ptr, ptr %251, align 8
  %253 = tail call noundef i32 %252(ptr noundef nonnull align 8 dereferenceable(8) %34)
  %254 = icmp eq i32 %253, 177
  br i1 %254, label %255, label %266

255:                                              ; preds = %250
  %256 = load ptr, ptr %35, align 8, !tbaa !5
  %257 = load ptr, ptr %256, align 8
  %258 = tail call noundef i32 %257(ptr noundef nonnull align 8 dereferenceable(8) %35)
  %259 = icmp eq i32 %258, 178
  br i1 %259, label %260, label %266

260:                                              ; preds = %255
  %261 = tail call noundef ptr @_ZN2kc12Problem1S1IDEPKcPNS_7impl_IDE(ptr noundef nonnull @.str.68, ptr noundef nonnull %0)
  %262 = getelementptr i8, ptr %0, i64 24
  %263 = load i32, ptr %262, align 8, !tbaa !18
  %264 = getelementptr i8, ptr %0, i64 32
  %265 = load ptr, ptr %264, align 8, !tbaa !20
  tail call fastcc void @_ZL2NFPN2kc7impl_IDEPNS_12impl_problemE(i32 %263, ptr %265, ptr noundef %261)
  br label %543

266:                                              ; preds = %255, %250
  %267 = load ptr, ptr %34, align 8, !tbaa !5
  %268 = load ptr, ptr %267, align 8
  %269 = tail call noundef i32 %268(ptr noundef nonnull align 8 dereferenceable(8) %34)
  %270 = icmp eq i32 %269, 177
  br i1 %270, label %271, label %282

271:                                              ; preds = %266
  %272 = load ptr, ptr %35, align 8, !tbaa !5
  %273 = load ptr, ptr %272, align 8
  %274 = tail call noundef i32 %273(ptr noundef nonnull align 8 dereferenceable(8) %35)
  %275 = icmp eq i32 %274, 177
  br i1 %275, label %276, label %282

276:                                              ; preds = %271
  %277 = tail call noundef ptr @_ZN2kc12Problem1S1IDEPKcPNS_7impl_IDE(ptr noundef nonnull @.str.69, ptr noundef nonnull %0)
  %278 = getelementptr i8, ptr %0, i64 24
  %279 = load i32, ptr %278, align 8, !tbaa !18
  %280 = getelementptr i8, ptr %0, i64 32
  %281 = load ptr, ptr %280, align 8, !tbaa !20
  tail call fastcc void @_ZL2NFPN2kc7impl_IDEPNS_12impl_problemE(i32 %279, ptr %281, ptr noundef %277)
  br label %543

282:                                              ; preds = %271, %266
  %283 = load ptr, ptr %34, align 8, !tbaa !5
  %284 = load ptr, ptr %283, align 8
  %285 = tail call noundef i32 %284(ptr noundef nonnull align 8 dereferenceable(8) %34)
  %286 = icmp eq i32 %285, 176
  br i1 %286, label %287, label %298

287:                                              ; preds = %282
  %288 = load ptr, ptr %35, align 8, !tbaa !5
  %289 = load ptr, ptr %288, align 8
  %290 = tail call noundef i32 %289(ptr noundef nonnull align 8 dereferenceable(8) %35)
  %291 = icmp eq i32 %290, 176
  br i1 %291, label %292, label %298

292:                                              ; preds = %287
  %293 = tail call noundef ptr @_ZN2kc12Problem1S1IDEPKcPNS_7impl_IDE(ptr noundef nonnull @.str.16, ptr noundef nonnull %0)
  %294 = getelementptr i8, ptr %0, i64 24
  %295 = load i32, ptr %294, align 8, !tbaa !18
  %296 = getelementptr i8, ptr %0, i64 32
  %297 = load ptr, ptr %296, align 8, !tbaa !20
  tail call fastcc void @_ZL2NFPN2kc7impl_IDEPNS_12impl_problemE(i32 %295, ptr %297, ptr noundef %293)
  br label %543

298:                                              ; preds = %287, %282
  %299 = load ptr, ptr %34, align 8, !tbaa !5
  %300 = load ptr, ptr %299, align 8
  %301 = tail call noundef i32 %300(ptr noundef nonnull align 8 dereferenceable(8) %34)
  %302 = icmp eq i32 %301, 176
  br i1 %302, label %303, label %314

303:                                              ; preds = %298
  %304 = load ptr, ptr %35, align 8, !tbaa !5
  %305 = load ptr, ptr %304, align 8
  %306 = tail call noundef i32 %305(ptr noundef nonnull align 8 dereferenceable(8) %35)
  %307 = icmp eq i32 %306, 175
  br i1 %307, label %308, label %314

308:                                              ; preds = %303
  %309 = tail call noundef ptr @_ZN2kc12Problem1S1IDEPKcPNS_7impl_IDE(ptr noundef nonnull @.str.70, ptr noundef nonnull %0)
  %310 = getelementptr i8, ptr %0, i64 24
  %311 = load i32, ptr %310, align 8, !tbaa !18
  %312 = getelementptr i8, ptr %0, i64 32
  %313 = load ptr, ptr %312, align 8, !tbaa !20
  tail call fastcc void @_ZL2NFPN2kc7impl_IDEPNS_12impl_problemE(i32 %311, ptr %313, ptr noundef %309)
  br label %543

314:                                              ; preds = %303, %298
  %315 = load ptr, ptr %34, align 8, !tbaa !5
  %316 = load ptr, ptr %315, align 8
  %317 = tail call noundef i32 %316(ptr noundef nonnull align 8 dereferenceable(8) %34)
  %318 = icmp eq i32 %317, 175
  br i1 %318, label %319, label %330

319:                                              ; preds = %314
  %320 = load ptr, ptr %35, align 8, !tbaa !5
  %321 = load ptr, ptr %320, align 8
  %322 = tail call noundef i32 %321(ptr noundef nonnull align 8 dereferenceable(8) %35)
  %323 = icmp eq i32 %322, 176
  br i1 %323, label %324, label %330

324:                                              ; preds = %319
  %325 = tail call noundef ptr @_ZN2kc12Problem1S1IDEPKcPNS_7impl_IDE(ptr noundef nonnull @.str.71, ptr noundef nonnull %0)
  %326 = getelementptr i8, ptr %0, i64 24
  %327 = load i32, ptr %326, align 8, !tbaa !18
  %328 = getelementptr i8, ptr %0, i64 32
  %329 = load ptr, ptr %328, align 8, !tbaa !20
  tail call fastcc void @_ZL2NFPN2kc7impl_IDEPNS_12impl_problemE(i32 %327, ptr %329, ptr noundef %325)
  br label %543

330:                                              ; preds = %319, %314
  %331 = load ptr, ptr %34, align 8, !tbaa !5
  %332 = load ptr, ptr %331, align 8
  %333 = tail call noundef i32 %332(ptr noundef nonnull align 8 dereferenceable(8) %34)
  %334 = icmp eq i32 %333, 175
  br i1 %334, label %335, label %346

335:                                              ; preds = %330
  %336 = load ptr, ptr %35, align 8, !tbaa !5
  %337 = load ptr, ptr %336, align 8
  %338 = tail call noundef i32 %337(ptr noundef nonnull align 8 dereferenceable(8) %35)
  %339 = icmp eq i32 %338, 175
  br i1 %339, label %340, label %346

340:                                              ; preds = %335
  %341 = tail call noundef ptr @_ZN2kc12Problem1S1IDEPKcPNS_7impl_IDE(ptr noundef nonnull @.str.70, ptr noundef nonnull %0)
  %342 = getelementptr i8, ptr %0, i64 24
  %343 = load i32, ptr %342, align 8, !tbaa !18
  %344 = getelementptr i8, ptr %0, i64 32
  %345 = load ptr, ptr %344, align 8, !tbaa !20
  tail call fastcc void @_ZL2NFPN2kc7impl_IDEPNS_12impl_problemE(i32 %343, ptr %345, ptr noundef %341)
  br label %543

346:                                              ; preds = %335, %330
  %347 = load ptr, ptr %34, align 8, !tbaa !5
  %348 = load ptr, ptr %347, align 8
  %349 = tail call noundef i32 %348(ptr noundef nonnull align 8 dereferenceable(8) %34)
  %350 = icmp eq i32 %349, 174
  br i1 %350, label %351, label %356

351:                                              ; preds = %346
  %352 = load ptr, ptr %35, align 8, !tbaa !5
  %353 = load ptr, ptr %352, align 8
  %354 = tail call noundef i32 %353(ptr noundef nonnull align 8 dereferenceable(8) %35)
  %355 = icmp eq i32 %354, 174
  br i1 %355, label %543, label %356

356:                                              ; preds = %351, %346
  %357 = load ptr, ptr %34, align 8, !tbaa !5
  %358 = load ptr, ptr %357, align 8
  %359 = tail call noundef i32 %358(ptr noundef nonnull align 8 dereferenceable(8) %34)
  %360 = icmp eq i32 %359, 174
  br i1 %360, label %361, label %372

361:                                              ; preds = %356
  %362 = load ptr, ptr %35, align 8, !tbaa !5
  %363 = load ptr, ptr %362, align 8
  %364 = tail call noundef i32 %363(ptr noundef nonnull align 8 dereferenceable(8) %35)
  %365 = icmp eq i32 %364, 173
  br i1 %365, label %366, label %372

366:                                              ; preds = %361
  %367 = tail call noundef ptr @_ZN2kc12Problem1S1IDEPKcPNS_7impl_IDE(ptr noundef nonnull @.str.72, ptr noundef nonnull %0)
  %368 = getelementptr i8, ptr %0, i64 24
  %369 = load i32, ptr %368, align 8, !tbaa !18
  %370 = getelementptr i8, ptr %0, i64 32
  %371 = load ptr, ptr %370, align 8, !tbaa !20
  tail call fastcc void @_ZL2NFPN2kc7impl_IDEPNS_12impl_problemE(i32 %369, ptr %371, ptr noundef %367)
  br label %543

372:                                              ; preds = %361, %356
  %373 = load ptr, ptr %34, align 8, !tbaa !5
  %374 = load ptr, ptr %373, align 8
  %375 = tail call noundef i32 %374(ptr noundef nonnull align 8 dereferenceable(8) %34)
  %376 = icmp eq i32 %375, 173
  br i1 %376, label %377, label %388

377:                                              ; preds = %372
  %378 = load ptr, ptr %35, align 8, !tbaa !5
  %379 = load ptr, ptr %378, align 8
  %380 = tail call noundef i32 %379(ptr noundef nonnull align 8 dereferenceable(8) %35)
  %381 = icmp eq i32 %380, 174
  br i1 %381, label %382, label %388

382:                                              ; preds = %377
  %383 = tail call noundef ptr @_ZN2kc12Problem1S1IDEPKcPNS_7impl_IDE(ptr noundef nonnull @.str.73, ptr noundef nonnull %0)
  %384 = getelementptr i8, ptr %0, i64 24
  %385 = load i32, ptr %384, align 8, !tbaa !18
  %386 = getelementptr i8, ptr %0, i64 32
  %387 = load ptr, ptr %386, align 8, !tbaa !20
  tail call fastcc void @_ZL2NFPN2kc7impl_IDEPNS_12impl_problemE(i32 %385, ptr %387, ptr noundef %383)
  br label %543

388:                                              ; preds = %377, %372
  %389 = load ptr, ptr %34, align 8, !tbaa !5
  %390 = load ptr, ptr %389, align 8
  %391 = tail call noundef i32 %390(ptr noundef nonnull align 8 dereferenceable(8) %34)
  %392 = icmp eq i32 %391, 173
  br i1 %392, label %393, label %398

393:                                              ; preds = %388
  %394 = load ptr, ptr %35, align 8, !tbaa !5
  %395 = load ptr, ptr %394, align 8
  %396 = tail call noundef i32 %395(ptr noundef nonnull align 8 dereferenceable(8) %35)
  %397 = icmp eq i32 %396, 173
  br i1 %397, label %543, label %398

398:                                              ; preds = %393, %388
  %399 = load ptr, ptr %34, align 8, !tbaa !5
  %400 = load ptr, ptr %399, align 8
  %401 = tail call noundef i32 %400(ptr noundef nonnull align 8 dereferenceable(8) %34)
  %402 = icmp eq i32 %401, 185
  br i1 %402, label %403, label %410

403:                                              ; preds = %398
  %404 = load ptr, ptr %15, align 8, !tbaa !16
  %405 = tail call noundef ptr @_ZN2kc16Problem1S1t1S1IDEPKcPNS_11impl_IDtypeES1_PNS_7impl_IDE(ptr noundef nonnull @.str.74, ptr noundef %404, ptr noundef nonnull @.str.75, ptr noundef nonnull %0)
  %406 = getelementptr i8, ptr %0, i64 24
  %407 = load i32, ptr %406, align 8, !tbaa !18
  %408 = getelementptr i8, ptr %0, i64 32
  %409 = load ptr, ptr %408, align 8, !tbaa !20
  tail call fastcc void @_ZL2NFPN2kc7impl_IDEPNS_12impl_problemE(i32 %407, ptr %409, ptr noundef %405)
  br label %543

410:                                              ; preds = %398
  %411 = load ptr, ptr %34, align 8, !tbaa !5
  %412 = load ptr, ptr %411, align 8
  %413 = tail call noundef i32 %412(ptr noundef nonnull align 8 dereferenceable(8) %34)
  %414 = icmp eq i32 %413, 183
  br i1 %414, label %415, label %422

415:                                              ; preds = %410
  %416 = load ptr, ptr %15, align 8, !tbaa !16
  %417 = tail call noundef ptr @_ZN2kc16Problem1S1t1S1IDEPKcPNS_11impl_IDtypeES1_PNS_7impl_IDE(ptr noundef nonnull @.str.76, ptr noundef %416, ptr noundef nonnull @.str.26, ptr noundef nonnull %0)
  %418 = getelementptr i8, ptr %0, i64 24
  %419 = load i32, ptr %418, align 8, !tbaa !18
  %420 = getelementptr i8, ptr %0, i64 32
  %421 = load ptr, ptr %420, align 8, !tbaa !20
  tail call fastcc void @_ZL2NFPN2kc7impl_IDEPNS_12impl_problemE(i32 %419, ptr %421, ptr noundef %417)
  br label %543

422:                                              ; preds = %410
  %423 = load ptr, ptr %34, align 8, !tbaa !5
  %424 = load ptr, ptr %423, align 8
  %425 = tail call noundef i32 %424(ptr noundef nonnull align 8 dereferenceable(8) %34)
  %426 = icmp eq i32 %425, 182
  br i1 %426, label %427, label %434

427:                                              ; preds = %422
  %428 = load ptr, ptr %15, align 8, !tbaa !16
  %429 = tail call noundef ptr @_ZN2kc16Problem1S1t1S1IDEPKcPNS_11impl_IDtypeES1_PNS_7impl_IDE(ptr noundef nonnull @.str.76, ptr noundef %428, ptr noundef nonnull @.str.26, ptr noundef nonnull %0)
  %430 = getelementptr i8, ptr %0, i64 24
  %431 = load i32, ptr %430, align 8, !tbaa !18
  %432 = getelementptr i8, ptr %0, i64 32
  %433 = load ptr, ptr %432, align 8, !tbaa !20
  tail call fastcc void @_ZL2NFPN2kc7impl_IDEPNS_12impl_problemE(i32 %431, ptr %433, ptr noundef %429)
  br label %543

434:                                              ; preds = %422
  %435 = load ptr, ptr %34, align 8, !tbaa !5
  %436 = load ptr, ptr %435, align 8
  %437 = tail call noundef i32 %436(ptr noundef nonnull align 8 dereferenceable(8) %34)
  %438 = icmp eq i32 %437, 180
  br i1 %438, label %439, label %446

439:                                              ; preds = %434
  %440 = load ptr, ptr %15, align 8, !tbaa !16
  %441 = tail call noundef ptr @_ZN2kc16Problem1S1t1S1IDEPKcPNS_11impl_IDtypeES1_PNS_7impl_IDE(ptr noundef nonnull @.str.76, ptr noundef %440, ptr noundef nonnull @.str.28, ptr noundef nonnull %0)
  %442 = getelementptr i8, ptr %0, i64 24
  %443 = load i32, ptr %442, align 8, !tbaa !18
  %444 = getelementptr i8, ptr %0, i64 32
  %445 = load ptr, ptr %444, align 8, !tbaa !20
  tail call fastcc void @_ZL2NFPN2kc7impl_IDEPNS_12impl_problemE(i32 %443, ptr %445, ptr noundef %441)
  br label %543

446:                                              ; preds = %434
  %447 = load ptr, ptr %34, align 8, !tbaa !5
  %448 = load ptr, ptr %447, align 8
  %449 = tail call noundef i32 %448(ptr noundef nonnull align 8 dereferenceable(8) %34)
  %450 = icmp eq i32 %449, 179
  br i1 %450, label %451, label %458

451:                                              ; preds = %446
  %452 = load ptr, ptr %15, align 8, !tbaa !16
  %453 = tail call noundef ptr @_ZN2kc16Problem1S1t1S1IDEPKcPNS_11impl_IDtypeES1_PNS_7impl_IDE(ptr noundef nonnull @.str.76, ptr noundef %452, ptr noundef nonnull @.str.28, ptr noundef nonnull %0)
  %454 = getelementptr i8, ptr %0, i64 24
  %455 = load i32, ptr %454, align 8, !tbaa !18
  %456 = getelementptr i8, ptr %0, i64 32
  %457 = load ptr, ptr %456, align 8, !tbaa !20
  tail call fastcc void @_ZL2NFPN2kc7impl_IDEPNS_12impl_problemE(i32 %455, ptr %457, ptr noundef %453)
  br label %543

458:                                              ; preds = %446
  %459 = load ptr, ptr %34, align 8, !tbaa !5
  %460 = load ptr, ptr %459, align 8
  %461 = tail call noundef i32 %460(ptr noundef nonnull align 8 dereferenceable(8) %34)
  %462 = icmp eq i32 %461, 184
  br i1 %462, label %463, label %470

463:                                              ; preds = %458
  %464 = load ptr, ptr %15, align 8, !tbaa !16
  %465 = tail call noundef ptr @_ZN2kc16Problem1S1t1S1IDEPKcPNS_11impl_IDtypeES1_PNS_7impl_IDE(ptr noundef nonnull @.str.74, ptr noundef %464, ptr noundef nonnull @.str.77, ptr noundef nonnull %0)
  %466 = getelementptr i8, ptr %0, i64 24
  %467 = load i32, ptr %466, align 8, !tbaa !18
  %468 = getelementptr i8, ptr %0, i64 32
  %469 = load ptr, ptr %468, align 8, !tbaa !20
  tail call fastcc void @_ZL2NFPN2kc7impl_IDEPNS_12impl_problemE(i32 %467, ptr %469, ptr noundef %465)
  br label %543

470:                                              ; preds = %458
  %471 = load ptr, ptr %34, align 8, !tbaa !5
  %472 = load ptr, ptr %471, align 8
  %473 = tail call noundef i32 %472(ptr noundef nonnull align 8 dereferenceable(8) %34)
  %474 = icmp eq i32 %473, 178
  br i1 %474, label %475, label %482

475:                                              ; preds = %470
  %476 = load ptr, ptr %15, align 8, !tbaa !16
  %477 = tail call noundef ptr @_ZN2kc16Problem1S1t1S1IDEPKcPNS_11impl_IDtypeES1_PNS_7impl_IDE(ptr noundef nonnull @.str.76, ptr noundef %476, ptr noundef nonnull @.str.31, ptr noundef nonnull %0)
  %478 = getelementptr i8, ptr %0, i64 24
  %479 = load i32, ptr %478, align 8, !tbaa !18
  %480 = getelementptr i8, ptr %0, i64 32
  %481 = load ptr, ptr %480, align 8, !tbaa !20
  tail call fastcc void @_ZL2NFPN2kc7impl_IDEPNS_12impl_problemE(i32 %479, ptr %481, ptr noundef %477)
  br label %543

482:                                              ; preds = %470
  %483 = load ptr, ptr %34, align 8, !tbaa !5
  %484 = load ptr, ptr %483, align 8
  %485 = tail call noundef i32 %484(ptr noundef nonnull align 8 dereferenceable(8) %34)
  %486 = icmp eq i32 %485, 177
  br i1 %486, label %487, label %494

487:                                              ; preds = %482
  %488 = load ptr, ptr %15, align 8, !tbaa !16
  %489 = tail call noundef ptr @_ZN2kc16Problem1S1t1S1IDEPKcPNS_11impl_IDtypeES1_PNS_7impl_IDE(ptr noundef nonnull @.str.76, ptr noundef %488, ptr noundef nonnull @.str.31, ptr noundef nonnull %0)
  %490 = getelementptr i8, ptr %0, i64 24
  %491 = load i32, ptr %490, align 8, !tbaa !18
  %492 = getelementptr i8, ptr %0, i64 32
  %493 = load ptr, ptr %492, align 8, !tbaa !20
  tail call fastcc void @_ZL2NFPN2kc7impl_IDEPNS_12impl_problemE(i32 %491, ptr %493, ptr noundef %489)
  br label %543

494:                                              ; preds = %482
  %495 = load ptr, ptr %34, align 8, !tbaa !5
  %496 = load ptr, ptr %495, align 8
  %497 = tail call noundef i32 %496(ptr noundef nonnull align 8 dereferenceable(8) %34)
  %498 = icmp eq i32 %497, 176
  br i1 %498, label %499, label %506

499:                                              ; preds = %494
  %500 = load ptr, ptr %15, align 8, !tbaa !16
  %501 = tail call noundef ptr @_ZN2kc16Problem1S1t1S1IDEPKcPNS_11impl_IDtypeES1_PNS_7impl_IDE(ptr noundef nonnull @.str.76, ptr noundef %500, ptr noundef nonnull @.str.32, ptr noundef nonnull %0)
  %502 = getelementptr i8, ptr %0, i64 24
  %503 = load i32, ptr %502, align 8, !tbaa !18
  %504 = getelementptr i8, ptr %0, i64 32
  %505 = load ptr, ptr %504, align 8, !tbaa !20
  tail call fastcc void @_ZL2NFPN2kc7impl_IDEPNS_12impl_problemE(i32 %503, ptr %505, ptr noundef %501)
  br label %543

506:                                              ; preds = %494
  %507 = load ptr, ptr %34, align 8, !tbaa !5
  %508 = load ptr, ptr %507, align 8
  %509 = tail call noundef i32 %508(ptr noundef nonnull align 8 dereferenceable(8) %34)
  %510 = icmp eq i32 %509, 175
  br i1 %510, label %511, label %518

511:                                              ; preds = %506
  %512 = load ptr, ptr %15, align 8, !tbaa !16
  %513 = tail call noundef ptr @_ZN2kc16Problem1S1t1S1IDEPKcPNS_11impl_IDtypeES1_PNS_7impl_IDE(ptr noundef nonnull @.str.76, ptr noundef %512, ptr noundef nonnull @.str.32, ptr noundef nonnull %0)
  %514 = getelementptr i8, ptr %0, i64 24
  %515 = load i32, ptr %514, align 8, !tbaa !18
  %516 = getelementptr i8, ptr %0, i64 32
  %517 = load ptr, ptr %516, align 8, !tbaa !20
  tail call fastcc void @_ZL2NFPN2kc7impl_IDEPNS_12impl_problemE(i32 %515, ptr %517, ptr noundef %513)
  br label %543

518:                                              ; preds = %506
  %519 = load ptr, ptr %34, align 8, !tbaa !5
  %520 = load ptr, ptr %519, align 8
  %521 = tail call noundef i32 %520(ptr noundef nonnull align 8 dereferenceable(8) %34)
  %522 = icmp eq i32 %521, 174
  br i1 %522, label %523, label %530

523:                                              ; preds = %518
  %524 = load ptr, ptr %15, align 8, !tbaa !16
  %525 = tail call noundef ptr @_ZN2kc16Problem1S1t1S1IDEPKcPNS_11impl_IDtypeES1_PNS_7impl_IDE(ptr noundef nonnull @.str.76, ptr noundef %524, ptr noundef nonnull @.str.33, ptr noundef nonnull %0)
  %526 = getelementptr i8, ptr %0, i64 24
  %527 = load i32, ptr %526, align 8, !tbaa !18
  %528 = getelementptr i8, ptr %0, i64 32
  %529 = load ptr, ptr %528, align 8, !tbaa !20
  tail call fastcc void @_ZL2NFPN2kc7impl_IDEPNS_12impl_problemE(i32 %527, ptr %529, ptr noundef %525)
  br label %543

530:                                              ; preds = %518
  %531 = load ptr, ptr %34, align 8, !tbaa !5
  %532 = load ptr, ptr %531, align 8
  %533 = tail call noundef i32 %532(ptr noundef nonnull align 8 dereferenceable(8) %34)
  %534 = icmp eq i32 %533, 173
  br i1 %534, label %535, label %542

535:                                              ; preds = %530
  %536 = load ptr, ptr %15, align 8, !tbaa !16
  %537 = tail call noundef ptr @_ZN2kc16Problem1S1t1S1IDEPKcPNS_11impl_IDtypeES1_PNS_7impl_IDE(ptr noundef nonnull @.str.76, ptr noundef %536, ptr noundef nonnull @.str.78, ptr noundef nonnull %0)
  %538 = getelementptr i8, ptr %0, i64 24
  %539 = load i32, ptr %538, align 8, !tbaa !18
  %540 = getelementptr i8, ptr %0, i64 32
  %541 = load ptr, ptr %540, align 8, !tbaa !20
  tail call fastcc void @_ZL2NFPN2kc7impl_IDEPNS_12impl_problemE(i32 %539, ptr %541, ptr noundef %537)
  br label %543

542:                                              ; preds = %530
  tail call void @_ZN2kc21kc_no_default_in_withEPKciS1_(ptr noundef nonnull @.str.55, i32 noundef 445, ptr noundef nonnull @.str.1)
  br label %543

543:                                              ; preds = %26, %12, %108, %107, %142, %176, %175, %208, %235, %260, %292, %324, %351, %382, %403, %427, %451, %475, %499, %523, %542, %535, %511, %487, %463, %439, %415, %393, %366, %340, %308, %276, %245, %224, %192, %158, %159, %124, %88, %89, %55, %57, %63
  ret void
}

; Function Attrs: mustprogress uwtable
define dso_local void @_ZN2kc23v_extendoccur_nowarningEPNS_7impl_IDEPNS_11impl_IDtypeE(ptr noundef %0, ptr noundef %1) local_unnamed_addr #0 {
  tail call fastcc void @_ZN2kcL16do_v_extendoccurEPNS_7impl_IDEPNS_11impl_IDtypeEb(ptr noundef %0, ptr noundef %1, i1 noundef zeroext false)
  ret void
}

; Function Attrs: mustprogress uwtable
define dso_local noundef zeroext i1 @_ZN2kc18f_useoccuroperatorEPNS_7impl_IDE(ptr noundef %0) local_unnamed_addr #0 {
  %2 = load ptr, ptr %0, align 8, !tbaa !5
  %3 = load ptr, ptr %2, align 8
  %4 = tail call noundef i32 %3(ptr noundef nonnull align 8 dereferenceable(8) %0)
  %5 = icmp eq i32 %4, 7
  br i1 %5, label %6, label %35

6:                                                ; preds = %1
  %7 = getelementptr inbounds %"class.kc::impl_ID_Id", ptr %0, i64 0, i32 1
  %8 = load ptr, ptr %7, align 8, !tbaa !8
  %9 = getelementptr inbounds %"class.kc::impl_uniqID", ptr %8, i64 0, i32 1
  %10 = load ptr, ptr %9, align 8, !tbaa !16
  %11 = load ptr, ptr %10, align 8, !tbaa !5
  %12 = load ptr, ptr %11, align 8
  %13 = tail call noundef i32 %12(ptr noundef nonnull align 8 dereferenceable(8) %10)
  %14 = icmp eq i32 %13, 176
  br i1 %14, label %36, label %15

15:                                               ; preds = %6
  %16 = load ptr, ptr %10, align 8, !tbaa !5
  %17 = load ptr, ptr %16, align 8
  %18 = tail call noundef i32 %17(ptr noundef nonnull align 8 dereferenceable(8) %10)
  %19 = icmp eq i32 %18, 175
  %20 = getelementptr i8, ptr %0, i64 24
  br i1 %19, label %21, label %28

21:                                               ; preds = %15
  %22 = tail call noundef ptr @_ZN2kc12Problem1S1IDEPKcPNS_7impl_IDE(ptr noundef nonnull @.str.34, ptr noundef nonnull %0)
  %23 = load i32, ptr %20, align 8, !tbaa !18
  %24 = getelementptr i8, ptr %0, i64 32
  %25 = load ptr, ptr %24, align 8, !tbaa !20
  %26 = tail call noundef ptr @_ZN2kc8FileLineEPNS_20impl_casestring__StrEi(ptr noundef %25, i32 noundef %23)
  %27 = tail call noundef ptr @_ZN2kc8NonFatalEPNS_13impl_filelineEPNS_12impl_problemE(ptr noundef %26, ptr noundef %22)
  tail call void @_ZN2kc8v_reportEPNS_10impl_errorE(ptr noundef %27)
  br label %36

28:                                               ; preds = %15
  %29 = tail call noundef ptr @_ZN2kc13Problem1S1tIDEPKcPNS_7impl_IDE(ptr noundef nonnull @.str.35, ptr noundef nonnull %0)
  %30 = load i32, ptr %20, align 8, !tbaa !18
  %31 = getelementptr i8, ptr %0, i64 32
  %32 = load ptr, ptr %31, align 8, !tbaa !20
  %33 = tail call noundef ptr @_ZN2kc8FileLineEPNS_20impl_casestring__StrEi(ptr noundef %32, i32 noundef %30)
  %34 = tail call noundef ptr @_ZN2kc8NonFatalEPNS_13impl_filelineEPNS_12impl_problemE(ptr noundef %33, ptr noundef %29)
  tail call void @_ZN2kc8v_reportEPNS_10impl_errorE(ptr noundef %34)
  br label %36

35:                                               ; preds = %1
  tail call void @_ZN2kc21kc_no_default_in_withEPKciS1_(ptr noundef nonnull @.str.36, i32 noundef 471, ptr noundef nonnull @.str.1)
  br label %36

36:                                               ; preds = %21, %28, %6, %35
  %37 = phi i1 [ false, %35 ], [ true, %6 ], [ false, %28 ], [ false, %21 ]
  ret i1 %37
}

declare noundef ptr @_ZN2kc13Problem1S1tIDEPKcPNS_7impl_IDE(ptr noundef, ptr noundef) local_unnamed_addr #1

; Function Attrs: mustprogress uwtable
define dso_local noundef zeroext i1 @_ZN2kc19f_warnifnotvariableEPNS_7impl_IDE(ptr noundef %0) local_unnamed_addr #0 {
  %2 = load ptr, ptr %0, align 8, !tbaa !5
  %3 = load ptr, ptr %2, align 8
  %4 = tail call noundef i32 %3(ptr noundef nonnull align 8 dereferenceable(8) %0)
  %5 = icmp eq i32 %4, 7
  br i1 %5, label %6, label %28

6:                                                ; preds = %1
  %7 = getelementptr inbounds %"class.kc::impl_ID_Id", ptr %0, i64 0, i32 1
  %8 = load ptr, ptr %7, align 8, !tbaa !8
  %9 = getelementptr inbounds %"class.kc::impl_uniqID", ptr %8, i64 0, i32 1
  %10 = load ptr, ptr %9, align 8, !tbaa !16
  %11 = load ptr, ptr %10, align 8, !tbaa !5
  %12 = load ptr, ptr %11, align 8
  %13 = tail call noundef i32 %12(ptr noundef nonnull align 8 dereferenceable(8) %10)
  %14 = icmp eq i32 %13, 172
  br i1 %14, label %29, label %15

15:                                               ; preds = %6
  %16 = load ptr, ptr %10, align 8, !tbaa !5
  %17 = load ptr, ptr %16, align 8
  %18 = tail call noundef i32 %17(ptr noundef nonnull align 8 dereferenceable(8) %10)
  %19 = icmp eq i32 %18, 185
  br i1 %19, label %29, label %20

20:                                               ; preds = %15
  %21 = tail call noundef ptr @_ZN2kc13Problem1S1tIDEPKcPNS_7impl_IDE(ptr noundef nonnull @.str.37, ptr noundef nonnull %0)
  %22 = getelementptr i8, ptr %0, i64 24
  %23 = load i32, ptr %22, align 8, !tbaa !18
  %24 = getelementptr i8, ptr %0, i64 32
  %25 = load ptr, ptr %24, align 8, !tbaa !20
  %26 = tail call noundef ptr @_ZN2kc8FileLineEPNS_20impl_casestring__StrEi(ptr noundef %25, i32 noundef %23)
  %27 = tail call noundef ptr @_ZN2kc8NonFatalEPNS_13impl_filelineEPNS_12impl_problemE(ptr noundef %26, ptr noundef %21)
  tail call void @_ZN2kc8v_reportEPNS_10impl_errorE(ptr noundef %27)
  br label %29

28:                                               ; preds = %1
  tail call void @_ZN2kc21kc_no_default_in_withEPKciS1_(ptr noundef nonnull @.str.38, i32 noundef 496, ptr noundef nonnull @.str.1)
  br label %29

29:                                               ; preds = %20, %6, %15, %28
  %30 = phi i1 [ false, %28 ], [ true, %20 ], [ false, %6 ], [ false, %15 ]
  ret i1 %30
}

; Function Attrs: mustprogress uwtable
define dso_local noundef zeroext i1 @_ZN2kc16f_useoccurphylumEPNS_7impl_IDE(ptr noundef %0) local_unnamed_addr #0 {
  %2 = load ptr, ptr %0, align 8, !tbaa !5
  %3 = load ptr, ptr %2, align 8
  %4 = tail call noundef i32 %3(ptr noundef nonnull align 8 dereferenceable(8) %0)
  %5 = icmp eq i32 %4, 7
  br i1 %5, label %6, label %28

6:                                                ; preds = %1
  %7 = getelementptr inbounds %"class.kc::impl_ID_Id", ptr %0, i64 0, i32 1
  %8 = load ptr, ptr %7, align 8, !tbaa !8
  %9 = getelementptr inbounds %"class.kc::impl_uniqID", ptr %8, i64 0, i32 1
  %10 = load ptr, ptr %9, align 8, !tbaa !16
  %11 = load ptr, ptr %10, align 8, !tbaa !5
  %12 = load ptr, ptr %11, align 8
  %13 = tail call noundef i32 %12(ptr noundef nonnull align 8 dereferenceable(8) %10)
  %14 = icmp eq i32 %13, 174
  br i1 %14, label %29, label %15

15:                                               ; preds = %6
  %16 = load ptr, ptr %10, align 8, !tbaa !5
  %17 = load ptr, ptr %16, align 8
  %18 = tail call noundef i32 %17(ptr noundef nonnull align 8 dereferenceable(8) %10)
  %19 = icmp eq i32 %18, 173
  br i1 %19, label %29, label %20

20:                                               ; preds = %15
  %21 = tail call noundef ptr @_ZN2kc13Problem1S1tIDEPKcPNS_7impl_IDE(ptr noundef nonnull @.str.39, ptr noundef nonnull %0)
  %22 = getelementptr i8, ptr %0, i64 24
  %23 = load i32, ptr %22, align 8, !tbaa !18
  %24 = getelementptr i8, ptr %0, i64 32
  %25 = load ptr, ptr %24, align 8, !tbaa !20
  %26 = tail call noundef ptr @_ZN2kc8FileLineEPNS_20impl_casestring__StrEi(ptr noundef %25, i32 noundef %23)
  %27 = tail call noundef ptr @_ZN2kc8NonFatalEPNS_13impl_filelineEPNS_12impl_problemE(ptr noundef %26, ptr noundef %21)
  tail call void @_ZN2kc8v_reportEPNS_10impl_errorE(ptr noundef %27)
  br label %29

28:                                               ; preds = %1
  tail call void @_ZN2kc21kc_no_default_in_withEPKciS1_(ptr noundef nonnull @.str.40, i32 noundef 521, ptr noundef nonnull @.str.1)
  br label %29

29:                                               ; preds = %20, %6, %15, %28
  %30 = phi i1 [ false, %28 ], [ false, %20 ], [ true, %6 ], [ true, %15 ]
  ret i1 %30
}

; Function Attrs: mustprogress uwtable
define dso_local noundef zeroext i1 @_ZN2kc20f_useoccurlistphylumEPNS_7impl_IDE(ptr noundef %0) local_unnamed_addr #0 {
  %2 = load ptr, ptr %0, align 8, !tbaa !5
  %3 = load ptr, ptr %2, align 8
  %4 = tail call noundef i32 %3(ptr noundef nonnull align 8 dereferenceable(8) %0)
  %5 = icmp eq i32 %4, 7
  br i1 %5, label %6, label %98

6:                                                ; preds = %1
  %7 = getelementptr inbounds %"class.kc::impl_ID_Id", ptr %0, i64 0, i32 1
  %8 = load ptr, ptr %7, align 8, !tbaa !8
  %9 = getelementptr inbounds %"class.kc::impl_uniqID", ptr %8, i64 0, i32 1
  %10 = load ptr, ptr %9, align 8, !tbaa !16
  %11 = load ptr, ptr %10, align 8, !tbaa !5
  %12 = load ptr, ptr %11, align 8
  %13 = tail call noundef i32 %12(ptr noundef nonnull align 8 dereferenceable(8) %10)
  %14 = icmp eq i32 %13, 174
  br i1 %14, label %15, label %90

15:                                               ; preds = %6
  %16 = getelementptr inbounds %"class.kc::impl_IDtype_ITUserPhylum", ptr %10, i64 0, i32 1
  %17 = load ptr, ptr %16, align 8, !tbaa !29
  %18 = load ptr, ptr %17, align 8, !tbaa !5
  %19 = load ptr, ptr %18, align 8
  %20 = tail call noundef i32 %19(ptr noundef nonnull align 8 dereferenceable(8) %17)
  %21 = icmp eq i32 %20, 15
  br i1 %21, label %22, label %37

22:                                               ; preds = %15
  %23 = getelementptr inbounds %"class.kc::impl_phylumdeclaration_PhylumDeclaration", ptr %17, i64 0, i32 3
  %24 = load ptr, ptr %23, align 8, !tbaa !31
  %25 = load ptr, ptr %24, align 8, !tbaa !5
  %26 = load ptr, ptr %25, align 8
  %27 = tail call noundef i32 %26(ptr noundef nonnull align 8 dereferenceable(8) %24)
  %28 = icmp eq i32 %27, 24
  br i1 %28, label %29, label %37

29:                                               ; preds = %22
  %30 = tail call noundef ptr @_ZN2kc12Problem1S1IDEPKcPNS_7impl_IDE(ptr noundef nonnull @.str.41, ptr noundef nonnull %0)
  %31 = getelementptr i8, ptr %0, i64 24
  %32 = load i32, ptr %31, align 8, !tbaa !18
  %33 = getelementptr i8, ptr %0, i64 32
  %34 = load ptr, ptr %33, align 8, !tbaa !20
  %35 = tail call noundef ptr @_ZN2kc8FileLineEPNS_20impl_casestring__StrEi(ptr noundef %34, i32 noundef %32)
  %36 = tail call noundef ptr @_ZN2kc8NonFatalEPNS_13impl_filelineEPNS_12impl_problemE(ptr noundef %35, ptr noundef %30)
  tail call void @_ZN2kc8v_reportEPNS_10impl_errorE(ptr noundef %36)
  br label %99

37:                                               ; preds = %22, %15
  %38 = load ptr, ptr %17, align 8, !tbaa !5
  %39 = load ptr, ptr %38, align 8
  %40 = tail call noundef i32 %39(ptr noundef nonnull align 8 dereferenceable(8) %17)
  %41 = icmp eq i32 %40, 15
  br i1 %41, label %42, label %57

42:                                               ; preds = %37
  %43 = getelementptr inbounds %"class.kc::impl_phylumdeclaration_PhylumDeclaration", ptr %17, i64 0, i32 3
  %44 = load ptr, ptr %43, align 8, !tbaa !31
  %45 = load ptr, ptr %44, align 8, !tbaa !5
  %46 = load ptr, ptr %45, align 8
  %47 = tail call noundef i32 %46(ptr noundef nonnull align 8 dereferenceable(8) %44)
  %48 = icmp eq i32 %47, 23
  br i1 %48, label %49, label %57

49:                                               ; preds = %42
  %50 = tail call noundef ptr @_ZN2kc12Problem1S1IDEPKcPNS_7impl_IDE(ptr noundef nonnull @.str.42, ptr noundef nonnull %0)
  %51 = getelementptr i8, ptr %0, i64 24
  %52 = load i32, ptr %51, align 8, !tbaa !18
  %53 = getelementptr i8, ptr %0, i64 32
  %54 = load ptr, ptr %53, align 8, !tbaa !20
  %55 = tail call noundef ptr @_ZN2kc8FileLineEPNS_20impl_casestring__StrEi(ptr noundef %54, i32 noundef %52)
  %56 = tail call noundef ptr @_ZN2kc8NonFatalEPNS_13impl_filelineEPNS_12impl_problemE(ptr noundef %55, ptr noundef %50)
  tail call void @_ZN2kc8v_reportEPNS_10impl_errorE(ptr noundef %56)
  br label %99

57:                                               ; preds = %42, %37
  %58 = load ptr, ptr %17, align 8, !tbaa !5
  %59 = load ptr, ptr %58, align 8
  %60 = tail call noundef i32 %59(ptr noundef nonnull align 8 dereferenceable(8) %17)
  %61 = icmp eq i32 %60, 15
  br i1 %61, label %62, label %69

62:                                               ; preds = %57
  %63 = getelementptr inbounds %"class.kc::impl_phylumdeclaration_PhylumDeclaration", ptr %17, i64 0, i32 3
  %64 = load ptr, ptr %63, align 8, !tbaa !31
  %65 = load ptr, ptr %64, align 8, !tbaa !5
  %66 = load ptr, ptr %65, align 8
  %67 = tail call noundef i32 %66(ptr noundef nonnull align 8 dereferenceable(8) %64)
  %68 = icmp eq i32 %67, 22
  br i1 %68, label %99, label %69

69:                                               ; preds = %62, %57
  %70 = load ptr, ptr %17, align 8, !tbaa !5
  %71 = load ptr, ptr %70, align 8
  %72 = tail call noundef i32 %71(ptr noundef nonnull align 8 dereferenceable(8) %17)
  %73 = icmp eq i32 %72, 15
  br i1 %73, label %74, label %89

74:                                               ; preds = %69
  %75 = getelementptr inbounds %"class.kc::impl_phylumdeclaration_PhylumDeclaration", ptr %17, i64 0, i32 3
  %76 = load ptr, ptr %75, align 8, !tbaa !31
  %77 = load ptr, ptr %76, align 8, !tbaa !5
  %78 = load ptr, ptr %77, align 8
  %79 = tail call noundef i32 %78(ptr noundef nonnull align 8 dereferenceable(8) %76)
  %80 = icmp eq i32 %79, 21
  br i1 %80, label %81, label %89

81:                                               ; preds = %74
  %82 = tail call noundef ptr @_ZN2kc12Problem1S1IDEPKcPNS_7impl_IDE(ptr noundef nonnull @.str.43, ptr noundef nonnull %0)
  %83 = getelementptr i8, ptr %0, i64 24
  %84 = load i32, ptr %83, align 8, !tbaa !18
  %85 = getelementptr i8, ptr %0, i64 32
  %86 = load ptr, ptr %85, align 8, !tbaa !20
  %87 = tail call noundef ptr @_ZN2kc8FileLineEPNS_20impl_casestring__StrEi(ptr noundef %86, i32 noundef %84)
  %88 = tail call noundef ptr @_ZN2kc8NonFatalEPNS_13impl_filelineEPNS_12impl_problemE(ptr noundef %87, ptr noundef %82)
  tail call void @_ZN2kc8v_reportEPNS_10impl_errorE(ptr noundef %88)
  br label %99

89:                                               ; preds = %74, %69
  tail call void @_ZN2kc21kc_no_default_in_withEPKciS1_(ptr noundef nonnull @.str.44, i32 noundef 556, ptr noundef nonnull @.str.1)
  br label %99

90:                                               ; preds = %6
  %91 = tail call noundef ptr @_ZN2kc13Problem1S1tIDEPKcPNS_7impl_IDE(ptr noundef nonnull @.str.45, ptr noundef nonnull %0)
  %92 = getelementptr i8, ptr %0, i64 24
  %93 = load i32, ptr %92, align 8, !tbaa !18
  %94 = getelementptr i8, ptr %0, i64 32
  %95 = load ptr, ptr %94, align 8, !tbaa !20
  %96 = tail call noundef ptr @_ZN2kc8FileLineEPNS_20impl_casestring__StrEi(ptr noundef %95, i32 noundef %93)
  %97 = tail call noundef ptr @_ZN2kc8NonFatalEPNS_13impl_filelineEPNS_12impl_problemE(ptr noundef %96, ptr noundef %91)
  tail call void @_ZN2kc8v_reportEPNS_10impl_errorE(ptr noundef %97)
  br label %99

98:                                               ; preds = %1
  tail call void @_ZN2kc21kc_no_default_in_withEPKciS1_(ptr noundef nonnull @.str.44, i32 noundef 567, ptr noundef nonnull @.str.1)
  br label %99

99:                                               ; preds = %90, %62, %89, %81, %49, %29, %98
  %100 = phi i1 [ false, %98 ], [ false, %90 ], [ false, %29 ], [ false, %49 ], [ false, %81 ], [ false, %89 ], [ true, %62 ]
  ret i1 %100
}

; Function Attrs: mustprogress uwtable
define dso_local noundef zeroext i1 @_ZN2kc19f_useoccuruviewnameEPNS_7impl_IDE(ptr noundef %0) local_unnamed_addr #0 {
  %2 = load ptr, ptr %0, align 8, !tbaa !5
  %3 = load ptr, ptr %2, align 8
  %4 = tail call noundef i32 %3(ptr noundef nonnull align 8 dereferenceable(8) %0)
  %5 = icmp eq i32 %4, 7
  br i1 %5, label %6, label %28

6:                                                ; preds = %1
  %7 = getelementptr inbounds %"class.kc::impl_ID_Id", ptr %0, i64 0, i32 1
  %8 = load ptr, ptr %7, align 8, !tbaa !8
  %9 = getelementptr inbounds %"class.kc::impl_uniqID", ptr %8, i64 0, i32 1
  %10 = load ptr, ptr %9, align 8, !tbaa !16
  %11 = load ptr, ptr %10, align 8, !tbaa !5
  %12 = load ptr, ptr %11, align 8
  %13 = tail call noundef i32 %12(ptr noundef nonnull align 8 dereferenceable(8) %10)
  %14 = icmp eq i32 %13, 180
  br i1 %14, label %29, label %15

15:                                               ; preds = %6
  %16 = load ptr, ptr %10, align 8, !tbaa !5
  %17 = load ptr, ptr %16, align 8
  %18 = tail call noundef i32 %17(ptr noundef nonnull align 8 dereferenceable(8) %10)
  %19 = icmp eq i32 %18, 179
  br i1 %19, label %29, label %20

20:                                               ; preds = %15
  %21 = tail call noundef ptr @_ZN2kc13Problem1S1tIDEPKcPNS_7impl_IDE(ptr noundef nonnull @.str.46, ptr noundef nonnull %0)
  %22 = getelementptr i8, ptr %0, i64 24
  %23 = load i32, ptr %22, align 8, !tbaa !18
  %24 = getelementptr i8, ptr %0, i64 32
  %25 = load ptr, ptr %24, align 8, !tbaa !20
  %26 = tail call noundef ptr @_ZN2kc8FileLineEPNS_20impl_casestring__StrEi(ptr noundef %25, i32 noundef %23)
  %27 = tail call noundef ptr @_ZN2kc8NonFatalEPNS_13impl_filelineEPNS_12impl_problemE(ptr noundef %26, ptr noundef %21)
  tail call void @_ZN2kc8v_reportEPNS_10impl_errorE(ptr noundef %27)
  br label %29

28:                                               ; preds = %1
  tail call void @_ZN2kc21kc_no_default_in_withEPKciS1_(ptr noundef nonnull @.str.47, i32 noundef 592, ptr noundef nonnull @.str.1)
  br label %29

29:                                               ; preds = %20, %6, %15, %28
  %30 = phi i1 [ false, %28 ], [ false, %20 ], [ true, %6 ], [ true, %15 ]
  ret i1 %30
}

; Function Attrs: mustprogress uwtable
define dso_local noundef zeroext i1 @_ZN2kc19f_useoccurrviewnameEPNS_7impl_IDE(ptr noundef %0) local_unnamed_addr #0 {
  %2 = load ptr, ptr %0, align 8, !tbaa !5
  %3 = load ptr, ptr %2, align 8
  %4 = tail call noundef i32 %3(ptr noundef nonnull align 8 dereferenceable(8) %0)
  %5 = icmp eq i32 %4, 7
  br i1 %5, label %6, label %28

6:                                                ; preds = %1
  %7 = getelementptr inbounds %"class.kc::impl_ID_Id", ptr %0, i64 0, i32 1
  %8 = load ptr, ptr %7, align 8, !tbaa !8
  %9 = getelementptr inbounds %"class.kc::impl_uniqID", ptr %8, i64 0, i32 1
  %10 = load ptr, ptr %9, align 8, !tbaa !16
  %11 = load ptr, ptr %10, align 8, !tbaa !5
  %12 = load ptr, ptr %11, align 8
  %13 = tail call noundef i32 %12(ptr noundef nonnull align 8 dereferenceable(8) %10)
  %14 = icmp eq i32 %13, 183
  br i1 %14, label %29, label %15

15:                                               ; preds = %6
  %16 = load ptr, ptr %10, align 8, !tbaa !5
  %17 = load ptr, ptr %16, align 8
  %18 = tail call noundef i32 %17(ptr noundef nonnull align 8 dereferenceable(8) %10)
  %19 = icmp eq i32 %18, 182
  br i1 %19, label %29, label %20

20:                                               ; preds = %15
  %21 = tail call noundef ptr @_ZN2kc13Problem1S1tIDEPKcPNS_7impl_IDE(ptr noundef nonnull @.str.48, ptr noundef nonnull %0)
  %22 = getelementptr i8, ptr %0, i64 24
  %23 = load i32, ptr %22, align 8, !tbaa !18
  %24 = getelementptr i8, ptr %0, i64 32
  %25 = load ptr, ptr %24, align 8, !tbaa !20
  %26 = tail call noundef ptr @_ZN2kc8FileLineEPNS_20impl_casestring__StrEi(ptr noundef %25, i32 noundef %23)
  %27 = tail call noundef ptr @_ZN2kc8NonFatalEPNS_13impl_filelineEPNS_12impl_problemE(ptr noundef %26, ptr noundef %21)
  tail call void @_ZN2kc8v_reportEPNS_10impl_errorE(ptr noundef %27)
  br label %29

28:                                               ; preds = %1
  tail call void @_ZN2kc21kc_no_default_in_withEPKciS1_(ptr noundef nonnull @.str.49, i32 noundef 617, ptr noundef nonnull @.str.1)
  br label %29

29:                                               ; preds = %20, %6, %15, %28
  %30 = phi i1 [ false, %28 ], [ false, %20 ], [ true, %6 ], [ true, %15 ]
  ret i1 %30
}

; Function Attrs: mustprogress uwtable
define dso_local noundef zeroext i1 @_ZN2kc22f_useoccurstorageclassEPNS_7impl_IDE(ptr noundef %0) local_unnamed_addr #0 {
  %2 = load ptr, ptr %0, align 8, !tbaa !5
  %3 = load ptr, ptr %2, align 8
  %4 = tail call noundef i32 %3(ptr noundef nonnull align 8 dereferenceable(8) %0)
  %5 = icmp eq i32 %4, 7
  br i1 %5, label %6, label %28

6:                                                ; preds = %1
  %7 = getelementptr inbounds %"class.kc::impl_ID_Id", ptr %0, i64 0, i32 1
  %8 = load ptr, ptr %7, align 8, !tbaa !8
  %9 = getelementptr inbounds %"class.kc::impl_uniqID", ptr %8, i64 0, i32 1
  %10 = load ptr, ptr %9, align 8, !tbaa !16
  %11 = load ptr, ptr %10, align 8, !tbaa !5
  %12 = load ptr, ptr %11, align 8
  %13 = tail call noundef i32 %12(ptr noundef nonnull align 8 dereferenceable(8) %10)
  %14 = icmp eq i32 %13, 178
  br i1 %14, label %29, label %15

15:                                               ; preds = %6
  %16 = load ptr, ptr %10, align 8, !tbaa !5
  %17 = load ptr, ptr %16, align 8
  %18 = tail call noundef i32 %17(ptr noundef nonnull align 8 dereferenceable(8) %10)
  %19 = icmp eq i32 %18, 177
  br i1 %19, label %29, label %20

20:                                               ; preds = %15
  %21 = tail call noundef ptr @_ZN2kc13Problem1S1tIDEPKcPNS_7impl_IDE(ptr noundef nonnull @.str.50, ptr noundef nonnull %0)
  %22 = getelementptr i8, ptr %0, i64 24
  %23 = load i32, ptr %22, align 8, !tbaa !18
  %24 = getelementptr i8, ptr %0, i64 32
  %25 = load ptr, ptr %24, align 8, !tbaa !20
  %26 = tail call noundef ptr @_ZN2kc8FileLineEPNS_20impl_casestring__StrEi(ptr noundef %25, i32 noundef %23)
  %27 = tail call noundef ptr @_ZN2kc8NonFatalEPNS_13impl_filelineEPNS_12impl_problemE(ptr noundef %26, ptr noundef %21)
  tail call void @_ZN2kc8v_reportEPNS_10impl_errorE(ptr noundef %27)
  br label %29

28:                                               ; preds = %1
  tail call void @_ZN2kc21kc_no_default_in_withEPKciS1_(ptr noundef nonnull @.str.51, i32 noundef 642, ptr noundef nonnull @.str.1)
  br label %29

29:                                               ; preds = %20, %6, %15, %28
  %30 = phi i1 [ false, %28 ], [ false, %20 ], [ true, %6 ], [ true, %15 ]
  ret i1 %30
}

; Function Attrs: mustprogress uwtable
define dso_local noundef zeroext i1 @_ZN2kc22f_useoccurlanguagenameEPNS_18impl_languagenamesE(ptr noundef %0) local_unnamed_addr #0 {
  %2 = load ptr, ptr %0, align 8, !tbaa !5
  %3 = load ptr, ptr %2, align 8
  %4 = tail call noundef i32 %3(ptr noundef nonnull align 8 dereferenceable(24) %0)
  %5 = icmp eq i32 %4, 164
  br i1 %5, label %46, label %6

6:                                                ; preds = %1
  %7 = load ptr, ptr %0, align 8, !tbaa !5
  %8 = load ptr, ptr %7, align 8
  %9 = tail call noundef i32 %8(ptr noundef nonnull align 8 dereferenceable(24) %0)
  %10 = icmp eq i32 %9, 165
  br i1 %10, label %11, label %45

11:                                               ; preds = %6
  %12 = getelementptr inbounds %"class.kc::impl_languagenames", ptr %0, i64 0, i32 1
  %13 = load ptr, ptr %12, align 8, !tbaa !34
  %14 = getelementptr inbounds %"class.kc::impl_languagenames", ptr %0, i64 0, i32 2
  %15 = load ptr, ptr %14, align 8, !tbaa !37
  %16 = tail call noundef zeroext i1 @_ZN2kc22f_useoccurlanguagenameEPNS_18impl_languagenamesE(ptr noundef %15)
  %17 = load ptr, ptr @Thelanguages, align 8, !tbaa !38
  %18 = load ptr, ptr %17, align 8, !tbaa !5
  %19 = load ptr, ptr %18, align 8
  %20 = tail call noundef i32 %19(ptr noundef nonnull align 8 dereferenceable(24) %17)
  %21 = icmp eq i32 %20, 165
  br i1 %21, label %29, label %34

22:                                               ; preds = %29
  %23 = getelementptr inbounds %"class.kc::impl_languagenames", ptr %30, i64 0, i32 2
  %24 = load ptr, ptr %23, align 8, !tbaa !38
  %25 = load ptr, ptr %24, align 8, !tbaa !5
  %26 = load ptr, ptr %25, align 8
  %27 = tail call noundef i32 %26(ptr noundef nonnull align 8 dereferenceable(24) %24)
  %28 = icmp eq i32 %27, 165
  br i1 %28, label %29, label %34

29:                                               ; preds = %11, %22
  %30 = phi ptr [ %24, %22 ], [ %17, %11 ]
  %31 = getelementptr inbounds %"class.kc::impl_languagenames", ptr %30, i64 0, i32 1
  %32 = load ptr, ptr %31, align 8, !tbaa !34
  %33 = tail call noundef zeroext i1 @_ZNK2kc20impl_abstract_phylum2eqEPKS0_(ptr noundef nonnull align 8 dereferenceable(8) %13, ptr noundef %32)
  br i1 %33, label %42, label %22

34:                                               ; preds = %22, %11
  %35 = getelementptr inbounds %"class.kc::impl_ID", ptr %13, i64 0, i32 4
  %36 = load ptr, ptr %35, align 8, !tbaa !20
  %37 = getelementptr inbounds %"class.kc::impl_ID", ptr %13, i64 0, i32 3
  %38 = load i32, ptr %37, align 8, !tbaa !18
  %39 = tail call noundef ptr @_ZN2kc8FileLineEPNS_20impl_casestring__StrEi(ptr noundef %36, i32 noundef %38)
  %40 = tail call noundef ptr @_ZN2kc13Problem1S1tIDEPKcPNS_7impl_IDE(ptr noundef nonnull @.str.79, ptr noundef %13)
  %41 = tail call noundef ptr @_ZN2kc5FatalEPNS_13impl_filelineEPNS_12impl_problemE(ptr noundef %39, ptr noundef %40)
  tail call void @_ZN2kc8v_reportEPNS_10impl_errorE(ptr noundef %41)
  br label %42

42:                                               ; preds = %29, %34
  %43 = phi i1 [ false, %34 ], [ true, %29 ]
  %44 = and i1 %16, %43
  br label %46

45:                                               ; preds = %6
  tail call void @_ZN2kc21kc_no_default_in_withEPKciS1_(ptr noundef nonnull @.str.52, i32 noundef 694, ptr noundef nonnull @.str.1)
  br label %46

46:                                               ; preds = %1, %45, %42
  %47 = phi i1 [ %44, %42 ], [ false, %45 ], [ true, %1 ]
  ret i1 %47
}

; Function Attrs: mustprogress uwtable
define dso_local noundef zeroext i1 @_ZN2kc25f_useoccurpatternvariableEPNS_7impl_IDE(ptr noundef %0) local_unnamed_addr #0 {
  %2 = load ptr, ptr %0, align 8, !tbaa !5
  %3 = load ptr, ptr %2, align 8
  %4 = tail call noundef i32 %3(ptr noundef nonnull align 8 dereferenceable(8) %0)
  %5 = icmp eq i32 %4, 7
  br i1 %5, label %6, label %23

6:                                                ; preds = %1
  %7 = getelementptr inbounds %"class.kc::impl_ID_Id", ptr %0, i64 0, i32 1
  %8 = load ptr, ptr %7, align 8, !tbaa !8
  %9 = getelementptr inbounds %"class.kc::impl_uniqID", ptr %8, i64 0, i32 1
  %10 = load ptr, ptr %9, align 8, !tbaa !16
  %11 = load ptr, ptr %10, align 8, !tbaa !5
  %12 = load ptr, ptr %11, align 8
  %13 = tail call noundef i32 %12(ptr noundef nonnull align 8 dereferenceable(8) %10)
  %14 = icmp eq i32 %13, 185
  br i1 %14, label %24, label %15

15:                                               ; preds = %6
  %16 = tail call noundef ptr @_ZN2kc13Problem1S1tIDEPKcPNS_7impl_IDE(ptr noundef nonnull @.str.53, ptr noundef nonnull %0)
  %17 = getelementptr i8, ptr %0, i64 24
  %18 = load i32, ptr %17, align 8, !tbaa !18
  %19 = getelementptr i8, ptr %0, i64 32
  %20 = load ptr, ptr %19, align 8, !tbaa !20
  %21 = tail call noundef ptr @_ZN2kc8FileLineEPNS_20impl_casestring__StrEi(ptr noundef %20, i32 noundef %18)
  %22 = tail call noundef ptr @_ZN2kc8NonFatalEPNS_13impl_filelineEPNS_12impl_problemE(ptr noundef %21, ptr noundef %16)
  tail call void @_ZN2kc8v_reportEPNS_10impl_errorE(ptr noundef %22)
  br label %24

23:                                               ; preds = %1
  tail call void @_ZN2kc21kc_no_default_in_withEPKciS1_(ptr noundef nonnull @.str.54, i32 noundef 716, ptr noundef nonnull @.str.1)
  br label %24

24:                                               ; preds = %15, %6, %23
  %25 = phi i1 [ false, %23 ], [ true, %6 ], [ false, %15 ]
  ret i1 %25
}

declare void @_ZN2kc8v_reportEPNS_10impl_errorE(ptr noundef) local_unnamed_addr #1

declare noundef ptr @_ZN2kc8NonFatalEPNS_13impl_filelineEPNS_12impl_problemE(ptr noundef, ptr noundef) local_unnamed_addr #1

declare noundef ptr @_ZN2kc8FileLineEPNS_20impl_casestring__StrEi(ptr noundef, i32 noundef) local_unnamed_addr #1

declare noundef ptr @_ZN2kc22Problem1S1ID1S1ID1S1IDEPKcPNS_7impl_IDES1_S3_S1_S3_(ptr noundef, ptr noundef, ptr noundef, ptr noundef, ptr noundef, ptr noundef) local_unnamed_addr #1

declare noundef ptr @_ZN2kc26ConsscopetypefilelinestackEPNS_22impl_scopetypefilelineEPNS_27impl_scopetypefilelinestackE(ptr noundef, ptr noundef) local_unnamed_addr #1

declare noundef ptr @_ZN2kc17ScopeTypeFileLineEPNS_17impl_integer__IntEPNS_11impl_IDtypeEPNS_20impl_casestring__StrES1_(ptr noundef, ptr noundef, ptr noundef, ptr noundef) local_unnamed_addr #1

declare noundef ptr @_ZN2kc9mkintegerEi(i32 noundef) local_unnamed_addr #1

declare noundef ptr @_ZN2kc5FatalEPNS_13impl_filelineEPNS_12impl_problemE(ptr noundef, ptr noundef) local_unnamed_addr #1

attributes #0 = { mustprogress uwtable "min-legal-vector-width"="0" "no-trapping-math"="true" "stack-protector-buffer-size"="8" "target-cpu"="x86-64" "target-features"="+cx8,+fxsr,+mmx,+sse,+sse2,+x87" "tune-cpu"="generic" }
attributes #1 = { "no-trapping-math"="true" "stack-protector-buffer-size"="8" "target-cpu"="x86-64" "target-features"="+cx8,+fxsr,+mmx,+sse,+sse2,+x87" "tune-cpu"="generic" }
attributes #2 = { inlinehint mustprogress uwtable "min-legal-vector-width"="0" "no-trapping-math"="true" "stack-protector-buffer-size"="8" "target-cpu"="x86-64" "target-features"="+cx8,+fxsr,+mmx,+sse,+sse2,+x87" "tune-cpu"="generic" }

!llvm.module.flags = !{!0, !1, !2, !3}
!llvm.ident = !{!4}

!0 = !{i32 1, !"wchar_size", i32 4}
!1 = !{i32 8, !"PIC Level", i32 2}
!2 = !{i32 7, !"PIE Level", i32 2}
!3 = !{i32 7, !"uwtable", i32 2}
!4 = !{!"clang version 17.0.0"}
!5 = !{!6, !6, i64 0}
!6 = !{!"vtable pointer", !7, i64 0}
!7 = !{!"Simple C++ TBAA"}
!8 = !{!9, !12, i64 40}
!9 = !{!"_ZTSN2kc10impl_ID_IdE", !10, i64 0, !12, i64 40}
!10 = !{!"_ZTSN2kc7impl_IDE", !11, i64 0, !12, i64 8, !12, i64 16, !14, i64 24, !12, i64 32}
!11 = !{!"_ZTSN2kc20impl_abstract_phylumE"}
!12 = !{!"any pointer", !13, i64 0}
!13 = !{!"omnipotent char", !7, i64 0}
!14 = !{!"int", !13, i64 0}
!15 = !{!10, !12, i64 8}
!16 = !{!17, !12, i64 8}
!17 = !{!"_ZTSN2kc11impl_uniqIDE", !11, i64 0, !12, i64 8, !14, i64 16, !12, i64 24, !12, i64 32}
!18 = !{!10, !14, i64 24}
!19 = !{!17, !14, i64 16}
!20 = !{!10, !12, i64 32}
!21 = !{!17, !12, i64 24}
!22 = !{!23, !12, i64 8}
!23 = !{!"_ZTSN2kc26impl_IDtype_ITUserFunctionE", !24, i64 0, !12, i64 8}
!24 = !{!"_ZTSN2kc11impl_IDtypeE", !11, i64 0}
!25 = !{!26, !12, i64 16}
!26 = !{!"_ZTSN2kc29impl_IDtype_ITPatternVariableE", !24, i64 0, !12, i64 8, !12, i64 16}
!27 = !{!26, !12, i64 8}
!28 = !{!17, !12, i64 32}
!29 = !{!30, !12, i64 8}
!30 = !{!"_ZTSN2kc24impl_IDtype_ITUserPhylumE", !24, i64 0, !12, i64 8}
!31 = !{!32, !12, i64 48}
!32 = !{!"_ZTSN2kc40impl_phylumdeclaration_PhylumDeclarationE", !33, i64 0, !12, i64 32, !12, i64 40, !12, i64 48, !12, i64 56}
!33 = !{!"_ZTSN2kc22impl_phylumdeclarationE", !11, i64 0, !14, i64 8, !12, i64 16, !12, i64 24}
!34 = !{!35, !12, i64 8}
!35 = !{!"_ZTSN2kc18impl_languagenamesE", !36, i64 0, !12, i64 8, !12, i64 16}
!36 = !{!"_ZTSN2kc18impl_abstract_listE", !11, i64 0}
!37 = !{!35, !12, i64 16}
!38 = !{!12, !12, i64 0}
