; ModuleID = '/usr/local/google/home/aeubanks/repos/test-suite/MultiSource/Benchmarks/DOE-ProxyApps-C++/CLAMR/Restartblock.cc'
source_filename = "/usr/local/google/home/aeubanks/repos/test-suite/MultiSource/Benchmarks/DOE-ProxyApps-C++/CLAMR/Restartblock.cc"
target datalayout = "e-m:e-p270:32:32-p271:32:32-p272:64:64-i64:64-f80:128-n8:16:32:64-S128"
target triple = "x86_64-unknown-linux-gnu"

%"class.std::ios_base::Init" = type { i8 }
%"class.PP::Restartblock" = type { %"class.std::deque", %"class.std::deque", %"class.std::deque", %"class.std::deque", %"class.std::deque.3", %"class.std::deque.9", i32, %"class.std::__cxx11::basic_string" }
%"class.std::deque" = type { %"class.std::_Deque_base" }
%"class.std::_Deque_base" = type { %"struct.std::_Deque_base<PP::Word, std::allocator<PP::Word>>::_Deque_impl" }
%"struct.std::_Deque_base<PP::Word, std::allocator<PP::Word>>::_Deque_impl" = type { %"struct.std::_Deque_base<PP::Word, std::allocator<PP::Word>>::_Deque_impl_data" }
%"struct.std::_Deque_base<PP::Word, std::allocator<PP::Word>>::_Deque_impl_data" = type { ptr, i64, %"struct.std::_Deque_iterator.8", %"struct.std::_Deque_iterator.8" }
%"struct.std::_Deque_iterator.8" = type { ptr, ptr, ptr, ptr }
%"class.std::deque.3" = type { %"class.std::_Deque_base.4" }
%"class.std::_Deque_base.4" = type { %"struct.std::_Deque_base<std::__cxx11::basic_string<char>, std::allocator<std::__cxx11::basic_string<char>>>::_Deque_impl" }
%"struct.std::_Deque_base<std::__cxx11::basic_string<char>, std::allocator<std::__cxx11::basic_string<char>>>::_Deque_impl" = type { %"struct.std::_Deque_base<std::__cxx11::basic_string<char>, std::allocator<std::__cxx11::basic_string<char>>>::_Deque_impl_data" }
%"struct.std::_Deque_base<std::__cxx11::basic_string<char>, std::allocator<std::__cxx11::basic_string<char>>>::_Deque_impl_data" = type { ptr, i64, %"struct.std::_Deque_iterator", %"struct.std::_Deque_iterator" }
%"struct.std::_Deque_iterator" = type { ptr, ptr, ptr, ptr }
%"class.std::deque.9" = type { %"class.std::_Deque_base.10" }
%"class.std::_Deque_base.10" = type { %"struct.std::_Deque_base<bool, std::allocator<bool>>::_Deque_impl" }
%"struct.std::_Deque_base<bool, std::allocator<bool>>::_Deque_impl" = type { %"struct.std::_Deque_base<bool, std::allocator<bool>>::_Deque_impl_data" }
%"struct.std::_Deque_base<bool, std::allocator<bool>>::_Deque_impl_data" = type { ptr, i64, %"struct.std::_Deque_iterator.14", %"struct.std::_Deque_iterator.14" }
%"struct.std::_Deque_iterator.14" = type { ptr, ptr, ptr, ptr }
%"class.std::__cxx11::basic_string" = type { %"struct.std::__cxx11::basic_string<char>::_Alloc_hider", i64, %union.anon }
%"struct.std::__cxx11::basic_string<char>::_Alloc_hider" = type { ptr }
%union.anon = type { i64, [8 x i8] }
%"class.PP::Cmd" = type { i32, i32, %"class.std::__cxx11::basic_string", ptr, %"class.std::__cxx11::basic_string", ptr, ptr, %"class.std::__cxx11::basic_string", %"class.std::__cxx11::basic_string", %"class.std::deque", %"class.std::__cxx11::basic_string", %"class.std::__cxx11::basic_string", %"class.std::vector", %"class.std::vector", %"class.std::vector.16", %"class.std::vector.16" }
%"class.std::vector" = type { %"struct.std::_Vector_base" }
%"struct.std::_Vector_base" = type { %"struct.std::_Vector_base<std::__cxx11::basic_string<char>, std::allocator<std::__cxx11::basic_string<char>>>::_Vector_impl" }
%"struct.std::_Vector_base<std::__cxx11::basic_string<char>, std::allocator<std::__cxx11::basic_string<char>>>::_Vector_impl" = type { %"struct.std::_Vector_base<std::__cxx11::basic_string<char>, std::allocator<std::__cxx11::basic_string<char>>>::_Vector_impl_data" }
%"struct.std::_Vector_base<std::__cxx11::basic_string<char>, std::allocator<std::__cxx11::basic_string<char>>>::_Vector_impl_data" = type { ptr, ptr, ptr }
%"class.std::vector.16" = type { %"struct.std::_Bvector_base" }
%"struct.std::_Bvector_base" = type { %"struct.std::_Bvector_base<std::allocator<bool>>::_Bvector_impl" }
%"struct.std::_Bvector_base<std::allocator<bool>>::_Bvector_impl" = type { %"struct.std::_Bvector_base<std::allocator<bool>>::_Bvector_impl_data" }
%"struct.std::_Bvector_base<std::allocator<bool>>::_Bvector_impl_data" = type { %"struct.std::_Bit_iterator", %"struct.std::_Bit_iterator", ptr }
%"struct.std::_Bit_iterator" = type { %"struct.std::_Bit_iterator_base.base", [4 x i8] }
%"struct.std::_Bit_iterator_base.base" = type <{ ptr, i32 }>
%"class.std::basic_ios" = type { %"class.std::ios_base", ptr, i8, i8, ptr, ptr, ptr, ptr }
%"class.std::ios_base" = type { ptr, i64, i64, i32, i32, i32, ptr, %"struct.std::ios_base::_Words", [8 x %"struct.std::ios_base::_Words"], i32, ptr, %"class.std::locale" }
%"struct.std::ios_base::_Words" = type { ptr, i64 }
%"class.std::locale" = type { ptr }
%"class.std::ctype" = type <{ %"class.std::locale::facet.base", [4 x i8], ptr, i8, [7 x i8], ptr, ptr, ptr, i8, [256 x i8], [256 x i8], i8, [6 x i8] }>
%"class.std::locale::facet.base" = type <{ ptr, i32 }>
%"class.PP::Word" = type { %"class.std::__cxx11::basic_string", i32, i8, i8, i32, i32, %"class.std::__cxx11::basic_string", i32, i32, %"class.std::__cxx11::basic_string", ptr }
%"struct.std::_Deque_base<int, std::allocator<int>>::_Deque_impl_data" = type { ptr, i64, %"struct.std::_Deque_iterator.25", %"struct.std::_Deque_iterator.25" }
%"struct.std::_Deque_iterator.25" = type { ptr, ptr, ptr, ptr }
%"class.PP::Parser_math" = type { i8 }
%"struct.std::_Deque_iterator.28" = type { ptr, ptr, ptr, ptr }

$_ZNSt5dequeINSt7__cxx1112basic_stringIcSt11char_traitsIcESaIcEEESaIS5_EED2Ev = comdat any

$_ZNSt5dequeIN2PP4WordESaIS1_EED2Ev = comdat any

$_ZN2PP3Cmd10get_stringB5cxx11Ei = comdat any

$_ZNSt5dequeIN2PP4WordESaIS1_EEixEm = comdat any

$_ZNSt5dequeIbSaIbEED2Ev = comdat any

$_ZNSt5dequeIN2PP4WordESaIS1_EE6insertESt15_Deque_iteratorIS1_RKS1_PS5_ES6_ = comdat any

$_ZNSt11_Deque_baseIN2PP4WordESaIS1_EE17_M_initialize_mapEm = comdat any

$__clang_call_terminate = comdat any

$_ZNSt11_Deque_baseINSt7__cxx1112basic_stringIcSt11char_traitsIcESaIcEEESaIS5_EE17_M_initialize_mapEm = comdat any

$_ZNSt11_Deque_baseIbSaIbEE17_M_initialize_mapEm = comdat any

$_ZNSt5dequeIN2PP4WordESaIS1_EE19_M_destroy_data_auxESt15_Deque_iteratorIS1_RS1_PS1_ES7_ = comdat any

$_ZNSt5dequeINSt7__cxx1112basic_stringIcSt11char_traitsIcESaIcEEESaIS5_EE19_M_destroy_data_auxESt15_Deque_iteratorIS5_RS5_PS5_ESB_ = comdat any

$_ZNSt5dequeINSt7__cxx1112basic_stringIcSt11char_traitsIcESaIcEEESaIS5_EE16_M_push_back_auxIJS5_EEEvDpOT_ = comdat any

$_ZNSt5dequeINSt7__cxx1112basic_stringIcSt11char_traitsIcESaIcEEESaIS5_EE17_M_reallocate_mapEmb = comdat any

$_ZNSt5dequeIbSaIbEE16_M_push_back_auxIJRKbEEEvDpOT_ = comdat any

$_ZNSt5dequeIbSaIbEE17_M_reallocate_mapEmb = comdat any

$_ZNSt5dequeIN2PP4WordESaIS1_EE16_M_push_back_auxIJRKS1_EEEvDpOT_ = comdat any

$_ZNSt5dequeIN2PP4WordESaIS1_EE17_M_reallocate_mapEmb = comdat any

$_ZNSt5dequeIN2PP4WordESaIS1_EE8_M_eraseESt15_Deque_iteratorIS1_RS1_PS1_ES7_ = comdat any

$_ZSt24__copy_move_backward_ditILb1EN2PP4WordERS1_PS1_St15_Deque_iteratorIS1_S2_S3_EET3_S4_IT0_T1_T2_ESA_S6_ = comdat any

$_ZSt15__copy_move_ditILb1EN2PP4WordERS1_PS1_St15_Deque_iteratorIS1_S2_S3_EET3_S4_IT0_T1_T2_ESA_S6_ = comdat any

$_ZNSt5dequeIN2PP4WordESaIS1_EE13_M_insert_auxIJRKS1_EEESt15_Deque_iteratorIS1_RS1_PS1_ESA_DpOT_ = comdat any

$_ZNSt5dequeIN2PP4WordESaIS1_EE17_M_push_front_auxIJRKS1_EEEvDpOT_ = comdat any

$_ZNSt5dequeIN2PP4WordESaIS1_EE17_M_push_front_auxIJS1_EEEvDpOT_ = comdat any

$_ZNSt5dequeIN2PP4WordESaIS1_EE16_M_push_back_auxIJS1_EEEvDpOT_ = comdat any

@_ZStL8__ioinit = internal global %"class.std::ios_base::Init" zeroinitializer, align 1
@__dso_handle = external hidden global i8
@.str = private unnamed_addr constant [60 x i8] c"A restart block line must have at least 8 words on it (the \00", align 1
@.str.1 = private unnamed_addr constant [54 x i8] c"opening and closing parentheses each count as a word)\00", align 1
@.str.2 = private unnamed_addr constant [37 x i8] c"This restart block command only has \00", align 1
@.str.3 = private unnamed_addr constant [14 x i8] c" words on it.\00", align 1
@.str.4 = private unnamed_addr constant [44 x i8] c"Expected something like (this has 8 words):\00", align 1
@.str.5 = private unnamed_addr constant [44 x i8] c"    restart_block after5 (time .gt. 5) then\00", align 1
@.str.6 = private unnamed_addr constant [65 x i8] c"Or perhaps a single line restart block like (this has 13 words):\00", align 1
@.str.7 = private unnamed_addr constant [58 x i8] c"    restart_block after5 (time .gt. 5) sizemat(2) = 0.005\00", align 1
@.str.8 = private unnamed_addr constant [2 x i8] c"(\00", align 1
@.str.9 = private unnamed_addr constant [64 x i8] c"Expected an open parentheses following the restart block name..\00", align 1
@.str.10 = private unnamed_addr constant [15 x i8] c"Instead found \00", align 1
@.str.11 = private unnamed_addr constant [35 x i8] c" following the restart block name.\00", align 1
@.str.12 = private unnamed_addr constant [52 x i8] c"The restart block command should be something like:\00", align 1
@.str.13 = private unnamed_addr constant [47 x i8] c"    restart_block t_is_gt_5 (time .gt. 5) then\00", align 1
@.str.14 = private unnamed_addr constant [45 x i8] c"Or perhaps a single line restart block like:\00", align 1
@.str.15 = private unnamed_addr constant [61 x i8] c"    restart_block t_is_gt_5 (time .gt. 5) sizemat(2) = 0.005\00", align 1
@.str.16 = private unnamed_addr constant [5 x i8] c"then\00", align 1
@.str.17 = private unnamed_addr constant [60 x i8] c"Found a then keyword embedded in the restart_block command.\00", align 1
@.str.18 = private unnamed_addr constant [67 x i8] c"If a then keyword is present it must be the last word on the line.\00", align 1
@.str.19 = private unnamed_addr constant [52 x i8] c"The restart_block command should be something like:\00", align 1
@.str.20 = private unnamed_addr constant [2 x i8] c")\00", align 1
@.str.21 = private unnamed_addr constant [54 x i8] c"Expected a close parentheses following the condition.\00", align 1
@.str.22 = private unnamed_addr constant [34 x i8] c"Did not find a close parentheses.\00", align 1
@.str.23 = private unnamed_addr constant [54 x i8] c"Wrong number of words in the restart_block condition.\00", align 1
@.str.24 = private unnamed_addr constant [42 x i8] c"The number of words in this condition is \00", align 1
@.str.25 = private unnamed_addr constant [51 x i8] c"The number of words + 1 should be a multiple of 4.\00", align 1
@.str.26 = private unnamed_addr constant [40 x i8] c"The condition should be something like:\00", align 1
@.str.27 = private unnamed_addr constant [16 x i8] c"    time .gt. 5\00", align 1
@.str.28 = private unnamed_addr constant [45 x i8] c"This has 3 words and 3+1 is a multiple of 4.\00", align 1
@.str.29 = private unnamed_addr constant [26 x i8] c"Or the following is valid\00", align 1
@.str.30 = private unnamed_addr constant [37 x i8] c"    time .gt. 5 .and. ncycle .ge. 10\00", align 1
@.str.31 = private unnamed_addr constant [45 x i8] c"This has 7 words and 7+1 is a multiple of 4.\00", align 1
@.str.32 = private unnamed_addr constant [5 x i8] c"none\00", align 1
@.str.33 = private unnamed_addr constant [6 x i8] c"false\00", align 1
@.str.34 = private unnamed_addr constant [7 x i8] c".hglt.\00", align 1
@.str.35 = private unnamed_addr constant [7 x i8] c".hgle.\00", align 1
@.str.36 = private unnamed_addr constant [7 x i8] c".hgeq.\00", align 1
@.str.37 = private unnamed_addr constant [7 x i8] c".hgne.\00", align 1
@.str.38 = private unnamed_addr constant [7 x i8] c".hggt.\00", align 1
@.str.39 = private unnamed_addr constant [7 x i8] c".hgge.\00", align 1
@.str.40 = private unnamed_addr constant [5 x i8] c".lt.\00", align 1
@.str.41 = private unnamed_addr constant [5 x i8] c".le.\00", align 1
@.str.42 = private unnamed_addr constant [5 x i8] c".eq.\00", align 1
@.str.43 = private unnamed_addr constant [5 x i8] c".ne.\00", align 1
@.str.44 = private unnamed_addr constant [5 x i8] c".gt.\00", align 1
@.str.45 = private unnamed_addr constant [5 x i8] c".ge.\00", align 1
@.str.46 = private unnamed_addr constant [32 x i8] c"Invalid restart_block relation.\00", align 1
@.str.47 = private unnamed_addr constant [45 x i8] c"Expected  .lt., .le., .eq., .ne., .gt., .ge.\00", align 1
@.str.48 = private unnamed_addr constant [61 x i8] c"Also could be .hglt., .hgle., .hgeq., .hgne., .hggt., .hgge.\00", align 1
@.str.49 = private unnamed_addr constant [26 x i8] c"Instead found relation:  \00", align 1
@.str.50 = private unnamed_addr constant [5 x i8] c"true\00", align 1
@.str.51 = private unnamed_addr constant [10 x i8] c".andthen.\00", align 1
@.str.53 = private unnamed_addr constant [11 x i8] c"relational\00", align 1
@.str.54 = private unnamed_addr constant [8 x i8] c"logical\00", align 1
@.str.55 = private unnamed_addr constant [68 x i8] c"restart_block condition did not evaluate to a single boolean value.\00", align 1
@.str.56 = private unnamed_addr constant [32 x i8] c"Fix the restart_block condition\00", align 1
@.str.57 = private unnamed_addr constant [2 x i8] c" \00", align 1
@.str.59 = private unnamed_addr constant [48 x i8] c"cannot create std::deque larger than max_size()\00", align 1
@llvm.global_ctors = appending global [1 x { i32, ptr, ptr }] [{ i32, ptr, ptr } { i32 65535, ptr @_GLOBAL__sub_I_Restartblock.cc, ptr null }]

@_ZN2PP12RestartblockC1Ev = dso_local unnamed_addr alias void (ptr), ptr @_ZN2PP12RestartblockC2Ev
@_ZN2PP12RestartblockC1ERiRNS_3CmdERbS4_RSt5dequeINSt7__cxx1112basic_stringIcSt11char_traitsIcESaIcEEESaISB_EERS5_IbSaIbEERS5_IiSaIiEESH_RNS6_18basic_stringstreamIcS9_SA_EES1_ = dso_local unnamed_addr alias void (ptr, ptr, ptr, ptr, ptr, ptr, ptr, ptr, ptr, ptr, ptr), ptr @_ZN2PP12RestartblockC2ERiRNS_3CmdERbS4_RSt5dequeINSt7__cxx1112basic_stringIcSt11char_traitsIcESaIcEEESaISB_EERS5_IbSaIbEERS5_IiSaIiEESH_RNS6_18basic_stringstreamIcS9_SA_EES1_

declare void @_ZNSt8ios_base4InitC1Ev(ptr noundef nonnull align 1 dereferenceable(1)) unnamed_addr #0

; Function Attrs: nounwind
declare void @_ZNSt8ios_base4InitD1Ev(ptr noundef nonnull align 1 dereferenceable(1)) unnamed_addr #1

; Function Attrs: nofree nounwind
declare i32 @__cxa_atexit(ptr, ptr, ptr) local_unnamed_addr #2

; Function Attrs: uwtable
define dso_local void @_ZN2PP12RestartblockC2Ev(ptr noundef nonnull align 8 dereferenceable(520) %0) unnamed_addr #3 align 2 personality ptr @__gxx_personality_v0 {
  tail call void @llvm.memset.p0.i64(ptr noundef nonnull align 8 dereferenceable(80) %0, i8 0, i64 80, i1 false)
  tail call void @_ZNSt11_Deque_baseIN2PP4WordESaIS1_EE17_M_initialize_mapEm(ptr noundef nonnull align 8 dereferenceable(80) %0, i64 noundef 0)
  %2 = getelementptr inbounds %"class.PP::Restartblock", ptr %0, i64 0, i32 1
  tail call void @llvm.memset.p0.i64(ptr noundef nonnull align 8 dereferenceable(80) %2, i8 0, i64 80, i1 false)
  invoke void @_ZNSt11_Deque_baseIN2PP4WordESaIS1_EE17_M_initialize_mapEm(ptr noundef nonnull align 8 dereferenceable(80) %2, i64 noundef 0)
          to label %3 unwind label %16

3:                                                ; preds = %1
  %4 = getelementptr inbounds %"class.PP::Restartblock", ptr %0, i64 0, i32 2
  tail call void @llvm.memset.p0.i64(ptr noundef nonnull align 8 dereferenceable(80) %4, i8 0, i64 80, i1 false)
  invoke void @_ZNSt11_Deque_baseIN2PP4WordESaIS1_EE17_M_initialize_mapEm(ptr noundef nonnull align 8 dereferenceable(80) %4, i64 noundef 0)
          to label %5 unwind label %18

5:                                                ; preds = %3
  %6 = getelementptr inbounds %"class.PP::Restartblock", ptr %0, i64 0, i32 3
  tail call void @llvm.memset.p0.i64(ptr noundef nonnull align 8 dereferenceable(80) %6, i8 0, i64 80, i1 false)
  invoke void @_ZNSt11_Deque_baseIN2PP4WordESaIS1_EE17_M_initialize_mapEm(ptr noundef nonnull align 8 dereferenceable(80) %6, i64 noundef 0)
          to label %7 unwind label %20

7:                                                ; preds = %5
  %8 = getelementptr inbounds %"class.PP::Restartblock", ptr %0, i64 0, i32 4
  tail call void @llvm.memset.p0.i64(ptr noundef nonnull align 8 dereferenceable(80) %8, i8 0, i64 80, i1 false)
  invoke void @_ZNSt11_Deque_baseINSt7__cxx1112basic_stringIcSt11char_traitsIcESaIcEEESaIS5_EE17_M_initialize_mapEm(ptr noundef nonnull align 8 dereferenceable(80) %8, i64 noundef 0)
          to label %9 unwind label %22

9:                                                ; preds = %7
  %10 = getelementptr inbounds %"class.PP::Restartblock", ptr %0, i64 0, i32 5
  tail call void @llvm.memset.p0.i64(ptr noundef nonnull align 8 dereferenceable(80) %10, i8 0, i64 80, i1 false)
  invoke void @_ZNSt11_Deque_baseIbSaIbEE17_M_initialize_mapEm(ptr noundef nonnull align 8 dereferenceable(80) %10, i64 noundef 0)
          to label %11 unwind label %24

11:                                               ; preds = %9
  %12 = getelementptr inbounds %"class.PP::Restartblock", ptr %0, i64 0, i32 7
  %13 = getelementptr inbounds %"class.PP::Restartblock", ptr %0, i64 0, i32 7, i32 2
  store ptr %13, ptr %12, align 8, !tbaa !5
  %14 = getelementptr inbounds %"class.PP::Restartblock", ptr %0, i64 0, i32 7, i32 1
  store i64 0, ptr %14, align 8, !tbaa !10
  store i8 0, ptr %13, align 8, !tbaa !13
  %15 = getelementptr inbounds %"class.PP::Restartblock", ptr %0, i64 0, i32 6
  store i32 -1, ptr %15, align 8, !tbaa !14
  ret void

16:                                               ; preds = %1
  %17 = landingpad { ptr, i32 }
          cleanup
  br label %32

18:                                               ; preds = %3
  %19 = landingpad { ptr, i32 }
          cleanup
  br label %30

20:                                               ; preds = %5
  %21 = landingpad { ptr, i32 }
          cleanup
  br label %28

22:                                               ; preds = %7
  %23 = landingpad { ptr, i32 }
          cleanup
  br label %26

24:                                               ; preds = %9
  %25 = landingpad { ptr, i32 }
          cleanup
  tail call void @_ZNSt5dequeINSt7__cxx1112basic_stringIcSt11char_traitsIcESaIcEEESaIS5_EED2Ev(ptr noundef nonnull align 8 dereferenceable(80) %8) #16
  br label %26

26:                                               ; preds = %24, %22
  %27 = phi { ptr, i32 } [ %25, %24 ], [ %23, %22 ]
  tail call void @_ZNSt5dequeIN2PP4WordESaIS1_EED2Ev(ptr noundef nonnull align 8 dereferenceable(80) %6) #16
  br label %28

28:                                               ; preds = %26, %20
  %29 = phi { ptr, i32 } [ %27, %26 ], [ %21, %20 ]
  tail call void @_ZNSt5dequeIN2PP4WordESaIS1_EED2Ev(ptr noundef nonnull align 8 dereferenceable(80) %4) #16
  br label %30

30:                                               ; preds = %28, %18
  %31 = phi { ptr, i32 } [ %29, %28 ], [ %19, %18 ]
  tail call void @_ZNSt5dequeIN2PP4WordESaIS1_EED2Ev(ptr noundef nonnull align 8 dereferenceable(80) %2) #16
  br label %32

32:                                               ; preds = %30, %16
  %33 = phi { ptr, i32 } [ %31, %30 ], [ %17, %16 ]
  tail call void @_ZNSt5dequeIN2PP4WordESaIS1_EED2Ev(ptr noundef nonnull align 8 dereferenceable(80) %0) #16
  resume { ptr, i32 } %33
}

declare i32 @__gxx_personality_v0(...)

; Function Attrs: nounwind uwtable
define linkonce_odr dso_local void @_ZNSt5dequeINSt7__cxx1112basic_stringIcSt11char_traitsIcESaIcEEESaIS5_EED2Ev(ptr noundef nonnull align 8 dereferenceable(80) %0) unnamed_addr #4 comdat align 2 personality ptr @__gxx_personality_v0 {
  %2 = alloca %"struct.std::_Deque_iterator", align 16
  %3 = alloca %"struct.std::_Deque_iterator", align 16
  %4 = getelementptr inbounds %"struct.std::_Deque_base<std::__cxx11::basic_string<char>, std::allocator<std::__cxx11::basic_string<char>>>::_Deque_impl_data", ptr %0, i64 0, i32 2
  %5 = getelementptr inbounds %"struct.std::_Deque_base<std::__cxx11::basic_string<char>, std::allocator<std::__cxx11::basic_string<char>>>::_Deque_impl_data", ptr %0, i64 0, i32 2, i32 2
  %6 = getelementptr inbounds %"struct.std::_Deque_base<std::__cxx11::basic_string<char>, std::allocator<std::__cxx11::basic_string<char>>>::_Deque_impl_data", ptr %0, i64 0, i32 2, i32 3
  %7 = getelementptr inbounds %"struct.std::_Deque_base<std::__cxx11::basic_string<char>, std::allocator<std::__cxx11::basic_string<char>>>::_Deque_impl_data", ptr %0, i64 0, i32 3
  %8 = getelementptr inbounds %"struct.std::_Deque_base<std::__cxx11::basic_string<char>, std::allocator<std::__cxx11::basic_string<char>>>::_Deque_impl_data", ptr %0, i64 0, i32 3, i32 2
  %9 = getelementptr inbounds %"struct.std::_Deque_base<std::__cxx11::basic_string<char>, std::allocator<std::__cxx11::basic_string<char>>>::_Deque_impl_data", ptr %0, i64 0, i32 3, i32 3
  call void @llvm.lifetime.start.p0(i64 32, ptr nonnull %2)
  call void @llvm.lifetime.start.p0(i64 32, ptr nonnull %3)
  %10 = load <2 x ptr>, ptr %4, align 8, !tbaa !32, !noalias !33
  store <2 x ptr> %10, ptr %2, align 16, !tbaa !32
  %11 = getelementptr inbounds %"struct.std::_Deque_iterator", ptr %2, i64 0, i32 2
  %12 = load <2 x ptr>, ptr %5, align 8, !tbaa !32, !noalias !33
  store <2 x ptr> %12, ptr %11, align 16, !tbaa !32
  %13 = load <2 x ptr>, ptr %7, align 8, !tbaa !32, !noalias !36
  store <2 x ptr> %13, ptr %3, align 16, !tbaa !32
  %14 = getelementptr inbounds %"struct.std::_Deque_iterator", ptr %3, i64 0, i32 2
  %15 = load <2 x ptr>, ptr %8, align 8, !tbaa !32, !noalias !36
  store <2 x ptr> %15, ptr %14, align 16, !tbaa !32
  invoke void @_ZNSt5dequeINSt7__cxx1112basic_stringIcSt11char_traitsIcESaIcEEESaIS5_EE19_M_destroy_data_auxESt15_Deque_iteratorIS5_RS5_PS5_ESB_(ptr noundef nonnull align 8 dereferenceable(80) %0, ptr noundef nonnull %2, ptr noundef nonnull %3)
          to label %16 unwind label %34

16:                                               ; preds = %1
  call void @llvm.lifetime.end.p0(i64 32, ptr nonnull %2)
  call void @llvm.lifetime.end.p0(i64 32, ptr nonnull %3)
  %17 = load ptr, ptr %0, align 8, !tbaa !39
  %18 = icmp eq ptr %17, null
  br i1 %18, label %33, label %19

19:                                               ; preds = %16
  %20 = load ptr, ptr %6, align 8, !tbaa !40
  %21 = load ptr, ptr %9, align 8, !tbaa !41
  %22 = getelementptr inbounds ptr, ptr %21, i64 1
  %23 = icmp ult ptr %20, %22
  br i1 %23, label %24, label %31

24:                                               ; preds = %19, %24
  %25 = phi ptr [ %27, %24 ], [ %20, %19 ]
  %26 = load ptr, ptr %25, align 8, !tbaa !32
  call void @_ZdlPv(ptr noundef %26) #17
  %27 = getelementptr inbounds ptr, ptr %25, i64 1
  %28 = icmp ult ptr %25, %21
  br i1 %28, label %24, label %29, !llvm.loop !42

29:                                               ; preds = %24
  %30 = load ptr, ptr %0, align 8, !tbaa !39
  br label %31

31:                                               ; preds = %29, %19
  %32 = phi ptr [ %30, %29 ], [ %17, %19 ]
  call void @_ZdlPv(ptr noundef %32) #17
  br label %33

33:                                               ; preds = %16, %31
  ret void

34:                                               ; preds = %1
  %35 = landingpad { ptr, i32 }
          catch ptr null
  %36 = extractvalue { ptr, i32 } %35, 0
  call void @__clang_call_terminate(ptr %36) #18
  unreachable
}

; Function Attrs: nounwind uwtable
define linkonce_odr dso_local void @_ZNSt5dequeIN2PP4WordESaIS1_EED2Ev(ptr noundef nonnull align 8 dereferenceable(80) %0) unnamed_addr #4 comdat align 2 personality ptr @__gxx_personality_v0 {
  %2 = alloca %"struct.std::_Deque_iterator.8", align 16
  %3 = alloca %"struct.std::_Deque_iterator.8", align 16
  %4 = getelementptr inbounds %"struct.std::_Deque_base<PP::Word, std::allocator<PP::Word>>::_Deque_impl_data", ptr %0, i64 0, i32 2
  %5 = getelementptr inbounds %"struct.std::_Deque_base<PP::Word, std::allocator<PP::Word>>::_Deque_impl_data", ptr %0, i64 0, i32 2, i32 2
  %6 = getelementptr inbounds %"struct.std::_Deque_base<PP::Word, std::allocator<PP::Word>>::_Deque_impl_data", ptr %0, i64 0, i32 2, i32 3
  %7 = getelementptr inbounds %"struct.std::_Deque_base<PP::Word, std::allocator<PP::Word>>::_Deque_impl_data", ptr %0, i64 0, i32 3
  %8 = getelementptr inbounds %"struct.std::_Deque_base<PP::Word, std::allocator<PP::Word>>::_Deque_impl_data", ptr %0, i64 0, i32 3, i32 2
  %9 = getelementptr inbounds %"struct.std::_Deque_base<PP::Word, std::allocator<PP::Word>>::_Deque_impl_data", ptr %0, i64 0, i32 3, i32 3
  call void @llvm.lifetime.start.p0(i64 32, ptr nonnull %2)
  call void @llvm.lifetime.start.p0(i64 32, ptr nonnull %3)
  %10 = load <2 x ptr>, ptr %4, align 8, !tbaa !32, !noalias !44
  store <2 x ptr> %10, ptr %2, align 16, !tbaa !32
  %11 = getelementptr inbounds %"struct.std::_Deque_iterator.8", ptr %2, i64 0, i32 2
  %12 = load <2 x ptr>, ptr %5, align 8, !tbaa !32, !noalias !44
  store <2 x ptr> %12, ptr %11, align 16, !tbaa !32
  %13 = load <2 x ptr>, ptr %7, align 8, !tbaa !32, !noalias !47
  store <2 x ptr> %13, ptr %3, align 16, !tbaa !32
  %14 = getelementptr inbounds %"struct.std::_Deque_iterator.8", ptr %3, i64 0, i32 2
  %15 = load <2 x ptr>, ptr %8, align 8, !tbaa !32, !noalias !47
  store <2 x ptr> %15, ptr %14, align 16, !tbaa !32
  invoke void @_ZNSt5dequeIN2PP4WordESaIS1_EE19_M_destroy_data_auxESt15_Deque_iteratorIS1_RS1_PS1_ES7_(ptr noundef nonnull align 8 dereferenceable(80) %0, ptr noundef nonnull %2, ptr noundef nonnull %3)
          to label %16 unwind label %34

16:                                               ; preds = %1
  call void @llvm.lifetime.end.p0(i64 32, ptr nonnull %2)
  call void @llvm.lifetime.end.p0(i64 32, ptr nonnull %3)
  %17 = load ptr, ptr %0, align 8, !tbaa !50
  %18 = icmp eq ptr %17, null
  br i1 %18, label %33, label %19

19:                                               ; preds = %16
  %20 = load ptr, ptr %6, align 8, !tbaa !51
  %21 = load ptr, ptr %9, align 8, !tbaa !52
  %22 = getelementptr inbounds ptr, ptr %21, i64 1
  %23 = icmp ult ptr %20, %22
  br i1 %23, label %24, label %31

24:                                               ; preds = %19, %24
  %25 = phi ptr [ %27, %24 ], [ %20, %19 ]
  %26 = load ptr, ptr %25, align 8, !tbaa !32
  call void @_ZdlPv(ptr noundef %26) #17
  %27 = getelementptr inbounds ptr, ptr %25, i64 1
  %28 = icmp ult ptr %25, %21
  br i1 %28, label %24, label %29, !llvm.loop !53

29:                                               ; preds = %24
  %30 = load ptr, ptr %0, align 8, !tbaa !50
  br label %31

31:                                               ; preds = %29, %19
  %32 = phi ptr [ %30, %29 ], [ %17, %19 ]
  call void @_ZdlPv(ptr noundef %32) #17
  br label %33

33:                                               ; preds = %16, %31
  ret void

34:                                               ; preds = %1
  %35 = landingpad { ptr, i32 }
          catch ptr null
  %36 = extractvalue { ptr, i32 } %35, 0
  call void @__clang_call_terminate(ptr %36) #18
  unreachable
}

; Function Attrs: uwtable
define dso_local void @_ZN2PP12RestartblockC2ERiRNS_3CmdERbS4_RSt5dequeINSt7__cxx1112basic_stringIcSt11char_traitsIcESaIcEEESaISB_EERS5_IbSaIbEERS5_IiSaIiEESH_RNS6_18basic_stringstreamIcS9_SA_EES1_(ptr noundef nonnull align 8 dereferenceable(520) %0, ptr nocapture noundef nonnull align 4 dereferenceable(4) %1, ptr noundef nonnull align 8 dereferenceable(432) %2, ptr nocapture noundef nonnull writeonly align 1 dereferenceable(1) %3, ptr nocapture noundef nonnull writeonly align 1 dereferenceable(1) %4, ptr nocapture noundef nonnull readonly align 8 dereferenceable(80) %5, ptr nocapture noundef nonnull readonly align 8 dereferenceable(80) %6, ptr nocapture noundef nonnull readonly align 8 dereferenceable(80) %7, ptr nocapture noundef nonnull readonly align 8 dereferenceable(80) %8, ptr noundef nonnull align 8 dereferenceable(128) %9, ptr noundef nonnull align 4 dereferenceable(4) %10) unnamed_addr #3 align 2 personality ptr @__gxx_personality_v0 {
  %12 = alloca i64, align 8
  %13 = alloca i64, align 8
  %14 = alloca i64, align 8
  %15 = alloca i64, align 8
  %16 = alloca i64, align 8
  %17 = alloca i64, align 8
  %18 = alloca i64, align 8
  %19 = alloca i64, align 8
  %20 = alloca i64, align 8
  %21 = alloca i64, align 8
  %22 = alloca i64, align 8
  %23 = alloca i64, align 8
  %24 = alloca i64, align 8
  %25 = alloca i64, align 8
  %26 = alloca i64, align 8
  %27 = alloca i64, align 8
  %28 = alloca i64, align 8
  %29 = alloca i64, align 8
  %30 = alloca i64, align 8
  %31 = alloca %"class.std::__cxx11::basic_string", align 8
  %32 = alloca %"class.std::__cxx11::basic_string", align 8
  %33 = alloca %"class.std::__cxx11::basic_string", align 8
  %34 = alloca %"class.std::__cxx11::basic_string", align 8
  %35 = alloca %"class.std::__cxx11::basic_string", align 8
  %36 = alloca %"class.std::__cxx11::basic_string", align 8
  %37 = alloca %"class.std::__cxx11::basic_string", align 8
  %38 = alloca %"class.std::__cxx11::basic_string", align 8
  %39 = alloca %"class.std::__cxx11::basic_string", align 8
  %40 = alloca %"class.std::__cxx11::basic_string", align 8
  %41 = alloca %"class.std::__cxx11::basic_string", align 8
  %42 = alloca %"class.std::__cxx11::basic_string", align 8
  %43 = alloca %"class.std::__cxx11::basic_string", align 8
  %44 = alloca %"class.std::__cxx11::basic_string", align 8
  %45 = alloca %"class.std::__cxx11::basic_string", align 8
  %46 = alloca %"class.std::__cxx11::basic_string", align 8
  %47 = alloca %"class.std::__cxx11::basic_string", align 8
  %48 = alloca %"class.std::__cxx11::basic_string", align 8
  %49 = alloca %"class.std::__cxx11::basic_string", align 8
  %50 = alloca %"class.std::__cxx11::basic_string", align 8
  %51 = alloca i8, align 1
  %52 = alloca %"class.std::__cxx11::basic_string", align 8
  %53 = alloca %"class.std::__cxx11::basic_string", align 8
  %54 = alloca %"class.std::__cxx11::basic_string", align 8
  %55 = alloca %"class.std::__cxx11::basic_string", align 8
  %56 = alloca %"class.std::__cxx11::basic_string", align 8
  %57 = alloca %"class.std::__cxx11::basic_string", align 8
  %58 = alloca %"class.std::__cxx11::basic_string", align 8
  tail call void @llvm.memset.p0.i64(ptr noundef nonnull align 8 dereferenceable(80) %0, i8 0, i64 80, i1 false)
  tail call void @_ZNSt11_Deque_baseIN2PP4WordESaIS1_EE17_M_initialize_mapEm(ptr noundef nonnull align 8 dereferenceable(80) %0, i64 noundef 0)
  %59 = getelementptr inbounds %"class.PP::Restartblock", ptr %0, i64 0, i32 1
  tail call void @llvm.memset.p0.i64(ptr noundef nonnull align 8 dereferenceable(80) %59, i8 0, i64 80, i1 false)
  invoke void @_ZNSt11_Deque_baseIN2PP4WordESaIS1_EE17_M_initialize_mapEm(ptr noundef nonnull align 8 dereferenceable(80) %59, i64 noundef 0)
          to label %60 unwind label %312

60:                                               ; preds = %11
  %61 = getelementptr inbounds %"class.PP::Restartblock", ptr %0, i64 0, i32 2
  tail call void @llvm.memset.p0.i64(ptr noundef nonnull align 8 dereferenceable(80) %61, i8 0, i64 80, i1 false)
  invoke void @_ZNSt11_Deque_baseIN2PP4WordESaIS1_EE17_M_initialize_mapEm(ptr noundef nonnull align 8 dereferenceable(80) %61, i64 noundef 0)
          to label %62 unwind label %314

62:                                               ; preds = %60
  %63 = getelementptr inbounds %"class.PP::Restartblock", ptr %0, i64 0, i32 3
  tail call void @llvm.memset.p0.i64(ptr noundef nonnull align 8 dereferenceable(80) %63, i8 0, i64 80, i1 false)
  invoke void @_ZNSt11_Deque_baseIN2PP4WordESaIS1_EE17_M_initialize_mapEm(ptr noundef nonnull align 8 dereferenceable(80) %63, i64 noundef 0)
          to label %64 unwind label %316

64:                                               ; preds = %62
  %65 = getelementptr inbounds %"class.PP::Restartblock", ptr %0, i64 0, i32 4
  tail call void @llvm.memset.p0.i64(ptr noundef nonnull align 8 dereferenceable(80) %65, i8 0, i64 80, i1 false)
  invoke void @_ZNSt11_Deque_baseINSt7__cxx1112basic_stringIcSt11char_traitsIcESaIcEEESaIS5_EE17_M_initialize_mapEm(ptr noundef nonnull align 8 dereferenceable(80) %65, i64 noundef 0)
          to label %66 unwind label %318

66:                                               ; preds = %64
  %67 = getelementptr inbounds %"class.PP::Restartblock", ptr %0, i64 0, i32 5
  tail call void @llvm.memset.p0.i64(ptr noundef nonnull align 8 dereferenceable(80) %67, i8 0, i64 80, i1 false)
  invoke void @_ZNSt11_Deque_baseIbSaIbEE17_M_initialize_mapEm(ptr noundef nonnull align 8 dereferenceable(80) %67, i64 noundef 0)
          to label %68 unwind label %320

68:                                               ; preds = %66
  %69 = getelementptr inbounds %"class.PP::Restartblock", ptr %0, i64 0, i32 7
  %70 = getelementptr inbounds %"class.PP::Restartblock", ptr %0, i64 0, i32 7, i32 2
  store ptr %70, ptr %69, align 8, !tbaa !5
  %71 = getelementptr inbounds %"class.PP::Restartblock", ptr %0, i64 0, i32 7, i32 1
  store i64 0, ptr %71, align 8, !tbaa !10
  store i8 0, ptr %70, align 8, !tbaa !13
  %72 = getelementptr inbounds %"class.PP::Restartblock", ptr %0, i64 0, i32 6
  store i32 -1, ptr %72, align 8, !tbaa !14
  %73 = load i32, ptr %1, align 4, !tbaa !54
  %74 = add nsw i32 %73, 1
  store i32 %74, ptr %1, align 4, !tbaa !54
  store i8 1, ptr %3, align 1, !tbaa !55
  store i8 0, ptr %4, align 1, !tbaa !55
  %75 = getelementptr inbounds %"class.PP::Cmd", ptr %2, i64 0, i32 9, i32 0, i32 0, i32 0, i32 3
  %76 = getelementptr inbounds %"class.PP::Cmd", ptr %2, i64 0, i32 9, i32 0, i32 0, i32 0, i32 2
  %77 = getelementptr inbounds %"class.PP::Cmd", ptr %2, i64 0, i32 9, i32 0, i32 0, i32 0, i32 3, i32 3
  %78 = load ptr, ptr %77, align 8, !tbaa !57
  %79 = getelementptr inbounds %"class.PP::Cmd", ptr %2, i64 0, i32 9, i32 0, i32 0, i32 0, i32 2, i32 3
  %80 = load ptr, ptr %79, align 8, !tbaa !57
  %81 = ptrtoint ptr %78 to i64
  %82 = ptrtoint ptr %80 to i64
  %83 = sub i64 %81, %82
  %84 = ashr exact i64 %83, 3
  %85 = icmp ne ptr %78, null
  %86 = sext i1 %85 to i64
  %87 = add nsw i64 %84, %86
  %88 = shl nsw i64 %87, 2
  %89 = load ptr, ptr %75, align 8, !tbaa !58
  %90 = getelementptr inbounds %"class.PP::Cmd", ptr %2, i64 0, i32 9, i32 0, i32 0, i32 0, i32 3, i32 1
  %91 = load ptr, ptr %90, align 8, !tbaa !59
  %92 = ptrtoint ptr %89 to i64
  %93 = ptrtoint ptr %91 to i64
  %94 = sub i64 %92, %93
  %95 = lshr exact i64 %94, 7
  %96 = add i64 %88, %95
  %97 = getelementptr inbounds %"class.PP::Cmd", ptr %2, i64 0, i32 9, i32 0, i32 0, i32 0, i32 2, i32 2
  %98 = load ptr, ptr %97, align 8, !tbaa !60
  %99 = load ptr, ptr %76, align 8, !tbaa !58
  %100 = ptrtoint ptr %98 to i64
  %101 = ptrtoint ptr %99 to i64
  %102 = sub i64 %100, %101
  %103 = lshr exact i64 %102, 7
  %104 = add i64 %96, %103
  %105 = trunc i64 %104 to i32
  %106 = icmp slt i32 %105, 8
  br i1 %106, label %107, label %324

107:                                              ; preds = %68
  invoke void @_ZN2PP3Cmd11fatal_errorEiRNSt7__cxx1118basic_stringstreamIcSt11char_traitsIcESaIcEEERi(ptr noundef nonnull align 8 dereferenceable(432) %2, i32 noundef 0, ptr noundef nonnull align 8 dereferenceable(128) %9, ptr noundef nonnull align 4 dereferenceable(4) %10)
          to label %108 unwind label %322

108:                                              ; preds = %107
  %109 = getelementptr inbounds i8, ptr %9, i64 16
  %110 = invoke noundef nonnull align 8 dereferenceable(8) ptr @_ZSt16__ostream_insertIcSt11char_traitsIcEERSt13basic_ostreamIT_T0_ES6_PKS3_l(ptr noundef nonnull align 8 dereferenceable(8) %109, ptr noundef nonnull @.str, i64 noundef 59)
          to label %111 unwind label %322

111:                                              ; preds = %108
  %112 = load ptr, ptr %109, align 8, !tbaa !61
  %113 = getelementptr i8, ptr %112, i64 -24
  %114 = load i64, ptr %113, align 8
  %115 = getelementptr inbounds i8, ptr %109, i64 %114
  %116 = getelementptr inbounds %"class.std::basic_ios", ptr %115, i64 0, i32 5
  %117 = load ptr, ptr %116, align 8, !tbaa !63
  %118 = icmp eq ptr %117, null
  br i1 %118, label %291, label %119

119:                                              ; preds = %111
  %120 = getelementptr inbounds %"class.std::ctype", ptr %117, i64 0, i32 8
  %121 = load i8, ptr %120, align 8, !tbaa !70
  %122 = icmp eq i8 %121, 0
  br i1 %122, label %126, label %123

123:                                              ; preds = %119
  %124 = getelementptr inbounds %"class.std::ctype", ptr %117, i64 0, i32 9, i64 10
  %125 = load i8, ptr %124, align 1, !tbaa !13
  br label %132

126:                                              ; preds = %119
  invoke void @_ZNKSt5ctypeIcE13_M_widen_initEv(ptr noundef nonnull align 8 dereferenceable(570) %117)
          to label %127 unwind label %322

127:                                              ; preds = %126
  %128 = load ptr, ptr %117, align 8, !tbaa !61
  %129 = getelementptr inbounds ptr, ptr %128, i64 6
  %130 = load ptr, ptr %129, align 8
  %131 = invoke noundef signext i8 %130(ptr noundef nonnull align 8 dereferenceable(570) %117, i8 noundef signext 10)
          to label %132 unwind label %322

132:                                              ; preds = %127, %123
  %133 = phi i8 [ %125, %123 ], [ %131, %127 ]
  %134 = invoke noundef nonnull align 8 dereferenceable(8) ptr @_ZNSo3putEc(ptr noundef nonnull align 8 dereferenceable(8) %109, i8 noundef signext %133)
          to label %135 unwind label %322

135:                                              ; preds = %132
  %136 = invoke noundef nonnull align 8 dereferenceable(8) ptr @_ZNSo5flushEv(ptr noundef nonnull align 8 dereferenceable(8) %134)
          to label %137 unwind label %322

137:                                              ; preds = %135
  %138 = invoke noundef nonnull align 8 dereferenceable(8) ptr @_ZSt16__ostream_insertIcSt11char_traitsIcEERSt13basic_ostreamIT_T0_ES6_PKS3_l(ptr noundef nonnull align 8 dereferenceable(8) %136, ptr noundef nonnull @.str.1, i64 noundef 53)
          to label %139 unwind label %322

139:                                              ; preds = %137
  %140 = load ptr, ptr %136, align 8, !tbaa !61
  %141 = getelementptr i8, ptr %140, i64 -24
  %142 = load i64, ptr %141, align 8
  %143 = getelementptr inbounds i8, ptr %136, i64 %142
  %144 = getelementptr inbounds %"class.std::basic_ios", ptr %143, i64 0, i32 5
  %145 = load ptr, ptr %144, align 8, !tbaa !63
  %146 = icmp eq ptr %145, null
  br i1 %146, label %291, label %147

147:                                              ; preds = %139
  %148 = getelementptr inbounds %"class.std::ctype", ptr %145, i64 0, i32 8
  %149 = load i8, ptr %148, align 8, !tbaa !70
  %150 = icmp eq i8 %149, 0
  br i1 %150, label %154, label %151

151:                                              ; preds = %147
  %152 = getelementptr inbounds %"class.std::ctype", ptr %145, i64 0, i32 9, i64 10
  %153 = load i8, ptr %152, align 1, !tbaa !13
  br label %160

154:                                              ; preds = %147
  invoke void @_ZNKSt5ctypeIcE13_M_widen_initEv(ptr noundef nonnull align 8 dereferenceable(570) %145)
          to label %155 unwind label %322

155:                                              ; preds = %154
  %156 = load ptr, ptr %145, align 8, !tbaa !61
  %157 = getelementptr inbounds ptr, ptr %156, i64 6
  %158 = load ptr, ptr %157, align 8
  %159 = invoke noundef signext i8 %158(ptr noundef nonnull align 8 dereferenceable(570) %145, i8 noundef signext 10)
          to label %160 unwind label %322

160:                                              ; preds = %155, %151
  %161 = phi i8 [ %153, %151 ], [ %159, %155 ]
  %162 = invoke noundef nonnull align 8 dereferenceable(8) ptr @_ZNSo3putEc(ptr noundef nonnull align 8 dereferenceable(8) %136, i8 noundef signext %161)
          to label %163 unwind label %322

163:                                              ; preds = %160
  %164 = invoke noundef nonnull align 8 dereferenceable(8) ptr @_ZNSo5flushEv(ptr noundef nonnull align 8 dereferenceable(8) %162)
          to label %165 unwind label %322

165:                                              ; preds = %163
  %166 = invoke noundef nonnull align 8 dereferenceable(8) ptr @_ZSt16__ostream_insertIcSt11char_traitsIcEERSt13basic_ostreamIT_T0_ES6_PKS3_l(ptr noundef nonnull align 8 dereferenceable(8) %109, ptr noundef nonnull @.str.2, i64 noundef 36)
          to label %167 unwind label %322

167:                                              ; preds = %165
  %168 = invoke noundef nonnull align 8 dereferenceable(8) ptr @_ZNSolsEi(ptr noundef nonnull align 8 dereferenceable(8) %109, i32 noundef %105)
          to label %169 unwind label %322

169:                                              ; preds = %167
  %170 = invoke noundef nonnull align 8 dereferenceable(8) ptr @_ZSt16__ostream_insertIcSt11char_traitsIcEERSt13basic_ostreamIT_T0_ES6_PKS3_l(ptr noundef nonnull align 8 dereferenceable(8) %168, ptr noundef nonnull @.str.3, i64 noundef 13)
          to label %171 unwind label %322

171:                                              ; preds = %169
  %172 = load ptr, ptr %168, align 8, !tbaa !61
  %173 = getelementptr i8, ptr %172, i64 -24
  %174 = load i64, ptr %173, align 8
  %175 = getelementptr inbounds i8, ptr %168, i64 %174
  %176 = getelementptr inbounds %"class.std::basic_ios", ptr %175, i64 0, i32 5
  %177 = load ptr, ptr %176, align 8, !tbaa !63
  %178 = icmp eq ptr %177, null
  br i1 %178, label %291, label %179

179:                                              ; preds = %171
  %180 = getelementptr inbounds %"class.std::ctype", ptr %177, i64 0, i32 8
  %181 = load i8, ptr %180, align 8, !tbaa !70
  %182 = icmp eq i8 %181, 0
  br i1 %182, label %186, label %183

183:                                              ; preds = %179
  %184 = getelementptr inbounds %"class.std::ctype", ptr %177, i64 0, i32 9, i64 10
  %185 = load i8, ptr %184, align 1, !tbaa !13
  br label %192

186:                                              ; preds = %179
  invoke void @_ZNKSt5ctypeIcE13_M_widen_initEv(ptr noundef nonnull align 8 dereferenceable(570) %177)
          to label %187 unwind label %322

187:                                              ; preds = %186
  %188 = load ptr, ptr %177, align 8, !tbaa !61
  %189 = getelementptr inbounds ptr, ptr %188, i64 6
  %190 = load ptr, ptr %189, align 8
  %191 = invoke noundef signext i8 %190(ptr noundef nonnull align 8 dereferenceable(570) %177, i8 noundef signext 10)
          to label %192 unwind label %322

192:                                              ; preds = %187, %183
  %193 = phi i8 [ %185, %183 ], [ %191, %187 ]
  %194 = invoke noundef nonnull align 8 dereferenceable(8) ptr @_ZNSo3putEc(ptr noundef nonnull align 8 dereferenceable(8) %168, i8 noundef signext %193)
          to label %195 unwind label %322

195:                                              ; preds = %192
  %196 = invoke noundef nonnull align 8 dereferenceable(8) ptr @_ZNSo5flushEv(ptr noundef nonnull align 8 dereferenceable(8) %194)
          to label %197 unwind label %322

197:                                              ; preds = %195
  %198 = invoke noundef nonnull align 8 dereferenceable(8) ptr @_ZSt16__ostream_insertIcSt11char_traitsIcEERSt13basic_ostreamIT_T0_ES6_PKS3_l(ptr noundef nonnull align 8 dereferenceable(8) %109, ptr noundef nonnull @.str.4, i64 noundef 43)
          to label %199 unwind label %322

199:                                              ; preds = %197
  %200 = load ptr, ptr %109, align 8, !tbaa !61
  %201 = getelementptr i8, ptr %200, i64 -24
  %202 = load i64, ptr %201, align 8
  %203 = getelementptr inbounds i8, ptr %109, i64 %202
  %204 = getelementptr inbounds %"class.std::basic_ios", ptr %203, i64 0, i32 5
  %205 = load ptr, ptr %204, align 8, !tbaa !63
  %206 = icmp eq ptr %205, null
  br i1 %206, label %291, label %207

207:                                              ; preds = %199
  %208 = getelementptr inbounds %"class.std::ctype", ptr %205, i64 0, i32 8
  %209 = load i8, ptr %208, align 8, !tbaa !70
  %210 = icmp eq i8 %209, 0
  br i1 %210, label %214, label %211

211:                                              ; preds = %207
  %212 = getelementptr inbounds %"class.std::ctype", ptr %205, i64 0, i32 9, i64 10
  %213 = load i8, ptr %212, align 1, !tbaa !13
  br label %220

214:                                              ; preds = %207
  invoke void @_ZNKSt5ctypeIcE13_M_widen_initEv(ptr noundef nonnull align 8 dereferenceable(570) %205)
          to label %215 unwind label %322

215:                                              ; preds = %214
  %216 = load ptr, ptr %205, align 8, !tbaa !61
  %217 = getelementptr inbounds ptr, ptr %216, i64 6
  %218 = load ptr, ptr %217, align 8
  %219 = invoke noundef signext i8 %218(ptr noundef nonnull align 8 dereferenceable(570) %205, i8 noundef signext 10)
          to label %220 unwind label %322

220:                                              ; preds = %215, %211
  %221 = phi i8 [ %213, %211 ], [ %219, %215 ]
  %222 = invoke noundef nonnull align 8 dereferenceable(8) ptr @_ZNSo3putEc(ptr noundef nonnull align 8 dereferenceable(8) %109, i8 noundef signext %221)
          to label %223 unwind label %322

223:                                              ; preds = %220
  %224 = invoke noundef nonnull align 8 dereferenceable(8) ptr @_ZNSo5flushEv(ptr noundef nonnull align 8 dereferenceable(8) %222)
          to label %225 unwind label %322

225:                                              ; preds = %223
  %226 = invoke noundef nonnull align 8 dereferenceable(8) ptr @_ZSt16__ostream_insertIcSt11char_traitsIcEERSt13basic_ostreamIT_T0_ES6_PKS3_l(ptr noundef nonnull align 8 dereferenceable(8) %109, ptr noundef nonnull @.str.5, i64 noundef 43)
          to label %227 unwind label %322

227:                                              ; preds = %225
  %228 = load ptr, ptr %109, align 8, !tbaa !61
  %229 = getelementptr i8, ptr %228, i64 -24
  %230 = load i64, ptr %229, align 8
  %231 = getelementptr inbounds i8, ptr %109, i64 %230
  %232 = getelementptr inbounds %"class.std::basic_ios", ptr %231, i64 0, i32 5
  %233 = load ptr, ptr %232, align 8, !tbaa !63
  %234 = icmp eq ptr %233, null
  br i1 %234, label %291, label %235

235:                                              ; preds = %227
  %236 = getelementptr inbounds %"class.std::ctype", ptr %233, i64 0, i32 8
  %237 = load i8, ptr %236, align 8, !tbaa !70
  %238 = icmp eq i8 %237, 0
  br i1 %238, label %242, label %239

239:                                              ; preds = %235
  %240 = getelementptr inbounds %"class.std::ctype", ptr %233, i64 0, i32 9, i64 10
  %241 = load i8, ptr %240, align 1, !tbaa !13
  br label %248

242:                                              ; preds = %235
  invoke void @_ZNKSt5ctypeIcE13_M_widen_initEv(ptr noundef nonnull align 8 dereferenceable(570) %233)
          to label %243 unwind label %322

243:                                              ; preds = %242
  %244 = load ptr, ptr %233, align 8, !tbaa !61
  %245 = getelementptr inbounds ptr, ptr %244, i64 6
  %246 = load ptr, ptr %245, align 8
  %247 = invoke noundef signext i8 %246(ptr noundef nonnull align 8 dereferenceable(570) %233, i8 noundef signext 10)
          to label %248 unwind label %322

248:                                              ; preds = %243, %239
  %249 = phi i8 [ %241, %239 ], [ %247, %243 ]
  %250 = invoke noundef nonnull align 8 dereferenceable(8) ptr @_ZNSo3putEc(ptr noundef nonnull align 8 dereferenceable(8) %109, i8 noundef signext %249)
          to label %251 unwind label %322

251:                                              ; preds = %248
  %252 = invoke noundef nonnull align 8 dereferenceable(8) ptr @_ZNSo5flushEv(ptr noundef nonnull align 8 dereferenceable(8) %250)
          to label %253 unwind label %322

253:                                              ; preds = %251
  %254 = invoke noundef nonnull align 8 dereferenceable(8) ptr @_ZSt16__ostream_insertIcSt11char_traitsIcEERSt13basic_ostreamIT_T0_ES6_PKS3_l(ptr noundef nonnull align 8 dereferenceable(8) %109, ptr noundef nonnull @.str.6, i64 noundef 64)
          to label %255 unwind label %322

255:                                              ; preds = %253
  %256 = load ptr, ptr %109, align 8, !tbaa !61
  %257 = getelementptr i8, ptr %256, i64 -24
  %258 = load i64, ptr %257, align 8
  %259 = getelementptr inbounds i8, ptr %109, i64 %258
  %260 = getelementptr inbounds %"class.std::basic_ios", ptr %259, i64 0, i32 5
  %261 = load ptr, ptr %260, align 8, !tbaa !63
  %262 = icmp eq ptr %261, null
  br i1 %262, label %291, label %263

263:                                              ; preds = %255
  %264 = getelementptr inbounds %"class.std::ctype", ptr %261, i64 0, i32 8
  %265 = load i8, ptr %264, align 8, !tbaa !70
  %266 = icmp eq i8 %265, 0
  br i1 %266, label %270, label %267

267:                                              ; preds = %263
  %268 = getelementptr inbounds %"class.std::ctype", ptr %261, i64 0, i32 9, i64 10
  %269 = load i8, ptr %268, align 1, !tbaa !13
  br label %276

270:                                              ; preds = %263
  invoke void @_ZNKSt5ctypeIcE13_M_widen_initEv(ptr noundef nonnull align 8 dereferenceable(570) %261)
          to label %271 unwind label %322

271:                                              ; preds = %270
  %272 = load ptr, ptr %261, align 8, !tbaa !61
  %273 = getelementptr inbounds ptr, ptr %272, i64 6
  %274 = load ptr, ptr %273, align 8
  %275 = invoke noundef signext i8 %274(ptr noundef nonnull align 8 dereferenceable(570) %261, i8 noundef signext 10)
          to label %276 unwind label %322

276:                                              ; preds = %271, %267
  %277 = phi i8 [ %269, %267 ], [ %275, %271 ]
  %278 = invoke noundef nonnull align 8 dereferenceable(8) ptr @_ZNSo3putEc(ptr noundef nonnull align 8 dereferenceable(8) %109, i8 noundef signext %277)
          to label %279 unwind label %322

279:                                              ; preds = %276
  %280 = invoke noundef nonnull align 8 dereferenceable(8) ptr @_ZNSo5flushEv(ptr noundef nonnull align 8 dereferenceable(8) %278)
          to label %281 unwind label %322

281:                                              ; preds = %279
  %282 = invoke noundef nonnull align 8 dereferenceable(8) ptr @_ZSt16__ostream_insertIcSt11char_traitsIcEERSt13basic_ostreamIT_T0_ES6_PKS3_l(ptr noundef nonnull align 8 dereferenceable(8) %109, ptr noundef nonnull @.str.7, i64 noundef 57)
          to label %283 unwind label %322

283:                                              ; preds = %281
  %284 = load ptr, ptr %109, align 8, !tbaa !61
  %285 = getelementptr i8, ptr %284, i64 -24
  %286 = load i64, ptr %285, align 8
  %287 = getelementptr inbounds i8, ptr %109, i64 %286
  %288 = getelementptr inbounds %"class.std::basic_ios", ptr %287, i64 0, i32 5
  %289 = load ptr, ptr %288, align 8, !tbaa !63
  %290 = icmp eq ptr %289, null
  br i1 %290, label %291, label %293

291:                                              ; preds = %283, %255, %227, %199, %171, %139, %111
  invoke void @_ZSt16__throw_bad_castv() #19
          to label %292 unwind label %322

292:                                              ; preds = %291
  unreachable

293:                                              ; preds = %283
  %294 = getelementptr inbounds %"class.std::ctype", ptr %289, i64 0, i32 8
  %295 = load i8, ptr %294, align 8, !tbaa !70
  %296 = icmp eq i8 %295, 0
  br i1 %296, label %300, label %297

297:                                              ; preds = %293
  %298 = getelementptr inbounds %"class.std::ctype", ptr %289, i64 0, i32 9, i64 10
  %299 = load i8, ptr %298, align 1, !tbaa !13
  br label %306

300:                                              ; preds = %293
  invoke void @_ZNKSt5ctypeIcE13_M_widen_initEv(ptr noundef nonnull align 8 dereferenceable(570) %289)
          to label %301 unwind label %322

301:                                              ; preds = %300
  %302 = load ptr, ptr %289, align 8, !tbaa !61
  %303 = getelementptr inbounds ptr, ptr %302, i64 6
  %304 = load ptr, ptr %303, align 8
  %305 = invoke noundef signext i8 %304(ptr noundef nonnull align 8 dereferenceable(570) %289, i8 noundef signext 10)
          to label %306 unwind label %322

306:                                              ; preds = %301, %297
  %307 = phi i8 [ %299, %297 ], [ %305, %301 ]
  %308 = invoke noundef nonnull align 8 dereferenceable(8) ptr @_ZNSo3putEc(ptr noundef nonnull align 8 dereferenceable(8) %109, i8 noundef signext %307)
          to label %309 unwind label %322

309:                                              ; preds = %306
  %310 = invoke noundef nonnull align 8 dereferenceable(8) ptr @_ZNSo5flushEv(ptr noundef nonnull align 8 dereferenceable(8) %308)
          to label %311 unwind label %322

311:                                              ; preds = %309
  store i32 2, ptr %10, align 4, !tbaa !54
  br label %3008

312:                                              ; preds = %11
  %313 = landingpad { ptr, i32 }
          cleanup
  br label %3031

314:                                              ; preds = %60
  %315 = landingpad { ptr, i32 }
          cleanup
  br label %3029

316:                                              ; preds = %62
  %317 = landingpad { ptr, i32 }
          cleanup
  br label %3027

318:                                              ; preds = %64
  %319 = landingpad { ptr, i32 }
          cleanup
  br label %3025

320:                                              ; preds = %66
  %321 = landingpad { ptr, i32 }
          cleanup
  br label %3023

322:                                              ; preds = %291, %309, %306, %301, %300, %279, %276, %271, %270, %251, %248, %243, %242, %223, %220, %215, %214, %195, %192, %187, %186, %163, %160, %155, %154, %135, %132, %127, %126, %281, %253, %225, %197, %169, %165, %137, %108, %167, %107
  %323 = landingpad { ptr, i32 }
          cleanup
  br label %3017

324:                                              ; preds = %68
  call void @llvm.lifetime.start.p0(i64 32, ptr nonnull %31) #16
  invoke void @_ZN2PP3Cmd10get_stringB5cxx11Ei(ptr nonnull sret(%"class.std::__cxx11::basic_string") align 8 %31, ptr noundef nonnull align 8 dereferenceable(432) %2, i32 noundef 2)
          to label %325 unwind label %511

325:                                              ; preds = %324
  %326 = call noundef i32 @_ZNKSt7__cxx1112basic_stringIcSt11char_traitsIcESaIcEE7compareEPKc(ptr noundef nonnull align 8 dereferenceable(32) %31, ptr noundef nonnull @.str.8) #16
  %327 = icmp eq i32 %326, 0
  br i1 %327, label %328, label %331

328:                                              ; preds = %325
  %329 = add nsw i32 %105, -1
  %330 = getelementptr inbounds %"class.std::__cxx11::basic_string", ptr %32, i64 0, i32 2
  br label %517

331:                                              ; preds = %325
  invoke void @_ZN2PP3Cmd11fatal_errorEiRNSt7__cxx1118basic_stringstreamIcSt11char_traitsIcESaIcEEERi(ptr noundef nonnull align 8 dereferenceable(432) %2, i32 noundef 2, ptr noundef nonnull align 8 dereferenceable(128) %9, ptr noundef nonnull align 4 dereferenceable(4) %10)
          to label %332 unwind label %513

332:                                              ; preds = %331
  %333 = getelementptr inbounds i8, ptr %9, i64 16
  %334 = invoke noundef nonnull align 8 dereferenceable(8) ptr @_ZSt16__ostream_insertIcSt11char_traitsIcEERSt13basic_ostreamIT_T0_ES6_PKS3_l(ptr noundef nonnull align 8 dereferenceable(8) %333, ptr noundef nonnull @.str.9, i64 noundef 63)
          to label %335 unwind label %513

335:                                              ; preds = %332
  %336 = load ptr, ptr %333, align 8, !tbaa !61
  %337 = getelementptr i8, ptr %336, i64 -24
  %338 = load i64, ptr %337, align 8
  %339 = getelementptr inbounds i8, ptr %333, i64 %338
  %340 = getelementptr inbounds %"class.std::basic_ios", ptr %339, i64 0, i32 5
  %341 = load ptr, ptr %340, align 8, !tbaa !63
  %342 = icmp eq ptr %341, null
  br i1 %342, label %490, label %343

343:                                              ; preds = %335
  %344 = getelementptr inbounds %"class.std::ctype", ptr %341, i64 0, i32 8
  %345 = load i8, ptr %344, align 8, !tbaa !70
  %346 = icmp eq i8 %345, 0
  br i1 %346, label %350, label %347

347:                                              ; preds = %343
  %348 = getelementptr inbounds %"class.std::ctype", ptr %341, i64 0, i32 9, i64 10
  %349 = load i8, ptr %348, align 1, !tbaa !13
  br label %356

350:                                              ; preds = %343
  invoke void @_ZNKSt5ctypeIcE13_M_widen_initEv(ptr noundef nonnull align 8 dereferenceable(570) %341)
          to label %351 unwind label %513

351:                                              ; preds = %350
  %352 = load ptr, ptr %341, align 8, !tbaa !61
  %353 = getelementptr inbounds ptr, ptr %352, i64 6
  %354 = load ptr, ptr %353, align 8
  %355 = invoke noundef signext i8 %354(ptr noundef nonnull align 8 dereferenceable(570) %341, i8 noundef signext 10)
          to label %356 unwind label %513

356:                                              ; preds = %351, %347
  %357 = phi i8 [ %349, %347 ], [ %355, %351 ]
  %358 = invoke noundef nonnull align 8 dereferenceable(8) ptr @_ZNSo3putEc(ptr noundef nonnull align 8 dereferenceable(8) %333, i8 noundef signext %357)
          to label %359 unwind label %513

359:                                              ; preds = %356
  %360 = invoke noundef nonnull align 8 dereferenceable(8) ptr @_ZNSo5flushEv(ptr noundef nonnull align 8 dereferenceable(8) %358)
          to label %361 unwind label %513

361:                                              ; preds = %359
  %362 = invoke noundef nonnull align 8 dereferenceable(8) ptr @_ZSt16__ostream_insertIcSt11char_traitsIcEERSt13basic_ostreamIT_T0_ES6_PKS3_l(ptr noundef nonnull align 8 dereferenceable(8) %333, ptr noundef nonnull @.str.10, i64 noundef 14)
          to label %363 unwind label %513

363:                                              ; preds = %361
  %364 = load ptr, ptr %31, align 8, !tbaa !73
  %365 = getelementptr inbounds %"class.std::__cxx11::basic_string", ptr %31, i64 0, i32 1
  %366 = load i64, ptr %365, align 8, !tbaa !10
  %367 = invoke noundef nonnull align 8 dereferenceable(8) ptr @_ZSt16__ostream_insertIcSt11char_traitsIcEERSt13basic_ostreamIT_T0_ES6_PKS3_l(ptr noundef nonnull align 8 dereferenceable(8) %333, ptr noundef %364, i64 noundef %366)
          to label %368 unwind label %513

368:                                              ; preds = %363
  %369 = invoke noundef nonnull align 8 dereferenceable(8) ptr @_ZSt16__ostream_insertIcSt11char_traitsIcEERSt13basic_ostreamIT_T0_ES6_PKS3_l(ptr noundef nonnull align 8 dereferenceable(8) %367, ptr noundef nonnull @.str.11, i64 noundef 34)
          to label %370 unwind label %513

370:                                              ; preds = %368
  %371 = load ptr, ptr %367, align 8, !tbaa !61
  %372 = getelementptr i8, ptr %371, i64 -24
  %373 = load i64, ptr %372, align 8
  %374 = getelementptr inbounds i8, ptr %367, i64 %373
  %375 = getelementptr inbounds %"class.std::basic_ios", ptr %374, i64 0, i32 5
  %376 = load ptr, ptr %375, align 8, !tbaa !63
  %377 = icmp eq ptr %376, null
  br i1 %377, label %490, label %378

378:                                              ; preds = %370
  %379 = getelementptr inbounds %"class.std::ctype", ptr %376, i64 0, i32 8
  %380 = load i8, ptr %379, align 8, !tbaa !70
  %381 = icmp eq i8 %380, 0
  br i1 %381, label %385, label %382

382:                                              ; preds = %378
  %383 = getelementptr inbounds %"class.std::ctype", ptr %376, i64 0, i32 9, i64 10
  %384 = load i8, ptr %383, align 1, !tbaa !13
  br label %391

385:                                              ; preds = %378
  invoke void @_ZNKSt5ctypeIcE13_M_widen_initEv(ptr noundef nonnull align 8 dereferenceable(570) %376)
          to label %386 unwind label %513

386:                                              ; preds = %385
  %387 = load ptr, ptr %376, align 8, !tbaa !61
  %388 = getelementptr inbounds ptr, ptr %387, i64 6
  %389 = load ptr, ptr %388, align 8
  %390 = invoke noundef signext i8 %389(ptr noundef nonnull align 8 dereferenceable(570) %376, i8 noundef signext 10)
          to label %391 unwind label %513

391:                                              ; preds = %386, %382
  %392 = phi i8 [ %384, %382 ], [ %390, %386 ]
  %393 = invoke noundef nonnull align 8 dereferenceable(8) ptr @_ZNSo3putEc(ptr noundef nonnull align 8 dereferenceable(8) %367, i8 noundef signext %392)
          to label %394 unwind label %513

394:                                              ; preds = %391
  %395 = invoke noundef nonnull align 8 dereferenceable(8) ptr @_ZNSo5flushEv(ptr noundef nonnull align 8 dereferenceable(8) %393)
          to label %396 unwind label %513

396:                                              ; preds = %394
  %397 = invoke noundef nonnull align 8 dereferenceable(8) ptr @_ZSt16__ostream_insertIcSt11char_traitsIcEERSt13basic_ostreamIT_T0_ES6_PKS3_l(ptr noundef nonnull align 8 dereferenceable(8) %333, ptr noundef nonnull @.str.12, i64 noundef 51)
          to label %398 unwind label %513

398:                                              ; preds = %396
  %399 = load ptr, ptr %333, align 8, !tbaa !61
  %400 = getelementptr i8, ptr %399, i64 -24
  %401 = load i64, ptr %400, align 8
  %402 = getelementptr inbounds i8, ptr %333, i64 %401
  %403 = getelementptr inbounds %"class.std::basic_ios", ptr %402, i64 0, i32 5
  %404 = load ptr, ptr %403, align 8, !tbaa !63
  %405 = icmp eq ptr %404, null
  br i1 %405, label %490, label %406

406:                                              ; preds = %398
  %407 = getelementptr inbounds %"class.std::ctype", ptr %404, i64 0, i32 8
  %408 = load i8, ptr %407, align 8, !tbaa !70
  %409 = icmp eq i8 %408, 0
  br i1 %409, label %413, label %410

410:                                              ; preds = %406
  %411 = getelementptr inbounds %"class.std::ctype", ptr %404, i64 0, i32 9, i64 10
  %412 = load i8, ptr %411, align 1, !tbaa !13
  br label %419

413:                                              ; preds = %406
  invoke void @_ZNKSt5ctypeIcE13_M_widen_initEv(ptr noundef nonnull align 8 dereferenceable(570) %404)
          to label %414 unwind label %513

414:                                              ; preds = %413
  %415 = load ptr, ptr %404, align 8, !tbaa !61
  %416 = getelementptr inbounds ptr, ptr %415, i64 6
  %417 = load ptr, ptr %416, align 8
  %418 = invoke noundef signext i8 %417(ptr noundef nonnull align 8 dereferenceable(570) %404, i8 noundef signext 10)
          to label %419 unwind label %513

419:                                              ; preds = %414, %410
  %420 = phi i8 [ %412, %410 ], [ %418, %414 ]
  %421 = invoke noundef nonnull align 8 dereferenceable(8) ptr @_ZNSo3putEc(ptr noundef nonnull align 8 dereferenceable(8) %333, i8 noundef signext %420)
          to label %422 unwind label %513

422:                                              ; preds = %419
  %423 = invoke noundef nonnull align 8 dereferenceable(8) ptr @_ZNSo5flushEv(ptr noundef nonnull align 8 dereferenceable(8) %421)
          to label %424 unwind label %513

424:                                              ; preds = %422
  %425 = invoke noundef nonnull align 8 dereferenceable(8) ptr @_ZSt16__ostream_insertIcSt11char_traitsIcEERSt13basic_ostreamIT_T0_ES6_PKS3_l(ptr noundef nonnull align 8 dereferenceable(8) %333, ptr noundef nonnull @.str.13, i64 noundef 46)
          to label %426 unwind label %513

426:                                              ; preds = %424
  %427 = load ptr, ptr %333, align 8, !tbaa !61
  %428 = getelementptr i8, ptr %427, i64 -24
  %429 = load i64, ptr %428, align 8
  %430 = getelementptr inbounds i8, ptr %333, i64 %429
  %431 = getelementptr inbounds %"class.std::basic_ios", ptr %430, i64 0, i32 5
  %432 = load ptr, ptr %431, align 8, !tbaa !63
  %433 = icmp eq ptr %432, null
  br i1 %433, label %490, label %434

434:                                              ; preds = %426
  %435 = getelementptr inbounds %"class.std::ctype", ptr %432, i64 0, i32 8
  %436 = load i8, ptr %435, align 8, !tbaa !70
  %437 = icmp eq i8 %436, 0
  br i1 %437, label %441, label %438

438:                                              ; preds = %434
  %439 = getelementptr inbounds %"class.std::ctype", ptr %432, i64 0, i32 9, i64 10
  %440 = load i8, ptr %439, align 1, !tbaa !13
  br label %447

441:                                              ; preds = %434
  invoke void @_ZNKSt5ctypeIcE13_M_widen_initEv(ptr noundef nonnull align 8 dereferenceable(570) %432)
          to label %442 unwind label %513

442:                                              ; preds = %441
  %443 = load ptr, ptr %432, align 8, !tbaa !61
  %444 = getelementptr inbounds ptr, ptr %443, i64 6
  %445 = load ptr, ptr %444, align 8
  %446 = invoke noundef signext i8 %445(ptr noundef nonnull align 8 dereferenceable(570) %432, i8 noundef signext 10)
          to label %447 unwind label %513

447:                                              ; preds = %442, %438
  %448 = phi i8 [ %440, %438 ], [ %446, %442 ]
  %449 = invoke noundef nonnull align 8 dereferenceable(8) ptr @_ZNSo3putEc(ptr noundef nonnull align 8 dereferenceable(8) %333, i8 noundef signext %448)
          to label %450 unwind label %513

450:                                              ; preds = %447
  %451 = invoke noundef nonnull align 8 dereferenceable(8) ptr @_ZNSo5flushEv(ptr noundef nonnull align 8 dereferenceable(8) %449)
          to label %452 unwind label %513

452:                                              ; preds = %450
  %453 = invoke noundef nonnull align 8 dereferenceable(8) ptr @_ZSt16__ostream_insertIcSt11char_traitsIcEERSt13basic_ostreamIT_T0_ES6_PKS3_l(ptr noundef nonnull align 8 dereferenceable(8) %333, ptr noundef nonnull @.str.14, i64 noundef 44)
          to label %454 unwind label %513

454:                                              ; preds = %452
  %455 = load ptr, ptr %333, align 8, !tbaa !61
  %456 = getelementptr i8, ptr %455, i64 -24
  %457 = load i64, ptr %456, align 8
  %458 = getelementptr inbounds i8, ptr %333, i64 %457
  %459 = getelementptr inbounds %"class.std::basic_ios", ptr %458, i64 0, i32 5
  %460 = load ptr, ptr %459, align 8, !tbaa !63
  %461 = icmp eq ptr %460, null
  br i1 %461, label %490, label %462

462:                                              ; preds = %454
  %463 = getelementptr inbounds %"class.std::ctype", ptr %460, i64 0, i32 8
  %464 = load i8, ptr %463, align 8, !tbaa !70
  %465 = icmp eq i8 %464, 0
  br i1 %465, label %469, label %466

466:                                              ; preds = %462
  %467 = getelementptr inbounds %"class.std::ctype", ptr %460, i64 0, i32 9, i64 10
  %468 = load i8, ptr %467, align 1, !tbaa !13
  br label %475

469:                                              ; preds = %462
  invoke void @_ZNKSt5ctypeIcE13_M_widen_initEv(ptr noundef nonnull align 8 dereferenceable(570) %460)
          to label %470 unwind label %513

470:                                              ; preds = %469
  %471 = load ptr, ptr %460, align 8, !tbaa !61
  %472 = getelementptr inbounds ptr, ptr %471, i64 6
  %473 = load ptr, ptr %472, align 8
  %474 = invoke noundef signext i8 %473(ptr noundef nonnull align 8 dereferenceable(570) %460, i8 noundef signext 10)
          to label %475 unwind label %513

475:                                              ; preds = %470, %466
  %476 = phi i8 [ %468, %466 ], [ %474, %470 ]
  %477 = invoke noundef nonnull align 8 dereferenceable(8) ptr @_ZNSo3putEc(ptr noundef nonnull align 8 dereferenceable(8) %333, i8 noundef signext %476)
          to label %478 unwind label %513

478:                                              ; preds = %475
  %479 = invoke noundef nonnull align 8 dereferenceable(8) ptr @_ZNSo5flushEv(ptr noundef nonnull align 8 dereferenceable(8) %477)
          to label %480 unwind label %513

480:                                              ; preds = %478
  %481 = invoke noundef nonnull align 8 dereferenceable(8) ptr @_ZSt16__ostream_insertIcSt11char_traitsIcEERSt13basic_ostreamIT_T0_ES6_PKS3_l(ptr noundef nonnull align 8 dereferenceable(8) %333, ptr noundef nonnull @.str.15, i64 noundef 60)
          to label %482 unwind label %513

482:                                              ; preds = %480
  %483 = load ptr, ptr %333, align 8, !tbaa !61
  %484 = getelementptr i8, ptr %483, i64 -24
  %485 = load i64, ptr %484, align 8
  %486 = getelementptr inbounds i8, ptr %333, i64 %485
  %487 = getelementptr inbounds %"class.std::basic_ios", ptr %486, i64 0, i32 5
  %488 = load ptr, ptr %487, align 8, !tbaa !63
  %489 = icmp eq ptr %488, null
  br i1 %489, label %490, label %492

490:                                              ; preds = %482, %454, %426, %398, %370, %335
  invoke void @_ZSt16__throw_bad_castv() #19
          to label %491 unwind label %513

491:                                              ; preds = %490
  unreachable

492:                                              ; preds = %482
  %493 = getelementptr inbounds %"class.std::ctype", ptr %488, i64 0, i32 8
  %494 = load i8, ptr %493, align 8, !tbaa !70
  %495 = icmp eq i8 %494, 0
  br i1 %495, label %499, label %496

496:                                              ; preds = %492
  %497 = getelementptr inbounds %"class.std::ctype", ptr %488, i64 0, i32 9, i64 10
  %498 = load i8, ptr %497, align 1, !tbaa !13
  br label %505

499:                                              ; preds = %492
  invoke void @_ZNKSt5ctypeIcE13_M_widen_initEv(ptr noundef nonnull align 8 dereferenceable(570) %488)
          to label %500 unwind label %513

500:                                              ; preds = %499
  %501 = load ptr, ptr %488, align 8, !tbaa !61
  %502 = getelementptr inbounds ptr, ptr %501, i64 6
  %503 = load ptr, ptr %502, align 8
  %504 = invoke noundef signext i8 %503(ptr noundef nonnull align 8 dereferenceable(570) %488, i8 noundef signext 10)
          to label %505 unwind label %513

505:                                              ; preds = %500, %496
  %506 = phi i8 [ %498, %496 ], [ %504, %500 ]
  %507 = invoke noundef nonnull align 8 dereferenceable(8) ptr @_ZNSo3putEc(ptr noundef nonnull align 8 dereferenceable(8) %333, i8 noundef signext %506)
          to label %508 unwind label %513

508:                                              ; preds = %505
  %509 = invoke noundef nonnull align 8 dereferenceable(8) ptr @_ZNSo5flushEv(ptr noundef nonnull align 8 dereferenceable(8) %507)
          to label %510 unwind label %513

510:                                              ; preds = %508
  store i32 2, ptr %10, align 4, !tbaa !54
  br label %3002

511:                                              ; preds = %324
  %512 = landingpad { ptr, i32 }
          cleanup
  br label %3015

513:                                              ; preds = %490, %508, %505, %500, %499, %478, %475, %470, %469, %450, %447, %442, %441, %422, %419, %414, %413, %394, %391, %386, %385, %359, %356, %351, %350, %480, %452, %424, %396, %368, %363, %361, %332, %331
  %514 = landingpad { ptr, i32 }
          cleanup
  br label %3009

515:                                              ; preds = %709
  %516 = getelementptr inbounds %"class.std::__cxx11::basic_string", ptr %33, i64 0, i32 2
  br label %715

517:                                              ; preds = %328, %709
  %518 = phi i32 [ 1, %328 ], [ %710, %709 ]
  call void @llvm.lifetime.start.p0(i64 32, ptr nonnull %32) #16
  invoke void @_ZN2PP3Cmd10get_stringB5cxx11Ei(ptr nonnull sret(%"class.std::__cxx11::basic_string") align 8 %32, ptr noundef nonnull align 8 dereferenceable(432) %2, i32 noundef %518)
          to label %519 unwind label %698

519:                                              ; preds = %517
  %520 = call noundef i32 @_ZNKSt7__cxx1112basic_stringIcSt11char_traitsIcESaIcEE7compareEPKc(ptr noundef nonnull align 8 dereferenceable(32) %32, ptr noundef nonnull @.str.16) #16
  %521 = icmp eq i32 %520, 0
  br i1 %521, label %522, label %705

522:                                              ; preds = %519
  invoke void @_ZN2PP3Cmd11fatal_errorEiRNSt7__cxx1118basic_stringstreamIcSt11char_traitsIcESaIcEEERi(ptr noundef nonnull align 8 dereferenceable(432) %2, i32 noundef %518, ptr noundef nonnull align 8 dereferenceable(128) %9, ptr noundef nonnull align 4 dereferenceable(4) %10)
          to label %523 unwind label %700

523:                                              ; preds = %522
  %524 = getelementptr inbounds i8, ptr %9, i64 16
  %525 = invoke noundef nonnull align 8 dereferenceable(8) ptr @_ZSt16__ostream_insertIcSt11char_traitsIcEERSt13basic_ostreamIT_T0_ES6_PKS3_l(ptr noundef nonnull align 8 dereferenceable(8) %524, ptr noundef nonnull @.str.17, i64 noundef 59)
          to label %526 unwind label %700

526:                                              ; preds = %523
  %527 = load ptr, ptr %524, align 8, !tbaa !61
  %528 = getelementptr i8, ptr %527, i64 -24
  %529 = load i64, ptr %528, align 8
  %530 = getelementptr inbounds i8, ptr %524, i64 %529
  %531 = getelementptr inbounds %"class.std::basic_ios", ptr %530, i64 0, i32 5
  %532 = load ptr, ptr %531, align 8, !tbaa !63
  %533 = icmp eq ptr %532, null
  br i1 %533, label %674, label %534

534:                                              ; preds = %526
  %535 = getelementptr inbounds %"class.std::ctype", ptr %532, i64 0, i32 8
  %536 = load i8, ptr %535, align 8, !tbaa !70
  %537 = icmp eq i8 %536, 0
  br i1 %537, label %541, label %538

538:                                              ; preds = %534
  %539 = getelementptr inbounds %"class.std::ctype", ptr %532, i64 0, i32 9, i64 10
  %540 = load i8, ptr %539, align 1, !tbaa !13
  br label %547

541:                                              ; preds = %534
  invoke void @_ZNKSt5ctypeIcE13_M_widen_initEv(ptr noundef nonnull align 8 dereferenceable(570) %532)
          to label %542 unwind label %700

542:                                              ; preds = %541
  %543 = load ptr, ptr %532, align 8, !tbaa !61
  %544 = getelementptr inbounds ptr, ptr %543, i64 6
  %545 = load ptr, ptr %544, align 8
  %546 = invoke noundef signext i8 %545(ptr noundef nonnull align 8 dereferenceable(570) %532, i8 noundef signext 10)
          to label %547 unwind label %700

547:                                              ; preds = %542, %538
  %548 = phi i8 [ %540, %538 ], [ %546, %542 ]
  %549 = invoke noundef nonnull align 8 dereferenceable(8) ptr @_ZNSo3putEc(ptr noundef nonnull align 8 dereferenceable(8) %524, i8 noundef signext %548)
          to label %550 unwind label %700

550:                                              ; preds = %547
  %551 = invoke noundef nonnull align 8 dereferenceable(8) ptr @_ZNSo5flushEv(ptr noundef nonnull align 8 dereferenceable(8) %549)
          to label %552 unwind label %700

552:                                              ; preds = %550
  %553 = invoke noundef nonnull align 8 dereferenceable(8) ptr @_ZSt16__ostream_insertIcSt11char_traitsIcEERSt13basic_ostreamIT_T0_ES6_PKS3_l(ptr noundef nonnull align 8 dereferenceable(8) %524, ptr noundef nonnull @.str.18, i64 noundef 66)
          to label %554 unwind label %700

554:                                              ; preds = %552
  %555 = load ptr, ptr %524, align 8, !tbaa !61
  %556 = getelementptr i8, ptr %555, i64 -24
  %557 = load i64, ptr %556, align 8
  %558 = getelementptr inbounds i8, ptr %524, i64 %557
  %559 = getelementptr inbounds %"class.std::basic_ios", ptr %558, i64 0, i32 5
  %560 = load ptr, ptr %559, align 8, !tbaa !63
  %561 = icmp eq ptr %560, null
  br i1 %561, label %674, label %562

562:                                              ; preds = %554
  %563 = getelementptr inbounds %"class.std::ctype", ptr %560, i64 0, i32 8
  %564 = load i8, ptr %563, align 8, !tbaa !70
  %565 = icmp eq i8 %564, 0
  br i1 %565, label %569, label %566

566:                                              ; preds = %562
  %567 = getelementptr inbounds %"class.std::ctype", ptr %560, i64 0, i32 9, i64 10
  %568 = load i8, ptr %567, align 1, !tbaa !13
  br label %575

569:                                              ; preds = %562
  invoke void @_ZNKSt5ctypeIcE13_M_widen_initEv(ptr noundef nonnull align 8 dereferenceable(570) %560)
          to label %570 unwind label %700

570:                                              ; preds = %569
  %571 = load ptr, ptr %560, align 8, !tbaa !61
  %572 = getelementptr inbounds ptr, ptr %571, i64 6
  %573 = load ptr, ptr %572, align 8
  %574 = invoke noundef signext i8 %573(ptr noundef nonnull align 8 dereferenceable(570) %560, i8 noundef signext 10)
          to label %575 unwind label %700

575:                                              ; preds = %570, %566
  %576 = phi i8 [ %568, %566 ], [ %574, %570 ]
  %577 = invoke noundef nonnull align 8 dereferenceable(8) ptr @_ZNSo3putEc(ptr noundef nonnull align 8 dereferenceable(8) %524, i8 noundef signext %576)
          to label %578 unwind label %700

578:                                              ; preds = %575
  %579 = invoke noundef nonnull align 8 dereferenceable(8) ptr @_ZNSo5flushEv(ptr noundef nonnull align 8 dereferenceable(8) %577)
          to label %580 unwind label %700

580:                                              ; preds = %578
  %581 = invoke noundef nonnull align 8 dereferenceable(8) ptr @_ZSt16__ostream_insertIcSt11char_traitsIcEERSt13basic_ostreamIT_T0_ES6_PKS3_l(ptr noundef nonnull align 8 dereferenceable(8) %524, ptr noundef nonnull @.str.19, i64 noundef 51)
          to label %582 unwind label %700

582:                                              ; preds = %580
  %583 = load ptr, ptr %524, align 8, !tbaa !61
  %584 = getelementptr i8, ptr %583, i64 -24
  %585 = load i64, ptr %584, align 8
  %586 = getelementptr inbounds i8, ptr %524, i64 %585
  %587 = getelementptr inbounds %"class.std::basic_ios", ptr %586, i64 0, i32 5
  %588 = load ptr, ptr %587, align 8, !tbaa !63
  %589 = icmp eq ptr %588, null
  br i1 %589, label %674, label %590

590:                                              ; preds = %582
  %591 = getelementptr inbounds %"class.std::ctype", ptr %588, i64 0, i32 8
  %592 = load i8, ptr %591, align 8, !tbaa !70
  %593 = icmp eq i8 %592, 0
  br i1 %593, label %597, label %594

594:                                              ; preds = %590
  %595 = getelementptr inbounds %"class.std::ctype", ptr %588, i64 0, i32 9, i64 10
  %596 = load i8, ptr %595, align 1, !tbaa !13
  br label %603

597:                                              ; preds = %590
  invoke void @_ZNKSt5ctypeIcE13_M_widen_initEv(ptr noundef nonnull align 8 dereferenceable(570) %588)
          to label %598 unwind label %700

598:                                              ; preds = %597
  %599 = load ptr, ptr %588, align 8, !tbaa !61
  %600 = getelementptr inbounds ptr, ptr %599, i64 6
  %601 = load ptr, ptr %600, align 8
  %602 = invoke noundef signext i8 %601(ptr noundef nonnull align 8 dereferenceable(570) %588, i8 noundef signext 10)
          to label %603 unwind label %700

603:                                              ; preds = %598, %594
  %604 = phi i8 [ %596, %594 ], [ %602, %598 ]
  %605 = invoke noundef nonnull align 8 dereferenceable(8) ptr @_ZNSo3putEc(ptr noundef nonnull align 8 dereferenceable(8) %524, i8 noundef signext %604)
          to label %606 unwind label %700

606:                                              ; preds = %603
  %607 = invoke noundef nonnull align 8 dereferenceable(8) ptr @_ZNSo5flushEv(ptr noundef nonnull align 8 dereferenceable(8) %605)
          to label %608 unwind label %700

608:                                              ; preds = %606
  %609 = invoke noundef nonnull align 8 dereferenceable(8) ptr @_ZSt16__ostream_insertIcSt11char_traitsIcEERSt13basic_ostreamIT_T0_ES6_PKS3_l(ptr noundef nonnull align 8 dereferenceable(8) %524, ptr noundef nonnull @.str.13, i64 noundef 46)
          to label %610 unwind label %700

610:                                              ; preds = %608
  %611 = load ptr, ptr %524, align 8, !tbaa !61
  %612 = getelementptr i8, ptr %611, i64 -24
  %613 = load i64, ptr %612, align 8
  %614 = getelementptr inbounds i8, ptr %524, i64 %613
  %615 = getelementptr inbounds %"class.std::basic_ios", ptr %614, i64 0, i32 5
  %616 = load ptr, ptr %615, align 8, !tbaa !63
  %617 = icmp eq ptr %616, null
  br i1 %617, label %674, label %618

618:                                              ; preds = %610
  %619 = getelementptr inbounds %"class.std::ctype", ptr %616, i64 0, i32 8
  %620 = load i8, ptr %619, align 8, !tbaa !70
  %621 = icmp eq i8 %620, 0
  br i1 %621, label %625, label %622

622:                                              ; preds = %618
  %623 = getelementptr inbounds %"class.std::ctype", ptr %616, i64 0, i32 9, i64 10
  %624 = load i8, ptr %623, align 1, !tbaa !13
  br label %631

625:                                              ; preds = %618
  invoke void @_ZNKSt5ctypeIcE13_M_widen_initEv(ptr noundef nonnull align 8 dereferenceable(570) %616)
          to label %626 unwind label %700

626:                                              ; preds = %625
  %627 = load ptr, ptr %616, align 8, !tbaa !61
  %628 = getelementptr inbounds ptr, ptr %627, i64 6
  %629 = load ptr, ptr %628, align 8
  %630 = invoke noundef signext i8 %629(ptr noundef nonnull align 8 dereferenceable(570) %616, i8 noundef signext 10)
          to label %631 unwind label %700

631:                                              ; preds = %626, %622
  %632 = phi i8 [ %624, %622 ], [ %630, %626 ]
  %633 = invoke noundef nonnull align 8 dereferenceable(8) ptr @_ZNSo3putEc(ptr noundef nonnull align 8 dereferenceable(8) %524, i8 noundef signext %632)
          to label %634 unwind label %700

634:                                              ; preds = %631
  %635 = invoke noundef nonnull align 8 dereferenceable(8) ptr @_ZNSo5flushEv(ptr noundef nonnull align 8 dereferenceable(8) %633)
          to label %636 unwind label %700

636:                                              ; preds = %634
  %637 = invoke noundef nonnull align 8 dereferenceable(8) ptr @_ZSt16__ostream_insertIcSt11char_traitsIcEERSt13basic_ostreamIT_T0_ES6_PKS3_l(ptr noundef nonnull align 8 dereferenceable(8) %524, ptr noundef nonnull @.str.14, i64 noundef 44)
          to label %638 unwind label %700

638:                                              ; preds = %636
  %639 = load ptr, ptr %524, align 8, !tbaa !61
  %640 = getelementptr i8, ptr %639, i64 -24
  %641 = load i64, ptr %640, align 8
  %642 = getelementptr inbounds i8, ptr %524, i64 %641
  %643 = getelementptr inbounds %"class.std::basic_ios", ptr %642, i64 0, i32 5
  %644 = load ptr, ptr %643, align 8, !tbaa !63
  %645 = icmp eq ptr %644, null
  br i1 %645, label %674, label %646

646:                                              ; preds = %638
  %647 = getelementptr inbounds %"class.std::ctype", ptr %644, i64 0, i32 8
  %648 = load i8, ptr %647, align 8, !tbaa !70
  %649 = icmp eq i8 %648, 0
  br i1 %649, label %653, label %650

650:                                              ; preds = %646
  %651 = getelementptr inbounds %"class.std::ctype", ptr %644, i64 0, i32 9, i64 10
  %652 = load i8, ptr %651, align 1, !tbaa !13
  br label %659

653:                                              ; preds = %646
  invoke void @_ZNKSt5ctypeIcE13_M_widen_initEv(ptr noundef nonnull align 8 dereferenceable(570) %644)
          to label %654 unwind label %700

654:                                              ; preds = %653
  %655 = load ptr, ptr %644, align 8, !tbaa !61
  %656 = getelementptr inbounds ptr, ptr %655, i64 6
  %657 = load ptr, ptr %656, align 8
  %658 = invoke noundef signext i8 %657(ptr noundef nonnull align 8 dereferenceable(570) %644, i8 noundef signext 10)
          to label %659 unwind label %700

659:                                              ; preds = %654, %650
  %660 = phi i8 [ %652, %650 ], [ %658, %654 ]
  %661 = invoke noundef nonnull align 8 dereferenceable(8) ptr @_ZNSo3putEc(ptr noundef nonnull align 8 dereferenceable(8) %524, i8 noundef signext %660)
          to label %662 unwind label %700

662:                                              ; preds = %659
  %663 = invoke noundef nonnull align 8 dereferenceable(8) ptr @_ZNSo5flushEv(ptr noundef nonnull align 8 dereferenceable(8) %661)
          to label %664 unwind label %700

664:                                              ; preds = %662
  %665 = invoke noundef nonnull align 8 dereferenceable(8) ptr @_ZSt16__ostream_insertIcSt11char_traitsIcEERSt13basic_ostreamIT_T0_ES6_PKS3_l(ptr noundef nonnull align 8 dereferenceable(8) %524, ptr noundef nonnull @.str.15, i64 noundef 60)
          to label %666 unwind label %700

666:                                              ; preds = %664
  %667 = load ptr, ptr %524, align 8, !tbaa !61
  %668 = getelementptr i8, ptr %667, i64 -24
  %669 = load i64, ptr %668, align 8
  %670 = getelementptr inbounds i8, ptr %524, i64 %669
  %671 = getelementptr inbounds %"class.std::basic_ios", ptr %670, i64 0, i32 5
  %672 = load ptr, ptr %671, align 8, !tbaa !63
  %673 = icmp eq ptr %672, null
  br i1 %673, label %674, label %676

674:                                              ; preds = %666, %638, %610, %582, %554, %526
  invoke void @_ZSt16__throw_bad_castv() #19
          to label %675 unwind label %700

675:                                              ; preds = %674
  unreachable

676:                                              ; preds = %666
  %677 = getelementptr inbounds %"class.std::ctype", ptr %672, i64 0, i32 8
  %678 = load i8, ptr %677, align 8, !tbaa !70
  %679 = icmp eq i8 %678, 0
  br i1 %679, label %683, label %680

680:                                              ; preds = %676
  %681 = getelementptr inbounds %"class.std::ctype", ptr %672, i64 0, i32 9, i64 10
  %682 = load i8, ptr %681, align 1, !tbaa !13
  br label %689

683:                                              ; preds = %676
  invoke void @_ZNKSt5ctypeIcE13_M_widen_initEv(ptr noundef nonnull align 8 dereferenceable(570) %672)
          to label %684 unwind label %700

684:                                              ; preds = %683
  %685 = load ptr, ptr %672, align 8, !tbaa !61
  %686 = getelementptr inbounds ptr, ptr %685, i64 6
  %687 = load ptr, ptr %686, align 8
  %688 = invoke noundef signext i8 %687(ptr noundef nonnull align 8 dereferenceable(570) %672, i8 noundef signext 10)
          to label %689 unwind label %700

689:                                              ; preds = %684, %680
  %690 = phi i8 [ %682, %680 ], [ %688, %684 ]
  %691 = invoke noundef nonnull align 8 dereferenceable(8) ptr @_ZNSo3putEc(ptr noundef nonnull align 8 dereferenceable(8) %524, i8 noundef signext %690)
          to label %692 unwind label %700

692:                                              ; preds = %689
  %693 = invoke noundef nonnull align 8 dereferenceable(8) ptr @_ZNSo5flushEv(ptr noundef nonnull align 8 dereferenceable(8) %691)
          to label %694 unwind label %700

694:                                              ; preds = %692
  store i32 2, ptr %10, align 4, !tbaa !54
  %695 = load ptr, ptr %32, align 8, !tbaa !73
  %696 = icmp eq ptr %695, %330
  br i1 %696, label %714, label %697

697:                                              ; preds = %694
  call void @_ZdlPv(ptr noundef %695) #17
  br label %714

698:                                              ; preds = %517
  %699 = landingpad { ptr, i32 }
          cleanup
  br label %712

700:                                              ; preds = %674, %692, %689, %684, %683, %662, %659, %654, %653, %634, %631, %626, %625, %606, %603, %598, %597, %578, %575, %570, %569, %550, %547, %542, %541, %664, %636, %608, %580, %552, %523, %522
  %701 = landingpad { ptr, i32 }
          cleanup
  %702 = load ptr, ptr %32, align 8, !tbaa !73
  %703 = icmp eq ptr %702, %330
  br i1 %703, label %712, label %704

704:                                              ; preds = %700
  call void @_ZdlPv(ptr noundef %702) #17
  br label %712

705:                                              ; preds = %519
  %706 = load ptr, ptr %32, align 8, !tbaa !73
  %707 = icmp eq ptr %706, %330
  br i1 %707, label %709, label %708

708:                                              ; preds = %705
  call void @_ZdlPv(ptr noundef %706) #17
  br label %709

709:                                              ; preds = %708, %705
  call void @llvm.lifetime.end.p0(i64 32, ptr nonnull %32) #16
  %710 = add nuw nsw i32 %518, 1
  %711 = icmp eq i32 %710, %329
  br i1 %711, label %515, label %517, !llvm.loop !74

712:                                              ; preds = %704, %700, %698
  %713 = phi { ptr, i32 } [ %699, %698 ], [ %701, %700 ], [ %701, %704 ]
  call void @llvm.lifetime.end.p0(i64 32, ptr nonnull %32) #16
  br label %3009

714:                                              ; preds = %697, %694
  call void @llvm.lifetime.end.p0(i64 32, ptr nonnull %32) #16
  br label %3002

715:                                              ; preds = %733, %515
  %716 = phi i32 [ 2, %515 ], [ %734, %733 ]
  %717 = phi i32 [ -1, %515 ], [ %729, %733 ]
  call void @llvm.lifetime.start.p0(i64 32, ptr nonnull %33) #16
  invoke void @_ZN2PP3Cmd10get_stringB5cxx11Ei(ptr nonnull sret(%"class.std::__cxx11::basic_string") align 8 %33, ptr noundef nonnull align 8 dereferenceable(432) %2, i32 noundef %716)
          to label %718 unwind label %721

718:                                              ; preds = %715
  %719 = call noundef i32 @_ZNKSt7__cxx1112basic_stringIcSt11char_traitsIcESaIcEE7compareEPKc(ptr noundef nonnull align 8 dereferenceable(32) %33, ptr noundef nonnull @.str.16) #16
  %720 = icmp eq i32 %719, 0
  br i1 %720, label %727, label %723

721:                                              ; preds = %715
  %722 = landingpad { ptr, i32 }
          cleanup
  call void @llvm.lifetime.end.p0(i64 32, ptr nonnull %33) #16
  br label %3009

723:                                              ; preds = %718
  %724 = call noundef i32 @_ZNKSt7__cxx1112basic_stringIcSt11char_traitsIcESaIcEE7compareEPKc(ptr noundef nonnull align 8 dereferenceable(32) %33, ptr noundef nonnull @.str.20) #16
  %725 = icmp ne i32 %724, 0
  %726 = select i1 %725, i32 %717, i32 %716
  br label %727

727:                                              ; preds = %723, %718
  %728 = phi i1 [ false, %718 ], [ %725, %723 ]
  %729 = phi i32 [ %717, %718 ], [ %726, %723 ]
  %730 = load ptr, ptr %33, align 8, !tbaa !73
  %731 = icmp eq ptr %730, %516
  br i1 %731, label %733, label %732

732:                                              ; preds = %727
  call void @_ZdlPv(ptr noundef %730) #17
  br label %733

733:                                              ; preds = %727, %732
  call void @llvm.lifetime.end.p0(i64 32, ptr nonnull %33) #16
  %734 = add nuw nsw i32 %716, 1
  %735 = icmp ne i32 %734, %105
  %736 = select i1 %728, i1 %735, i1 false
  br i1 %736, label %715, label %737, !llvm.loop !75

737:                                              ; preds = %733
  %738 = icmp eq i32 %729, -1
  br i1 %738, label %739, label %914

739:                                              ; preds = %737
  invoke void @_ZN2PP3Cmd11fatal_errorEiRNSt7__cxx1118basic_stringstreamIcSt11char_traitsIcESaIcEEERi(ptr noundef nonnull align 8 dereferenceable(432) %2, i32 noundef 0, ptr noundef nonnull align 8 dereferenceable(128) %9, ptr noundef nonnull align 4 dereferenceable(4) %10)
          to label %740 unwind label %912

740:                                              ; preds = %739
  %741 = getelementptr inbounds i8, ptr %9, i64 16
  %742 = invoke noundef nonnull align 8 dereferenceable(8) ptr @_ZSt16__ostream_insertIcSt11char_traitsIcEERSt13basic_ostreamIT_T0_ES6_PKS3_l(ptr noundef nonnull align 8 dereferenceable(8) %741, ptr noundef nonnull @.str.21, i64 noundef 53)
          to label %743 unwind label %912

743:                                              ; preds = %740
  %744 = load ptr, ptr %741, align 8, !tbaa !61
  %745 = getelementptr i8, ptr %744, i64 -24
  %746 = load i64, ptr %745, align 8
  %747 = getelementptr inbounds i8, ptr %741, i64 %746
  %748 = getelementptr inbounds %"class.std::basic_ios", ptr %747, i64 0, i32 5
  %749 = load ptr, ptr %748, align 8, !tbaa !63
  %750 = icmp eq ptr %749, null
  br i1 %750, label %891, label %751

751:                                              ; preds = %743
  %752 = getelementptr inbounds %"class.std::ctype", ptr %749, i64 0, i32 8
  %753 = load i8, ptr %752, align 8, !tbaa !70
  %754 = icmp eq i8 %753, 0
  br i1 %754, label %758, label %755

755:                                              ; preds = %751
  %756 = getelementptr inbounds %"class.std::ctype", ptr %749, i64 0, i32 9, i64 10
  %757 = load i8, ptr %756, align 1, !tbaa !13
  br label %764

758:                                              ; preds = %751
  invoke void @_ZNKSt5ctypeIcE13_M_widen_initEv(ptr noundef nonnull align 8 dereferenceable(570) %749)
          to label %759 unwind label %912

759:                                              ; preds = %758
  %760 = load ptr, ptr %749, align 8, !tbaa !61
  %761 = getelementptr inbounds ptr, ptr %760, i64 6
  %762 = load ptr, ptr %761, align 8
  %763 = invoke noundef signext i8 %762(ptr noundef nonnull align 8 dereferenceable(570) %749, i8 noundef signext 10)
          to label %764 unwind label %912

764:                                              ; preds = %759, %755
  %765 = phi i8 [ %757, %755 ], [ %763, %759 ]
  %766 = invoke noundef nonnull align 8 dereferenceable(8) ptr @_ZNSo3putEc(ptr noundef nonnull align 8 dereferenceable(8) %741, i8 noundef signext %765)
          to label %767 unwind label %912

767:                                              ; preds = %764
  %768 = invoke noundef nonnull align 8 dereferenceable(8) ptr @_ZNSo5flushEv(ptr noundef nonnull align 8 dereferenceable(8) %766)
          to label %769 unwind label %912

769:                                              ; preds = %767
  %770 = invoke noundef nonnull align 8 dereferenceable(8) ptr @_ZSt16__ostream_insertIcSt11char_traitsIcEERSt13basic_ostreamIT_T0_ES6_PKS3_l(ptr noundef nonnull align 8 dereferenceable(8) %741, ptr noundef nonnull @.str.22, i64 noundef 33)
          to label %771 unwind label %912

771:                                              ; preds = %769
  %772 = load ptr, ptr %741, align 8, !tbaa !61
  %773 = getelementptr i8, ptr %772, i64 -24
  %774 = load i64, ptr %773, align 8
  %775 = getelementptr inbounds i8, ptr %741, i64 %774
  %776 = getelementptr inbounds %"class.std::basic_ios", ptr %775, i64 0, i32 5
  %777 = load ptr, ptr %776, align 8, !tbaa !63
  %778 = icmp eq ptr %777, null
  br i1 %778, label %891, label %779

779:                                              ; preds = %771
  %780 = getelementptr inbounds %"class.std::ctype", ptr %777, i64 0, i32 8
  %781 = load i8, ptr %780, align 8, !tbaa !70
  %782 = icmp eq i8 %781, 0
  br i1 %782, label %786, label %783

783:                                              ; preds = %779
  %784 = getelementptr inbounds %"class.std::ctype", ptr %777, i64 0, i32 9, i64 10
  %785 = load i8, ptr %784, align 1, !tbaa !13
  br label %792

786:                                              ; preds = %779
  invoke void @_ZNKSt5ctypeIcE13_M_widen_initEv(ptr noundef nonnull align 8 dereferenceable(570) %777)
          to label %787 unwind label %912

787:                                              ; preds = %786
  %788 = load ptr, ptr %777, align 8, !tbaa !61
  %789 = getelementptr inbounds ptr, ptr %788, i64 6
  %790 = load ptr, ptr %789, align 8
  %791 = invoke noundef signext i8 %790(ptr noundef nonnull align 8 dereferenceable(570) %777, i8 noundef signext 10)
          to label %792 unwind label %912

792:                                              ; preds = %787, %783
  %793 = phi i8 [ %785, %783 ], [ %791, %787 ]
  %794 = invoke noundef nonnull align 8 dereferenceable(8) ptr @_ZNSo3putEc(ptr noundef nonnull align 8 dereferenceable(8) %741, i8 noundef signext %793)
          to label %795 unwind label %912

795:                                              ; preds = %792
  %796 = invoke noundef nonnull align 8 dereferenceable(8) ptr @_ZNSo5flushEv(ptr noundef nonnull align 8 dereferenceable(8) %794)
          to label %797 unwind label %912

797:                                              ; preds = %795
  %798 = invoke noundef nonnull align 8 dereferenceable(8) ptr @_ZSt16__ostream_insertIcSt11char_traitsIcEERSt13basic_ostreamIT_T0_ES6_PKS3_l(ptr noundef nonnull align 8 dereferenceable(8) %741, ptr noundef nonnull @.str.19, i64 noundef 51)
          to label %799 unwind label %912

799:                                              ; preds = %797
  %800 = load ptr, ptr %741, align 8, !tbaa !61
  %801 = getelementptr i8, ptr %800, i64 -24
  %802 = load i64, ptr %801, align 8
  %803 = getelementptr inbounds i8, ptr %741, i64 %802
  %804 = getelementptr inbounds %"class.std::basic_ios", ptr %803, i64 0, i32 5
  %805 = load ptr, ptr %804, align 8, !tbaa !63
  %806 = icmp eq ptr %805, null
  br i1 %806, label %891, label %807

807:                                              ; preds = %799
  %808 = getelementptr inbounds %"class.std::ctype", ptr %805, i64 0, i32 8
  %809 = load i8, ptr %808, align 8, !tbaa !70
  %810 = icmp eq i8 %809, 0
  br i1 %810, label %814, label %811

811:                                              ; preds = %807
  %812 = getelementptr inbounds %"class.std::ctype", ptr %805, i64 0, i32 9, i64 10
  %813 = load i8, ptr %812, align 1, !tbaa !13
  br label %820

814:                                              ; preds = %807
  invoke void @_ZNKSt5ctypeIcE13_M_widen_initEv(ptr noundef nonnull align 8 dereferenceable(570) %805)
          to label %815 unwind label %912

815:                                              ; preds = %814
  %816 = load ptr, ptr %805, align 8, !tbaa !61
  %817 = getelementptr inbounds ptr, ptr %816, i64 6
  %818 = load ptr, ptr %817, align 8
  %819 = invoke noundef signext i8 %818(ptr noundef nonnull align 8 dereferenceable(570) %805, i8 noundef signext 10)
          to label %820 unwind label %912

820:                                              ; preds = %815, %811
  %821 = phi i8 [ %813, %811 ], [ %819, %815 ]
  %822 = invoke noundef nonnull align 8 dereferenceable(8) ptr @_ZNSo3putEc(ptr noundef nonnull align 8 dereferenceable(8) %741, i8 noundef signext %821)
          to label %823 unwind label %912

823:                                              ; preds = %820
  %824 = invoke noundef nonnull align 8 dereferenceable(8) ptr @_ZNSo5flushEv(ptr noundef nonnull align 8 dereferenceable(8) %822)
          to label %825 unwind label %912

825:                                              ; preds = %823
  %826 = invoke noundef nonnull align 8 dereferenceable(8) ptr @_ZSt16__ostream_insertIcSt11char_traitsIcEERSt13basic_ostreamIT_T0_ES6_PKS3_l(ptr noundef nonnull align 8 dereferenceable(8) %741, ptr noundef nonnull @.str.13, i64 noundef 46)
          to label %827 unwind label %912

827:                                              ; preds = %825
  %828 = load ptr, ptr %741, align 8, !tbaa !61
  %829 = getelementptr i8, ptr %828, i64 -24
  %830 = load i64, ptr %829, align 8
  %831 = getelementptr inbounds i8, ptr %741, i64 %830
  %832 = getelementptr inbounds %"class.std::basic_ios", ptr %831, i64 0, i32 5
  %833 = load ptr, ptr %832, align 8, !tbaa !63
  %834 = icmp eq ptr %833, null
  br i1 %834, label %891, label %835

835:                                              ; preds = %827
  %836 = getelementptr inbounds %"class.std::ctype", ptr %833, i64 0, i32 8
  %837 = load i8, ptr %836, align 8, !tbaa !70
  %838 = icmp eq i8 %837, 0
  br i1 %838, label %842, label %839

839:                                              ; preds = %835
  %840 = getelementptr inbounds %"class.std::ctype", ptr %833, i64 0, i32 9, i64 10
  %841 = load i8, ptr %840, align 1, !tbaa !13
  br label %848

842:                                              ; preds = %835
  invoke void @_ZNKSt5ctypeIcE13_M_widen_initEv(ptr noundef nonnull align 8 dereferenceable(570) %833)
          to label %843 unwind label %912

843:                                              ; preds = %842
  %844 = load ptr, ptr %833, align 8, !tbaa !61
  %845 = getelementptr inbounds ptr, ptr %844, i64 6
  %846 = load ptr, ptr %845, align 8
  %847 = invoke noundef signext i8 %846(ptr noundef nonnull align 8 dereferenceable(570) %833, i8 noundef signext 10)
          to label %848 unwind label %912

848:                                              ; preds = %843, %839
  %849 = phi i8 [ %841, %839 ], [ %847, %843 ]
  %850 = invoke noundef nonnull align 8 dereferenceable(8) ptr @_ZNSo3putEc(ptr noundef nonnull align 8 dereferenceable(8) %741, i8 noundef signext %849)
          to label %851 unwind label %912

851:                                              ; preds = %848
  %852 = invoke noundef nonnull align 8 dereferenceable(8) ptr @_ZNSo5flushEv(ptr noundef nonnull align 8 dereferenceable(8) %850)
          to label %853 unwind label %912

853:                                              ; preds = %851
  %854 = invoke noundef nonnull align 8 dereferenceable(8) ptr @_ZSt16__ostream_insertIcSt11char_traitsIcEERSt13basic_ostreamIT_T0_ES6_PKS3_l(ptr noundef nonnull align 8 dereferenceable(8) %741, ptr noundef nonnull @.str.14, i64 noundef 44)
          to label %855 unwind label %912

855:                                              ; preds = %853
  %856 = load ptr, ptr %741, align 8, !tbaa !61
  %857 = getelementptr i8, ptr %856, i64 -24
  %858 = load i64, ptr %857, align 8
  %859 = getelementptr inbounds i8, ptr %741, i64 %858
  %860 = getelementptr inbounds %"class.std::basic_ios", ptr %859, i64 0, i32 5
  %861 = load ptr, ptr %860, align 8, !tbaa !63
  %862 = icmp eq ptr %861, null
  br i1 %862, label %891, label %863

863:                                              ; preds = %855
  %864 = getelementptr inbounds %"class.std::ctype", ptr %861, i64 0, i32 8
  %865 = load i8, ptr %864, align 8, !tbaa !70
  %866 = icmp eq i8 %865, 0
  br i1 %866, label %870, label %867

867:                                              ; preds = %863
  %868 = getelementptr inbounds %"class.std::ctype", ptr %861, i64 0, i32 9, i64 10
  %869 = load i8, ptr %868, align 1, !tbaa !13
  br label %876

870:                                              ; preds = %863
  invoke void @_ZNKSt5ctypeIcE13_M_widen_initEv(ptr noundef nonnull align 8 dereferenceable(570) %861)
          to label %871 unwind label %912

871:                                              ; preds = %870
  %872 = load ptr, ptr %861, align 8, !tbaa !61
  %873 = getelementptr inbounds ptr, ptr %872, i64 6
  %874 = load ptr, ptr %873, align 8
  %875 = invoke noundef signext i8 %874(ptr noundef nonnull align 8 dereferenceable(570) %861, i8 noundef signext 10)
          to label %876 unwind label %912

876:                                              ; preds = %871, %867
  %877 = phi i8 [ %869, %867 ], [ %875, %871 ]
  %878 = invoke noundef nonnull align 8 dereferenceable(8) ptr @_ZNSo3putEc(ptr noundef nonnull align 8 dereferenceable(8) %741, i8 noundef signext %877)
          to label %879 unwind label %912

879:                                              ; preds = %876
  %880 = invoke noundef nonnull align 8 dereferenceable(8) ptr @_ZNSo5flushEv(ptr noundef nonnull align 8 dereferenceable(8) %878)
          to label %881 unwind label %912

881:                                              ; preds = %879
  %882 = invoke noundef nonnull align 8 dereferenceable(8) ptr @_ZSt16__ostream_insertIcSt11char_traitsIcEERSt13basic_ostreamIT_T0_ES6_PKS3_l(ptr noundef nonnull align 8 dereferenceable(8) %741, ptr noundef nonnull @.str.15, i64 noundef 60)
          to label %883 unwind label %912

883:                                              ; preds = %881
  %884 = load ptr, ptr %741, align 8, !tbaa !61
  %885 = getelementptr i8, ptr %884, i64 -24
  %886 = load i64, ptr %885, align 8
  %887 = getelementptr inbounds i8, ptr %741, i64 %886
  %888 = getelementptr inbounds %"class.std::basic_ios", ptr %887, i64 0, i32 5
  %889 = load ptr, ptr %888, align 8, !tbaa !63
  %890 = icmp eq ptr %889, null
  br i1 %890, label %891, label %893

891:                                              ; preds = %883, %855, %827, %799, %771, %743
  invoke void @_ZSt16__throw_bad_castv() #19
          to label %892 unwind label %912

892:                                              ; preds = %891
  unreachable

893:                                              ; preds = %883
  %894 = getelementptr inbounds %"class.std::ctype", ptr %889, i64 0, i32 8
  %895 = load i8, ptr %894, align 8, !tbaa !70
  %896 = icmp eq i8 %895, 0
  br i1 %896, label %900, label %897

897:                                              ; preds = %893
  %898 = getelementptr inbounds %"class.std::ctype", ptr %889, i64 0, i32 9, i64 10
  %899 = load i8, ptr %898, align 1, !tbaa !13
  br label %906

900:                                              ; preds = %893
  invoke void @_ZNKSt5ctypeIcE13_M_widen_initEv(ptr noundef nonnull align 8 dereferenceable(570) %889)
          to label %901 unwind label %912

901:                                              ; preds = %900
  %902 = load ptr, ptr %889, align 8, !tbaa !61
  %903 = getelementptr inbounds ptr, ptr %902, i64 6
  %904 = load ptr, ptr %903, align 8
  %905 = invoke noundef signext i8 %904(ptr noundef nonnull align 8 dereferenceable(570) %889, i8 noundef signext 10)
          to label %906 unwind label %912

906:                                              ; preds = %901, %897
  %907 = phi i8 [ %899, %897 ], [ %905, %901 ]
  %908 = invoke noundef nonnull align 8 dereferenceable(8) ptr @_ZNSo3putEc(ptr noundef nonnull align 8 dereferenceable(8) %741, i8 noundef signext %907)
          to label %909 unwind label %912

909:                                              ; preds = %906
  %910 = invoke noundef nonnull align 8 dereferenceable(8) ptr @_ZNSo5flushEv(ptr noundef nonnull align 8 dereferenceable(8) %908)
          to label %911 unwind label %912

911:                                              ; preds = %909
  store i32 2, ptr %10, align 4, !tbaa !54
  br label %3002

912:                                              ; preds = %891, %909, %906, %901, %900, %879, %876, %871, %870, %851, %848, %843, %842, %823, %820, %815, %814, %795, %792, %787, %786, %767, %764, %759, %758, %881, %853, %825, %797, %769, %740, %739
  %913 = landingpad { ptr, i32 }
          cleanup
  br label %3009

914:                                              ; preds = %737
  %915 = add nsw i32 %729, -3
  %916 = add i32 %729, 2
  %917 = and i32 %916, 3
  %918 = icmp eq i32 %917, 0
  br i1 %918, label %919, label %930

919:                                              ; preds = %914
  %920 = icmp sgt i32 %729, 3
  br i1 %920, label %921, label %1191

921:                                              ; preds = %919
  %922 = getelementptr inbounds %"class.std::__cxx11::basic_string", ptr %34, i64 0, i32 2
  %923 = getelementptr inbounds %"class.std::__cxx11::basic_string", ptr %34, i64 0, i32 1
  %924 = getelementptr inbounds %"class.std::__cxx11::basic_string", ptr %35, i64 0, i32 2
  %925 = getelementptr inbounds %"class.std::__cxx11::basic_string", ptr %35, i64 0, i32 1
  %926 = getelementptr inbounds %"class.PP::Restartblock", ptr %0, i64 0, i32 4, i32 0, i32 0, i32 0, i32 3
  %927 = getelementptr inbounds %"class.PP::Restartblock", ptr %0, i64 0, i32 4, i32 0, i32 0, i32 0, i32 3, i32 2
  %928 = getelementptr inbounds i8, ptr %34, i64 20
  %929 = getelementptr inbounds i8, ptr %35, i64 21
  br label %1225

930:                                              ; preds = %914
  invoke void @_ZN2PP3Cmd11fatal_errorEiRNSt7__cxx1118basic_stringstreamIcSt11char_traitsIcESaIcEEERi(ptr noundef nonnull align 8 dereferenceable(432) %2, i32 noundef 0, ptr noundef nonnull align 8 dereferenceable(128) %9, ptr noundef nonnull align 4 dereferenceable(4) %10)
          to label %931 unwind label %1189

931:                                              ; preds = %930
  %932 = getelementptr inbounds i8, ptr %9, i64 16
  %933 = invoke noundef nonnull align 8 dereferenceable(8) ptr @_ZSt16__ostream_insertIcSt11char_traitsIcEERSt13basic_ostreamIT_T0_ES6_PKS3_l(ptr noundef nonnull align 8 dereferenceable(8) %932, ptr noundef nonnull @.str.23, i64 noundef 53)
          to label %934 unwind label %1189

934:                                              ; preds = %931
  %935 = load ptr, ptr %932, align 8, !tbaa !61
  %936 = getelementptr i8, ptr %935, i64 -24
  %937 = load i64, ptr %936, align 8
  %938 = getelementptr inbounds i8, ptr %932, i64 %937
  %939 = getelementptr inbounds %"class.std::basic_ios", ptr %938, i64 0, i32 5
  %940 = load ptr, ptr %939, align 8, !tbaa !63
  %941 = icmp eq ptr %940, null
  br i1 %941, label %1168, label %942

942:                                              ; preds = %934
  %943 = getelementptr inbounds %"class.std::ctype", ptr %940, i64 0, i32 8
  %944 = load i8, ptr %943, align 8, !tbaa !70
  %945 = icmp eq i8 %944, 0
  br i1 %945, label %949, label %946

946:                                              ; preds = %942
  %947 = getelementptr inbounds %"class.std::ctype", ptr %940, i64 0, i32 9, i64 10
  %948 = load i8, ptr %947, align 1, !tbaa !13
  br label %955

949:                                              ; preds = %942
  invoke void @_ZNKSt5ctypeIcE13_M_widen_initEv(ptr noundef nonnull align 8 dereferenceable(570) %940)
          to label %950 unwind label %1189

950:                                              ; preds = %949
  %951 = load ptr, ptr %940, align 8, !tbaa !61
  %952 = getelementptr inbounds ptr, ptr %951, i64 6
  %953 = load ptr, ptr %952, align 8
  %954 = invoke noundef signext i8 %953(ptr noundef nonnull align 8 dereferenceable(570) %940, i8 noundef signext 10)
          to label %955 unwind label %1189

955:                                              ; preds = %950, %946
  %956 = phi i8 [ %948, %946 ], [ %954, %950 ]
  %957 = invoke noundef nonnull align 8 dereferenceable(8) ptr @_ZNSo3putEc(ptr noundef nonnull align 8 dereferenceable(8) %932, i8 noundef signext %956)
          to label %958 unwind label %1189

958:                                              ; preds = %955
  %959 = invoke noundef nonnull align 8 dereferenceable(8) ptr @_ZNSo5flushEv(ptr noundef nonnull align 8 dereferenceable(8) %957)
          to label %960 unwind label %1189

960:                                              ; preds = %958
  %961 = invoke noundef nonnull align 8 dereferenceable(8) ptr @_ZSt16__ostream_insertIcSt11char_traitsIcEERSt13basic_ostreamIT_T0_ES6_PKS3_l(ptr noundef nonnull align 8 dereferenceable(8) %932, ptr noundef nonnull @.str.24, i64 noundef 41)
          to label %962 unwind label %1189

962:                                              ; preds = %960
  %963 = invoke noundef nonnull align 8 dereferenceable(8) ptr @_ZNSolsEi(ptr noundef nonnull align 8 dereferenceable(8) %932, i32 noundef %915)
          to label %964 unwind label %1189

964:                                              ; preds = %962
  %965 = load ptr, ptr %963, align 8, !tbaa !61
  %966 = getelementptr i8, ptr %965, i64 -24
  %967 = load i64, ptr %966, align 8
  %968 = getelementptr inbounds i8, ptr %963, i64 %967
  %969 = getelementptr inbounds %"class.std::basic_ios", ptr %968, i64 0, i32 5
  %970 = load ptr, ptr %969, align 8, !tbaa !63
  %971 = icmp eq ptr %970, null
  br i1 %971, label %1168, label %972

972:                                              ; preds = %964
  %973 = getelementptr inbounds %"class.std::ctype", ptr %970, i64 0, i32 8
  %974 = load i8, ptr %973, align 8, !tbaa !70
  %975 = icmp eq i8 %974, 0
  br i1 %975, label %979, label %976

976:                                              ; preds = %972
  %977 = getelementptr inbounds %"class.std::ctype", ptr %970, i64 0, i32 9, i64 10
  %978 = load i8, ptr %977, align 1, !tbaa !13
  br label %985

979:                                              ; preds = %972
  invoke void @_ZNKSt5ctypeIcE13_M_widen_initEv(ptr noundef nonnull align 8 dereferenceable(570) %970)
          to label %980 unwind label %1189

980:                                              ; preds = %979
  %981 = load ptr, ptr %970, align 8, !tbaa !61
  %982 = getelementptr inbounds ptr, ptr %981, i64 6
  %983 = load ptr, ptr %982, align 8
  %984 = invoke noundef signext i8 %983(ptr noundef nonnull align 8 dereferenceable(570) %970, i8 noundef signext 10)
          to label %985 unwind label %1189

985:                                              ; preds = %980, %976
  %986 = phi i8 [ %978, %976 ], [ %984, %980 ]
  %987 = invoke noundef nonnull align 8 dereferenceable(8) ptr @_ZNSo3putEc(ptr noundef nonnull align 8 dereferenceable(8) %963, i8 noundef signext %986)
          to label %988 unwind label %1189

988:                                              ; preds = %985
  %989 = invoke noundef nonnull align 8 dereferenceable(8) ptr @_ZNSo5flushEv(ptr noundef nonnull align 8 dereferenceable(8) %987)
          to label %990 unwind label %1189

990:                                              ; preds = %988
  %991 = invoke noundef nonnull align 8 dereferenceable(8) ptr @_ZSt16__ostream_insertIcSt11char_traitsIcEERSt13basic_ostreamIT_T0_ES6_PKS3_l(ptr noundef nonnull align 8 dereferenceable(8) %932, ptr noundef nonnull @.str.25, i64 noundef 50)
          to label %992 unwind label %1189

992:                                              ; preds = %990
  %993 = load ptr, ptr %932, align 8, !tbaa !61
  %994 = getelementptr i8, ptr %993, i64 -24
  %995 = load i64, ptr %994, align 8
  %996 = getelementptr inbounds i8, ptr %932, i64 %995
  %997 = getelementptr inbounds %"class.std::basic_ios", ptr %996, i64 0, i32 5
  %998 = load ptr, ptr %997, align 8, !tbaa !63
  %999 = icmp eq ptr %998, null
  br i1 %999, label %1168, label %1000

1000:                                             ; preds = %992
  %1001 = getelementptr inbounds %"class.std::ctype", ptr %998, i64 0, i32 8
  %1002 = load i8, ptr %1001, align 8, !tbaa !70
  %1003 = icmp eq i8 %1002, 0
  br i1 %1003, label %1007, label %1004

1004:                                             ; preds = %1000
  %1005 = getelementptr inbounds %"class.std::ctype", ptr %998, i64 0, i32 9, i64 10
  %1006 = load i8, ptr %1005, align 1, !tbaa !13
  br label %1013

1007:                                             ; preds = %1000
  invoke void @_ZNKSt5ctypeIcE13_M_widen_initEv(ptr noundef nonnull align 8 dereferenceable(570) %998)
          to label %1008 unwind label %1189

1008:                                             ; preds = %1007
  %1009 = load ptr, ptr %998, align 8, !tbaa !61
  %1010 = getelementptr inbounds ptr, ptr %1009, i64 6
  %1011 = load ptr, ptr %1010, align 8
  %1012 = invoke noundef signext i8 %1011(ptr noundef nonnull align 8 dereferenceable(570) %998, i8 noundef signext 10)
          to label %1013 unwind label %1189

1013:                                             ; preds = %1008, %1004
  %1014 = phi i8 [ %1006, %1004 ], [ %1012, %1008 ]
  %1015 = invoke noundef nonnull align 8 dereferenceable(8) ptr @_ZNSo3putEc(ptr noundef nonnull align 8 dereferenceable(8) %932, i8 noundef signext %1014)
          to label %1016 unwind label %1189

1016:                                             ; preds = %1013
  %1017 = invoke noundef nonnull align 8 dereferenceable(8) ptr @_ZNSo5flushEv(ptr noundef nonnull align 8 dereferenceable(8) %1015)
          to label %1018 unwind label %1189

1018:                                             ; preds = %1016
  %1019 = invoke noundef nonnull align 8 dereferenceable(8) ptr @_ZSt16__ostream_insertIcSt11char_traitsIcEERSt13basic_ostreamIT_T0_ES6_PKS3_l(ptr noundef nonnull align 8 dereferenceable(8) %932, ptr noundef nonnull @.str.26, i64 noundef 39)
          to label %1020 unwind label %1189

1020:                                             ; preds = %1018
  %1021 = load ptr, ptr %932, align 8, !tbaa !61
  %1022 = getelementptr i8, ptr %1021, i64 -24
  %1023 = load i64, ptr %1022, align 8
  %1024 = getelementptr inbounds i8, ptr %932, i64 %1023
  %1025 = getelementptr inbounds %"class.std::basic_ios", ptr %1024, i64 0, i32 5
  %1026 = load ptr, ptr %1025, align 8, !tbaa !63
  %1027 = icmp eq ptr %1026, null
  br i1 %1027, label %1168, label %1028

1028:                                             ; preds = %1020
  %1029 = getelementptr inbounds %"class.std::ctype", ptr %1026, i64 0, i32 8
  %1030 = load i8, ptr %1029, align 8, !tbaa !70
  %1031 = icmp eq i8 %1030, 0
  br i1 %1031, label %1035, label %1032

1032:                                             ; preds = %1028
  %1033 = getelementptr inbounds %"class.std::ctype", ptr %1026, i64 0, i32 9, i64 10
  %1034 = load i8, ptr %1033, align 1, !tbaa !13
  br label %1041

1035:                                             ; preds = %1028
  invoke void @_ZNKSt5ctypeIcE13_M_widen_initEv(ptr noundef nonnull align 8 dereferenceable(570) %1026)
          to label %1036 unwind label %1189

1036:                                             ; preds = %1035
  %1037 = load ptr, ptr %1026, align 8, !tbaa !61
  %1038 = getelementptr inbounds ptr, ptr %1037, i64 6
  %1039 = load ptr, ptr %1038, align 8
  %1040 = invoke noundef signext i8 %1039(ptr noundef nonnull align 8 dereferenceable(570) %1026, i8 noundef signext 10)
          to label %1041 unwind label %1189

1041:                                             ; preds = %1036, %1032
  %1042 = phi i8 [ %1034, %1032 ], [ %1040, %1036 ]
  %1043 = invoke noundef nonnull align 8 dereferenceable(8) ptr @_ZNSo3putEc(ptr noundef nonnull align 8 dereferenceable(8) %932, i8 noundef signext %1042)
          to label %1044 unwind label %1189

1044:                                             ; preds = %1041
  %1045 = invoke noundef nonnull align 8 dereferenceable(8) ptr @_ZNSo5flushEv(ptr noundef nonnull align 8 dereferenceable(8) %1043)
          to label %1046 unwind label %1189

1046:                                             ; preds = %1044
  %1047 = invoke noundef nonnull align 8 dereferenceable(8) ptr @_ZSt16__ostream_insertIcSt11char_traitsIcEERSt13basic_ostreamIT_T0_ES6_PKS3_l(ptr noundef nonnull align 8 dereferenceable(8) %932, ptr noundef nonnull @.str.27, i64 noundef 15)
          to label %1048 unwind label %1189

1048:                                             ; preds = %1046
  %1049 = load ptr, ptr %932, align 8, !tbaa !61
  %1050 = getelementptr i8, ptr %1049, i64 -24
  %1051 = load i64, ptr %1050, align 8
  %1052 = getelementptr inbounds i8, ptr %932, i64 %1051
  %1053 = getelementptr inbounds %"class.std::basic_ios", ptr %1052, i64 0, i32 5
  %1054 = load ptr, ptr %1053, align 8, !tbaa !63
  %1055 = icmp eq ptr %1054, null
  br i1 %1055, label %1168, label %1056

1056:                                             ; preds = %1048
  %1057 = getelementptr inbounds %"class.std::ctype", ptr %1054, i64 0, i32 8
  %1058 = load i8, ptr %1057, align 8, !tbaa !70
  %1059 = icmp eq i8 %1058, 0
  br i1 %1059, label %1063, label %1060

1060:                                             ; preds = %1056
  %1061 = getelementptr inbounds %"class.std::ctype", ptr %1054, i64 0, i32 9, i64 10
  %1062 = load i8, ptr %1061, align 1, !tbaa !13
  br label %1069

1063:                                             ; preds = %1056
  invoke void @_ZNKSt5ctypeIcE13_M_widen_initEv(ptr noundef nonnull align 8 dereferenceable(570) %1054)
          to label %1064 unwind label %1189

1064:                                             ; preds = %1063
  %1065 = load ptr, ptr %1054, align 8, !tbaa !61
  %1066 = getelementptr inbounds ptr, ptr %1065, i64 6
  %1067 = load ptr, ptr %1066, align 8
  %1068 = invoke noundef signext i8 %1067(ptr noundef nonnull align 8 dereferenceable(570) %1054, i8 noundef signext 10)
          to label %1069 unwind label %1189

1069:                                             ; preds = %1064, %1060
  %1070 = phi i8 [ %1062, %1060 ], [ %1068, %1064 ]
  %1071 = invoke noundef nonnull align 8 dereferenceable(8) ptr @_ZNSo3putEc(ptr noundef nonnull align 8 dereferenceable(8) %932, i8 noundef signext %1070)
          to label %1072 unwind label %1189

1072:                                             ; preds = %1069
  %1073 = invoke noundef nonnull align 8 dereferenceable(8) ptr @_ZNSo5flushEv(ptr noundef nonnull align 8 dereferenceable(8) %1071)
          to label %1074 unwind label %1189

1074:                                             ; preds = %1072
  %1075 = invoke noundef nonnull align 8 dereferenceable(8) ptr @_ZSt16__ostream_insertIcSt11char_traitsIcEERSt13basic_ostreamIT_T0_ES6_PKS3_l(ptr noundef nonnull align 8 dereferenceable(8) %932, ptr noundef nonnull @.str.28, i64 noundef 44)
          to label %1076 unwind label %1189

1076:                                             ; preds = %1074
  %1077 = load ptr, ptr %932, align 8, !tbaa !61
  %1078 = getelementptr i8, ptr %1077, i64 -24
  %1079 = load i64, ptr %1078, align 8
  %1080 = getelementptr inbounds i8, ptr %932, i64 %1079
  %1081 = getelementptr inbounds %"class.std::basic_ios", ptr %1080, i64 0, i32 5
  %1082 = load ptr, ptr %1081, align 8, !tbaa !63
  %1083 = icmp eq ptr %1082, null
  br i1 %1083, label %1168, label %1084

1084:                                             ; preds = %1076
  %1085 = getelementptr inbounds %"class.std::ctype", ptr %1082, i64 0, i32 8
  %1086 = load i8, ptr %1085, align 8, !tbaa !70
  %1087 = icmp eq i8 %1086, 0
  br i1 %1087, label %1091, label %1088

1088:                                             ; preds = %1084
  %1089 = getelementptr inbounds %"class.std::ctype", ptr %1082, i64 0, i32 9, i64 10
  %1090 = load i8, ptr %1089, align 1, !tbaa !13
  br label %1097

1091:                                             ; preds = %1084
  invoke void @_ZNKSt5ctypeIcE13_M_widen_initEv(ptr noundef nonnull align 8 dereferenceable(570) %1082)
          to label %1092 unwind label %1189

1092:                                             ; preds = %1091
  %1093 = load ptr, ptr %1082, align 8, !tbaa !61
  %1094 = getelementptr inbounds ptr, ptr %1093, i64 6
  %1095 = load ptr, ptr %1094, align 8
  %1096 = invoke noundef signext i8 %1095(ptr noundef nonnull align 8 dereferenceable(570) %1082, i8 noundef signext 10)
          to label %1097 unwind label %1189

1097:                                             ; preds = %1092, %1088
  %1098 = phi i8 [ %1090, %1088 ], [ %1096, %1092 ]
  %1099 = invoke noundef nonnull align 8 dereferenceable(8) ptr @_ZNSo3putEc(ptr noundef nonnull align 8 dereferenceable(8) %932, i8 noundef signext %1098)
          to label %1100 unwind label %1189

1100:                                             ; preds = %1097
  %1101 = invoke noundef nonnull align 8 dereferenceable(8) ptr @_ZNSo5flushEv(ptr noundef nonnull align 8 dereferenceable(8) %1099)
          to label %1102 unwind label %1189

1102:                                             ; preds = %1100
  %1103 = invoke noundef nonnull align 8 dereferenceable(8) ptr @_ZSt16__ostream_insertIcSt11char_traitsIcEERSt13basic_ostreamIT_T0_ES6_PKS3_l(ptr noundef nonnull align 8 dereferenceable(8) %932, ptr noundef nonnull @.str.29, i64 noundef 25)
          to label %1104 unwind label %1189

1104:                                             ; preds = %1102
  %1105 = load ptr, ptr %932, align 8, !tbaa !61
  %1106 = getelementptr i8, ptr %1105, i64 -24
  %1107 = load i64, ptr %1106, align 8
  %1108 = getelementptr inbounds i8, ptr %932, i64 %1107
  %1109 = getelementptr inbounds %"class.std::basic_ios", ptr %1108, i64 0, i32 5
  %1110 = load ptr, ptr %1109, align 8, !tbaa !63
  %1111 = icmp eq ptr %1110, null
  br i1 %1111, label %1168, label %1112

1112:                                             ; preds = %1104
  %1113 = getelementptr inbounds %"class.std::ctype", ptr %1110, i64 0, i32 8
  %1114 = load i8, ptr %1113, align 8, !tbaa !70
  %1115 = icmp eq i8 %1114, 0
  br i1 %1115, label %1119, label %1116

1116:                                             ; preds = %1112
  %1117 = getelementptr inbounds %"class.std::ctype", ptr %1110, i64 0, i32 9, i64 10
  %1118 = load i8, ptr %1117, align 1, !tbaa !13
  br label %1125

1119:                                             ; preds = %1112
  invoke void @_ZNKSt5ctypeIcE13_M_widen_initEv(ptr noundef nonnull align 8 dereferenceable(570) %1110)
          to label %1120 unwind label %1189

1120:                                             ; preds = %1119
  %1121 = load ptr, ptr %1110, align 8, !tbaa !61
  %1122 = getelementptr inbounds ptr, ptr %1121, i64 6
  %1123 = load ptr, ptr %1122, align 8
  %1124 = invoke noundef signext i8 %1123(ptr noundef nonnull align 8 dereferenceable(570) %1110, i8 noundef signext 10)
          to label %1125 unwind label %1189

1125:                                             ; preds = %1120, %1116
  %1126 = phi i8 [ %1118, %1116 ], [ %1124, %1120 ]
  %1127 = invoke noundef nonnull align 8 dereferenceable(8) ptr @_ZNSo3putEc(ptr noundef nonnull align 8 dereferenceable(8) %932, i8 noundef signext %1126)
          to label %1128 unwind label %1189

1128:                                             ; preds = %1125
  %1129 = invoke noundef nonnull align 8 dereferenceable(8) ptr @_ZNSo5flushEv(ptr noundef nonnull align 8 dereferenceable(8) %1127)
          to label %1130 unwind label %1189

1130:                                             ; preds = %1128
  %1131 = invoke noundef nonnull align 8 dereferenceable(8) ptr @_ZSt16__ostream_insertIcSt11char_traitsIcEERSt13basic_ostreamIT_T0_ES6_PKS3_l(ptr noundef nonnull align 8 dereferenceable(8) %932, ptr noundef nonnull @.str.30, i64 noundef 36)
          to label %1132 unwind label %1189

1132:                                             ; preds = %1130
  %1133 = load ptr, ptr %932, align 8, !tbaa !61
  %1134 = getelementptr i8, ptr %1133, i64 -24
  %1135 = load i64, ptr %1134, align 8
  %1136 = getelementptr inbounds i8, ptr %932, i64 %1135
  %1137 = getelementptr inbounds %"class.std::basic_ios", ptr %1136, i64 0, i32 5
  %1138 = load ptr, ptr %1137, align 8, !tbaa !63
  %1139 = icmp eq ptr %1138, null
  br i1 %1139, label %1168, label %1140

1140:                                             ; preds = %1132
  %1141 = getelementptr inbounds %"class.std::ctype", ptr %1138, i64 0, i32 8
  %1142 = load i8, ptr %1141, align 8, !tbaa !70
  %1143 = icmp eq i8 %1142, 0
  br i1 %1143, label %1147, label %1144

1144:                                             ; preds = %1140
  %1145 = getelementptr inbounds %"class.std::ctype", ptr %1138, i64 0, i32 9, i64 10
  %1146 = load i8, ptr %1145, align 1, !tbaa !13
  br label %1153

1147:                                             ; preds = %1140
  invoke void @_ZNKSt5ctypeIcE13_M_widen_initEv(ptr noundef nonnull align 8 dereferenceable(570) %1138)
          to label %1148 unwind label %1189

1148:                                             ; preds = %1147
  %1149 = load ptr, ptr %1138, align 8, !tbaa !61
  %1150 = getelementptr inbounds ptr, ptr %1149, i64 6
  %1151 = load ptr, ptr %1150, align 8
  %1152 = invoke noundef signext i8 %1151(ptr noundef nonnull align 8 dereferenceable(570) %1138, i8 noundef signext 10)
          to label %1153 unwind label %1189

1153:                                             ; preds = %1148, %1144
  %1154 = phi i8 [ %1146, %1144 ], [ %1152, %1148 ]
  %1155 = invoke noundef nonnull align 8 dereferenceable(8) ptr @_ZNSo3putEc(ptr noundef nonnull align 8 dereferenceable(8) %932, i8 noundef signext %1154)
          to label %1156 unwind label %1189

1156:                                             ; preds = %1153
  %1157 = invoke noundef nonnull align 8 dereferenceable(8) ptr @_ZNSo5flushEv(ptr noundef nonnull align 8 dereferenceable(8) %1155)
          to label %1158 unwind label %1189

1158:                                             ; preds = %1156
  %1159 = invoke noundef nonnull align 8 dereferenceable(8) ptr @_ZSt16__ostream_insertIcSt11char_traitsIcEERSt13basic_ostreamIT_T0_ES6_PKS3_l(ptr noundef nonnull align 8 dereferenceable(8) %932, ptr noundef nonnull @.str.31, i64 noundef 44)
          to label %1160 unwind label %1189

1160:                                             ; preds = %1158
  %1161 = load ptr, ptr %932, align 8, !tbaa !61
  %1162 = getelementptr i8, ptr %1161, i64 -24
  %1163 = load i64, ptr %1162, align 8
  %1164 = getelementptr inbounds i8, ptr %932, i64 %1163
  %1165 = getelementptr inbounds %"class.std::basic_ios", ptr %1164, i64 0, i32 5
  %1166 = load ptr, ptr %1165, align 8, !tbaa !63
  %1167 = icmp eq ptr %1166, null
  br i1 %1167, label %1168, label %1170

1168:                                             ; preds = %1160, %1132, %1104, %1076, %1048, %1020, %992, %964, %934
  invoke void @_ZSt16__throw_bad_castv() #19
          to label %1169 unwind label %1189

1169:                                             ; preds = %1168
  unreachable

1170:                                             ; preds = %1160
  %1171 = getelementptr inbounds %"class.std::ctype", ptr %1166, i64 0, i32 8
  %1172 = load i8, ptr %1171, align 8, !tbaa !70
  %1173 = icmp eq i8 %1172, 0
  br i1 %1173, label %1177, label %1174

1174:                                             ; preds = %1170
  %1175 = getelementptr inbounds %"class.std::ctype", ptr %1166, i64 0, i32 9, i64 10
  %1176 = load i8, ptr %1175, align 1, !tbaa !13
  br label %1183

1177:                                             ; preds = %1170
  invoke void @_ZNKSt5ctypeIcE13_M_widen_initEv(ptr noundef nonnull align 8 dereferenceable(570) %1166)
          to label %1178 unwind label %1189

1178:                                             ; preds = %1177
  %1179 = load ptr, ptr %1166, align 8, !tbaa !61
  %1180 = getelementptr inbounds ptr, ptr %1179, i64 6
  %1181 = load ptr, ptr %1180, align 8
  %1182 = invoke noundef signext i8 %1181(ptr noundef nonnull align 8 dereferenceable(570) %1166, i8 noundef signext 10)
          to label %1183 unwind label %1189

1183:                                             ; preds = %1178, %1174
  %1184 = phi i8 [ %1176, %1174 ], [ %1182, %1178 ]
  %1185 = invoke noundef nonnull align 8 dereferenceable(8) ptr @_ZNSo3putEc(ptr noundef nonnull align 8 dereferenceable(8) %932, i8 noundef signext %1184)
          to label %1186 unwind label %1189

1186:                                             ; preds = %1183
  %1187 = invoke noundef nonnull align 8 dereferenceable(8) ptr @_ZNSo5flushEv(ptr noundef nonnull align 8 dereferenceable(8) %1185)
          to label %1188 unwind label %1189

1188:                                             ; preds = %1186
  store i32 2, ptr %10, align 4, !tbaa !54
  br label %3002

1189:                                             ; preds = %1168, %1186, %1183, %1178, %1177, %1156, %1153, %1148, %1147, %1128, %1125, %1120, %1119, %1100, %1097, %1092, %1091, %1072, %1069, %1064, %1063, %1044, %1041, %1036, %1035, %1016, %1013, %1008, %1007, %988, %985, %980, %979, %958, %955, %950, %949, %1158, %1130, %1102, %1074, %1046, %1018, %990, %960, %931, %2999, %2998, %962, %930
  %1190 = landingpad { ptr, i32 }
          cleanup
  br label %3009

1191:                                             ; preds = %1268, %919
  %1192 = getelementptr inbounds %"struct.std::_Deque_base<PP::Word, std::allocator<PP::Word>>::_Deque_impl_data", ptr %0, i64 0, i32 3
  %1193 = getelementptr inbounds %"struct.std::_Deque_base<PP::Word, std::allocator<PP::Word>>::_Deque_impl_data", ptr %0, i64 0, i32 2
  %1194 = getelementptr inbounds %"struct.std::_Deque_base<PP::Word, std::allocator<PP::Word>>::_Deque_impl_data", ptr %0, i64 0, i32 3, i32 3
  %1195 = getelementptr inbounds %"struct.std::_Deque_base<PP::Word, std::allocator<PP::Word>>::_Deque_impl_data", ptr %0, i64 0, i32 2, i32 3
  %1196 = getelementptr inbounds %"struct.std::_Deque_base<PP::Word, std::allocator<PP::Word>>::_Deque_impl_data", ptr %0, i64 0, i32 3, i32 1
  %1197 = getelementptr inbounds %"struct.std::_Deque_base<PP::Word, std::allocator<PP::Word>>::_Deque_impl_data", ptr %0, i64 0, i32 2, i32 2
  %1198 = getelementptr inbounds %"class.PP::Restartblock", ptr %0, i64 0, i32 1, i32 0, i32 0, i32 0, i32 2
  %1199 = getelementptr inbounds %"class.PP::Restartblock", ptr %0, i64 0, i32 1, i32 0, i32 0, i32 0, i32 2, i32 1
  %1200 = getelementptr inbounds %"class.PP::Restartblock", ptr %0, i64 0, i32 1, i32 0, i32 0, i32 0, i32 2, i32 3
  %1201 = getelementptr inbounds %"class.std::__cxx11::basic_string", ptr %36, i64 0, i32 2
  %1202 = getelementptr inbounds %"class.std::__cxx11::basic_string", ptr %36, i64 0, i32 1
  %1203 = getelementptr inbounds %"class.std::__cxx11::basic_string", ptr %37, i64 0, i32 2
  %1204 = getelementptr inbounds %"class.std::__cxx11::basic_string", ptr %37, i64 0, i32 1
  %1205 = getelementptr inbounds %"class.std::__cxx11::basic_string", ptr %38, i64 0, i32 2
  %1206 = getelementptr inbounds %"class.std::__cxx11::basic_string", ptr %38, i64 0, i32 1
  %1207 = getelementptr inbounds %"class.std::__cxx11::basic_string", ptr %39, i64 0, i32 2
  %1208 = getelementptr inbounds %"class.std::__cxx11::basic_string", ptr %39, i64 0, i32 1
  %1209 = getelementptr inbounds %"class.std::__cxx11::basic_string", ptr %40, i64 0, i32 2
  %1210 = getelementptr inbounds %"class.std::__cxx11::basic_string", ptr %40, i64 0, i32 1
  %1211 = getelementptr inbounds %"class.std::__cxx11::basic_string", ptr %41, i64 0, i32 2
  %1212 = getelementptr inbounds %"class.std::__cxx11::basic_string", ptr %41, i64 0, i32 1
  %1213 = getelementptr inbounds %"class.std::__cxx11::basic_string", ptr %42, i64 0, i32 2
  %1214 = getelementptr inbounds %"class.std::__cxx11::basic_string", ptr %42, i64 0, i32 1
  %1215 = getelementptr inbounds %"class.std::__cxx11::basic_string", ptr %43, i64 0, i32 2
  %1216 = getelementptr inbounds %"class.std::__cxx11::basic_string", ptr %43, i64 0, i32 1
  %1217 = getelementptr inbounds %"class.std::__cxx11::basic_string", ptr %44, i64 0, i32 2
  %1218 = getelementptr inbounds %"class.std::__cxx11::basic_string", ptr %44, i64 0, i32 1
  %1219 = getelementptr inbounds %"class.std::__cxx11::basic_string", ptr %45, i64 0, i32 2
  %1220 = getelementptr inbounds %"class.std::__cxx11::basic_string", ptr %45, i64 0, i32 1
  %1221 = getelementptr inbounds %"class.std::__cxx11::basic_string", ptr %46, i64 0, i32 2
  %1222 = getelementptr inbounds %"class.std::__cxx11::basic_string", ptr %46, i64 0, i32 1
  %1223 = getelementptr inbounds %"class.std::__cxx11::basic_string", ptr %47, i64 0, i32 2
  %1224 = getelementptr inbounds %"class.std::__cxx11::basic_string", ptr %47, i64 0, i32 1
  br label %1277

1225:                                             ; preds = %921, %1268
  %1226 = phi i32 [ 3, %921 ], [ %1269, %1268 ]
  invoke void @_ZN2PP12Restartblock8add_wordERNS_3CmdEiRSt5dequeINS_4WordESaIS4_EE(ptr nonnull align 8 poison, ptr noundef nonnull align 8 dereferenceable(432) %2, i32 noundef %1226, ptr noundef nonnull align 8 dereferenceable(80) %0)
          to label %1227 unwind label %1235

1227:                                             ; preds = %1225
  %1228 = add nuw nsw i32 %1226, 1
  invoke void @_ZN2PP12Restartblock8add_wordERNS_3CmdEiRSt5dequeINS_4WordESaIS4_EE(ptr nonnull align 8 poison, ptr noundef nonnull align 8 dereferenceable(432) %2, i32 noundef %1228, ptr noundef nonnull align 8 dereferenceable(80) %59)
          to label %1229 unwind label %1235

1229:                                             ; preds = %1227
  %1230 = add nuw nsw i32 %1226, 2
  invoke void @_ZN2PP12Restartblock8add_wordERNS_3CmdEiRSt5dequeINS_4WordESaIS4_EE(ptr nonnull align 8 poison, ptr noundef nonnull align 8 dereferenceable(432) %2, i32 noundef %1230, ptr noundef nonnull align 8 dereferenceable(80) %61)
          to label %1231 unwind label %1235

1231:                                             ; preds = %1229
  %1232 = add nuw nsw i32 %1226, 3
  %1233 = icmp slt i32 %1232, %729
  br i1 %1233, label %1234, label %1237

1234:                                             ; preds = %1231
  invoke void @_ZN2PP12Restartblock8add_wordERNS_3CmdEiRSt5dequeINS_4WordESaIS4_EE(ptr nonnull align 8 poison, ptr noundef nonnull align 8 dereferenceable(432) %2, i32 noundef %1232, ptr noundef nonnull align 8 dereferenceable(80) %63)
          to label %1247 unwind label %1235

1235:                                             ; preds = %1234, %1229, %1227, %1225
  %1236 = landingpad { ptr, i32 }
          cleanup
  br label %3009

1237:                                             ; preds = %1231
  store ptr %922, ptr %34, align 8, !tbaa !5
  store i32 1701736302, ptr %922, align 8
  store i64 4, ptr %923, align 8, !tbaa !10
  store i8 0, ptr %928, align 4, !tbaa !13
  invoke void @_ZN2PP12Restartblock8add_wordERNS_3CmdEiRSt5dequeINS_4WordESaIS4_EENSt7__cxx1112basic_stringIcSt11char_traitsIcESaIcEEE(ptr nonnull align 8 poison, ptr noundef nonnull align 8 dereferenceable(432) %2, i32 noundef %1232, ptr noundef nonnull align 8 dereferenceable(80) %63, ptr noundef nonnull %34)
          to label %1238 unwind label %1242

1238:                                             ; preds = %1237
  %1239 = load ptr, ptr %34, align 8, !tbaa !73
  %1240 = icmp eq ptr %1239, %922
  br i1 %1240, label %1247, label %1241

1241:                                             ; preds = %1238
  call void @_ZdlPv(ptr noundef %1239) #17
  br label %1247

1242:                                             ; preds = %1237
  %1243 = landingpad { ptr, i32 }
          cleanup
  %1244 = load ptr, ptr %34, align 8, !tbaa !73
  %1245 = icmp eq ptr %1244, %922
  br i1 %1245, label %3009, label %1246

1246:                                             ; preds = %1242
  call void @_ZdlPv(ptr noundef %1244) #17
  br label %3009

1247:                                             ; preds = %1241, %1238, %1234
  call void @llvm.lifetime.start.p0(i64 32, ptr nonnull %35) #16
  store ptr %924, ptr %35, align 8, !tbaa !5
  call void @llvm.memcpy.p0.p0.i64(ptr noundef nonnull align 8 dereferenceable(5) %924, ptr noundef nonnull align 1 dereferenceable(5) @.str.33, i64 5, i1 false)
  store i64 5, ptr %925, align 8, !tbaa !10
  store i8 0, ptr %929, align 1, !tbaa !13
  %1248 = load ptr, ptr %926, align 8, !tbaa !76
  %1249 = load ptr, ptr %927, align 8, !tbaa !77
  %1250 = getelementptr inbounds %"class.std::__cxx11::basic_string", ptr %1249, i64 -1
  %1251 = icmp eq ptr %1248, %1250
  br i1 %1251, label %1263, label %1252

1252:                                             ; preds = %1247
  %1253 = getelementptr inbounds %"class.std::__cxx11::basic_string", ptr %1248, i64 0, i32 2
  store ptr %1253, ptr %1248, align 8, !tbaa !5
  %1254 = load ptr, ptr %35, align 8, !tbaa !73
  %1255 = icmp eq ptr %1254, %924
  br i1 %1255, label %1256, label %1257

1256:                                             ; preds = %1252
  call void @llvm.memcpy.p0.p0.i64(ptr noundef nonnull align 8 dereferenceable(6) %1253, ptr noundef nonnull align 8 dereferenceable(6) %924, i64 6, i1 false)
  br label %1259

1257:                                             ; preds = %1252
  store ptr %1254, ptr %1248, align 8, !tbaa !73
  %1258 = load i64, ptr %924, align 8, !tbaa !13
  store i64 %1258, ptr %1253, align 8, !tbaa !13
  br label %1259

1259:                                             ; preds = %1256, %1257
  %1260 = getelementptr inbounds %"class.std::__cxx11::basic_string", ptr %1248, i64 0, i32 1
  store i64 5, ptr %1260, align 8, !tbaa !10
  %1261 = load ptr, ptr %926, align 8, !tbaa !76
  %1262 = getelementptr inbounds %"class.std::__cxx11::basic_string", ptr %1261, i64 1
  store ptr %1262, ptr %926, align 8, !tbaa !76
  br label %1268

1263:                                             ; preds = %1247
  invoke void @_ZNSt5dequeINSt7__cxx1112basic_stringIcSt11char_traitsIcESaIcEEESaIS5_EE16_M_push_back_auxIJS5_EEEvDpOT_(ptr noundef nonnull align 8 dereferenceable(80) %65, ptr noundef nonnull align 8 dereferenceable(32) %35)
          to label %1264 unwind label %1271

1264:                                             ; preds = %1263
  %1265 = load ptr, ptr %35, align 8, !tbaa !73
  %1266 = icmp eq ptr %1265, %924
  br i1 %1266, label %1268, label %1267

1267:                                             ; preds = %1264
  call void @_ZdlPv(ptr noundef %1265) #17
  br label %1268

1268:                                             ; preds = %1259, %1264, %1267
  call void @llvm.lifetime.end.p0(i64 32, ptr nonnull %35) #16
  %1269 = add nuw nsw i32 %1226, 4
  %1270 = icmp slt i32 %1269, %729
  br i1 %1270, label %1225, label %1191, !llvm.loop !78

1271:                                             ; preds = %1263
  %1272 = landingpad { ptr, i32 }
          cleanup
  %1273 = load ptr, ptr %35, align 8, !tbaa !73
  %1274 = icmp eq ptr %1273, %924
  br i1 %1274, label %1276, label %1275

1275:                                             ; preds = %1271
  call void @_ZdlPv(ptr noundef %1273) #17
  br label %1276

1276:                                             ; preds = %1275, %1271
  call void @llvm.lifetime.end.p0(i64 32, ptr nonnull %35) #16
  br label %3009

1277:                                             ; preds = %1191, %2153
  %1278 = phi i64 [ 0, %1191 ], [ %2154, %2153 ]
  %1279 = load ptr, ptr %1194, align 8, !tbaa !57
  %1280 = load ptr, ptr %1195, align 8, !tbaa !57
  %1281 = ptrtoint ptr %1279 to i64
  %1282 = ptrtoint ptr %1280 to i64
  %1283 = sub i64 %1281, %1282
  %1284 = ashr exact i64 %1283, 3
  %1285 = icmp ne ptr %1279, null
  %1286 = sext i1 %1285 to i64
  %1287 = add nsw i64 %1284, %1286
  %1288 = shl nsw i64 %1287, 2
  %1289 = load ptr, ptr %1192, align 8, !tbaa !58
  %1290 = load ptr, ptr %1196, align 8, !tbaa !59
  %1291 = ptrtoint ptr %1289 to i64
  %1292 = ptrtoint ptr %1290 to i64
  %1293 = sub i64 %1291, %1292
  %1294 = lshr exact i64 %1293, 7
  %1295 = add i64 %1288, %1294
  %1296 = load ptr, ptr %1197, align 8, !tbaa !60
  %1297 = load ptr, ptr %1193, align 8, !tbaa !58
  %1298 = ptrtoint ptr %1296 to i64
  %1299 = ptrtoint ptr %1297 to i64
  %1300 = sub i64 %1298, %1299
  %1301 = lshr exact i64 %1300, 7
  %1302 = add i64 %1295, %1301
  %1303 = shl i64 %1302, 32
  %1304 = ashr exact i64 %1303, 32
  %1305 = icmp slt i64 %1278, %1304
  br i1 %1305, label %1306, label %2156

1306:                                             ; preds = %1277
  call void @llvm.lifetime.start.p0(i64 32, ptr nonnull %36) #16
  %1307 = load ptr, ptr %1198, align 8, !tbaa !58, !noalias !79
  %1308 = load ptr, ptr %1199, align 8, !tbaa !59, !noalias !79
  %1309 = load ptr, ptr %1200, align 8, !tbaa !57, !noalias !79
  %1310 = ptrtoint ptr %1307 to i64
  %1311 = ptrtoint ptr %1308 to i64
  %1312 = sub i64 %1310, %1311
  %1313 = ashr exact i64 %1312, 7
  %1314 = add nsw i64 %1313, %1278
  %1315 = icmp sgt i64 %1314, -1
  br i1 %1315, label %1316, label %1322

1316:                                             ; preds = %1306
  %1317 = icmp ult i64 %1314, 4
  br i1 %1317, label %1318, label %1320

1318:                                             ; preds = %1316
  %1319 = getelementptr inbounds %"class.PP::Word", ptr %1307, i64 %1278
  br label %1332

1320:                                             ; preds = %1316
  %1321 = lshr i64 %1314, 2
  br label %1325

1322:                                             ; preds = %1306
  %1323 = lshr i64 %1314, 2
  %1324 = or i64 %1323, -4611686018427387904
  br label %1325

1325:                                             ; preds = %1322, %1320
  %1326 = phi i64 [ %1321, %1320 ], [ %1324, %1322 ]
  %1327 = getelementptr inbounds ptr, ptr %1309, i64 %1326
  %1328 = load ptr, ptr %1327, align 8, !tbaa !32, !noalias !79
  %1329 = shl nsw i64 %1326, 2
  %1330 = sub nsw i64 %1314, %1329
  %1331 = getelementptr inbounds %"class.PP::Word", ptr %1328, i64 %1330
  br label %1332

1332:                                             ; preds = %1318, %1325
  %1333 = phi ptr [ %1331, %1325 ], [ %1319, %1318 ]
  call void @llvm.experimental.noalias.scope.decl(metadata !82)
  store ptr %1201, ptr %36, align 8, !tbaa !5, !alias.scope !82
  %1334 = load ptr, ptr %1333, align 8, !tbaa !73, !noalias !82
  %1335 = getelementptr inbounds %"class.std::__cxx11::basic_string", ptr %1333, i64 0, i32 1
  %1336 = load i64, ptr %1335, align 8, !tbaa !10, !noalias !82
  call void @llvm.lifetime.start.p0(i64 8, ptr nonnull %30) #16, !noalias !82
  store i64 %1336, ptr %30, align 8, !tbaa !85, !noalias !82
  %1337 = icmp ugt i64 %1336, 15
  br i1 %1337, label %1338, label %1342

1338:                                             ; preds = %1332
  %1339 = invoke noundef ptr @_ZNSt7__cxx1112basic_stringIcSt11char_traitsIcESaIcEE9_M_createERmm(ptr noundef nonnull align 8 dereferenceable(32) %36, ptr noundef nonnull align 8 dereferenceable(8) %30, i64 noundef 0)
          to label %1340 unwind label %1397

1340:                                             ; preds = %1338
  store ptr %1339, ptr %36, align 8, !tbaa !73, !alias.scope !82
  %1341 = load i64, ptr %30, align 8, !tbaa !85, !noalias !82
  store i64 %1341, ptr %1201, align 8, !tbaa !13, !alias.scope !82
  br label %1342

1342:                                             ; preds = %1340, %1332
  %1343 = phi ptr [ %1339, %1340 ], [ %1201, %1332 ]
  switch i64 %1336, label %1346 [
    i64 1, label %1344
    i64 0, label %1347
  ]

1344:                                             ; preds = %1342
  %1345 = load i8, ptr %1334, align 1, !tbaa !13
  store i8 %1345, ptr %1343, align 1, !tbaa !13
  br label %1347

1346:                                             ; preds = %1342
  call void @llvm.memcpy.p0.p0.i64(ptr align 1 %1343, ptr align 1 %1334, i64 %1336, i1 false)
  br label %1347

1347:                                             ; preds = %1346, %1344, %1342
  %1348 = load i64, ptr %30, align 8, !tbaa !85, !noalias !82
  store i64 %1348, ptr %1202, align 8, !tbaa !10, !alias.scope !82
  %1349 = load ptr, ptr %36, align 8, !tbaa !73, !alias.scope !82
  %1350 = getelementptr inbounds i8, ptr %1349, i64 %1348
  store i8 0, ptr %1350, align 1, !tbaa !13
  call void @llvm.lifetime.end.p0(i64 8, ptr nonnull %30) #16, !noalias !82
  %1351 = call noundef i32 @_ZNKSt7__cxx1112basic_stringIcSt11char_traitsIcESaIcEE7compareEPKc(ptr noundef nonnull align 8 dereferenceable(32) %36, ptr noundef nonnull @.str.34) #16
  %1352 = icmp eq i32 %1351, 0
  %1353 = load ptr, ptr %36, align 8, !tbaa !73
  %1354 = icmp eq ptr %1353, %1201
  br i1 %1354, label %1356, label %1355

1355:                                             ; preds = %1347
  call void @_ZdlPv(ptr noundef %1353) #17
  br label %1356

1356:                                             ; preds = %1347, %1355
  call void @llvm.lifetime.end.p0(i64 32, ptr nonnull %36) #16
  call void @llvm.lifetime.start.p0(i64 32, ptr nonnull %37) #16
  %1357 = load ptr, ptr %1198, align 8, !tbaa !58, !noalias !86
  %1358 = load ptr, ptr %1199, align 8, !tbaa !59, !noalias !86
  %1359 = load ptr, ptr %1200, align 8, !tbaa !57, !noalias !86
  %1360 = ptrtoint ptr %1357 to i64
  %1361 = ptrtoint ptr %1358 to i64
  %1362 = sub i64 %1360, %1361
  %1363 = ashr exact i64 %1362, 7
  %1364 = add nsw i64 %1363, %1278
  %1365 = icmp sgt i64 %1364, -1
  br i1 %1365, label %1366, label %1372

1366:                                             ; preds = %1356
  %1367 = icmp ult i64 %1364, 4
  br i1 %1367, label %1368, label %1370

1368:                                             ; preds = %1366
  %1369 = getelementptr inbounds %"class.PP::Word", ptr %1357, i64 %1278
  br label %1382

1370:                                             ; preds = %1366
  %1371 = lshr i64 %1364, 2
  br label %1375

1372:                                             ; preds = %1356
  %1373 = lshr i64 %1364, 2
  %1374 = or i64 %1373, -4611686018427387904
  br label %1375

1375:                                             ; preds = %1372, %1370
  %1376 = phi i64 [ %1371, %1370 ], [ %1374, %1372 ]
  %1377 = getelementptr inbounds ptr, ptr %1359, i64 %1376
  %1378 = load ptr, ptr %1377, align 8, !tbaa !32, !noalias !86
  %1379 = shl nsw i64 %1376, 2
  %1380 = sub nsw i64 %1364, %1379
  %1381 = getelementptr inbounds %"class.PP::Word", ptr %1378, i64 %1380
  br label %1382

1382:                                             ; preds = %1368, %1375
  %1383 = phi ptr [ %1381, %1375 ], [ %1369, %1368 ]
  call void @llvm.experimental.noalias.scope.decl(metadata !89)
  store ptr %1203, ptr %37, align 8, !tbaa !5, !alias.scope !89
  %1384 = load ptr, ptr %1383, align 8, !tbaa !73, !noalias !89
  %1385 = getelementptr inbounds %"class.std::__cxx11::basic_string", ptr %1383, i64 0, i32 1
  %1386 = load i64, ptr %1385, align 8, !tbaa !10, !noalias !89
  call void @llvm.lifetime.start.p0(i64 8, ptr nonnull %29) #16, !noalias !89
  store i64 %1386, ptr %29, align 8, !tbaa !85, !noalias !89
  %1387 = icmp ugt i64 %1386, 15
  br i1 %1387, label %1388, label %1392

1388:                                             ; preds = %1382
  %1389 = invoke noundef ptr @_ZNSt7__cxx1112basic_stringIcSt11char_traitsIcESaIcEE9_M_createERmm(ptr noundef nonnull align 8 dereferenceable(32) %37, ptr noundef nonnull align 8 dereferenceable(8) %29, i64 noundef 0)
          to label %1390 unwind label %1450

1390:                                             ; preds = %1388
  store ptr %1389, ptr %37, align 8, !tbaa !73, !alias.scope !89
  %1391 = load i64, ptr %29, align 8, !tbaa !85, !noalias !89
  store i64 %1391, ptr %1203, align 8, !tbaa !13, !alias.scope !89
  br label %1392

1392:                                             ; preds = %1390, %1382
  %1393 = phi ptr [ %1389, %1390 ], [ %1203, %1382 ]
  switch i64 %1386, label %1396 [
    i64 1, label %1394
    i64 0, label %1399
  ]

1394:                                             ; preds = %1392
  %1395 = load i8, ptr %1384, align 1, !tbaa !13
  store i8 %1395, ptr %1393, align 1, !tbaa !13
  br label %1399

1396:                                             ; preds = %1392
  call void @llvm.memcpy.p0.p0.i64(ptr align 1 %1393, ptr align 1 %1384, i64 %1386, i1 false)
  br label %1399

1397:                                             ; preds = %1338
  %1398 = landingpad { ptr, i32 }
          cleanup
  call void @llvm.lifetime.end.p0(i64 32, ptr nonnull %36) #16
  br label %3009

1399:                                             ; preds = %1396, %1394, %1392
  %1400 = load i64, ptr %29, align 8, !tbaa !85, !noalias !89
  store i64 %1400, ptr %1204, align 8, !tbaa !10, !alias.scope !89
  %1401 = load ptr, ptr %37, align 8, !tbaa !73, !alias.scope !89
  %1402 = getelementptr inbounds i8, ptr %1401, i64 %1400
  store i8 0, ptr %1402, align 1, !tbaa !13
  call void @llvm.lifetime.end.p0(i64 8, ptr nonnull %29) #16, !noalias !89
  %1403 = call noundef i32 @_ZNKSt7__cxx1112basic_stringIcSt11char_traitsIcESaIcEE7compareEPKc(ptr noundef nonnull align 8 dereferenceable(32) %37, ptr noundef nonnull @.str.35) #16
  %1404 = icmp eq i32 %1403, 0
  %1405 = load ptr, ptr %37, align 8, !tbaa !73
  %1406 = icmp eq ptr %1405, %1203
  br i1 %1406, label %1408, label %1407

1407:                                             ; preds = %1399
  call void @_ZdlPv(ptr noundef %1405) #17
  br label %1408

1408:                                             ; preds = %1399, %1407
  call void @llvm.lifetime.end.p0(i64 32, ptr nonnull %37) #16
  %1409 = or i1 %1352, %1404
  call void @llvm.lifetime.start.p0(i64 32, ptr nonnull %38) #16
  %1410 = load ptr, ptr %1198, align 8, !tbaa !58, !noalias !92
  %1411 = load ptr, ptr %1199, align 8, !tbaa !59, !noalias !92
  %1412 = load ptr, ptr %1200, align 8, !tbaa !57, !noalias !92
  %1413 = ptrtoint ptr %1410 to i64
  %1414 = ptrtoint ptr %1411 to i64
  %1415 = sub i64 %1413, %1414
  %1416 = ashr exact i64 %1415, 7
  %1417 = add nsw i64 %1416, %1278
  %1418 = icmp sgt i64 %1417, -1
  br i1 %1418, label %1419, label %1425

1419:                                             ; preds = %1408
  %1420 = icmp ult i64 %1417, 4
  br i1 %1420, label %1421, label %1423

1421:                                             ; preds = %1419
  %1422 = getelementptr inbounds %"class.PP::Word", ptr %1410, i64 %1278
  br label %1435

1423:                                             ; preds = %1419
  %1424 = lshr i64 %1417, 2
  br label %1428

1425:                                             ; preds = %1408
  %1426 = lshr i64 %1417, 2
  %1427 = or i64 %1426, -4611686018427387904
  br label %1428

1428:                                             ; preds = %1425, %1423
  %1429 = phi i64 [ %1424, %1423 ], [ %1427, %1425 ]
  %1430 = getelementptr inbounds ptr, ptr %1412, i64 %1429
  %1431 = load ptr, ptr %1430, align 8, !tbaa !32, !noalias !92
  %1432 = shl nsw i64 %1429, 2
  %1433 = sub nsw i64 %1417, %1432
  %1434 = getelementptr inbounds %"class.PP::Word", ptr %1431, i64 %1433
  br label %1435

1435:                                             ; preds = %1421, %1428
  %1436 = phi ptr [ %1434, %1428 ], [ %1422, %1421 ]
  call void @llvm.experimental.noalias.scope.decl(metadata !95)
  store ptr %1205, ptr %38, align 8, !tbaa !5, !alias.scope !95
  %1437 = load ptr, ptr %1436, align 8, !tbaa !73, !noalias !95
  %1438 = getelementptr inbounds %"class.std::__cxx11::basic_string", ptr %1436, i64 0, i32 1
  %1439 = load i64, ptr %1438, align 8, !tbaa !10, !noalias !95
  call void @llvm.lifetime.start.p0(i64 8, ptr nonnull %28) #16, !noalias !95
  store i64 %1439, ptr %28, align 8, !tbaa !85, !noalias !95
  %1440 = icmp ugt i64 %1439, 15
  br i1 %1440, label %1441, label %1445

1441:                                             ; preds = %1435
  %1442 = invoke noundef ptr @_ZNSt7__cxx1112basic_stringIcSt11char_traitsIcESaIcEE9_M_createERmm(ptr noundef nonnull align 8 dereferenceable(32) %38, ptr noundef nonnull align 8 dereferenceable(8) %28, i64 noundef 0)
          to label %1443 unwind label %1503

1443:                                             ; preds = %1441
  store ptr %1442, ptr %38, align 8, !tbaa !73, !alias.scope !95
  %1444 = load i64, ptr %28, align 8, !tbaa !85, !noalias !95
  store i64 %1444, ptr %1205, align 8, !tbaa !13, !alias.scope !95
  br label %1445

1445:                                             ; preds = %1443, %1435
  %1446 = phi ptr [ %1442, %1443 ], [ %1205, %1435 ]
  switch i64 %1439, label %1449 [
    i64 1, label %1447
    i64 0, label %1452
  ]

1447:                                             ; preds = %1445
  %1448 = load i8, ptr %1437, align 1, !tbaa !13
  store i8 %1448, ptr %1446, align 1, !tbaa !13
  br label %1452

1449:                                             ; preds = %1445
  call void @llvm.memcpy.p0.p0.i64(ptr align 1 %1446, ptr align 1 %1437, i64 %1439, i1 false)
  br label %1452

1450:                                             ; preds = %1388
  %1451 = landingpad { ptr, i32 }
          cleanup
  call void @llvm.lifetime.end.p0(i64 32, ptr nonnull %37) #16
  br label %3009

1452:                                             ; preds = %1449, %1447, %1445
  %1453 = load i64, ptr %28, align 8, !tbaa !85, !noalias !95
  store i64 %1453, ptr %1206, align 8, !tbaa !10, !alias.scope !95
  %1454 = load ptr, ptr %38, align 8, !tbaa !73, !alias.scope !95
  %1455 = getelementptr inbounds i8, ptr %1454, i64 %1453
  store i8 0, ptr %1455, align 1, !tbaa !13
  call void @llvm.lifetime.end.p0(i64 8, ptr nonnull %28) #16, !noalias !95
  %1456 = call noundef i32 @_ZNKSt7__cxx1112basic_stringIcSt11char_traitsIcESaIcEE7compareEPKc(ptr noundef nonnull align 8 dereferenceable(32) %38, ptr noundef nonnull @.str.36) #16
  %1457 = icmp eq i32 %1456, 0
  %1458 = load ptr, ptr %38, align 8, !tbaa !73
  %1459 = icmp eq ptr %1458, %1205
  br i1 %1459, label %1461, label %1460

1460:                                             ; preds = %1452
  call void @_ZdlPv(ptr noundef %1458) #17
  br label %1461

1461:                                             ; preds = %1452, %1460
  call void @llvm.lifetime.end.p0(i64 32, ptr nonnull %38) #16
  %1462 = or i1 %1409, %1457
  call void @llvm.lifetime.start.p0(i64 32, ptr nonnull %39) #16
  %1463 = load ptr, ptr %1198, align 8, !tbaa !58, !noalias !98
  %1464 = load ptr, ptr %1199, align 8, !tbaa !59, !noalias !98
  %1465 = load ptr, ptr %1200, align 8, !tbaa !57, !noalias !98
  %1466 = ptrtoint ptr %1463 to i64
  %1467 = ptrtoint ptr %1464 to i64
  %1468 = sub i64 %1466, %1467
  %1469 = ashr exact i64 %1468, 7
  %1470 = add nsw i64 %1469, %1278
  %1471 = icmp sgt i64 %1470, -1
  br i1 %1471, label %1472, label %1478

1472:                                             ; preds = %1461
  %1473 = icmp ult i64 %1470, 4
  br i1 %1473, label %1474, label %1476

1474:                                             ; preds = %1472
  %1475 = getelementptr inbounds %"class.PP::Word", ptr %1463, i64 %1278
  br label %1488

1476:                                             ; preds = %1472
  %1477 = lshr i64 %1470, 2
  br label %1481

1478:                                             ; preds = %1461
  %1479 = lshr i64 %1470, 2
  %1480 = or i64 %1479, -4611686018427387904
  br label %1481

1481:                                             ; preds = %1478, %1476
  %1482 = phi i64 [ %1477, %1476 ], [ %1480, %1478 ]
  %1483 = getelementptr inbounds ptr, ptr %1465, i64 %1482
  %1484 = load ptr, ptr %1483, align 8, !tbaa !32, !noalias !98
  %1485 = shl nsw i64 %1482, 2
  %1486 = sub nsw i64 %1470, %1485
  %1487 = getelementptr inbounds %"class.PP::Word", ptr %1484, i64 %1486
  br label %1488

1488:                                             ; preds = %1474, %1481
  %1489 = phi ptr [ %1487, %1481 ], [ %1475, %1474 ]
  call void @llvm.experimental.noalias.scope.decl(metadata !101)
  store ptr %1207, ptr %39, align 8, !tbaa !5, !alias.scope !101
  %1490 = load ptr, ptr %1489, align 8, !tbaa !73, !noalias !101
  %1491 = getelementptr inbounds %"class.std::__cxx11::basic_string", ptr %1489, i64 0, i32 1
  %1492 = load i64, ptr %1491, align 8, !tbaa !10, !noalias !101
  call void @llvm.lifetime.start.p0(i64 8, ptr nonnull %27) #16, !noalias !101
  store i64 %1492, ptr %27, align 8, !tbaa !85, !noalias !101
  %1493 = icmp ugt i64 %1492, 15
  br i1 %1493, label %1494, label %1498

1494:                                             ; preds = %1488
  %1495 = invoke noundef ptr @_ZNSt7__cxx1112basic_stringIcSt11char_traitsIcESaIcEE9_M_createERmm(ptr noundef nonnull align 8 dereferenceable(32) %39, ptr noundef nonnull align 8 dereferenceable(8) %27, i64 noundef 0)
          to label %1496 unwind label %1556

1496:                                             ; preds = %1494
  store ptr %1495, ptr %39, align 8, !tbaa !73, !alias.scope !101
  %1497 = load i64, ptr %27, align 8, !tbaa !85, !noalias !101
  store i64 %1497, ptr %1207, align 8, !tbaa !13, !alias.scope !101
  br label %1498

1498:                                             ; preds = %1496, %1488
  %1499 = phi ptr [ %1495, %1496 ], [ %1207, %1488 ]
  switch i64 %1492, label %1502 [
    i64 1, label %1500
    i64 0, label %1505
  ]

1500:                                             ; preds = %1498
  %1501 = load i8, ptr %1490, align 1, !tbaa !13
  store i8 %1501, ptr %1499, align 1, !tbaa !13
  br label %1505

1502:                                             ; preds = %1498
  call void @llvm.memcpy.p0.p0.i64(ptr align 1 %1499, ptr align 1 %1490, i64 %1492, i1 false)
  br label %1505

1503:                                             ; preds = %1441
  %1504 = landingpad { ptr, i32 }
          cleanup
  call void @llvm.lifetime.end.p0(i64 32, ptr nonnull %38) #16
  br label %3009

1505:                                             ; preds = %1502, %1500, %1498
  %1506 = load i64, ptr %27, align 8, !tbaa !85, !noalias !101
  store i64 %1506, ptr %1208, align 8, !tbaa !10, !alias.scope !101
  %1507 = load ptr, ptr %39, align 8, !tbaa !73, !alias.scope !101
  %1508 = getelementptr inbounds i8, ptr %1507, i64 %1506
  store i8 0, ptr %1508, align 1, !tbaa !13
  call void @llvm.lifetime.end.p0(i64 8, ptr nonnull %27) #16, !noalias !101
  %1509 = call noundef i32 @_ZNKSt7__cxx1112basic_stringIcSt11char_traitsIcESaIcEE7compareEPKc(ptr noundef nonnull align 8 dereferenceable(32) %39, ptr noundef nonnull @.str.37) #16
  %1510 = icmp eq i32 %1509, 0
  %1511 = load ptr, ptr %39, align 8, !tbaa !73
  %1512 = icmp eq ptr %1511, %1207
  br i1 %1512, label %1514, label %1513

1513:                                             ; preds = %1505
  call void @_ZdlPv(ptr noundef %1511) #17
  br label %1514

1514:                                             ; preds = %1505, %1513
  call void @llvm.lifetime.end.p0(i64 32, ptr nonnull %39) #16
  %1515 = or i1 %1462, %1510
  call void @llvm.lifetime.start.p0(i64 32, ptr nonnull %40) #16
  %1516 = load ptr, ptr %1198, align 8, !tbaa !58, !noalias !104
  %1517 = load ptr, ptr %1199, align 8, !tbaa !59, !noalias !104
  %1518 = load ptr, ptr %1200, align 8, !tbaa !57, !noalias !104
  %1519 = ptrtoint ptr %1516 to i64
  %1520 = ptrtoint ptr %1517 to i64
  %1521 = sub i64 %1519, %1520
  %1522 = ashr exact i64 %1521, 7
  %1523 = add nsw i64 %1522, %1278
  %1524 = icmp sgt i64 %1523, -1
  br i1 %1524, label %1525, label %1531

1525:                                             ; preds = %1514
  %1526 = icmp ult i64 %1523, 4
  br i1 %1526, label %1527, label %1529

1527:                                             ; preds = %1525
  %1528 = getelementptr inbounds %"class.PP::Word", ptr %1516, i64 %1278
  br label %1541

1529:                                             ; preds = %1525
  %1530 = lshr i64 %1523, 2
  br label %1534

1531:                                             ; preds = %1514
  %1532 = lshr i64 %1523, 2
  %1533 = or i64 %1532, -4611686018427387904
  br label %1534

1534:                                             ; preds = %1531, %1529
  %1535 = phi i64 [ %1530, %1529 ], [ %1533, %1531 ]
  %1536 = getelementptr inbounds ptr, ptr %1518, i64 %1535
  %1537 = load ptr, ptr %1536, align 8, !tbaa !32, !noalias !104
  %1538 = shl nsw i64 %1535, 2
  %1539 = sub nsw i64 %1523, %1538
  %1540 = getelementptr inbounds %"class.PP::Word", ptr %1537, i64 %1539
  br label %1541

1541:                                             ; preds = %1527, %1534
  %1542 = phi ptr [ %1540, %1534 ], [ %1528, %1527 ]
  call void @llvm.experimental.noalias.scope.decl(metadata !107)
  store ptr %1209, ptr %40, align 8, !tbaa !5, !alias.scope !107
  %1543 = load ptr, ptr %1542, align 8, !tbaa !73, !noalias !107
  %1544 = getelementptr inbounds %"class.std::__cxx11::basic_string", ptr %1542, i64 0, i32 1
  %1545 = load i64, ptr %1544, align 8, !tbaa !10, !noalias !107
  call void @llvm.lifetime.start.p0(i64 8, ptr nonnull %26) #16, !noalias !107
  store i64 %1545, ptr %26, align 8, !tbaa !85, !noalias !107
  %1546 = icmp ugt i64 %1545, 15
  br i1 %1546, label %1547, label %1551

1547:                                             ; preds = %1541
  %1548 = invoke noundef ptr @_ZNSt7__cxx1112basic_stringIcSt11char_traitsIcESaIcEE9_M_createERmm(ptr noundef nonnull align 8 dereferenceable(32) %40, ptr noundef nonnull align 8 dereferenceable(8) %26, i64 noundef 0)
          to label %1549 unwind label %1609

1549:                                             ; preds = %1547
  store ptr %1548, ptr %40, align 8, !tbaa !73, !alias.scope !107
  %1550 = load i64, ptr %26, align 8, !tbaa !85, !noalias !107
  store i64 %1550, ptr %1209, align 8, !tbaa !13, !alias.scope !107
  br label %1551

1551:                                             ; preds = %1549, %1541
  %1552 = phi ptr [ %1548, %1549 ], [ %1209, %1541 ]
  switch i64 %1545, label %1555 [
    i64 1, label %1553
    i64 0, label %1558
  ]

1553:                                             ; preds = %1551
  %1554 = load i8, ptr %1543, align 1, !tbaa !13
  store i8 %1554, ptr %1552, align 1, !tbaa !13
  br label %1558

1555:                                             ; preds = %1551
  call void @llvm.memcpy.p0.p0.i64(ptr align 1 %1552, ptr align 1 %1543, i64 %1545, i1 false)
  br label %1558

1556:                                             ; preds = %1494
  %1557 = landingpad { ptr, i32 }
          cleanup
  call void @llvm.lifetime.end.p0(i64 32, ptr nonnull %39) #16
  br label %3009

1558:                                             ; preds = %1555, %1553, %1551
  %1559 = load i64, ptr %26, align 8, !tbaa !85, !noalias !107
  store i64 %1559, ptr %1210, align 8, !tbaa !10, !alias.scope !107
  %1560 = load ptr, ptr %40, align 8, !tbaa !73, !alias.scope !107
  %1561 = getelementptr inbounds i8, ptr %1560, i64 %1559
  store i8 0, ptr %1561, align 1, !tbaa !13
  call void @llvm.lifetime.end.p0(i64 8, ptr nonnull %26) #16, !noalias !107
  %1562 = call noundef i32 @_ZNKSt7__cxx1112basic_stringIcSt11char_traitsIcESaIcEE7compareEPKc(ptr noundef nonnull align 8 dereferenceable(32) %40, ptr noundef nonnull @.str.38) #16
  %1563 = icmp eq i32 %1562, 0
  %1564 = load ptr, ptr %40, align 8, !tbaa !73
  %1565 = icmp eq ptr %1564, %1209
  br i1 %1565, label %1567, label %1566

1566:                                             ; preds = %1558
  call void @_ZdlPv(ptr noundef %1564) #17
  br label %1567

1567:                                             ; preds = %1558, %1566
  call void @llvm.lifetime.end.p0(i64 32, ptr nonnull %40) #16
  %1568 = or i1 %1515, %1563
  call void @llvm.lifetime.start.p0(i64 32, ptr nonnull %41) #16
  %1569 = load ptr, ptr %1198, align 8, !tbaa !58, !noalias !110
  %1570 = load ptr, ptr %1199, align 8, !tbaa !59, !noalias !110
  %1571 = load ptr, ptr %1200, align 8, !tbaa !57, !noalias !110
  %1572 = ptrtoint ptr %1569 to i64
  %1573 = ptrtoint ptr %1570 to i64
  %1574 = sub i64 %1572, %1573
  %1575 = ashr exact i64 %1574, 7
  %1576 = add nsw i64 %1575, %1278
  %1577 = icmp sgt i64 %1576, -1
  br i1 %1577, label %1578, label %1584

1578:                                             ; preds = %1567
  %1579 = icmp ult i64 %1576, 4
  br i1 %1579, label %1580, label %1582

1580:                                             ; preds = %1578
  %1581 = getelementptr inbounds %"class.PP::Word", ptr %1569, i64 %1278
  br label %1594

1582:                                             ; preds = %1578
  %1583 = lshr i64 %1576, 2
  br label %1587

1584:                                             ; preds = %1567
  %1585 = lshr i64 %1576, 2
  %1586 = or i64 %1585, -4611686018427387904
  br label %1587

1587:                                             ; preds = %1584, %1582
  %1588 = phi i64 [ %1583, %1582 ], [ %1586, %1584 ]
  %1589 = getelementptr inbounds ptr, ptr %1571, i64 %1588
  %1590 = load ptr, ptr %1589, align 8, !tbaa !32, !noalias !110
  %1591 = shl nsw i64 %1588, 2
  %1592 = sub nsw i64 %1576, %1591
  %1593 = getelementptr inbounds %"class.PP::Word", ptr %1590, i64 %1592
  br label %1594

1594:                                             ; preds = %1580, %1587
  %1595 = phi ptr [ %1593, %1587 ], [ %1581, %1580 ]
  call void @llvm.experimental.noalias.scope.decl(metadata !113)
  store ptr %1211, ptr %41, align 8, !tbaa !5, !alias.scope !113
  %1596 = load ptr, ptr %1595, align 8, !tbaa !73, !noalias !113
  %1597 = getelementptr inbounds %"class.std::__cxx11::basic_string", ptr %1595, i64 0, i32 1
  %1598 = load i64, ptr %1597, align 8, !tbaa !10, !noalias !113
  call void @llvm.lifetime.start.p0(i64 8, ptr nonnull %25) #16, !noalias !113
  store i64 %1598, ptr %25, align 8, !tbaa !85, !noalias !113
  %1599 = icmp ugt i64 %1598, 15
  br i1 %1599, label %1600, label %1604

1600:                                             ; preds = %1594
  %1601 = invoke noundef ptr @_ZNSt7__cxx1112basic_stringIcSt11char_traitsIcESaIcEE9_M_createERmm(ptr noundef nonnull align 8 dereferenceable(32) %41, ptr noundef nonnull align 8 dereferenceable(8) %25, i64 noundef 0)
          to label %1602 unwind label %1662

1602:                                             ; preds = %1600
  store ptr %1601, ptr %41, align 8, !tbaa !73, !alias.scope !113
  %1603 = load i64, ptr %25, align 8, !tbaa !85, !noalias !113
  store i64 %1603, ptr %1211, align 8, !tbaa !13, !alias.scope !113
  br label %1604

1604:                                             ; preds = %1602, %1594
  %1605 = phi ptr [ %1601, %1602 ], [ %1211, %1594 ]
  switch i64 %1598, label %1608 [
    i64 1, label %1606
    i64 0, label %1611
  ]

1606:                                             ; preds = %1604
  %1607 = load i8, ptr %1596, align 1, !tbaa !13
  store i8 %1607, ptr %1605, align 1, !tbaa !13
  br label %1611

1608:                                             ; preds = %1604
  call void @llvm.memcpy.p0.p0.i64(ptr align 1 %1605, ptr align 1 %1596, i64 %1598, i1 false)
  br label %1611

1609:                                             ; preds = %1547
  %1610 = landingpad { ptr, i32 }
          cleanup
  call void @llvm.lifetime.end.p0(i64 32, ptr nonnull %40) #16
  br label %3009

1611:                                             ; preds = %1608, %1606, %1604
  %1612 = load i64, ptr %25, align 8, !tbaa !85, !noalias !113
  store i64 %1612, ptr %1212, align 8, !tbaa !10, !alias.scope !113
  %1613 = load ptr, ptr %41, align 8, !tbaa !73, !alias.scope !113
  %1614 = getelementptr inbounds i8, ptr %1613, i64 %1612
  store i8 0, ptr %1614, align 1, !tbaa !13
  call void @llvm.lifetime.end.p0(i64 8, ptr nonnull %25) #16, !noalias !113
  %1615 = call noundef i32 @_ZNKSt7__cxx1112basic_stringIcSt11char_traitsIcESaIcEE7compareEPKc(ptr noundef nonnull align 8 dereferenceable(32) %41, ptr noundef nonnull @.str.39) #16
  %1616 = icmp eq i32 %1615, 0
  %1617 = load ptr, ptr %41, align 8, !tbaa !73
  %1618 = icmp eq ptr %1617, %1211
  br i1 %1618, label %1620, label %1619

1619:                                             ; preds = %1611
  call void @_ZdlPv(ptr noundef %1617) #17
  br label %1620

1620:                                             ; preds = %1611, %1619
  call void @llvm.lifetime.end.p0(i64 32, ptr nonnull %41) #16
  %1621 = or i1 %1568, %1616
  call void @llvm.lifetime.start.p0(i64 32, ptr nonnull %42) #16
  %1622 = load ptr, ptr %1198, align 8, !tbaa !58, !noalias !116
  %1623 = load ptr, ptr %1199, align 8, !tbaa !59, !noalias !116
  %1624 = load ptr, ptr %1200, align 8, !tbaa !57, !noalias !116
  %1625 = ptrtoint ptr %1622 to i64
  %1626 = ptrtoint ptr %1623 to i64
  %1627 = sub i64 %1625, %1626
  %1628 = ashr exact i64 %1627, 7
  %1629 = add nsw i64 %1628, %1278
  %1630 = icmp sgt i64 %1629, -1
  br i1 %1630, label %1631, label %1637

1631:                                             ; preds = %1620
  %1632 = icmp ult i64 %1629, 4
  br i1 %1632, label %1633, label %1635

1633:                                             ; preds = %1631
  %1634 = getelementptr inbounds %"class.PP::Word", ptr %1622, i64 %1278
  br label %1647

1635:                                             ; preds = %1631
  %1636 = lshr i64 %1629, 2
  br label %1640

1637:                                             ; preds = %1620
  %1638 = lshr i64 %1629, 2
  %1639 = or i64 %1638, -4611686018427387904
  br label %1640

1640:                                             ; preds = %1637, %1635
  %1641 = phi i64 [ %1636, %1635 ], [ %1639, %1637 ]
  %1642 = getelementptr inbounds ptr, ptr %1624, i64 %1641
  %1643 = load ptr, ptr %1642, align 8, !tbaa !32, !noalias !116
  %1644 = shl nsw i64 %1641, 2
  %1645 = sub nsw i64 %1629, %1644
  %1646 = getelementptr inbounds %"class.PP::Word", ptr %1643, i64 %1645
  br label %1647

1647:                                             ; preds = %1633, %1640
  %1648 = phi ptr [ %1646, %1640 ], [ %1634, %1633 ]
  call void @llvm.experimental.noalias.scope.decl(metadata !119)
  store ptr %1213, ptr %42, align 8, !tbaa !5, !alias.scope !119
  %1649 = load ptr, ptr %1648, align 8, !tbaa !73, !noalias !119
  %1650 = getelementptr inbounds %"class.std::__cxx11::basic_string", ptr %1648, i64 0, i32 1
  %1651 = load i64, ptr %1650, align 8, !tbaa !10, !noalias !119
  call void @llvm.lifetime.start.p0(i64 8, ptr nonnull %24) #16, !noalias !119
  store i64 %1651, ptr %24, align 8, !tbaa !85, !noalias !119
  %1652 = icmp ugt i64 %1651, 15
  br i1 %1652, label %1653, label %1657

1653:                                             ; preds = %1647
  %1654 = invoke noundef ptr @_ZNSt7__cxx1112basic_stringIcSt11char_traitsIcESaIcEE9_M_createERmm(ptr noundef nonnull align 8 dereferenceable(32) %42, ptr noundef nonnull align 8 dereferenceable(8) %24, i64 noundef 0)
          to label %1655 unwind label %1715

1655:                                             ; preds = %1653
  store ptr %1654, ptr %42, align 8, !tbaa !73, !alias.scope !119
  %1656 = load i64, ptr %24, align 8, !tbaa !85, !noalias !119
  store i64 %1656, ptr %1213, align 8, !tbaa !13, !alias.scope !119
  br label %1657

1657:                                             ; preds = %1655, %1647
  %1658 = phi ptr [ %1654, %1655 ], [ %1213, %1647 ]
  switch i64 %1651, label %1661 [
    i64 1, label %1659
    i64 0, label %1664
  ]

1659:                                             ; preds = %1657
  %1660 = load i8, ptr %1649, align 1, !tbaa !13
  store i8 %1660, ptr %1658, align 1, !tbaa !13
  br label %1664

1661:                                             ; preds = %1657
  call void @llvm.memcpy.p0.p0.i64(ptr align 1 %1658, ptr align 1 %1649, i64 %1651, i1 false)
  br label %1664

1662:                                             ; preds = %1600
  %1663 = landingpad { ptr, i32 }
          cleanup
  call void @llvm.lifetime.end.p0(i64 32, ptr nonnull %41) #16
  br label %3009

1664:                                             ; preds = %1661, %1659, %1657
  %1665 = load i64, ptr %24, align 8, !tbaa !85, !noalias !119
  store i64 %1665, ptr %1214, align 8, !tbaa !10, !alias.scope !119
  %1666 = load ptr, ptr %42, align 8, !tbaa !73, !alias.scope !119
  %1667 = getelementptr inbounds i8, ptr %1666, i64 %1665
  store i8 0, ptr %1667, align 1, !tbaa !13
  call void @llvm.lifetime.end.p0(i64 8, ptr nonnull %24) #16, !noalias !119
  %1668 = call noundef i32 @_ZNKSt7__cxx1112basic_stringIcSt11char_traitsIcESaIcEE7compareEPKc(ptr noundef nonnull align 8 dereferenceable(32) %42, ptr noundef nonnull @.str.40) #16
  %1669 = icmp eq i32 %1668, 0
  %1670 = load ptr, ptr %42, align 8, !tbaa !73
  %1671 = icmp eq ptr %1670, %1213
  br i1 %1671, label %1673, label %1672

1672:                                             ; preds = %1664
  call void @_ZdlPv(ptr noundef %1670) #17
  br label %1673

1673:                                             ; preds = %1664, %1672
  call void @llvm.lifetime.end.p0(i64 32, ptr nonnull %42) #16
  %1674 = or i1 %1621, %1669
  call void @llvm.lifetime.start.p0(i64 32, ptr nonnull %43) #16
  %1675 = load ptr, ptr %1198, align 8, !tbaa !58, !noalias !122
  %1676 = load ptr, ptr %1199, align 8, !tbaa !59, !noalias !122
  %1677 = load ptr, ptr %1200, align 8, !tbaa !57, !noalias !122
  %1678 = ptrtoint ptr %1675 to i64
  %1679 = ptrtoint ptr %1676 to i64
  %1680 = sub i64 %1678, %1679
  %1681 = ashr exact i64 %1680, 7
  %1682 = add nsw i64 %1681, %1278
  %1683 = icmp sgt i64 %1682, -1
  br i1 %1683, label %1684, label %1690

1684:                                             ; preds = %1673
  %1685 = icmp ult i64 %1682, 4
  br i1 %1685, label %1686, label %1688

1686:                                             ; preds = %1684
  %1687 = getelementptr inbounds %"class.PP::Word", ptr %1675, i64 %1278
  br label %1700

1688:                                             ; preds = %1684
  %1689 = lshr i64 %1682, 2
  br label %1693

1690:                                             ; preds = %1673
  %1691 = lshr i64 %1682, 2
  %1692 = or i64 %1691, -4611686018427387904
  br label %1693

1693:                                             ; preds = %1690, %1688
  %1694 = phi i64 [ %1689, %1688 ], [ %1692, %1690 ]
  %1695 = getelementptr inbounds ptr, ptr %1677, i64 %1694
  %1696 = load ptr, ptr %1695, align 8, !tbaa !32, !noalias !122
  %1697 = shl nsw i64 %1694, 2
  %1698 = sub nsw i64 %1682, %1697
  %1699 = getelementptr inbounds %"class.PP::Word", ptr %1696, i64 %1698
  br label %1700

1700:                                             ; preds = %1686, %1693
  %1701 = phi ptr [ %1699, %1693 ], [ %1687, %1686 ]
  call void @llvm.experimental.noalias.scope.decl(metadata !125)
  store ptr %1215, ptr %43, align 8, !tbaa !5, !alias.scope !125
  %1702 = load ptr, ptr %1701, align 8, !tbaa !73, !noalias !125
  %1703 = getelementptr inbounds %"class.std::__cxx11::basic_string", ptr %1701, i64 0, i32 1
  %1704 = load i64, ptr %1703, align 8, !tbaa !10, !noalias !125
  call void @llvm.lifetime.start.p0(i64 8, ptr nonnull %23) #16, !noalias !125
  store i64 %1704, ptr %23, align 8, !tbaa !85, !noalias !125
  %1705 = icmp ugt i64 %1704, 15
  br i1 %1705, label %1706, label %1710

1706:                                             ; preds = %1700
  %1707 = invoke noundef ptr @_ZNSt7__cxx1112basic_stringIcSt11char_traitsIcESaIcEE9_M_createERmm(ptr noundef nonnull align 8 dereferenceable(32) %43, ptr noundef nonnull align 8 dereferenceable(8) %23, i64 noundef 0)
          to label %1708 unwind label %1768

1708:                                             ; preds = %1706
  store ptr %1707, ptr %43, align 8, !tbaa !73, !alias.scope !125
  %1709 = load i64, ptr %23, align 8, !tbaa !85, !noalias !125
  store i64 %1709, ptr %1215, align 8, !tbaa !13, !alias.scope !125
  br label %1710

1710:                                             ; preds = %1708, %1700
  %1711 = phi ptr [ %1707, %1708 ], [ %1215, %1700 ]
  switch i64 %1704, label %1714 [
    i64 1, label %1712
    i64 0, label %1717
  ]

1712:                                             ; preds = %1710
  %1713 = load i8, ptr %1702, align 1, !tbaa !13
  store i8 %1713, ptr %1711, align 1, !tbaa !13
  br label %1717

1714:                                             ; preds = %1710
  call void @llvm.memcpy.p0.p0.i64(ptr align 1 %1711, ptr align 1 %1702, i64 %1704, i1 false)
  br label %1717

1715:                                             ; preds = %1653
  %1716 = landingpad { ptr, i32 }
          cleanup
  call void @llvm.lifetime.end.p0(i64 32, ptr nonnull %42) #16
  br label %3009

1717:                                             ; preds = %1714, %1712, %1710
  %1718 = load i64, ptr %23, align 8, !tbaa !85, !noalias !125
  store i64 %1718, ptr %1216, align 8, !tbaa !10, !alias.scope !125
  %1719 = load ptr, ptr %43, align 8, !tbaa !73, !alias.scope !125
  %1720 = getelementptr inbounds i8, ptr %1719, i64 %1718
  store i8 0, ptr %1720, align 1, !tbaa !13
  call void @llvm.lifetime.end.p0(i64 8, ptr nonnull %23) #16, !noalias !125
  %1721 = call noundef i32 @_ZNKSt7__cxx1112basic_stringIcSt11char_traitsIcESaIcEE7compareEPKc(ptr noundef nonnull align 8 dereferenceable(32) %43, ptr noundef nonnull @.str.41) #16
  %1722 = icmp eq i32 %1721, 0
  %1723 = load ptr, ptr %43, align 8, !tbaa !73
  %1724 = icmp eq ptr %1723, %1215
  br i1 %1724, label %1726, label %1725

1725:                                             ; preds = %1717
  call void @_ZdlPv(ptr noundef %1723) #17
  br label %1726

1726:                                             ; preds = %1717, %1725
  call void @llvm.lifetime.end.p0(i64 32, ptr nonnull %43) #16
  %1727 = or i1 %1674, %1722
  call void @llvm.lifetime.start.p0(i64 32, ptr nonnull %44) #16
  %1728 = load ptr, ptr %1198, align 8, !tbaa !58, !noalias !128
  %1729 = load ptr, ptr %1199, align 8, !tbaa !59, !noalias !128
  %1730 = load ptr, ptr %1200, align 8, !tbaa !57, !noalias !128
  %1731 = ptrtoint ptr %1728 to i64
  %1732 = ptrtoint ptr %1729 to i64
  %1733 = sub i64 %1731, %1732
  %1734 = ashr exact i64 %1733, 7
  %1735 = add nsw i64 %1734, %1278
  %1736 = icmp sgt i64 %1735, -1
  br i1 %1736, label %1737, label %1743

1737:                                             ; preds = %1726
  %1738 = icmp ult i64 %1735, 4
  br i1 %1738, label %1739, label %1741

1739:                                             ; preds = %1737
  %1740 = getelementptr inbounds %"class.PP::Word", ptr %1728, i64 %1278
  br label %1753

1741:                                             ; preds = %1737
  %1742 = lshr i64 %1735, 2
  br label %1746

1743:                                             ; preds = %1726
  %1744 = lshr i64 %1735, 2
  %1745 = or i64 %1744, -4611686018427387904
  br label %1746

1746:                                             ; preds = %1743, %1741
  %1747 = phi i64 [ %1742, %1741 ], [ %1745, %1743 ]
  %1748 = getelementptr inbounds ptr, ptr %1730, i64 %1747
  %1749 = load ptr, ptr %1748, align 8, !tbaa !32, !noalias !128
  %1750 = shl nsw i64 %1747, 2
  %1751 = sub nsw i64 %1735, %1750
  %1752 = getelementptr inbounds %"class.PP::Word", ptr %1749, i64 %1751
  br label %1753

1753:                                             ; preds = %1739, %1746
  %1754 = phi ptr [ %1752, %1746 ], [ %1740, %1739 ]
  call void @llvm.experimental.noalias.scope.decl(metadata !131)
  store ptr %1217, ptr %44, align 8, !tbaa !5, !alias.scope !131
  %1755 = load ptr, ptr %1754, align 8, !tbaa !73, !noalias !131
  %1756 = getelementptr inbounds %"class.std::__cxx11::basic_string", ptr %1754, i64 0, i32 1
  %1757 = load i64, ptr %1756, align 8, !tbaa !10, !noalias !131
  call void @llvm.lifetime.start.p0(i64 8, ptr nonnull %22) #16, !noalias !131
  store i64 %1757, ptr %22, align 8, !tbaa !85, !noalias !131
  %1758 = icmp ugt i64 %1757, 15
  br i1 %1758, label %1759, label %1763

1759:                                             ; preds = %1753
  %1760 = invoke noundef ptr @_ZNSt7__cxx1112basic_stringIcSt11char_traitsIcESaIcEE9_M_createERmm(ptr noundef nonnull align 8 dereferenceable(32) %44, ptr noundef nonnull align 8 dereferenceable(8) %22, i64 noundef 0)
          to label %1761 unwind label %1820

1761:                                             ; preds = %1759
  store ptr %1760, ptr %44, align 8, !tbaa !73, !alias.scope !131
  %1762 = load i64, ptr %22, align 8, !tbaa !85, !noalias !131
  store i64 %1762, ptr %1217, align 8, !tbaa !13, !alias.scope !131
  br label %1763

1763:                                             ; preds = %1761, %1753
  %1764 = phi ptr [ %1760, %1761 ], [ %1217, %1753 ]
  switch i64 %1757, label %1767 [
    i64 1, label %1765
    i64 0, label %1770
  ]

1765:                                             ; preds = %1763
  %1766 = load i8, ptr %1755, align 1, !tbaa !13
  store i8 %1766, ptr %1764, align 1, !tbaa !13
  br label %1770

1767:                                             ; preds = %1763
  call void @llvm.memcpy.p0.p0.i64(ptr align 1 %1764, ptr align 1 %1755, i64 %1757, i1 false)
  br label %1770

1768:                                             ; preds = %1706
  %1769 = landingpad { ptr, i32 }
          cleanup
  call void @llvm.lifetime.end.p0(i64 32, ptr nonnull %43) #16
  br label %3009

1770:                                             ; preds = %1767, %1765, %1763
  %1771 = load i64, ptr %22, align 8, !tbaa !85, !noalias !131
  store i64 %1771, ptr %1218, align 8, !tbaa !10, !alias.scope !131
  %1772 = load ptr, ptr %44, align 8, !tbaa !73, !alias.scope !131
  %1773 = getelementptr inbounds i8, ptr %1772, i64 %1771
  store i8 0, ptr %1773, align 1, !tbaa !13
  call void @llvm.lifetime.end.p0(i64 8, ptr nonnull %22) #16, !noalias !131
  %1774 = call noundef i32 @_ZNKSt7__cxx1112basic_stringIcSt11char_traitsIcESaIcEE7compareEPKc(ptr noundef nonnull align 8 dereferenceable(32) %44, ptr noundef nonnull @.str.42) #16
  %1775 = icmp eq i32 %1774, 0
  %1776 = load ptr, ptr %44, align 8, !tbaa !73
  %1777 = icmp eq ptr %1776, %1217
  br i1 %1777, label %1779, label %1778

1778:                                             ; preds = %1770
  call void @_ZdlPv(ptr noundef %1776) #17
  br label %1779

1779:                                             ; preds = %1770, %1778
  call void @llvm.lifetime.end.p0(i64 32, ptr nonnull %44) #16
  call void @llvm.lifetime.start.p0(i64 32, ptr nonnull %45) #16
  %1780 = load ptr, ptr %1198, align 8, !tbaa !58, !noalias !134
  %1781 = load ptr, ptr %1199, align 8, !tbaa !59, !noalias !134
  %1782 = load ptr, ptr %1200, align 8, !tbaa !57, !noalias !134
  %1783 = ptrtoint ptr %1780 to i64
  %1784 = ptrtoint ptr %1781 to i64
  %1785 = sub i64 %1783, %1784
  %1786 = ashr exact i64 %1785, 7
  %1787 = add nsw i64 %1786, %1278
  %1788 = icmp sgt i64 %1787, -1
  br i1 %1788, label %1789, label %1795

1789:                                             ; preds = %1779
  %1790 = icmp ult i64 %1787, 4
  br i1 %1790, label %1791, label %1793

1791:                                             ; preds = %1789
  %1792 = getelementptr inbounds %"class.PP::Word", ptr %1780, i64 %1278
  br label %1805

1793:                                             ; preds = %1789
  %1794 = lshr i64 %1787, 2
  br label %1798

1795:                                             ; preds = %1779
  %1796 = lshr i64 %1787, 2
  %1797 = or i64 %1796, -4611686018427387904
  br label %1798

1798:                                             ; preds = %1795, %1793
  %1799 = phi i64 [ %1794, %1793 ], [ %1797, %1795 ]
  %1800 = getelementptr inbounds ptr, ptr %1782, i64 %1799
  %1801 = load ptr, ptr %1800, align 8, !tbaa !32, !noalias !134
  %1802 = shl nsw i64 %1799, 2
  %1803 = sub nsw i64 %1787, %1802
  %1804 = getelementptr inbounds %"class.PP::Word", ptr %1801, i64 %1803
  br label %1805

1805:                                             ; preds = %1791, %1798
  %1806 = phi ptr [ %1804, %1798 ], [ %1792, %1791 ]
  call void @llvm.experimental.noalias.scope.decl(metadata !137)
  store ptr %1219, ptr %45, align 8, !tbaa !5, !alias.scope !137
  %1807 = load ptr, ptr %1806, align 8, !tbaa !73, !noalias !137
  %1808 = getelementptr inbounds %"class.std::__cxx11::basic_string", ptr %1806, i64 0, i32 1
  %1809 = load i64, ptr %1808, align 8, !tbaa !10, !noalias !137
  call void @llvm.lifetime.start.p0(i64 8, ptr nonnull %21) #16, !noalias !137
  store i64 %1809, ptr %21, align 8, !tbaa !85, !noalias !137
  %1810 = icmp ugt i64 %1809, 15
  br i1 %1810, label %1811, label %1815

1811:                                             ; preds = %1805
  %1812 = invoke noundef ptr @_ZNSt7__cxx1112basic_stringIcSt11char_traitsIcESaIcEE9_M_createERmm(ptr noundef nonnull align 8 dereferenceable(32) %45, ptr noundef nonnull align 8 dereferenceable(8) %21, i64 noundef 0)
          to label %1813 unwind label %1873

1813:                                             ; preds = %1811
  store ptr %1812, ptr %45, align 8, !tbaa !73, !alias.scope !137
  %1814 = load i64, ptr %21, align 8, !tbaa !85, !noalias !137
  store i64 %1814, ptr %1219, align 8, !tbaa !13, !alias.scope !137
  br label %1815

1815:                                             ; preds = %1813, %1805
  %1816 = phi ptr [ %1812, %1813 ], [ %1219, %1805 ]
  switch i64 %1809, label %1819 [
    i64 1, label %1817
    i64 0, label %1822
  ]

1817:                                             ; preds = %1815
  %1818 = load i8, ptr %1807, align 1, !tbaa !13
  store i8 %1818, ptr %1816, align 1, !tbaa !13
  br label %1822

1819:                                             ; preds = %1815
  call void @llvm.memcpy.p0.p0.i64(ptr align 1 %1816, ptr align 1 %1807, i64 %1809, i1 false)
  br label %1822

1820:                                             ; preds = %1759
  %1821 = landingpad { ptr, i32 }
          cleanup
  call void @llvm.lifetime.end.p0(i64 32, ptr nonnull %44) #16
  br label %3009

1822:                                             ; preds = %1819, %1817, %1815
  %1823 = load i64, ptr %21, align 8, !tbaa !85, !noalias !137
  store i64 %1823, ptr %1220, align 8, !tbaa !10, !alias.scope !137
  %1824 = load ptr, ptr %45, align 8, !tbaa !73, !alias.scope !137
  %1825 = getelementptr inbounds i8, ptr %1824, i64 %1823
  store i8 0, ptr %1825, align 1, !tbaa !13
  call void @llvm.lifetime.end.p0(i64 8, ptr nonnull %21) #16, !noalias !137
  %1826 = call noundef i32 @_ZNKSt7__cxx1112basic_stringIcSt11char_traitsIcESaIcEE7compareEPKc(ptr noundef nonnull align 8 dereferenceable(32) %45, ptr noundef nonnull @.str.43) #16
  %1827 = icmp eq i32 %1826, 0
  %1828 = load ptr, ptr %45, align 8, !tbaa !73
  %1829 = icmp eq ptr %1828, %1219
  br i1 %1829, label %1831, label %1830

1830:                                             ; preds = %1822
  call void @_ZdlPv(ptr noundef %1828) #17
  br label %1831

1831:                                             ; preds = %1822, %1830
  call void @llvm.lifetime.end.p0(i64 32, ptr nonnull %45) #16
  %1832 = or i1 %1775, %1827
  call void @llvm.lifetime.start.p0(i64 32, ptr nonnull %46) #16
  %1833 = load ptr, ptr %1198, align 8, !tbaa !58, !noalias !140
  %1834 = load ptr, ptr %1199, align 8, !tbaa !59, !noalias !140
  %1835 = load ptr, ptr %1200, align 8, !tbaa !57, !noalias !140
  %1836 = ptrtoint ptr %1833 to i64
  %1837 = ptrtoint ptr %1834 to i64
  %1838 = sub i64 %1836, %1837
  %1839 = ashr exact i64 %1838, 7
  %1840 = add nsw i64 %1839, %1278
  %1841 = icmp sgt i64 %1840, -1
  br i1 %1841, label %1842, label %1848

1842:                                             ; preds = %1831
  %1843 = icmp ult i64 %1840, 4
  br i1 %1843, label %1844, label %1846

1844:                                             ; preds = %1842
  %1845 = getelementptr inbounds %"class.PP::Word", ptr %1833, i64 %1278
  br label %1858

1846:                                             ; preds = %1842
  %1847 = lshr i64 %1840, 2
  br label %1851

1848:                                             ; preds = %1831
  %1849 = lshr i64 %1840, 2
  %1850 = or i64 %1849, -4611686018427387904
  br label %1851

1851:                                             ; preds = %1848, %1846
  %1852 = phi i64 [ %1847, %1846 ], [ %1850, %1848 ]
  %1853 = getelementptr inbounds ptr, ptr %1835, i64 %1852
  %1854 = load ptr, ptr %1853, align 8, !tbaa !32, !noalias !140
  %1855 = shl nsw i64 %1852, 2
  %1856 = sub nsw i64 %1840, %1855
  %1857 = getelementptr inbounds %"class.PP::Word", ptr %1854, i64 %1856
  br label %1858

1858:                                             ; preds = %1844, %1851
  %1859 = phi ptr [ %1857, %1851 ], [ %1845, %1844 ]
  call void @llvm.experimental.noalias.scope.decl(metadata !143)
  store ptr %1221, ptr %46, align 8, !tbaa !5, !alias.scope !143
  %1860 = load ptr, ptr %1859, align 8, !tbaa !73, !noalias !143
  %1861 = getelementptr inbounds %"class.std::__cxx11::basic_string", ptr %1859, i64 0, i32 1
  %1862 = load i64, ptr %1861, align 8, !tbaa !10, !noalias !143
  call void @llvm.lifetime.start.p0(i64 8, ptr nonnull %20) #16, !noalias !143
  store i64 %1862, ptr %20, align 8, !tbaa !85, !noalias !143
  %1863 = icmp ugt i64 %1862, 15
  br i1 %1863, label %1864, label %1868

1864:                                             ; preds = %1858
  %1865 = invoke noundef ptr @_ZNSt7__cxx1112basic_stringIcSt11char_traitsIcESaIcEE9_M_createERmm(ptr noundef nonnull align 8 dereferenceable(32) %46, ptr noundef nonnull align 8 dereferenceable(8) %20, i64 noundef 0)
          to label %1866 unwind label %1926

1866:                                             ; preds = %1864
  store ptr %1865, ptr %46, align 8, !tbaa !73, !alias.scope !143
  %1867 = load i64, ptr %20, align 8, !tbaa !85, !noalias !143
  store i64 %1867, ptr %1221, align 8, !tbaa !13, !alias.scope !143
  br label %1868

1868:                                             ; preds = %1866, %1858
  %1869 = phi ptr [ %1865, %1866 ], [ %1221, %1858 ]
  switch i64 %1862, label %1872 [
    i64 1, label %1870
    i64 0, label %1875
  ]

1870:                                             ; preds = %1868
  %1871 = load i8, ptr %1860, align 1, !tbaa !13
  store i8 %1871, ptr %1869, align 1, !tbaa !13
  br label %1875

1872:                                             ; preds = %1868
  call void @llvm.memcpy.p0.p0.i64(ptr align 1 %1869, ptr align 1 %1860, i64 %1862, i1 false)
  br label %1875

1873:                                             ; preds = %1811
  %1874 = landingpad { ptr, i32 }
          cleanup
  call void @llvm.lifetime.end.p0(i64 32, ptr nonnull %45) #16
  br label %3009

1875:                                             ; preds = %1872, %1870, %1868
  %1876 = load i64, ptr %20, align 8, !tbaa !85, !noalias !143
  store i64 %1876, ptr %1222, align 8, !tbaa !10, !alias.scope !143
  %1877 = load ptr, ptr %46, align 8, !tbaa !73, !alias.scope !143
  %1878 = getelementptr inbounds i8, ptr %1877, i64 %1876
  store i8 0, ptr %1878, align 1, !tbaa !13
  call void @llvm.lifetime.end.p0(i64 8, ptr nonnull %20) #16, !noalias !143
  %1879 = call noundef i32 @_ZNKSt7__cxx1112basic_stringIcSt11char_traitsIcESaIcEE7compareEPKc(ptr noundef nonnull align 8 dereferenceable(32) %46, ptr noundef nonnull @.str.44) #16
  %1880 = icmp eq i32 %1879, 0
  %1881 = load ptr, ptr %46, align 8, !tbaa !73
  %1882 = icmp eq ptr %1881, %1221
  br i1 %1882, label %1884, label %1883

1883:                                             ; preds = %1875
  call void @_ZdlPv(ptr noundef %1881) #17
  br label %1884

1884:                                             ; preds = %1875, %1883
  call void @llvm.lifetime.end.p0(i64 32, ptr nonnull %46) #16
  %1885 = or i1 %1832, %1880
  call void @llvm.lifetime.start.p0(i64 32, ptr nonnull %47) #16
  %1886 = load ptr, ptr %1198, align 8, !tbaa !58, !noalias !146
  %1887 = load ptr, ptr %1199, align 8, !tbaa !59, !noalias !146
  %1888 = load ptr, ptr %1200, align 8, !tbaa !57, !noalias !146
  %1889 = ptrtoint ptr %1886 to i64
  %1890 = ptrtoint ptr %1887 to i64
  %1891 = sub i64 %1889, %1890
  %1892 = ashr exact i64 %1891, 7
  %1893 = add nsw i64 %1892, %1278
  %1894 = icmp sgt i64 %1893, -1
  br i1 %1894, label %1895, label %1901

1895:                                             ; preds = %1884
  %1896 = icmp ult i64 %1893, 4
  br i1 %1896, label %1897, label %1899

1897:                                             ; preds = %1895
  %1898 = getelementptr inbounds %"class.PP::Word", ptr %1886, i64 %1278
  br label %1911

1899:                                             ; preds = %1895
  %1900 = lshr i64 %1893, 2
  br label %1904

1901:                                             ; preds = %1884
  %1902 = lshr i64 %1893, 2
  %1903 = or i64 %1902, -4611686018427387904
  br label %1904

1904:                                             ; preds = %1901, %1899
  %1905 = phi i64 [ %1900, %1899 ], [ %1903, %1901 ]
  %1906 = getelementptr inbounds ptr, ptr %1888, i64 %1905
  %1907 = load ptr, ptr %1906, align 8, !tbaa !32, !noalias !146
  %1908 = shl nsw i64 %1905, 2
  %1909 = sub nsw i64 %1893, %1908
  %1910 = getelementptr inbounds %"class.PP::Word", ptr %1907, i64 %1909
  br label %1911

1911:                                             ; preds = %1897, %1904
  %1912 = phi ptr [ %1910, %1904 ], [ %1898, %1897 ]
  call void @llvm.experimental.noalias.scope.decl(metadata !149)
  store ptr %1223, ptr %47, align 8, !tbaa !5, !alias.scope !149
  %1913 = load ptr, ptr %1912, align 8, !tbaa !73, !noalias !149
  %1914 = getelementptr inbounds %"class.std::__cxx11::basic_string", ptr %1912, i64 0, i32 1
  %1915 = load i64, ptr %1914, align 8, !tbaa !10, !noalias !149
  call void @llvm.lifetime.start.p0(i64 8, ptr nonnull %19) #16, !noalias !149
  store i64 %1915, ptr %19, align 8, !tbaa !85, !noalias !149
  %1916 = icmp ugt i64 %1915, 15
  br i1 %1916, label %1917, label %1921

1917:                                             ; preds = %1911
  %1918 = invoke noundef ptr @_ZNSt7__cxx1112basic_stringIcSt11char_traitsIcESaIcEE9_M_createERmm(ptr noundef nonnull align 8 dereferenceable(32) %47, ptr noundef nonnull align 8 dereferenceable(8) %19, i64 noundef 0)
          to label %1919 unwind label %1940

1919:                                             ; preds = %1917
  store ptr %1918, ptr %47, align 8, !tbaa !73, !alias.scope !149
  %1920 = load i64, ptr %19, align 8, !tbaa !85, !noalias !149
  store i64 %1920, ptr %1223, align 8, !tbaa !13, !alias.scope !149
  br label %1921

1921:                                             ; preds = %1919, %1911
  %1922 = phi ptr [ %1918, %1919 ], [ %1223, %1911 ]
  switch i64 %1915, label %1925 [
    i64 1, label %1923
    i64 0, label %1928
  ]

1923:                                             ; preds = %1921
  %1924 = load i8, ptr %1913, align 1, !tbaa !13
  store i8 %1924, ptr %1922, align 1, !tbaa !13
  br label %1928

1925:                                             ; preds = %1921
  call void @llvm.memcpy.p0.p0.i64(ptr align 1 %1922, ptr align 1 %1913, i64 %1915, i1 false)
  br label %1928

1926:                                             ; preds = %1864
  %1927 = landingpad { ptr, i32 }
          cleanup
  call void @llvm.lifetime.end.p0(i64 32, ptr nonnull %46) #16
  br label %3009

1928:                                             ; preds = %1925, %1923, %1921
  %1929 = load i64, ptr %19, align 8, !tbaa !85, !noalias !149
  store i64 %1929, ptr %1224, align 8, !tbaa !10, !alias.scope !149
  %1930 = load ptr, ptr %47, align 8, !tbaa !73, !alias.scope !149
  %1931 = getelementptr inbounds i8, ptr %1930, i64 %1929
  store i8 0, ptr %1931, align 1, !tbaa !13
  call void @llvm.lifetime.end.p0(i64 8, ptr nonnull %19) #16, !noalias !149
  %1932 = call noundef i32 @_ZNKSt7__cxx1112basic_stringIcSt11char_traitsIcESaIcEE7compareEPKc(ptr noundef nonnull align 8 dereferenceable(32) %47, ptr noundef nonnull @.str.45) #16
  %1933 = icmp eq i32 %1932, 0
  %1934 = load ptr, ptr %47, align 8, !tbaa !73
  %1935 = icmp eq ptr %1934, %1223
  br i1 %1935, label %1937, label %1936

1936:                                             ; preds = %1928
  call void @_ZdlPv(ptr noundef %1934) #17
  br label %1937

1937:                                             ; preds = %1928, %1936
  call void @llvm.lifetime.end.p0(i64 32, ptr nonnull %47) #16
  %1938 = or i1 %1885, %1933
  %1939 = select i1 %1938, i1 true, i1 %1727
  br i1 %1939, label %2153, label %1942

1940:                                             ; preds = %1917
  %1941 = landingpad { ptr, i32 }
          cleanup
  call void @llvm.lifetime.end.p0(i64 32, ptr nonnull %47) #16
  br label %3009

1942:                                             ; preds = %1937
  %1943 = and i64 %1278, 4294967295
  %1944 = load ptr, ptr %1198, align 8, !tbaa !58, !noalias !152
  %1945 = load ptr, ptr %1199, align 8, !tbaa !59, !noalias !152
  %1946 = load ptr, ptr %1200, align 8, !tbaa !57, !noalias !152
  %1947 = ptrtoint ptr %1944 to i64
  %1948 = ptrtoint ptr %1945 to i64
  %1949 = sub i64 %1947, %1948
  %1950 = ashr exact i64 %1949, 7
  %1951 = add nsw i64 %1950, %1943
  %1952 = icmp sgt i64 %1951, -1
  br i1 %1952, label %1953, label %1959

1953:                                             ; preds = %1942
  %1954 = icmp ult i64 %1951, 4
  br i1 %1954, label %1955, label %1957

1955:                                             ; preds = %1953
  %1956 = getelementptr inbounds %"class.PP::Word", ptr %1944, i64 %1943
  br label %1969

1957:                                             ; preds = %1953
  %1958 = lshr i64 %1951, 2
  br label %1962

1959:                                             ; preds = %1942
  %1960 = lshr i64 %1951, 2
  %1961 = or i64 %1960, -4611686018427387904
  br label %1962

1962:                                             ; preds = %1959, %1957
  %1963 = phi i64 [ %1958, %1957 ], [ %1961, %1959 ]
  %1964 = getelementptr inbounds ptr, ptr %1946, i64 %1963
  %1965 = load ptr, ptr %1964, align 8, !tbaa !32, !noalias !152
  %1966 = shl nsw i64 %1963, 2
  %1967 = sub nsw i64 %1951, %1966
  %1968 = getelementptr inbounds %"class.PP::Word", ptr %1965, i64 %1967
  br label %1969

1969:                                             ; preds = %1955, %1962
  %1970 = phi ptr [ %1968, %1962 ], [ %1956, %1955 ]
  invoke void @_ZN2PP4Word11fatal_errorERNSt7__cxx1118basic_stringstreamIcSt11char_traitsIcESaIcEEERi(ptr noundef nonnull align 8 dereferenceable(128) %1970, ptr noundef nonnull align 8 dereferenceable(128) %9, ptr noundef nonnull align 4 dereferenceable(4) %10)
          to label %1971 unwind label %2142

1971:                                             ; preds = %1969
  %1972 = getelementptr inbounds i8, ptr %9, i64 16
  %1973 = invoke noundef nonnull align 8 dereferenceable(8) ptr @_ZSt16__ostream_insertIcSt11char_traitsIcEERSt13basic_ostreamIT_T0_ES6_PKS3_l(ptr noundef nonnull align 8 dereferenceable(8) %1972, ptr noundef nonnull @.str.46, i64 noundef 31)
          to label %1974 unwind label %2142

1974:                                             ; preds = %1971
  %1975 = load ptr, ptr %1972, align 8, !tbaa !61
  %1976 = getelementptr i8, ptr %1975, i64 -24
  %1977 = load i64, ptr %1976, align 8
  %1978 = getelementptr inbounds i8, ptr %1972, i64 %1977
  %1979 = getelementptr inbounds %"class.std::basic_ios", ptr %1978, i64 0, i32 5
  %1980 = load ptr, ptr %1979, align 8, !tbaa !63
  %1981 = icmp eq ptr %1980, null
  br i1 %1981, label %2038, label %1982

1982:                                             ; preds = %1974
  %1983 = getelementptr inbounds %"class.std::ctype", ptr %1980, i64 0, i32 8
  %1984 = load i8, ptr %1983, align 8, !tbaa !70
  %1985 = icmp eq i8 %1984, 0
  br i1 %1985, label %1989, label %1986

1986:                                             ; preds = %1982
  %1987 = getelementptr inbounds %"class.std::ctype", ptr %1980, i64 0, i32 9, i64 10
  %1988 = load i8, ptr %1987, align 1, !tbaa !13
  br label %1995

1989:                                             ; preds = %1982
  invoke void @_ZNKSt5ctypeIcE13_M_widen_initEv(ptr noundef nonnull align 8 dereferenceable(570) %1980)
          to label %1990 unwind label %2142

1990:                                             ; preds = %1989
  %1991 = load ptr, ptr %1980, align 8, !tbaa !61
  %1992 = getelementptr inbounds ptr, ptr %1991, i64 6
  %1993 = load ptr, ptr %1992, align 8
  %1994 = invoke noundef signext i8 %1993(ptr noundef nonnull align 8 dereferenceable(570) %1980, i8 noundef signext 10)
          to label %1995 unwind label %2142

1995:                                             ; preds = %1990, %1986
  %1996 = phi i8 [ %1988, %1986 ], [ %1994, %1990 ]
  %1997 = invoke noundef nonnull align 8 dereferenceable(8) ptr @_ZNSo3putEc(ptr noundef nonnull align 8 dereferenceable(8) %1972, i8 noundef signext %1996)
          to label %1998 unwind label %2142

1998:                                             ; preds = %1995
  %1999 = invoke noundef nonnull align 8 dereferenceable(8) ptr @_ZNSo5flushEv(ptr noundef nonnull align 8 dereferenceable(8) %1997)
          to label %2000 unwind label %2142

2000:                                             ; preds = %1998
  %2001 = invoke noundef nonnull align 8 dereferenceable(8) ptr @_ZSt16__ostream_insertIcSt11char_traitsIcEERSt13basic_ostreamIT_T0_ES6_PKS3_l(ptr noundef nonnull align 8 dereferenceable(8) %1972, ptr noundef nonnull @.str.47, i64 noundef 44)
          to label %2002 unwind label %2142

2002:                                             ; preds = %2000
  %2003 = load ptr, ptr %1972, align 8, !tbaa !61
  %2004 = getelementptr i8, ptr %2003, i64 -24
  %2005 = load i64, ptr %2004, align 8
  %2006 = getelementptr inbounds i8, ptr %1972, i64 %2005
  %2007 = getelementptr inbounds %"class.std::basic_ios", ptr %2006, i64 0, i32 5
  %2008 = load ptr, ptr %2007, align 8, !tbaa !63
  %2009 = icmp eq ptr %2008, null
  br i1 %2009, label %2038, label %2010

2010:                                             ; preds = %2002
  %2011 = getelementptr inbounds %"class.std::ctype", ptr %2008, i64 0, i32 8
  %2012 = load i8, ptr %2011, align 8, !tbaa !70
  %2013 = icmp eq i8 %2012, 0
  br i1 %2013, label %2017, label %2014

2014:                                             ; preds = %2010
  %2015 = getelementptr inbounds %"class.std::ctype", ptr %2008, i64 0, i32 9, i64 10
  %2016 = load i8, ptr %2015, align 1, !tbaa !13
  br label %2023

2017:                                             ; preds = %2010
  invoke void @_ZNKSt5ctypeIcE13_M_widen_initEv(ptr noundef nonnull align 8 dereferenceable(570) %2008)
          to label %2018 unwind label %2142

2018:                                             ; preds = %2017
  %2019 = load ptr, ptr %2008, align 8, !tbaa !61
  %2020 = getelementptr inbounds ptr, ptr %2019, i64 6
  %2021 = load ptr, ptr %2020, align 8
  %2022 = invoke noundef signext i8 %2021(ptr noundef nonnull align 8 dereferenceable(570) %2008, i8 noundef signext 10)
          to label %2023 unwind label %2142

2023:                                             ; preds = %2018, %2014
  %2024 = phi i8 [ %2016, %2014 ], [ %2022, %2018 ]
  %2025 = invoke noundef nonnull align 8 dereferenceable(8) ptr @_ZNSo3putEc(ptr noundef nonnull align 8 dereferenceable(8) %1972, i8 noundef signext %2024)
          to label %2026 unwind label %2142

2026:                                             ; preds = %2023
  %2027 = invoke noundef nonnull align 8 dereferenceable(8) ptr @_ZNSo5flushEv(ptr noundef nonnull align 8 dereferenceable(8) %2025)
          to label %2028 unwind label %2142

2028:                                             ; preds = %2026
  %2029 = invoke noundef nonnull align 8 dereferenceable(8) ptr @_ZSt16__ostream_insertIcSt11char_traitsIcEERSt13basic_ostreamIT_T0_ES6_PKS3_l(ptr noundef nonnull align 8 dereferenceable(8) %1972, ptr noundef nonnull @.str.48, i64 noundef 60)
          to label %2030 unwind label %2142

2030:                                             ; preds = %2028
  %2031 = load ptr, ptr %1972, align 8, !tbaa !61
  %2032 = getelementptr i8, ptr %2031, i64 -24
  %2033 = load i64, ptr %2032, align 8
  %2034 = getelementptr inbounds i8, ptr %1972, i64 %2033
  %2035 = getelementptr inbounds %"class.std::basic_ios", ptr %2034, i64 0, i32 5
  %2036 = load ptr, ptr %2035, align 8, !tbaa !63
  %2037 = icmp eq ptr %2036, null
  br i1 %2037, label %2038, label %2040

2038:                                             ; preds = %2030, %2002, %1974
  invoke void @_ZSt16__throw_bad_castv() #19
          to label %2039 unwind label %2142

2039:                                             ; preds = %2038
  unreachable

2040:                                             ; preds = %2030
  %2041 = getelementptr inbounds %"class.std::ctype", ptr %2036, i64 0, i32 8
  %2042 = load i8, ptr %2041, align 8, !tbaa !70
  %2043 = icmp eq i8 %2042, 0
  br i1 %2043, label %2047, label %2044

2044:                                             ; preds = %2040
  %2045 = getelementptr inbounds %"class.std::ctype", ptr %2036, i64 0, i32 9, i64 10
  %2046 = load i8, ptr %2045, align 1, !tbaa !13
  br label %2053

2047:                                             ; preds = %2040
  invoke void @_ZNKSt5ctypeIcE13_M_widen_initEv(ptr noundef nonnull align 8 dereferenceable(570) %2036)
          to label %2048 unwind label %2142

2048:                                             ; preds = %2047
  %2049 = load ptr, ptr %2036, align 8, !tbaa !61
  %2050 = getelementptr inbounds ptr, ptr %2049, i64 6
  %2051 = load ptr, ptr %2050, align 8
  %2052 = invoke noundef signext i8 %2051(ptr noundef nonnull align 8 dereferenceable(570) %2036, i8 noundef signext 10)
          to label %2053 unwind label %2142

2053:                                             ; preds = %2048, %2044
  %2054 = phi i8 [ %2046, %2044 ], [ %2052, %2048 ]
  %2055 = invoke noundef nonnull align 8 dereferenceable(8) ptr @_ZNSo3putEc(ptr noundef nonnull align 8 dereferenceable(8) %1972, i8 noundef signext %2054)
          to label %2056 unwind label %2142

2056:                                             ; preds = %2053
  %2057 = invoke noundef nonnull align 8 dereferenceable(8) ptr @_ZNSo5flushEv(ptr noundef nonnull align 8 dereferenceable(8) %2055)
          to label %2058 unwind label %2142

2058:                                             ; preds = %2056
  %2059 = invoke noundef nonnull align 8 dereferenceable(8) ptr @_ZSt16__ostream_insertIcSt11char_traitsIcEERSt13basic_ostreamIT_T0_ES6_PKS3_l(ptr noundef nonnull align 8 dereferenceable(8) %1972, ptr noundef nonnull @.str.49, i64 noundef 25)
          to label %2060 unwind label %2142

2060:                                             ; preds = %2058
  call void @llvm.lifetime.start.p0(i64 32, ptr nonnull %48) #16
  %2061 = load ptr, ptr %1198, align 8, !tbaa !58, !noalias !155
  %2062 = load ptr, ptr %1199, align 8, !tbaa !59, !noalias !155
  %2063 = load ptr, ptr %1200, align 8, !tbaa !57, !noalias !155
  %2064 = ptrtoint ptr %2061 to i64
  %2065 = ptrtoint ptr %2062 to i64
  %2066 = sub i64 %2064, %2065
  %2067 = ashr exact i64 %2066, 7
  %2068 = add nsw i64 %2067, %1943
  %2069 = icmp sgt i64 %2068, -1
  br i1 %2069, label %2070, label %2076

2070:                                             ; preds = %2060
  %2071 = icmp ult i64 %2068, 4
  br i1 %2071, label %2072, label %2074

2072:                                             ; preds = %2070
  %2073 = getelementptr inbounds %"class.PP::Word", ptr %2061, i64 %1943
  br label %2086

2074:                                             ; preds = %2070
  %2075 = lshr i64 %2068, 2
  br label %2079

2076:                                             ; preds = %2060
  %2077 = lshr i64 %2068, 2
  %2078 = or i64 %2077, -4611686018427387904
  br label %2079

2079:                                             ; preds = %2076, %2074
  %2080 = phi i64 [ %2075, %2074 ], [ %2078, %2076 ]
  %2081 = getelementptr inbounds ptr, ptr %2063, i64 %2080
  %2082 = load ptr, ptr %2081, align 8, !tbaa !32, !noalias !155
  %2083 = shl nsw i64 %2080, 2
  %2084 = sub nsw i64 %2068, %2083
  %2085 = getelementptr inbounds %"class.PP::Word", ptr %2082, i64 %2084
  br label %2086

2086:                                             ; preds = %2072, %2079
  %2087 = phi ptr [ %2085, %2079 ], [ %2073, %2072 ]
  call void @llvm.experimental.noalias.scope.decl(metadata !158)
  %2088 = getelementptr inbounds %"class.std::__cxx11::basic_string", ptr %48, i64 0, i32 2
  store ptr %2088, ptr %48, align 8, !tbaa !5, !alias.scope !158
  %2089 = load ptr, ptr %2087, align 8, !tbaa !73, !noalias !158
  %2090 = getelementptr inbounds %"class.std::__cxx11::basic_string", ptr %2087, i64 0, i32 1
  %2091 = load i64, ptr %2090, align 8, !tbaa !10, !noalias !158
  call void @llvm.lifetime.start.p0(i64 8, ptr nonnull %18) #16, !noalias !158
  store i64 %2091, ptr %18, align 8, !tbaa !85, !noalias !158
  %2092 = icmp ugt i64 %2091, 15
  br i1 %2092, label %2093, label %2097

2093:                                             ; preds = %2086
  %2094 = invoke noundef ptr @_ZNSt7__cxx1112basic_stringIcSt11char_traitsIcESaIcEE9_M_createERmm(ptr noundef nonnull align 8 dereferenceable(32) %48, ptr noundef nonnull align 8 dereferenceable(8) %18, i64 noundef 0)
          to label %2095 unwind label %2144

2095:                                             ; preds = %2093
  store ptr %2094, ptr %48, align 8, !tbaa !73, !alias.scope !158
  %2096 = load i64, ptr %18, align 8, !tbaa !85, !noalias !158
  store i64 %2096, ptr %2088, align 8, !tbaa !13, !alias.scope !158
  br label %2097

2097:                                             ; preds = %2095, %2086
  %2098 = phi ptr [ %2094, %2095 ], [ %2088, %2086 ]
  switch i64 %2091, label %2101 [
    i64 1, label %2099
    i64 0, label %2102
  ]

2099:                                             ; preds = %2097
  %2100 = load i8, ptr %2089, align 1, !tbaa !13
  store i8 %2100, ptr %2098, align 1, !tbaa !13
  br label %2102

2101:                                             ; preds = %2097
  call void @llvm.memcpy.p0.p0.i64(ptr align 1 %2098, ptr align 1 %2089, i64 %2091, i1 false)
  br label %2102

2102:                                             ; preds = %2101, %2099, %2097
  %2103 = load i64, ptr %18, align 8, !tbaa !85, !noalias !158
  %2104 = getelementptr inbounds %"class.std::__cxx11::basic_string", ptr %48, i64 0, i32 1
  store i64 %2103, ptr %2104, align 8, !tbaa !10, !alias.scope !158
  %2105 = load ptr, ptr %48, align 8, !tbaa !73, !alias.scope !158
  %2106 = getelementptr inbounds i8, ptr %2105, i64 %2103
  store i8 0, ptr %2106, align 1, !tbaa !13
  call void @llvm.lifetime.end.p0(i64 8, ptr nonnull %18) #16, !noalias !158
  %2107 = load ptr, ptr %48, align 8, !tbaa !73
  %2108 = load i64, ptr %2104, align 8, !tbaa !10
  %2109 = invoke noundef nonnull align 8 dereferenceable(8) ptr @_ZSt16__ostream_insertIcSt11char_traitsIcEERSt13basic_ostreamIT_T0_ES6_PKS3_l(ptr noundef nonnull align 8 dereferenceable(8) %1972, ptr noundef %2107, i64 noundef %2108)
          to label %2110 unwind label %2146

2110:                                             ; preds = %2102
  %2111 = load ptr, ptr %2109, align 8, !tbaa !61
  %2112 = getelementptr i8, ptr %2111, i64 -24
  %2113 = load i64, ptr %2112, align 8
  %2114 = getelementptr inbounds i8, ptr %2109, i64 %2113
  %2115 = getelementptr inbounds %"class.std::basic_ios", ptr %2114, i64 0, i32 5
  %2116 = load ptr, ptr %2115, align 8, !tbaa !63
  %2117 = icmp eq ptr %2116, null
  br i1 %2117, label %2118, label %2120

2118:                                             ; preds = %2110
  invoke void @_ZSt16__throw_bad_castv() #19
          to label %2119 unwind label %2146

2119:                                             ; preds = %2118
  unreachable

2120:                                             ; preds = %2110
  %2121 = getelementptr inbounds %"class.std::ctype", ptr %2116, i64 0, i32 8
  %2122 = load i8, ptr %2121, align 8, !tbaa !70
  %2123 = icmp eq i8 %2122, 0
  br i1 %2123, label %2127, label %2124

2124:                                             ; preds = %2120
  %2125 = getelementptr inbounds %"class.std::ctype", ptr %2116, i64 0, i32 9, i64 10
  %2126 = load i8, ptr %2125, align 1, !tbaa !13
  br label %2133

2127:                                             ; preds = %2120
  invoke void @_ZNKSt5ctypeIcE13_M_widen_initEv(ptr noundef nonnull align 8 dereferenceable(570) %2116)
          to label %2128 unwind label %2146

2128:                                             ; preds = %2127
  %2129 = load ptr, ptr %2116, align 8, !tbaa !61
  %2130 = getelementptr inbounds ptr, ptr %2129, i64 6
  %2131 = load ptr, ptr %2130, align 8
  %2132 = invoke noundef signext i8 %2131(ptr noundef nonnull align 8 dereferenceable(570) %2116, i8 noundef signext 10)
          to label %2133 unwind label %2146

2133:                                             ; preds = %2128, %2124
  %2134 = phi i8 [ %2126, %2124 ], [ %2132, %2128 ]
  %2135 = invoke noundef nonnull align 8 dereferenceable(8) ptr @_ZNSo3putEc(ptr noundef nonnull align 8 dereferenceable(8) %2109, i8 noundef signext %2134)
          to label %2136 unwind label %2146

2136:                                             ; preds = %2133
  %2137 = invoke noundef nonnull align 8 dereferenceable(8) ptr @_ZNSo5flushEv(ptr noundef nonnull align 8 dereferenceable(8) %2135)
          to label %2138 unwind label %2146

2138:                                             ; preds = %2136
  %2139 = load ptr, ptr %48, align 8, !tbaa !73
  %2140 = icmp eq ptr %2139, %2088
  br i1 %2140, label %2155, label %2141

2141:                                             ; preds = %2138
  call void @_ZdlPv(ptr noundef %2139) #17
  br label %2155

2142:                                             ; preds = %2038, %2056, %2053, %2048, %2047, %2026, %2023, %2018, %2017, %1998, %1995, %1990, %1989, %2058, %2028, %2000, %1971, %1969
  %2143 = landingpad { ptr, i32 }
          cleanup
  br label %3009

2144:                                             ; preds = %2093
  %2145 = landingpad { ptr, i32 }
          cleanup
  br label %2151

2146:                                             ; preds = %2136, %2133, %2128, %2127, %2118, %2102
  %2147 = landingpad { ptr, i32 }
          cleanup
  %2148 = load ptr, ptr %48, align 8, !tbaa !73
  %2149 = icmp eq ptr %2148, %2088
  br i1 %2149, label %2151, label %2150

2150:                                             ; preds = %2146
  call void @_ZdlPv(ptr noundef %2148) #17
  br label %2151

2151:                                             ; preds = %2150, %2146, %2144
  %2152 = phi { ptr, i32 } [ %2145, %2144 ], [ %2147, %2146 ], [ %2147, %2150 ]
  call void @llvm.lifetime.end.p0(i64 32, ptr nonnull %48) #16
  br label %3009

2153:                                             ; preds = %1937
  %2154 = add nuw nsw i64 %1278, 1
  br label %1277, !llvm.loop !161

2155:                                             ; preds = %2141, %2138
  call void @llvm.lifetime.end.p0(i64 32, ptr nonnull %48) #16
  store i32 2, ptr %10, align 4, !tbaa !54
  br label %3002

2156:                                             ; preds = %1277
  call void @llvm.lifetime.start.p0(i64 32, ptr nonnull %49) #16
  invoke void @_ZN2PP3Cmd10get_stringB5cxx11Ei(ptr nonnull sret(%"class.std::__cxx11::basic_string") align 8 %49, ptr noundef nonnull align 8 dereferenceable(432) %2, i32 noundef 1)
          to label %2157 unwind label %2240

2157:                                             ; preds = %2156
  %2158 = load ptr, ptr %49, align 8, !tbaa !73
  %2159 = getelementptr inbounds %"class.std::__cxx11::basic_string", ptr %49, i64 0, i32 2
  %2160 = icmp eq ptr %2158, %2159
  br i1 %2160, label %2161, label %2178

2161:                                             ; preds = %2157
  %2162 = icmp eq ptr %49, %69
  br i1 %2162, label %2191, label %2163, !prof !162

2163:                                             ; preds = %2161
  %2164 = getelementptr inbounds %"class.std::__cxx11::basic_string", ptr %49, i64 0, i32 1
  %2165 = load i64, ptr %2164, align 8, !tbaa !10
  %2166 = icmp eq i64 %2165, 0
  br i1 %2166, label %2173, label %2167

2167:                                             ; preds = %2163
  %2168 = load ptr, ptr %69, align 8, !tbaa !73
  %2169 = icmp eq i64 %2165, 1
  br i1 %2169, label %2170, label %2172

2170:                                             ; preds = %2167
  %2171 = load i8, ptr %2158, align 1, !tbaa !13
  store i8 %2171, ptr %2168, align 1, !tbaa !13
  br label %2173

2172:                                             ; preds = %2167
  call void @llvm.memcpy.p0.p0.i64(ptr align 1 %2168, ptr align 1 %2158, i64 %2165, i1 false)
  br label %2173

2173:                                             ; preds = %2172, %2170, %2163
  %2174 = load i64, ptr %2164, align 8, !tbaa !10
  store i64 %2174, ptr %71, align 8, !tbaa !10
  %2175 = load ptr, ptr %69, align 8, !tbaa !73
  %2176 = getelementptr inbounds i8, ptr %2175, i64 %2174
  store i8 0, ptr %2176, align 1, !tbaa !13
  %2177 = load ptr, ptr %49, align 8, !tbaa !73
  br label %2191

2178:                                             ; preds = %2157
  %2179 = load ptr, ptr %69, align 8, !tbaa !73
  %2180 = icmp eq ptr %2179, %70
  br i1 %2180, label %2181, label %2184

2181:                                             ; preds = %2178
  store ptr %2158, ptr %69, align 8, !tbaa !73
  %2182 = getelementptr inbounds %"class.std::__cxx11::basic_string", ptr %49, i64 0, i32 1
  %2183 = load <2 x i64>, ptr %2182, align 8, !tbaa !13
  store <2 x i64> %2183, ptr %71, align 8, !tbaa !13
  br label %2190

2184:                                             ; preds = %2178
  %2185 = load i64, ptr %70, align 8, !tbaa !13
  store ptr %2158, ptr %69, align 8, !tbaa !73
  %2186 = getelementptr inbounds %"class.std::__cxx11::basic_string", ptr %49, i64 0, i32 1
  %2187 = load <2 x i64>, ptr %2186, align 8, !tbaa !13
  store <2 x i64> %2187, ptr %71, align 8, !tbaa !13
  %2188 = icmp eq ptr %2179, null
  br i1 %2188, label %2190, label %2189

2189:                                             ; preds = %2184
  store ptr %2179, ptr %49, align 8, !tbaa !73
  store i64 %2185, ptr %2159, align 8, !tbaa !13
  br label %2191

2190:                                             ; preds = %2184, %2181
  store ptr %2159, ptr %49, align 8, !tbaa !73
  br label %2191

2191:                                             ; preds = %2161, %2173, %2189, %2190
  %2192 = phi ptr [ %2177, %2173 ], [ %2179, %2189 ], [ %2159, %2190 ], [ %2158, %2161 ]
  %2193 = getelementptr inbounds %"class.std::__cxx11::basic_string", ptr %49, i64 0, i32 1
  store i64 0, ptr %2193, align 8, !tbaa !10
  store i8 0, ptr %2192, align 1, !tbaa !13
  %2194 = load ptr, ptr %49, align 8, !tbaa !73
  %2195 = icmp eq ptr %2194, %2159
  br i1 %2195, label %2197, label %2196

2196:                                             ; preds = %2191
  call void @_ZdlPv(ptr noundef %2194) #17
  br label %2197

2197:                                             ; preds = %2191, %2196
  call void @llvm.lifetime.end.p0(i64 32, ptr nonnull %49) #16
  %2198 = getelementptr inbounds %"struct.std::_Deque_base<std::__cxx11::basic_string<char>, std::allocator<std::__cxx11::basic_string<char>>>::_Deque_impl_data", ptr %5, i64 0, i32 3
  %2199 = getelementptr inbounds %"struct.std::_Deque_base<std::__cxx11::basic_string<char>, std::allocator<std::__cxx11::basic_string<char>>>::_Deque_impl_data", ptr %5, i64 0, i32 2
  %2200 = getelementptr inbounds %"struct.std::_Deque_base<std::__cxx11::basic_string<char>, std::allocator<std::__cxx11::basic_string<char>>>::_Deque_impl_data", ptr %5, i64 0, i32 3, i32 3
  %2201 = load ptr, ptr %2200, align 8, !tbaa !163
  %2202 = getelementptr inbounds %"struct.std::_Deque_base<std::__cxx11::basic_string<char>, std::allocator<std::__cxx11::basic_string<char>>>::_Deque_impl_data", ptr %5, i64 0, i32 2, i32 3
  %2203 = load ptr, ptr %2202, align 8, !tbaa !163
  %2204 = ptrtoint ptr %2201 to i64
  %2205 = ptrtoint ptr %2203 to i64
  %2206 = sub i64 %2204, %2205
  %2207 = ashr exact i64 %2206, 3
  %2208 = icmp ne ptr %2201, null
  %2209 = sext i1 %2208 to i64
  %2210 = add nsw i64 %2207, %2209
  %2211 = shl nsw i64 %2210, 4
  %2212 = load ptr, ptr %2198, align 8, !tbaa !164
  %2213 = getelementptr inbounds %"struct.std::_Deque_base<std::__cxx11::basic_string<char>, std::allocator<std::__cxx11::basic_string<char>>>::_Deque_impl_data", ptr %5, i64 0, i32 3, i32 1
  %2214 = load ptr, ptr %2213, align 8, !tbaa !165
  %2215 = ptrtoint ptr %2212 to i64
  %2216 = ptrtoint ptr %2214 to i64
  %2217 = sub i64 %2215, %2216
  %2218 = lshr exact i64 %2217, 5
  %2219 = add i64 %2211, %2218
  %2220 = getelementptr inbounds %"struct.std::_Deque_base<std::__cxx11::basic_string<char>, std::allocator<std::__cxx11::basic_string<char>>>::_Deque_impl_data", ptr %5, i64 0, i32 2, i32 2
  %2221 = load ptr, ptr %2220, align 8, !tbaa !166
  %2222 = load ptr, ptr %2199, align 8, !tbaa !164
  %2223 = ptrtoint ptr %2221 to i64
  %2224 = ptrtoint ptr %2222 to i64
  %2225 = sub i64 %2223, %2224
  %2226 = lshr exact i64 %2225, 5
  %2227 = add i64 %2219, %2226
  %2228 = trunc i64 %2227 to i32
  %2229 = icmp sgt i32 %2228, 0
  br i1 %2229, label %2230, label %2473

2230:                                             ; preds = %2197
  %2231 = getelementptr inbounds %"struct.std::_Deque_base<std::__cxx11::basic_string<char>, std::allocator<std::__cxx11::basic_string<char>>>::_Deque_impl_data", ptr %5, i64 0, i32 2, i32 1
  %2232 = load ptr, ptr %2231, align 8, !tbaa !165, !noalias !167
  %2233 = ptrtoint ptr %2232 to i64
  %2234 = sub i64 %2224, %2233
  %2235 = ashr exact i64 %2234, 5
  %2236 = load i64, ptr %71, align 8, !tbaa !10
  %2237 = icmp eq i64 %2236, 0
  %2238 = load ptr, ptr %69, align 8
  %2239 = and i64 %2227, 4294967295
  br label %2242

2240:                                             ; preds = %2156
  %2241 = landingpad { ptr, i32 }
          cleanup
  call void @llvm.lifetime.end.p0(i64 32, ptr nonnull %49) #16
  br label %3009

2242:                                             ; preds = %2230, %2469
  %2243 = phi i32 [ 0, %2230 ], [ %2472, %2469 ]
  %2244 = phi i64 [ 0, %2230 ], [ %2470, %2469 ]
  %2245 = add nsw i64 %2235, %2244
  %2246 = icmp sgt i64 %2245, -1
  br i1 %2246, label %2247, label %2253

2247:                                             ; preds = %2242
  %2248 = icmp ult i64 %2245, 16
  br i1 %2248, label %2249, label %2251

2249:                                             ; preds = %2247
  %2250 = getelementptr inbounds %"class.std::__cxx11::basic_string", ptr %2222, i64 %2244
  br label %2263

2251:                                             ; preds = %2247
  %2252 = lshr i64 %2245, 4
  br label %2256

2253:                                             ; preds = %2242
  %2254 = lshr i64 %2245, 4
  %2255 = or i64 %2254, -1152921504606846976
  br label %2256

2256:                                             ; preds = %2253, %2251
  %2257 = phi i64 [ %2252, %2251 ], [ %2255, %2253 ]
  %2258 = getelementptr inbounds ptr, ptr %2203, i64 %2257
  %2259 = load ptr, ptr %2258, align 8, !tbaa !32, !noalias !167
  %2260 = shl nsw i64 %2257, 4
  %2261 = sub nsw i64 %2245, %2260
  %2262 = getelementptr inbounds %"class.std::__cxx11::basic_string", ptr %2259, i64 %2261
  br label %2263

2263:                                             ; preds = %2249, %2256
  %2264 = phi ptr [ %2262, %2256 ], [ %2250, %2249 ]
  %2265 = getelementptr inbounds %"class.std::__cxx11::basic_string", ptr %2264, i64 0, i32 1
  %2266 = load i64, ptr %2265, align 8, !tbaa !10
  %2267 = icmp eq i64 %2236, %2266
  br i1 %2267, label %2268, label %2469

2268:                                             ; preds = %2263
  br i1 %2237, label %2273, label %2269

2269:                                             ; preds = %2268
  %2270 = load ptr, ptr %2264, align 8, !tbaa !73
  %2271 = call i32 @bcmp(ptr %2238, ptr %2270, i64 %2236)
  %2272 = icmp eq i32 %2271, 0
  br i1 %2272, label %2273, label %2469

2273:                                             ; preds = %2268, %2269
  %2274 = and i64 %2244, 4294967295
  store i32 0, ptr %72, align 8, !tbaa !14
  %2275 = getelementptr inbounds %"struct.std::_Deque_base<bool, std::allocator<bool>>::_Deque_impl_data", ptr %6, i64 0, i32 2
  %2276 = load ptr, ptr %2275, align 8, !tbaa !170, !noalias !171
  %2277 = getelementptr inbounds %"struct.std::_Deque_base<bool, std::allocator<bool>>::_Deque_impl_data", ptr %6, i64 0, i32 2, i32 1
  %2278 = load ptr, ptr %2277, align 8, !tbaa !174, !noalias !171
  %2279 = getelementptr inbounds %"struct.std::_Deque_base<bool, std::allocator<bool>>::_Deque_impl_data", ptr %6, i64 0, i32 2, i32 3
  %2280 = load ptr, ptr %2279, align 8, !tbaa !175, !noalias !171
  %2281 = ptrtoint ptr %2276 to i64
  %2282 = ptrtoint ptr %2278 to i64
  %2283 = sub i64 %2281, %2282
  %2284 = add nsw i64 %2283, %2274
  %2285 = icmp sgt i64 %2284, -1
  br i1 %2285, label %2286, label %2292

2286:                                             ; preds = %2273
  %2287 = icmp ult i64 %2284, 512
  br i1 %2287, label %2288, label %2290

2288:                                             ; preds = %2286
  %2289 = getelementptr inbounds i8, ptr %2276, i64 %2274
  br label %2302

2290:                                             ; preds = %2286
  %2291 = lshr i64 %2284, 9
  br label %2295

2292:                                             ; preds = %2273
  %2293 = lshr i64 %2284, 9
  %2294 = or i64 %2293, -36028797018963968
  br label %2295

2295:                                             ; preds = %2292, %2290
  %2296 = phi i64 [ %2291, %2290 ], [ %2294, %2292 ]
  %2297 = getelementptr inbounds ptr, ptr %2280, i64 %2296
  %2298 = load ptr, ptr %2297, align 8, !tbaa !32, !noalias !171
  %2299 = shl nsw i64 %2296, 9
  %2300 = sub nsw i64 %2284, %2299
  %2301 = getelementptr inbounds i8, ptr %2298, i64 %2300
  br label %2302

2302:                                             ; preds = %2288, %2295
  %2303 = phi ptr [ %2301, %2295 ], [ %2289, %2288 ]
  %2304 = load i8, ptr %2303, align 1, !tbaa !55, !range !176, !noundef !177
  %2305 = icmp eq i8 %2304, 0
  br i1 %2305, label %2307, label %2306

2306:                                             ; preds = %2302
  store i32 1, ptr %72, align 8, !tbaa !14
  br label %2307

2307:                                             ; preds = %2306, %2302
  %2308 = and i64 %2244, 4294967295
  %2309 = icmp eq i64 %2308, 0
  br i1 %2309, label %2322, label %2310

2310:                                             ; preds = %2307
  %2311 = getelementptr inbounds %"struct.std::_Deque_base<int, std::allocator<int>>::_Deque_impl_data", ptr %7, i64 0, i32 2
  %2312 = load ptr, ptr %2311, align 8, !tbaa !178, !noalias !180
  %2313 = getelementptr inbounds %"struct.std::_Deque_base<int, std::allocator<int>>::_Deque_impl_data", ptr %7, i64 0, i32 2, i32 1
  %2314 = load ptr, ptr %2313, align 8, !tbaa !183, !noalias !180
  %2315 = getelementptr inbounds %"struct.std::_Deque_base<int, std::allocator<int>>::_Deque_impl_data", ptr %7, i64 0, i32 2, i32 3
  %2316 = load ptr, ptr %2315, align 8, !tbaa !184, !noalias !180
  %2317 = ptrtoint ptr %2312 to i64
  %2318 = ptrtoint ptr %2314 to i64
  %2319 = sub i64 %2317, %2318
  %2320 = ashr exact i64 %2319, 2
  %2321 = zext i32 %2243 to i64
  br label %2337

2322:                                             ; preds = %2358, %2307
  %2323 = phi i32 [ 0, %2307 ], [ %2361, %2358 ]
  %2324 = getelementptr inbounds %"struct.std::_Deque_base<int, std::allocator<int>>::_Deque_impl_data", ptr %7, i64 0, i32 2
  %2325 = getelementptr inbounds %"struct.std::_Deque_base<int, std::allocator<int>>::_Deque_impl_data", ptr %7, i64 0, i32 2, i32 1
  %2326 = getelementptr inbounds %"struct.std::_Deque_base<int, std::allocator<int>>::_Deque_impl_data", ptr %7, i64 0, i32 2, i32 3
  %2327 = getelementptr inbounds %"class.std::__cxx11::basic_string", ptr %50, i64 0, i32 2
  %2328 = getelementptr inbounds %"class.std::__cxx11::basic_string", ptr %50, i64 0, i32 1
  %2329 = getelementptr inbounds %"struct.std::_Deque_base<bool, std::allocator<bool>>::_Deque_impl_data", ptr %8, i64 0, i32 2
  %2330 = getelementptr inbounds %"struct.std::_Deque_base<bool, std::allocator<bool>>::_Deque_impl_data", ptr %8, i64 0, i32 2, i32 1
  %2331 = getelementptr inbounds %"struct.std::_Deque_base<bool, std::allocator<bool>>::_Deque_impl_data", ptr %8, i64 0, i32 2, i32 3
  %2332 = getelementptr inbounds %"class.PP::Restartblock", ptr %0, i64 0, i32 4, i32 0, i32 0, i32 0, i32 2
  %2333 = getelementptr inbounds %"class.PP::Restartblock", ptr %0, i64 0, i32 4, i32 0, i32 0, i32 0, i32 2, i32 1
  %2334 = getelementptr inbounds %"class.PP::Restartblock", ptr %0, i64 0, i32 4, i32 0, i32 0, i32 0, i32 2, i32 3
  %2335 = sext i32 %2323 to i64
  %2336 = getelementptr inbounds i8, ptr %50, i64 21
  br label %2364

2337:                                             ; preds = %2310, %2358
  %2338 = phi i64 [ 0, %2310 ], [ %2362, %2358 ]
  %2339 = phi i32 [ 0, %2310 ], [ %2361, %2358 ]
  %2340 = add nsw i64 %2320, %2338
  %2341 = icmp sgt i64 %2340, -1
  br i1 %2341, label %2342, label %2348

2342:                                             ; preds = %2337
  %2343 = icmp ult i64 %2340, 128
  br i1 %2343, label %2344, label %2346

2344:                                             ; preds = %2342
  %2345 = getelementptr inbounds i32, ptr %2312, i64 %2338
  br label %2358

2346:                                             ; preds = %2342
  %2347 = lshr i64 %2340, 7
  br label %2351

2348:                                             ; preds = %2337
  %2349 = lshr i64 %2340, 7
  %2350 = or i64 %2349, -144115188075855872
  br label %2351

2351:                                             ; preds = %2348, %2346
  %2352 = phi i64 [ %2347, %2346 ], [ %2350, %2348 ]
  %2353 = getelementptr inbounds ptr, ptr %2316, i64 %2352
  %2354 = load ptr, ptr %2353, align 8, !tbaa !32, !noalias !180
  %2355 = shl nsw i64 %2352, 7
  %2356 = sub nsw i64 %2340, %2355
  %2357 = getelementptr inbounds i32, ptr %2354, i64 %2356
  br label %2358

2358:                                             ; preds = %2344, %2351
  %2359 = phi ptr [ %2357, %2351 ], [ %2345, %2344 ]
  %2360 = load i32, ptr %2359, align 4, !tbaa !54
  %2361 = add nsw i32 %2360, %2339
  %2362 = add nuw nsw i64 %2338, 1
  %2363 = icmp eq i64 %2362, %2321
  br i1 %2363, label %2322, label %2337, !llvm.loop !185

2364:                                             ; preds = %2322, %2466
  %2365 = phi i64 [ %2335, %2322 ], [ %2467, %2466 ]
  %2366 = load ptr, ptr %2324, align 8, !tbaa !178, !noalias !186
  %2367 = load ptr, ptr %2325, align 8, !tbaa !183, !noalias !186
  %2368 = load ptr, ptr %2326, align 8, !tbaa !184, !noalias !186
  %2369 = ptrtoint ptr %2366 to i64
  %2370 = ptrtoint ptr %2367 to i64
  %2371 = sub i64 %2369, %2370
  %2372 = ashr exact i64 %2371, 2
  %2373 = add nsw i64 %2372, %2274
  %2374 = icmp sgt i64 %2373, -1
  br i1 %2374, label %2375, label %2381

2375:                                             ; preds = %2364
  %2376 = icmp ult i64 %2373, 128
  br i1 %2376, label %2377, label %2379

2377:                                             ; preds = %2375
  %2378 = getelementptr inbounds i32, ptr %2366, i64 %2274
  br label %2391

2379:                                             ; preds = %2375
  %2380 = lshr i64 %2373, 7
  br label %2384

2381:                                             ; preds = %2364
  %2382 = lshr i64 %2373, 7
  %2383 = or i64 %2382, -144115188075855872
  br label %2384

2384:                                             ; preds = %2381, %2379
  %2385 = phi i64 [ %2380, %2379 ], [ %2383, %2381 ]
  %2386 = getelementptr inbounds ptr, ptr %2368, i64 %2385
  %2387 = load ptr, ptr %2386, align 8, !tbaa !32, !noalias !186
  %2388 = shl nsw i64 %2385, 7
  %2389 = sub nsw i64 %2373, %2388
  %2390 = getelementptr inbounds i32, ptr %2387, i64 %2389
  br label %2391

2391:                                             ; preds = %2377, %2384
  %2392 = phi ptr [ %2390, %2384 ], [ %2378, %2377 ]
  %2393 = load i32, ptr %2392, align 4, !tbaa !54
  %2394 = add nsw i32 %2393, %2323
  %2395 = sext i32 %2394 to i64
  %2396 = icmp slt i64 %2365, %2395
  br i1 %2396, label %2397, label %2473

2397:                                             ; preds = %2391
  call void @llvm.lifetime.start.p0(i64 32, ptr nonnull %50) #16
  store ptr %2327, ptr %50, align 8, !tbaa !5
  call void @llvm.memcpy.p0.p0.i64(ptr noundef nonnull align 8 dereferenceable(5) %2327, ptr noundef nonnull align 1 dereferenceable(5) @.str.33, i64 5, i1 false)
  store i64 5, ptr %2328, align 8, !tbaa !10
  store i8 0, ptr %2336, align 1, !tbaa !13
  %2398 = load ptr, ptr %2329, align 8, !tbaa !170, !noalias !189
  %2399 = load ptr, ptr %2330, align 8, !tbaa !174, !noalias !189
  %2400 = load ptr, ptr %2331, align 8, !tbaa !175, !noalias !189
  %2401 = ptrtoint ptr %2398 to i64
  %2402 = ptrtoint ptr %2399 to i64
  %2403 = sub i64 %2401, %2402
  %2404 = add nsw i64 %2403, %2365
  %2405 = icmp sgt i64 %2404, -1
  br i1 %2405, label %2406, label %2412

2406:                                             ; preds = %2397
  %2407 = icmp ult i64 %2404, 512
  br i1 %2407, label %2408, label %2410

2408:                                             ; preds = %2406
  %2409 = getelementptr inbounds i8, ptr %2398, i64 %2365
  br label %2422

2410:                                             ; preds = %2406
  %2411 = lshr i64 %2404, 9
  br label %2415

2412:                                             ; preds = %2397
  %2413 = lshr i64 %2404, 9
  %2414 = or i64 %2413, -36028797018963968
  br label %2415

2415:                                             ; preds = %2412, %2410
  %2416 = phi i64 [ %2411, %2410 ], [ %2414, %2412 ]
  %2417 = getelementptr inbounds ptr, ptr %2400, i64 %2416
  %2418 = load ptr, ptr %2417, align 8, !tbaa !32, !noalias !189
  %2419 = shl nsw i64 %2416, 9
  %2420 = sub nsw i64 %2404, %2419
  %2421 = getelementptr inbounds i8, ptr %2418, i64 %2420
  br label %2422

2422:                                             ; preds = %2408, %2415
  %2423 = phi ptr [ %2421, %2415 ], [ %2409, %2408 ]
  %2424 = load i8, ptr %2423, align 1, !tbaa !55, !range !176, !noundef !177
  %2425 = icmp eq i8 %2424, 0
  br i1 %2425, label %2433, label %2426

2426:                                             ; preds = %2422
  %2427 = invoke noundef nonnull align 8 dereferenceable(32) ptr @_ZNSt7__cxx1112basic_stringIcSt11char_traitsIcESaIcEE10_M_replaceEmmPKcm(ptr noundef nonnull align 8 dereferenceable(32) %50, i64 noundef 0, i64 noundef 5, ptr noundef nonnull @.str.50, i64 noundef 4)
          to label %2433 unwind label %2428

2428:                                             ; preds = %2460, %2426
  %2429 = landingpad { ptr, i32 }
          cleanup
  %2430 = load ptr, ptr %50, align 8, !tbaa !73
  %2431 = icmp eq ptr %2430, %2327
  br i1 %2431, label %2468, label %2432

2432:                                             ; preds = %2428
  call void @_ZdlPv(ptr noundef %2430) #17
  br label %2468

2433:                                             ; preds = %2426, %2422
  %2434 = sub nsw i64 %2365, %2335
  %2435 = load ptr, ptr %2332, align 8, !tbaa !164, !noalias !192
  %2436 = load ptr, ptr %2333, align 8, !tbaa !165, !noalias !192
  %2437 = load ptr, ptr %2334, align 8, !tbaa !163, !noalias !192
  %2438 = ptrtoint ptr %2435 to i64
  %2439 = ptrtoint ptr %2436 to i64
  %2440 = sub i64 %2438, %2439
  %2441 = ashr exact i64 %2440, 5
  %2442 = add nsw i64 %2441, %2434
  %2443 = icmp sgt i64 %2442, -1
  br i1 %2443, label %2444, label %2450

2444:                                             ; preds = %2433
  %2445 = icmp ult i64 %2442, 16
  br i1 %2445, label %2446, label %2448

2446:                                             ; preds = %2444
  %2447 = getelementptr inbounds %"class.std::__cxx11::basic_string", ptr %2435, i64 %2434
  br label %2460

2448:                                             ; preds = %2444
  %2449 = lshr i64 %2442, 4
  br label %2453

2450:                                             ; preds = %2433
  %2451 = lshr i64 %2442, 4
  %2452 = or i64 %2451, -1152921504606846976
  br label %2453

2453:                                             ; preds = %2450, %2448
  %2454 = phi i64 [ %2449, %2448 ], [ %2452, %2450 ]
  %2455 = getelementptr inbounds ptr, ptr %2437, i64 %2454
  %2456 = load ptr, ptr %2455, align 8, !tbaa !32, !noalias !192
  %2457 = shl nsw i64 %2454, 4
  %2458 = sub nsw i64 %2442, %2457
  %2459 = getelementptr inbounds %"class.std::__cxx11::basic_string", ptr %2456, i64 %2458
  br label %2460

2460:                                             ; preds = %2446, %2453
  %2461 = phi ptr [ %2459, %2453 ], [ %2447, %2446 ]
  invoke void @_ZNSt7__cxx1112basic_stringIcSt11char_traitsIcESaIcEE9_M_assignERKS4_(ptr noundef nonnull align 8 dereferenceable(32) %2461, ptr noundef nonnull align 8 dereferenceable(32) %50)
          to label %2462 unwind label %2428

2462:                                             ; preds = %2460
  %2463 = load ptr, ptr %50, align 8, !tbaa !73
  %2464 = icmp eq ptr %2463, %2327
  br i1 %2464, label %2466, label %2465

2465:                                             ; preds = %2462
  call void @_ZdlPv(ptr noundef %2463) #17
  br label %2466

2466:                                             ; preds = %2462, %2465
  call void @llvm.lifetime.end.p0(i64 32, ptr nonnull %50) #16
  %2467 = add nsw i64 %2365, 1
  br label %2364, !llvm.loop !195

2468:                                             ; preds = %2432, %2428
  call void @llvm.lifetime.end.p0(i64 32, ptr nonnull %50) #16
  br label %3009

2469:                                             ; preds = %2263, %2269
  %2470 = add nuw nsw i64 %2244, 1
  %2471 = icmp eq i64 %2470, %2239
  %2472 = add nuw nsw i32 %2243, 1
  br i1 %2471, label %2473, label %2242, !llvm.loop !196

2473:                                             ; preds = %2469, %2391, %2197
  %2474 = load i32, ptr %72, align 8, !tbaa !14
  %2475 = icmp eq i32 %2474, 1
  br i1 %2475, label %2476, label %2477

2476:                                             ; preds = %2473
  store i8 0, ptr %3, align 1, !tbaa !55
  br label %2477

2477:                                             ; preds = %2476, %2473
  %2478 = getelementptr inbounds %"class.std::__cxx11::basic_string", ptr %52, i64 0, i32 2
  %2479 = getelementptr inbounds %"class.std::__cxx11::basic_string", ptr %52, i64 0, i32 1
  %2480 = getelementptr inbounds %"class.std::__cxx11::basic_string", ptr %53, i64 0, i32 2
  %2481 = getelementptr inbounds %"class.std::__cxx11::basic_string", ptr %53, i64 0, i32 1
  %2482 = getelementptr inbounds %"class.std::__cxx11::basic_string", ptr %54, i64 0, i32 2
  %2483 = getelementptr inbounds %"class.std::__cxx11::basic_string", ptr %54, i64 0, i32 1
  %2484 = getelementptr inbounds %"class.std::__cxx11::basic_string", ptr %55, i64 0, i32 2
  %2485 = getelementptr inbounds %"class.std::__cxx11::basic_string", ptr %55, i64 0, i32 1
  %2486 = getelementptr inbounds %"class.std::__cxx11::basic_string", ptr %56, i64 0, i32 2
  %2487 = getelementptr inbounds %"class.std::__cxx11::basic_string", ptr %56, i64 0, i32 1
  %2488 = getelementptr inbounds %"class.std::__cxx11::basic_string", ptr %57, i64 0, i32 2
  %2489 = getelementptr inbounds %"class.std::__cxx11::basic_string", ptr %57, i64 0, i32 1
  %2490 = getelementptr inbounds %"class.PP::Restartblock", ptr %0, i64 0, i32 5, i32 0, i32 0, i32 0, i32 3
  %2491 = getelementptr inbounds %"class.PP::Restartblock", ptr %0, i64 0, i32 5, i32 0, i32 0, i32 0, i32 3, i32 2
  br label %2492

2492:                                             ; preds = %2986, %2477
  %2493 = phi i64 [ %2987, %2986 ], [ 0, %2477 ]
  %2494 = load ptr, ptr %1194, align 8, !tbaa !57
  %2495 = load ptr, ptr %1195, align 8, !tbaa !57
  %2496 = ptrtoint ptr %2494 to i64
  %2497 = ptrtoint ptr %2495 to i64
  %2498 = sub i64 %2496, %2497
  %2499 = ashr exact i64 %2498, 3
  %2500 = icmp ne ptr %2494, null
  %2501 = sext i1 %2500 to i64
  %2502 = add nsw i64 %2499, %2501
  %2503 = shl nsw i64 %2502, 2
  %2504 = load ptr, ptr %1192, align 8, !tbaa !58
  %2505 = load ptr, ptr %1196, align 8, !tbaa !59
  %2506 = ptrtoint ptr %2504 to i64
  %2507 = ptrtoint ptr %2505 to i64
  %2508 = sub i64 %2506, %2507
  %2509 = lshr exact i64 %2508, 7
  %2510 = add i64 %2503, %2509
  %2511 = load ptr, ptr %1197, align 8, !tbaa !60
  %2512 = load ptr, ptr %1193, align 8, !tbaa !58
  %2513 = ptrtoint ptr %2511 to i64
  %2514 = ptrtoint ptr %2512 to i64
  %2515 = sub i64 %2513, %2514
  %2516 = lshr exact i64 %2515, 7
  %2517 = add i64 %2510, %2516
  %2518 = shl i64 %2517, 32
  %2519 = ashr exact i64 %2518, 32
  %2520 = icmp slt i64 %2493, %2519
  br i1 %2520, label %2522, label %2521

2521:                                             ; preds = %2492
  call void @llvm.lifetime.start.p0(i64 32, ptr nonnull %58) #16
  invoke void @_ZN2PP3Cmd10get_stringB5cxx11Ei(ptr nonnull sret(%"class.std::__cxx11::basic_string") align 8 %58, ptr noundef nonnull align 8 dereferenceable(432) %2, i32 noundef %329)
          to label %2990 unwind label %3000

2522:                                             ; preds = %2492
  call void @llvm.lifetime.start.p0(i64 1, ptr nonnull %51) #16
  store i8 0, ptr %51, align 1, !tbaa !55
  call void @llvm.lifetime.start.p0(i64 32, ptr nonnull %52) #16
  %2523 = load ptr, ptr %1198, align 8, !tbaa !58, !noalias !197
  %2524 = load ptr, ptr %1199, align 8, !tbaa !59, !noalias !197
  %2525 = load ptr, ptr %1200, align 8, !tbaa !57, !noalias !197
  %2526 = ptrtoint ptr %2523 to i64
  %2527 = ptrtoint ptr %2524 to i64
  %2528 = sub i64 %2526, %2527
  %2529 = ashr exact i64 %2528, 7
  %2530 = add nsw i64 %2529, %2493
  %2531 = icmp sgt i64 %2530, -1
  br i1 %2531, label %2532, label %2538

2532:                                             ; preds = %2522
  %2533 = icmp ult i64 %2530, 4
  br i1 %2533, label %2534, label %2536

2534:                                             ; preds = %2532
  %2535 = getelementptr inbounds %"class.PP::Word", ptr %2523, i64 %2493
  br label %2548

2536:                                             ; preds = %2532
  %2537 = lshr i64 %2530, 2
  br label %2541

2538:                                             ; preds = %2522
  %2539 = lshr i64 %2530, 2
  %2540 = or i64 %2539, -4611686018427387904
  br label %2541

2541:                                             ; preds = %2538, %2536
  %2542 = phi i64 [ %2537, %2536 ], [ %2540, %2538 ]
  %2543 = getelementptr inbounds ptr, ptr %2525, i64 %2542
  %2544 = load ptr, ptr %2543, align 8, !tbaa !32, !noalias !197
  %2545 = shl nsw i64 %2542, 2
  %2546 = sub nsw i64 %2530, %2545
  %2547 = getelementptr inbounds %"class.PP::Word", ptr %2544, i64 %2546
  br label %2548

2548:                                             ; preds = %2534, %2541
  %2549 = phi ptr [ %2547, %2541 ], [ %2535, %2534 ]
  call void @llvm.experimental.noalias.scope.decl(metadata !200)
  store ptr %2478, ptr %52, align 8, !tbaa !5, !alias.scope !200
  %2550 = load ptr, ptr %2549, align 8, !tbaa !73, !noalias !200
  %2551 = getelementptr inbounds %"class.std::__cxx11::basic_string", ptr %2549, i64 0, i32 1
  %2552 = load i64, ptr %2551, align 8, !tbaa !10, !noalias !200
  call void @llvm.lifetime.start.p0(i64 8, ptr nonnull %17) #16, !noalias !200
  store i64 %2552, ptr %17, align 8, !tbaa !85, !noalias !200
  %2553 = icmp ugt i64 %2552, 15
  br i1 %2553, label %2554, label %2558

2554:                                             ; preds = %2548
  %2555 = invoke noundef ptr @_ZNSt7__cxx1112basic_stringIcSt11char_traitsIcESaIcEE9_M_createERmm(ptr noundef nonnull align 8 dereferenceable(32) %52, ptr noundef nonnull align 8 dereferenceable(8) %17, i64 noundef 0)
          to label %2556 unwind label %2599

2556:                                             ; preds = %2554
  store ptr %2555, ptr %52, align 8, !tbaa !73, !alias.scope !200
  %2557 = load i64, ptr %17, align 8, !tbaa !85, !noalias !200
  store i64 %2557, ptr %2478, align 8, !tbaa !13, !alias.scope !200
  br label %2558

2558:                                             ; preds = %2556, %2548
  %2559 = phi ptr [ %2555, %2556 ], [ %2478, %2548 ]
  switch i64 %2552, label %2562 [
    i64 1, label %2560
    i64 0, label %2563
  ]

2560:                                             ; preds = %2558
  %2561 = load i8, ptr %2550, align 1, !tbaa !13
  store i8 %2561, ptr %2559, align 1, !tbaa !13
  br label %2563

2562:                                             ; preds = %2558
  call void @llvm.memcpy.p0.p0.i64(ptr align 1 %2559, ptr align 1 %2550, i64 %2552, i1 false)
  br label %2563

2563:                                             ; preds = %2562, %2560, %2558
  %2564 = load i64, ptr %17, align 8, !tbaa !85, !noalias !200
  store i64 %2564, ptr %2479, align 8, !tbaa !10, !alias.scope !200
  %2565 = load ptr, ptr %52, align 8, !tbaa !73, !alias.scope !200
  %2566 = getelementptr inbounds i8, ptr %2565, i64 %2564
  store i8 0, ptr %2566, align 1, !tbaa !13
  call void @llvm.lifetime.end.p0(i64 8, ptr nonnull %17) #16, !noalias !200
  %2567 = call noundef i32 @_ZNKSt7__cxx1112basic_stringIcSt11char_traitsIcESaIcEE7compareEPKc(ptr noundef nonnull align 8 dereferenceable(32) %52, ptr noundef nonnull @.str.34) #16
  %2568 = icmp eq i32 %2567, 0
  %2569 = load ptr, ptr %52, align 8, !tbaa !73
  %2570 = icmp eq ptr %2569, %2478
  br i1 %2570, label %2572, label %2571

2571:                                             ; preds = %2563
  call void @_ZdlPv(ptr noundef %2569) #17
  br label %2572

2572:                                             ; preds = %2563, %2571
  call void @llvm.lifetime.end.p0(i64 32, ptr nonnull %52) #16
  br i1 %2568, label %2573, label %2603

2573:                                             ; preds = %2572
  store i8 1, ptr %51, align 1, !tbaa !55
  %2574 = load ptr, ptr %1198, align 8, !tbaa !58, !noalias !203
  %2575 = load ptr, ptr %1199, align 8, !tbaa !59, !noalias !203
  %2576 = load ptr, ptr %1200, align 8, !tbaa !57, !noalias !203
  %2577 = ptrtoint ptr %2574 to i64
  %2578 = ptrtoint ptr %2575 to i64
  %2579 = sub i64 %2577, %2578
  %2580 = ashr exact i64 %2579, 7
  %2581 = add nsw i64 %2580, %2493
  %2582 = icmp sgt i64 %2581, -1
  br i1 %2582, label %2583, label %2589

2583:                                             ; preds = %2573
  %2584 = icmp ult i64 %2581, 4
  br i1 %2584, label %2585, label %2587

2585:                                             ; preds = %2583
  %2586 = getelementptr inbounds %"class.PP::Word", ptr %2574, i64 %2493
  br label %2972

2587:                                             ; preds = %2583
  %2588 = lshr i64 %2581, 2
  br label %2592

2589:                                             ; preds = %2573
  %2590 = lshr i64 %2581, 2
  %2591 = or i64 %2590, -4611686018427387904
  br label %2592

2592:                                             ; preds = %2589, %2587
  %2593 = phi i64 [ %2588, %2587 ], [ %2591, %2589 ]
  %2594 = getelementptr inbounds ptr, ptr %2576, i64 %2593
  %2595 = load ptr, ptr %2594, align 8, !tbaa !32, !noalias !203
  %2596 = shl nsw i64 %2593, 2
  %2597 = sub nsw i64 %2581, %2596
  %2598 = getelementptr inbounds %"class.PP::Word", ptr %2595, i64 %2597
  br label %2972

2599:                                             ; preds = %2554
  %2600 = landingpad { ptr, i32 }
          cleanup
  call void @llvm.lifetime.end.p0(i64 32, ptr nonnull %52) #16
  br label %2988

2601:                                             ; preds = %2972, %2985
  %2602 = landingpad { ptr, i32 }
          cleanup
  br label %2988

2603:                                             ; preds = %2572
  call void @llvm.lifetime.start.p0(i64 32, ptr nonnull %53) #16
  %2604 = load ptr, ptr %1198, align 8, !tbaa !58, !noalias !206
  %2605 = load ptr, ptr %1199, align 8, !tbaa !59, !noalias !206
  %2606 = load ptr, ptr %1200, align 8, !tbaa !57, !noalias !206
  %2607 = ptrtoint ptr %2604 to i64
